Certificate:
    Data:
        Version: 3 (0x2)
        Serial Number:
            d5:4e:16:aa:65:f9:50:02:97:41:e3:da:44:ac:30:f2
        Signature Algorithm: sha256WithRSAEncryption
        Issuer: CN=team253-net
        Validity
            Not Before: Sep 13 00:53:15 2021 GMT
            Not After : Aug 28 00:53:15 2024 GMT
        Subject: CN=team253-client
        Subject Public Key Info:
            Public Key Algorithm: rsaEncryption
                RSA Public-Key: (2048 bit)
                Modulus:
                    00:de:3a:29:f3:3a:99:8c:d2:1b:53:55:13:85:ca:
                    cf:3a:e3:2d:53:fd:1e:7e:85:b2:b3:4c:27:48:9e:
                    7a:c6:44:26:13:07:f8:5a:a1:ec:9e:7a:07:8f:7f:
                    28:bb:e2:11:72:04:57:4b:0b:4c:19:7e:b0:b7:6c:
                    29:89:99:4e:02:a1:e1:97:ec:45:fe:83:77:70:44:
                    43:34:9b:1b:01:0a:e0:6c:8b:cc:d1:5d:ca:3c:b0:
                    66:71:60:f9:9d:a1:00:45:52:db:52:f9:d1:91:b7:
                    09:51:60:a9:fc:49:98:de:7c:35:bc:cc:15:84:0c:
                    32:77:19:c2:1e:a4:17:e4:0f:04:61:f2:da:b3:a5:
                    b9:f7:f9:6f:67:80:43:fc:d5:84:ae:a6:0e:71:3f:
                    b1:96:54:86:9c:e5:ae:22:b9:29:06:53:34:66:db:
                    3f:9c:a0:a3:2d:67:19:5b:29:62:35:b5:4f:d7:7c:
                    b2:6b:a0:0e:6c:49:2f:2a:9b:bf:dc:8d:18:3a:f5:
                    7d:bf:f9:6e:2a:45:01:46:b5:d4:b6:c6:46:9e:29:
                    b5:de:14:77:af:18:77:74:2c:8c:72:8a:f9:a6:47:
                    ba:12:e0:7d:44:b0:96:45:e7:60:d1:3a:a3:c2:53:
                    f0:1c:9c:44:0d:10:d8:ab:02:13:b2:3a:21:2f:4c:
                    9a:d7
                Exponent: 65537 (0x10001)
        X509v3 extensions:
            X509v3 Basic Constraints: 
                CA:FALSE
            X509v3 Subject Key Identifier: 
                36:0F:C4:49:75:11:E6:BE:E8:85:4C:D8:DE:A1:1D:D6:A9:3C:93:7D
            X509v3 Authority Key Identifier: 
                keyid:3D:FA:B1:04:DB:56:B6:45:AC:E3:1E:AA:D8:AD:E6:FE:33:82:13:08
                DirName:/CN=team253-net
                serial:11:61:90:BF:09:53:4E:6E:68:57:10:0D:FD:49:6F:62:54:56:74:06

            X509v3 Extended Key Usage: 
                TLS Web Client Authentication
            X509v3 Key Usage: 
                Digital Signature
    Signature Algorithm: sha256WithRSAEncryption
         9b:d1:b3:96:02:c4:35:aa:79:48:e7:1b:df:2a:67:27:4c:00:
         3a:b5:71:f8:6b:8d:87:14:c8:98:77:ac:69:ce:1f:fb:db:9f:
         dd:a2:58:9c:00:cf:44:ed:11:aa:c6:3d:7a:90:04:0d:c8:c5:
         f8:6c:73:fa:86:e0:ef:a3:c1:a2:6d:f6:88:25:fe:d9:b4:90:
         ce:7a:81:00:25:b6:ee:d7:fa:35:1b:90:83:eb:35:f8:9d:e0:
         54:59:6b:9f:2e:7a:20:05:db:91:6d:10:05:ad:2c:b8:52:f2:
         c4:a5:89:46:ef:64:19:60:53:96:a8:f2:ba:66:fd:b5:db:53:
         b6:66:d3:fe:4a:a9:c7:8a:d1:32:eb:30:e8:11:d0:03:81:fb:
         df:0b:c9:a8:c4:4d:a2:00:44:a1:21:bd:7a:55:ca:be:2f:6f:
         25:06:10:27:71:57:aa:e6:39:0c:59:fc:3e:88:bd:d2:22:c8:
         16:91:33:a2:5d:0b:39:7e:1f:c6:64:0b:c9:c1:2c:01:54:88:
         4a:32:ab:ab:cf:a9:21:0c:b4:c2:52:cd:4d:5f:d3:7d:00:55:
         65:fc:af:f8:ba:d6:16:7b:41:41:df:36:8f:10:2c:3c:bd:0a:
         63:4c:72:f2:50:1b:e5:c4:bc:72:2b:bc:6d:8d:3c:3a:12:99:
         16:9a:9f:5b
-----BEGIN CERTIFICATE-----
MIIDXTCCAkWgAwIBAgIRANVOFqpl+VACl0Hj2kSsMPIwDQYJKoZIhvcNAQELBQAw
FjEUMBIGA1UEAwwLdGVhbTI1My1uZXQwHhcNMjEwOTEzMDA1MzE1WhcNMjQwODI4
MDA1MzE1WjAZMRcwFQYDVQQDDA50ZWFtMjUzLWNsaWVudDCCASIwDQYJKoZIhvcN
AQEBBQADggEPADCCAQoCggEBAN46KfM6mYzSG1NVE4XKzzrjLVP9Hn6FsrNMJ0ie
esZEJhMH+Fqh7J56B49/KLviEXIEV0sLTBl+sLdsKYmZTgKh4ZfsRf6Dd3BEQzSb
GwEK4GyLzNFdyjywZnFg+Z2hAEVS21L50ZG3CVFgqfxJmN58NbzMFYQMMncZwh6k
F+QPBGHy2rOluff5b2eAQ/zVhK6mDnE/sZZUhpzlriK5KQZTNGbbP5ygoy1nGVsp
YjW1T9d8smugDmxJLyqbv9yNGDr1fb/5bipFAUa11LbGRp4ptd4Ud68Yd3QsjHKK
+aZHuhLgfUSwlkXnYNE6o8JT8BycRA0Q2KsCE7I6IS9MmtcCAwEAAaOBojCBnzAJ
BgNVHRMEAjAAMB0GA1UdDgQWBBQ2D8RJdRHmvuiFTNjeoR3WqTyTfTBRBgNVHSME
SjBIgBQ9+rEE21a2RazjHqrYreb+M4ITCKEapBgwFjEUMBIGA1UEAwwLdGVhbTI1
My1uZXSCFBFhkL8JU05uaFcQDf1Jb2JUVnQGMBMGA1UdJQQMMAoGCCsGAQUFBwMC
MAsGA1UdDwQEAwIHgDANBgkqhkiG9w0BAQsFAAOCAQEAm9GzlgLENap5SOcb3ypn
J0wAOrVx+GuNhxTImHesac4f+9uf3aJYnADPRO0RqsY9epAEDcjF+Gxz+obg76PB
om32iCX+2bSQznqBACW27tf6NRuQg+s1+J3gVFlrny56IAXbkW0QBa0suFLyxKWJ
Ru9kGWBTlqjyumb9tdtTtmbT/kqpx4rRMusw6BHQA4H73wvJqMRNogBEoSG9elXK
vi9vJQYQJ3FXquY5DFn8Poi90iLIFpEzol0LOX4fxmQLycEsAVSISjKrq8+pIQy0
wlLNTV/TfQBVZfyv+LrWFntBQd82jxAsPL0KY0xy8lAb5cS8ciu8bY08OhKZFpqf
Ww==
-----END CERTIFICATE-----
