Certificate:
    Data:
        Version: 3 (0x2)
        Serial Number:
            6a:f6:c6:70:ab:67:34:11:79:c2:5f:53:21:89:17:47
        Signature Algorithm: sha256WithRSAEncryption
        Issuer: CN=team616-net
        Validity
            Not Before: Sep 13 04:30:44 2021 GMT
            Not After : Aug 28 04:30:44 2024 GMT
        Subject: CN=team616-client
        Subject Public Key Info:
            Public Key Algorithm: rsaEncryption
                RSA Public-Key: (2048 bit)
                Modulus:
                    00:b8:09:06:56:c9:eb:68:46:87:21:29:75:65:a3:
                    5f:86:0e:95:59:f8:db:0c:cf:66:aa:cd:f4:95:e0:
                    1c:44:e8:e2:2b:e1:a8:8d:b1:d9:10:39:1e:dd:bb:
                    11:08:5f:0f:ab:cb:a3:67:23:e7:ad:5c:a4:11:64:
                    b1:f2:28:bb:7b:f9:a5:d6:27:6d:95:c8:ae:70:b2:
                    f5:b0:ce:c6:5c:95:59:69:92:14:4d:af:fa:42:c6:
                    5a:d4:a7:08:91:77:a1:23:6c:22:db:d7:0e:5b:8c:
                    92:2e:fe:a6:79:b8:c8:26:90:86:39:5c:68:2a:12:
                    28:6b:e4:46:86:d8:7d:5b:2b:44:e6:28:fd:94:68:
                    46:f4:42:da:06:8e:8d:55:9b:78:a9:cb:b2:68:03:
                    bf:35:1b:bc:c2:71:8a:0d:6f:4c:1e:35:02:35:4f:
                    2d:90:84:86:e1:33:7e:ab:f9:d4:b1:35:91:a4:2e:
                    cb:09:d7:64:4f:d1:79:27:8a:a4:d1:4c:af:1a:3f:
                    a4:3c:70:1f:d3:63:e2:5c:90:fd:9f:6f:88:71:bb:
                    27:bc:2c:e0:3b:a3:47:ff:be:71:05:59:4a:eb:0e:
                    10:19:3e:17:22:2d:5e:6f:ed:b1:ff:18:32:f4:7f:
                    1c:5d:2d:18:ed:31:43:68:f5:77:b2:1b:aa:29:ca:
                    d5:d3
                Exponent: 65537 (0x10001)
        X509v3 extensions:
            X509v3 Basic Constraints: 
                CA:FALSE
            X509v3 Subject Key Identifier: 
                F8:77:3B:7A:45:AE:2C:8A:95:D0:9A:59:D8:4A:E6:9E:34:88:4C:6E
            X509v3 Authority Key Identifier: 
                keyid:DC:73:AD:E7:A0:C6:7E:CC:04:32:10:96:E2:69:7F:41:5C:CA:45:36
                DirName:/CN=team616-net
                serial:23:EB:6F:7C:40:5A:60:86:B0:65:62:66:4A:C0:CA:E4:C1:DC:0C:E8

            X509v3 Extended Key Usage: 
                TLS Web Client Authentication
            X509v3 Key Usage: 
                Digital Signature
    Signature Algorithm: sha256WithRSAEncryption
         73:ea:27:f6:3f:25:66:67:db:ca:29:88:26:c5:0d:11:52:8d:
         09:78:a6:62:53:5c:af:0b:a9:54:65:80:14:64:32:20:a2:24:
         36:16:59:41:23:52:a5:b9:4b:8f:c7:be:fe:62:5f:a4:bc:2f:
         2b:8e:fa:08:46:1b:41:c4:2d:87:2a:a7:db:18:86:59:6b:d8:
         01:6f:1b:bd:c6:10:ea:eb:7a:8d:64:3e:0e:17:7e:21:3a:78:
         e0:dc:c3:63:6d:44:74:88:72:f6:1a:63:ed:fa:0d:0d:4b:64:
         32:ce:f9:a1:46:a1:7d:1d:a7:41:44:6b:c0:12:5e:74:fc:b8:
         95:ed:30:88:a6:09:b7:c8:98:ec:aa:a4:b3:43:b6:35:67:5a:
         17:6d:ba:67:9f:b5:51:4d:a3:62:2c:ba:3f:8c:b1:38:2f:f1:
         61:ff:77:32:a4:55:09:15:ad:ba:cd:ca:59:ad:97:0a:33:a7:
         4d:4a:b8:4d:78:54:16:33:8f:f3:d0:4e:8a:2f:79:23:d9:20:
         58:4f:c9:05:9c:6c:16:23:38:96:cd:fa:79:43:b0:32:f3:50:
         a3:19:a8:22:ef:89:0d:76:3a:b0:f8:cb:7c:07:0b:c2:8f:df:
         6f:15:36:b4:be:d3:fe:fd:f0:c6:4a:36:42:72:54:25:09:04:
         3b:f9:47:f2
-----BEGIN CERTIFICATE-----
MIIDXDCCAkSgAwIBAgIQavbGcKtnNBF5wl9TIYkXRzANBgkqhkiG9w0BAQsFADAW
MRQwEgYDVQQDDAt0ZWFtNjE2LW5ldDAeFw0yMTA5MTMwNDMwNDRaFw0yNDA4Mjgw
NDMwNDRaMBkxFzAVBgNVBAMMDnRlYW02MTYtY2xpZW50MIIBIjANBgkqhkiG9w0B
AQEFAAOCAQ8AMIIBCgKCAQEAuAkGVsnraEaHISl1ZaNfhg6VWfjbDM9mqs30leAc
ROjiK+GojbHZEDke3bsRCF8Pq8ujZyPnrVykEWSx8ii7e/ml1idtlciucLL1sM7G
XJVZaZIUTa/6QsZa1KcIkXehI2wi29cOW4ySLv6mebjIJpCGOVxoKhIoa+RGhth9
WytE5ij9lGhG9ELaBo6NVZt4qcuyaAO/NRu8wnGKDW9MHjUCNU8tkISG4TN+q/nU
sTWRpC7LCddkT9F5J4qk0UyvGj+kPHAf02PiXJD9n2+IcbsnvCzgO6NH/75xBVlK
6w4QGT4XIi1eb+2x/xgy9H8cXS0Y7TFDaPV3shuqKcrV0wIDAQABo4GiMIGfMAkG
A1UdEwQCMAAwHQYDVR0OBBYEFPh3O3pFriyKldCaWdhK5p40iExuMFEGA1UdIwRK
MEiAFNxzreegxn7MBDIQluJpf0FcykU2oRqkGDAWMRQwEgYDVQQDDAt0ZWFtNjE2
LW5ldIIUI+tvfEBaYIawZWJmSsDK5MHcDOgwEwYDVR0lBAwwCgYIKwYBBQUHAwIw
CwYDVR0PBAQDAgeAMA0GCSqGSIb3DQEBCwUAA4IBAQBz6if2PyVmZ9vKKYgmxQ0R
Uo0JeKZiU1yvC6lUZYAUZDIgoiQ2FllBI1KluUuPx77+Yl+kvC8rjvoIRhtBxC2H
KqfbGIZZa9gBbxu9xhDq63qNZD4OF34hOnjg3MNjbUR0iHL2GmPt+g0NS2Qyzvmh
RqF9HadBRGvAEl50/LiV7TCIpgm3yJjsqqSzQ7Y1Z1oXbbpnn7VRTaNiLLo/jLE4
L/Fh/3cypFUJFa26zcpZrZcKM6dNSrhNeFQWM4/z0E6KL3kj2SBYT8kFnGwWIziW
zfp5Q7Ay81CjGagi74kNdjqw+Mt8BwvCj99vFTa0vtP+/fDGSjZCclQlCQQ7+Ufy
-----END CERTIFICATE-----
