Certificate:
    Data:
        Version: 3 (0x2)
        Serial Number:
            78:f3:c4:f2:ba:1a:a5:eb:15:cb:69:3f:7c:6b:63:87
        Signature Algorithm: sha256WithRSAEncryption
        Issuer: CN=team504-net
        Validity
            Not Before: Sep 13 03:09:25 2021 GMT
            Not After : Aug 28 03:09:25 2024 GMT
        Subject: CN=team504-server
        Subject Public Key Info:
            Public Key Algorithm: rsaEncryption
                RSA Public-Key: (2048 bit)
                Modulus:
                    00:bc:b0:dc:f6:98:c4:d5:0e:d7:ba:a7:e1:3b:d7:
                    45:09:ed:0d:bf:18:71:ac:e3:48:64:5c:bc:42:32:
                    b6:0d:e9:42:b3:0e:70:3f:0a:25:d0:fb:22:60:e3:
                    49:40:25:0e:ff:ad:99:19:3f:cd:0b:5e:e9:79:2d:
                    13:55:10:e9:d1:df:36:a5:c6:66:22:3a:48:c0:be:
                    57:bc:d7:98:c8:c3:4e:7d:73:ab:8f:50:58:63:78:
                    03:05:23:15:0e:ad:bd:e0:f4:6d:88:e2:15:2a:33:
                    58:69:4a:2e:28:d1:77:13:83:3e:46:07:64:6d:24:
                    d2:9c:64:98:fb:b2:15:94:7c:94:22:c0:39:2b:4f:
                    21:5a:77:f2:c3:f3:68:fe:47:61:6c:dd:cd:85:d0:
                    dd:9f:6c:e3:99:7c:10:0d:33:09:94:c9:09:2d:e4:
                    6e:b7:fb:88:17:51:c4:4c:2f:86:ae:93:aa:3a:64:
                    3c:8e:43:2d:50:c4:6d:1e:bc:7e:d2:56:4b:40:ed:
                    03:3e:85:58:80:96:4a:1e:91:34:1d:08:d6:dd:17:
                    62:71:11:a6:4a:af:a0:38:70:19:7c:fc:48:44:ce:
                    81:ab:06:31:86:59:3a:f4:30:93:95:3c:90:fc:2c:
                    6b:b8:1c:82:d5:38:ff:64:19:c3:6f:9c:d2:d0:d9:
                    5b:e3
                Exponent: 65537 (0x10001)
        X509v3 extensions:
            X509v3 Basic Constraints: 
                CA:FALSE
            X509v3 Subject Key Identifier: 
                5C:47:20:B2:1A:AE:CE:37:89:B3:F1:1D:DA:A8:06:C2:CC:0D:0F:30
            X509v3 Authority Key Identifier: 
                keyid:81:06:60:77:33:26:38:A2:86:36:17:25:9A:1D:ED:D9:A2:47:DA:5D
                DirName:/CN=team504-net
                serial:17:BD:BC:3F:A9:1E:3B:45:1E:6A:D2:A8:A2:C8:2C:35:95:1B:62:BA

            X509v3 Extended Key Usage: 
                TLS Web Server Authentication
            X509v3 Key Usage: 
                Digital Signature, Key Encipherment
            X509v3 Subject Alternative Name: 
                DNS:team504-server
    Signature Algorithm: sha256WithRSAEncryption
         d0:86:b0:92:da:e0:0a:fa:af:f7:aa:7d:45:8a:5d:26:64:df:
         a6:6b:d8:4c:ef:bb:00:e1:9b:ce:d6:90:58:09:e0:29:87:a9:
         0b:c2:04:a7:c9:32:53:44:7b:77:1e:07:a5:4d:20:45:70:31:
         a2:fa:4d:f2:72:fe:92:2c:6c:30:99:ad:48:6a:66:1f:b3:bd:
         ca:63:58:64:71:e5:87:b2:78:03:79:9b:1f:ce:17:54:e0:4c:
         5f:7d:f9:f2:8c:77:9f:96:64:5e:b7:a2:8c:cb:d7:a6:7e:d4:
         03:21:5c:20:59:34:9f:d2:93:5e:92:fa:2b:b1:12:0c:ce:24:
         06:00:cb:63:fa:ee:2e:f5:38:35:ab:eb:fa:8b:79:a2:55:0d:
         a8:10:56:1c:66:2e:9a:22:2e:89:3d:dc:42:b8:fc:af:af:cc:
         2d:af:bf:c5:2b:33:04:97:7b:f9:67:1a:7e:3b:09:73:73:aa:
         6a:f3:82:a7:cf:4d:2f:79:ba:fc:f2:88:fb:ac:29:ca:b5:89:
         3d:ce:52:d6:72:89:c0:b2:22:41:7c:0a:4c:63:58:33:1d:2a:
         84:ea:d5:cb:8f:15:f4:d1:16:6e:a7:a5:7f:61:fc:fc:19:ce:
         6d:11:c1:41:b7:e1:ed:f8:5d:67:b1:f6:3d:de:8a:f7:40:ec:
         4d:ae:a4:a8
-----BEGIN CERTIFICATE-----
MIIDdzCCAl+gAwIBAgIQePPE8roapesVy2k/fGtjhzANBgkqhkiG9w0BAQsFADAW
MRQwEgYDVQQDDAt0ZWFtNTA0LW5ldDAeFw0yMTA5MTMwMzA5MjVaFw0yNDA4Mjgw
MzA5MjVaMBkxFzAVBgNVBAMMDnRlYW01MDQtc2VydmVyMIIBIjANBgkqhkiG9w0B
AQEFAAOCAQ8AMIIBCgKCAQEAvLDc9pjE1Q7XuqfhO9dFCe0NvxhxrONIZFy8QjK2
DelCsw5wPwol0PsiYONJQCUO/62ZGT/NC17peS0TVRDp0d82pcZmIjpIwL5XvNeY
yMNOfXOrj1BYY3gDBSMVDq294PRtiOIVKjNYaUouKNF3E4M+RgdkbSTSnGSY+7IV
lHyUIsA5K08hWnfyw/No/kdhbN3NhdDdn2zjmXwQDTMJlMkJLeRut/uIF1HETC+G
rpOqOmQ8jkMtUMRtHrx+0lZLQO0DPoVYgJZKHpE0HQjW3RdicRGmSq+gOHAZfPxI
RM6BqwYxhlk69DCTlTyQ/CxruByC1Tj/ZBnDb5zS0Nlb4wIDAQABo4G9MIG6MAkG
A1UdEwQCMAAwHQYDVR0OBBYEFFxHILIars43ibPxHdqoBsLMDQ8wMFEGA1UdIwRK
MEiAFIEGYHczJjiihjYXJZod7dmiR9pdoRqkGDAWMRQwEgYDVQQDDAt0ZWFtNTA0
LW5ldIIUF728P6keO0UeatKoosgsNZUbYrowEwYDVR0lBAwwCgYIKwYBBQUHAwEw
CwYDVR0PBAQDAgWgMBkGA1UdEQQSMBCCDnRlYW01MDQtc2VydmVyMA0GCSqGSIb3
DQEBCwUAA4IBAQDQhrCS2uAK+q/3qn1Fil0mZN+ma9hM77sA4ZvO1pBYCeAph6kL
wgSnyTJTRHt3HgelTSBFcDGi+k3ycv6SLGwwma1IamYfs73KY1hkceWHsngDeZsf
zhdU4ExfffnyjHeflmRet6KMy9emftQDIVwgWTSf0pNekvorsRIMziQGAMtj+u4u
9Tg1q+v6i3miVQ2oEFYcZi6aIi6JPdxCuPyvr8wtr7/FKzMEl3v5Zxp+Owlzc6pq
84Knz00vebr88oj7rCnKtYk9zlLWconAsiJBfApMY1gzHSqE6tXLjxX00RZup6V/
Yfz8Gc5tEcFBt+Ht+F1nsfY93or3QOxNrqSo
-----END CERTIFICATE-----
