Certificate:
    Data:
        Version: 3 (0x2)
        Serial Number:
            11:ea:1e:0f:f3:92:a5:f7:d6:ac:1d:c8:00:c4:22:08
        Signature Algorithm: sha256WithRSAEncryption
        Issuer: CN=team299-net
        Validity
            Not Before: Sep 13 01:27:11 2021 GMT
            Not After : Aug 28 01:27:11 2024 GMT
        Subject: CN=team299-client
        Subject Public Key Info:
            Public Key Algorithm: rsaEncryption
                RSA Public-Key: (2048 bit)
                Modulus:
                    00:bd:92:3d:51:08:2a:4f:b7:85:3e:f7:57:26:17:
                    98:b8:36:de:b7:ce:2d:e9:68:76:28:c7:56:c1:73:
                    fd:d6:57:70:ef:04:8a:6a:25:fb:cc:ad:87:19:e6:
                    a1:19:d0:0e:e3:5f:f4:61:76:7e:42:56:1c:f0:92:
                    36:46:c9:a6:82:fb:c8:15:71:f8:1f:c3:ea:33:17:
                    50:02:90:a8:eb:58:8e:38:b7:32:57:a1:e0:6e:c9:
                    44:8c:19:c0:bb:ef:44:78:65:84:42:55:90:34:69:
                    1d:bc:a4:ac:08:24:8b:7d:09:77:0f:26:e9:b2:c9:
                    95:8f:5f:72:4e:9e:ff:f5:d5:48:64:2f:b1:0b:65:
                    c0:ac:66:ec:de:75:2a:bc:b7:77:ff:5b:20:a2:0c:
                    0e:d5:5c:43:e1:3b:6d:5b:90:e5:36:41:b4:f3:9c:
                    76:99:19:80:06:30:02:ab:13:83:b8:c6:92:f5:b7:
                    50:fe:66:f9:75:3d:58:0d:f0:35:7f:99:29:5c:a4:
                    59:99:45:52:63:00:91:2c:c5:df:dc:97:f0:d4:23:
                    56:e7:7c:e1:51:1e:17:a5:b3:d9:37:9f:2a:d3:c5:
                    99:c8:39:77:06:e1:65:9b:ff:fe:dd:2c:c1:ef:ee:
                    a3:03:62:97:34:e4:8c:a6:aa:c3:ca:e6:28:83:7d:
                    6f:2b
                Exponent: 65537 (0x10001)
        X509v3 extensions:
            X509v3 Basic Constraints: 
                CA:FALSE
            X509v3 Subject Key Identifier: 
                37:38:0C:50:9F:09:6C:8F:9F:59:6C:14:C2:EC:8B:9D:3C:6A:39:DB
            X509v3 Authority Key Identifier: 
                keyid:F1:DE:5B:71:A8:87:A7:6B:87:3A:0E:1F:D4:49:CE:CC:85:09:5F:4C
                DirName:/CN=team299-net
                serial:37:B6:87:CE:B3:E2:91:88:E8:4F:8B:20:8F:D3:06:F0:0C:83:04:3C

            X509v3 Extended Key Usage: 
                TLS Web Client Authentication
            X509v3 Key Usage: 
                Digital Signature
    Signature Algorithm: sha256WithRSAEncryption
         0d:04:a7:4e:32:78:dc:4f:30:39:0a:4a:62:65:69:ee:65:37:
         95:f6:ea:20:36:5f:ee:46:81:7d:6b:bd:58:b4:98:a0:b9:26:
         22:3e:34:20:b6:7b:f7:36:26:e4:69:d1:c7:f2:2d:83:79:44:
         c9:aa:2a:b5:c9:be:68:2e:af:8f:c7:78:f1:f1:5c:8d:53:af:
         ab:28:2e:e5:dd:50:72:e1:6e:ea:1e:b8:41:7d:d4:da:0a:60:
         d4:7a:52:d4:52:53:99:54:57:14:b8:75:db:cb:c6:27:ec:ab:
         f7:c4:15:32:06:51:5b:d2:73:84:34:1c:89:4a:52:7e:94:3a:
         99:86:11:b4:45:35:fe:67:c7:0e:a0:97:0a:1c:03:c3:58:c1:
         0b:30:14:08:df:71:b3:21:39:06:6b:d9:da:e7:43:09:be:ab:
         25:81:d5:f3:99:8a:7a:8e:e6:d8:5e:e1:69:c1:8d:9b:12:f9:
         72:cf:41:c5:49:52:ce:9d:e0:69:e0:1e:71:dc:7e:dd:a3:06:
         6a:9d:00:41:f3:0f:ca:b4:45:d6:16:a0:ef:6c:86:41:79:14:
         3b:d9:0e:5f:a6:7b:5c:91:6c:25:2f:12:b4:40:57:87:14:63:
         95:c3:bb:ef:e5:b9:ec:5a:df:be:8c:3f:24:9c:3a:7b:b8:ef:
         47:a4:02:98
-----BEGIN CERTIFICATE-----
MIIDXDCCAkSgAwIBAgIQEeoeD/OSpffWrB3IAMQiCDANBgkqhkiG9w0BAQsFADAW
MRQwEgYDVQQDDAt0ZWFtMjk5LW5ldDAeFw0yMTA5MTMwMTI3MTFaFw0yNDA4Mjgw
MTI3MTFaMBkxFzAVBgNVBAMMDnRlYW0yOTktY2xpZW50MIIBIjANBgkqhkiG9w0B
AQEFAAOCAQ8AMIIBCgKCAQEAvZI9UQgqT7eFPvdXJheYuDbet84t6Wh2KMdWwXP9
1ldw7wSKaiX7zK2HGeahGdAO41/0YXZ+QlYc8JI2RsmmgvvIFXH4H8PqMxdQApCo
61iOOLcyV6HgbslEjBnAu+9EeGWEQlWQNGkdvKSsCCSLfQl3DybpssmVj19yTp7/
9dVIZC+xC2XArGbs3nUqvLd3/1sgogwO1VxD4TttW5DlNkG085x2mRmABjACqxOD
uMaS9bdQ/mb5dT1YDfA1f5kpXKRZmUVSYwCRLMXf3Jfw1CNW53zhUR4XpbPZN58q
08WZyDl3BuFlm//+3SzB7+6jA2KXNOSMpqrDyuYog31vKwIDAQABo4GiMIGfMAkG
A1UdEwQCMAAwHQYDVR0OBBYEFDc4DFCfCWyPn1lsFMLsi508ajnbMFEGA1UdIwRK
MEiAFPHeW3Goh6drhzoOH9RJzsyFCV9MoRqkGDAWMRQwEgYDVQQDDAt0ZWFtMjk5
LW5ldIIUN7aHzrPikYjoT4sgj9MG8AyDBDwwEwYDVR0lBAwwCgYIKwYBBQUHAwIw
CwYDVR0PBAQDAgeAMA0GCSqGSIb3DQEBCwUAA4IBAQANBKdOMnjcTzA5CkpiZWnu
ZTeV9uogNl/uRoF9a71YtJiguSYiPjQgtnv3NibkadHH8i2DeUTJqiq1yb5oLq+P
x3jx8VyNU6+rKC7l3VBy4W7qHrhBfdTaCmDUelLUUlOZVFcUuHXby8Yn7Kv3xBUy
BlFb0nOENByJSlJ+lDqZhhG0RTX+Z8cOoJcKHAPDWMELMBQI33GzITkGa9na50MJ
vqslgdXzmYp6jubYXuFpwY2bEvlyz0HFSVLOneBp4B5x3H7dowZqnQBB8w/KtEXW
FqDvbIZBeRQ72Q5fpntckWwlLxK0QFeHFGOVw7vv5bnsWt++jD8knDp7uO9HpAKY
-----END CERTIFICATE-----
