Certificate:
    Data:
        Version: 3 (0x2)
        Serial Number:
            5a:63:69:02:57:cc:d8:4a:ea:97:95:46:59:31:32:23
        Signature Algorithm: sha256WithRSAEncryption
        Issuer: CN=team299-net
        Validity
            Not Before: Sep 13 01:27:11 2021 GMT
            Not After : Aug 28 01:27:11 2024 GMT
        Subject: CN=team299-server
        Subject Public Key Info:
            Public Key Algorithm: rsaEncryption
                RSA Public-Key: (2048 bit)
                Modulus:
                    00:9d:63:f8:a2:ac:a2:0c:96:70:c9:65:68:a4:33:
                    5e:20:17:36:03:10:c5:22:74:69:54:85:69:66:2a:
                    10:35:fe:8a:bb:79:6f:1f:ed:24:cd:2c:3b:52:10:
                    0c:3c:dd:1b:b9:26:6a:2a:14:b6:33:74:30:c0:f4:
                    f7:bd:14:ba:91:c1:f4:f3:00:b5:73:c4:d6:00:82:
                    9b:f2:b9:24:50:3a:a1:fe:17:02:15:50:6b:ab:04:
                    f2:e9:2c:33:23:0f:c1:30:08:c0:a5:d7:14:02:7a:
                    d0:cb:b7:22:2b:73:9b:e4:57:a0:e1:fb:51:72:3c:
                    4a:a5:56:af:36:6c:d3:5b:3b:fa:16:6d:ab:5a:23:
                    7e:c7:2b:d3:28:11:29:f3:19:43:4e:53:aa:50:fd:
                    20:c4:74:d5:49:2b:23:9f:55:04:91:03:bf:d0:e7:
                    cf:b7:09:e9:a8:c9:cc:c4:c4:3a:9d:8a:38:55:cf:
                    74:f5:09:51:74:f2:d4:20:22:33:98:14:f1:a5:a1:
                    c4:8b:41:bf:73:58:c7:7c:0c:e5:6c:36:1f:ae:fd:
                    88:0b:76:17:51:74:88:22:24:3a:39:de:71:2c:ad:
                    95:35:37:93:19:7a:d2:1f:e8:bb:59:67:26:68:37:
                    c5:37:5a:ef:f9:08:15:c5:dc:73:66:01:b9:60:10:
                    1e:53
                Exponent: 65537 (0x10001)
        X509v3 extensions:
            X509v3 Basic Constraints: 
                CA:FALSE
            X509v3 Subject Key Identifier: 
                D0:E9:D3:B5:1D:28:12:5B:6A:E0:03:D2:70:6A:05:34:C3:C6:A0:DE
            X509v3 Authority Key Identifier: 
                keyid:F1:DE:5B:71:A8:87:A7:6B:87:3A:0E:1F:D4:49:CE:CC:85:09:5F:4C
                DirName:/CN=team299-net
                serial:37:B6:87:CE:B3:E2:91:88:E8:4F:8B:20:8F:D3:06:F0:0C:83:04:3C

            X509v3 Extended Key Usage: 
                TLS Web Server Authentication
            X509v3 Key Usage: 
                Digital Signature, Key Encipherment
            X509v3 Subject Alternative Name: 
                DNS:team299-server
    Signature Algorithm: sha256WithRSAEncryption
         4c:0f:4e:56:3f:36:cd:e0:60:a4:b8:5e:c9:6e:35:a9:77:10:
         7e:7a:dc:5f:87:4e:ab:e1:a0:6c:80:42:43:2c:fb:6c:49:8b:
         13:ea:78:d2:17:c1:36:bf:89:d9:3c:ab:13:eb:23:f1:25:24:
         10:9e:0a:60:93:d3:2e:1d:03:2e:c9:4c:95:91:9d:6e:6d:b5:
         00:ff:28:b0:28:2a:01:67:a7:38:76:8d:4b:8c:49:3a:fa:3e:
         53:93:65:67:16:c7:7d:75:3d:9f:ae:d3:9d:d0:54:51:9e:5f:
         5d:cc:d7:1d:7e:c1:32:9c:5d:bd:a6:ac:96:25:26:02:13:d3:
         a4:fb:5c:8e:a3:31:ad:ef:9a:80:92:83:8a:20:d6:d4:81:15:
         17:e9:ff:85:4b:0d:2b:7d:eb:6c:dc:d9:d4:43:d8:6f:48:85:
         ee:77:87:ee:f2:c5:ce:d7:96:3f:f2:25:cc:f8:01:56:3a:85:
         7f:9e:26:6a:db:4e:5f:5a:d3:55:37:87:70:f7:33:12:f1:e1:
         7b:ce:52:4e:4b:ef:fd:0b:cb:72:b5:70:73:26:51:00:54:be:
         81:6c:7b:44:68:0d:4b:cb:ab:e7:cd:cd:dd:87:41:49:18:98:
         2c:af:e0:84:4f:a6:64:18:44:f5:7a:0c:97:31:be:d0:55:58:
         85:3c:e2:a1
-----BEGIN CERTIFICATE-----
MIIDdzCCAl+gAwIBAgIQWmNpAlfM2Erql5VGWTEyIzANBgkqhkiG9w0BAQsFADAW
MRQwEgYDVQQDDAt0ZWFtMjk5LW5ldDAeFw0yMTA5MTMwMTI3MTFaFw0yNDA4Mjgw
MTI3MTFaMBkxFzAVBgNVBAMMDnRlYW0yOTktc2VydmVyMIIBIjANBgkqhkiG9w0B
AQEFAAOCAQ8AMIIBCgKCAQEAnWP4oqyiDJZwyWVopDNeIBc2AxDFInRpVIVpZioQ
Nf6Ku3lvH+0kzSw7UhAMPN0buSZqKhS2M3QwwPT3vRS6kcH08wC1c8TWAIKb8rkk
UDqh/hcCFVBrqwTy6SwzIw/BMAjApdcUAnrQy7ciK3Ob5Feg4ftRcjxKpVavNmzT
Wzv6Fm2rWiN+xyvTKBEp8xlDTlOqUP0gxHTVSSsjn1UEkQO/0OfPtwnpqMnMxMQ6
nYo4Vc909QlRdPLUICIzmBTxpaHEi0G/c1jHfAzlbDYfrv2IC3YXUXSIIiQ6Od5x
LK2VNTeTGXrSH+i7WWcmaDfFN1rv+QgVxdxzZgG5YBAeUwIDAQABo4G9MIG6MAkG
A1UdEwQCMAAwHQYDVR0OBBYEFNDp07UdKBJbauAD0nBqBTTDxqDeMFEGA1UdIwRK
MEiAFPHeW3Goh6drhzoOH9RJzsyFCV9MoRqkGDAWMRQwEgYDVQQDDAt0ZWFtMjk5
LW5ldIIUN7aHzrPikYjoT4sgj9MG8AyDBDwwEwYDVR0lBAwwCgYIKwYBBQUHAwEw
CwYDVR0PBAQDAgWgMBkGA1UdEQQSMBCCDnRlYW0yOTktc2VydmVyMA0GCSqGSIb3
DQEBCwUAA4IBAQBMD05WPzbN4GCkuF7JbjWpdxB+etxfh06r4aBsgEJDLPtsSYsT
6njSF8E2v4nZPKsT6yPxJSQQngpgk9MuHQMuyUyVkZ1ubbUA/yiwKCoBZ6c4do1L
jEk6+j5Tk2VnFsd9dT2frtOd0FRRnl9dzNcdfsEynF29pqyWJSYCE9Ok+1yOozGt
75qAkoOKINbUgRUX6f+FSw0rfets3NnUQ9hvSIXud4fu8sXO15Y/8iXM+AFWOoV/
niZq205fWtNVN4dw9zMS8eF7zlJOS+/9C8tytXBzJlEAVL6BbHtEaA1Ly6vnzc3d
h0FJGJgsr+CET6ZkGET1egyXMb7QVViFPOKh
-----END CERTIFICATE-----
