Certificate:
    Data:
        Version: 3 (0x2)
        Serial Number:
            12:1e:05:de:65:63:7f:d6:ac:06:1f:24:24:ba:c8:b3
        Signature Algorithm: sha256WithRSAEncryption
        Issuer: CN=team274-net
        Validity
            Not Before: Sep 13 01:09:47 2021 GMT
            Not After : Aug 28 01:09:47 2024 GMT
        Subject: CN=team274-server
        Subject Public Key Info:
            Public Key Algorithm: rsaEncryption
                RSA Public-Key: (2048 bit)
                Modulus:
                    00:ed:75:b0:71:20:8f:a8:8b:9a:9f:5a:69:c5:f6:
                    be:fa:ca:ca:45:e8:a9:ec:db:2f:8b:81:07:79:5a:
                    79:f0:73:bd:6e:37:27:ef:68:1b:7e:be:eb:eb:a8:
                    f0:cd:94:f1:a9:ba:9c:39:ae:12:f1:d7:cb:cf:61:
                    c0:a2:c6:d5:6d:95:26:52:3b:27:b9:16:52:d2:98:
                    4c:27:b2:5f:bf:44:4d:c6:fc:6e:93:b7:e5:bb:f2:
                    d8:b9:85:57:7d:3a:08:37:0a:e5:33:63:31:f7:45:
                    4f:8c:48:97:53:99:23:f1:25:38:8b:94:ca:08:2f:
                    73:2d:5a:86:22:58:86:d4:e2:20:31:60:ad:3e:06:
                    76:24:73:1f:c0:1f:51:c0:3b:d6:e3:af:60:d7:83:
                    d7:9e:80:5d:0a:5c:4e:78:1c:9e:86:15:e7:5b:74:
                    4b:e2:58:16:94:f0:cb:d0:dc:e2:3e:40:6f:77:5c:
                    ec:48:0f:f8:3b:ca:5e:1c:df:b8:02:38:4f:fb:2c:
                    7c:a5:09:9c:74:6d:71:3f:00:05:32:9d:75:a0:74:
                    bf:84:37:17:d1:bf:9c:a6:65:eb:cd:2b:78:09:ef:
                    37:0c:9a:53:5a:ac:5d:40:2f:23:9e:e1:55:90:b1:
                    19:58:15:98:b1:eb:93:11:e0:5a:b0:88:ef:67:02:
                    31:0d
                Exponent: 65537 (0x10001)
        X509v3 extensions:
            X509v3 Basic Constraints: 
                CA:FALSE
            X509v3 Subject Key Identifier: 
                03:AF:C9:B6:E7:07:F0:3E:DB:D9:C3:1F:FC:D6:9F:57:02:80:41:B8
            X509v3 Authority Key Identifier: 
                keyid:8B:F7:0D:60:E3:C9:E6:D5:2A:9C:C8:55:85:0D:0A:77:8C:3C:A2:C3
                DirName:/CN=team274-net
                serial:66:06:B4:36:89:7A:2E:8E:8E:9E:97:32:AF:EF:4A:12:A5:46:1F:FE

            X509v3 Extended Key Usage: 
                TLS Web Server Authentication
            X509v3 Key Usage: 
                Digital Signature, Key Encipherment
            X509v3 Subject Alternative Name: 
                DNS:team274-server
    Signature Algorithm: sha256WithRSAEncryption
         98:73:c2:98:76:7b:9d:fe:7d:dc:27:0c:78:7f:2c:61:ed:e2:
         cc:21:43:99:c3:6e:e9:46:7a:fa:4c:6f:3a:1c:96:d6:57:81:
         43:15:14:a6:75:ac:7f:8a:eb:96:8a:7e:e3:12:13:3d:75:43:
         16:d7:a8:c2:ab:c4:56:65:44:72:e3:5c:5b:aa:9c:69:80:ac:
         9f:44:a7:cb:83:07:f6:d1:e3:da:a9:c5:cf:e6:57:a8:60:59:
         d9:03:0c:77:79:6d:72:a7:1c:71:07:3e:e2:ba:f0:2a:99:b1:
         4d:83:d7:4d:3a:4a:89:a6:69:38:25:f8:57:63:9c:cb:3b:d0:
         24:82:35:9b:d7:fd:0e:5d:12:1b:b9:3e:74:12:6c:eb:61:d0:
         b5:3d:dc:e5:ec:88:08:c3:50:8e:5a:b8:ca:45:a1:30:bf:c9:
         55:cd:d5:16:0c:c9:58:05:97:5d:f6:1f:3b:87:5a:45:cc:52:
         70:44:5a:b2:c7:31:0c:f5:3f:bb:21:6c:1c:fb:49:8c:2d:23:
         1d:4a:c2:11:b6:e4:74:a8:22:93:43:ca:aa:b2:f0:4e:60:b8:
         c7:90:35:ba:5a:45:6f:8e:19:df:65:12:3c:63:32:2e:df:ca:
         b0:0e:61:f6:75:32:53:34:b8:47:69:22:28:ed:01:45:4a:a6:
         67:48:66:71
-----BEGIN CERTIFICATE-----
MIIDdzCCAl+gAwIBAgIQEh4F3mVjf9asBh8kJLrIszANBgkqhkiG9w0BAQsFADAW
MRQwEgYDVQQDDAt0ZWFtMjc0LW5ldDAeFw0yMTA5MTMwMTA5NDdaFw0yNDA4Mjgw
MTA5NDdaMBkxFzAVBgNVBAMMDnRlYW0yNzQtc2VydmVyMIIBIjANBgkqhkiG9w0B
AQEFAAOCAQ8AMIIBCgKCAQEA7XWwcSCPqIuan1ppxfa++srKReip7Nsvi4EHeVp5
8HO9bjcn72gbfr7r66jwzZTxqbqcOa4S8dfLz2HAosbVbZUmUjsnuRZS0phMJ7Jf
v0RNxvxuk7flu/LYuYVXfToINwrlM2Mx90VPjEiXU5kj8SU4i5TKCC9zLVqGIliG
1OIgMWCtPgZ2JHMfwB9RwDvW469g14PXnoBdClxOeByehhXnW3RL4lgWlPDL0Nzi
PkBvd1zsSA/4O8peHN+4AjhP+yx8pQmcdG1xPwAFMp11oHS/hDcX0b+cpmXrzSt4
Ce83DJpTWqxdQC8jnuFVkLEZWBWYseuTEeBasIjvZwIxDQIDAQABo4G9MIG6MAkG
A1UdEwQCMAAwHQYDVR0OBBYEFAOvybbnB/A+29nDH/zWn1cCgEG4MFEGA1UdIwRK
MEiAFIv3DWDjyebVKpzIVYUNCneMPKLDoRqkGDAWMRQwEgYDVQQDDAt0ZWFtMjc0
LW5ldIIUZga0Nol6Lo6Onpcyr+9KEqVGH/4wEwYDVR0lBAwwCgYIKwYBBQUHAwEw
CwYDVR0PBAQDAgWgMBkGA1UdEQQSMBCCDnRlYW0yNzQtc2VydmVyMA0GCSqGSIb3
DQEBCwUAA4IBAQCYc8KYdnud/n3cJwx4fyxh7eLMIUOZw27pRnr6TG86HJbWV4FD
FRSmdax/iuuWin7jEhM9dUMW16jCq8RWZURy41xbqpxpgKyfRKfLgwf20ePaqcXP
5leoYFnZAwx3eW1ypxxxBz7iuvAqmbFNg9dNOkqJpmk4JfhXY5zLO9AkgjWb1/0O
XRIbuT50EmzrYdC1Pdzl7IgIw1COWrjKRaEwv8lVzdUWDMlYBZdd9h87h1pFzFJw
RFqyxzEM9T+7IWwc+0mMLSMdSsIRtuR0qCKTQ8qqsvBOYLjHkDW6WkVvjhnfZRI8
YzIu38qwDmH2dTJTNLhHaSIo7QFFSqZnSGZx
-----END CERTIFICATE-----
