Certificate:
    Data:
        Version: 3 (0x2)
        Serial Number:
            c0:c3:3b:39:c9:43:9b:49:7c:17:a9:e8:f9:97:f3:fc
        Signature Algorithm: sha256WithRSAEncryption
        Issuer: CN=team416-net
        Validity
            Not Before: Sep 13 02:33:55 2021 GMT
            Not After : Aug 28 02:33:55 2024 GMT
        Subject: CN=team416-client
        Subject Public Key Info:
            Public Key Algorithm: rsaEncryption
                RSA Public-Key: (2048 bit)
                Modulus:
                    00:db:7e:08:f1:9f:41:72:ad:d9:33:60:8c:05:26:
                    b5:7e:5c:21:ee:c0:6c:35:e1:d5:0e:0e:1e:de:ab:
                    0f:51:4f:53:96:56:50:84:d3:91:73:a7:d3:8a:cf:
                    50:9e:12:f8:e5:21:db:0c:23:f1:af:a2:4d:ed:49:
                    43:53:e5:81:b1:6e:d6:b7:72:1f:ba:0a:5b:72:b4:
                    15:06:f5:91:70:1f:0a:77:8e:fc:51:c0:05:0a:11:
                    c5:e9:9f:5b:14:3d:68:fc:7d:b7:cf:9e:a1:90:e3:
                    fa:2d:02:62:82:88:fe:b0:c2:55:51:4e:da:a6:4e:
                    51:1a:48:67:a7:6f:bb:d8:74:cf:76:43:e8:19:ca:
                    33:92:5a:ab:5a:13:bf:21:ce:45:e7:7e:f8:c5:51:
                    94:31:f6:94:26:7f:ba:76:76:84:b5:78:18:62:d7:
                    9c:8a:f4:73:ae:3c:5b:c6:a7:b3:5c:10:8e:18:19:
                    94:63:16:d1:ff:04:c3:65:03:e3:94:56:28:2d:eb:
                    9b:a1:43:1d:d2:89:58:43:39:0c:31:6a:15:6b:c8:
                    e8:37:2f:a0:72:77:fa:96:03:ab:2f:53:fb:29:40:
                    35:3a:5c:18:45:92:3c:31:ea:a1:c0:f8:11:62:c0:
                    14:9c:cd:35:d3:17:b4:42:34:70:37:fc:e3:59:ef:
                    88:4b
                Exponent: 65537 (0x10001)
        X509v3 extensions:
            X509v3 Basic Constraints: 
                CA:FALSE
            X509v3 Subject Key Identifier: 
                83:95:E6:C9:E7:8B:9D:67:E9:50:17:94:18:DA:D0:6A:7E:AD:3B:7D
            X509v3 Authority Key Identifier: 
                keyid:56:08:13:8E:0F:9D:28:DE:37:50:12:66:6B:AD:62:6B:19:30:12:C5
                DirName:/CN=team416-net
                serial:31:83:94:AD:64:73:E8:B9:9F:11:67:7E:15:91:5C:5A:6F:D3:9F:26

            X509v3 Extended Key Usage: 
                TLS Web Client Authentication
            X509v3 Key Usage: 
                Digital Signature
    Signature Algorithm: sha256WithRSAEncryption
         03:4c:40:f8:75:f7:9c:54:1d:18:74:e2:0a:20:7c:4d:54:c5:
         b3:71:37:9c:1e:d0:94:10:46:f1:3a:92:8b:5a:e9:ef:1b:c5:
         ef:c6:16:64:d6:0f:cf:32:53:b9:f9:62:2a:11:dc:1a:5e:31:
         5b:63:cf:b1:ea:64:9d:a2:01:d7:0c:39:06:15:9c:71:6c:53:
         3c:81:c7:9f:06:f5:3f:8f:21:84:25:22:87:cf:17:a5:a1:4f:
         20:50:d1:29:0c:ca:27:6e:b4:e6:22:f2:ed:36:7b:b4:73:e2:
         f6:31:cb:be:6f:c2:a7:10:a7:7d:3f:75:37:fe:d9:27:34:77:
         52:5e:52:5f:57:a3:bc:e6:22:eb:4d:b6:3b:c4:5d:eb:39:b3:
         8d:95:d1:a8:20:51:c5:4f:4d:c6:a2:11:5c:d0:5e:01:32:ec:
         dd:71:30:df:01:c7:9e:c2:9e:dc:ec:30:af:89:ee:ad:b8:86:
         fe:1a:c7:d5:6f:b0:b1:ec:24:a9:55:1f:d9:eb:34:bf:71:6d:
         3e:59:a3:74:af:ef:8a:f2:7b:cf:08:79:99:ab:f9:71:d4:09:
         f0:f5:77:be:e4:0c:5b:75:ac:04:a3:c4:8a:45:9e:5d:b1:06:
         8b:5f:54:20:aa:2f:a2:49:d1:05:e0:a4:93:eb:c7:90:06:74:
         75:ea:7a:fa
-----BEGIN CERTIFICATE-----
MIIDXTCCAkWgAwIBAgIRAMDDOznJQ5tJfBep6PmX8/wwDQYJKoZIhvcNAQELBQAw
FjEUMBIGA1UEAwwLdGVhbTQxNi1uZXQwHhcNMjEwOTEzMDIzMzU1WhcNMjQwODI4
MDIzMzU1WjAZMRcwFQYDVQQDDA50ZWFtNDE2LWNsaWVudDCCASIwDQYJKoZIhvcN
AQEBBQADggEPADCCAQoCggEBANt+CPGfQXKt2TNgjAUmtX5cIe7AbDXh1Q4OHt6r
D1FPU5ZWUITTkXOn04rPUJ4S+OUh2wwj8a+iTe1JQ1PlgbFu1rdyH7oKW3K0FQb1
kXAfCneO/FHABQoRxemfWxQ9aPx9t8+eoZDj+i0CYoKI/rDCVVFO2qZOURpIZ6dv
u9h0z3ZD6BnKM5Jaq1oTvyHORed++MVRlDH2lCZ/unZ2hLV4GGLXnIr0c648W8an
s1wQjhgZlGMW0f8Ew2UD45RWKC3rm6FDHdKJWEM5DDFqFWvI6DcvoHJ3+pYDqy9T
+ylANTpcGEWSPDHqocD4EWLAFJzNNdMXtEI0cDf841nviEsCAwEAAaOBojCBnzAJ
BgNVHRMEAjAAMB0GA1UdDgQWBBSDlebJ54udZ+lQF5QY2tBqfq07fTBRBgNVHSME
SjBIgBRWCBOOD50o3jdQEmZrrWJrGTASxaEapBgwFjEUMBIGA1UEAwwLdGVhbTQx
Ni1uZXSCFDGDlK1kc+i5nxFnfhWRXFpv058mMBMGA1UdJQQMMAoGCCsGAQUFBwMC
MAsGA1UdDwQEAwIHgDANBgkqhkiG9w0BAQsFAAOCAQEAA0xA+HX3nFQdGHTiCiB8
TVTFs3E3nB7QlBBG8TqSi1rp7xvF78YWZNYPzzJTufliKhHcGl4xW2PPsepknaIB
1ww5BhWccWxTPIHHnwb1P48hhCUih88XpaFPIFDRKQzKJ2605iLy7TZ7tHPi9jHL
vm/CpxCnfT91N/7ZJzR3Ul5SX1ejvOYi6022O8Rd6zmzjZXRqCBRxU9NxqIRXNBe
ATLs3XEw3wHHnsKe3Owwr4nurbiG/hrH1W+wsewkqVUf2es0v3FtPlmjdK/vivJ7
zwh5mav5cdQJ8PV3vuQMW3WsBKPEikWeXbEGi19UIKovoknRBeCkk+vHkAZ0dep6
+g==
-----END CERTIFICATE-----
