Certificate:
    Data:
        Version: 3 (0x2)
        Serial Number:
            23:9b:e1:31:7a:c0:89:e6:eb:43:6c:27:e1:de:27:a1
        Signature Algorithm: sha256WithRSAEncryption
        Issuer: CN=team134-net
        Validity
            Not Before: Sep 12 23:54:35 2021 GMT
            Not After : Aug 27 23:54:35 2024 GMT
        Subject: CN=team134-client
        Subject Public Key Info:
            Public Key Algorithm: rsaEncryption
                RSA Public-Key: (2048 bit)
                Modulus:
                    00:c8:e9:13:90:eb:2f:65:5f:e6:18:2a:7b:e9:55:
                    7a:45:85:2a:ef:de:0a:11:a4:11:0c:79:e7:fa:ed:
                    53:20:9c:08:29:73:89:8a:23:aa:5f:81:29:87:5b:
                    f2:d0:15:62:8b:42:88:37:f2:39:05:6c:56:cf:ce:
                    d6:d3:5c:0f:be:2c:2c:f5:87:a0:78:2c:ad:84:38:
                    96:d8:25:57:dd:09:cb:9d:2a:c1:48:1b:b9:b6:59:
                    b2:7a:d9:20:c1:36:88:6a:b0:2f:9d:75:ba:6a:9a:
                    f1:79:fc:aa:28:fe:0e:8f:e0:92:63:80:b2:aa:b6:
                    90:6b:4d:28:70:21:1d:8f:ea:d1:97:b6:10:26:83:
                    fe:cd:22:16:08:fc:e0:f5:a4:35:3f:0b:76:31:f7:
                    76:ce:13:d1:dc:76:69:6b:06:d5:b1:8e:6f:70:07:
                    19:49:68:47:93:05:27:ce:24:78:ac:6a:41:a0:01:
                    c4:b0:b3:57:ff:cd:69:30:89:13:9e:2b:e9:c4:15:
                    f4:e5:c6:1e:3b:45:2e:7b:96:28:a7:01:df:e3:83:
                    b8:8b:04:40:44:cd:64:db:c9:5f:ab:19:c1:94:a6:
                    7b:f9:0b:1e:94:cd:41:f7:05:50:8c:d9:ac:a4:68:
                    34:63:23:ec:31:d8:dc:94:e8:6f:7d:98:41:e8:31:
                    24:03
                Exponent: 65537 (0x10001)
        X509v3 extensions:
            X509v3 Basic Constraints: 
                CA:FALSE
            X509v3 Subject Key Identifier: 
                CE:DA:AC:AB:93:6F:F6:7A:07:46:94:E8:90:13:7C:F4:38:49:0D:DF
            X509v3 Authority Key Identifier: 
                keyid:5E:7B:44:00:78:A8:63:4C:13:55:85:37:55:EE:BC:48:03:11:18:5A
                DirName:/CN=team134-net
                serial:10:48:A0:0B:9B:F0:9C:26:BA:3D:2B:49:53:3D:65:FD:44:D6:FA:52

            X509v3 Extended Key Usage: 
                TLS Web Client Authentication
            X509v3 Key Usage: 
                Digital Signature
    Signature Algorithm: sha256WithRSAEncryption
         a1:78:4c:c0:dc:41:79:f2:bb:4d:7a:42:e4:c2:0b:ad:e6:7c:
         70:08:7f:f6:19:5e:60:b1:e5:73:3a:5c:6e:d8:03:1b:48:aa:
         b1:51:28:10:10:32:88:81:b5:55:8c:5c:5d:f9:c2:2f:99:c3:
         7f:36:10:41:76:d4:df:98:24:10:c2:6c:5d:38:5c:8f:16:06:
         d6:de:54:a2:b9:46:2b:c2:dd:e2:24:f8:3c:a8:1b:48:84:6b:
         67:86:71:41:0f:92:07:30:23:ae:72:00:ad:47:f9:94:5b:8d:
         2b:42:30:de:64:5b:5e:bd:5b:e4:b8:5d:29:db:94:7a:e3:c2:
         4c:53:47:e6:a8:99:b4:96:e7:64:8e:e1:d2:5f:c5:78:26:1a:
         51:ba:f9:72:2c:b9:c6:21:9e:b9:d4:48:f2:2b:eb:50:44:90:
         7c:62:be:a6:a0:38:57:16:92:18:e9:70:aa:88:5b:50:72:ae:
         06:43:1e:b9:05:65:e7:a0:84:1d:0f:bb:c4:74:54:2c:ea:d4:
         be:1b:13:8c:34:f5:a5:46:5b:07:46:24:df:2e:08:b5:f9:fd:
         a3:be:2f:fb:e9:37:ad:78:ce:86:a2:c7:f2:c1:d2:7f:67:4e:
         3d:04:24:d6:5a:11:24:8d:05:c6:9a:a9:7e:5a:e4:26:ed:9e:
         b8:a2:80:d6
-----BEGIN CERTIFICATE-----
MIIDXDCCAkSgAwIBAgIQI5vhMXrAiebrQ2wn4d4noTANBgkqhkiG9w0BAQsFADAW
MRQwEgYDVQQDDAt0ZWFtMTM0LW5ldDAeFw0yMTA5MTIyMzU0MzVaFw0yNDA4Mjcy
MzU0MzVaMBkxFzAVBgNVBAMMDnRlYW0xMzQtY2xpZW50MIIBIjANBgkqhkiG9w0B
AQEFAAOCAQ8AMIIBCgKCAQEAyOkTkOsvZV/mGCp76VV6RYUq794KEaQRDHnn+u1T
IJwIKXOJiiOqX4Eph1vy0BVii0KIN/I5BWxWz87W01wPviws9YegeCythDiW2CVX
3QnLnSrBSBu5tlmyetkgwTaIarAvnXW6aprxefyqKP4Oj+CSY4CyqraQa00ocCEd
j+rRl7YQJoP+zSIWCPzg9aQ1Pwt2Mfd2zhPR3HZpawbVsY5vcAcZSWhHkwUnziR4
rGpBoAHEsLNX/81pMIkTnivpxBX05cYeO0Uue5YopwHf44O4iwRARM1k28lfqxnB
lKZ7+QselM1B9wVQjNmspGg0YyPsMdjclOhvfZhB6DEkAwIDAQABo4GiMIGfMAkG
A1UdEwQCMAAwHQYDVR0OBBYEFM7arKuTb/Z6B0aU6JATfPQ4SQ3fMFEGA1UdIwRK
MEiAFF57RAB4qGNME1WFN1XuvEgDERhaoRqkGDAWMRQwEgYDVQQDDAt0ZWFtMTM0
LW5ldIIUEEigC5vwnCa6PStJUz1l/UTW+lIwEwYDVR0lBAwwCgYIKwYBBQUHAwIw
CwYDVR0PBAQDAgeAMA0GCSqGSIb3DQEBCwUAA4IBAQCheEzA3EF58rtNekLkwgut
5nxwCH/2GV5gseVzOlxu2AMbSKqxUSgQEDKIgbVVjFxd+cIvmcN/NhBBdtTfmCQQ
wmxdOFyPFgbW3lSiuUYrwt3iJPg8qBtIhGtnhnFBD5IHMCOucgCtR/mUW40rQjDe
ZFtevVvkuF0p25R648JMU0fmqJm0ludkjuHSX8V4JhpRuvlyLLnGIZ651EjyK+tQ
RJB8Yr6moDhXFpIY6XCqiFtQcq4GQx65BWXnoIQdD7vEdFQs6tS+GxOMNPWlRlsH
RiTfLgi1+f2jvi/76TeteM6GosfywdJ/Z049BCTWWhEkjQXGmql+WuQm7Z64ooDW
-----END CERTIFICATE-----
