Certificate:
    Data:
        Version: 3 (0x2)
        Serial Number:
            38:d5:93:ad:33:34:db:e9:66:b5:f2:c0:0c:f7:ff:23
        Signature Algorithm: sha256WithRSAEncryption
        Issuer: CN=team134-net
        Validity
            Not Before: Sep 12 23:54:35 2021 GMT
            Not After : Aug 27 23:54:35 2024 GMT
        Subject: CN=team134-server
        Subject Public Key Info:
            Public Key Algorithm: rsaEncryption
                RSA Public-Key: (2048 bit)
                Modulus:
                    00:9a:3b:6c:55:40:eb:ce:3d:cc:40:70:fe:06:e6:
                    c2:31:ca:ae:28:61:3d:bd:f9:42:b7:f1:36:12:e3:
                    a5:a6:0f:6a:bd:82:cc:9f:ac:13:42:7a:31:26:58:
                    c3:5e:22:08:fc:16:21:45:32:06:02:7f:24:58:8a:
                    6a:51:a9:88:0c:a2:8b:b3:f7:9d:64:11:83:1b:72:
                    bf:db:b0:e7:4b:a5:79:9b:73:e6:85:2c:a4:75:d3:
                    41:f1:17:b9:e4:31:6d:5d:16:13:b5:d9:c0:36:50:
                    e1:2d:35:97:5c:88:86:0f:4e:4f:4f:35:9f:73:19:
                    ee:e9:1e:97:6b:b5:74:a6:35:74:e7:dc:e7:6d:56:
                    e9:e9:73:8b:c9:73:de:3d:22:0f:7c:86:01:64:23:
                    d9:94:c7:8a:61:a2:39:38:c3:9e:3e:a2:01:db:07:
                    af:98:ea:d2:89:65:1f:4f:8c:d5:09:ef:36:ad:62:
                    1e:48:b1:04:ac:4f:f5:e4:8e:c6:8b:61:f0:db:df:
                    81:4f:a8:6c:49:95:cb:10:10:dd:54:ed:9c:1c:51:
                    a5:a9:33:a5:c1:e9:4b:88:9b:10:3a:93:99:34:40:
                    f0:0e:1c:19:ef:c4:bf:e0:4d:3c:ed:ac:3e:f3:26:
                    84:08:48:2b:48:be:69:56:5b:e1:b8:90:1f:be:55:
                    c2:bf
                Exponent: 65537 (0x10001)
        X509v3 extensions:
            X509v3 Basic Constraints: 
                CA:FALSE
            X509v3 Subject Key Identifier: 
                08:87:A1:2A:CC:28:31:1F:F8:D2:FA:1A:11:B1:A2:A8:BA:30:7B:3D
            X509v3 Authority Key Identifier: 
                keyid:5E:7B:44:00:78:A8:63:4C:13:55:85:37:55:EE:BC:48:03:11:18:5A
                DirName:/CN=team134-net
                serial:10:48:A0:0B:9B:F0:9C:26:BA:3D:2B:49:53:3D:65:FD:44:D6:FA:52

            X509v3 Extended Key Usage: 
                TLS Web Server Authentication
            X509v3 Key Usage: 
                Digital Signature, Key Encipherment
            X509v3 Subject Alternative Name: 
                DNS:team134-server
    Signature Algorithm: sha256WithRSAEncryption
         1b:80:89:3d:d2:d3:82:1a:5b:fe:ba:4c:9e:a0:47:7a:59:1d:
         58:bb:9e:42:83:1a:1d:05:af:9e:21:a9:c3:56:c4:62:cc:16:
         f7:05:93:e7:78:be:ab:49:03:65:39:6e:3e:b7:2c:fe:05:51:
         69:d9:57:2f:77:08:79:52:58:e4:39:8c:ba:01:13:22:dc:b1:
         91:ff:f6:2c:c5:04:a3:17:4e:ed:f0:7e:a7:62:67:97:dd:34:
         ad:31:3a:b2:a3:ab:27:11:dd:2b:e7:59:9e:84:b1:d8:48:c8:
         ab:29:84:c3:1f:b8:96:ad:12:c3:0d:87:71:02:18:14:c8:dc:
         45:75:ae:90:2b:36:48:85:0f:cc:23:2f:02:ca:2d:3d:ed:55:
         cd:d0:03:92:f2:69:47:cb:85:eb:e9:f1:c5:c8:ba:47:44:3a:
         8a:07:4f:c7:9f:19:c1:1f:7b:94:93:f8:5a:96:5f:1f:ee:17:
         5f:67:4b:e6:05:64:61:44:ae:8d:c3:3a:83:ad:43:e0:3f:9b:
         a7:01:82:a3:52:4b:ce:0b:67:e6:b5:f4:cb:68:98:c6:af:3d:
         86:e5:32:1c:d9:9e:0b:4b:15:5b:a0:67:69:b5:83:c3:62:cc:
         5d:ff:1a:59:f4:b0:6b:3a:8d:f0:99:42:77:61:74:02:28:56:
         d3:6c:5e:95
-----BEGIN CERTIFICATE-----
MIIDdzCCAl+gAwIBAgIQONWTrTM02+lmtfLADPf/IzANBgkqhkiG9w0BAQsFADAW
MRQwEgYDVQQDDAt0ZWFtMTM0LW5ldDAeFw0yMTA5MTIyMzU0MzVaFw0yNDA4Mjcy
MzU0MzVaMBkxFzAVBgNVBAMMDnRlYW0xMzQtc2VydmVyMIIBIjANBgkqhkiG9w0B
AQEFAAOCAQ8AMIIBCgKCAQEAmjtsVUDrzj3MQHD+BubCMcquKGE9vflCt/E2EuOl
pg9qvYLMn6wTQnoxJljDXiII/BYhRTIGAn8kWIpqUamIDKKLs/edZBGDG3K/27Dn
S6V5m3PmhSykddNB8Re55DFtXRYTtdnANlDhLTWXXIiGD05PTzWfcxnu6R6Xa7V0
pjV059znbVbp6XOLyXPePSIPfIYBZCPZlMeKYaI5OMOePqIB2wevmOrSiWUfT4zV
Ce82rWIeSLEErE/15I7Gi2Hw29+BT6hsSZXLEBDdVO2cHFGlqTOlwelLiJsQOpOZ
NEDwDhwZ78S/4E087aw+8yaECEgrSL5pVlvhuJAfvlXCvwIDAQABo4G9MIG6MAkG
A1UdEwQCMAAwHQYDVR0OBBYEFAiHoSrMKDEf+NL6GhGxoqi6MHs9MFEGA1UdIwRK
MEiAFF57RAB4qGNME1WFN1XuvEgDERhaoRqkGDAWMRQwEgYDVQQDDAt0ZWFtMTM0
LW5ldIIUEEigC5vwnCa6PStJUz1l/UTW+lIwEwYDVR0lBAwwCgYIKwYBBQUHAwEw
CwYDVR0PBAQDAgWgMBkGA1UdEQQSMBCCDnRlYW0xMzQtc2VydmVyMA0GCSqGSIb3
DQEBCwUAA4IBAQAbgIk90tOCGlv+ukyeoEd6WR1Yu55CgxodBa+eIanDVsRizBb3
BZPneL6rSQNlOW4+tyz+BVFp2Vcvdwh5UljkOYy6ARMi3LGR//YsxQSjF07t8H6n
YmeX3TStMTqyo6snEd0r51mehLHYSMirKYTDH7iWrRLDDYdxAhgUyNxFda6QKzZI
hQ/MIy8Cyi097VXN0AOS8mlHy4Xr6fHFyLpHRDqKB0/HnxnBH3uUk/hall8f7hdf
Z0vmBWRhRK6NwzqDrUPgP5unAYKjUkvOC2fmtfTLaJjGrz2G5TIc2Z4LSxVboGdp
tYPDYsxd/xpZ9LBrOo3wmUJ3YXQCKFbTbF6V
-----END CERTIFICATE-----
