Certificate:
    Data:
        Version: 3 (0x2)
        Serial Number:
            c6:8c:66:ab:c3:99:0c:f9:09:57:72:cc:bb:fb:58:ec
        Signature Algorithm: sha256WithRSAEncryption
        Issuer: CN=team504-net
        Validity
            Not Before: Sep 13 03:20:56 2021 GMT
            Not After : Aug 28 03:20:56 2024 GMT
        Subject: CN=team504-server
        Subject Public Key Info:
            Public Key Algorithm: rsaEncryption
                RSA Public-Key: (2048 bit)
                Modulus:
                    00:db:ab:c4:22:81:bc:ad:3b:a4:ad:91:5a:d0:aa:
                    84:2a:2d:12:96:a2:66:2b:46:d8:aa:50:a1:43:2d:
                    87:00:cf:e6:ab:ce:6d:41:bf:13:b6:72:20:9a:8d:
                    c6:f4:44:ad:ef:d9:cd:48:37:dd:bb:c1:65:64:4d:
                    78:b9:3f:26:c5:4a:19:fb:9d:96:f4:f4:c1:68:63:
                    3c:5d:9f:c7:75:72:49:e9:54:e4:4f:7e:05:ac:32:
                    53:73:e5:4b:d4:f8:25:66:3e:b7:b6:49:e7:37:89:
                    85:47:00:ed:9d:d0:7e:d7:bf:0c:2e:8f:6f:de:4c:
                    d4:9a:cc:35:30:7c:a8:10:dd:b2:ce:ed:b9:5d:08:
                    c2:56:84:f8:0d:33:97:a1:2e:10:8c:b3:f0:f3:33:
                    74:91:f8:15:23:56:5d:3a:73:37:60:cb:db:98:62:
                    28:82:bd:29:5f:96:71:f5:d7:b5:6e:e2:0e:f4:c7:
                    fc:11:98:b5:6f:16:db:25:90:9f:af:f6:b3:37:9a:
                    24:3e:0c:25:96:58:60:52:09:fd:5e:b1:0c:43:78:
                    53:3f:8a:81:d5:6e:b5:0f:02:f8:c3:ac:9d:be:78:
                    e3:5a:b7:46:8a:b9:05:56:d9:61:e8:7d:dd:fd:81:
                    cc:b6:5d:a2:c2:a4:cf:43:0d:39:39:c0:2b:ce:7c:
                    e3:ad
                Exponent: 65537 (0x10001)
        X509v3 extensions:
            X509v3 Basic Constraints: 
                CA:FALSE
            X509v3 Subject Key Identifier: 
                D5:BE:9A:D0:90:CD:24:82:58:60:7A:29:28:EC:0A:64:B8:5F:B9:EF
            X509v3 Authority Key Identifier: 
                keyid:7C:71:F9:B9:CE:06:47:27:9D:EF:B5:10:47:49:E3:9A:2B:90:C3:9B
                DirName:/CN=team504-net
                serial:51:33:E8:99:76:73:FB:2A:5E:D7:16:7C:A4:2C:DA:2F:EE:B0:AA:FE

            X509v3 Extended Key Usage: 
                TLS Web Server Authentication
            X509v3 Key Usage: 
                Digital Signature, Key Encipherment
            X509v3 Subject Alternative Name: 
                DNS:team504-server
    Signature Algorithm: sha256WithRSAEncryption
         22:e6:b6:0c:f2:78:77:7a:33:c2:23:ba:f6:da:b0:cb:3d:d8:
         db:92:fa:0b:93:10:3f:21:cc:37:3d:f8:e2:f5:7d:85:ce:3d:
         3a:d7:b0:e5:d3:eb:35:81:58:49:b4:5b:04:3f:2b:3a:65:9d:
         84:df:b1:b4:62:7f:fc:52:60:3e:90:83:d3:d5:e3:5c:65:18:
         23:14:ff:09:95:e2:fb:d5:cd:76:2b:62:57:0b:28:1d:1b:b9:
         ee:fa:07:2d:ba:03:1a:52:a9:fe:89:42:54:07:88:fc:97:46:
         6e:2e:b3:71:9f:5f:56:37:5c:d8:db:0e:0c:6f:49:9e:75:f6:
         5f:15:8b:75:59:be:c0:51:69:46:0d:25:22:66:e1:11:0f:d1:
         4b:6b:bd:74:c0:19:24:2a:a4:f6:26:97:b0:1d:d1:39:bb:a3:
         9a:63:ca:48:5d:f9:ef:c2:7e:43:fb:26:be:de:42:91:17:20:
         93:d6:fe:f7:44:ac:36:69:8e:bb:ab:16:a0:08:45:62:e9:b6:
         2f:b6:f7:f6:61:ef:6f:28:7f:16:f9:0e:7e:78:da:6d:a2:a8:
         da:84:eb:66:47:fa:c2:e4:92:e6:d7:b0:3c:a9:c1:c7:dc:e0:
         33:0e:b5:c3:55:d2:82:94:94:91:d1:72:2b:7a:87:5a:70:5f:
         f8:9a:18:76
-----BEGIN CERTIFICATE-----
MIIDeDCCAmCgAwIBAgIRAMaMZqvDmQz5CVdyzLv7WOwwDQYJKoZIhvcNAQELBQAw
FjEUMBIGA1UEAwwLdGVhbTUwNC1uZXQwHhcNMjEwOTEzMDMyMDU2WhcNMjQwODI4
MDMyMDU2WjAZMRcwFQYDVQQDDA50ZWFtNTA0LXNlcnZlcjCCASIwDQYJKoZIhvcN
AQEBBQADggEPADCCAQoCggEBANurxCKBvK07pK2RWtCqhCotEpaiZitG2KpQoUMt
hwDP5qvObUG/E7ZyIJqNxvREre/ZzUg33bvBZWRNeLk/JsVKGfudlvT0wWhjPF2f
x3VySelU5E9+BawyU3PlS9T4JWY+t7ZJ5zeJhUcA7Z3Qfte/DC6Pb95M1JrMNTB8
qBDdss7tuV0IwlaE+A0zl6EuEIyz8PMzdJH4FSNWXTpzN2DL25hiKIK9KV+WcfXX
tW7iDvTH/BGYtW8W2yWQn6/2szeaJD4MJZZYYFIJ/V6xDEN4Uz+KgdVutQ8C+MOs
nb5441q3Roq5BVbZYeh93f2BzLZdosKkz0MNOTnAK858460CAwEAAaOBvTCBujAJ
BgNVHRMEAjAAMB0GA1UdDgQWBBTVvprQkM0kglhgeiko7ApkuF+57zBRBgNVHSME
SjBIgBR8cfm5zgZHJ53vtRBHSeOaK5DDm6EapBgwFjEUMBIGA1UEAwwLdGVhbTUw
NC1uZXSCFFEz6Jl2c/sqXtcWfKQs2i/usKr+MBMGA1UdJQQMMAoGCCsGAQUFBwMB
MAsGA1UdDwQEAwIFoDAZBgNVHREEEjAQgg50ZWFtNTA0LXNlcnZlcjANBgkqhkiG
9w0BAQsFAAOCAQEAIua2DPJ4d3ozwiO69tqwyz3Y25L6C5MQPyHMNz344vV9hc49
Otew5dPrNYFYSbRbBD8rOmWdhN+xtGJ//FJgPpCD09XjXGUYIxT/CZXi+9XNditi
VwsoHRu57voHLboDGlKp/olCVAeI/JdGbi6zcZ9fVjdc2NsODG9JnnX2XxWLdVm+
wFFpRg0lImbhEQ/RS2u9dMAZJCqk9iaXsB3RObujmmPKSF3578J+Q/smvt5CkRcg
k9b+90SsNmmOu6sWoAhFYum2L7b39mHvbyh/FvkOfnjabaKo2oTrZkf6wuSS5tew
PKnBx9zgMw61w1XSgpSUkdFyK3qHWnBf+JoYdg==
-----END CERTIFICATE-----
