Certificate:
    Data:
        Version: 3 (0x2)
        Serial Number:
            28:aa:11:95:c1:a1:5f:89:74:46:7f:2d:c8:77:c6:54
        Signature Algorithm: sha256WithRSAEncryption
        Issuer: CN=team729-net
        Validity
            Not Before: Sep 13 05:01:45 2021 GMT
            Not After : Aug 28 05:01:45 2024 GMT
        Subject: CN=team729-client
        Subject Public Key Info:
            Public Key Algorithm: rsaEncryption
                RSA Public-Key: (2048 bit)
                Modulus:
                    00:e8:0b:44:00:3f:1f:73:d4:9a:8e:83:77:38:7e:
                    1d:2a:ee:e2:cb:d7:63:b9:7f:8d:25:eb:cc:d7:18:
                    93:b6:6c:dd:57:d7:9a:18:a4:fd:5b:f9:fc:1a:97:
                    f1:7f:9d:41:b1:4e:0a:82:f4:78:ea:79:7f:ce:c0:
                    f5:8e:44:d9:f0:87:0a:84:55:80:0e:19:ff:1e:72:
                    9d:ac:80:2e:30:05:be:b6:7a:a6:bb:2c:25:12:00:
                    84:c7:68:28:4f:4e:f8:bb:89:8b:4f:a9:ee:7f:9f:
                    e2:bd:23:bc:05:d4:96:6c:10:cd:c4:9a:5e:e2:36:
                    50:09:4c:f8:58:6e:1f:31:a8:79:bb:94:da:5d:a5:
                    74:30:ce:5a:8a:f0:24:18:d7:ca:e3:84:2e:18:f6:
                    06:43:6f:21:07:2b:94:2c:2b:5c:b7:85:23:46:f9:
                    67:35:39:88:98:4e:df:34:57:c1:ab:52:7d:68:0b:
                    96:a3:a9:f1:a5:f4:e2:e4:7b:0b:4f:4b:8a:03:ca:
                    2a:46:63:98:ee:7d:fd:fa:b4:a5:64:40:ed:f4:13:
                    8d:46:9d:5b:b8:ec:5a:53:bb:6b:df:73:3b:a2:16:
                    e8:26:a6:aa:c2:3a:f5:f0:86:bb:1d:8c:8f:ff:a2:
                    07:1e:79:2c:0c:7a:39:72:fe:c7:ae:17:eb:8d:92:
                    02:15
                Exponent: 65537 (0x10001)
        X509v3 extensions:
            X509v3 Basic Constraints: 
                CA:FALSE
            X509v3 Subject Key Identifier: 
                9B:82:B5:78:FC:5D:37:5C:BE:A3:50:0C:8A:C0:03:CF:DB:20:3B:81
            X509v3 Authority Key Identifier: 
                keyid:AE:9C:3C:83:DF:4D:22:53:27:F4:3F:54:F9:2B:83:9C:4A:9F:9C:35
                DirName:/CN=team729-net
                serial:5E:1C:CF:1A:6B:34:73:8B:51:F0:11:91:0D:DD:21:FC:67:5D:D5:CE

            X509v3 Extended Key Usage: 
                TLS Web Client Authentication
            X509v3 Key Usage: 
                Digital Signature
    Signature Algorithm: sha256WithRSAEncryption
         60:1e:83:29:7e:ec:ed:23:c5:3b:e2:df:20:7c:aa:95:e6:a1:
         d3:99:4b:fe:18:5e:91:9c:04:83:fc:82:98:61:62:fd:0f:77:
         62:68:e2:d7:c3:95:49:cb:47:83:cf:7b:3e:c0:07:d7:f4:87:
         24:0b:ce:0e:5d:b0:a0:fa:95:a0:df:39:34:1c:f9:ff:b2:36:
         3c:19:ec:c9:03:d9:f1:c4:64:3a:4f:33:88:bd:10:3e:85:6a:
         71:a0:7a:bb:db:ab:ce:79:08:e0:18:cb:d2:75:d1:8a:83:ac:
         e8:d4:ec:39:6f:c8:93:1b:32:9f:ce:ab:2b:a5:e6:d2:99:57:
         bd:cb:f2:0f:b7:8f:62:35:df:db:68:ef:b3:72:98:86:c2:5d:
         de:e1:3c:ef:e4:71:56:34:6f:68:6b:9b:3e:e0:5d:bd:30:43:
         7d:b8:ec:dd:25:a4:cc:37:1a:f1:4f:b3:e6:db:cf:c7:d6:df:
         5c:b6:3e:6e:06:a0:ac:30:8f:b5:90:1b:8b:db:3f:d8:ee:ef:
         82:3d:93:4f:65:ff:c1:8f:bc:54:8d:b0:03:b2:36:19:bb:9b:
         42:df:78:20:88:32:75:8b:74:03:53:a3:85:32:48:fd:c8:36:
         7d:b6:5e:14:ec:10:ee:24:8d:42:eb:00:f1:8c:8c:98:f5:26:
         c1:b0:5e:12
-----BEGIN CERTIFICATE-----
MIIDXDCCAkSgAwIBAgIQKKoRlcGhX4l0Rn8tyHfGVDANBgkqhkiG9w0BAQsFADAW
MRQwEgYDVQQDDAt0ZWFtNzI5LW5ldDAeFw0yMTA5MTMwNTAxNDVaFw0yNDA4Mjgw
NTAxNDVaMBkxFzAVBgNVBAMMDnRlYW03MjktY2xpZW50MIIBIjANBgkqhkiG9w0B
AQEFAAOCAQ8AMIIBCgKCAQEA6AtEAD8fc9SajoN3OH4dKu7iy9djuX+NJevM1xiT
tmzdV9eaGKT9W/n8Gpfxf51BsU4KgvR46nl/zsD1jkTZ8IcKhFWADhn/HnKdrIAu
MAW+tnqmuywlEgCEx2goT074u4mLT6nuf5/ivSO8BdSWbBDNxJpe4jZQCUz4WG4f
Mah5u5TaXaV0MM5aivAkGNfK44QuGPYGQ28hByuULCtct4UjRvlnNTmImE7fNFfB
q1J9aAuWo6nxpfTi5HsLT0uKA8oqRmOY7n39+rSlZEDt9BONRp1buOxaU7tr33M7
ohboJqaqwjr18Ia7HYyP/6IHHnksDHo5cv7HrhfrjZICFQIDAQABo4GiMIGfMAkG
A1UdEwQCMAAwHQYDVR0OBBYEFJuCtXj8XTdcvqNQDIrAA8/bIDuBMFEGA1UdIwRK
MEiAFK6cPIPfTSJTJ/Q/VPkrg5xKn5w1oRqkGDAWMRQwEgYDVQQDDAt0ZWFtNzI5
LW5ldIIUXhzPGms0c4tR8BGRDd0h/Gdd1c4wEwYDVR0lBAwwCgYIKwYBBQUHAwIw
CwYDVR0PBAQDAgeAMA0GCSqGSIb3DQEBCwUAA4IBAQBgHoMpfuztI8U74t8gfKqV
5qHTmUv+GF6RnASD/IKYYWL9D3diaOLXw5VJy0eDz3s+wAfX9IckC84OXbCg+pWg
3zk0HPn/sjY8GezJA9nxxGQ6TzOIvRA+hWpxoHq726vOeQjgGMvSddGKg6zo1Ow5
b8iTGzKfzqsrpebSmVe9y/IPt49iNd/baO+zcpiGwl3e4Tzv5HFWNG9oa5s+4F29
MEN9uOzdJaTMNxrxT7Pm28/H1t9ctj5uBqCsMI+1kBuL2z/Y7u+CPZNPZf/Bj7xU
jbADsjYZu5tC33ggiDJ1i3QDU6OFMkj9yDZ9tl4U7BDuJI1C6wDxjIyY9SbBsF4S
-----END CERTIFICATE-----
