Certificate:
    Data:
        Version: 3 (0x2)
        Serial Number:
            54:54:f1:22:4e:7a:93:cb:ef:93:06:1a:50:14:03:18
        Signature Algorithm: sha256WithRSAEncryption
        Issuer: CN=team191-net
        Validity
            Not Before: Sep 13 00:33:02 2021 GMT
            Not After : Aug 28 00:33:02 2024 GMT
        Subject: CN=team191-server
        Subject Public Key Info:
            Public Key Algorithm: rsaEncryption
                RSA Public-Key: (2048 bit)
                Modulus:
                    00:98:56:93:d3:c5:e7:b7:39:f5:0f:93:f6:71:4f:
                    d7:f7:04:29:05:f0:88:eb:c1:c8:f0:33:1d:03:cb:
                    f7:0c:72:78:cd:93:1d:e7:6f:57:41:d9:2e:1a:92:
                    16:39:18:a1:69:37:7f:48:bc:6c:90:d9:29:54:5a:
                    19:06:2a:d4:d3:8b:0c:4f:64:e2:c2:c2:b9:07:2c:
                    80:c1:02:f0:f0:35:63:26:2e:e7:88:f0:c7:e0:04:
                    8e:3b:4b:72:ad:2b:80:55:af:64:92:4f:05:c8:26:
                    c1:0b:f3:10:89:52:55:87:98:d8:8a:06:e0:38:3b:
                    67:34:3d:d8:04:85:c4:de:92:d7:d5:56:62:c2:4f:
                    3e:45:98:1b:5e:ae:51:80:a0:bb:f0:a2:31:85:c8:
                    ee:f9:34:dc:ce:66:70:d3:3c:9a:34:81:1a:c9:ae:
                    7b:47:a0:42:19:ba:5b:ff:1a:e6:fc:69:06:6e:60:
                    6d:da:d9:ae:31:b9:47:d6:df:66:d4:19:c7:93:6d:
                    91:6a:89:30:41:e3:fe:f1:4c:5f:9e:44:ec:17:cb:
                    0b:f2:8b:c9:27:58:b8:0b:c6:83:f8:13:09:4e:6c:
                    fe:35:57:2c:54:ef:7f:61:91:7c:6f:38:e4:f2:a0:
                    20:b2:60:84:a2:45:4e:63:22:54:af:a8:b8:c9:72:
                    db:75
                Exponent: 65537 (0x10001)
        X509v3 extensions:
            X509v3 Basic Constraints: 
                CA:FALSE
            X509v3 Subject Key Identifier: 
                7A:83:70:C7:24:CD:66:08:9B:9F:E0:35:64:05:9C:32:7D:F5:3B:8D
            X509v3 Authority Key Identifier: 
                keyid:CF:27:C6:AD:E2:9B:D4:AB:75:BF:BE:9B:A2:2E:7C:8D:D1:18:5D:56
                DirName:/CN=team191-net
                serial:7A:DC:81:D1:EB:09:1D:0D:C1:17:97:A3:B6:BF:8D:DA:9F:B1:27:1E

            X509v3 Extended Key Usage: 
                TLS Web Server Authentication
            X509v3 Key Usage: 
                Digital Signature, Key Encipherment
            X509v3 Subject Alternative Name: 
                DNS:team191-server
    Signature Algorithm: sha256WithRSAEncryption
         26:c0:5a:db:6b:39:3a:cc:ef:f4:0e:80:dc:5b:f4:d3:3d:f6:
         30:21:b2:6a:f8:5c:7e:6e:1f:1e:2c:6b:f6:a4:12:66:c7:91:
         f4:20:be:71:fe:a1:66:a7:e4:d1:4a:6f:a9:2d:08:61:f7:87:
         72:6f:e3:e1:eb:c1:1e:00:eb:2f:24:9c:18:22:f2:cb:91:29:
         26:30:60:cb:0a:24:f7:5f:ee:12:7f:bc:1c:b3:88:d1:db:b3:
         cd:05:47:09:7b:5d:f3:db:0f:39:5f:08:ad:21:e7:68:84:b4:
         cf:bf:5d:74:1f:94:ad:24:bf:35:ff:f8:19:65:47:ae:11:8e:
         03:ae:b5:ef:2d:7d:25:67:cd:75:17:c1:0c:71:d5:5b:d0:09:
         fc:62:96:a2:cc:62:83:a9:fd:3d:18:e1:aa:37:e0:7c:00:b7:
         05:cb:6a:09:ff:1b:ee:a9:97:6d:66:9a:43:82:88:e4:05:b4:
         23:06:01:a9:e4:b3:b8:6b:9d:89:6d:15:3d:31:ca:4b:47:e1:
         20:7a:e2:89:c2:95:29:ca:05:3b:3c:df:c6:11:e5:3b:d3:0e:
         26:87:39:66:a7:51:19:03:c7:80:23:ac:2e:c7:31:9a:ea:3e:
         8f:12:61:82:55:4e:83:dd:1a:da:cc:a0:f1:59:5d:b7:d8:91:
         0a:3e:94:f1
-----BEGIN CERTIFICATE-----
MIIDdzCCAl+gAwIBAgIQVFTxIk56k8vvkwYaUBQDGDANBgkqhkiG9w0BAQsFADAW
MRQwEgYDVQQDDAt0ZWFtMTkxLW5ldDAeFw0yMTA5MTMwMDMzMDJaFw0yNDA4Mjgw
MDMzMDJaMBkxFzAVBgNVBAMMDnRlYW0xOTEtc2VydmVyMIIBIjANBgkqhkiG9w0B
AQEFAAOCAQ8AMIIBCgKCAQEAmFaT08Xntzn1D5P2cU/X9wQpBfCI68HI8DMdA8v3
DHJ4zZMd529XQdkuGpIWORihaTd/SLxskNkpVFoZBirU04sMT2TiwsK5ByyAwQLw
8DVjJi7niPDH4ASOO0tyrSuAVa9kkk8FyCbBC/MQiVJVh5jYigbgODtnND3YBIXE
3pLX1VZiwk8+RZgbXq5RgKC78KIxhcju+TTczmZw0zyaNIEaya57R6BCGbpb/xrm
/GkGbmBt2tmuMblH1t9m1BnHk22RaokwQeP+8UxfnkTsF8sL8ovJJ1i4C8aD+BMJ
Tmz+NVcsVO9/YZF8bzjk8qAgsmCEokVOYyJUr6i4yXLbdQIDAQABo4G9MIG6MAkG
A1UdEwQCMAAwHQYDVR0OBBYEFHqDcMckzWYIm5/gNWQFnDJ99TuNMFEGA1UdIwRK
MEiAFM8nxq3im9Srdb++m6IufI3RGF1WoRqkGDAWMRQwEgYDVQQDDAt0ZWFtMTkx
LW5ldIIUetyB0esJHQ3BF5ejtr+N2p+xJx4wEwYDVR0lBAwwCgYIKwYBBQUHAwEw
CwYDVR0PBAQDAgWgMBkGA1UdEQQSMBCCDnRlYW0xOTEtc2VydmVyMA0GCSqGSIb3
DQEBCwUAA4IBAQAmwFrbazk6zO/0DoDcW/TTPfYwIbJq+Fx+bh8eLGv2pBJmx5H0
IL5x/qFmp+TRSm+pLQhh94dyb+Ph68EeAOsvJJwYIvLLkSkmMGDLCiT3X+4Sf7wc
s4jR27PNBUcJe13z2w85XwitIedohLTPv110H5StJL81//gZZUeuEY4DrrXvLX0l
Z811F8EMcdVb0An8YpaizGKDqf09GOGqN+B8ALcFy2oJ/xvuqZdtZppDgojkBbQj
BgGp5LO4a52JbRU9McpLR+EgeuKJwpUpygU7PN/GEeU70w4mhzlmp1EZA8eAI6wu
xzGa6j6PEmGCVU6D3RrazKDxWV232JEKPpTx
-----END CERTIFICATE-----
