Certificate:
    Data:
        Version: 3 (0x2)
        Serial Number:
            82:10:14:cc:dd:3d:98:c6:30:da:dd:8f:b8:2b:86:61
        Signature Algorithm: sha256WithRSAEncryption
        Issuer: CN=team550-net
        Validity
            Not Before: Sep 13 03:31:17 2021 GMT
            Not After : Aug 28 03:31:17 2024 GMT
        Subject: CN=team550-server
        Subject Public Key Info:
            Public Key Algorithm: rsaEncryption
                RSA Public-Key: (2048 bit)
                Modulus:
                    00:ad:98:a8:53:e4:81:2a:16:cd:3b:95:1c:34:c1:
                    d5:48:9f:99:75:c9:70:a0:f5:33:2f:fc:d8:14:cd:
                    c4:42:4c:c8:f7:a9:28:27:d0:79:db:91:7e:59:ad:
                    bf:6a:d0:99:08:3e:09:ad:c0:2d:fc:ef:13:0f:a3:
                    46:3c:c7:95:bd:e7:81:e7:67:10:c5:be:22:fb:68:
                    2a:d4:34:7d:48:b2:e9:6d:f7:bf:e3:52:a9:32:7d:
                    15:e7:27:85:90:2f:8b:d2:0e:79:8e:c5:c5:03:ca:
                    02:78:9c:36:2b:44:f7:d1:09:ed:0d:99:88:c9:ea:
                    1c:a9:26:16:17:ba:95:32:ac:64:2e:ab:b1:61:fd:
                    e4:57:37:8c:21:16:24:b4:db:33:c1:68:b9:ad:41:
                    6a:1c:11:1b:96:df:40:7b:4d:b1:c4:7a:c6:c0:92:
                    93:0f:9b:58:b1:3f:74:39:89:cf:49:7b:3f:e4:3d:
                    5c:d6:1e:ec:41:06:22:20:5d:9e:54:41:c8:6d:e1:
                    94:f1:43:53:cb:8f:5f:04:97:f7:ac:33:03:28:9c:
                    78:42:26:f4:f6:71:aa:a8:96:a3:73:8b:c9:5d:40:
                    22:48:2b:e0:ac:68:4c:63:a1:c6:92:a7:c7:7c:ee:
                    3f:22:a8:8b:fa:42:1a:49:e2:f1:77:32:98:4f:68:
                    09:97
                Exponent: 65537 (0x10001)
        X509v3 extensions:
            X509v3 Basic Constraints: 
                CA:FALSE
            X509v3 Subject Key Identifier: 
                1C:57:5E:89:85:DF:3E:10:48:1A:E9:58:D8:33:62:B5:91:48:1C:AE
            X509v3 Authority Key Identifier: 
                keyid:98:BF:1D:15:A2:57:FB:98:C0:3F:AC:20:2C:B4:3A:79:94:9A:2E:5A
                DirName:/CN=team550-net
                serial:72:8D:D4:57:C0:35:13:8B:F6:C4:A4:A7:70:3C:96:29:2C:55:34:D6

            X509v3 Extended Key Usage: 
                TLS Web Server Authentication
            X509v3 Key Usage: 
                Digital Signature, Key Encipherment
            X509v3 Subject Alternative Name: 
                DNS:team550-server
    Signature Algorithm: sha256WithRSAEncryption
         a1:0f:2a:d0:36:75:4a:6f:93:77:55:7f:cf:2e:83:2e:fc:12:
         b0:3b:c8:50:d4:cc:f1:e4:dc:18:dc:20:cb:08:2b:09:3a:09:
         01:2f:bb:82:f4:f7:5c:67:ee:e7:fa:b8:b8:88:c5:cd:33:e0:
         fc:10:40:d4:57:56:62:1f:6a:e0:85:e1:52:ac:bc:d0:2a:41:
         25:cf:b3:a4:49:30:8e:4e:5b:8e:cf:5e:84:49:17:cc:f0:ba:
         6c:ba:97:91:2a:c7:8d:e6:4d:67:33:5a:a6:bc:5c:a4:d9:8f:
         1b:6b:e9:6d:3c:53:e4:51:ac:14:47:87:bc:5d:75:5a:ea:54:
         96:52:ca:4d:ad:cb:f9:9d:e3:2e:e9:dc:ac:1c:cb:f3:f1:7b:
         31:dc:c8:8f:a6:ac:db:6a:f4:2b:19:1e:aa:37:94:76:58:5b:
         22:fa:e2:11:bc:69:55:6b:ca:98:85:8f:4f:0d:c7:7e:2c:0b:
         70:43:a4:4e:d3:17:40:77:bd:d4:f0:d9:e9:ed:4c:c7:bf:59:
         d1:9f:69:e1:6a:35:5b:f8:31:01:96:6e:a1:d2:26:8f:b7:7c:
         71:61:ff:b4:9a:55:e2:85:9f:25:d9:b8:25:bd:96:a9:db:87:
         59:78:fe:98:c6:c2:ab:12:d4:38:99:e1:56:da:ae:f7:0a:16:
         6e:4a:7d:bc
-----BEGIN CERTIFICATE-----
MIIDeDCCAmCgAwIBAgIRAIIQFMzdPZjGMNrdj7grhmEwDQYJKoZIhvcNAQELBQAw
FjEUMBIGA1UEAwwLdGVhbTU1MC1uZXQwHhcNMjEwOTEzMDMzMTE3WhcNMjQwODI4
MDMzMTE3WjAZMRcwFQYDVQQDDA50ZWFtNTUwLXNlcnZlcjCCASIwDQYJKoZIhvcN
AQEBBQADggEPADCCAQoCggEBAK2YqFPkgSoWzTuVHDTB1UifmXXJcKD1My/82BTN
xEJMyPepKCfQeduRflmtv2rQmQg+Ca3ALfzvEw+jRjzHlb3ngednEMW+IvtoKtQ0
fUiy6W33v+NSqTJ9FecnhZAvi9IOeY7FxQPKAnicNitE99EJ7Q2ZiMnqHKkmFhe6
lTKsZC6rsWH95Fc3jCEWJLTbM8Foua1BahwRG5bfQHtNscR6xsCSkw+bWLE/dDmJ
z0l7P+Q9XNYe7EEGIiBdnlRByG3hlPFDU8uPXwSX96wzAyiceEIm9PZxqqiWo3OL
yV1AIkgr4KxoTGOhxpKnx3zuPyKoi/pCGkni8XcymE9oCZcCAwEAAaOBvTCBujAJ
BgNVHRMEAjAAMB0GA1UdDgQWBBQcV16Jhd8+EEga6VjYM2K1kUgcrjBRBgNVHSME
SjBIgBSYvx0Volf7mMA/rCAstDp5lJouWqEapBgwFjEUMBIGA1UEAwwLdGVhbTU1
MC1uZXSCFHKN1FfANROL9sSkp3A8liksVTTWMBMGA1UdJQQMMAoGCCsGAQUFBwMB
MAsGA1UdDwQEAwIFoDAZBgNVHREEEjAQgg50ZWFtNTUwLXNlcnZlcjANBgkqhkiG
9w0BAQsFAAOCAQEAoQ8q0DZ1Sm+Td1V/zy6DLvwSsDvIUNTM8eTcGNwgywgrCToJ
AS+7gvT3XGfu5/q4uIjFzTPg/BBA1FdWYh9q4IXhUqy80CpBJc+zpEkwjk5bjs9e
hEkXzPC6bLqXkSrHjeZNZzNaprxcpNmPG2vpbTxT5FGsFEeHvF11WupUllLKTa3L
+Z3jLuncrBzL8/F7MdzIj6as22r0KxkeqjeUdlhbIvriEbxpVWvKmIWPTw3HfiwL
cEOkTtMXQHe91PDZ6e1Mx79Z0Z9p4Wo1W/gxAZZuodImj7d8cWH/tJpV4oWfJdm4
Jb2WqduHWXj+mMbCqxLUOJnhVtqu9woWbkp9vA==
-----END CERTIFICATE-----
