Certificate:
    Data:
        Version: 3 (0x2)
        Serial Number:
            9b:ef:e7:7c:dc:3e:58:c8:c3:80:70:a6:60:47:51:bc
        Signature Algorithm: sha256WithRSAEncryption
        Issuer: CN=team550-net
        Validity
            Not Before: Sep 13 03:31:16 2021 GMT
            Not After : Aug 28 03:31:16 2024 GMT
        Subject: CN=team550-client
        Subject Public Key Info:
            Public Key Algorithm: rsaEncryption
                RSA Public-Key: (2048 bit)
                Modulus:
                    00:b1:8f:8f:1c:54:82:88:62:e1:eb:36:b1:6c:0b:
                    6e:f5:b1:af:f9:83:a8:62:34:a9:78:e2:08:4c:e8:
                    86:f2:ab:87:bd:e3:4b:c9:27:91:a5:0f:03:2b:64:
                    ae:31:d0:c0:9c:22:b4:cf:b5:3f:db:b4:11:d3:38:
                    ca:28:22:40:87:3b:99:06:d3:41:d2:cd:58:14:ed:
                    62:94:49:5e:b4:54:e6:17:d6:c4:cb:b4:6e:3d:86:
                    11:c3:d3:42:b4:42:71:7c:48:73:a0:5e:9f:1f:8d:
                    28:68:15:52:98:d8:d8:a1:a0:67:4c:6c:9f:19:96:
                    31:96:75:52:8d:dc:9d:59:45:71:9a:cf:70:06:a9:
                    40:0e:36:38:e4:16:bf:64:64:93:c3:b0:87:76:db:
                    ba:ef:10:31:59:1c:2e:48:5c:7f:d1:7f:d1:8e:22:
                    99:65:e2:44:be:ff:63:6a:ba:2c:45:9a:92:f5:a7:
                    32:a2:ca:e6:bf:a8:cf:4b:8d:30:90:2e:44:39:56:
                    45:48:e5:92:44:1a:cc:4c:4a:23:1a:f0:02:ea:c8:
                    6f:5b:ec:20:28:8f:de:26:57:12:f3:dd:04:74:67:
                    89:2f:82:cb:ce:c3:1b:f6:67:11:a5:3a:f6:dd:61:
                    54:5c:b7:fa:be:28:eb:ca:8f:99:14:06:04:c1:37:
                    07:19
                Exponent: 65537 (0x10001)
        X509v3 extensions:
            X509v3 Basic Constraints: 
                CA:FALSE
            X509v3 Subject Key Identifier: 
                EC:C7:E4:48:4E:E2:95:00:6A:11:BD:56:89:56:A0:FE:36:DC:33:C3
            X509v3 Authority Key Identifier: 
                keyid:98:BF:1D:15:A2:57:FB:98:C0:3F:AC:20:2C:B4:3A:79:94:9A:2E:5A
                DirName:/CN=team550-net
                serial:72:8D:D4:57:C0:35:13:8B:F6:C4:A4:A7:70:3C:96:29:2C:55:34:D6

            X509v3 Extended Key Usage: 
                TLS Web Client Authentication
            X509v3 Key Usage: 
                Digital Signature
    Signature Algorithm: sha256WithRSAEncryption
         2f:4a:1c:63:09:a7:cb:94:50:4f:0a:f5:3d:ff:17:98:7d:09:
         ae:d1:b3:38:6d:ee:9f:a9:be:b8:af:16:85:61:19:45:ff:8b:
         db:52:dd:a3:77:76:83:9e:5c:83:8a:46:d9:62:2d:3c:ef:0d:
         57:ee:dd:75:a7:8a:05:44:cf:31:57:a6:dd:50:f1:9d:1b:d5:
         db:d2:f9:7c:4a:03:c0:29:24:93:45:a4:88:57:98:e1:1e:d9:
         b8:67:9a:42:90:16:33:6e:70:3d:12:53:62:c1:39:37:a7:ad:
         58:3c:13:44:10:14:8a:9b:81:cf:af:e5:71:25:f3:dc:83:8c:
         ec:12:71:a8:ec:c9:9d:48:36:19:d4:51:33:45:8f:5a:7a:a3:
         7a:b4:0a:ca:71:05:e6:35:31:6c:15:59:45:e9:8c:8e:83:9b:
         29:3d:52:fd:09:e4:bf:eb:91:3f:c1:04:f6:90:13:b6:a4:74:
         fe:2d:34:4d:83:4c:05:a5:80:6c:dc:48:20:a6:e1:82:91:cb:
         05:8b:36:8f:7a:51:b8:f8:b0:22:c8:0a:8a:ad:e4:2c:d2:8b:
         b0:35:e8:2a:89:62:8e:02:a0:12:c0:e7:91:65:47:29:1f:9b:
         a6:7c:60:aa:35:39:d8:a7:1c:8e:dc:01:91:cb:6a:39:da:cc:
         06:7a:45:cd
-----BEGIN CERTIFICATE-----
MIIDXTCCAkWgAwIBAgIRAJvv53zcPljIw4BwpmBHUbwwDQYJKoZIhvcNAQELBQAw
FjEUMBIGA1UEAwwLdGVhbTU1MC1uZXQwHhcNMjEwOTEzMDMzMTE2WhcNMjQwODI4
MDMzMTE2WjAZMRcwFQYDVQQDDA50ZWFtNTUwLWNsaWVudDCCASIwDQYJKoZIhvcN
AQEBBQADggEPADCCAQoCggEBALGPjxxUgohi4es2sWwLbvWxr/mDqGI0qXjiCEzo
hvKrh73jS8knkaUPAytkrjHQwJwitM+1P9u0EdM4yigiQIc7mQbTQdLNWBTtYpRJ
XrRU5hfWxMu0bj2GEcPTQrRCcXxIc6Benx+NKGgVUpjY2KGgZ0xsnxmWMZZ1Uo3c
nVlFcZrPcAapQA42OOQWv2Rkk8Owh3bbuu8QMVkcLkhcf9F/0Y4imWXiRL7/Y2q6
LEWakvWnMqLK5r+oz0uNMJAuRDlWRUjlkkQazExKIxrwAurIb1vsICiP3iZXEvPd
BHRniS+Cy87DG/ZnEaU69t1hVFy3+r4o68qPmRQGBME3BxkCAwEAAaOBojCBnzAJ
BgNVHRMEAjAAMB0GA1UdDgQWBBTsx+RITuKVAGoRvVaJVqD+NtwzwzBRBgNVHSME
SjBIgBSYvx0Volf7mMA/rCAstDp5lJouWqEapBgwFjEUMBIGA1UEAwwLdGVhbTU1
MC1uZXSCFHKN1FfANROL9sSkp3A8liksVTTWMBMGA1UdJQQMMAoGCCsGAQUFBwMC
MAsGA1UdDwQEAwIHgDANBgkqhkiG9w0BAQsFAAOCAQEAL0ocYwmny5RQTwr1Pf8X
mH0JrtGzOG3un6m+uK8WhWEZRf+L21Ldo3d2g55cg4pG2WItPO8NV+7ddaeKBUTP
MVem3VDxnRvV29L5fEoDwCkkk0WkiFeY4R7ZuGeaQpAWM25wPRJTYsE5N6etWDwT
RBAUipuBz6/lcSXz3IOM7BJxqOzJnUg2GdRRM0WPWnqjerQKynEF5jUxbBVZRemM
joObKT1S/Qnkv+uRP8EE9pATtqR0/i00TYNMBaWAbNxIIKbhgpHLBYs2j3pRuPiw
IsgKiq3kLNKLsDXoKolijgKgEsDnkWVHKR+bpnxgqjU52KccjtwBkctqOdrMBnpF
zQ==
-----END CERTIFICATE-----
