Certificate:
    Data:
        Version: 3 (0x2)
        Serial Number:
            54:f4:a6:d7:6b:16:cc:89:c5:91:be:bd:aa:59:54:78
        Signature Algorithm: sha256WithRSAEncryption
        Issuer: CN=team719-net
        Validity
            Not Before: Sep 13 05:33:38 2021 GMT
            Not After : Aug 28 05:33:38 2024 GMT
        Subject: CN=team719-client
        Subject Public Key Info:
            Public Key Algorithm: rsaEncryption
                RSA Public-Key: (2048 bit)
                Modulus:
                    00:d7:4e:c3:48:d8:a6:e1:f9:e4:2c:58:2d:39:e0:
                    80:71:85:e4:4e:e0:df:28:2f:b5:6c:c6:0c:3e:7f:
                    1b:1c:7a:7c:70:32:43:78:b8:b6:65:c9:21:b1:10:
                    f6:0e:4c:7d:a3:97:19:b8:01:e8:b2:d5:ff:5e:d3:
                    8d:ce:58:fd:1c:98:fa:0b:d6:68:10:ef:0d:9f:03:
                    56:f3:27:26:82:22:56:61:78:57:9e:34:db:73:28:
                    bf:94:67:d8:71:f4:fa:e2:3a:f4:a7:22:80:db:0e:
                    e8:3f:fa:9e:c5:8f:aa:b7:34:b8:88:4e:44:b2:3a:
                    9c:0f:d5:7e:85:ac:b3:0d:98:8e:fe:a9:12:d0:c5:
                    88:f5:c7:12:2c:e2:e5:fd:dd:57:01:fb:a0:12:7c:
                    ae:a8:65:77:93:79:83:35:78:33:9a:09:5b:a1:a9:
                    02:db:03:c8:5e:50:fd:23:06:89:68:a8:b9:09:e4:
                    e4:12:70:4a:a6:19:35:d0:40:26:b4:2a:2b:80:8a:
                    77:ff:10:17:57:e4:dc:61:c8:a9:94:84:12:37:73:
                    14:41:a7:6e:13:3e:90:ef:a8:bb:fe:7a:7a:5b:8c:
                    26:0d:70:1d:05:4e:8c:93:b1:f7:8d:ca:2c:24:e9:
                    79:16:df:59:ab:83:44:13:d6:6e:16:66:33:0b:77:
                    da:bd
                Exponent: 65537 (0x10001)
        X509v3 extensions:
            X509v3 Basic Constraints: 
                CA:FALSE
            X509v3 Subject Key Identifier: 
                74:C1:D5:73:3F:34:68:71:CF:11:83:CE:C0:68:C5:FF:3C:38:DC:41
            X509v3 Authority Key Identifier: 
                keyid:D7:64:C3:DA:86:DC:51:E0:DE:06:A9:08:61:9B:C0:F7:02:8E:BE:4E
                DirName:/CN=team719-net
                serial:36:60:B0:0B:69:08:E1:E1:31:A4:96:87:DE:58:CC:FE:93:9D:F1:D0

            X509v3 Extended Key Usage: 
                TLS Web Client Authentication
            X509v3 Key Usage: 
                Digital Signature
    Signature Algorithm: sha256WithRSAEncryption
         c3:35:ca:02:81:6c:f1:b3:29:fd:e0:32:d7:6f:e6:8c:4a:90:
         e4:b6:9b:bd:61:94:62:fc:fc:4a:ff:b4:e7:17:31:62:7b:05:
         f2:9d:1a:71:34:53:11:b5:0d:d4:c1:3a:55:a3:a1:02:62:de:
         7c:6b:80:b0:91:4b:1e:1f:b0:f5:c0:55:1e:60:fd:1a:97:90:
         94:f7:e6:ca:f2:3d:b0:ad:f8:6c:be:80:6a:37:9d:16:c7:c0:
         6a:50:93:61:19:d3:ce:19:67:13:5e:a6:6e:cb:e9:c8:e4:52:
         07:5a:26:b9:80:3c:cd:c6:a4:52:6f:70:4c:15:77:b5:12:8f:
         dc:ce:ec:47:ca:28:b8:2c:4f:52:20:44:1e:88:eb:e7:d3:a6:
         84:79:04:7a:1e:70:0a:20:6a:6e:29:a5:2a:49:03:3a:a0:8a:
         84:23:9e:0c:03:b2:35:d3:ac:df:7f:fc:98:f8:c6:27:3d:ee:
         13:05:d4:b6:cc:f2:fe:3f:ef:e4:ac:8e:55:f1:2d:c2:2e:5f:
         99:64:e4:a1:91:e0:00:57:11:0a:08:b7:f0:22:14:ca:d4:9c:
         f1:6c:6a:4f:a6:05:b2:f5:4f:8f:06:1d:5e:5b:61:c4:86:c9:
         f2:db:74:02:b2:fc:71:2b:94:90:ac:db:35:bc:24:81:13:f9:
         11:1e:14:eb
-----BEGIN CERTIFICATE-----
MIIDXDCCAkSgAwIBAgIQVPSm12sWzInFkb69qllUeDANBgkqhkiG9w0BAQsFADAW
MRQwEgYDVQQDDAt0ZWFtNzE5LW5ldDAeFw0yMTA5MTMwNTMzMzhaFw0yNDA4Mjgw
NTMzMzhaMBkxFzAVBgNVBAMMDnRlYW03MTktY2xpZW50MIIBIjANBgkqhkiG9w0B
AQEFAAOCAQ8AMIIBCgKCAQEA107DSNim4fnkLFgtOeCAcYXkTuDfKC+1bMYMPn8b
HHp8cDJDeLi2ZckhsRD2Dkx9o5cZuAHostX/XtONzlj9HJj6C9ZoEO8NnwNW8ycm
giJWYXhXnjTbcyi/lGfYcfT64jr0pyKA2w7oP/qexY+qtzS4iE5EsjqcD9V+hayz
DZiO/qkS0MWI9ccSLOLl/d1XAfugEnyuqGV3k3mDNXgzmglboakC2wPIXlD9IwaJ
aKi5CeTkEnBKphk10EAmtCorgIp3/xAXV+TcYciplIQSN3MUQaduEz6Q76i7/np6
W4wmDXAdBU6Mk7H3jcosJOl5Ft9Zq4NEE9ZuFmYzC3favQIDAQABo4GiMIGfMAkG
A1UdEwQCMAAwHQYDVR0OBBYEFHTB1XM/NGhxzxGDzsBoxf88ONxBMFEGA1UdIwRK
MEiAFNdkw9qG3FHg3gapCGGbwPcCjr5OoRqkGDAWMRQwEgYDVQQDDAt0ZWFtNzE5
LW5ldIIUNmCwC2kI4eExpJaH3ljM/pOd8dAwEwYDVR0lBAwwCgYIKwYBBQUHAwIw
CwYDVR0PBAQDAgeAMA0GCSqGSIb3DQEBCwUAA4IBAQDDNcoCgWzxsyn94DLXb+aM
SpDktpu9YZRi/PxK/7TnFzFiewXynRpxNFMRtQ3UwTpVo6ECYt58a4CwkUseH7D1
wFUeYP0al5CU9+bK8j2wrfhsvoBqN50Wx8BqUJNhGdPOGWcTXqZuy+nI5FIHWia5
gDzNxqRSb3BMFXe1Eo/czuxHyii4LE9SIEQeiOvn06aEeQR6HnAKIGpuKaUqSQM6
oIqEI54MA7I106zff/yY+MYnPe4TBdS2zPL+P+/krI5V8S3CLl+ZZOShkeAAVxEK
CLfwIhTK1JzxbGpPpgWy9U+PBh1eW2HEhsny23QCsvxxK5SQrNs1vCSBE/kRHhTr
-----END CERTIFICATE-----
