Certificate:
    Data:
        Version: 3 (0x2)
        Serial Number:
            a6:e1:d7:91:fb:ae:07:c7:1a:9e:fa:ce:82:70:40:1c
        Signature Algorithm: sha256WithRSAEncryption
        Issuer: CN=team430-net
        Validity
            Not Before: Sep 13 02:41:11 2021 GMT
            Not After : Aug 28 02:41:11 2024 GMT
        Subject: CN=team430-server
        Subject Public Key Info:
            Public Key Algorithm: rsaEncryption
                RSA Public-Key: (2048 bit)
                Modulus:
                    00:c7:72:c9:58:43:6f:c5:29:b6:f5:7e:11:6a:09:
                    8c:49:55:ef:8b:2d:ef:ec:23:34:00:94:bf:db:60:
                    55:e3:33:12:82:50:25:88:f3:20:61:69:6e:58:2f:
                    ea:c8:84:9f:15:84:9c:1d:6b:c6:34:a8:28:5c:c0:
                    49:8e:39:3d:02:77:5a:b8:84:d2:cc:5f:de:4b:4c:
                    87:83:3c:6f:ed:8c:5d:fb:16:10:c3:29:94:b2:56:
                    89:ee:dc:be:fc:22:9c:fb:4b:c3:1a:47:5d:df:fe:
                    a6:e5:51:3e:dc:79:02:ce:bb:8b:bb:8c:ad:71:37:
                    42:78:2b:6e:3a:2b:42:aa:dd:6d:93:fe:88:40:c6:
                    09:e6:4a:10:7c:e3:12:9b:57:9d:5e:ad:b0:6b:de:
                    25:fe:dc:30:88:b5:dc:97:dd:23:71:be:06:40:5f:
                    c1:5a:b4:eb:69:a8:53:a0:e8:54:cb:cd:0b:c1:9f:
                    29:ea:6c:ba:66:98:71:72:c1:ce:28:5a:5f:0c:a8:
                    62:5f:57:f0:f1:6e:ee:99:f7:9f:17:93:03:9b:38:
                    89:7e:4e:29:18:7a:d6:4e:c3:6a:28:7b:82:97:33:
                    68:53:5a:40:34:2c:eb:c8:a8:f5:7e:aa:d1:09:4a:
                    6e:85:79:8c:27:ab:7e:a4:f2:a5:ca:7c:27:b5:12:
                    17:9b
                Exponent: 65537 (0x10001)
        X509v3 extensions:
            X509v3 Basic Constraints: 
                CA:FALSE
            X509v3 Subject Key Identifier: 
                21:1D:5F:55:35:99:46:ED:D1:D1:CA:2F:2B:00:1F:2D:82:0B:15:A1
            X509v3 Authority Key Identifier: 
                keyid:C6:5C:7B:02:31:08:B2:F9:FD:55:1F:15:A6:DE:DC:7F:27:55:86:14
                DirName:/CN=team430-net
                serial:3C:B8:91:C0:8F:CA:BE:A1:BB:4E:B9:A1:2D:6F:AD:5D:2E:7A:7A:AD

            X509v3 Extended Key Usage: 
                TLS Web Server Authentication
            X509v3 Key Usage: 
                Digital Signature, Key Encipherment
            X509v3 Subject Alternative Name: 
                DNS:team430-server
    Signature Algorithm: sha256WithRSAEncryption
         75:3c:ff:c4:36:86:b2:5e:c5:75:a4:66:80:5d:d2:e4:7a:41:
         a6:2d:23:a5:58:9c:d7:67:80:b9:45:c7:6e:77:c0:43:8e:67:
         94:de:b8:d8:85:c8:dc:58:84:43:ba:f9:0f:0e:87:7b:99:45:
         39:e5:10:1e:af:6a:51:48:3d:d5:2f:b1:65:37:73:f0:62:f3:
         fb:55:64:39:7d:69:bf:0f:cb:49:f4:1a:30:b4:12:1f:71:6f:
         c2:99:a6:80:82:b4:92:ca:40:e3:36:81:88:0e:31:67:a4:95:
         f0:63:fc:32:f1:e1:12:9f:4d:8c:b3:ff:e4:57:27:f0:d2:32:
         3e:5f:d0:7d:7d:44:1b:fe:03:4a:5a:10:54:f3:90:fd:c6:37:
         2b:80:f7:3d:7e:8c:62:95:9c:c5:ae:f5:a7:39:21:77:6b:2f:
         4c:db:85:aa:19:a8:85:6e:98:94:59:a6:fa:15:bc:d6:e4:c7:
         18:86:b4:44:4b:ec:51:c8:ff:e1:cf:ca:d3:22:c3:b2:a7:2c:
         cc:00:2f:9a:01:04:18:71:04:89:a5:fa:f6:39:53:5a:4f:d1:
         82:1e:77:08:4e:bd:1f:39:f3:ab:ec:b0:a5:93:f0:bf:aa:5e:
         f4:e4:c4:5b:52:16:92:95:aa:86:eb:c1:c8:68:09:db:27:93:
         10:96:bd:de
-----BEGIN CERTIFICATE-----
MIIDeDCCAmCgAwIBAgIRAKbh15H7rgfHGp76zoJwQBwwDQYJKoZIhvcNAQELBQAw
FjEUMBIGA1UEAwwLdGVhbTQzMC1uZXQwHhcNMjEwOTEzMDI0MTExWhcNMjQwODI4
MDI0MTExWjAZMRcwFQYDVQQDDA50ZWFtNDMwLXNlcnZlcjCCASIwDQYJKoZIhvcN
AQEBBQADggEPADCCAQoCggEBAMdyyVhDb8UptvV+EWoJjElV74st7+wjNACUv9tg
VeMzEoJQJYjzIGFpblgv6siEnxWEnB1rxjSoKFzASY45PQJ3WriE0sxf3ktMh4M8
b+2MXfsWEMMplLJWie7cvvwinPtLwxpHXd/+puVRPtx5As67i7uMrXE3Qngrbjor
QqrdbZP+iEDGCeZKEHzjEptXnV6tsGveJf7cMIi13JfdI3G+BkBfwVq062moU6Do
VMvNC8GfKepsumaYcXLBzihaXwyoYl9X8PFu7pn3nxeTA5s4iX5OKRh61k7Daih7
gpczaFNaQDQs68io9X6q0QlKboV5jCerfqTypcp8J7USF5sCAwEAAaOBvTCBujAJ
BgNVHRMEAjAAMB0GA1UdDgQWBBQhHV9VNZlG7dHRyi8rAB8tggsVoTBRBgNVHSME
SjBIgBTGXHsCMQiy+f1VHxWm3tx/J1WGFKEapBgwFjEUMBIGA1UEAwwLdGVhbTQz
MC1uZXSCFDy4kcCPyr6hu065oS1vrV0uenqtMBMGA1UdJQQMMAoGCCsGAQUFBwMB
MAsGA1UdDwQEAwIFoDAZBgNVHREEEjAQgg50ZWFtNDMwLXNlcnZlcjANBgkqhkiG
9w0BAQsFAAOCAQEAdTz/xDaGsl7FdaRmgF3S5HpBpi0jpVic12eAuUXHbnfAQ45n
lN642IXI3FiEQ7r5Dw6He5lFOeUQHq9qUUg91S+xZTdz8GLz+1VkOX1pvw/LSfQa
MLQSH3FvwpmmgIK0kspA4zaBiA4xZ6SV8GP8MvHhEp9NjLP/5Fcn8NIyPl/QfX1E
G/4DSloQVPOQ/cY3K4D3PX6MYpWcxa71pzkhd2svTNuFqhmohW6YlFmm+hW81uTH
GIa0REvsUcj/4c/K0yLDsqcszAAvmgEEGHEEiaX69jlTWk/Rgh53CE69Hznzq+yw
pZPwv6pe9OTEW1IWkpWqhuvByGgJ2yeTEJa93g==
-----END CERTIFICATE-----
