Certificate:
    Data:
        Version: 3 (0x2)
        Serial Number:
            fa:78:f6:e3:50:81:55:91:29:c0:b8:2a:f9:5b:ba:32
        Signature Algorithm: sha256WithRSAEncryption
        Issuer: CN=team543-net
        Validity
            Not Before: Sep 13 03:27:52 2021 GMT
            Not After : Aug 28 03:27:52 2024 GMT
        Subject: CN=team543-server
        Subject Public Key Info:
            Public Key Algorithm: rsaEncryption
                RSA Public-Key: (2048 bit)
                Modulus:
                    00:ba:a1:c1:5e:72:68:98:d6:73:79:c9:a4:fa:37:
                    7f:b8:aa:e2:4a:d8:d2:0c:c5:7f:50:ab:78:32:b1:
                    5d:89:53:d8:22:a2:87:6e:c9:f2:18:97:d9:e3:85:
                    ff:16:cc:7f:8a:88:9f:94:3e:ea:f7:9b:8d:2d:d4:
                    d9:8c:a1:98:e0:ea:a2:4b:e3:e6:2f:ca:a9:f1:fd:
                    a3:40:43:8d:b2:25:72:14:96:2c:d8:d5:90:95:6e:
                    b7:a8:15:11:ee:55:f9:e6:e5:50:57:1b:de:a1:4a:
                    3e:c7:47:e1:84:49:be:61:a4:ec:67:f6:54:cc:2a:
                    1c:ba:77:fd:ac:fd:69:99:d9:25:a0:b6:0e:48:95:
                    0e:8f:56:e2:2e:89:bd:80:f1:b8:1c:4f:bf:84:f4:
                    ef:3a:9a:13:69:ef:3c:b3:d2:78:02:1e:a2:1b:70:
                    b7:2d:c8:6b:83:97:d4:46:c0:6c:66:20:20:e5:29:
                    16:db:a5:67:69:e2:4e:25:ec:9e:93:b8:0d:8a:4e:
                    c4:46:2c:23:0e:9f:f0:bd:61:e2:87:50:19:50:6b:
                    6b:6b:da:1d:c7:94:a7:6a:35:73:03:63:7d:ef:83:
                    f0:d0:28:40:1a:f5:81:96:90:17:3e:8d:a5:30:65:
                    17:87:93:a5:62:58:e3:96:47:ae:00:03:dd:8f:7e:
                    15:51
                Exponent: 65537 (0x10001)
        X509v3 extensions:
            X509v3 Basic Constraints: 
                CA:FALSE
            X509v3 Subject Key Identifier: 
                46:33:D0:8C:D3:92:8A:55:53:9D:46:45:02:B2:90:FF:04:EB:1A:01
            X509v3 Authority Key Identifier: 
                keyid:EC:78:F4:2A:A5:C1:3F:D3:8E:67:AD:69:3E:EA:0A:91:8D:C9:61:AE
                DirName:/CN=team543-net
                serial:6B:34:57:24:9D:DD:87:CA:D1:06:95:52:17:DB:C3:4E:B2:AC:CD:4A

            X509v3 Extended Key Usage: 
                TLS Web Server Authentication
            X509v3 Key Usage: 
                Digital Signature, Key Encipherment
            X509v3 Subject Alternative Name: 
                DNS:team543-server
    Signature Algorithm: sha256WithRSAEncryption
         35:52:50:be:ee:50:8b:3d:fa:ea:35:bd:3d:30:de:5f:e6:b4:
         d7:0f:ae:e4:f0:77:b8:47:be:4b:5c:be:a9:db:5a:6b:57:b0:
         4b:cf:51:6c:75:4b:8f:38:2e:00:ed:c8:32:4e:26:89:36:e7:
         19:54:0a:db:51:b3:6a:09:78:04:11:fc:48:8a:6c:96:8b:0b:
         5b:12:6d:a0:76:0e:71:36:dd:6a:aa:29:2a:a6:0d:0b:6b:4b:
         55:a6:e9:4a:aa:df:0a:59:c1:be:fa:a6:11:72:88:34:f0:71:
         1e:28:9d:1d:36:ea:c6:9f:9d:de:f5:ae:b2:20:8b:68:07:3d:
         f8:ea:48:f0:60:bd:60:35:e0:ec:6f:4a:d1:42:62:94:da:f3:
         c4:b1:75:93:56:66:68:c2:60:c7:56:9d:9b:d9:c2:f3:ed:a0:
         4f:ab:08:88:c4:2f:79:e9:eb:43:5c:94:18:08:81:5a:c1:c7:
         3f:27:93:09:27:d0:3f:00:66:ed:f5:38:6b:0a:b3:fb:11:e2:
         76:90:a0:b2:d3:94:e1:c4:c0:86:81:9c:1a:ca:d4:d9:1b:e1:
         02:2e:77:98:8b:2b:15:44:89:07:63:8d:98:b2:46:7c:31:5a:
         33:e1:4d:fb:72:73:a2:e0:a3:36:ae:fb:b7:2a:91:c3:6b:a5:
         51:63:1f:23
-----BEGIN CERTIFICATE-----
MIIDeDCCAmCgAwIBAgIRAPp49uNQgVWRKcC4KvlbujIwDQYJKoZIhvcNAQELBQAw
FjEUMBIGA1UEAwwLdGVhbTU0My1uZXQwHhcNMjEwOTEzMDMyNzUyWhcNMjQwODI4
MDMyNzUyWjAZMRcwFQYDVQQDDA50ZWFtNTQzLXNlcnZlcjCCASIwDQYJKoZIhvcN
AQEBBQADggEPADCCAQoCggEBALqhwV5yaJjWc3nJpPo3f7iq4krY0gzFf1CreDKx
XYlT2CKih27J8hiX2eOF/xbMf4qIn5Q+6vebjS3U2YyhmODqokvj5i/KqfH9o0BD
jbIlchSWLNjVkJVut6gVEe5V+eblUFcb3qFKPsdH4YRJvmGk7Gf2VMwqHLp3/az9
aZnZJaC2DkiVDo9W4i6JvYDxuBxPv4T07zqaE2nvPLPSeAIeohtwty3Ia4OX1EbA
bGYgIOUpFtulZ2niTiXsnpO4DYpOxEYsIw6f8L1h4odQGVBra2vaHceUp2o1cwNj
fe+D8NAoQBr1gZaQFz6NpTBlF4eTpWJY45ZHrgAD3Y9+FVECAwEAAaOBvTCBujAJ
BgNVHRMEAjAAMB0GA1UdDgQWBBRGM9CM05KKVVOdRkUCspD/BOsaATBRBgNVHSME
SjBIgBTsePQqpcE/045nrWk+6gqRjclhrqEapBgwFjEUMBIGA1UEAwwLdGVhbTU0
My1uZXSCFGs0VySd3YfK0QaVUhfbw06yrM1KMBMGA1UdJQQMMAoGCCsGAQUFBwMB
MAsGA1UdDwQEAwIFoDAZBgNVHREEEjAQgg50ZWFtNTQzLXNlcnZlcjANBgkqhkiG
9w0BAQsFAAOCAQEANVJQvu5Qiz366jW9PTDeX+a01w+u5PB3uEe+S1y+qdtaa1ew
S89RbHVLjzguAO3IMk4miTbnGVQK21Gzagl4BBH8SIpslosLWxJtoHYOcTbdaqop
KqYNC2tLVabpSqrfClnBvvqmEXKINPBxHiidHTbqxp+d3vWusiCLaAc9+OpI8GC9
YDXg7G9K0UJilNrzxLF1k1ZmaMJgx1adm9nC8+2gT6sIiMQveenrQ1yUGAiBWsHH
PyeTCSfQPwBm7fU4awqz+xHidpCgstOU4cTAhoGcGsrU2RvhAi53mIsrFUSJB2ON
mLJGfDFaM+FN+3JzouCjNq77tyqRw2ulUWMfIw==
-----END CERTIFICATE-----
