Certificate:
    Data:
        Version: 3 (0x2)
        Serial Number:
            81:3d:03:6a:69:51:d4:77:cf:f9:60:3c:ab:c7:83:e8
        Signature Algorithm: sha256WithRSAEncryption
        Issuer: CN=team297-net
        Validity
            Not Before: Sep 13 01:25:47 2021 GMT
            Not After : Aug 28 01:25:47 2024 GMT
        Subject: CN=team297-client
        Subject Public Key Info:
            Public Key Algorithm: rsaEncryption
                RSA Public-Key: (2048 bit)
                Modulus:
                    00:b3:87:87:a6:6d:c7:e9:ac:f7:c0:c8:b2:40:cf:
                    16:11:46:50:73:5c:4f:9b:01:77:f0:79:5d:c6:d3:
                    aa:8d:14:a1:85:77:7e:16:01:bb:2f:f0:2f:2b:74:
                    3b:a6:d5:2b:6f:24:7b:ab:3d:0d:4e:57:f5:83:05:
                    be:7e:1c:c8:32:5d:25:ec:ca:c7:c4:cf:50:98:60:
                    ce:35:b8:f6:01:f1:6a:a9:ff:5e:84:9d:4b:04:be:
                    06:c2:5c:c9:00:d0:af:cc:8a:71:4c:dc:cd:12:82:
                    2d:bd:7e:bc:fe:59:eb:cf:f7:d7:5f:9f:08:40:8c:
                    1b:9d:94:b8:cf:18:68:2b:06:a8:6c:19:60:13:f2:
                    fc:b8:07:40:1f:ae:c9:37:d9:29:ae:6f:18:1c:cd:
                    55:01:59:64:0f:83:d7:10:eb:13:b5:90:6a:e9:b9:
                    c7:23:d1:91:8a:9c:3c:68:ac:0a:8e:b8:35:45:44:
                    ce:12:d7:5e:77:ba:0d:4d:5b:1b:a8:56:0b:28:53:
                    61:c1:e6:29:f5:41:8a:23:a3:19:e0:04:4f:4b:cd:
                    f2:a3:9f:1f:9b:0c:db:dc:42:48:9f:eb:bc:f5:aa:
                    3f:96:31:3b:6e:2b:0b:ba:7d:24:fd:7e:c8:ab:ce:
                    76:89:bd:e6:57:ba:50:75:80:4f:a4:91:15:8a:bb:
                    07:9f
                Exponent: 65537 (0x10001)
        X509v3 extensions:
            X509v3 Basic Constraints: 
                CA:FALSE
            X509v3 Subject Key Identifier: 
                91:BC:FD:56:CB:31:41:9A:1A:62:2F:B5:EF:83:66:3A:07:9D:E7:40
            X509v3 Authority Key Identifier: 
                keyid:31:4C:D6:2B:DB:CA:CE:AF:7E:5C:4D:4F:51:71:FA:63:FC:ED:2D:D3
                DirName:/CN=team297-net
                serial:27:BC:3E:41:7B:87:1F:7C:3E:C1:60:6A:3B:F5:00:24:A3:A9:C0:74

            X509v3 Extended Key Usage: 
                TLS Web Client Authentication
            X509v3 Key Usage: 
                Digital Signature
    Signature Algorithm: sha256WithRSAEncryption
         01:08:d9:49:7a:56:af:74:1f:50:1a:95:b8:5a:03:c1:29:92:
         c4:13:9f:04:d5:a1:e5:03:1b:9f:f6:44:25:74:12:af:25:be:
         62:97:b5:f1:7b:39:f3:cd:94:c0:a0:76:88:59:89:e2:5c:63:
         c3:c9:07:6d:7d:95:da:2f:bc:14:af:48:81:9b:70:b7:fe:e9:
         60:4d:27:7f:b0:d3:db:36:ae:03:37:09:da:c5:e1:a1:ac:4c:
         52:3e:b6:40:7c:b8:e6:fc:b4:13:75:67:db:95:26:cb:3e:fe:
         24:b7:f8:97:38:0c:c0:68:36:51:6f:9a:d5:1e:17:bf:36:07:
         a0:1d:7d:4a:8e:80:3c:71:8c:e0:d7:65:f7:b0:5d:68:e7:b3:
         1a:ec:39:93:11:a1:dc:49:9e:eb:be:b9:50:ec:61:c4:5c:81:
         00:b4:80:2d:d0:ca:7d:b6:af:ff:a0:68:bc:20:f3:20:e9:03:
         33:28:8b:2d:93:43:d1:0d:16:1c:21:9c:40:2c:2d:72:8b:0e:
         64:bc:bc:76:3c:56:f8:32:a9:2a:1c:0d:cc:fb:76:19:b2:12:
         0c:e8:eb:c9:14:96:8a:ab:a9:17:b9:1d:d1:9d:39:43:ad:94:
         3f:73:ea:b3:31:eb:25:49:37:cc:43:d2:16:18:16:f1:1a:2f:
         57:9f:ac:d7
-----BEGIN CERTIFICATE-----
MIIDXTCCAkWgAwIBAgIRAIE9A2ppUdR3z/lgPKvHg+gwDQYJKoZIhvcNAQELBQAw
FjEUMBIGA1UEAwwLdGVhbTI5Ny1uZXQwHhcNMjEwOTEzMDEyNTQ3WhcNMjQwODI4
MDEyNTQ3WjAZMRcwFQYDVQQDDA50ZWFtMjk3LWNsaWVudDCCASIwDQYJKoZIhvcN
AQEBBQADggEPADCCAQoCggEBALOHh6Ztx+ms98DIskDPFhFGUHNcT5sBd/B5XcbT
qo0UoYV3fhYBuy/wLyt0O6bVK28ke6s9DU5X9YMFvn4cyDJdJezKx8TPUJhgzjW4
9gHxaqn/XoSdSwS+BsJcyQDQr8yKcUzczRKCLb1+vP5Z68/311+fCECMG52UuM8Y
aCsGqGwZYBPy/LgHQB+uyTfZKa5vGBzNVQFZZA+D1xDrE7WQaum5xyPRkYqcPGis
Co64NUVEzhLXXne6DU1bG6hWCyhTYcHmKfVBiiOjGeAET0vN8qOfH5sM29xCSJ/r
vPWqP5YxO24rC7p9JP1+yKvOdom95le6UHWAT6SRFYq7B58CAwEAAaOBojCBnzAJ
BgNVHRMEAjAAMB0GA1UdDgQWBBSRvP1WyzFBmhpiL7Xvg2Y6B53nQDBRBgNVHSME
SjBIgBQxTNYr28rOr35cTU9Rcfpj/O0t06EapBgwFjEUMBIGA1UEAwwLdGVhbTI5
Ny1uZXSCFCe8PkF7hx98PsFgajv1ACSjqcB0MBMGA1UdJQQMMAoGCCsGAQUFBwMC
MAsGA1UdDwQEAwIHgDANBgkqhkiG9w0BAQsFAAOCAQEAAQjZSXpWr3QfUBqVuFoD
wSmSxBOfBNWh5QMbn/ZEJXQSryW+Ype18Xs5882UwKB2iFmJ4lxjw8kHbX2V2i+8
FK9IgZtwt/7pYE0nf7DT2zauAzcJ2sXhoaxMUj62QHy45vy0E3Vn25Umyz7+JLf4
lzgMwGg2UW+a1R4XvzYHoB19So6APHGM4Ndl97BdaOezGuw5kxGh3Eme6765UOxh
xFyBALSALdDKfbav/6BovCDzIOkDMyiLLZND0Q0WHCGcQCwtcosOZLy8djxW+DKp
KhwNzPt2GbISDOjryRSWiqupF7kd0Z05Q62UP3PqszHrJUk3zEPSFhgW8RovV5+s
1w==
-----END CERTIFICATE-----
