Certificate:
    Data:
        Version: 3 (0x2)
        Serial Number:
            bd:18:1f:17:c3:fa:b6:65:89:22:46:3b:ec:38:f7:c5
        Signature Algorithm: sha256WithRSAEncryption
        Issuer: CN=team694-net
        Validity
            Not Before: Sep 13 04:44:58 2021 GMT
            Not After : Aug 28 04:44:58 2024 GMT
        Subject: CN=team694-server
        Subject Public Key Info:
            Public Key Algorithm: rsaEncryption
                RSA Public-Key: (2048 bit)
                Modulus:
                    00:db:b9:d2:75:d3:88:cf:90:d4:1b:c8:93:d1:7e:
                    cf:2b:76:b7:f3:6b:6c:b7:f8:48:5c:0b:17:bc:e8:
                    27:7d:79:28:12:de:cc:45:57:0a:8f:91:4a:b7:6c:
                    4b:38:10:38:64:02:18:f3:a7:59:ba:c6:6f:29:7e:
                    f6:82:94:72:36:cd:96:71:52:00:59:ca:dd:55:96:
                    04:2e:5b:c2:3c:be:42:31:1f:ba:01:10:e8:67:f4:
                    05:5a:8f:e1:c8:a0:b7:b8:c0:55:bf:ed:d6:71:07:
                    a3:73:93:60:92:2a:87:2c:eb:99:20:e2:b3:11:96:
                    56:c9:c0:6c:7e:fb:47:73:6f:6d:ff:6e:9b:9f:e0:
                    a5:51:b0:90:c2:9c:0b:81:56:7e:80:8b:f6:b7:c7:
                    87:00:09:70:cf:7c:5d:22:c2:69:20:52:fa:2a:ff:
                    4f:b7:b2:be:dd:91:54:ce:02:08:b2:b6:56:6e:11:
                    c4:58:35:fd:33:dd:4e:0a:15:c9:25:b4:37:3f:ee:
                    b3:3f:8a:5c:d6:34:d3:9a:b0:26:f4:55:26:9a:32:
                    b7:4c:b7:b0:b9:6d:1c:d7:a9:3d:75:ef:3b:10:27:
                    80:c8:4b:94:1f:3b:31:aa:6c:f3:a8:b4:e2:08:fa:
                    01:83:dc:4f:b3:6e:72:bd:4b:27:6b:92:e3:d5:69:
                    40:21
                Exponent: 65537 (0x10001)
        X509v3 extensions:
            X509v3 Basic Constraints: 
                CA:FALSE
            X509v3 Subject Key Identifier: 
                6C:B7:3A:07:DD:DE:3C:68:D0:5B:22:CB:F3:E8:01:A9:FA:81:80:93
            X509v3 Authority Key Identifier: 
                keyid:D0:C4:BB:73:39:90:FC:6C:4E:A5:55:2E:0D:B6:98:C2:94:C2:83:11
                DirName:/CN=team694-net
                serial:6D:6D:A5:0E:6C:25:10:D6:5B:2B:4E:48:08:7B:68:60:00:41:32:08

            X509v3 Extended Key Usage: 
                TLS Web Server Authentication
            X509v3 Key Usage: 
                Digital Signature, Key Encipherment
            X509v3 Subject Alternative Name: 
                DNS:team694-server
    Signature Algorithm: sha256WithRSAEncryption
         98:b4:bb:2f:17:24:cf:90:84:04:2c:a8:b1:39:85:10:59:0e:
         7f:c0:da:0f:01:e7:ce:fa:bc:3a:00:ae:29:36:42:be:60:09:
         90:9e:db:d6:3d:93:af:59:da:ff:50:67:1d:41:11:c9:f1:71:
         76:f4:6c:e8:e1:c3:db:83:bb:94:3b:8b:fc:34:34:ad:a8:1e:
         aa:1a:fa:f4:e1:d3:01:30:64:18:9f:b2:ab:62:fa:e7:f3:df:
         dc:c1:2e:e4:6d:9d:54:7d:3e:3d:ec:e3:4e:da:71:80:d1:62:
         be:69:78:2c:7d:83:84:fb:9a:a9:2c:66:bb:21:27:13:d6:58:
         70:3b:98:f7:ee:0e:23:81:da:11:28:5a:43:51:b1:d7:05:6f:
         5c:f5:70:26:90:ed:95:3d:14:dc:b5:75:13:d7:6e:bb:d0:e4:
         66:98:7e:7d:5a:ea:ee:50:9f:b4:92:e9:38:3c:27:74:c2:1f:
         f3:1e:59:cf:17:61:52:3f:4e:e7:ce:70:05:b4:48:94:d5:d6:
         b1:ba:87:46:d6:e5:1a:8e:47:34:65:60:e6:95:e6:bc:d9:11:
         50:d1:1b:36:2f:98:7c:a8:14:26:47:34:a3:28:06:1e:c3:52:
         9f:fd:83:0e:00:df:07:53:40:38:b7:39:fd:66:b6:da:d8:79:
         1e:5f:5c:ba
-----BEGIN CERTIFICATE-----
MIIDeDCCAmCgAwIBAgIRAL0YHxfD+rZliSJGO+w498UwDQYJKoZIhvcNAQELBQAw
FjEUMBIGA1UEAwwLdGVhbTY5NC1uZXQwHhcNMjEwOTEzMDQ0NDU4WhcNMjQwODI4
MDQ0NDU4WjAZMRcwFQYDVQQDDA50ZWFtNjk0LXNlcnZlcjCCASIwDQYJKoZIhvcN
AQEBBQADggEPADCCAQoCggEBANu50nXTiM+Q1BvIk9F+zyt2t/NrbLf4SFwLF7zo
J315KBLezEVXCo+RSrdsSzgQOGQCGPOnWbrGbyl+9oKUcjbNlnFSAFnK3VWWBC5b
wjy+QjEfugEQ6Gf0BVqP4cigt7jAVb/t1nEHo3OTYJIqhyzrmSDisxGWVsnAbH77
R3Nvbf9um5/gpVGwkMKcC4FWfoCL9rfHhwAJcM98XSLCaSBS+ir/T7eyvt2RVM4C
CLK2Vm4RxFg1/TPdTgoVySW0Nz/usz+KXNY005qwJvRVJpoyt0y3sLltHNepPXXv
OxAngMhLlB87Maps86i04gj6AYPcT7Nucr1LJ2uS49VpQCECAwEAAaOBvTCBujAJ
BgNVHRMEAjAAMB0GA1UdDgQWBBRstzoH3d48aNBbIsvz6AGp+oGAkzBRBgNVHSME
SjBIgBTQxLtzOZD8bE6lVS4NtpjClMKDEaEapBgwFjEUMBIGA1UEAwwLdGVhbTY5
NC1uZXSCFG1tpQ5sJRDWWytOSAh7aGAAQTIIMBMGA1UdJQQMMAoGCCsGAQUFBwMB
MAsGA1UdDwQEAwIFoDAZBgNVHREEEjAQgg50ZWFtNjk0LXNlcnZlcjANBgkqhkiG
9w0BAQsFAAOCAQEAmLS7Lxckz5CEBCyosTmFEFkOf8DaDwHnzvq8OgCuKTZCvmAJ
kJ7b1j2Tr1na/1BnHUERyfFxdvRs6OHD24O7lDuL/DQ0rageqhr69OHTATBkGJ+y
q2L65/Pf3MEu5G2dVH0+PezjTtpxgNFivml4LH2DhPuaqSxmuyEnE9ZYcDuY9+4O
I4HaEShaQ1Gx1wVvXPVwJpDtlT0U3LV1E9duu9DkZph+fVrq7lCftJLpODwndMIf
8x5ZzxdhUj9O585wBbRIlNXWsbqHRtblGo5HNGVg5pXmvNkRUNEbNi+YfKgUJkc0
oygGHsNSn/2DDgDfB1NAOLc5/Wa22th5Hl9cug==
-----END CERTIFICATE-----
