Certificate:
    Data:
        Version: 3 (0x2)
        Serial Number:
            84:c1:85:b6:ff:5e:24:0f:a5:3a:5a:72:46:3e:4e:3b
        Signature Algorithm: sha256WithRSAEncryption
        Issuer: CN=team353-net
        Validity
            Not Before: Sep 13 01:58:45 2021 GMT
            Not After : Aug 28 01:58:45 2024 GMT
        Subject: CN=team353-client
        Subject Public Key Info:
            Public Key Algorithm: rsaEncryption
                RSA Public-Key: (2048 bit)
                Modulus:
                    00:cd:e2:34:8c:90:8e:77:c5:93:a6:3d:50:39:01:
                    6f:3e:0d:b9:72:a5:4f:17:73:84:4a:c5:6c:d3:4c:
                    ad:fb:c9:b5:d5:64:df:d3:49:4a:81:6e:b6:83:1f:
                    0e:e8:90:50:01:e5:3f:74:43:9b:ca:4c:5c:e2:e1:
                    c9:69:5a:f4:bc:42:66:6d:69:27:57:54:98:9a:b3:
                    8c:4f:11:85:90:8f:95:c4:ea:b3:47:e7:21:2d:c1:
                    43:c0:1e:77:7d:bc:13:c9:c1:30:9f:a2:4b:5c:44:
                    52:84:df:7c:55:7e:8c:1c:94:6a:0c:62:af:2a:60:
                    60:77:e3:55:0f:8c:3a:36:29:c7:eb:6f:44:d6:e6:
                    8e:62:ee:4d:53:df:61:e3:db:41:2f:45:07:aa:6b:
                    44:af:1e:92:4c:16:a4:d5:d7:4f:11:64:fb:43:00:
                    23:d2:40:d8:cb:4c:bb:af:68:f4:40:31:e6:21:f0:
                    99:79:de:0d:7d:f6:39:15:f4:e7:92:00:4d:4a:73:
                    16:c9:44:6c:07:d6:9f:40:5d:ca:77:24:13:75:5c:
                    16:bc:61:c7:8a:6b:66:48:a5:1e:5d:76:33:b7:bf:
                    36:06:1f:cd:f3:56:ba:d2:25:62:be:b8:0c:a9:23:
                    4d:73:70:bc:f4:04:c3:04:90:39:b5:b1:76:a8:bb:
                    8d:9f
                Exponent: 65537 (0x10001)
        X509v3 extensions:
            X509v3 Basic Constraints: 
                CA:FALSE
            X509v3 Subject Key Identifier: 
                D4:F5:08:E0:2B:BE:19:2E:3B:7C:5D:0F:BF:D1:8C:D5:5F:15:7D:0A
            X509v3 Authority Key Identifier: 
                keyid:CD:1D:08:60:33:4C:AD:D2:5B:E5:CD:4C:15:FA:C8:C3:88:57:DB:0B
                DirName:/CN=team353-net
                serial:43:DD:C3:70:45:FE:08:06:05:9B:F8:D4:76:45:D7:87:B4:3B:79:35

            X509v3 Extended Key Usage: 
                TLS Web Client Authentication
            X509v3 Key Usage: 
                Digital Signature
    Signature Algorithm: sha256WithRSAEncryption
         41:39:73:ce:a4:83:9e:a6:9f:08:dc:ba:fe:c4:2c:b4:ed:b1:
         19:c0:b6:5d:4a:bd:f4:19:b5:f2:98:8f:2e:6c:7f:03:99:9d:
         00:52:eb:34:29:f7:39:38:e1:b3:1a:80:c0:8b:11:12:61:a6:
         b4:e3:4b:cf:5e:65:31:ff:68:ee:29:50:97:47:b5:b6:eb:fb:
         bf:09:6a:48:39:74:f8:38:22:15:6b:da:53:96:81:f2:30:1b:
         b9:59:b0:ff:aa:5e:20:66:c3:35:22:54:b2:f1:ae:e0:d7:53:
         81:b1:1c:1d:18:e8:c8:64:d4:b5:68:e0:be:38:54:14:3a:bd:
         d0:78:b9:cf:e8:b1:da:71:34:de:57:55:fb:d3:ed:36:df:b6:
         f4:16:7b:97:ae:bf:7e:8c:2f:1d:cb:ca:21:79:b4:62:87:60:
         09:f8:44:fc:5c:e3:07:1b:e7:5a:f6:34:a1:f8:d2:6f:c5:b9:
         8a:56:8d:38:98:9a:65:04:f5:48:03:bc:66:47:bf:b6:34:5f:
         c5:51:c0:ad:28:37:16:a3:8e:3e:92:5b:3f:42:ed:78:63:d9:
         99:ff:45:bc:c8:2d:34:05:f8:ae:e2:1c:1a:d6:0d:96:77:81:
         7a:a6:3f:c6:74:bc:74:23:d6:17:aa:b1:5d:b7:c3:1c:5f:a7:
         50:52:4d:e3
-----BEGIN CERTIFICATE-----
MIIDXTCCAkWgAwIBAgIRAITBhbb/XiQPpTpackY+TjswDQYJKoZIhvcNAQELBQAw
FjEUMBIGA1UEAwwLdGVhbTM1My1uZXQwHhcNMjEwOTEzMDE1ODQ1WhcNMjQwODI4
MDE1ODQ1WjAZMRcwFQYDVQQDDA50ZWFtMzUzLWNsaWVudDCCASIwDQYJKoZIhvcN
AQEBBQADggEPADCCAQoCggEBAM3iNIyQjnfFk6Y9UDkBbz4NuXKlTxdzhErFbNNM
rfvJtdVk39NJSoFutoMfDuiQUAHlP3RDm8pMXOLhyWla9LxCZm1pJ1dUmJqzjE8R
hZCPlcTqs0fnIS3BQ8Aed328E8nBMJ+iS1xEUoTffFV+jByUagxirypgYHfjVQ+M
OjYpx+tvRNbmjmLuTVPfYePbQS9FB6prRK8ekkwWpNXXTxFk+0MAI9JA2MtMu69o
9EAx5iHwmXneDX32ORX055IATUpzFslEbAfWn0BdynckE3VcFrxhx4prZkilHl12
M7e/NgYfzfNWutIlYr64DKkjTXNwvPQEwwSQObWxdqi7jZ8CAwEAAaOBojCBnzAJ
BgNVHRMEAjAAMB0GA1UdDgQWBBTU9QjgK74ZLjt8XQ+/0YzVXxV9CjBRBgNVHSME
SjBIgBTNHQhgM0yt0lvlzUwV+sjDiFfbC6EapBgwFjEUMBIGA1UEAwwLdGVhbTM1
My1uZXSCFEPdw3BF/ggGBZv41HZF14e0O3k1MBMGA1UdJQQMMAoGCCsGAQUFBwMC
MAsGA1UdDwQEAwIHgDANBgkqhkiG9w0BAQsFAAOCAQEAQTlzzqSDnqafCNy6/sQs
tO2xGcC2XUq99Bm18piPLmx/A5mdAFLrNCn3OTjhsxqAwIsREmGmtONLz15lMf9o
7ilQl0e1tuv7vwlqSDl0+DgiFWvaU5aB8jAbuVmw/6peIGbDNSJUsvGu4NdTgbEc
HRjoyGTUtWjgvjhUFDq90Hi5z+ix2nE03ldV+9PtNt+29BZ7l66/fowvHcvKIXm0
YodgCfhE/FzjBxvnWvY0ofjSb8W5ilaNOJiaZQT1SAO8Zke/tjRfxVHArSg3FqOO
PpJbP0LteGPZmf9FvMgtNAX4ruIcGtYNlneBeqY/xnS8dCPWF6qxXbfDHF+nUFJN
4w==
-----END CERTIFICATE-----
