Certificate:
    Data:
        Version: 3 (0x2)
        Serial Number:
            03:27:56:f1:85:10:3e:2a:e6:50:81:71:f5:5c:79:85
        Signature Algorithm: sha256WithRSAEncryption
        Issuer: CN=team279-net
        Validity
            Not Before: Sep 13 01:12:34 2021 GMT
            Not After : Aug 28 01:12:34 2024 GMT
        Subject: CN=team279-server
        Subject Public Key Info:
            Public Key Algorithm: rsaEncryption
                RSA Public-Key: (2048 bit)
                Modulus:
                    00:b2:41:e6:ba:1c:2e:69:b0:bc:16:4a:70:83:12:
                    eb:3b:a3:8a:18:f2:87:fc:7e:a0:b0:31:a0:7e:fc:
                    91:06:ad:94:44:16:ad:99:d1:dd:e9:cc:f7:06:fd:
                    20:e0:9a:5d:74:47:cd:6a:1e:9c:22:f4:67:4c:c7:
                    ec:8a:67:27:c8:0d:a7:6e:f4:f2:33:49:b7:ec:43:
                    f0:f5:b6:06:c3:34:5f:78:5b:7a:79:fb:b2:77:3d:
                    8c:4e:65:f1:be:a3:be:25:a8:66:29:5b:0f:76:e1:
                    f6:33:f6:27:0b:db:56:59:da:a0:2e:5c:b5:83:4e:
                    78:16:25:ba:1d:3b:f2:32:59:17:09:2b:7b:a4:3d:
                    dc:c8:12:ec:85:1c:1d:51:a4:b1:5d:9e:a2:9e:d7:
                    b2:55:15:88:96:9b:93:85:ab:35:13:01:e5:02:f3:
                    5b:cb:5a:11:99:c9:f2:5e:d0:59:ab:5d:06:37:82:
                    b7:9c:4a:20:05:f7:89:05:3a:76:db:ad:0c:16:e4:
                    d0:fc:1f:61:fe:53:c5:57:04:91:d1:56:ca:48:80:
                    65:14:6b:ad:bb:31:11:56:62:48:e2:fe:b4:97:a2:
                    c4:ca:79:1b:be:4a:56:f5:0e:ef:0a:a0:35:c0:1b:
                    ac:90:10:52:72:23:08:a3:aa:10:4c:ba:c5:75:35:
                    92:b1
                Exponent: 65537 (0x10001)
        X509v3 extensions:
            X509v3 Basic Constraints: 
                CA:FALSE
            X509v3 Subject Key Identifier: 
                9E:C1:78:80:D2:1C:EC:4D:9D:17:FE:FF:77:1A:54:F8:B2:BB:47:73
            X509v3 Authority Key Identifier: 
                keyid:8F:77:48:D4:66:D9:ED:1A:81:5B:68:84:BB:5A:60:DE:11:73:FA:5A
                DirName:/CN=team279-net
                serial:54:6C:FB:C4:60:CC:DA:F9:3B:FA:A1:7F:F5:D7:A1:07:04:0C:CE:FB

            X509v3 Extended Key Usage: 
                TLS Web Server Authentication
            X509v3 Key Usage: 
                Digital Signature, Key Encipherment
            X509v3 Subject Alternative Name: 
                DNS:team279-server
    Signature Algorithm: sha256WithRSAEncryption
         ae:27:db:63:7c:4a:94:1c:5d:54:82:a3:1e:78:ab:8b:f5:52:
         1e:b5:14:e1:20:16:47:e8:10:0a:da:96:a2:1e:78:2b:76:f1:
         29:a6:89:f5:65:e4:81:fc:d6:0b:69:de:18:83:c8:50:e6:9b:
         a4:83:cc:98:53:45:89:d3:22:9f:84:75:e0:07:b1:bf:32:f0:
         d2:b2:9e:da:c7:0b:7e:48:63:4d:bb:3e:82:60:40:d5:b0:29:
         5b:e7:32:6f:d1:50:ab:34:fe:40:f5:a7:74:ba:f9:3c:52:e7:
         bb:c2:3a:34:7c:50:84:35:62:18:fe:46:d0:34:49:10:01:0d:
         42:8f:0a:29:84:46:a3:ef:36:08:82:19:2c:04:07:62:d5:d6:
         a7:a8:72:c4:0e:eb:70:e4:b0:af:9a:32:cd:de:61:29:a9:a6:
         1f:ad:d5:45:f5:98:a9:4b:c8:64:66:46:35:b5:16:f5:7f:ab:
         a1:37:00:01:c9:ba:6f:eb:90:21:fa:cb:4f:89:f0:85:68:64:
         97:d7:2a:f7:aa:88:5a:6f:00:47:a1:65:e0:b4:51:92:e1:57:
         ae:3d:63:1a:45:57:a8:53:68:ae:64:8e:5a:00:28:e1:1d:6b:
         55:4e:fe:b3:e8:ed:c0:fa:65:91:81:99:fa:42:04:c9:fa:0f:
         3f:8f:0a:e7
-----BEGIN CERTIFICATE-----
MIIDdzCCAl+gAwIBAgIQAydW8YUQPirmUIFx9Vx5hTANBgkqhkiG9w0BAQsFADAW
MRQwEgYDVQQDDAt0ZWFtMjc5LW5ldDAeFw0yMTA5MTMwMTEyMzRaFw0yNDA4Mjgw
MTEyMzRaMBkxFzAVBgNVBAMMDnRlYW0yNzktc2VydmVyMIIBIjANBgkqhkiG9w0B
AQEFAAOCAQ8AMIIBCgKCAQEAskHmuhwuabC8FkpwgxLrO6OKGPKH/H6gsDGgfvyR
Bq2URBatmdHd6cz3Bv0g4JpddEfNah6cIvRnTMfsimcnyA2nbvTyM0m37EPw9bYG
wzRfeFt6efuydz2MTmXxvqO+JahmKVsPduH2M/YnC9tWWdqgLly1g054FiW6HTvy
MlkXCSt7pD3cyBLshRwdUaSxXZ6inteyVRWIlpuThas1EwHlAvNby1oRmcnyXtBZ
q10GN4K3nEogBfeJBTp2260MFuTQ/B9h/lPFVwSR0VbKSIBlFGutuzERVmJI4v60
l6LEynkbvkpW9Q7vCqA1wBuskBBSciMIo6oQTLrFdTWSsQIDAQABo4G9MIG6MAkG
A1UdEwQCMAAwHQYDVR0OBBYEFJ7BeIDSHOxNnRf+/3caVPiyu0dzMFEGA1UdIwRK
MEiAFI93SNRm2e0agVtohLtaYN4Rc/paoRqkGDAWMRQwEgYDVQQDDAt0ZWFtMjc5
LW5ldIIUVGz7xGDM2vk7+qF/9dehBwQMzvswEwYDVR0lBAwwCgYIKwYBBQUHAwEw
CwYDVR0PBAQDAgWgMBkGA1UdEQQSMBCCDnRlYW0yNzktc2VydmVyMA0GCSqGSIb3
DQEBCwUAA4IBAQCuJ9tjfEqUHF1UgqMeeKuL9VIetRThIBZH6BAK2paiHngrdvEp
pon1ZeSB/NYLad4Yg8hQ5pukg8yYU0WJ0yKfhHXgB7G/MvDSsp7axwt+SGNNuz6C
YEDVsClb5zJv0VCrNP5A9ad0uvk8Uue7wjo0fFCENWIY/kbQNEkQAQ1CjwophEaj
7zYIghksBAdi1danqHLEDutw5LCvmjLN3mEpqaYfrdVF9ZipS8hkZkY1tRb1f6uh
NwABybpv65Ah+stPifCFaGSX1yr3qohabwBHoWXgtFGS4VeuPWMaRVeoU2iuZI5a
ACjhHWtVTv6z6O3A+mWRgZn6QgTJ+g8/jwrn
-----END CERTIFICATE-----
