Certificate:
    Data:
        Version: 3 (0x2)
        Serial Number:
            59:df:85:ec:93:d6:d6:63:20:ce:79:51:c6:fe:4f:0f
        Signature Algorithm: sha256WithRSAEncryption
        Issuer: CN=team309-net
        Validity
            Not Before: Sep 13 01:34:04 2021 GMT
            Not After : Aug 28 01:34:04 2024 GMT
        Subject: CN=team309-server
        Subject Public Key Info:
            Public Key Algorithm: rsaEncryption
                RSA Public-Key: (2048 bit)
                Modulus:
                    00:b8:80:ed:93:20:c5:ae:3e:48:99:49:1e:1e:b9:
                    9a:89:a5:67:07:7a:e5:1a:9c:fb:5e:05:e6:62:b9:
                    18:b1:4f:1c:ea:84:85:d2:ea:db:e4:2a:bc:93:86:
                    0d:b6:ad:be:2e:21:b2:d7:82:26:e9:91:bd:4c:4d:
                    20:5f:45:fa:cc:62:0f:ca:d3:7e:70:59:cc:92:e5:
                    c0:f9:66:db:4e:29:c0:c2:95:d3:72:98:76:e0:d8:
                    6e:b0:74:ac:dd:ef:1a:2a:2b:8e:be:b2:45:dd:1a:
                    78:3a:f5:b3:bc:cc:ef:ac:6a:ab:b9:fa:6f:61:a1:
                    6d:98:af:aa:5a:91:65:5d:e6:a7:1d:9c:23:32:22:
                    89:0a:0f:2a:4c:f4:8f:45:47:ea:3e:4b:5d:58:17:
                    88:a2:b0:9d:22:35:89:c3:df:08:5b:90:b1:aa:c4:
                    da:3a:e6:6d:2d:9f:9d:24:bb:2d:e2:53:47:3c:66:
                    78:3a:1c:9b:b7:cc:3b:41:6e:f0:bb:a6:14:7b:1a:
                    26:6c:65:30:1e:56:c5:47:7d:ee:51:61:1a:0d:4a:
                    9b:c6:44:fa:71:c4:4e:2d:f8:07:41:c7:ca:54:e7:
                    d9:51:9d:63:79:28:28:7b:93:5b:a6:e9:f4:28:b5:
                    b0:af:22:b3:8f:f4:0a:ae:0c:21:c8:8a:ea:7c:74:
                    9b:c3
                Exponent: 65537 (0x10001)
        X509v3 extensions:
            X509v3 Basic Constraints: 
                CA:FALSE
            X509v3 Subject Key Identifier: 
                15:6A:15:8A:0B:AC:FC:BB:3C:EA:CE:51:09:10:3A:2C:74:E3:4F:2F
            X509v3 Authority Key Identifier: 
                keyid:84:B2:9C:C2:67:74:E6:DF:03:46:32:6D:38:BE:D8:70:0B:FB:34:BD
                DirName:/CN=team309-net
                serial:3D:A0:56:F6:17:AA:C6:43:94:C8:E8:41:B5:81:35:90:E0:24:1F:F8

            X509v3 Extended Key Usage: 
                TLS Web Server Authentication
            X509v3 Key Usage: 
                Digital Signature, Key Encipherment
            X509v3 Subject Alternative Name: 
                DNS:team309-server
    Signature Algorithm: sha256WithRSAEncryption
         df:42:c7:c6:bb:df:24:39:52:c3:21:ee:69:97:c7:32:bd:96:
         d8:f1:5d:ab:ff:7d:76:2a:7a:34:93:58:df:b8:8d:21:03:a9:
         13:52:14:05:f9:41:a5:db:6e:d4:a2:bd:7a:58:c7:9f:f0:c6:
         08:9f:39:a8:19:b5:eb:31:00:2d:45:21:89:52:31:0e:21:f0:
         77:f2:ae:90:3d:4e:4b:98:1f:8b:9c:f0:20:a8:8a:46:1c:74:
         a7:42:9b:3e:2a:1b:c2:d9:96:fe:64:57:7e:c0:07:5f:cf:0a:
         ec:4a:b4:d8:85:e3:5f:09:4e:4f:cd:c8:6e:7f:6e:15:96:3b:
         14:cf:5c:ff:1c:06:ab:44:80:2d:87:f2:89:c9:3a:63:e2:dc:
         75:f2:32:8d:5b:12:cb:58:8a:27:d1:38:2b:e0:dc:ce:23:82:
         fc:b2:48:72:a3:ac:8d:a0:ad:e0:d1:ee:83:a3:86:7d:dd:91:
         bd:47:cc:68:4d:4a:09:8d:8b:96:b2:a7:c7:a0:21:56:74:0d:
         77:f0:7e:fc:d9:71:81:66:61:5d:b5:b3:79:59:f5:36:43:27:
         42:7d:fe:e3:b1:a2:b8:ad:f4:38:37:a4:1f:42:59:1f:a9:05:
         a5:96:39:40:44:a3:d5:17:8d:6d:b4:c7:c8:3c:05:e1:1d:7b:
         d1:f2:16:50
-----BEGIN CERTIFICATE-----
MIIDdzCCAl+gAwIBAgIQWd+F7JPW1mMgznlRxv5PDzANBgkqhkiG9w0BAQsFADAW
MRQwEgYDVQQDDAt0ZWFtMzA5LW5ldDAeFw0yMTA5MTMwMTM0MDRaFw0yNDA4Mjgw
MTM0MDRaMBkxFzAVBgNVBAMMDnRlYW0zMDktc2VydmVyMIIBIjANBgkqhkiG9w0B
AQEFAAOCAQ8AMIIBCgKCAQEAuIDtkyDFrj5ImUkeHrmaiaVnB3rlGpz7XgXmYrkY
sU8c6oSF0urb5Cq8k4YNtq2+LiGy14Im6ZG9TE0gX0X6zGIPytN+cFnMkuXA+Wbb
TinAwpXTcph24NhusHSs3e8aKiuOvrJF3Rp4OvWzvMzvrGqrufpvYaFtmK+qWpFl
XeanHZwjMiKJCg8qTPSPRUfqPktdWBeIorCdIjWJw98IW5CxqsTaOuZtLZ+dJLst
4lNHPGZ4Ohybt8w7QW7wu6YUexombGUwHlbFR33uUWEaDUqbxkT6ccROLfgHQcfK
VOfZUZ1jeSgoe5Nbpun0KLWwryKzj/QKrgwhyIrqfHSbwwIDAQABo4G9MIG6MAkG
A1UdEwQCMAAwHQYDVR0OBBYEFBVqFYoLrPy7POrOUQkQOix0408vMFEGA1UdIwRK
MEiAFISynMJndObfA0YybTi+2HAL+zS9oRqkGDAWMRQwEgYDVQQDDAt0ZWFtMzA5
LW5ldIIUPaBW9heqxkOUyOhBtYE1kOAkH/gwEwYDVR0lBAwwCgYIKwYBBQUHAwEw
CwYDVR0PBAQDAgWgMBkGA1UdEQQSMBCCDnRlYW0zMDktc2VydmVyMA0GCSqGSIb3
DQEBCwUAA4IBAQDfQsfGu98kOVLDIe5pl8cyvZbY8V2r/312Kno0k1jfuI0hA6kT
UhQF+UGl227Uor16WMef8MYInzmoGbXrMQAtRSGJUjEOIfB38q6QPU5LmB+LnPAg
qIpGHHSnQps+KhvC2Zb+ZFd+wAdfzwrsSrTYheNfCU5Pzchuf24VljsUz1z/HAar
RIAth/KJyTpj4tx18jKNWxLLWIon0Tgr4NzOI4L8skhyo6yNoK3g0e6Do4Z93ZG9
R8xoTUoJjYuWsqfHoCFWdA138H782XGBZmFdtbN5WfU2QydCff7jsaK4rfQ4N6Qf
QlkfqQWlljlARKPVF41ttMfIPAXhHXvR8hZQ
-----END CERTIFICATE-----
