Certificate:
    Data:
        Version: 3 (0x2)
        Serial Number:
            d5:9d:00:93:c9:1c:55:64:07:21:59:ca:fd:4b:9f:ee
        Signature Algorithm: sha256WithRSAEncryption
        Issuer: CN=team458-net
        Validity
            Not Before: Sep 13 02:46:29 2021 GMT
            Not After : Aug 28 02:46:29 2024 GMT
        Subject: CN=team458-server
        Subject Public Key Info:
            Public Key Algorithm: rsaEncryption
                RSA Public-Key: (2048 bit)
                Modulus:
                    00:d1:00:ca:dd:be:5e:39:70:37:53:44:1e:76:d7:
                    fe:c4:6d:06:2f:39:4a:26:b5:8d:43:d3:76:8b:29:
                    74:38:72:bd:1e:cd:d6:e5:ca:e4:63:81:0b:22:f1:
                    31:10:62:bf:79:d0:96:fc:ea:98:db:5f:6b:69:69:
                    07:90:32:10:5e:61:2a:06:13:56:f7:3b:87:3b:9e:
                    1d:3f:a0:bd:69:21:a9:dd:88:d5:2d:5b:2e:0a:aa:
                    cc:66:f3:51:7a:b1:a9:f7:a7:c0:01:5c:f2:3f:3c:
                    a5:a1:9b:a8:f3:e7:96:b7:bd:ee:e1:e2:1b:4d:52:
                    00:27:ca:30:94:70:8d:bf:cc:12:38:30:ee:0f:6e:
                    51:d1:fd:44:f1:04:10:c9:b6:fe:75:fa:3e:af:81:
                    44:58:1a:91:2a:54:84:f5:ea:fb:6a:18:05:27:39:
                    4f:7c:2f:8e:9e:01:56:0b:06:9e:ab:77:b6:32:25:
                    d0:d6:85:2a:7d:eb:25:f9:8b:9f:47:3f:a1:ec:81:
                    3f:a0:bc:23:63:ca:ee:4f:29:1e:bd:b2:a0:94:19:
                    85:9b:f4:4c:cd:4e:ec:46:d0:b5:bd:de:81:2b:44:
                    1c:1e:91:a5:f5:13:fd:f5:93:18:69:20:79:bf:0a:
                    09:cd:6b:e9:81:79:06:40:8d:87:4e:57:2b:5f:1f:
                    d4:e3
                Exponent: 65537 (0x10001)
        X509v3 extensions:
            X509v3 Basic Constraints: 
                CA:FALSE
            X509v3 Subject Key Identifier: 
                FC:A7:32:EE:9D:E6:C8:94:02:3D:06:34:09:30:96:EB:59:B3:5A:B2
            X509v3 Authority Key Identifier: 
                keyid:73:29:32:3C:04:85:05:45:39:C8:BD:60:8D:79:72:1D:13:B3:F5:DB
                DirName:/CN=team458-net
                serial:55:20:4D:C4:10:88:64:54:AD:46:F6:03:21:71:3B:B1:F5:2F:EC:E2

            X509v3 Extended Key Usage: 
                TLS Web Server Authentication
            X509v3 Key Usage: 
                Digital Signature, Key Encipherment
            X509v3 Subject Alternative Name: 
                DNS:team458-server
    Signature Algorithm: sha256WithRSAEncryption
         97:1b:b0:44:8c:7a:e1:70:73:6e:b1:79:ad:c4:6b:a6:51:cb:
         97:e4:33:5e:9f:1f:88:67:a4:31:84:e5:22:e4:29:90:0f:c4:
         9d:ea:7e:0e:81:1e:dc:5b:7c:9f:43:11:2f:80:2c:34:5d:0c:
         ae:87:38:01:39:44:67:f2:f7:4e:8c:f3:db:65:e9:cc:d4:55:
         56:76:5d:d4:31:53:99:e7:0c:bf:a8:0b:af:d5:67:92:4a:1d:
         a5:ea:03:7c:b7:ca:42:77:1a:3a:e4:eb:af:80:47:d4:ae:b3:
         40:8a:f4:f6:92:96:e7:2d:83:f3:62:7c:be:82:b8:ef:73:16:
         11:46:f2:f2:14:b6:31:eb:fe:f3:31:94:70:ae:11:75:21:fc:
         89:fb:a9:81:7f:50:8e:c6:82:ee:3a:66:ba:ee:16:82:9d:d9:
         33:52:1f:6e:b0:35:db:74:91:0b:84:be:d9:72:b2:35:54:83:
         4f:93:ee:bb:c1:cc:90:a7:ca:91:d3:50:39:e7:83:46:db:c6:
         15:d2:e8:ec:3d:c3:6e:a7:5e:93:a0:85:1b:96:11:d7:ab:ef:
         16:f5:2b:c1:2d:a7:bb:e6:72:25:9f:cb:51:ba:d6:b4:96:50:
         e7:bf:4f:6d:47:4b:8e:4c:b4:e8:0b:f9:a2:a2:0b:1c:4b:10:
         c2:e7:2a:38
-----BEGIN CERTIFICATE-----
MIIDeDCCAmCgAwIBAgIRANWdAJPJHFVkByFZyv1Ln+4wDQYJKoZIhvcNAQELBQAw
FjEUMBIGA1UEAwwLdGVhbTQ1OC1uZXQwHhcNMjEwOTEzMDI0NjI5WhcNMjQwODI4
MDI0NjI5WjAZMRcwFQYDVQQDDA50ZWFtNDU4LXNlcnZlcjCCASIwDQYJKoZIhvcN
AQEBBQADggEPADCCAQoCggEBANEAyt2+XjlwN1NEHnbX/sRtBi85Sia1jUPTdosp
dDhyvR7N1uXK5GOBCyLxMRBiv3nQlvzqmNtfa2lpB5AyEF5hKgYTVvc7hzueHT+g
vWkhqd2I1S1bLgqqzGbzUXqxqfenwAFc8j88paGbqPPnlre97uHiG01SACfKMJRw
jb/MEjgw7g9uUdH9RPEEEMm2/nX6Pq+BRFgakSpUhPXq+2oYBSc5T3wvjp4BVgsG
nqt3tjIl0NaFKn3rJfmLn0c/oeyBP6C8I2PK7k8pHr2yoJQZhZv0TM1O7EbQtb3e
gStEHB6RpfUT/fWTGGkgeb8KCc1r6YF5BkCNh05XK18f1OMCAwEAAaOBvTCBujAJ
BgNVHRMEAjAAMB0GA1UdDgQWBBT8pzLunebIlAI9BjQJMJbrWbNasjBRBgNVHSME
SjBIgBRzKTI8BIUFRTnIvWCNeXIdE7P126EapBgwFjEUMBIGA1UEAwwLdGVhbTQ1
OC1uZXSCFFUgTcQQiGRUrUb2AyFxO7H1L+ziMBMGA1UdJQQMMAoGCCsGAQUFBwMB
MAsGA1UdDwQEAwIFoDAZBgNVHREEEjAQgg50ZWFtNDU4LXNlcnZlcjANBgkqhkiG
9w0BAQsFAAOCAQEAlxuwRIx64XBzbrF5rcRrplHLl+QzXp8fiGekMYTlIuQpkA/E
nep+DoEe3Ft8n0MRL4AsNF0Mroc4ATlEZ/L3Tozz22XpzNRVVnZd1DFTmecMv6gL
r9VnkkodpeoDfLfKQncaOuTrr4BH1K6zQIr09pKW5y2D82J8voK473MWEUby8hS2
Mev+8zGUcK4RdSH8ifupgX9QjsaC7jpmuu4Wgp3ZM1IfbrA123SRC4S+2XKyNVSD
T5Puu8HMkKfKkdNQOeeDRtvGFdLo7D3Dbqdek6CFG5YR16vvFvUrwS2nu+ZyJZ/L
UbrWtJZQ579PbUdLjky06Av5oqILHEsQwucqOA==
-----END CERTIFICATE-----
