Certificate:
    Data:
        Version: 3 (0x2)
        Serial Number:
            f7:b3:6d:9c:2d:2a:98:b9:ca:3c:9a:eb:48:31:f3:5d
        Signature Algorithm: sha256WithRSAEncryption
        Issuer: CN=team5-net
        Validity
            Not Before: Sep 12 22:42:28 2021 GMT
            Not After : Aug 27 22:42:28 2024 GMT
        Subject: CN=team5-server
        Subject Public Key Info:
            Public Key Algorithm: rsaEncryption
                RSA Public-Key: (2048 bit)
                Modulus:
                    00:a4:21:33:87:2d:c0:aa:ee:48:93:d0:f2:90:11:
                    56:52:21:09:a7:7c:39:fd:40:ef:92:2a:17:41:39:
                    80:ad:05:65:01:65:aa:38:20:2e:88:12:36:d1:ba:
                    42:c6:a2:58:f2:c8:41:a4:0d:18:3d:7a:7b:28:e5:
                    ab:71:54:21:98:35:63:ad:8a:39:e9:9d:62:37:aa:
                    d2:9f:5a:95:90:0c:86:3e:dc:ad:50:b2:85:37:1a:
                    39:20:21:14:5f:de:45:23:22:2b:4d:af:f7:bc:7a:
                    60:79:41:10:01:a1:7c:a3:d6:2c:41:d4:d2:d7:1f:
                    ac:fe:34:6f:fa:a1:15:14:09:2f:5b:be:3e:ee:a8:
                    fe:03:86:13:cb:8d:33:7b:2d:27:0e:01:01:99:6e:
                    7d:43:51:26:5b:2d:26:e7:2a:6f:ad:f4:94:bf:5b:
                    76:11:af:bc:ea:c4:08:bc:a2:65:4a:ea:00:9c:d2:
                    b0:b4:66:70:de:2d:f6:50:a6:39:60:02:ac:70:84:
                    54:b2:be:b5:51:de:bc:6a:b9:2f:51:65:0c:60:e2:
                    b7:b3:5b:05:10:2e:ba:14:ef:df:75:fd:2b:fd:19:
                    ce:c0:73:80:17:52:c6:4f:20:11:75:80:4a:a3:b9:
                    bd:5f:67:f7:5e:03:b6:83:f0:1a:54:c8:9e:1f:8b:
                    4b:71
                Exponent: 65537 (0x10001)
        X509v3 extensions:
            X509v3 Basic Constraints: 
                CA:FALSE
            X509v3 Subject Key Identifier: 
                13:16:EF:78:0D:F4:D3:2F:26:F2:79:10:61:5F:7D:1D:35:98:B9:CB
            X509v3 Authority Key Identifier: 
                keyid:63:B1:8D:67:9F:56:B9:78:7C:64:DB:33:5B:79:B9:06:81:5B:B9:3C
                DirName:/CN=team5-net
                serial:2C:8B:81:3B:8D:8A:80:3E:B1:A4:0C:B3:CF:31:3C:82:0A:8C:D5:48

            X509v3 Extended Key Usage: 
                TLS Web Server Authentication
            X509v3 Key Usage: 
                Digital Signature, Key Encipherment
            X509v3 Subject Alternative Name: 
                DNS:team5-server
    Signature Algorithm: sha256WithRSAEncryption
         33:bc:ea:f6:cb:52:b6:a3:8b:80:cc:df:ce:9b:3d:e8:68:0b:
         2a:54:a3:da:06:fc:a2:26:46:0e:ea:1a:76:29:6b:54:85:97:
         4c:54:33:9d:29:80:8d:36:8a:08:3b:26:b5:f6:ec:40:fb:fb:
         7c:a2:e3:b0:e9:98:64:90:16:55:0d:e4:08:2e:a3:aa:26:a1:
         c1:33:ff:40:83:e4:31:f2:a6:24:ca:dc:d2:19:6b:f8:69:90:
         1d:c9:7b:fa:d9:da:ee:34:fd:4b:5a:fc:88:b2:01:b7:c3:f1:
         31:0c:b7:d3:a7:46:90:85:a6:68:4c:62:da:b7:de:89:81:b6:
         87:87:d0:5b:0e:c3:bd:4f:c7:d3:95:92:ad:fa:fa:02:df:5c:
         e0:a8:68:d3:da:a6:95:9b:03:6b:14:59:85:bd:47:67:d7:34:
         5b:b1:0a:34:71:28:85:79:55:27:b9:a6:00:e6:92:60:84:b7:
         0a:b4:36:96:a6:b5:11:ce:81:31:fd:d1:73:79:36:04:0c:ef:
         8d:d7:74:b6:84:e8:80:a8:55:c2:a1:09:fc:84:54:ad:e5:c2:
         09:30:55:fc:81:72:48:25:52:76:bd:b3:6c:d6:8d:4d:39:03:
         6b:34:dc:32:90:0c:4d:0b:f8:fa:c5:00:bb:a0:39:67:57:60:
         34:d9:df:e4
-----BEGIN CERTIFICATE-----
MIIDcDCCAligAwIBAgIRAPezbZwtKpi5yjya60gx810wDQYJKoZIhvcNAQELBQAw
FDESMBAGA1UEAwwJdGVhbTUtbmV0MB4XDTIxMDkxMjIyNDIyOFoXDTI0MDgyNzIy
NDIyOFowFzEVMBMGA1UEAwwMdGVhbTUtc2VydmVyMIIBIjANBgkqhkiG9w0BAQEF
AAOCAQ8AMIIBCgKCAQEApCEzhy3Aqu5Ik9DykBFWUiEJp3w5/UDvkioXQTmArQVl
AWWqOCAuiBI20bpCxqJY8shBpA0YPXp7KOWrcVQhmDVjrYo56Z1iN6rSn1qVkAyG
PtytULKFNxo5ICEUX95FIyIrTa/3vHpgeUEQAaF8o9YsQdTS1x+s/jRv+qEVFAkv
W74+7qj+A4YTy40zey0nDgEBmW59Q1EmWy0m5ypvrfSUv1t2Ea+86sQIvKJlSuoA
nNKwtGZw3i32UKY5YAKscIRUsr61Ud68arkvUWUMYOK3s1sFEC66FO/fdf0r/RnO
wHOAF1LGTyARdYBKo7m9X2f3XgO2g/AaVMieH4tLcQIDAQABo4G5MIG2MAkGA1Ud
EwQCMAAwHQYDVR0OBBYEFBMW73gN9NMvJvJ5EGFffR01mLnLME8GA1UdIwRIMEaA
FGOxjWefVrl4fGTbM1t5uQaBW7k8oRikFjAUMRIwEAYDVQQDDAl0ZWFtNS1uZXSC
FCyLgTuNioA+saQMs88xPIIKjNVIMBMGA1UdJQQMMAoGCCsGAQUFBwMBMAsGA1Ud
DwQEAwIFoDAXBgNVHREEEDAOggx0ZWFtNS1zZXJ2ZXIwDQYJKoZIhvcNAQELBQAD
ggEBADO86vbLUraji4DM386bPehoCypUo9oG/KImRg7qGnYpa1SFl0xUM50pgI02
igg7JrX27ED7+3yi47DpmGSQFlUN5Aguo6omocEz/0CD5DHypiTK3NIZa/hpkB3J
e/rZ2u40/Uta/IiyAbfD8TEMt9OnRpCFpmhMYtq33omBtoeH0FsOw71Px9OVkq36
+gLfXOCoaNPappWbA2sUWYW9R2fXNFuxCjRxKIV5VSe5pgDmkmCEtwq0NpamtRHO
gTH90XN5NgQM743XdLaE6ICoVcKhCfyEVK3lwgkwVfyBckglUna9s2zWjU05A2s0
3DKQDE0L+PrFALugOWdXYDTZ3+Q=
-----END CERTIFICATE-----
