Certificate:
    Data:
        Version: 3 (0x2)
        Serial Number:
            7b:05:38:12:53:2c:f0:80:62:65:a4:7c:1c:96:4e:03
        Signature Algorithm: sha256WithRSAEncryption
        Issuer: CN=team747-net
        Validity
            Not Before: Sep 13 05:10:21 2021 GMT
            Not After : Aug 28 05:10:21 2024 GMT
        Subject: CN=team747-client
        Subject Public Key Info:
            Public Key Algorithm: rsaEncryption
                RSA Public-Key: (2048 bit)
                Modulus:
                    00:a6:2e:c4:bb:f5:b8:da:0a:0e:85:35:41:91:53:
                    ff:a2:ac:49:73:ba:98:b9:e6:55:c0:55:e9:d7:87:
                    82:09:29:4a:82:8a:79:2f:00:48:91:34:d8:b4:bc:
                    2f:58:7e:a4:ba:ac:84:06:c5:01:35:93:a2:e1:f1:
                    c7:b8:66:c2:29:0e:92:5d:ed:aa:46:04:cc:cf:03:
                    ff:8e:f9:e3:39:1e:a4:86:9c:17:7c:49:ff:ec:1d:
                    ee:94:c3:34:b7:14:56:18:03:11:b6:34:08:cf:ab:
                    f5:2a:20:5b:a5:6f:79:74:47:57:88:43:3c:f8:87:
                    c4:91:23:c7:b6:b7:f5:2b:f6:a2:0e:a3:41:8e:0a:
                    d6:4e:f8:c5:37:8b:b4:56:75:a0:d3:51:2c:53:33:
                    30:a6:65:24:d7:26:af:e1:aa:e7:81:69:1f:41:f0:
                    dc:34:ed:1e:0e:eb:45:f9:1e:10:34:6d:01:38:c3:
                    1e:72:6a:a4:5e:99:6d:da:14:73:62:8c:7b:6e:9d:
                    37:6c:41:1a:5a:3f:d7:0f:8e:0b:46:75:59:c1:95:
                    73:48:65:8a:5a:b6:d6:1f:a8:82:41:07:b1:d4:65:
                    1f:d8:5f:9a:59:92:5f:4e:ed:f4:d4:5b:7a:fa:1c:
                    ab:ed:dd:08:1e:f4:99:c6:5b:b6:61:ca:44:d5:30:
                    21:e9
                Exponent: 65537 (0x10001)
        X509v3 extensions:
            X509v3 Basic Constraints: 
                CA:FALSE
            X509v3 Subject Key Identifier: 
                C4:D2:D1:6D:C7:0D:9C:44:63:C5:F8:E0:B2:2E:65:CB:BE:D0:1A:F4
            X509v3 Authority Key Identifier: 
                keyid:A9:B9:A7:BE:90:73:84:FF:7E:73:B7:D6:33:69:E2:8B:7E:61:9A:48
                DirName:/CN=team747-net
                serial:40:F8:07:1E:09:14:35:E4:0F:D4:21:60:10:8E:70:D3:BA:65:8D:82

            X509v3 Extended Key Usage: 
                TLS Web Client Authentication
            X509v3 Key Usage: 
                Digital Signature
    Signature Algorithm: sha256WithRSAEncryption
         69:97:26:45:d6:3b:71:c5:42:27:bc:7f:61:a0:23:6e:82:e3:
         10:1b:40:41:2d:fe:89:85:48:fe:c8:26:9b:bb:1d:64:f9:e8:
         4e:61:bc:74:3d:9d:2b:b0:20:ca:94:2d:89:3e:50:1d:a5:a1:
         c3:b8:1f:c5:b2:26:16:bb:e5:4c:ec:76:16:92:ef:2c:cf:13:
         90:f9:c1:7e:7a:52:b1:91:7f:f9:bd:97:be:ac:2f:34:be:aa:
         c9:64:7d:49:6b:a1:5d:3e:c1:50:60:1a:09:81:2c:cf:60:af:
         bf:60:01:0a:9f:43:ba:65:c6:75:5e:57:9e:c7:9c:fa:fb:9b:
         44:4d:94:9a:af:a2:0a:9c:fd:98:c6:06:b9:ea:58:15:db:68:
         ec:fe:f9:79:d0:a9:2a:e6:74:66:80:92:76:f7:ed:13:1c:e0:
         f6:cc:7f:13:e3:6d:2f:e3:70:b3:eb:1d:30:59:e7:10:ce:48:
         e3:1b:55:b4:82:2f:e0:c3:42:9a:a9:82:00:0b:5c:8b:bb:9c:
         53:e4:cf:4f:1d:11:89:c1:30:2d:6c:48:91:2e:c2:7a:3c:a5:
         ba:c4:cb:99:77:da:c0:21:c3:08:c8:a4:01:03:70:b0:95:1c:
         bd:d1:9c:32:11:4d:71:b6:f2:ad:e1:1b:4f:fd:bc:1e:c2:29:
         88:60:33:f1
-----BEGIN CERTIFICATE-----
MIIDXDCCAkSgAwIBAgIQewU4ElMs8IBiZaR8HJZOAzANBgkqhkiG9w0BAQsFADAW
MRQwEgYDVQQDDAt0ZWFtNzQ3LW5ldDAeFw0yMTA5MTMwNTEwMjFaFw0yNDA4Mjgw
NTEwMjFaMBkxFzAVBgNVBAMMDnRlYW03NDctY2xpZW50MIIBIjANBgkqhkiG9w0B
AQEFAAOCAQ8AMIIBCgKCAQEApi7Eu/W42goOhTVBkVP/oqxJc7qYueZVwFXp14eC
CSlKgop5LwBIkTTYtLwvWH6kuqyEBsUBNZOi4fHHuGbCKQ6SXe2qRgTMzwP/jvnj
OR6khpwXfEn/7B3ulMM0txRWGAMRtjQIz6v1KiBbpW95dEdXiEM8+IfEkSPHtrf1
K/aiDqNBjgrWTvjFN4u0VnWg01EsUzMwpmUk1yav4arngWkfQfDcNO0eDutF+R4Q
NG0BOMMecmqkXplt2hRzYox7bp03bEEaWj/XD44LRnVZwZVzSGWKWrbWH6iCQQex
1GUf2F+aWZJfTu301Ft6+hyr7d0IHvSZxlu2YcpE1TAh6QIDAQABo4GiMIGfMAkG
A1UdEwQCMAAwHQYDVR0OBBYEFMTS0W3HDZxEY8X44LIuZcu+0Br0MFEGA1UdIwRK
MEiAFKm5p76Qc4T/fnO31jNp4ot+YZpIoRqkGDAWMRQwEgYDVQQDDAt0ZWFtNzQ3
LW5ldIIUQPgHHgkUNeQP1CFgEI5w07pljYIwEwYDVR0lBAwwCgYIKwYBBQUHAwIw
CwYDVR0PBAQDAgeAMA0GCSqGSIb3DQEBCwUAA4IBAQBplyZF1jtxxUInvH9hoCNu
guMQG0BBLf6JhUj+yCabux1k+ehOYbx0PZ0rsCDKlC2JPlAdpaHDuB/FsiYWu+VM
7HYWku8szxOQ+cF+elKxkX/5vZe+rC80vqrJZH1Ja6FdPsFQYBoJgSzPYK+/YAEK
n0O6ZcZ1Xleex5z6+5tETZSar6IKnP2Yxga56lgV22js/vl50Kkq5nRmgJJ29+0T
HOD2zH8T420v43Cz6x0wWecQzkjjG1W0gi/gw0KaqYIAC1yLu5xT5M9PHRGJwTAt
bEiRLsJ6PKW6xMuZd9rAIcMIyKQBA3CwlRy90ZwyEU1xtvKt4RtP/bwewimIYDPx
-----END CERTIFICATE-----
