Certificate:
    Data:
        Version: 3 (0x2)
        Serial Number:
            18:cb:35:2b:8f:a1:25:81:d8:53:11:e4:16:bb:45:55
        Signature Algorithm: sha256WithRSAEncryption
        Issuer: CN=team725-net
        Validity
            Not Before: Sep 13 05:00:22 2021 GMT
            Not After : Aug 28 05:00:22 2024 GMT
        Subject: CN=team725-server
        Subject Public Key Info:
            Public Key Algorithm: rsaEncryption
                RSA Public-Key: (2048 bit)
                Modulus:
                    00:c7:64:4b:fd:5d:3b:00:e9:32:9e:8e:06:0c:4e:
                    c3:53:44:38:6b:02:28:74:07:66:78:af:14:1c:eb:
                    10:6e:be:97:d9:a5:7a:f6:8a:57:50:5e:d4:ad:2e:
                    82:61:32:9a:4f:27:b6:8b:a3:25:fb:02:19:f4:42:
                    c6:c5:e9:05:ac:39:23:19:49:ea:fd:aa:87:f2:1f:
                    ce:57:d9:21:7d:c5:6f:2d:8d:c5:ef:df:c0:f1:7d:
                    d0:d0:b6:d7:d1:34:16:91:d0:3b:34:be:ce:dc:18:
                    a6:e5:a3:d0:fe:4c:67:ff:21:dc:46:9a:49:c6:4c:
                    7a:d0:72:95:6b:5c:bb:52:38:56:03:0e:6d:1e:c3:
                    bf:ba:03:87:7f:7a:fa:d4:25:a9:a1:06:db:f3:3b:
                    2b:23:57:b1:c1:35:f3:5d:f5:f9:72:78:c5:39:33:
                    b0:73:c9:3c:b6:60:71:15:d4:72:ac:5f:5e:a3:c1:
                    d6:e4:d0:bb:67:fc:de:94:5d:aa:7c:e1:c6:f8:cf:
                    48:63:6a:2a:b6:6d:01:4f:ea:cb:18:36:b1:ce:4c:
                    55:7e:67:00:07:b6:67:74:3e:3c:86:a3:ea:5b:9f:
                    84:31:fb:db:7c:41:c0:e8:b2:8b:5b:1f:d1:9d:30:
                    bb:f2:6c:74:75:00:11:bb:a0:7e:b4:c7:18:5e:2d:
                    1a:8b
                Exponent: 65537 (0x10001)
        X509v3 extensions:
            X509v3 Basic Constraints: 
                CA:FALSE
            X509v3 Subject Key Identifier: 
                73:73:76:0E:E3:7D:63:65:7C:D4:76:FE:F8:9C:9A:0B:4E:83:69:98
            X509v3 Authority Key Identifier: 
                keyid:CF:E0:66:2D:53:7A:B4:B4:7B:11:17:EA:31:D0:89:F4:FA:6C:D3:07
                DirName:/CN=team725-net
                serial:0A:36:98:EC:9A:1F:30:85:78:CE:E6:24:A6:53:65:00:24:21:6E:43

            X509v3 Extended Key Usage: 
                TLS Web Server Authentication
            X509v3 Key Usage: 
                Digital Signature, Key Encipherment
            X509v3 Subject Alternative Name: 
                DNS:team725-server
    Signature Algorithm: sha256WithRSAEncryption
         33:79:7c:d1:01:bb:95:39:9f:d7:fb:b7:b3:7b:ae:d1:ab:b9:
         9a:f9:3f:67:42:39:e7:ef:82:e8:d8:b2:d4:36:f7:6c:32:c3:
         3f:68:4d:67:35:72:57:42:b1:d6:f8:ef:ad:7c:b2:7a:89:52:
         c8:2e:d4:04:ec:0f:4c:8a:b6:33:89:d0:39:e8:77:a5:b2:77:
         e3:9e:dc:0a:86:04:06:f9:ca:d1:f4:72:2a:ef:85:11:bd:10:
         36:78:5d:df:59:49:6f:ba:fe:7f:18:9d:4a:ef:06:7d:81:9b:
         fe:8d:fa:d4:26:6f:35:1a:ce:14:65:87:1d:cf:7c:64:dc:15:
         1d:58:48:e8:77:76:ec:48:8a:3d:94:03:6b:6f:66:f9:6f:72:
         e6:aa:a8:b0:91:40:e5:af:fb:a1:bd:d4:5e:81:51:f5:9c:35:
         03:5b:a6:a5:e4:71:5c:39:4d:a9:99:49:57:a2:7c:ef:d6:d6:
         f1:35:de:f1:b3:37:7a:b0:a3:62:24:d3:df:b4:50:17:15:fa:
         d6:58:da:63:48:22:b0:58:9b:74:c3:b4:51:29:b0:e9:15:f4:
         b7:66:90:1d:b7:aa:52:e7:1f:d2:ee:0b:a6:3c:1d:66:8c:ef:
         a3:c5:45:27:8d:90:07:ed:16:0e:bb:6a:90:87:2e:8d:18:c1:
         16:76:93:e6
-----BEGIN CERTIFICATE-----
MIIDdzCCAl+gAwIBAgIQGMs1K4+hJYHYUxHkFrtFVTANBgkqhkiG9w0BAQsFADAW
MRQwEgYDVQQDDAt0ZWFtNzI1LW5ldDAeFw0yMTA5MTMwNTAwMjJaFw0yNDA4Mjgw
NTAwMjJaMBkxFzAVBgNVBAMMDnRlYW03MjUtc2VydmVyMIIBIjANBgkqhkiG9w0B
AQEFAAOCAQ8AMIIBCgKCAQEAx2RL/V07AOkyno4GDE7DU0Q4awIodAdmeK8UHOsQ
br6X2aV69opXUF7UrS6CYTKaTye2i6Ml+wIZ9ELGxekFrDkjGUnq/aqH8h/OV9kh
fcVvLY3F79/A8X3Q0LbX0TQWkdA7NL7O3Bim5aPQ/kxn/yHcRppJxkx60HKVa1y7
UjhWAw5tHsO/ugOHf3r61CWpoQbb8zsrI1exwTXzXfX5cnjFOTOwc8k8tmBxFdRy
rF9eo8HW5NC7Z/zelF2qfOHG+M9IY2oqtm0BT+rLGDaxzkxVfmcAB7ZndD48hqPq
W5+EMfvbfEHA6LKLWx/RnTC78mx0dQARu6B+tMcYXi0aiwIDAQABo4G9MIG6MAkG
A1UdEwQCMAAwHQYDVR0OBBYEFHNzdg7jfWNlfNR2/vicmgtOg2mYMFEGA1UdIwRK
MEiAFM/gZi1TerS0exEX6jHQifT6bNMHoRqkGDAWMRQwEgYDVQQDDAt0ZWFtNzI1
LW5ldIIUCjaY7JofMIV4zuYkplNlACQhbkMwEwYDVR0lBAwwCgYIKwYBBQUHAwEw
CwYDVR0PBAQDAgWgMBkGA1UdEQQSMBCCDnRlYW03MjUtc2VydmVyMA0GCSqGSIb3
DQEBCwUAA4IBAQAzeXzRAbuVOZ/X+7eze67Rq7ma+T9nQjnn74Lo2LLUNvdsMsM/
aE1nNXJXQrHW+O+tfLJ6iVLILtQE7A9MirYzidA56HelsnfjntwKhgQG+crR9HIq
74URvRA2eF3fWUlvuv5/GJ1K7wZ9gZv+jfrUJm81Gs4UZYcdz3xk3BUdWEjod3bs
SIo9lANrb2b5b3LmqqiwkUDlr/uhvdRegVH1nDUDW6al5HFcOU2pmUlXonzv1tbx
Nd7xszd6sKNiJNPftFAXFfrWWNpjSCKwWJt0w7RRKbDpFfS3ZpAdt6pS5x/S7gum
PB1mjO+jxUUnjZAH7RYOu2qQhy6NGMEWdpPm
-----END CERTIFICATE-----
