Certificate:
    Data:
        Version: 3 (0x2)
        Serial Number:
            0c:0d:f9:dc:f1:5d:e0:5e:fb:4f:65:62:80:39:72:e4
        Signature Algorithm: sha256WithRSAEncryption
        Issuer: CN=team497-net
        Validity
            Not Before: Sep 13 03:06:12 2021 GMT
            Not After : Aug 28 03:06:12 2024 GMT
        Subject: CN=team497-server
        Subject Public Key Info:
            Public Key Algorithm: rsaEncryption
                RSA Public-Key: (2048 bit)
                Modulus:
                    00:c8:e1:9d:02:76:02:bc:94:7c:43:6e:bc:d0:31:
                    b4:8d:62:5e:fb:89:ab:2c:1e:51:60:36:45:4d:98:
                    06:d4:80:61:f2:de:8e:fd:9b:97:aa:4c:dd:22:b9:
                    b4:a6:f2:a1:bb:70:9e:48:4c:4b:8e:c7:d7:da:3b:
                    e2:10:42:b6:c2:2c:99:7d:2f:08:be:60:b5:b9:68:
                    35:1e:df:1e:2a:ff:51:aa:9d:5a:6c:39:08:1f:d7:
                    8f:87:a2:38:51:e0:89:30:1b:28:57:13:c4:df:c5:
                    c1:0f:6b:c2:84:f9:11:a0:07:2b:d2:de:9b:e9:5f:
                    6e:fe:06:33:b0:39:3e:d6:ff:c8:94:dc:0f:fc:0e:
                    e4:c6:b6:36:67:0f:d2:dd:d4:43:c6:4e:da:04:0f:
                    e7:d6:58:e5:10:14:0b:04:91:53:52:b8:ec:2d:b2:
                    21:6c:3c:f1:89:39:ba:f5:22:ee:95:83:b4:78:db:
                    0e:fd:a8:67:e2:f6:f7:01:e6:05:7d:a7:fe:93:1f:
                    ec:67:23:95:f7:ca:13:aa:6c:85:9f:cb:24:ba:71:
                    3e:37:ca:47:51:41:80:a8:26:e6:93:b7:52:51:48:
                    14:72:64:90:f4:b2:c3:ec:d2:4b:8d:08:95:aa:19:
                    fe:f0:45:07:07:72:f2:51:d1:5e:ef:a8:1b:4d:ba:
                    cd:f5
                Exponent: 65537 (0x10001)
        X509v3 extensions:
            X509v3 Basic Constraints: 
                CA:FALSE
            X509v3 Subject Key Identifier: 
                74:EA:E4:51:8F:A2:87:E0:B0:E2:68:F2:9E:30:77:2B:74:E4:2D:94
            X509v3 Authority Key Identifier: 
                keyid:8D:5C:AF:2B:25:48:41:20:C0:AB:18:C2:F7:5D:5B:39:5D:E9:70:98
                DirName:/CN=team497-net
                serial:04:1D:D4:40:A9:D7:2C:9F:0A:CC:6A:68:21:DD:DB:02:BA:76:D7:B9

            X509v3 Extended Key Usage: 
                TLS Web Server Authentication
            X509v3 Key Usage: 
                Digital Signature, Key Encipherment
            X509v3 Subject Alternative Name: 
                DNS:team497-server
    Signature Algorithm: sha256WithRSAEncryption
         70:82:72:85:ae:5e:43:c7:d3:0d:c2:5b:e3:1b:89:cb:af:5f:
         62:8e:39:3f:d1:2d:d3:dc:07:ea:7c:4f:ef:eb:86:b1:2a:7a:
         50:5c:8e:46:e1:3d:e8:82:bb:1b:8c:79:45:eb:21:65:87:8e:
         6e:6b:a1:31:ef:bb:d1:bf:79:54:7c:e6:21:1a:26:55:ba:73:
         3b:1f:42:48:61:1e:fe:9c:e5:b8:9e:50:c4:e7:61:24:74:86:
         d7:22:11:e8:fd:5b:30:86:74:33:5f:af:9f:b5:94:21:b9:51:
         20:56:38:77:af:36:95:05:11:8f:c2:a6:ef:3e:04:0b:73:64:
         65:a9:63:2c:01:1f:85:05:97:fd:f5:1f:97:c7:04:c2:58:c6:
         f1:d5:10:00:cc:ca:58:d2:7d:7b:a6:3d:a2:82:26:0b:94:b2:
         9f:e5:aa:70:e7:7a:5f:7a:28:90:a9:38:24:85:b3:f1:5e:e1:
         b2:66:b6:d9:82:50:d2:5c:3c:da:be:87:12:54:30:b0:65:14:
         20:64:93:ab:b9:1a:41:16:0e:fe:70:a1:e5:b9:2d:5b:4a:cf:
         91:d7:d3:b0:e9:5c:eb:d3:b1:73:ce:08:85:5b:11:36:00:2e:
         b9:d9:f6:16:ef:22:7d:82:b0:ec:40:f0:f1:07:ba:76:b4:7b:
         2b:56:2c:fc
-----BEGIN CERTIFICATE-----
MIIDdzCCAl+gAwIBAgIQDA353PFd4F77T2VigDly5DANBgkqhkiG9w0BAQsFADAW
MRQwEgYDVQQDDAt0ZWFtNDk3LW5ldDAeFw0yMTA5MTMwMzA2MTJaFw0yNDA4Mjgw
MzA2MTJaMBkxFzAVBgNVBAMMDnRlYW00OTctc2VydmVyMIIBIjANBgkqhkiG9w0B
AQEFAAOCAQ8AMIIBCgKCAQEAyOGdAnYCvJR8Q2680DG0jWJe+4mrLB5RYDZFTZgG
1IBh8t6O/ZuXqkzdIrm0pvKhu3CeSExLjsfX2jviEEK2wiyZfS8IvmC1uWg1Ht8e
Kv9Rqp1abDkIH9ePh6I4UeCJMBsoVxPE38XBD2vChPkRoAcr0t6b6V9u/gYzsDk+
1v/IlNwP/A7kxrY2Zw/S3dRDxk7aBA/n1ljlEBQLBJFTUrjsLbIhbDzxiTm69SLu
lYO0eNsO/ahn4vb3AeYFfaf+kx/sZyOV98oTqmyFn8skunE+N8pHUUGAqCbmk7dS
UUgUcmSQ9LLD7NJLjQiVqhn+8EUHB3LyUdFe76gbTbrN9QIDAQABo4G9MIG6MAkG
A1UdEwQCMAAwHQYDVR0OBBYEFHTq5FGPoofgsOJo8p4wdyt05C2UMFEGA1UdIwRK
MEiAFI1cryslSEEgwKsYwvddWzld6XCYoRqkGDAWMRQwEgYDVQQDDAt0ZWFtNDk3
LW5ldIIUBB3UQKnXLJ8KzGpoId3bArp217kwEwYDVR0lBAwwCgYIKwYBBQUHAwEw
CwYDVR0PBAQDAgWgMBkGA1UdEQQSMBCCDnRlYW00OTctc2VydmVyMA0GCSqGSIb3
DQEBCwUAA4IBAQBwgnKFrl5Dx9MNwlvjG4nLr19ijjk/0S3T3AfqfE/v64axKnpQ
XI5G4T3ogrsbjHlF6yFlh45ua6Ex77vRv3lUfOYhGiZVunM7H0JIYR7+nOW4nlDE
52EkdIbXIhHo/VswhnQzX6+ftZQhuVEgVjh3rzaVBRGPwqbvPgQLc2RlqWMsAR+F
BZf99R+XxwTCWMbx1RAAzMpY0n17pj2igiYLlLKf5apw53pfeiiQqTgkhbPxXuGy
ZrbZglDSXDzavocSVDCwZRQgZJOruRpBFg7+cKHluS1bSs+R19Ow6Vzr07FzzgiF
WxE2AC652fYW7yJ9grDsQPDxB7p2tHsrViz8
-----END CERTIFICATE-----
