Certificate:
    Data:
        Version: 3 (0x2)
        Serial Number:
            5d:bf:1a:b7:d2:d1:f3:29:70:e2:03:a5:51:37:fd:af
        Signature Algorithm: sha256WithRSAEncryption
        Issuer: CN=team553-net
        Validity
            Not Before: Sep 13 03:32:40 2021 GMT
            Not After : Aug 28 03:32:40 2024 GMT
        Subject: CN=team553-server
        Subject Public Key Info:
            Public Key Algorithm: rsaEncryption
                RSA Public-Key: (2048 bit)
                Modulus:
                    00:d9:dd:85:16:20:7e:29:ee:b3:89:71:f8:cf:92:
                    c4:31:89:0c:0f:ae:79:c1:0a:01:fb:62:b2:1d:6d:
                    b0:df:22:3a:3f:9e:bc:f5:41:6e:3f:39:ef:32:84:
                    99:80:66:a8:e9:7e:59:6a:e9:20:db:4b:7b:c1:73:
                    9d:76:4d:97:44:ef:af:d8:39:ce:1d:26:ae:c6:cc:
                    0b:23:11:b3:b2:ff:91:c0:74:0f:33:44:c7:b4:a5:
                    24:1e:cb:c8:96:d4:94:4b:28:8d:f4:88:4e:e1:33:
                    9f:09:db:43:9d:a4:8c:58:7c:4a:a4:09:8b:8a:22:
                    45:70:52:2a:ab:da:ff:f9:17:82:61:a2:6b:19:13:
                    27:d9:07:34:50:ca:a3:54:2c:40:74:6e:de:c8:fd:
                    02:14:fb:cf:44:65:de:e6:a9:3c:e1:2b:0f:71:a0:
                    5f:12:3b:ac:f4:35:23:a0:c8:43:24:85:59:8a:fa:
                    bc:1b:5f:15:20:8a:59:27:63:e2:eb:54:d5:6e:d7:
                    4e:fc:a6:81:88:f6:05:42:3e:33:54:f1:cf:f2:ce:
                    06:f3:23:5a:be:09:6f:1f:c8:f7:9e:7b:c4:66:ef:
                    e5:44:50:d9:52:d6:86:5b:1c:ca:9f:fc:a4:d8:06:
                    c9:e0:1d:55:e6:e8:2c:a3:54:15:5d:92:56:2c:b6:
                    7d:83
                Exponent: 65537 (0x10001)
        X509v3 extensions:
            X509v3 Basic Constraints: 
                CA:FALSE
            X509v3 Subject Key Identifier: 
                8C:A7:79:6C:9A:43:6C:53:CF:48:1B:8C:54:A1:F9:D3:47:46:BF:6D
            X509v3 Authority Key Identifier: 
                keyid:9F:62:4A:2B:07:E2:EC:1A:0A:AC:67:05:3D:AD:98:FE:33:EE:C1:8E
                DirName:/CN=team553-net
                serial:37:08:FB:16:2B:D3:EF:26:A6:52:A5:9F:F6:D4:1B:05:51:31:24:A4

            X509v3 Extended Key Usage: 
                TLS Web Server Authentication
            X509v3 Key Usage: 
                Digital Signature, Key Encipherment
            X509v3 Subject Alternative Name: 
                DNS:team553-server
    Signature Algorithm: sha256WithRSAEncryption
         cb:57:49:01:7b:e0:c0:9e:b7:87:fa:1e:9e:8a:d2:9c:a3:74:
         ff:41:64:95:c7:49:3d:d1:10:d9:7e:4b:dd:62:a5:be:71:ef:
         5c:e2:27:cc:a6:5b:2e:c0:8b:3e:7d:9c:2c:c1:cc:24:4f:89:
         a3:35:09:37:dd:3f:23:0f:fb:d3:57:c1:ca:cd:38:58:3e:28:
         0d:df:b3:48:86:be:02:11:e3:61:b4:4e:d9:3c:3e:ab:77:91:
         82:29:96:53:f7:7f:75:08:d2:45:b0:81:32:6b:42:51:48:a4:
         0b:04:fd:76:3b:12:7a:70:35:e2:40:19:51:b9:90:a9:e3:f7:
         d3:59:46:75:dc:40:1b:6e:4c:9c:7b:91:1b:c3:fa:eb:00:a2:
         fe:3c:76:f6:5a:61:94:de:67:06:d9:4e:9e:04:35:6b:64:23:
         52:4b:0c:00:44:84:33:8a:36:26:bb:10:b3:e8:9c:4d:14:7e:
         d0:51:a9:44:41:2a:73:95:78:51:b3:b6:f9:c9:0d:4a:f4:ee:
         5c:b9:70:82:97:9c:46:9f:65:ee:fa:c3:7f:43:92:04:b9:6d:
         37:a1:88:2c:3a:1e:82:a8:55:6c:b4:0b:64:84:c0:40:1f:9f:
         d6:12:6f:e0:a8:53:c6:38:06:da:4d:0f:9e:51:02:73:d5:0c:
         59:48:8e:1d
-----BEGIN CERTIFICATE-----
MIIDdzCCAl+gAwIBAgIQXb8at9LR8ylw4gOlUTf9rzANBgkqhkiG9w0BAQsFADAW
MRQwEgYDVQQDDAt0ZWFtNTUzLW5ldDAeFw0yMTA5MTMwMzMyNDBaFw0yNDA4Mjgw
MzMyNDBaMBkxFzAVBgNVBAMMDnRlYW01NTMtc2VydmVyMIIBIjANBgkqhkiG9w0B
AQEFAAOCAQ8AMIIBCgKCAQEA2d2FFiB+Ke6ziXH4z5LEMYkMD655wQoB+2KyHW2w
3yI6P5689UFuPznvMoSZgGao6X5Zaukg20t7wXOddk2XRO+v2DnOHSauxswLIxGz
sv+RwHQPM0THtKUkHsvIltSUSyiN9IhO4TOfCdtDnaSMWHxKpAmLiiJFcFIqq9r/
+ReCYaJrGRMn2Qc0UMqjVCxAdG7eyP0CFPvPRGXe5qk84SsPcaBfEjus9DUjoMhD
JIVZivq8G18VIIpZJ2Pi61TVbtdO/KaBiPYFQj4zVPHP8s4G8yNavglvH8j3nnvE
Zu/lRFDZUtaGWxzKn/yk2AbJ4B1V5ugso1QVXZJWLLZ9gwIDAQABo4G9MIG6MAkG
A1UdEwQCMAAwHQYDVR0OBBYEFIyneWyaQ2xTz0gbjFSh+dNHRr9tMFEGA1UdIwRK
MEiAFJ9iSisH4uwaCqxnBT2tmP4z7sGOoRqkGDAWMRQwEgYDVQQDDAt0ZWFtNTUz
LW5ldIIUNwj7FivT7yamUqWf9tQbBVExJKQwEwYDVR0lBAwwCgYIKwYBBQUHAwEw
CwYDVR0PBAQDAgWgMBkGA1UdEQQSMBCCDnRlYW01NTMtc2VydmVyMA0GCSqGSIb3
DQEBCwUAA4IBAQDLV0kBe+DAnreH+h6eitKco3T/QWSVx0k90RDZfkvdYqW+ce9c
4ifMplsuwIs+fZwswcwkT4mjNQk33T8jD/vTV8HKzThYPigN37NIhr4CEeNhtE7Z
PD6rd5GCKZZT9391CNJFsIEya0JRSKQLBP12OxJ6cDXiQBlRuZCp4/fTWUZ13EAb
bkyce5Ebw/rrAKL+PHb2WmGU3mcG2U6eBDVrZCNSSwwARIQzijYmuxCz6JxNFH7Q
UalEQSpzlXhRs7b5yQ1K9O5cuXCCl5xGn2Xu+sN/Q5IEuW03oYgsOh6CqFVstAtk
hMBAH5/WEm/gqFPGOAbaTQ+eUQJz1QxZSI4d
-----END CERTIFICATE-----
