Certificate:
    Data:
        Version: 3 (0x2)
        Serial Number:
            ad:e8:d2:86:4c:cb:59:3a:14:88:96:02:fa:e5:00:be
        Signature Algorithm: sha256WithRSAEncryption
        Issuer: CN=team712-net
        Validity
            Not Before: Sep 13 05:29:53 2021 GMT
            Not After : Aug 28 05:29:53 2024 GMT
        Subject: CN=team712-client
        Subject Public Key Info:
            Public Key Algorithm: rsaEncryption
                RSA Public-Key: (2048 bit)
                Modulus:
                    00:b1:98:23:06:a3:4f:a7:c3:3c:52:98:02:9f:c9:
                    a2:d3:be:12:e2:3b:91:5a:e9:a8:76:aa:ca:91:9e:
                    61:fe:24:4e:de:6c:69:25:02:c7:9a:7a:23:20:7e:
                    2c:a2:04:2d:ec:98:f3:a7:69:b4:3e:b4:66:77:43:
                    85:22:8c:87:19:d2:b7:6f:2c:d6:63:c8:f6:00:6d:
                    53:8e:2f:9f:fc:a4:cc:fe:66:e7:56:81:77:cb:ad:
                    0d:da:43:d4:59:88:83:21:b7:44:37:47:11:7a:60:
                    e1:1c:bb:f4:d6:97:16:e3:bb:f6:e5:a7:2c:85:d6:
                    f0:6b:75:d5:82:c3:81:20:0b:8c:0d:63:20:be:f9:
                    2c:da:93:c4:e6:fd:31:a2:fc:30:10:e4:39:e9:1c:
                    f8:12:2d:b4:73:4a:d5:72:1f:18:b3:d1:3f:d8:c8:
                    77:d5:18:4d:b7:72:68:11:03:b9:53:09:5f:0b:7c:
                    e5:20:3a:99:14:f2:a7:e6:dd:48:32:e6:b0:b4:b9:
                    2b:26:a1:e1:c1:24:55:34:e2:e9:a2:d4:ca:58:06:
                    38:90:b6:49:a4:81:42:19:f5:1f:38:08:de:33:4f:
                    18:c4:55:03:91:1d:d8:7c:2b:a0:4d:3c:91:1c:be:
                    a3:b9:fa:13:2c:d7:ab:12:19:75:c4:5d:15:90:a9:
                    77:f7
                Exponent: 65537 (0x10001)
        X509v3 extensions:
            X509v3 Basic Constraints: 
                CA:FALSE
            X509v3 Subject Key Identifier: 
                B9:88:E8:5C:73:5F:F2:20:86:FA:B6:18:4B:FF:21:3D:5C:E4:BA:66
            X509v3 Authority Key Identifier: 
                keyid:D7:1C:AF:00:C1:1A:B9:63:48:12:5D:2E:59:CF:E3:CF:D6:55:66:3D
                DirName:/CN=team712-net
                serial:7C:29:E3:2B:67:8A:BA:B8:C0:BF:33:23:F4:A8:27:AD:A2:8B:4A:A4

            X509v3 Extended Key Usage: 
                TLS Web Client Authentication
            X509v3 Key Usage: 
                Digital Signature
    Signature Algorithm: sha256WithRSAEncryption
         91:d2:b5:05:b1:77:7c:6a:2c:ca:3d:9e:ed:1b:81:9a:a3:0c:
         4c:2e:7a:b4:d8:db:cf:a1:b7:23:2a:16:39:b9:55:4b:7e:06:
         ee:d4:57:cb:81:ec:93:ba:c1:c1:5c:a7:ce:fc:76:14:4f:e6:
         ef:e4:7e:f1:ef:61:4c:f8:49:a5:54:d9:cf:46:58:f6:74:07:
         ac:82:ba:85:b9:27:d2:17:a2:37:1a:25:f7:a1:16:1a:d0:e4:
         7c:1c:1b:67:17:e0:7c:c4:e3:6a:71:f7:a8:db:a0:a9:93:25:
         9a:6b:2e:71:63:e8:ad:89:91:38:8c:73:7e:b7:a7:08:5d:9d:
         06:f5:e5:2e:3f:48:c9:f0:5e:23:de:a2:19:6b:a3:b2:5e:d0:
         6e:3d:f6:1a:4a:c6:ce:a6:76:18:bd:2c:12:8d:64:06:45:17:
         12:b9:11:01:25:00:e4:64:92:ab:cd:38:27:a2:2a:b4:ab:03:
         96:91:cd:28:3a:3b:da:1b:9a:c2:92:64:53:b5:b9:8c:14:cd:
         94:4a:db:54:35:3f:c1:8f:ba:b4:32:32:be:c9:b9:55:dc:af:
         44:57:41:08:65:b5:12:9f:c8:98:93:3d:5e:5a:1e:47:5f:bf:
         72:17:11:fd:06:e5:c3:bb:50:db:54:43:50:65:65:5b:23:98:
         f4:d4:ac:f2
-----BEGIN CERTIFICATE-----
MIIDXTCCAkWgAwIBAgIRAK3o0oZMy1k6FIiWAvrlAL4wDQYJKoZIhvcNAQELBQAw
FjEUMBIGA1UEAwwLdGVhbTcxMi1uZXQwHhcNMjEwOTEzMDUyOTUzWhcNMjQwODI4
MDUyOTUzWjAZMRcwFQYDVQQDDA50ZWFtNzEyLWNsaWVudDCCASIwDQYJKoZIhvcN
AQEBBQADggEPADCCAQoCggEBALGYIwajT6fDPFKYAp/JotO+EuI7kVrpqHaqypGe
Yf4kTt5saSUCx5p6IyB+LKIELeyY86dptD60ZndDhSKMhxnSt28s1mPI9gBtU44v
n/ykzP5m51aBd8utDdpD1FmIgyG3RDdHEXpg4Ry79NaXFuO79uWnLIXW8Gt11YLD
gSALjA1jIL75LNqTxOb9MaL8MBDkOekc+BIttHNK1XIfGLPRP9jId9UYTbdyaBED
uVMJXwt85SA6mRTyp+bdSDLmsLS5Kyah4cEkVTTi6aLUylgGOJC2SaSBQhn1HzgI
3jNPGMRVA5Ed2HwroE08kRy+o7n6EyzXqxIZdcRdFZCpd/cCAwEAAaOBojCBnzAJ
BgNVHRMEAjAAMB0GA1UdDgQWBBS5iOhcc1/yIIb6thhL/yE9XOS6ZjBRBgNVHSME
SjBIgBTXHK8AwRq5Y0gSXS5Zz+PP1lVmPaEapBgwFjEUMBIGA1UEAwwLdGVhbTcx
Mi1uZXSCFHwp4ytnirq4wL8zI/SoJ62ii0qkMBMGA1UdJQQMMAoGCCsGAQUFBwMC
MAsGA1UdDwQEAwIHgDANBgkqhkiG9w0BAQsFAAOCAQEAkdK1BbF3fGosyj2e7RuB
mqMMTC56tNjbz6G3IyoWOblVS34G7tRXy4Hsk7rBwVynzvx2FE/m7+R+8e9hTPhJ
pVTZz0ZY9nQHrIK6hbkn0heiNxol96EWGtDkfBwbZxfgfMTjanH3qNugqZMlmmsu
cWPorYmROIxzfrenCF2dBvXlLj9IyfBeI96iGWujsl7Qbj32GkrGzqZ2GL0sEo1k
BkUXErkRASUA5GSSq804J6IqtKsDlpHNKDo72huawpJkU7W5jBTNlErbVDU/wY+6
tDIyvsm5VdyvRFdBCGW1Ep/ImJM9XloeR1+/chcR/Qblw7tQ21RDUGVlWyOY9NSs
8g==
-----END CERTIFICATE-----
