Certificate:
    Data:
        Version: 3 (0x2)
        Serial Number:
            0a:74:11:65:0d:94:e1:98:dd:7c:c3:12:29:e3:ee:07
        Signature Algorithm: sha256WithRSAEncryption
        Issuer: CN=team633-net
        Validity
            Not Before: Sep 13 04:16:47 2021 GMT
            Not After : Aug 28 04:16:47 2024 GMT
        Subject: CN=team633-server
        Subject Public Key Info:
            Public Key Algorithm: rsaEncryption
                RSA Public-Key: (2048 bit)
                Modulus:
                    00:d4:e9:dc:c7:92:fc:04:46:93:d3:b8:1e:ad:c6:
                    20:d5:96:bf:46:27:80:0c:21:1d:bd:10:30:fc:8f:
                    fa:c4:31:fe:f8:4b:31:85:bb:57:54:46:97:93:ec:
                    c2:bc:fd:89:04:8f:21:61:39:46:2b:6c:23:ae:f3:
                    22:9d:aa:43:96:42:82:bf:0c:36:dd:7a:92:63:f6:
                    bf:4f:1e:4c:ad:9e:22:4a:f4:82:dc:1e:82:86:95:
                    36:48:c2:4b:9b:83:fe:05:0c:18:d7:41:1a:b9:76:
                    98:2a:53:b2:a2:e7:cd:d7:28:03:31:2f:9c:d4:9a:
                    ef:d7:86:5c:be:a4:80:e5:f1:8c:5d:03:f6:5a:66:
                    4b:a8:fd:c1:60:c2:0e:2e:80:c9:8d:76:bd:f5:e2:
                    31:f2:6b:38:74:0e:08:8b:22:d4:d4:28:36:d0:31:
                    80:c6:41:73:5e:cb:6f:e8:d1:b7:29:2e:8b:c6:ca:
                    77:c9:1e:e4:ae:23:1f:a3:be:26:66:29:48:33:ba:
                    18:12:e4:80:8d:bd:94:81:90:7e:a7:eb:d3:6d:d1:
                    e4:dd:1e:6d:3c:46:d3:0c:47:b9:25:a3:4f:68:2d:
                    c1:77:6e:e7:d6:a1:89:e1:59:3b:40:30:10:6e:e2:
                    11:6a:3e:bc:ab:45:b1:4f:20:d3:4d:9e:29:7d:d7:
                    94:0b
                Exponent: 65537 (0x10001)
        X509v3 extensions:
            X509v3 Basic Constraints: 
                CA:FALSE
            X509v3 Subject Key Identifier: 
                95:99:57:66:A8:71:F7:54:7F:C9:C1:A5:32:2C:B5:3C:9F:E6:91:A1
            X509v3 Authority Key Identifier: 
                keyid:45:AC:04:D3:C7:2A:0B:58:F6:FD:76:7A:18:26:A5:C9:45:F3:C5:E3
                DirName:/CN=team633-net
                serial:22:88:05:A6:60:7D:2F:84:E1:0E:0F:D6:57:28:C1:AF:5D:AA:CA:C0

            X509v3 Extended Key Usage: 
                TLS Web Server Authentication
            X509v3 Key Usage: 
                Digital Signature, Key Encipherment
            X509v3 Subject Alternative Name: 
                DNS:team633-server
    Signature Algorithm: sha256WithRSAEncryption
         67:57:f5:50:a3:db:77:e4:8d:72:aa:8a:43:bb:c9:b1:57:bb:
         83:6d:9b:1f:1f:bb:5b:71:9a:0f:d4:fe:c2:25:b6:a5:be:ff:
         7d:c4:42:31:32:2a:38:4d:97:ee:0f:bf:6e:0e:d6:4f:2e:98:
         d5:b3:9f:79:b1:f7:51:a9:bf:bd:bc:de:89:f2:a7:67:d2:b4:
         23:8d:a5:36:16:5a:bc:fb:d7:d0:2b:b4:7f:0c:27:1a:27:cf:
         30:85:b9:32:d6:cf:16:01:9b:bc:c1:61:1d:13:7a:a5:be:e7:
         58:0d:05:04:94:fe:c4:37:b1:88:de:2c:02:d5:db:e7:9e:c7:
         8c:2e:1d:f5:6b:a0:85:97:f3:f6:92:24:fd:2b:8a:a3:e1:6e:
         96:50:9c:44:c5:be:ce:66:c1:f3:fe:45:3e:ef:35:79:a3:d9:
         13:e6:50:44:b1:a3:ae:d1:9f:21:35:26:96:c2:5a:19:fd:b1:
         27:83:b6:07:de:e6:9e:a0:32:b5:4b:a2:57:f6:f8:19:c7:7b:
         1c:c3:2f:e9:cd:8e:ae:6c:91:b7:cb:43:33:8e:f4:57:71:3e:
         60:26:71:aa:60:22:57:b9:97:86:62:1c:c4:09:96:bc:3b:fe:
         b6:8d:da:1a:28:51:2f:7d:28:09:95:fd:21:c7:d8:b9:d0:ba:
         cc:ff:8b:56
-----BEGIN CERTIFICATE-----
MIIDdzCCAl+gAwIBAgIQCnQRZQ2U4ZjdfMMSKePuBzANBgkqhkiG9w0BAQsFADAW
MRQwEgYDVQQDDAt0ZWFtNjMzLW5ldDAeFw0yMTA5MTMwNDE2NDdaFw0yNDA4Mjgw
NDE2NDdaMBkxFzAVBgNVBAMMDnRlYW02MzMtc2VydmVyMIIBIjANBgkqhkiG9w0B
AQEFAAOCAQ8AMIIBCgKCAQEA1Oncx5L8BEaT07gercYg1Za/RieADCEdvRAw/I/6
xDH++EsxhbtXVEaXk+zCvP2JBI8hYTlGK2wjrvMinapDlkKCvww23XqSY/a/Tx5M
rZ4iSvSC3B6ChpU2SMJLm4P+BQwY10EauXaYKlOyoufN1ygDMS+c1Jrv14ZcvqSA
5fGMXQP2WmZLqP3BYMIOLoDJjXa99eIx8ms4dA4IiyLU1Cg20DGAxkFzXstv6NG3
KS6Lxsp3yR7kriMfo74mZilIM7oYEuSAjb2UgZB+p+vTbdHk3R5tPEbTDEe5JaNP
aC3Bd27n1qGJ4Vk7QDAQbuIRaj68q0WxTyDTTZ4pfdeUCwIDAQABo4G9MIG6MAkG
A1UdEwQCMAAwHQYDVR0OBBYEFJWZV2aocfdUf8nBpTIstTyf5pGhMFEGA1UdIwRK
MEiAFEWsBNPHKgtY9v12ehgmpclF88XjoRqkGDAWMRQwEgYDVQQDDAt0ZWFtNjMz
LW5ldIIUIogFpmB9L4ThDg/WVyjBr12qysAwEwYDVR0lBAwwCgYIKwYBBQUHAwEw
CwYDVR0PBAQDAgWgMBkGA1UdEQQSMBCCDnRlYW02MzMtc2VydmVyMA0GCSqGSIb3
DQEBCwUAA4IBAQBnV/VQo9t35I1yqopDu8mxV7uDbZsfH7tbcZoP1P7CJbalvv99
xEIxMio4TZfuD79uDtZPLpjVs595sfdRqb+9vN6J8qdn0rQjjaU2Flq8+9fQK7R/
DCcaJ88whbky1s8WAZu8wWEdE3qlvudYDQUElP7EN7GI3iwC1dvnnseMLh31a6CF
l/P2kiT9K4qj4W6WUJxExb7OZsHz/kU+7zV5o9kT5lBEsaOu0Z8hNSaWwloZ/bEn
g7YH3uaeoDK1S6JX9vgZx3scwy/pzY6ubJG3y0MzjvRXcT5gJnGqYCJXuZeGYhzE
CZa8O/62jdoaKFEvfSgJlf0hx9i50LrM/4tW
-----END CERTIFICATE-----
