Certificate:
    Data:
        Version: 3 (0x2)
        Serial Number:
            47:1e:5a:46:7e:87:d9:19:f6:75:77:a8:2d:87:95:d9
        Signature Algorithm: sha256WithRSAEncryption
        Issuer: CN=team633-net
        Validity
            Not Before: Sep 13 04:16:47 2021 GMT
            Not After : Aug 28 04:16:47 2024 GMT
        Subject: CN=team633-client
        Subject Public Key Info:
            Public Key Algorithm: rsaEncryption
                RSA Public-Key: (2048 bit)
                Modulus:
                    00:a0:0c:fc:00:36:2c:47:89:39:cb:b4:1d:31:a5:
                    bb:3e:9b:ad:cd:b0:c7:58:47:39:31:4d:18:9c:09:
                    8a:6d:39:a1:58:a9:a4:9b:0c:68:bf:17:91:e8:d1:
                    3f:da:a0:f3:d4:ef:00:53:89:b6:c5:0f:2a:27:6b:
                    63:0a:0d:d7:22:ba:b2:26:31:20:33:34:0e:dc:d6:
                    08:7d:64:bc:03:bc:5c:f1:4f:b4:e4:17:57:7b:e1:
                    5c:00:8e:d7:13:19:c5:55:53:f7:9e:ad:e7:b5:04:
                    2b:29:c8:6f:05:05:d5:ae:65:96:6e:37:46:22:de:
                    49:c3:cc:90:6c:ca:ea:f6:6a:8e:89:59:36:e8:ca:
                    bd:26:eb:0d:79:5f:64:f1:47:8a:42:0f:60:8f:97:
                    66:bb:0c:78:ba:ba:89:42:fd:9e:f6:6e:88:7d:30:
                    ab:82:a0:b0:74:15:4e:4c:c7:8b:82:27:c8:c6:8e:
                    90:cd:4c:0c:15:3f:9b:dd:15:2f:f0:46:93:61:a9:
                    5c:90:3c:12:0d:f6:4d:8f:62:58:e5:b3:99:c2:1d:
                    9f:3d:0c:6c:b8:71:93:03:67:c1:b0:be:a2:0b:2a:
                    c9:6a:9e:52:c1:ff:07:7d:77:67:4d:be:0d:39:a2:
                    53:e0:90:bf:e2:59:74:36:83:a5:60:23:6e:1c:51:
                    76:af
                Exponent: 65537 (0x10001)
        X509v3 extensions:
            X509v3 Basic Constraints: 
                CA:FALSE
            X509v3 Subject Key Identifier: 
                21:FD:96:95:40:3F:42:91:2F:0F:F9:24:EE:38:C6:32:56:08:4D:6E
            X509v3 Authority Key Identifier: 
                keyid:45:AC:04:D3:C7:2A:0B:58:F6:FD:76:7A:18:26:A5:C9:45:F3:C5:E3
                DirName:/CN=team633-net
                serial:22:88:05:A6:60:7D:2F:84:E1:0E:0F:D6:57:28:C1:AF:5D:AA:CA:C0

            X509v3 Extended Key Usage: 
                TLS Web Client Authentication
            X509v3 Key Usage: 
                Digital Signature
    Signature Algorithm: sha256WithRSAEncryption
         7f:3a:92:cf:98:4a:66:17:39:67:1b:70:02:27:5d:6d:8a:6c:
         14:f5:61:08:a7:3e:07:95:82:e0:a8:fe:23:be:fa:29:5c:bf:
         f2:35:c4:40:44:70:7a:ab:05:fe:c5:e8:50:31:b7:dd:63:b7:
         3c:47:c9:80:27:f0:dc:9e:aa:5c:09:6e:00:ef:22:47:cb:e7:
         9a:41:56:69:c3:52:e1:25:ef:d8:a9:14:11:f7:a7:33:55:75:
         e1:a4:2a:8b:81:93:80:be:2f:ba:74:53:34:bc:73:fd:d4:7c:
         89:3a:2a:b2:f8:a9:19:60:01:e2:99:aa:ef:75:7c:d3:e3:4d:
         0d:49:5c:06:f6:21:05:05:8b:62:c3:76:67:23:a0:e3:a6:9c:
         72:ec:d3:b2:ef:b5:f8:ec:1c:4b:ba:94:1b:ff:84:fc:31:18:
         d0:5e:4c:dc:09:14:35:f3:e7:50:d8:d2:cc:ec:26:05:0e:ef:
         03:4b:cb:1b:cc:88:02:b8:e6:6f:d7:e7:c1:95:24:fa:8e:ae:
         97:b3:8c:9b:37:fb:ba:e1:1a:7b:9b:f7:e5:f6:69:ce:71:27:
         ec:48:a5:bf:75:94:1f:d3:05:10:85:83:c4:1b:b3:58:17:34:
         44:79:1e:9f:b5:34:b0:18:6b:82:5c:17:98:90:21:99:17:62:
         83:e2:39:fd
-----BEGIN CERTIFICATE-----
MIIDXDCCAkSgAwIBAgIQRx5aRn6H2Rn2dXeoLYeV2TANBgkqhkiG9w0BAQsFADAW
MRQwEgYDVQQDDAt0ZWFtNjMzLW5ldDAeFw0yMTA5MTMwNDE2NDdaFw0yNDA4Mjgw
NDE2NDdaMBkxFzAVBgNVBAMMDnRlYW02MzMtY2xpZW50MIIBIjANBgkqhkiG9w0B
AQEFAAOCAQ8AMIIBCgKCAQEAoAz8ADYsR4k5y7QdMaW7PputzbDHWEc5MU0YnAmK
bTmhWKmkmwxovxeR6NE/2qDz1O8AU4m2xQ8qJ2tjCg3XIrqyJjEgMzQO3NYIfWS8
A7xc8U+05BdXe+FcAI7XExnFVVP3nq3ntQQrKchvBQXVrmWWbjdGIt5Jw8yQbMrq
9mqOiVk26Mq9JusNeV9k8UeKQg9gj5dmuwx4urqJQv2e9m6IfTCrgqCwdBVOTMeL
gifIxo6QzUwMFT+b3RUv8EaTYalckDwSDfZNj2JY5bOZwh2fPQxsuHGTA2fBsL6i
CyrJap5Swf8HfXdnTb4NOaJT4JC/4ll0NoOlYCNuHFF2rwIDAQABo4GiMIGfMAkG
A1UdEwQCMAAwHQYDVR0OBBYEFCH9lpVAP0KRLw/5JO44xjJWCE1uMFEGA1UdIwRK
MEiAFEWsBNPHKgtY9v12ehgmpclF88XjoRqkGDAWMRQwEgYDVQQDDAt0ZWFtNjMz
LW5ldIIUIogFpmB9L4ThDg/WVyjBr12qysAwEwYDVR0lBAwwCgYIKwYBBQUHAwIw
CwYDVR0PBAQDAgeAMA0GCSqGSIb3DQEBCwUAA4IBAQB/OpLPmEpmFzlnG3ACJ11t
imwU9WEIpz4HlYLgqP4jvvopXL/yNcRARHB6qwX+xehQMbfdY7c8R8mAJ/Dcnqpc
CW4A7yJHy+eaQVZpw1LhJe/YqRQR96czVXXhpCqLgZOAvi+6dFM0vHP91HyJOiqy
+KkZYAHimarvdXzT400NSVwG9iEFBYtiw3ZnI6Djppxy7NOy77X47BxLupQb/4T8
MRjQXkzcCRQ18+dQ2NLM7CYFDu8DS8sbzIgCuOZv1+fBlST6jq6Xs4ybN/u64Rp7
m/fl9mnOcSfsSKW/dZQf0wUQhYPEG7NYFzREeR6ftTSwGGuCXBeYkCGZF2KD4jn9
-----END CERTIFICATE-----
