Certificate:
    Data:
        Version: 3 (0x2)
        Serial Number:
            e4:27:d2:94:77:b7:79:f2:1d:46:ac:27:8a:82:e6:ce
        Signature Algorithm: sha256WithRSAEncryption
        Issuer: CN=team665-net
        Validity
            Not Before: Sep 13 04:57:52 2021 GMT
            Not After : Aug 28 04:57:52 2024 GMT
        Subject: CN=team665-client
        Subject Public Key Info:
            Public Key Algorithm: rsaEncryption
                RSA Public-Key: (2048 bit)
                Modulus:
                    00:d1:df:48:66:09:f9:5f:d4:fe:2b:f7:1c:bd:4d:
                    b6:20:d0:8e:fd:31:49:34:03:cd:c8:ce:b1:79:22:
                    70:76:3e:1c:94:31:1f:f0:a9:2d:4b:66:22:9f:04:
                    a7:4b:7c:4a:17:fc:f6:de:46:7d:ab:76:54:95:39:
                    54:7a:87:b3:1a:d9:7d:07:8e:a4:6e:05:b0:49:1b:
                    17:df:b7:02:bd:3a:d0:6f:80:a7:ba:4b:a1:4e:bc:
                    f2:94:d5:0b:a7:55:78:6c:6d:d0:92:a9:de:b9:81:
                    28:e4:88:fd:11:39:5a:31:35:4d:fe:5f:0f:ee:2e:
                    6c:5d:41:b7:eb:82:02:19:7e:11:03:a3:1e:08:70:
                    7f:00:2c:7d:31:f1:e4:b3:67:c8:3f:aa:da:0b:e1:
                    15:72:ad:79:6e:43:52:d7:c9:cd:ca:f2:66:51:9e:
                    3c:dc:54:66:75:2a:3d:72:90:36:53:63:2f:57:d6:
                    0a:9e:dd:7f:9b:a2:16:c4:cb:23:82:b8:4b:a1:f3:
                    7e:58:ac:58:2a:de:a0:b6:90:cf:21:a1:c4:81:dc:
                    96:bd:f1:e0:c1:fb:f2:bb:37:c0:29:ef:78:fb:b2:
                    70:13:b4:cc:36:48:4b:64:79:42:f5:2d:d1:94:f4:
                    49:ad:55:4e:2d:65:97:33:d2:59:b0:e5:a6:12:d8:
                    48:77
                Exponent: 65537 (0x10001)
        X509v3 extensions:
            X509v3 Basic Constraints: 
                CA:FALSE
            X509v3 Subject Key Identifier: 
                27:11:AF:E9:37:0B:30:CD:EB:D4:24:7D:7C:FC:8A:AD:35:17:13:05
            X509v3 Authority Key Identifier: 
                keyid:57:B5:B3:51:8A:F3:C4:1E:ED:C1:D2:DA:EE:55:BA:88:61:77:7C:63
                DirName:/CN=team665-net
                serial:1B:E2:78:BA:6C:29:2E:78:DB:BC:D1:B0:A8:33:85:14:C9:F9:D4:5A

            X509v3 Extended Key Usage: 
                TLS Web Client Authentication
            X509v3 Key Usage: 
                Digital Signature
    Signature Algorithm: sha256WithRSAEncryption
         4e:c8:d1:51:e2:c1:71:d9:09:2c:2a:b2:fb:d0:a0:55:c2:f7:
         ac:44:f0:24:cb:c7:fd:18:ea:0b:ec:36:f2:13:8b:0b:17:29:
         90:b4:f8:5c:fe:01:55:45:72:db:14:94:60:c3:2a:5d:f3:cc:
         7d:29:bc:b6:62:33:84:8d:b8:88:a3:9b:62:2e:2a:04:c3:53:
         38:3d:3e:88:0e:7f:aa:16:30:54:eb:d2:09:8d:fb:97:b8:6c:
         86:39:1a:d3:55:d8:2b:c5:5b:19:ef:79:00:61:30:70:5a:d7:
         97:36:1a:79:b0:60:b5:11:3c:20:0d:2d:95:20:ba:00:3e:bb:
         ae:18:e7:e3:e5:12:81:f5:91:69:0f:6a:80:5a:2d:3b:fd:93:
         40:0e:58:12:43:20:df:1d:c1:ce:ca:0c:57:d5:af:f1:73:4d:
         fe:ad:e1:16:ab:63:00:67:bf:cc:8b:d6:7b:16:b4:60:64:e3:
         7f:bb:29:6f:71:13:1b:60:fc:90:28:5c:9c:5e:3c:a8:5b:9e:
         80:73:22:31:d8:1f:08:35:84:2f:c0:74:e1:12:5a:bc:bd:f5:
         07:b7:c6:1a:a1:1a:9f:02:58:1a:0e:ea:8d:24:dd:8d:27:f6:
         f6:3d:96:00:a4:6b:1a:d1:b5:90:58:9f:78:06:13:7a:9a:8e:
         fd:4e:32:5c
-----BEGIN CERTIFICATE-----
MIIDXTCCAkWgAwIBAgIRAOQn0pR3t3nyHUasJ4qC5s4wDQYJKoZIhvcNAQELBQAw
FjEUMBIGA1UEAwwLdGVhbTY2NS1uZXQwHhcNMjEwOTEzMDQ1NzUyWhcNMjQwODI4
MDQ1NzUyWjAZMRcwFQYDVQQDDA50ZWFtNjY1LWNsaWVudDCCASIwDQYJKoZIhvcN
AQEBBQADggEPADCCAQoCggEBANHfSGYJ+V/U/iv3HL1NtiDQjv0xSTQDzcjOsXki
cHY+HJQxH/CpLUtmIp8Ep0t8Shf89t5Gfat2VJU5VHqHsxrZfQeOpG4FsEkbF9+3
Ar060G+Ap7pLoU688pTVC6dVeGxt0JKp3rmBKOSI/RE5WjE1Tf5fD+4ubF1Bt+uC
Ahl+EQOjHghwfwAsfTHx5LNnyD+q2gvhFXKteW5DUtfJzcryZlGePNxUZnUqPXKQ
NlNjL1fWCp7df5uiFsTLI4K4S6HzflisWCreoLaQzyGhxIHclr3x4MH78rs3wCnv
ePuycBO0zDZIS2R5QvUt0ZT0Sa1VTi1llzPSWbDlphLYSHcCAwEAAaOBojCBnzAJ
BgNVHRMEAjAAMB0GA1UdDgQWBBQnEa/pNwswzevUJH18/IqtNRcTBTBRBgNVHSME
SjBIgBRXtbNRivPEHu3B0truVbqIYXd8Y6EapBgwFjEUMBIGA1UEAwwLdGVhbTY2
NS1uZXSCFBvieLpsKS5427zRsKgzhRTJ+dRaMBMGA1UdJQQMMAoGCCsGAQUFBwMC
MAsGA1UdDwQEAwIHgDANBgkqhkiG9w0BAQsFAAOCAQEATsjRUeLBcdkJLCqy+9Cg
VcL3rETwJMvH/RjqC+w28hOLCxcpkLT4XP4BVUVy2xSUYMMqXfPMfSm8tmIzhI24
iKObYi4qBMNTOD0+iA5/qhYwVOvSCY37l7hshjka01XYK8VbGe95AGEwcFrXlzYa
ebBgtRE8IA0tlSC6AD67rhjn4+USgfWRaQ9qgFotO/2TQA5YEkMg3x3BzsoMV9Wv
8XNN/q3hFqtjAGe/zIvWexa0YGTjf7spb3ETG2D8kChcnF48qFuegHMiMdgfCDWE
L8B04RJavL31B7fGGqEanwJYGg7qjSTdjSf29j2WAKRrGtG1kFifeAYTepqO/U4y
XA==
-----END CERTIFICATE-----
