Certificate:
    Data:
        Version: 3 (0x2)
        Serial Number:
            29:64:ac:19:9e:ec:2b:a4:f7:a2:fd:22:8c:81:79:41
        Signature Algorithm: sha256WithRSAEncryption
        Issuer: CN=team50-net
        Validity
            Not Before: Sep 12 23:09:28 2021 GMT
            Not After : Aug 27 23:09:28 2024 GMT
        Subject: CN=team50-server
        Subject Public Key Info:
            Public Key Algorithm: rsaEncryption
                RSA Public-Key: (2048 bit)
                Modulus:
                    00:9e:c0:a2:a9:20:70:19:81:42:16:45:55:4f:24:
                    a4:55:5f:52:70:00:8e:40:10:e5:de:cb:9d:f0:b2:
                    7d:28:b4:e1:90:85:cc:5a:51:83:15:49:ae:2c:9b:
                    73:ff:d8:f2:46:b7:5b:75:a2:51:03:ae:8c:67:e7:
                    21:26:63:17:d3:a0:d3:8e:92:3a:0d:f6:64:7d:7a:
                    93:67:bb:7b:ee:6c:cb:fd:55:12:57:4c:91:81:57:
                    0e:56:cc:42:9c:48:6f:14:65:d6:91:77:d7:9b:d2:
                    10:da:3a:eb:54:10:e8:57:37:ec:5a:f9:33:0d:54:
                    58:a0:b9:22:5f:7c:3d:bd:ca:ea:63:f0:f8:c7:3a:
                    dc:6c:e2:27:9e:91:97:96:17:73:aa:6f:69:3b:9d:
                    8d:8b:bf:cd:69:d0:2e:1a:23:c8:5c:3e:1b:53:a2:
                    30:63:e6:ac:db:11:84:63:56:43:f8:d4:86:c5:bc:
                    2b:e8:e8:e7:12:18:94:76:7e:64:35:b2:e9:d9:c3:
                    da:2a:fe:c8:cb:d5:75:52:47:ef:c3:79:f7:c7:d0:
                    c2:1c:3a:cb:5b:47:ae:65:e3:e9:18:4c:7f:4a:3f:
                    9a:24:84:10:a1:f0:74:8e:ec:76:ae:31:d0:91:4b:
                    c6:a9:dd:05:8a:03:1f:57:48:81:e0:ab:9b:52:54:
                    20:e7
                Exponent: 65537 (0x10001)
        X509v3 extensions:
            X509v3 Basic Constraints: 
                CA:FALSE
            X509v3 Subject Key Identifier: 
                D4:2F:0C:CB:C4:1B:20:44:84:75:B8:84:CB:3A:21:B7:AA:01:66:7E
            X509v3 Authority Key Identifier: 
                keyid:DE:08:FC:E7:F2:0D:10:FE:DF:F4:78:75:E3:73:FB:94:AF:32:8A:A8
                DirName:/CN=team50-net
                serial:2A:FC:27:D5:46:02:8F:1E:3E:3C:AA:19:06:54:2D:0A:F3:0C:9C:31

            X509v3 Extended Key Usage: 
                TLS Web Server Authentication
            X509v3 Key Usage: 
                Digital Signature, Key Encipherment
            X509v3 Subject Alternative Name: 
                DNS:team50-server
    Signature Algorithm: sha256WithRSAEncryption
         3c:60:8c:cc:2b:7b:c9:a2:e2:f4:85:0b:75:70:c9:cd:6b:d0:
         1d:cd:f5:d0:a8:4e:12:cf:f9:29:cf:2c:5f:d6:b2:bf:18:d7:
         29:5d:3a:fd:52:cc:e5:01:5e:ab:43:fb:89:25:85:cc:dc:6a:
         14:f3:dd:1b:f1:f1:83:3a:1d:32:fc:bb:9f:ba:29:13:18:ca:
         da:02:61:c9:cd:b8:13:0e:8d:d7:32:2f:df:73:6f:73:c5:eb:
         91:67:e9:79:8e:ca:ad:12:3d:1e:ab:76:68:73:3c:60:17:d4:
         a4:05:c6:0f:3b:53:10:fe:87:74:bb:e4:ee:b7:51:09:45:a4:
         55:0c:14:7d:a7:1e:7c:e1:01:8d:7c:b6:1f:ff:cb:04:f8:a0:
         06:08:4f:0f:41:1b:33:88:a8:66:b3:49:e6:44:08:eb:86:c6:
         67:74:39:6e:a6:b7:f7:86:59:a8:45:9d:2d:dc:67:5d:7a:75:
         e8:66:1d:9f:07:a3:77:9d:4a:d4:2e:89:42:97:8a:28:35:22:
         6f:2a:ca:b0:6f:2b:6a:93:d2:30:6a:7c:9f:f1:d0:44:c2:f0:
         eb:d3:54:37:63:22:92:18:86:5a:0a:17:b6:b1:c4:01:c7:1c:
         b3:a7:52:4e:9b:ad:08:3d:7a:9b:ac:77:ba:ef:87:0a:b7:39:
         e5:ce:22:4a
-----BEGIN CERTIFICATE-----
MIIDczCCAlugAwIBAgIQKWSsGZ7sK6T3ov0ijIF5QTANBgkqhkiG9w0BAQsFADAV
MRMwEQYDVQQDDAp0ZWFtNTAtbmV0MB4XDTIxMDkxMjIzMDkyOFoXDTI0MDgyNzIz
MDkyOFowGDEWMBQGA1UEAwwNdGVhbTUwLXNlcnZlcjCCASIwDQYJKoZIhvcNAQEB
BQADggEPADCCAQoCggEBAJ7AoqkgcBmBQhZFVU8kpFVfUnAAjkAQ5d7LnfCyfSi0
4ZCFzFpRgxVJriybc//Y8ka3W3WiUQOujGfnISZjF9Og046SOg32ZH16k2e7e+5s
y/1VEldMkYFXDlbMQpxIbxRl1pF315vSENo661QQ6Fc37Fr5Mw1UWKC5Il98Pb3K
6mPw+Mc63GziJ56Rl5YXc6pvaTudjYu/zWnQLhojyFw+G1OiMGPmrNsRhGNWQ/jU
hsW8K+jo5xIYlHZ+ZDWy6dnD2ir+yMvVdVJH78N598fQwhw6y1tHrmXj6RhMf0o/
miSEEKHwdI7sdq4x0JFLxqndBYoDH1dIgeCrm1JUIOcCAwEAAaOBuzCBuDAJBgNV
HRMEAjAAMB0GA1UdDgQWBBTULwzLxBsgRIR1uITLOiG3qgFmfjBQBgNVHSMESTBH
gBTeCPzn8g0Q/t/0eHXjc/uUrzKKqKEZpBcwFTETMBEGA1UEAwwKdGVhbTUwLW5l
dIIUKvwn1UYCjx4+PKoZBlQtCvMMnDEwEwYDVR0lBAwwCgYIKwYBBQUHAwEwCwYD
VR0PBAQDAgWgMBgGA1UdEQQRMA+CDXRlYW01MC1zZXJ2ZXIwDQYJKoZIhvcNAQEL
BQADggEBADxgjMwre8mi4vSFC3Vwyc1r0B3N9dCoThLP+SnPLF/Wsr8Y1yldOv1S
zOUBXqtD+4klhczcahTz3Rvx8YM6HTL8u5+6KRMYytoCYcnNuBMOjdcyL99zb3PF
65Fn6XmOyq0SPR6rdmhzPGAX1KQFxg87UxD+h3S75O63UQlFpFUMFH2nHnzhAY18
th//ywT4oAYITw9BGzOIqGazSeZECOuGxmd0OW6mt/eGWahFnS3cZ116dehmHZ8H
o3edStQuiUKXiig1Im8qyrBvK2qT0jBqfJ/x0ETC8OvTVDdjIpIYhloKF7axxAHH
HLOnUk6brQg9epusd7rvhwq3OeXOIko=
-----END CERTIFICATE-----
