Certificate:
    Data:
        Version: 3 (0x2)
        Serial Number:
            3e:6b:c6:a4:bb:93:d6:45:ce:a3:47:4b:01:14:43:ea
        Signature Algorithm: sha256WithRSAEncryption
        Issuer: CN=team447-net
        Validity
            Not Before: Sep 13 02:40:20 2021 GMT
            Not After : Aug 28 02:40:20 2024 GMT
        Subject: CN=team447-client
        Subject Public Key Info:
            Public Key Algorithm: rsaEncryption
                RSA Public-Key: (2048 bit)
                Modulus:
                    00:b8:a3:2c:78:90:28:9f:4f:eb:49:87:a6:79:37:
                    6d:a5:2a:03:db:a5:85:96:77:6e:e3:6e:73:4b:38:
                    23:48:2d:c9:0f:89:c8:f9:32:d0:7d:69:d3:79:89:
                    8f:3d:27:fa:b6:d9:d0:fe:fa:a6:86:d7:3e:4f:1f:
                    0b:de:d5:5e:89:a3:4d:55:96:a8:9e:48:d8:af:23:
                    9c:8d:30:d6:73:e8:81:39:3f:b2:13:42:70:7e:ab:
                    a6:f6:58:e0:49:9b:4a:95:84:3a:58:e6:9b:99:81:
                    44:95:7d:ba:7b:58:51:0c:92:3d:64:83:c6:d1:fd:
                    3d:5f:a9:fe:31:f9:a1:39:36:5a:67:83:a2:51:bf:
                    a2:c8:a6:7a:f5:7d:33:e2:cd:f5:aa:00:3d:93:55:
                    3f:65:99:3a:2d:43:31:a1:8c:b5:2a:70:34:3a:e1:
                    6b:98:0e:7e:b3:ad:02:7e:63:5c:04:46:35:f7:7c:
                    1b:2b:f7:6a:e3:27:fb:63:73:3a:f3:91:5c:34:0a:
                    51:0a:fc:df:dc:b5:08:7f:d3:31:2b:92:54:87:c5:
                    d2:3d:a0:81:6a:a5:62:05:77:4c:9d:ec:94:84:b0:
                    90:64:81:e5:b6:46:52:26:1b:9c:45:47:f3:2e:47:
                    92:ab:af:c6:8f:6c:ab:42:b2:a5:90:14:82:96:7b:
                    7b:b7
                Exponent: 65537 (0x10001)
        X509v3 extensions:
            X509v3 Basic Constraints: 
                CA:FALSE
            X509v3 Subject Key Identifier: 
                99:28:37:93:D3:4F:32:E1:5D:94:CF:20:FF:82:8E:AC:41:C5:E9:1F
            X509v3 Authority Key Identifier: 
                keyid:42:CA:74:47:16:BD:58:E5:0B:3A:F1:66:6B:2B:DB:85:B1:1F:20:E6
                DirName:/CN=team447-net
                serial:2D:C3:D0:02:C2:CE:FC:DB:96:39:3F:B5:73:83:C0:40:B3:A1:B1:CF

            X509v3 Extended Key Usage: 
                TLS Web Client Authentication
            X509v3 Key Usage: 
                Digital Signature
    Signature Algorithm: sha256WithRSAEncryption
         19:cb:a7:73:76:ab:f1:a9:c3:d7:5c:99:84:1a:4c:ec:3b:a9:
         50:6b:d6:5c:41:29:c9:ff:c1:b9:31:23:ba:f7:85:b3:b6:b2:
         9e:7d:ae:b8:f6:29:5f:c8:45:ea:ba:75:8b:5b:58:32:9d:09:
         d1:87:46:5c:8a:b3:ac:50:9b:75:bf:6c:ba:d1:53:de:b4:98:
         88:7b:c2:80:f8:05:8d:e9:6f:e2:84:88:f2:36:bb:8c:62:79:
         3e:e1:24:a3:01:89:11:f8:fc:e7:08:97:49:30:f9:1e:07:94:
         bf:d1:06:c8:fa:c1:25:f4:6d:33:92:e9:1c:50:2e:10:fc:14:
         ea:f5:a7:ea:7d:4d:d9:71:45:08:6d:cf:0d:b7:a2:1c:15:8d:
         dd:95:43:e0:fd:b0:74:08:41:03:2a:0f:e8:0e:9f:b8:af:43:
         8a:64:77:aa:c7:d3:af:fe:35:8f:bf:a4:e7:42:f1:5b:e6:ce:
         6d:80:da:6b:c8:d2:44:d3:a7:fd:8a:99:f4:cd:9c:a9:a7:a8:
         34:3f:56:34:4b:b8:88:97:3e:a5:12:31:0e:30:71:64:95:72:
         7f:90:c2:e1:07:c2:1b:c2:5a:e1:ee:a4:c7:c6:2d:84:f2:21:
         55:24:a3:38:51:42:27:71:9f:97:ea:3a:8d:19:15:05:55:ba:
         70:88:69:2c
-----BEGIN CERTIFICATE-----
MIIDXDCCAkSgAwIBAgIQPmvGpLuT1kXOo0dLARRD6jANBgkqhkiG9w0BAQsFADAW
MRQwEgYDVQQDDAt0ZWFtNDQ3LW5ldDAeFw0yMTA5MTMwMjQwMjBaFw0yNDA4Mjgw
MjQwMjBaMBkxFzAVBgNVBAMMDnRlYW00NDctY2xpZW50MIIBIjANBgkqhkiG9w0B
AQEFAAOCAQ8AMIIBCgKCAQEAuKMseJAon0/rSYemeTdtpSoD26WFlndu425zSzgj
SC3JD4nI+TLQfWnTeYmPPSf6ttnQ/vqmhtc+Tx8L3tVeiaNNVZaonkjYryOcjTDW
c+iBOT+yE0Jwfqum9ljgSZtKlYQ6WOabmYFElX26e1hRDJI9ZIPG0f09X6n+Mfmh
OTZaZ4OiUb+iyKZ69X0z4s31qgA9k1U/ZZk6LUMxoYy1KnA0OuFrmA5+s60CfmNc
BEY193wbK/dq4yf7Y3M685FcNApRCvzf3LUIf9MxK5JUh8XSPaCBaqViBXdMneyU
hLCQZIHltkZSJhucRUfzLkeSq6/Gj2yrQrKlkBSClnt7twIDAQABo4GiMIGfMAkG
A1UdEwQCMAAwHQYDVR0OBBYEFJkoN5PTTzLhXZTPIP+CjqxBxekfMFEGA1UdIwRK
MEiAFELKdEcWvVjlCzrxZmsr24WxHyDmoRqkGDAWMRQwEgYDVQQDDAt0ZWFtNDQ3
LW5ldIIULcPQAsLO/NuWOT+1c4PAQLOhsc8wEwYDVR0lBAwwCgYIKwYBBQUHAwIw
CwYDVR0PBAQDAgeAMA0GCSqGSIb3DQEBCwUAA4IBAQAZy6dzdqvxqcPXXJmEGkzs
O6lQa9ZcQSnJ/8G5MSO694WztrKefa649ilfyEXqunWLW1gynQnRh0ZcirOsUJt1
v2y60VPetJiIe8KA+AWN6W/ihIjyNruMYnk+4SSjAYkR+PznCJdJMPkeB5S/0QbI
+sEl9G0zkukcUC4Q/BTq9afqfU3ZcUUIbc8Nt6IcFY3dlUPg/bB0CEEDKg/oDp+4
r0OKZHeqx9Ov/jWPv6TnQvFb5s5tgNpryNJE06f9ipn0zZypp6g0P1Y0S7iIlz6l
EjEOMHFklXJ/kMLhB8Ibwlrh7qTHxi2E8iFVJKM4UUIncZ+X6jqNGRUFVbpwiGks
-----END CERTIFICATE-----
