Certificate:
    Data:
        Version: 3 (0x2)
        Serial Number:
            0a:f0:59:40:0b:ea:67:cf:f5:1b:45:de:f0:86:01:2e
        Signature Algorithm: sha256WithRSAEncryption
        Issuer: CN=team91-net
        Validity
            Not Before: Sep 12 23:32:06 2021 GMT
            Not After : Aug 27 23:32:06 2024 GMT
        Subject: CN=team91-server
        Subject Public Key Info:
            Public Key Algorithm: rsaEncryption
                RSA Public-Key: (2048 bit)
                Modulus:
                    00:cb:9a:3a:95:81:d3:6a:d1:aa:b3:5e:09:98:89:
                    89:bf:77:ae:2e:6d:c6:4d:d9:7c:86:19:b8:0b:8a:
                    5d:ad:0b:b9:e7:14:6f:e9:6d:9d:10:be:bd:3f:06:
                    47:c5:4e:37:0b:28:85:58:2b:ca:7d:c9:98:7a:6c:
                    8f:c8:6e:4f:29:e5:d9:59:59:35:5e:d1:2e:94:e7:
                    82:b7:d2:e8:39:8c:32:8f:4e:4b:28:1b:5c:73:33:
                    c7:48:49:86:5d:2b:91:be:64:d7:d9:8d:a1:58:8b:
                    2f:db:3d:9b:ef:29:59:36:f5:98:34:18:88:31:c1:
                    88:d7:9e:a2:e6:ed:e5:25:c0:4b:6f:46:f9:51:7a:
                    c8:7e:35:d5:94:90:a7:b9:22:ef:8d:d6:86:f5:43:
                    74:9f:6d:3e:f0:13:10:0d:8c:1a:d9:f6:69:2d:05:
                    93:50:ae:b8:40:d5:ad:22:6e:f8:7b:3c:ca:a9:a7:
                    46:1e:a2:cc:c7:77:e3:05:cd:12:9d:68:a0:d9:ec:
                    e0:31:08:af:bf:64:4d:15:45:ce:9f:78:5b:db:97:
                    8d:01:48:e5:f8:d0:c1:f1:ee:7d:70:e3:04:46:66:
                    ca:12:15:31:a5:e0:40:1d:24:ab:10:fe:e6:54:a1:
                    c9:25:8c:58:36:68:7f:e6:8b:96:1a:0c:47:10:86:
                    2a:81
                Exponent: 65537 (0x10001)
        X509v3 extensions:
            X509v3 Basic Constraints: 
                CA:FALSE
            X509v3 Subject Key Identifier: 
                D0:26:03:AC:34:3D:AF:49:B3:AE:AC:43:CC:33:B8:90:FE:D8:0D:1F
            X509v3 Authority Key Identifier: 
                keyid:6B:89:A3:92:BC:EF:D0:33:E2:D9:CC:4B:2D:48:33:46:5B:79:F2:55
                DirName:/CN=team91-net
                serial:3D:6E:85:7D:34:60:25:47:E2:7A:12:38:30:EB:06:DC:07:CB:F3:E2

            X509v3 Extended Key Usage: 
                TLS Web Server Authentication
            X509v3 Key Usage: 
                Digital Signature, Key Encipherment
            X509v3 Subject Alternative Name: 
                DNS:team91-server
    Signature Algorithm: sha256WithRSAEncryption
         1a:b2:73:80:11:38:14:03:3b:7a:16:fb:06:c5:63:e7:f8:05:
         c3:2a:d4:b9:7b:63:c9:62:96:ce:0b:bb:35:a0:67:f8:bb:39:
         11:01:5e:5d:ca:e9:08:e3:83:7a:78:03:51:53:4e:65:99:5c:
         52:9d:16:7e:d5:f0:4b:34:8e:fd:a3:12:b4:af:09:ee:94:c4:
         83:50:02:8a:c0:6a:76:72:ae:c6:37:e4:f2:b9:94:ff:88:a6:
         13:c7:e2:38:80:2b:1e:6f:dc:03:9e:31:4c:78:7a:52:e2:45:
         f7:87:0e:69:74:06:0b:d5:f6:46:8d:10:a8:8e:bc:0f:0d:cc:
         a5:58:1e:b8:d9:54:59:65:ac:2e:36:56:0c:f4:8f:02:51:b4:
         54:32:ac:7a:3d:da:93:f3:aa:37:d2:03:fb:af:94:2a:a1:95:
         f5:bc:cf:c3:c7:5c:e3:11:38:ab:89:a3:e1:2b:65:6b:52:b9:
         b9:f5:32:d3:5b:48:78:57:58:b2:af:cb:c4:21:72:19:4c:92:
         0d:fb:e9:37:1c:c6:b6:c1:e4:f0:6a:d4:e0:15:b6:bc:e6:cc:
         76:5b:3f:a7:d7:95:f8:56:76:d2:4f:e1:f3:bd:c7:15:29:23:
         dd:ae:b4:64:eb:6b:16:5d:88:22:dc:e2:88:8b:2a:e6:0a:07:
         cf:dd:14:d4
-----BEGIN CERTIFICATE-----
MIIDczCCAlugAwIBAgIQCvBZQAvqZ8/1G0Xe8IYBLjANBgkqhkiG9w0BAQsFADAV
MRMwEQYDVQQDDAp0ZWFtOTEtbmV0MB4XDTIxMDkxMjIzMzIwNloXDTI0MDgyNzIz
MzIwNlowGDEWMBQGA1UEAwwNdGVhbTkxLXNlcnZlcjCCASIwDQYJKoZIhvcNAQEB
BQADggEPADCCAQoCggEBAMuaOpWB02rRqrNeCZiJib93ri5txk3ZfIYZuAuKXa0L
uecUb+ltnRC+vT8GR8VONwsohVgryn3JmHpsj8huTynl2VlZNV7RLpTngrfS6DmM
Mo9OSygbXHMzx0hJhl0rkb5k19mNoViLL9s9m+8pWTb1mDQYiDHBiNeeoubt5SXA
S29G+VF6yH411ZSQp7ki743WhvVDdJ9tPvATEA2MGtn2aS0Fk1CuuEDVrSJu+Hs8
yqmnRh6izMd34wXNEp1ooNns4DEIr79kTRVFzp94W9uXjQFI5fjQwfHufXDjBEZm
yhIVMaXgQB0kqxD+5lShySWMWDZof+aLlhoMRxCGKoECAwEAAaOBuzCBuDAJBgNV
HRMEAjAAMB0GA1UdDgQWBBTQJgOsND2vSbOurEPMM7iQ/tgNHzBQBgNVHSMESTBH
gBRriaOSvO/QM+LZzEstSDNGW3nyVaEZpBcwFTETMBEGA1UEAwwKdGVhbTkxLW5l
dIIUPW6FfTRgJUfiehI4MOsG3AfL8+IwEwYDVR0lBAwwCgYIKwYBBQUHAwEwCwYD
VR0PBAQDAgWgMBgGA1UdEQQRMA+CDXRlYW05MS1zZXJ2ZXIwDQYJKoZIhvcNAQEL
BQADggEBABqyc4AROBQDO3oW+wbFY+f4BcMq1Ll7Y8lils4LuzWgZ/i7OREBXl3K
6Qjjg3p4A1FTTmWZXFKdFn7V8Es0jv2jErSvCe6UxINQAorAanZyrsY35PK5lP+I
phPH4jiAKx5v3AOeMUx4elLiRfeHDml0BgvV9kaNEKiOvA8NzKVYHrjZVFllrC42
Vgz0jwJRtFQyrHo92pPzqjfSA/uvlCqhlfW8z8PHXOMROKuJo+ErZWtSubn1MtNb
SHhXWLKvy8QhchlMkg376TccxrbB5PBq1OAVtrzmzHZbP6fXlfhWdtJP4fO9xxUp
I92utGTraxZdiCLc4oiLKuYKB8/dFNQ=
-----END CERTIFICATE-----
