Certificate:
    Data:
        Version: 3 (0x2)
        Serial Number:
            0f:fa:d2:19:a7:ac:c7:14:e1:43:12:60:2d:a7:f3:ed
        Signature Algorithm: sha256WithRSAEncryption
        Issuer: CN=team697-net
        Validity
            Not Before: Sep 13 05:19:25 2021 GMT
            Not After : Aug 28 05:19:25 2024 GMT
        Subject: CN=team697-server
        Subject Public Key Info:
            Public Key Algorithm: rsaEncryption
                RSA Public-Key: (2048 bit)
                Modulus:
                    00:c4:bb:de:94:ee:16:7e:57:f6:92:43:75:bd:cd:
                    b8:f2:af:ef:82:a4:99:ab:a8:1c:54:75:74:1b:c0:
                    bc:5e:68:82:e4:8a:f9:6a:1a:68:4e:5d:6c:97:6a:
                    fb:e5:cb:3a:79:cb:2d:87:7e:e1:e2:ed:ed:b7:40:
                    fb:1e:3a:88:20:d2:f3:97:f2:be:36:88:13:1c:b2:
                    86:4b:55:03:32:4a:68:9b:28:38:88:a0:e6:83:d0:
                    5d:e3:d3:fe:fb:a5:e1:43:5c:7e:c9:d3:9b:75:fb:
                    72:d9:ce:a5:0d:00:0e:b9:b0:88:8d:12:c0:11:85:
                    67:95:5f:cc:d2:7a:19:91:b2:fe:a8:9a:d2:30:f6:
                    48:c5:b6:9f:c2:66:74:f3:56:dc:53:6a:81:25:24:
                    86:6e:42:16:33:13:44:b8:48:ca:11:f8:48:77:76:
                    98:c6:df:27:15:d3:dc:5e:4b:76:ab:a1:de:41:24:
                    58:87:28:81:2d:48:50:38:09:7f:46:dc:dd:71:41:
                    5d:26:e1:4b:44:f9:08:03:ac:b6:54:a2:eb:5a:05:
                    b1:4a:ba:d5:f9:93:0b:85:14:50:45:0f:83:dc:27:
                    e6:1d:be:7a:ba:a6:54:4f:33:0c:40:88:3c:61:e4:
                    5f:e5:93:11:11:db:14:99:f1:58:82:04:47:ce:58:
                    19:ed
                Exponent: 65537 (0x10001)
        X509v3 extensions:
            X509v3 Basic Constraints: 
                CA:FALSE
            X509v3 Subject Key Identifier: 
                C4:58:91:0D:4B:81:BB:93:26:67:EA:4A:47:27:DA:73:7A:0C:B7:97
            X509v3 Authority Key Identifier: 
                keyid:66:66:84:5E:EA:31:A7:99:93:C8:4C:8F:FD:5E:06:79:A9:6C:F1:99
                DirName:/CN=team697-net
                serial:69:04:32:7E:FC:A3:8B:D7:EB:F0:9F:3E:82:EC:4D:D3:A8:BB:12:9C

            X509v3 Extended Key Usage: 
                TLS Web Server Authentication
            X509v3 Key Usage: 
                Digital Signature, Key Encipherment
            X509v3 Subject Alternative Name: 
                DNS:team697-server
    Signature Algorithm: sha256WithRSAEncryption
         92:c2:52:b8:89:13:df:cb:6f:df:a5:29:4c:80:e4:ec:42:1a:
         3f:49:66:7a:4e:81:47:f2:55:0e:8b:fd:fc:84:93:c7:c3:27:
         63:7c:f9:85:10:2d:a4:42:2c:d0:ae:c9:2b:ae:b7:34:f7:69:
         83:e2:d8:31:cd:49:59:8d:39:30:89:f2:5b:b2:2c:6f:c7:19:
         ca:fd:1e:3c:6f:e0:3e:1e:05:bc:b9:c8:b8:dc:cf:e9:80:4d:
         e1:e3:95:ee:eb:fd:02:c5:dc:9a:15:65:80:87:ba:f6:3d:ba:
         29:8f:35:35:b6:7a:8b:26:21:c1:42:eb:31:98:6d:a2:48:10:
         4c:60:1f:5a:6c:78:43:1c:2b:01:4a:fd:f6:82:bc:33:7a:e0:
         fa:97:3b:9a:13:f1:70:35:6f:97:cc:28:55:ed:19:8c:79:08:
         aa:b4:37:f5:a4:69:ed:53:f1:33:22:73:32:09:b9:b6:f7:43:
         92:6f:45:5f:65:c1:e5:d4:23:c5:12:7a:44:17:16:75:a1:b4:
         c6:fe:95:35:f1:58:6b:d5:ff:ec:f2:45:b0:53:4f:4e:2c:7c:
         ee:57:13:e0:73:82:9c:5c:82:4d:6a:f4:1e:d8:48:db:3e:98:
         cc:a4:f8:af:69:af:3d:e9:24:f6:c6:0b:4f:e2:ba:78:2e:cc:
         32:df:46:9a
-----BEGIN CERTIFICATE-----
MIIDdzCCAl+gAwIBAgIQD/rSGaesxxThQxJgLafz7TANBgkqhkiG9w0BAQsFADAW
MRQwEgYDVQQDDAt0ZWFtNjk3LW5ldDAeFw0yMTA5MTMwNTE5MjVaFw0yNDA4Mjgw
NTE5MjVaMBkxFzAVBgNVBAMMDnRlYW02OTctc2VydmVyMIIBIjANBgkqhkiG9w0B
AQEFAAOCAQ8AMIIBCgKCAQEAxLvelO4Wflf2kkN1vc248q/vgqSZq6gcVHV0G8C8
XmiC5Ir5ahpoTl1sl2r75cs6ecsth37h4u3tt0D7HjqIINLzl/K+NogTHLKGS1UD
Mkpomyg4iKDmg9Bd49P++6XhQ1x+ydObdfty2c6lDQAOubCIjRLAEYVnlV/M0noZ
kbL+qJrSMPZIxbafwmZ081bcU2qBJSSGbkIWMxNEuEjKEfhId3aYxt8nFdPcXkt2
q6HeQSRYhyiBLUhQOAl/RtzdcUFdJuFLRPkIA6y2VKLrWgWxSrrV+ZMLhRRQRQ+D
3CfmHb56uqZUTzMMQIg8YeRf5ZMREdsUmfFYggRHzlgZ7QIDAQABo4G9MIG6MAkG
A1UdEwQCMAAwHQYDVR0OBBYEFMRYkQ1LgbuTJmfqSkcn2nN6DLeXMFEGA1UdIwRK
MEiAFGZmhF7qMaeZk8hMj/1eBnmpbPGZoRqkGDAWMRQwEgYDVQQDDAt0ZWFtNjk3
LW5ldIIUaQQyfvyji9fr8J8+guxN06i7EpwwEwYDVR0lBAwwCgYIKwYBBQUHAwEw
CwYDVR0PBAQDAgWgMBkGA1UdEQQSMBCCDnRlYW02OTctc2VydmVyMA0GCSqGSIb3
DQEBCwUAA4IBAQCSwlK4iRPfy2/fpSlMgOTsQho/SWZ6ToFH8lUOi/38hJPHwydj
fPmFEC2kQizQrskrrrc092mD4tgxzUlZjTkwifJbsixvxxnK/R48b+A+HgW8uci4
3M/pgE3h45Xu6/0CxdyaFWWAh7r2PbopjzU1tnqLJiHBQusxmG2iSBBMYB9abHhD
HCsBSv32grwzeuD6lzuaE/FwNW+XzChV7RmMeQiqtDf1pGntU/EzInMyCbm290OS
b0VfZcHl1CPFEnpEFxZ1obTG/pU18Vhr1f/s8kWwU09OLHzuVxPgc4KcXIJNavQe
2EjbPpjMpPivaa896ST2xgtP4rp4Lswy30aa
-----END CERTIFICATE-----
