Certificate:
    Data:
        Version: 3 (0x2)
        Serial Number:
            f9:8a:9c:15:3d:7d:7c:14:02:15:33:fd:01:92:91:3e
        Signature Algorithm: sha256WithRSAEncryption
        Issuer: CN=team340-net
        Validity
            Not Before: Sep 13 01:51:25 2021 GMT
            Not After : Aug 28 01:51:25 2024 GMT
        Subject: CN=team340-client
        Subject Public Key Info:
            Public Key Algorithm: rsaEncryption
                RSA Public-Key: (2048 bit)
                Modulus:
                    00:d4:0f:87:28:a8:5a:5e:6b:b8:2d:37:b6:8e:1f:
                    db:98:ae:3c:0f:5f:bc:bb:02:fc:bb:ad:ad:2e:f2:
                    4e:78:8e:d8:5a:0d:5f:f0:a6:8a:30:a7:6a:6f:64:
                    09:2f:eb:d8:86:11:62:11:f8:6e:93:da:65:d6:cd:
                    69:bb:6c:5d:d7:b4:54:3e:7f:58:03:03:22:23:f2:
                    49:c0:79:87:2d:00:6f:47:aa:70:bd:29:d0:1c:9e:
                    a7:c6:b4:0d:14:bc:cb:4a:07:17:a2:5d:b1:b7:03:
                    13:72:a1:78:66:c8:00:d4:02:3e:de:84:0f:4e:36:
                    08:47:b7:39:77:db:82:5f:16:40:2e:09:db:f6:79:
                    13:54:58:cf:ff:fe:e6:5c:39:4a:c9:91:42:05:31:
                    10:21:50:4f:ad:e5:01:e5:8b:b6:3d:e8:27:f6:4b:
                    e7:ea:3f:19:db:08:32:ce:84:22:f8:ca:6e:1a:a8:
                    4e:c0:87:19:7a:15:35:8a:c7:8f:55:ad:53:3d:2f:
                    06:a9:53:29:82:9b:06:b6:33:7a:c5:05:83:d0:d1:
                    d7:33:be:b4:46:b6:c1:c7:e0:34:ce:1d:b4:60:78:
                    da:9c:60:e7:76:bc:a4:1c:57:7c:1e:5f:49:ff:2f:
                    31:8e:a6:35:71:bd:58:f6:dd:47:86:ba:cf:67:ec:
                    df:31
                Exponent: 65537 (0x10001)
        X509v3 extensions:
            X509v3 Basic Constraints: 
                CA:FALSE
            X509v3 Subject Key Identifier: 
                B1:28:DA:F6:81:EC:E0:EA:97:5E:CF:8C:62:FA:5B:BD:DE:A6:FF:41
            X509v3 Authority Key Identifier: 
                keyid:94:25:76:34:6E:28:F0:F8:8E:6D:72:69:86:1D:D5:BD:02:05:C9:3B
                DirName:/CN=team340-net
                serial:6D:D8:04:50:66:92:06:40:BB:68:2B:C4:11:18:8E:65:EA:6B:D2:CB

            X509v3 Extended Key Usage: 
                TLS Web Client Authentication
            X509v3 Key Usage: 
                Digital Signature
    Signature Algorithm: sha256WithRSAEncryption
         47:cd:80:73:3b:f1:4c:73:cf:7e:2f:85:5d:db:6f:cc:8e:c1:
         9d:3c:33:37:4b:aa:6a:28:e9:18:f7:6d:08:56:1c:6b:6f:90:
         f9:51:9b:df:75:c1:21:80:38:43:68:b2:d0:a6:58:85:26:1a:
         1a:a6:c1:d3:16:33:6a:58:17:e4:60:06:4b:ee:89:0f:0a:b8:
         e6:a3:b8:66:af:82:d2:2e:57:5c:5d:f9:2e:aa:c6:ca:88:5b:
         ea:17:12:3e:d3:ae:9d:e5:66:b0:cb:c8:cc:e7:36:2d:58:5f:
         78:85:36:7b:12:74:5d:ce:2e:b0:87:50:33:03:39:5e:36:3c:
         b8:83:bb:87:19:c3:6f:bd:c3:d7:eb:8f:43:b5:ab:65:1c:73:
         2e:4d:83:09:cf:b2:b4:85:4d:01:76:63:b8:7f:94:fa:74:3f:
         eb:f6:68:ef:38:b7:64:58:5c:39:b2:e3:6c:1e:e4:83:03:bb:
         b3:1e:82:d4:52:6c:f9:77:d7:fd:23:7d:2e:34:61:42:b9:d8:
         1e:39:95:af:70:f8:55:1f:88:dc:19:8b:93:38:90:d9:ac:aa:
         8c:8a:9c:8f:c7:53:d0:08:d9:4e:ca:3d:7d:d3:60:83:ed:0a:
         9b:b6:05:5f:c8:a2:4d:5f:d6:58:f8:26:63:73:55:b0:9a:3c:
         48:fc:7a:2c
-----BEGIN CERTIFICATE-----
MIIDXTCCAkWgAwIBAgIRAPmKnBU9fXwUAhUz/QGSkT4wDQYJKoZIhvcNAQELBQAw
FjEUMBIGA1UEAwwLdGVhbTM0MC1uZXQwHhcNMjEwOTEzMDE1MTI1WhcNMjQwODI4
MDE1MTI1WjAZMRcwFQYDVQQDDA50ZWFtMzQwLWNsaWVudDCCASIwDQYJKoZIhvcN
AQEBBQADggEPADCCAQoCggEBANQPhyioWl5ruC03to4f25iuPA9fvLsC/LutrS7y
TniO2FoNX/CmijCnam9kCS/r2IYRYhH4bpPaZdbNabtsXde0VD5/WAMDIiPyScB5
hy0Ab0eqcL0p0Byep8a0DRS8y0oHF6JdsbcDE3KheGbIANQCPt6ED042CEe3OXfb
gl8WQC4J2/Z5E1RYz//+5lw5SsmRQgUxECFQT63lAeWLtj3oJ/ZL5+o/GdsIMs6E
IvjKbhqoTsCHGXoVNYrHj1WtUz0vBqlTKYKbBrYzesUFg9DR1zO+tEa2wcfgNM4d
tGB42pxg53a8pBxXfB5fSf8vMY6mNXG9WPbdR4a6z2fs3zECAwEAAaOBojCBnzAJ
BgNVHRMEAjAAMB0GA1UdDgQWBBSxKNr2gezg6pdez4xi+lu93qb/QTBRBgNVHSME
SjBIgBSUJXY0bijw+I5tcmmGHdW9AgXJO6EapBgwFjEUMBIGA1UEAwwLdGVhbTM0
MC1uZXSCFG3YBFBmkgZAu2grxBEYjmXqa9LLMBMGA1UdJQQMMAoGCCsGAQUFBwMC
MAsGA1UdDwQEAwIHgDANBgkqhkiG9w0BAQsFAAOCAQEAR82AczvxTHPPfi+FXdtv
zI7BnTwzN0uqaijpGPdtCFYca2+Q+VGb33XBIYA4Q2iy0KZYhSYaGqbB0xYzalgX
5GAGS+6JDwq45qO4Zq+C0i5XXF35LqrGyohb6hcSPtOuneVmsMvIzOc2LVhfeIU2
exJ0Xc4usIdQMwM5XjY8uIO7hxnDb73D1+uPQ7WrZRxzLk2DCc+ytIVNAXZjuH+U
+nQ/6/Zo7zi3ZFhcObLjbB7kgwO7sx6C1FJs+XfX/SN9LjRhQrnYHjmVr3D4VR+I
3BmLkziQ2ayqjIqcj8dT0AjZTso9fdNgg+0Km7YFX8iiTV/WWPgmY3NVsJo8SPx6
LA==
-----END CERTIFICATE-----
