Certificate:
    Data:
        Version: 3 (0x2)
        Serial Number:
            e4:0a:5e:25:14:b6:15:07:d0:35:c0:be:92:60:e4:e8
        Signature Algorithm: sha256WithRSAEncryption
        Issuer: CN=team584-net
        Validity
            Not Before: Sep 13 04:05:06 2021 GMT
            Not After : Aug 28 04:05:06 2024 GMT
        Subject: CN=team584-server
        Subject Public Key Info:
            Public Key Algorithm: rsaEncryption
                RSA Public-Key: (2048 bit)
                Modulus:
                    00:cf:fc:f4:fd:69:4b:fd:cd:eb:9c:2f:e2:f0:05:
                    21:8b:90:47:73:49:7f:52:c9:a2:5b:d6:9c:35:3a:
                    92:16:f8:f3:63:3d:73:03:6f:a5:cc:5a:a3:29:9a:
                    4e:a3:89:08:04:b0:f4:50:db:6e:4f:35:bb:2e:2b:
                    a0:5d:5b:ae:88:0b:5c:69:d2:e2:18:b7:8c:ea:18:
                    3d:16:17:c3:c3:51:47:0f:09:38:e1:18:79:12:00:
                    e1:29:aa:bc:47:a2:50:df:92:f9:fc:9f:ae:30:e5:
                    85:fd:37:b1:dd:77:5c:28:ef:99:76:d8:b6:c3:36:
                    6e:a7:d3:a9:bd:93:f5:32:68:98:0e:fe:54:ed:08:
                    56:ff:38:09:50:a8:2d:d9:9b:a6:1b:7d:cd:cf:8f:
                    27:b7:56:f0:4f:4d:2b:20:c3:b6:87:17:7e:51:44:
                    a2:46:09:22:2c:b8:40:0a:47:2e:ce:4c:3c:91:a3:
                    41:f2:e6:f2:5f:4f:90:dc:55:6f:c3:32:72:cd:af:
                    2c:1b:1f:d0:38:e8:5e:6b:d6:36:98:5f:26:77:75:
                    f0:64:22:48:02:99:9a:45:47:ef:57:61:8d:0a:24:
                    92:2d:1c:c5:fa:6b:76:d8:eb:6f:8e:42:fb:9c:31:
                    f7:b5:82:f6:ee:64:69:b6:d2:49:47:d8:22:d4:b7:
                    19:fb
                Exponent: 65537 (0x10001)
        X509v3 extensions:
            X509v3 Basic Constraints: 
                CA:FALSE
            X509v3 Subject Key Identifier: 
                C5:03:E9:F8:CF:02:70:60:8C:D3:0F:96:A4:94:E2:A9:05:97:24:E6
            X509v3 Authority Key Identifier: 
                keyid:D1:3B:E3:83:9E:D8:F2:A9:13:40:F7:57:79:B0:69:19:2E:E0:53:71
                DirName:/CN=team584-net
                serial:0E:B7:C2:76:77:45:12:08:C6:C1:F2:AE:AF:05:70:B0:48:2E:DA:76

            X509v3 Extended Key Usage: 
                TLS Web Server Authentication
            X509v3 Key Usage: 
                Digital Signature, Key Encipherment
            X509v3 Subject Alternative Name: 
                DNS:team584-server
    Signature Algorithm: sha256WithRSAEncryption
         f3:73:44:12:50:87:db:50:f0:14:83:10:a9:ae:9c:43:00:6f:
         c8:f0:9e:97:53:29:97:5d:e4:59:df:71:81:9b:03:6a:17:7a:
         88:c2:e7:c0:63:65:0e:53:66:c6:b8:fc:c7:00:c8:09:63:53:
         7a:74:d0:a3:79:ea:92:97:24:fe:ee:85:6d:77:2e:a9:c1:bf:
         54:3a:36:1f:fe:ee:1d:56:36:68:4b:31:1e:b0:ad:99:fa:fc:
         e3:ef:d4:22:3c:14:49:04:ea:a3:c1:fd:b5:1d:bf:2c:c8:cf:
         24:45:92:6a:92:b7:5e:e9:10:06:bb:22:86:df:73:7a:25:71:
         03:26:a8:7d:89:e7:ff:05:8d:b5:c8:2a:7e:95:10:1c:f8:03:
         09:51:14:c6:70:2d:c6:20:90:8f:4b:2b:69:4f:c7:f0:08:07:
         7a:3d:54:87:5f:75:55:02:fd:53:17:ac:57:66:ac:54:a9:52:
         15:a4:6d:99:6f:82:58:f0:85:7e:51:43:4c:41:33:ab:23:36:
         9a:21:34:ee:3c:54:66:09:0e:17:b7:4c:b6:22:c4:b0:df:04:
         5b:dc:28:cf:45:0b:db:ea:0b:39:f9:bb:63:64:2a:65:c9:35:
         ac:b1:c0:95:1f:d0:1a:8e:75:d9:9d:cb:bb:e6:e2:ee:d8:53:
         bc:97:73:44
-----BEGIN CERTIFICATE-----
MIIDeDCCAmCgAwIBAgIRAOQKXiUUthUH0DXAvpJg5OgwDQYJKoZIhvcNAQELBQAw
FjEUMBIGA1UEAwwLdGVhbTU4NC1uZXQwHhcNMjEwOTEzMDQwNTA2WhcNMjQwODI4
MDQwNTA2WjAZMRcwFQYDVQQDDA50ZWFtNTg0LXNlcnZlcjCCASIwDQYJKoZIhvcN
AQEBBQADggEPADCCAQoCggEBAM/89P1pS/3N65wv4vAFIYuQR3NJf1LJolvWnDU6
khb482M9cwNvpcxaoymaTqOJCASw9FDbbk81uy4roF1brogLXGnS4hi3jOoYPRYX
w8NRRw8JOOEYeRIA4SmqvEeiUN+S+fyfrjDlhf03sd13XCjvmXbYtsM2bqfTqb2T
9TJomA7+VO0IVv84CVCoLdmbpht9zc+PJ7dW8E9NKyDDtocXflFEokYJIiy4QApH
Ls5MPJGjQfLm8l9PkNxVb8Mycs2vLBsf0DjoXmvWNphfJnd18GQiSAKZmkVH71dh
jQokki0cxfprdtjrb45C+5wx97WC9u5kabbSSUfYItS3GfsCAwEAAaOBvTCBujAJ
BgNVHRMEAjAAMB0GA1UdDgQWBBTFA+n4zwJwYIzTD5aklOKpBZck5jBRBgNVHSME
SjBIgBTRO+ODntjyqRNA91d5sGkZLuBTcaEapBgwFjEUMBIGA1UEAwwLdGVhbTU4
NC1uZXSCFA63wnZ3RRIIxsHyrq8FcLBILtp2MBMGA1UdJQQMMAoGCCsGAQUFBwMB
MAsGA1UdDwQEAwIFoDAZBgNVHREEEjAQgg50ZWFtNTg0LXNlcnZlcjANBgkqhkiG
9w0BAQsFAAOCAQEA83NEElCH21DwFIMQqa6cQwBvyPCel1Mpl13kWd9xgZsDahd6
iMLnwGNlDlNmxrj8xwDICWNTenTQo3nqkpck/u6FbXcuqcG/VDo2H/7uHVY2aEsx
HrCtmfr84+/UIjwUSQTqo8H9tR2/LMjPJEWSapK3XukQBrsiht9zeiVxAyaofYnn
/wWNtcgqfpUQHPgDCVEUxnAtxiCQj0sraU/H8AgHej1Uh191VQL9UxesV2asVKlS
FaRtmW+CWPCFflFDTEEzqyM2miE07jxUZgkOF7dMtiLEsN8EW9woz0UL2+oLOfm7
Y2QqZck1rLHAlR/QGo512Z3Lu+bi7thTvJdzRA==
-----END CERTIFICATE-----
