Certificate:
    Data:
        Version: 3 (0x2)
        Serial Number:
            92:fa:f8:46:13:66:14:bb:b9:27:23:54:86:85:12:09
        Signature Algorithm: sha256WithRSAEncryption
        Issuer: CN=team241-net
        Validity
            Not Before: Sep 13 00:58:03 2021 GMT
            Not After : Aug 28 00:58:03 2024 GMT
        Subject: CN=team241-client
        Subject Public Key Info:
            Public Key Algorithm: rsaEncryption
                RSA Public-Key: (2048 bit)
                Modulus:
                    00:b9:d4:b4:df:a2:c4:3e:64:3a:fb:1b:97:0a:0c:
                    62:b5:6b:a2:a7:d4:46:3c:22:ef:f8:eb:81:a1:bd:
                    ee:f5:ee:c5:51:6f:74:74:28:8e:79:07:66:25:8b:
                    de:01:07:a9:f0:c6:26:f2:5c:82:72:5f:08:a4:e6:
                    21:50:ad:6e:b1:56:e4:e5:63:e5:b6:38:01:5d:39:
                    c3:eb:a1:61:f1:36:c1:be:70:13:f2:3f:0e:bc:8e:
                    cf:dd:92:fb:7c:7f:b4:84:cb:fe:64:53:43:8c:68:
                    7c:d3:42:1d:85:1d:af:42:0c:f2:b6:71:58:cc:71:
                    1f:e7:a2:af:61:ca:a1:81:f3:13:3a:d7:4e:83:3d:
                    2e:a8:17:fe:36:e9:1e:bc:fa:17:7c:3c:43:2d:3f:
                    b3:3f:88:40:03:da:25:76:06:87:de:47:7a:5e:08:
                    02:33:b9:3e:9a:4c:da:c5:9e:13:9b:06:6c:4c:98:
                    5a:c9:49:e9:f8:15:88:c2:c1:49:01:9b:4e:30:e2:
                    dc:ac:1f:33:77:05:cc:1c:fd:2c:90:b2:21:e4:a4:
                    19:de:84:82:b2:2f:4f:fd:17:9d:23:95:f8:5f:dc:
                    4a:a7:c2:81:ae:a0:d9:ba:5b:7e:62:eb:bd:94:9e:
                    4b:0c:ca:dd:1a:3f:14:7a:45:c0:bb:7b:05:40:12:
                    2b:57
                Exponent: 65537 (0x10001)
        X509v3 extensions:
            X509v3 Basic Constraints: 
                CA:FALSE
            X509v3 Subject Key Identifier: 
                74:9D:98:8C:5C:61:D6:7B:E3:28:B9:8C:42:5C:B5:9E:97:80:FA:BC
            X509v3 Authority Key Identifier: 
                keyid:11:4C:4C:5B:44:93:37:82:F1:C2:A2:92:2B:4D:5B:98:4F:F5:18:74
                DirName:/CN=team241-net
                serial:56:A8:FC:B2:AF:71:2D:5E:70:F8:47:F3:0A:16:CE:00:FC:5E:ED:3D

            X509v3 Extended Key Usage: 
                TLS Web Client Authentication
            X509v3 Key Usage: 
                Digital Signature
    Signature Algorithm: sha256WithRSAEncryption
         79:cf:e0:03:3e:6e:db:bc:cc:89:16:c0:0d:9c:6f:c6:90:64:
         c5:d5:5b:b0:9d:e2:b1:ff:31:9b:74:f7:27:e4:f3:fb:21:7f:
         71:f0:4a:02:18:ea:c7:3e:6b:f2:3f:39:f1:34:0c:90:f0:0d:
         ea:72:a5:25:e2:fb:73:95:45:8e:e1:0a:46:01:df:da:91:0d:
         f4:42:72:39:69:9a:78:3f:97:32:6e:1c:8c:32:df:85:c8:29:
         24:f9:83:7f:f6:ce:ad:0b:60:97:f0:ba:c5:4c:52:53:33:50:
         24:31:3a:aa:ff:ae:57:a8:b3:48:fc:fd:83:05:90:c6:50:e8:
         31:41:34:99:08:4f:63:bb:8e:ef:4c:6e:05:7a:4a:8c:f6:57:
         b7:32:ab:02:4e:af:28:c0:9a:57:86:d5:df:23:52:f1:cf:5b:
         ca:51:61:c5:35:2e:44:cc:63:99:6a:df:c1:93:62:9b:76:d7:
         7a:52:3d:18:4d:b0:db:b6:3b:57:86:28:7f:f9:b3:d0:7e:43:
         e5:b8:91:91:4d:58:35:c4:21:d7:a5:59:3d:44:84:a3:52:a6:
         be:6b:3c:34:5f:aa:9c:dc:7e:5c:48:4b:36:a7:88:a3:ad:d2:
         e8:24:e6:6c:d9:e2:a6:5a:91:9b:42:df:28:19:b9:c5:ec:0b:
         26:26:23:8a
-----BEGIN CERTIFICATE-----
MIIDXTCCAkWgAwIBAgIRAJL6+EYTZhS7uScjVIaFEgkwDQYJKoZIhvcNAQELBQAw
FjEUMBIGA1UEAwwLdGVhbTI0MS1uZXQwHhcNMjEwOTEzMDA1ODAzWhcNMjQwODI4
MDA1ODAzWjAZMRcwFQYDVQQDDA50ZWFtMjQxLWNsaWVudDCCASIwDQYJKoZIhvcN
AQEBBQADggEPADCCAQoCggEBALnUtN+ixD5kOvsblwoMYrVroqfURjwi7/jrgaG9
7vXuxVFvdHQojnkHZiWL3gEHqfDGJvJcgnJfCKTmIVCtbrFW5OVj5bY4AV05w+uh
YfE2wb5wE/I/DryOz92S+3x/tITL/mRTQ4xofNNCHYUdr0IM8rZxWMxxH+eir2HK
oYHzEzrXToM9LqgX/jbpHrz6F3w8Qy0/sz+IQAPaJXYGh95Hel4IAjO5PppM2sWe
E5sGbEyYWslJ6fgViMLBSQGbTjDi3KwfM3cFzBz9LJCyIeSkGd6EgrIvT/0XnSOV
+F/cSqfCga6g2bpbfmLrvZSeSwzK3Ro/FHpFwLt7BUASK1cCAwEAAaOBojCBnzAJ
BgNVHRMEAjAAMB0GA1UdDgQWBBR0nZiMXGHWe+MouYxCXLWel4D6vDBRBgNVHSME
SjBIgBQRTExbRJM3gvHCopIrTVuYT/UYdKEapBgwFjEUMBIGA1UEAwwLdGVhbTI0
MS1uZXSCFFao/LKvcS1ecPhH8woWzgD8Xu09MBMGA1UdJQQMMAoGCCsGAQUFBwMC
MAsGA1UdDwQEAwIHgDANBgkqhkiG9w0BAQsFAAOCAQEAec/gAz5u27zMiRbADZxv
xpBkxdVbsJ3isf8xm3T3J+Tz+yF/cfBKAhjqxz5r8j858TQMkPAN6nKlJeL7c5VF
juEKRgHf2pEN9EJyOWmaeD+XMm4cjDLfhcgpJPmDf/bOrQtgl/C6xUxSUzNQJDE6
qv+uV6izSPz9gwWQxlDoMUE0mQhPY7uO70xuBXpKjPZXtzKrAk6vKMCaV4bV3yNS
8c9bylFhxTUuRMxjmWrfwZNim3bXelI9GE2w27Y7V4Yof/mz0H5D5biRkU1YNcQh
16VZPUSEo1Kmvms8NF+qnNx+XEhLNqeIo63S6CTmbNniplqRm0LfKBm5xewLJiYj
ig==
-----END CERTIFICATE-----
