Certificate:
    Data:
        Version: 3 (0x2)
        Serial Number:
            41:47:9a:9a:e2:f0:a0:95:c8:fa:ae:1c:95:25:9e:75
        Signature Algorithm: sha256WithRSAEncryption
        Issuer: CN=team11-net
        Validity
            Not Before: Sep 12 22:45:13 2021 GMT
            Not After : Aug 27 22:45:13 2024 GMT
        Subject: CN=team11-client
        Subject Public Key Info:
            Public Key Algorithm: rsaEncryption
                RSA Public-Key: (2048 bit)
                Modulus:
                    00:db:38:3c:da:5b:04:28:fa:a4:ca:89:9b:e0:3a:
                    6c:05:51:d0:7c:88:b7:25:cf:85:ef:48:73:f0:a7:
                    0a:fb:e4:c6:5d:62:3d:95:30:01:90:5b:63:61:4d:
                    51:d6:f3:7a:0a:03:83:e0:b1:f9:c2:5f:3f:d9:24:
                    a0:6b:a8:a1:73:1b:e0:46:1c:93:b1:5f:94:17:9f:
                    94:e5:c9:d2:3d:52:64:46:97:fb:c6:50:3b:c9:8b:
                    7e:27:45:f2:fc:f2:c4:a5:e8:aa:b6:9f:28:84:19:
                    e9:bd:c1:ae:54:9b:64:d0:b8:a1:50:1c:35:84:99:
                    e2:61:60:1d:bd:39:ed:b1:10:98:6f:c5:0f:0d:cd:
                    ef:5b:d5:8e:3e:d3:d1:66:81:85:96:f4:52:7f:1f:
                    12:e9:e9:95:fd:4e:d2:f3:06:57:1e:81:dc:b9:52:
                    2e:eb:22:db:9c:0b:9f:1f:5e:a7:3b:3e:ef:df:a8:
                    67:e4:28:54:da:87:39:96:af:a2:c9:23:fb:25:49:
                    3a:c6:0c:d6:42:5e:5d:a7:f8:e4:93:e0:cf:6a:14:
                    6d:4e:d2:c8:9f:04:3b:cb:08:e3:62:89:f7:d6:26:
                    f5:fe:ec:ee:0f:3b:3b:82:0c:62:c4:4e:72:18:a3:
                    f9:47:aa:db:26:70:9f:ed:0a:31:4f:a7:ef:b9:e1:
                    e2:b9
                Exponent: 65537 (0x10001)
        X509v3 extensions:
            X509v3 Basic Constraints: 
                CA:FALSE
            X509v3 Subject Key Identifier: 
                A7:BF:B1:A2:33:DA:62:71:A2:FD:BD:37:83:C2:6B:72:C4:8E:06:C7
            X509v3 Authority Key Identifier: 
                keyid:0D:2A:2F:27:C5:E8:1B:00:00:10:40:78:A1:20:04:E9:14:9E:02:1C
                DirName:/CN=team11-net
                serial:6D:28:83:91:72:9F:68:E3:54:BF:8E:56:35:B6:4E:91:FC:0A:74:D0

            X509v3 Extended Key Usage: 
                TLS Web Client Authentication
            X509v3 Key Usage: 
                Digital Signature
    Signature Algorithm: sha256WithRSAEncryption
         bc:4c:2b:95:87:48:71:1d:e7:f9:34:a7:fe:b7:32:5a:3c:46:
         15:36:ac:fb:21:82:00:c2:64:36:78:8f:fa:c1:30:56:a2:a7:
         51:ea:f6:ce:d1:f2:10:d3:50:6d:c0:8f:18:bc:30:37:e2:5e:
         eb:18:ea:79:4e:64:e6:9e:e9:cf:d6:fe:fc:91:6b:d4:83:79:
         0e:95:28:27:b6:9f:a3:16:23:80:2d:39:93:8d:43:20:37:e6:
         3d:ed:57:f0:d6:5d:c5:83:dd:1f:f5:a1:ff:ab:1d:6c:28:ec:
         cf:40:c7:68:98:5b:83:91:22:72:c0:0a:d6:01:7b:b5:dc:b9:
         4e:f1:97:40:cb:33:55:1f:82:61:33:4a:7f:bc:a3:23:89:80:
         ac:4b:7b:91:e5:5d:51:a9:0c:89:aa:2e:87:cd:a2:6e:8f:a2:
         04:9f:2a:c2:3a:05:d0:c5:12:d9:34:ab:a2:28:f6:99:1f:3d:
         ca:eb:d2:4a:33:2d:96:65:8c:72:15:17:09:83:cf:05:89:93:
         78:0c:98:1d:db:e2:9b:de:cb:0f:89:9a:58:1c:15:f7:86:48:
         f2:66:19:13:1c:82:ff:00:95:99:c9:87:97:6c:bb:0c:0f:46:
         08:c8:98:ab:a6:d3:f2:45:db:60:00:73:1a:29:98:c2:e4:cf:
         30:ea:cd:f3
-----BEGIN CERTIFICATE-----
MIIDWTCCAkGgAwIBAgIQQUeamuLwoJXI+q4clSWedTANBgkqhkiG9w0BAQsFADAV
MRMwEQYDVQQDDAp0ZWFtMTEtbmV0MB4XDTIxMDkxMjIyNDUxM1oXDTI0MDgyNzIy
NDUxM1owGDEWMBQGA1UEAwwNdGVhbTExLWNsaWVudDCCASIwDQYJKoZIhvcNAQEB
BQADggEPADCCAQoCggEBANs4PNpbBCj6pMqJm+A6bAVR0HyItyXPhe9Ic/CnCvvk
xl1iPZUwAZBbY2FNUdbzegoDg+Cx+cJfP9kkoGuooXMb4EYck7FflBeflOXJ0j1S
ZEaX+8ZQO8mLfidF8vzyxKXoqrafKIQZ6b3BrlSbZNC4oVAcNYSZ4mFgHb057bEQ
mG/FDw3N71vVjj7T0WaBhZb0Un8fEunplf1O0vMGVx6B3LlSLusi25wLnx9epzs+
79+oZ+QoVNqHOZavoskj+yVJOsYM1kJeXaf45JPgz2oUbU7SyJ8EO8sI42KJ99Ym
9f7s7g87O4IMYsROchij+Ueq2yZwn+0KMU+n77nh4rkCAwEAAaOBoTCBnjAJBgNV
HRMEAjAAMB0GA1UdDgQWBBSnv7GiM9picaL9vTeDwmtyxI4GxzBQBgNVHSMESTBH
gBQNKi8nxegbAAAQQHihIATpFJ4CHKEZpBcwFTETMBEGA1UEAwwKdGVhbTExLW5l
dIIUbSiDkXKfaONUv45WNbZOkfwKdNAwEwYDVR0lBAwwCgYIKwYBBQUHAwIwCwYD
VR0PBAQDAgeAMA0GCSqGSIb3DQEBCwUAA4IBAQC8TCuVh0hxHef5NKf+tzJaPEYV
Nqz7IYIAwmQ2eI/6wTBWoqdR6vbO0fIQ01BtwI8YvDA34l7rGOp5TmTmnunP1v78
kWvUg3kOlSgntp+jFiOALTmTjUMgN+Y97Vfw1l3Fg90f9aH/qx1sKOzPQMdomFuD
kSJywArWAXu13LlO8ZdAyzNVH4JhM0p/vKMjiYCsS3uR5V1RqQyJqi6HzaJuj6IE
nyrCOgXQxRLZNKuiKPaZHz3K69JKMy2WZYxyFRcJg88FiZN4DJgd2+Kb3ssPiZpY
HBX3hkjyZhkTHIL/AJWZyYeXbLsMD0YIyJirptPyRdtgAHMaKZjC5M8w6s3z
-----END CERTIFICATE-----
