Certificate:
    Data:
        Version: 3 (0x2)
        Serial Number:
            99:32:2d:99:8e:a8:15:02:20:cf:02:0e:09:ee:08:6f
        Signature Algorithm: sha256WithRSAEncryption
        Issuer: CN=team461-net
        Validity
            Not Before: Sep 13 02:54:21 2021 GMT
            Not After : Aug 28 02:54:21 2024 GMT
        Subject: CN=team461-client
        Subject Public Key Info:
            Public Key Algorithm: rsaEncryption
                RSA Public-Key: (2048 bit)
                Modulus:
                    00:af:40:ea:44:f8:e3:fd:ac:c6:02:af:c5:01:9d:
                    cd:2d:3c:3c:44:8d:b9:7e:b0:ba:6f:0e:aa:46:00:
                    ef:95:bd:ba:c5:ea:68:e1:bf:85:a4:3f:56:e3:ed:
                    e0:f5:d4:ab:a4:e9:ac:3e:b7:bd:10:7a:63:13:1b:
                    a9:cf:a3:2b:2c:a3:af:ea:91:88:bb:48:de:87:76:
                    38:d9:ad:2e:22:0e:0b:15:70:dd:1f:93:b2:f1:a0:
                    4b:5a:ff:de:85:96:df:4c:27:38:66:89:47:7f:a6:
                    a5:75:cc:86:ad:bb:44:4b:9d:a4:fd:c4:8c:9a:39:
                    73:bc:cf:f5:08:6b:a1:dc:15:0b:66:41:bb:e4:e1:
                    0c:2a:85:e0:4e:bd:22:90:1b:2e:00:5f:7d:11:1d:
                    cf:a9:aa:95:80:7f:09:b6:32:c6:c7:ed:81:cc:8c:
                    4d:3b:c4:65:c4:74:68:85:8a:08:17:6d:d5:57:94:
                    96:24:18:3b:95:90:e5:d3:67:30:c6:96:a8:79:d7:
                    f3:ef:3a:9a:8e:12:2d:70:15:00:34:57:cf:26:83:
                    be:91:61:27:0f:dd:d6:89:54:29:e4:65:f1:cc:19:
                    ab:cb:a6:b1:5a:22:d5:3f:f5:ab:30:8d:86:aa:58:
                    85:e8:6f:b9:97:c5:fe:e9:4f:cd:70:97:3c:0e:39:
                    f2:e1
                Exponent: 65537 (0x10001)
        X509v3 extensions:
            X509v3 Basic Constraints: 
                CA:FALSE
            X509v3 Subject Key Identifier: 
                D2:74:FE:EC:CE:77:C5:44:C9:ED:C1:3F:23:9D:6C:88:BF:3E:56:CE
            X509v3 Authority Key Identifier: 
                keyid:16:13:46:AD:30:B4:78:D3:AE:01:7B:A8:FC:36:66:35:C7:F5:1A:2B
                DirName:/CN=team461-net
                serial:46:F9:F7:F5:0A:C6:23:0D:30:61:5C:6C:2A:56:33:8D:01:27:16:53

            X509v3 Extended Key Usage: 
                TLS Web Client Authentication
            X509v3 Key Usage: 
                Digital Signature
    Signature Algorithm: sha256WithRSAEncryption
         30:76:9a:e0:d5:d0:32:8b:d5:e4:a6:ac:f4:4b:72:6b:16:10:
         43:97:a4:ea:69:99:73:97:6e:2e:78:62:35:4a:1d:1e:6b:be:
         35:e8:06:4d:60:86:52:b3:1a:06:55:60:cb:5b:3e:2e:0e:6d:
         c0:f1:5b:4e:85:7e:85:b4:4b:69:36:e4:44:50:6d:2b:c5:e5:
         f6:41:4b:09:99:16:85:02:d3:4d:5f:48:c1:cb:a9:81:6c:15:
         7b:b7:02:ca:4c:c4:ef:8e:a4:90:83:01:4e:0d:26:cd:54:c1:
         d1:12:88:1b:b5:b6:ea:b7:cf:45:68:b2:42:da:99:85:49:26:
         ea:d8:d2:4a:12:22:d1:cd:a9:cb:5e:c9:16:f8:bf:04:b6:50:
         a3:50:5c:3c:3a:08:7f:09:4e:5e:c8:4e:3a:3f:99:8c:0b:b8:
         19:88:f6:35:90:48:14:59:17:49:86:e2:99:ea:8b:bf:96:53:
         46:30:50:ab:6a:f4:f8:09:75:90:6c:eb:50:b2:95:8b:dd:d2:
         d6:cd:45:5a:df:30:4f:e3:c9:a9:01:d9:1a:a9:e0:3d:9a:63:
         b9:74:ee:ab:1d:15:88:4f:ef:a5:b1:fd:79:4e:8e:a3:46:ec:
         c6:35:fe:93:e5:0b:c0:a1:11:78:b8:c2:8b:c3:dc:f0:ba:03:
         a2:f5:8a:6b
-----BEGIN CERTIFICATE-----
MIIDXTCCAkWgAwIBAgIRAJkyLZmOqBUCIM8CDgnuCG8wDQYJKoZIhvcNAQELBQAw
FjEUMBIGA1UEAwwLdGVhbTQ2MS1uZXQwHhcNMjEwOTEzMDI1NDIxWhcNMjQwODI4
MDI1NDIxWjAZMRcwFQYDVQQDDA50ZWFtNDYxLWNsaWVudDCCASIwDQYJKoZIhvcN
AQEBBQADggEPADCCAQoCggEBAK9A6kT44/2sxgKvxQGdzS08PESNuX6wum8OqkYA
75W9usXqaOG/haQ/VuPt4PXUq6TprD63vRB6YxMbqc+jKyyjr+qRiLtI3od2ONmt
LiIOCxVw3R+TsvGgS1r/3oWW30wnOGaJR3+mpXXMhq27REudpP3EjJo5c7zP9Qhr
odwVC2ZBu+ThDCqF4E69IpAbLgBffREdz6mqlYB/CbYyxsftgcyMTTvEZcR0aIWK
CBdt1VeUliQYO5WQ5dNnMMaWqHnX8+86mo4SLXAVADRXzyaDvpFhJw/d1olUKeRl
8cwZq8umsVoi1T/1qzCNhqpYhehvuZfF/ulPzXCXPA458uECAwEAAaOBojCBnzAJ
BgNVHRMEAjAAMB0GA1UdDgQWBBTSdP7sznfFRMntwT8jnWyIvz5WzjBRBgNVHSME
SjBIgBQWE0atMLR4064Be6j8NmY1x/UaK6EapBgwFjEUMBIGA1UEAwwLdGVhbTQ2
MS1uZXSCFEb59/UKxiMNMGFcbCpWM40BJxZTMBMGA1UdJQQMMAoGCCsGAQUFBwMC
MAsGA1UdDwQEAwIHgDANBgkqhkiG9w0BAQsFAAOCAQEAMHaa4NXQMovV5Kas9Ety
axYQQ5ek6mmZc5duLnhiNUodHmu+NegGTWCGUrMaBlVgy1s+Lg5twPFbToV+hbRL
aTbkRFBtK8Xl9kFLCZkWhQLTTV9IwcupgWwVe7cCykzE746kkIMBTg0mzVTB0RKI
G7W26rfPRWiyQtqZhUkm6tjSShIi0c2py17JFvi/BLZQo1BcPDoIfwlOXshOOj+Z
jAu4GYj2NZBIFFkXSYbimeqLv5ZTRjBQq2r0+Al1kGzrULKVi93S1s1FWt8wT+PJ
qQHZGqngPZpjuXTuqx0ViE/vpbH9eU6Oo0bsxjX+k+ULwKEReLjCi8Pc8LoDovWK
aw==
-----END CERTIFICATE-----
