Certificate:
    Data:
        Version: 3 (0x2)
        Serial Number:
            69:4d:eb:c1:71:40:31:94:9d:2d:ce:36:d1:ba:77:81
        Signature Algorithm: sha256WithRSAEncryption
        Issuer: CN=team243-net
        Validity
            Not Before: Sep 13 00:58:43 2021 GMT
            Not After : Aug 28 00:58:43 2024 GMT
        Subject: CN=team243-server
        Subject Public Key Info:
            Public Key Algorithm: rsaEncryption
                RSA Public-Key: (2048 bit)
                Modulus:
                    00:bc:e2:67:da:29:36:59:fd:9a:be:b8:ea:7f:c0:
                    f3:9b:22:9c:8a:80:e7:26:17:05:ce:a9:3b:d1:28:
                    e9:01:72:5d:48:3d:59:e7:d0:74:74:89:67:88:21:
                    c2:8b:c5:bd:4c:7b:ae:ce:ce:37:00:90:e2:8b:b6:
                    ca:12:dc:9a:52:e8:e8:b7:a1:0a:6b:17:83:99:06:
                    d9:f5:5b:1a:86:44:0e:d5:7b:c7:77:59:dd:27:f9:
                    9b:c4:d9:4d:fd:ab:dd:3e:a7:c7:6c:c9:66:b5:e7:
                    72:2d:3a:78:b8:d0:58:90:d3:0b:5c:29:b3:91:3e:
                    d3:6f:3b:1e:e8:b6:04:76:36:93:4a:8a:47:a1:12:
                    74:a9:ff:be:9c:76:02:cf:54:8a:6f:e5:87:8d:64:
                    8e:7e:98:37:91:3f:fb:e3:b2:71:1f:b6:d4:f5:60:
                    ad:19:ea:da:f8:42:4c:e7:8c:3e:cd:8d:6a:0a:50:
                    d9:e4:30:92:5d:58:93:f1:c9:31:fe:7c:ed:b1:85:
                    78:33:b0:e9:39:ae:02:f1:47:d8:53:99:16:70:0d:
                    09:34:da:af:7d:23:42:e1:cf:61:65:34:bc:20:ff:
                    ff:09:58:dc:40:11:54:bd:db:94:99:28:9e:82:98:
                    14:88:4d:f7:19:96:1c:e1:46:98:1e:6d:5b:f8:e1:
                    ff:cb
                Exponent: 65537 (0x10001)
        X509v3 extensions:
            X509v3 Basic Constraints: 
                CA:FALSE
            X509v3 Subject Key Identifier: 
                47:AF:C9:64:84:E4:8C:C4:F2:9A:B4:0C:28:4C:B1:C1:78:E9:95:66
            X509v3 Authority Key Identifier: 
                keyid:24:3B:93:C2:2E:38:4E:E8:AC:96:22:D8:E2:70:E8:13:2A:69:2E:37
                DirName:/CN=team243-net
                serial:3D:31:CB:16:D3:D2:FD:40:76:AC:C1:08:25:6A:C8:AD:2A:72:D7:5E

            X509v3 Extended Key Usage: 
                TLS Web Server Authentication
            X509v3 Key Usage: 
                Digital Signature, Key Encipherment
            X509v3 Subject Alternative Name: 
                DNS:team243-server
    Signature Algorithm: sha256WithRSAEncryption
         92:ab:a4:ea:53:d7:8a:d8:24:9a:a1:c5:3e:a2:5e:2d:dd:da:
         bc:ee:04:25:14:35:56:65:1a:1c:01:e8:ca:6d:f1:54:c7:30:
         79:a7:12:82:bc:0f:9f:44:f1:ae:7e:f6:aa:be:58:01:1d:f6:
         2b:1b:e7:f2:05:e0:a5:f6:a2:f1:bd:e7:bb:71:1c:93:f5:12:
         f3:17:90:9d:18:e7:02:bf:40:f3:02:c5:4b:e2:f8:dc:6e:93:
         1d:cf:dc:b7:5f:91:66:8a:50:4b:45:dd:03:01:bf:9a:65:96:
         b0:d6:9a:22:a0:34:ff:ec:2a:e4:6d:35:37:bc:e3:80:7e:08:
         ab:0a:df:e5:bb:8d:37:85:58:c0:e0:ec:bb:49:94:d0:40:c9:
         d9:3d:69:44:a6:2c:aa:86:9c:65:17:80:fc:60:7d:18:0c:fb:
         3d:dc:04:54:45:c5:5f:62:6f:19:eb:f5:a1:6a:7c:a7:13:ea:
         be:ec:9d:08:7e:83:49:d5:c9:af:17:f7:31:00:9f:f8:1d:d0:
         f2:53:66:cb:a2:e5:17:4f:fa:0c:7d:39:ee:b3:ad:23:94:90:
         e6:c6:be:b2:ff:cc:82:f9:65:19:3b:36:b8:f1:6d:98:90:8b:
         82:f6:02:6c:cc:d8:1a:75:0e:39:6d:cc:83:1a:f6:ee:b5:77:
         28:fc:89:db
-----BEGIN CERTIFICATE-----
MIIDdzCCAl+gAwIBAgIQaU3rwXFAMZSdLc420bp3gTANBgkqhkiG9w0BAQsFADAW
MRQwEgYDVQQDDAt0ZWFtMjQzLW5ldDAeFw0yMTA5MTMwMDU4NDNaFw0yNDA4Mjgw
MDU4NDNaMBkxFzAVBgNVBAMMDnRlYW0yNDMtc2VydmVyMIIBIjANBgkqhkiG9w0B
AQEFAAOCAQ8AMIIBCgKCAQEAvOJn2ik2Wf2avrjqf8DzmyKcioDnJhcFzqk70Sjp
AXJdSD1Z59B0dIlniCHCi8W9THuuzs43AJDii7bKEtyaUujot6EKaxeDmQbZ9Vsa
hkQO1XvHd1ndJ/mbxNlN/avdPqfHbMlmtedyLTp4uNBYkNMLXCmzkT7Tbzse6LYE
djaTSopHoRJ0qf++nHYCz1SKb+WHjWSOfpg3kT/747JxH7bU9WCtGera+EJM54w+
zY1qClDZ5DCSXViT8ckx/nztsYV4M7DpOa4C8UfYU5kWcA0JNNqvfSNC4c9hZTS8
IP//CVjcQBFUvduUmSiegpgUiE33GZYc4UaYHm1b+OH/ywIDAQABo4G9MIG6MAkG
A1UdEwQCMAAwHQYDVR0OBBYEFEevyWSE5IzE8pq0DChMscF46ZVmMFEGA1UdIwRK
MEiAFCQ7k8IuOE7orJYi2OJw6BMqaS43oRqkGDAWMRQwEgYDVQQDDAt0ZWFtMjQz
LW5ldIIUPTHLFtPS/UB2rMEIJWrIrSpy114wEwYDVR0lBAwwCgYIKwYBBQUHAwEw
CwYDVR0PBAQDAgWgMBkGA1UdEQQSMBCCDnRlYW0yNDMtc2VydmVyMA0GCSqGSIb3
DQEBCwUAA4IBAQCSq6TqU9eK2CSaocU+ol4t3dq87gQlFDVWZRocAejKbfFUxzB5
pxKCvA+fRPGufvaqvlgBHfYrG+fyBeCl9qLxvee7cRyT9RLzF5CdGOcCv0DzAsVL
4vjcbpMdz9y3X5FmilBLRd0DAb+aZZaw1poioDT/7CrkbTU3vOOAfgirCt/lu403
hVjA4Oy7SZTQQMnZPWlEpiyqhpxlF4D8YH0YDPs93ARURcVfYm8Z6/WhanynE+q+
7J0IfoNJ1cmvF/cxAJ/4HdDyU2bLouUXT/oMfTnus60jlJDmxr6y/8yC+WUZOza4
8W2YkIuC9gJszNgadQ45bcyDGvbutXco/Inb
-----END CERTIFICATE-----
