Certificate:
    Data:
        Version: 3 (0x2)
        Serial Number:
            9a:1c:96:2a:c8:dd:62:db:31:84:9f:ca:09:53:d8:e9
        Signature Algorithm: sha256WithRSAEncryption
        Issuer: CN=team667-net
        Validity
            Not Before: Sep 13 04:32:03 2021 GMT
            Not After : Aug 28 04:32:03 2024 GMT
        Subject: CN=team667-server
        Subject Public Key Info:
            Public Key Algorithm: rsaEncryption
                RSA Public-Key: (2048 bit)
                Modulus:
                    00:c3:87:c8:8a:9b:fc:8c:6d:f1:ce:47:df:5a:32:
                    46:44:10:74:93:a1:f6:8e:2e:70:08:20:95:33:22:
                    51:e8:ec:15:b5:4e:1b:99:ee:05:66:91:99:44:8b:
                    48:8c:be:a9:21:14:df:a1:41:6a:95:f0:a2:0c:a4:
                    43:f6:e8:75:00:7d:a5:c8:a3:35:6f:fb:53:5e:95:
                    92:b4:c0:a8:e2:b8:ee:54:ca:3c:4d:52:4c:aa:59:
                    7d:35:ef:bb:8d:95:bf:b3:18:64:16:c9:74:36:28:
                    1a:86:9d:48:d0:e1:93:f1:79:43:43:02:42:1c:28:
                    75:dc:c3:d4:78:a8:aa:62:62:c0:7f:60:27:22:49:
                    d4:b2:0f:6d:76:7a:ff:ac:d3:a1:98:9a:84:fb:fd:
                    e6:da:b3:c7:d3:98:1c:2d:c9:a6:4f:ed:29:29:f7:
                    4a:ce:23:1f:77:f7:af:18:f2:cd:cf:b2:32:dc:38:
                    10:9e:40:43:30:93:19:f7:06:b7:21:de:5d:a5:d7:
                    34:eb:a2:ed:4e:e3:ad:17:27:85:1a:82:45:0e:a2:
                    46:d3:aa:5a:69:07:d3:b2:91:87:28:0a:17:07:8b:
                    15:64:12:58:c0:0c:ea:69:1e:61:5e:e8:88:81:61:
                    0f:af:c4:85:2a:f1:4e:87:83:d6:e5:f4:23:78:0f:
                    63:73
                Exponent: 65537 (0x10001)
        X509v3 extensions:
            X509v3 Basic Constraints: 
                CA:FALSE
            X509v3 Subject Key Identifier: 
                D0:49:3D:CF:C2:CE:FC:F6:52:D7:D6:17:AB:50:55:08:84:F5:E4:CD
            X509v3 Authority Key Identifier: 
                keyid:A9:0B:F3:9E:6C:B8:5F:AE:D9:20:AC:3F:52:42:E5:6E:A2:87:D7:0B
                DirName:/CN=team667-net
                serial:1F:61:D0:03:9D:37:C1:C5:36:51:9E:C2:94:C3:3E:C0:B5:05:8E:F4

            X509v3 Extended Key Usage: 
                TLS Web Server Authentication
            X509v3 Key Usage: 
                Digital Signature, Key Encipherment
            X509v3 Subject Alternative Name: 
                DNS:team667-server
    Signature Algorithm: sha256WithRSAEncryption
         58:6a:12:5e:b3:da:3c:94:66:2c:41:c3:a3:31:fd:27:a1:2e:
         c0:35:d5:1a:69:fc:1d:00:68:7e:08:6c:79:d6:3a:83:d0:c7:
         4e:2f:a7:db:3b:d5:93:a7:61:c8:29:90:b5:23:dd:0f:68:79:
         9d:68:8a:e9:95:3b:1a:3f:19:94:74:7e:9b:93:f2:46:70:dd:
         57:56:8c:29:f4:a0:58:97:1c:9e:05:42:a0:92:9e:a6:fc:d1:
         52:c4:83:62:79:85:a7:dd:2b:b7:ec:a6:0b:22:2d:b5:86:35:
         5d:e0:09:01:31:58:9f:44:e6:b5:01:24:1e:98:8a:be:89:94:
         bb:db:8f:7e:f7:b1:37:f8:a4:f0:24:04:29:79:f2:ab:fc:8b:
         b7:fd:90:81:da:f8:0a:21:ba:3f:f2:e7:73:c7:62:15:b7:bf:
         b9:88:79:78:53:29:16:1f:e4:bd:f4:69:27:18:43:54:06:d6:
         6b:4a:5d:c4:d8:84:4a:d2:e5:58:f5:94:24:cc:04:51:49:41:
         52:a1:f7:6d:43:36:26:f1:50:35:fa:66:ea:5d:e7:ea:b9:c7:
         ed:37:70:af:02:b2:3b:0e:e3:a6:9d:77:18:27:e9:31:ce:cc:
         5f:cf:17:14:cc:0f:9b:7b:5b:21:cb:e8:04:46:a4:f0:d1:e4:
         24:7c:77:09
-----BEGIN CERTIFICATE-----
MIIDeDCCAmCgAwIBAgIRAJoclirI3WLbMYSfyglT2OkwDQYJKoZIhvcNAQELBQAw
FjEUMBIGA1UEAwwLdGVhbTY2Ny1uZXQwHhcNMjEwOTEzMDQzMjAzWhcNMjQwODI4
MDQzMjAzWjAZMRcwFQYDVQQDDA50ZWFtNjY3LXNlcnZlcjCCASIwDQYJKoZIhvcN
AQEBBQADggEPADCCAQoCggEBAMOHyIqb/Ixt8c5H31oyRkQQdJOh9o4ucAgglTMi
UejsFbVOG5nuBWaRmUSLSIy+qSEU36FBapXwogykQ/bodQB9pcijNW/7U16VkrTA
qOK47lTKPE1STKpZfTXvu42Vv7MYZBbJdDYoGoadSNDhk/F5Q0MCQhwoddzD1Hio
qmJiwH9gJyJJ1LIPbXZ6/6zToZiahPv95tqzx9OYHC3Jpk/tKSn3Ss4jH3f3rxjy
zc+yMtw4EJ5AQzCTGfcGtyHeXaXXNOui7U7jrRcnhRqCRQ6iRtOqWmkH07KRhygK
FweLFWQSWMAM6mkeYV7oiIFhD6/EhSrxToeD1uX0I3gPY3MCAwEAAaOBvTCBujAJ
BgNVHRMEAjAAMB0GA1UdDgQWBBTQST3Pws789lLX1herUFUIhPXkzTBRBgNVHSME
SjBIgBSpC/OebLhfrtkgrD9SQuVuoofXC6EapBgwFjEUMBIGA1UEAwwLdGVhbTY2
Ny1uZXSCFB9h0AOdN8HFNlGewpTDPsC1BY70MBMGA1UdJQQMMAoGCCsGAQUFBwMB
MAsGA1UdDwQEAwIFoDAZBgNVHREEEjAQgg50ZWFtNjY3LXNlcnZlcjANBgkqhkiG
9w0BAQsFAAOCAQEAWGoSXrPaPJRmLEHDozH9J6EuwDXVGmn8HQBofghsedY6g9DH
Ti+n2zvVk6dhyCmQtSPdD2h5nWiK6ZU7Gj8ZlHR+m5PyRnDdV1aMKfSgWJccngVC
oJKepvzRUsSDYnmFp90rt+ymCyIttYY1XeAJATFYn0TmtQEkHpiKvomUu9uPfvex
N/ik8CQEKXnyq/yLt/2Qgdr4CiG6P/Lnc8diFbe/uYh5eFMpFh/kvfRpJxhDVAbW
a0pdxNiEStLlWPWUJMwEUUlBUqH3bUM2JvFQNfpm6l3n6rnH7TdwrwKyOw7jpp13
GCfpMc7MX88XFMwPm3tbIcvoBEak8NHkJHx3CQ==
-----END CERTIFICATE-----
