Certificate:
    Data:
        Version: 3 (0x2)
        Serial Number:
            ce:af:1d:f3:87:8a:3c:db:eb:40:11:ca:0d:b0:1f:05
        Signature Algorithm: sha256WithRSAEncryption
        Issuer: CN=team251-net
        Validity
            Not Before: Sep 13 00:52:46 2021 GMT
            Not After : Aug 28 00:52:46 2024 GMT
        Subject: CN=team251-client
        Subject Public Key Info:
            Public Key Algorithm: rsaEncryption
                RSA Public-Key: (2048 bit)
                Modulus:
                    00:c6:9b:ff:f3:f1:9e:1c:33:da:14:cc:8a:95:81:
                    d0:19:06:76:c8:81:fd:86:48:13:de:17:5c:72:f4:
                    fe:9c:34:29:4e:03:a0:9a:75:32:cf:0e:a6:79:5d:
                    8e:9b:6a:97:d5:3e:23:45:f3:da:d7:be:6d:26:22:
                    7e:27:33:e2:ad:71:04:9d:e6:c9:9f:fa:99:eb:90:
                    81:c7:52:11:e7:bf:80:16:55:09:04:5d:83:34:9a:
                    e7:8d:4d:8f:a5:fe:7a:f9:77:e7:b7:37:ab:56:82:
                    8d:4b:8e:0b:a1:5e:cd:3d:de:0b:b7:15:0b:c3:5b:
                    e6:23:a8:86:e2:a2:ce:ae:28:6a:a7:b7:cb:fe:0b:
                    49:2f:4d:90:43:72:21:43:df:b1:67:9e:01:04:6f:
                    88:a9:a2:23:66:d8:8a:83:18:d5:4f:36:cc:1e:cf:
                    b1:c3:c9:f5:96:bd:07:db:85:e1:2f:77:29:ea:af:
                    ab:00:44:dc:2f:13:cf:1b:1b:02:d3:f7:08:21:ad:
                    1a:b8:b9:bf:bb:3f:aa:61:c9:8e:b5:8d:1c:b6:e3:
                    c8:e8:b3:7f:ca:98:f9:63:61:b9:72:d5:1e:c9:09:
                    f3:77:55:99:16:93:1a:cb:56:32:97:aa:46:37:aa:
                    27:6e:58:e5:8b:e0:c7:16:47:d6:21:cd:cb:66:72:
                    4c:b9
                Exponent: 65537 (0x10001)
        X509v3 extensions:
            X509v3 Basic Constraints: 
                CA:FALSE
            X509v3 Subject Key Identifier: 
                FE:4C:4E:55:C6:B9:68:9D:13:D5:15:1D:69:44:85:E5:D2:2D:E4:62
            X509v3 Authority Key Identifier: 
                keyid:96:8C:C6:88:22:76:66:5A:05:7B:F1:35:A3:91:FE:1C:9F:C5:8F:6A
                DirName:/CN=team251-net
                serial:25:F2:C9:C7:3E:09:89:B9:6B:27:BD:DE:68:22:74:69:E0:F0:FD:43

            X509v3 Extended Key Usage: 
                TLS Web Client Authentication
            X509v3 Key Usage: 
                Digital Signature
    Signature Algorithm: sha256WithRSAEncryption
         89:be:cd:0d:78:e4:21:01:1e:54:d0:98:66:c9:f4:dd:4d:40:
         6f:60:3a:47:20:40:94:80:e1:43:65:de:07:41:c3:62:30:26:
         8b:db:4c:8d:f3:fd:35:04:c3:0f:4d:fd:46:1d:f4:3a:af:d1:
         33:64:a1:ae:04:76:53:1a:01:42:87:ba:28:2d:68:86:c5:1c:
         e5:d5:9f:f7:2c:73:93:11:63:96:90:87:09:a6:32:e2:e7:8e:
         98:14:27:7c:c0:45:42:9b:e7:cd:6d:86:07:03:45:c9:b0:18:
         f3:fe:45:89:51:c8:f5:a2:e7:93:7b:82:12:dd:5d:94:e6:e4:
         17:fe:d7:dd:d2:51:f4:d4:42:43:76:5f:7d:c1:f4:58:59:7e:
         62:22:0c:e3:e8:b0:b4:53:a9:22:ed:8b:37:a8:f8:44:11:a8:
         22:69:5c:48:7d:3f:7c:60:e8:ee:ae:cf:35:65:33:a8:86:57:
         af:18:1e:b5:d2:44:44:6a:c3:9b:1f:00:d6:4d:d5:fc:cb:68:
         b3:20:02:ef:58:13:b3:37:fb:82:25:91:73:fd:52:eb:b6:3e:
         80:fc:7d:a3:99:1d:ae:10:d1:d3:06:2b:d6:39:8c:df:44:7b:
         55:ad:d8:9a:2b:d5:02:83:ed:2c:ca:6a:bc:19:5d:42:6b:79:
         4f:01:e6:09
-----BEGIN CERTIFICATE-----
MIIDXTCCAkWgAwIBAgIRAM6vHfOHijzb60ARyg2wHwUwDQYJKoZIhvcNAQELBQAw
FjEUMBIGA1UEAwwLdGVhbTI1MS1uZXQwHhcNMjEwOTEzMDA1MjQ2WhcNMjQwODI4
MDA1MjQ2WjAZMRcwFQYDVQQDDA50ZWFtMjUxLWNsaWVudDCCASIwDQYJKoZIhvcN
AQEBBQADggEPADCCAQoCggEBAMab//Pxnhwz2hTMipWB0BkGdsiB/YZIE94XXHL0
/pw0KU4DoJp1Ms8Opnldjptql9U+I0Xz2te+bSYificz4q1xBJ3myZ/6meuQgcdS
Eee/gBZVCQRdgzSa541Nj6X+evl357c3q1aCjUuOC6FezT3eC7cVC8Nb5iOohuKi
zq4oaqe3y/4LSS9NkENyIUPfsWeeAQRviKmiI2bYioMY1U82zB7PscPJ9Za9B9uF
4S93KeqvqwBE3C8TzxsbAtP3CCGtGri5v7s/qmHJjrWNHLbjyOizf8qY+WNhuXLV
HskJ83dVmRaTGstWMpeqRjeqJ25Y5YvgxxZH1iHNy2ZyTLkCAwEAAaOBojCBnzAJ
BgNVHRMEAjAAMB0GA1UdDgQWBBT+TE5VxrlonRPVFR1pRIXl0i3kYjBRBgNVHSME
SjBIgBSWjMaIInZmWgV78TWjkf4cn8WPaqEapBgwFjEUMBIGA1UEAwwLdGVhbTI1
MS1uZXSCFCXyycc+CYm5aye93mgidGng8P1DMBMGA1UdJQQMMAoGCCsGAQUFBwMC
MAsGA1UdDwQEAwIHgDANBgkqhkiG9w0BAQsFAAOCAQEAib7NDXjkIQEeVNCYZsn0
3U1Ab2A6RyBAlIDhQ2XeB0HDYjAmi9tMjfP9NQTDD039Rh30Oq/RM2ShrgR2UxoB
Qoe6KC1ohsUc5dWf9yxzkxFjlpCHCaYy4ueOmBQnfMBFQpvnzW2GBwNFybAY8/5F
iVHI9aLnk3uCEt1dlObkF/7X3dJR9NRCQ3ZffcH0WFl+YiIM4+iwtFOpIu2LN6j4
RBGoImlcSH0/fGDo7q7PNWUzqIZXrxgetdJERGrDmx8A1k3V/MtosyAC71gTszf7
giWRc/1S67Y+gPx9o5kdrhDR0wYr1jmM30R7Va3YmivVAoPtLMpqvBldQmt5TwHm
CQ==
-----END CERTIFICATE-----
