Certificate:
    Data:
        Version: 3 (0x2)
        Serial Number:
            57:97:e1:32:df:8d:c2:d3:ce:e9:9e:a8:52:6c:d5:86
        Signature Algorithm: sha256WithRSAEncryption
        Issuer: CN=team124-net
        Validity
            Not Before: Sep 12 23:50:48 2021 GMT
            Not After : Aug 27 23:50:48 2024 GMT
        Subject: CN=team124-server
        Subject Public Key Info:
            Public Key Algorithm: rsaEncryption
                RSA Public-Key: (2048 bit)
                Modulus:
                    00:b9:2d:a0:20:2a:a7:0d:da:bb:20:d6:66:e7:16:
                    8c:37:91:cd:1d:d6:a4:69:30:57:53:5e:3d:ba:47:
                    fe:aa:d3:e7:45:5a:de:a6:75:08:f2:19:c5:49:1a:
                    83:23:90:a8:a8:37:a1:cd:55:e5:2d:b9:2e:c2:92:
                    b4:a8:d0:3c:1b:68:ee:dd:5b:5d:34:5f:41:5a:f8:
                    21:83:cc:6d:19:28:e0:92:74:d0:61:71:56:01:cf:
                    b6:74:31:b2:6e:58:c0:49:2d:88:c7:70:3d:fd:d0:
                    1f:a6:50:51:8c:28:de:8d:f8:17:ef:ed:ca:67:ec:
                    13:c1:bc:af:e3:8c:f6:19:c0:11:75:26:fa:ef:c3:
                    43:70:4e:d5:63:a1:78:2f:3c:6f:17:88:89:6d:15:
                    4f:18:78:8a:56:a0:0a:4d:f0:54:cf:06:e7:6a:d1:
                    df:f3:de:c7:cc:57:57:f5:fe:5c:19:32:77:a7:43:
                    ab:fe:72:9b:2c:52:4b:b6:82:ca:26:b5:7e:65:2d:
                    0d:da:c1:81:32:97:5b:30:77:88:40:35:6b:9c:98:
                    23:07:9a:58:ac:6e:22:87:89:b5:5e:0b:26:2a:02:
                    33:e1:4f:20:00:2e:96:d9:e9:81:84:99:77:3d:94:
                    38:be:02:73:73:94:e3:9e:2f:aa:51:73:bc:23:42:
                    9a:ef
                Exponent: 65537 (0x10001)
        X509v3 extensions:
            X509v3 Basic Constraints: 
                CA:FALSE
            X509v3 Subject Key Identifier: 
                55:A9:07:FF:A5:9D:38:95:3C:B1:49:E3:CF:BB:4A:A2:97:FC:AB:13
            X509v3 Authority Key Identifier: 
                keyid:D9:C4:09:15:EC:05:A1:5D:5A:1F:E8:43:B3:4C:D9:45:B6:FB:D3:18
                DirName:/CN=team124-net
                serial:10:94:24:C3:D8:DF:9C:5F:59:06:3B:92:40:16:16:B0:F7:5C:24:66

            X509v3 Extended Key Usage: 
                TLS Web Server Authentication
            X509v3 Key Usage: 
                Digital Signature, Key Encipherment
            X509v3 Subject Alternative Name: 
                DNS:team124-server
    Signature Algorithm: sha256WithRSAEncryption
         6a:28:17:13:5a:64:b8:15:60:aa:eb:68:4e:5d:55:b5:89:91:
         f8:4a:8f:7f:a3:73:bb:53:73:3e:13:79:89:3f:5c:a8:98:b8:
         40:c7:d1:31:41:24:02:1d:c2:b9:00:0b:e1:5a:37:65:04:85:
         01:77:00:4a:6f:2a:46:4c:bd:a8:ce:5f:c1:ec:a9:96:39:4f:
         b4:43:e9:99:e0:a1:dc:85:b4:db:8b:b1:22:d8:59:0e:a5:fd:
         a4:47:55:7a:94:7c:bd:15:9b:e7:1a:06:bc:d1:3e:60:9c:cb:
         62:e6:6a:97:4b:29:d5:d0:40:33:0c:3d:a5:90:25:48:2e:5d:
         65:cd:fa:7f:30:24:6b:f4:69:8d:4a:70:6e:0d:2d:50:1b:e2:
         e0:fe:e1:9a:88:67:6e:69:03:ea:d3:b0:3b:16:7b:71:29:27:
         31:a5:15:08:f6:0e:08:46:4c:74:a0:67:85:d0:68:01:59:2c:
         68:a2:74:93:bb:ba:c5:ea:11:a0:84:83:05:45:3e:43:62:0d:
         2c:f1:ab:09:49:d5:37:2f:33:66:a5:65:dc:b0:67:23:80:5a:
         41:9d:13:cf:0d:04:9c:d1:9a:33:f5:76:64:d4:31:7d:2f:0a:
         66:f1:c9:32:28:26:d1:1f:8a:cc:2d:a3:ac:90:0e:bd:f1:f2:
         4b:61:71:24
-----BEGIN CERTIFICATE-----
MIIDdzCCAl+gAwIBAgIQV5fhMt+NwtPO6Z6oUmzVhjANBgkqhkiG9w0BAQsFADAW
MRQwEgYDVQQDDAt0ZWFtMTI0LW5ldDAeFw0yMTA5MTIyMzUwNDhaFw0yNDA4Mjcy
MzUwNDhaMBkxFzAVBgNVBAMMDnRlYW0xMjQtc2VydmVyMIIBIjANBgkqhkiG9w0B
AQEFAAOCAQ8AMIIBCgKCAQEAuS2gICqnDdq7INZm5xaMN5HNHdakaTBXU149ukf+
qtPnRVrepnUI8hnFSRqDI5CoqDehzVXlLbkuwpK0qNA8G2ju3VtdNF9BWvghg8xt
GSjgknTQYXFWAc+2dDGybljASS2Ix3A9/dAfplBRjCjejfgX7+3KZ+wTwbyv44z2
GcARdSb678NDcE7VY6F4LzxvF4iJbRVPGHiKVqAKTfBUzwbnatHf897HzFdX9f5c
GTJ3p0Or/nKbLFJLtoLKJrV+ZS0N2sGBMpdbMHeIQDVrnJgjB5pYrG4ih4m1Xgsm
KgIz4U8gAC6W2emBhJl3PZQ4vgJzc5Tjni+qUXO8I0Ka7wIDAQABo4G9MIG6MAkG
A1UdEwQCMAAwHQYDVR0OBBYEFFWpB/+lnTiVPLFJ48+7SqKX/KsTMFEGA1UdIwRK
MEiAFNnECRXsBaFdWh/oQ7NM2UW2+9MYoRqkGDAWMRQwEgYDVQQDDAt0ZWFtMTI0
LW5ldIIUEJQkw9jfnF9ZBjuSQBYWsPdcJGYwEwYDVR0lBAwwCgYIKwYBBQUHAwEw
CwYDVR0PBAQDAgWgMBkGA1UdEQQSMBCCDnRlYW0xMjQtc2VydmVyMA0GCSqGSIb3
DQEBCwUAA4IBAQBqKBcTWmS4FWCq62hOXVW1iZH4So9/o3O7U3M+E3mJP1yomLhA
x9ExQSQCHcK5AAvhWjdlBIUBdwBKbypGTL2ozl/B7KmWOU+0Q+mZ4KHchbTbi7Ei
2FkOpf2kR1V6lHy9FZvnGga80T5gnMti5mqXSynV0EAzDD2lkCVILl1lzfp/MCRr
9GmNSnBuDS1QG+Lg/uGaiGduaQPq07A7FntxKScxpRUI9g4IRkx0oGeF0GgBWSxo
onSTu7rF6hGghIMFRT5DYg0s8asJSdU3LzNmpWXcsGcjgFpBnRPPDQSc0Zoz9XZk
1DF9Lwpm8ckyKCbRH4rMLaOskA698fJLYXEk
-----END CERTIFICATE-----
