Certificate:
    Data:
        Version: 3 (0x2)
        Serial Number:
            ad:6a:41:ee:e3:bb:bd:ce:a0:90:3a:81:c9:04:32:0c
        Signature Algorithm: sha256WithRSAEncryption
        Issuer: CN=team124-net
        Validity
            Not Before: Sep 12 23:50:48 2021 GMT
            Not After : Aug 27 23:50:48 2024 GMT
        Subject: CN=team124-client
        Subject Public Key Info:
            Public Key Algorithm: rsaEncryption
                RSA Public-Key: (2048 bit)
                Modulus:
                    00:d7:74:98:06:bf:3b:bc:4c:0e:81:3a:b2:5f:3b:
                    1c:61:c0:29:70:b5:2c:37:17:ac:de:89:8d:b4:f6:
                    38:79:12:cc:bc:dd:cb:dc:69:21:a8:98:f0:c7:b8:
                    38:e0:b2:63:f1:f6:50:f3:a5:da:01:58:34:15:af:
                    de:ce:25:5e:1c:bc:3a:8e:e2:a9:b4:05:28:1e:35:
                    9d:1f:f7:3c:10:60:6b:3a:ea:3f:5e:a4:e0:6d:38:
                    fb:cf:4a:3d:4d:9c:03:61:42:87:c9:11:db:23:d5:
                    7b:e0:e7:44:01:65:e9:d9:9f:e7:37:b5:69:5e:3d:
                    30:97:01:d7:ef:3d:39:cd:7f:f4:9e:c7:2c:2c:ea:
                    77:fe:c2:16:4e:27:55:ba:6d:a4:17:1e:e1:af:5a:
                    ad:f7:8f:38:f5:36:cf:0a:2e:76:5a:ed:2b:a2:8c:
                    81:21:cd:eb:d9:2b:a1:ba:67:9c:e9:eb:4f:e2:6e:
                    b3:0c:8f:5c:15:1e:19:a1:07:3a:c3:d8:76:4b:f6:
                    ca:28:d5:21:3d:19:18:70:c4:60:70:56:3f:e9:f4:
                    bf:4a:16:05:3d:4b:44:13:a7:a7:1c:18:35:7a:3c:
                    ef:e6:14:37:19:14:08:50:24:c0:a8:c0:b2:b7:14:
                    14:8d:41:2c:0e:e9:2d:0d:2f:c7:5f:ae:0f:ed:94:
                    1b:4d
                Exponent: 65537 (0x10001)
        X509v3 extensions:
            X509v3 Basic Constraints: 
                CA:FALSE
            X509v3 Subject Key Identifier: 
                E2:BC:AB:A7:F7:36:D2:C1:A2:A8:F0:49:59:21:DD:CA:52:C0:EB:5C
            X509v3 Authority Key Identifier: 
                keyid:D9:C4:09:15:EC:05:A1:5D:5A:1F:E8:43:B3:4C:D9:45:B6:FB:D3:18
                DirName:/CN=team124-net
                serial:10:94:24:C3:D8:DF:9C:5F:59:06:3B:92:40:16:16:B0:F7:5C:24:66

            X509v3 Extended Key Usage: 
                TLS Web Client Authentication
            X509v3 Key Usage: 
                Digital Signature
    Signature Algorithm: sha256WithRSAEncryption
         5c:e5:17:2a:11:c0:79:4a:29:47:d1:1a:47:4b:3b:cb:2f:85:
         cb:5e:6b:11:c3:9c:04:ae:ba:28:32:f1:29:a3:1e:7a:50:ae:
         1e:eb:51:53:00:80:2a:db:d6:ee:ac:11:61:8e:f7:86:81:71:
         16:92:bf:81:50:17:20:6f:43:d5:f2:06:4f:7a:cf:a4:ee:85:
         b8:fa:9e:f0:1d:ab:09:9d:8b:63:48:3c:65:74:05:0d:cf:73:
         ca:c5:7d:83:e1:06:99:19:e7:68:6b:4a:df:1a:64:1e:12:1c:
         85:9f:ac:83:03:f2:a8:4b:72:2b:05:a4:5f:90:bd:84:47:65:
         cc:f9:f3:17:6d:a9:06:01:27:69:80:a0:3d:2e:1b:00:c6:cc:
         89:a7:74:4d:a6:fa:43:e9:d0:3d:df:30:50:e8:b3:4a:11:47:
         8c:74:33:d8:77:7e:e0:f0:c4:50:4d:b0:95:5c:ff:81:e6:10:
         1d:04:0a:58:5c:44:bf:c4:77:da:6b:8a:67:16:df:f5:5a:86:
         f4:37:8e:41:30:d3:ac:56:0b:da:43:c1:9e:23:78:10:e1:61:
         50:1c:36:2e:27:98:f2:bb:38:bb:33:79:ef:cf:89:4e:5c:f3:
         50:cb:10:9e:ba:5b:04:15:a9:53:b3:07:b0:99:f5:95:44:17:
         8b:e2:05:b3
-----BEGIN CERTIFICATE-----
MIIDXTCCAkWgAwIBAgIRAK1qQe7ju73OoJA6gckEMgwwDQYJKoZIhvcNAQELBQAw
FjEUMBIGA1UEAwwLdGVhbTEyNC1uZXQwHhcNMjEwOTEyMjM1MDQ4WhcNMjQwODI3
MjM1MDQ4WjAZMRcwFQYDVQQDDA50ZWFtMTI0LWNsaWVudDCCASIwDQYJKoZIhvcN
AQEBBQADggEPADCCAQoCggEBANd0mAa/O7xMDoE6sl87HGHAKXC1LDcXrN6JjbT2
OHkSzLzdy9xpIaiY8Me4OOCyY/H2UPOl2gFYNBWv3s4lXhy8Oo7iqbQFKB41nR/3
PBBgazrqP16k4G04+89KPU2cA2FCh8kR2yPVe+DnRAFl6dmf5ze1aV49MJcB1+89
Oc1/9J7HLCzqd/7CFk4nVbptpBce4a9arfePOPU2zwoudlrtK6KMgSHN69krobpn
nOnrT+JuswyPXBUeGaEHOsPYdkv2yijVIT0ZGHDEYHBWP+n0v0oWBT1LRBOnpxwY
NXo87+YUNxkUCFAkwKjAsrcUFI1BLA7pLQ0vx1+uD+2UG00CAwEAAaOBojCBnzAJ
BgNVHRMEAjAAMB0GA1UdDgQWBBTivKun9zbSwaKo8ElZId3KUsDrXDBRBgNVHSME
SjBIgBTZxAkV7AWhXVof6EOzTNlFtvvTGKEapBgwFjEUMBIGA1UEAwwLdGVhbTEy
NC1uZXSCFBCUJMPY35xfWQY7kkAWFrD3XCRmMBMGA1UdJQQMMAoGCCsGAQUFBwMC
MAsGA1UdDwQEAwIHgDANBgkqhkiG9w0BAQsFAAOCAQEAXOUXKhHAeUopR9EaR0s7
yy+Fy15rEcOcBK66KDLxKaMeelCuHutRUwCAKtvW7qwRYY73hoFxFpK/gVAXIG9D
1fIGT3rPpO6FuPqe8B2rCZ2LY0g8ZXQFDc9zysV9g+EGmRnnaGtK3xpkHhIchZ+s
gwPyqEtyKwWkX5C9hEdlzPnzF22pBgEnaYCgPS4bAMbMiad0Tab6Q+nQPd8wUOiz
ShFHjHQz2Hd+4PDEUE2wlVz/geYQHQQKWFxEv8R32muKZxbf9VqG9DeOQTDTrFYL
2kPBniN4EOFhUBw2LieY8rs4uzN578+JTlzzUMsQnrpbBBWpU7MHsJn1lUQXi+IF
sw==
-----END CERTIFICATE-----
