Certificate:
    Data:
        Version: 3 (0x2)
        Serial Number:
            c5:00:15:27:a2:2c:c9:24:02:69:25:51:23:5f:dd:e7
        Signature Algorithm: sha256WithRSAEncryption
        Issuer: CN=team493-net
        Validity
            Not Before: Sep 13 03:04:54 2021 GMT
            Not After : Aug 28 03:04:54 2024 GMT
        Subject: CN=team493-server
        Subject Public Key Info:
            Public Key Algorithm: rsaEncryption
                RSA Public-Key: (2048 bit)
                Modulus:
                    00:e9:b9:1b:eb:b4:10:51:c9:21:31:33:9e:ba:0e:
                    45:77:50:fe:0c:27:5c:a2:32:27:6c:bf:3c:37:84:
                    e1:86:1e:df:fd:3c:1f:6c:0b:68:47:49:0f:a6:eb:
                    ce:b8:60:d8:32:72:e7:96:32:c7:5a:38:72:e5:28:
                    80:24:97:12:62:bb:be:a0:b6:f6:21:ac:ba:4c:9e:
                    f7:d1:06:61:bd:2f:5b:0f:ee:05:3b:87:36:89:2f:
                    19:1c:bd:84:89:fc:b2:b2:cd:ff:13:7c:5e:3f:f8:
                    9d:63:6a:87:6a:3e:cf:4b:95:4e:2c:f8:4a:e6:c0:
                    e9:f3:03:9b:33:6a:61:8a:33:ac:cb:a7:14:da:d9:
                    af:26:9a:9b:ae:d1:2d:78:1d:52:d5:45:44:d3:e2:
                    9a:0c:ed:e4:85:46:ac:ff:3c:a1:2e:60:82:33:46:
                    9a:13:20:0f:c8:29:e5:6f:4c:15:7f:f8:79:37:bd:
                    14:c8:cd:7a:9d:77:1c:ca:0e:d7:f8:c9:89:3d:4a:
                    e3:62:ed:dc:15:d6:0d:10:e9:91:a8:46:99:57:a7:
                    4b:a5:62:20:e1:26:27:cb:cc:9b:aa:d2:f6:d2:5d:
                    6b:ed:a2:ae:3c:d6:31:b4:e4:cb:4e:e3:c0:f3:e5:
                    0c:4a:79:da:89:5e:3c:4a:2a:1c:23:29:59:72:a5:
                    11:5d
                Exponent: 65537 (0x10001)
        X509v3 extensions:
            X509v3 Basic Constraints: 
                CA:FALSE
            X509v3 Subject Key Identifier: 
                02:1C:43:90:88:9E:C0:DD:AB:08:19:89:1B:88:94:28:F6:43:DC:A3
            X509v3 Authority Key Identifier: 
                keyid:61:C2:8E:1C:88:8A:7C:16:FC:DE:AB:68:B3:81:61:6B:FD:FD:59:B2
                DirName:/CN=team493-net
                serial:55:C2:60:95:76:ED:01:26:19:44:9E:6A:5B:C9:F8:99:E8:24:B4:40

            X509v3 Extended Key Usage: 
                TLS Web Server Authentication
            X509v3 Key Usage: 
                Digital Signature, Key Encipherment
            X509v3 Subject Alternative Name: 
                DNS:team493-server
    Signature Algorithm: sha256WithRSAEncryption
         8b:03:34:a6:7a:a0:96:30:12:99:8f:3a:8c:80:cd:e0:fc:ad:
         23:d2:08:28:6d:44:14:50:ea:02:ac:8e:ef:e8:e0:84:b7:f5:
         a1:09:6e:88:62:67:44:53:56:09:fd:c7:1f:80:48:61:e1:08:
         93:81:ca:9a:4c:2c:e9:dc:24:36:ef:98:ae:44:3a:bf:21:a0:
         67:ff:8b:f7:8c:68:5f:7d:da:73:d6:f8:2a:39:14:54:a0:55:
         c2:01:13:7d:9e:9a:f1:4a:cc:e4:cf:10:90:ac:74:a8:4d:d4:
         84:d4:7b:5c:21:01:98:c4:3a:4d:3a:ab:56:74:20:82:be:1f:
         5e:60:60:ae:f7:fe:55:71:f4:ae:5a:f1:ef:33:d9:30:f7:54:
         ef:72:61:1a:55:e5:83:3c:38:bc:39:5a:ef:d5:4b:61:1e:d1:
         75:04:ce:06:57:3b:a7:8c:d5:4a:3d:12:5c:af:36:83:fa:6c:
         a2:1b:4f:30:61:95:ae:10:55:83:27:7e:c8:e3:b0:a8:5f:61:
         bf:72:22:74:7b:a0:3b:43:47:b2:6a:e9:5e:37:f7:66:b9:06:
         35:db:a6:7f:9d:4b:1b:cd:fc:37:f0:e3:d3:3f:3c:e7:72:5d:
         90:49:45:c0:01:64:1b:09:de:d1:79:4e:a1:66:cd:e4:20:24:
         6e:67:d6:52
-----BEGIN CERTIFICATE-----
MIIDeDCCAmCgAwIBAgIRAMUAFSeiLMkkAmklUSNf3ecwDQYJKoZIhvcNAQELBQAw
FjEUMBIGA1UEAwwLdGVhbTQ5My1uZXQwHhcNMjEwOTEzMDMwNDU0WhcNMjQwODI4
MDMwNDU0WjAZMRcwFQYDVQQDDA50ZWFtNDkzLXNlcnZlcjCCASIwDQYJKoZIhvcN
AQEBBQADggEPADCCAQoCggEBAOm5G+u0EFHJITEznroORXdQ/gwnXKIyJ2y/PDeE
4YYe3/08H2wLaEdJD6brzrhg2DJy55Yyx1o4cuUogCSXEmK7vqC29iGsukye99EG
Yb0vWw/uBTuHNokvGRy9hIn8srLN/xN8Xj/4nWNqh2o+z0uVTiz4SubA6fMDmzNq
YYozrMunFNrZryaam67RLXgdUtVFRNPimgzt5IVGrP88oS5ggjNGmhMgD8gp5W9M
FX/4eTe9FMjNep13HMoO1/jJiT1K42Lt3BXWDRDpkahGmVenS6ViIOEmJ8vMm6rS
9tJda+2irjzWMbTky07jwPPlDEp52olePEoqHCMpWXKlEV0CAwEAAaOBvTCBujAJ
BgNVHRMEAjAAMB0GA1UdDgQWBBQCHEOQiJ7A3asIGYkbiJQo9kPcozBRBgNVHSME
SjBIgBRhwo4ciIp8Fvzeq2izgWFr/f1ZsqEapBgwFjEUMBIGA1UEAwwLdGVhbTQ5
My1uZXSCFFXCYJV27QEmGUSealvJ+JnoJLRAMBMGA1UdJQQMMAoGCCsGAQUFBwMB
MAsGA1UdDwQEAwIFoDAZBgNVHREEEjAQgg50ZWFtNDkzLXNlcnZlcjANBgkqhkiG
9w0BAQsFAAOCAQEAiwM0pnqgljASmY86jIDN4PytI9IIKG1EFFDqAqyO7+jghLf1
oQluiGJnRFNWCf3HH4BIYeEIk4HKmkws6dwkNu+YrkQ6vyGgZ/+L94xoX33ac9b4
KjkUVKBVwgETfZ6a8UrM5M8QkKx0qE3UhNR7XCEBmMQ6TTqrVnQggr4fXmBgrvf+
VXH0rlrx7zPZMPdU73JhGlXlgzw4vDla79VLYR7RdQTOBlc7p4zVSj0SXK82g/ps
ohtPMGGVrhBVgyd+yOOwqF9hv3IidHugO0NHsmrpXjf3ZrkGNdumf51LG838N/Dj
0z8853JdkElFwAFkGwne0XlOoWbN5CAkbmfWUg==
-----END CERTIFICATE-----
