Certificate:
    Data:
        Version: 3 (0x2)
        Serial Number:
            cd:96:28:59:0b:69:d3:1d:e0:e4:e0:f3:5d:2b:38:9c
        Signature Algorithm: sha256WithRSAEncryption
        Issuer: CN=team344-net
        Validity
            Not Before: Sep 13 01:53:52 2021 GMT
            Not After : Aug 28 01:53:52 2024 GMT
        Subject: CN=team344-server
        Subject Public Key Info:
            Public Key Algorithm: rsaEncryption
                RSA Public-Key: (2048 bit)
                Modulus:
                    00:e5:db:00:02:ec:c9:10:e9:e3:c1:d6:dd:f2:48:
                    3a:74:d9:68:8d:f7:73:a4:94:e4:11:59:16:6e:c8:
                    90:52:2c:f3:12:85:c1:50:bb:0c:bd:dd:a6:61:9d:
                    e7:d0:12:40:63:a7:48:43:2a:5f:14:ad:3f:86:aa:
                    f7:3f:be:be:c2:75:85:6b:5d:83:35:88:33:94:a9:
                    d5:a8:0b:41:11:7b:cb:62:80:64:84:74:06:0d:0d:
                    f7:8d:38:bf:d5:02:f7:4c:59:8e:fd:83:a5:a4:7c:
                    06:5e:d4:06:e2:de:73:48:ba:69:a0:bf:63:ff:c7:
                    6c:63:45:87:76:99:bf:9d:89:ed:00:e6:59:f5:18:
                    90:53:7e:1c:7b:c4:f6:87:fe:ae:58:4f:43:52:dc:
                    c6:5b:d4:a4:fc:47:b9:c1:d9:24:9e:81:49:63:6f:
                    4e:99:b2:90:91:4b:49:6b:a7:c9:74:d7:f6:88:ec:
                    71:a8:ee:9a:d5:77:53:06:93:37:4d:c2:ba:75:9a:
                    2f:01:b7:c9:50:9c:2e:d0:56:5a:de:d0:37:2d:af:
                    76:28:60:22:70:ea:bb:e1:5b:2d:22:ee:28:5e:70:
                    af:b8:66:21:16:ab:18:2a:9a:9c:23:63:e0:d5:b1:
                    51:1f:c5:81:dc:80:ea:7e:e0:b0:ba:86:af:3f:21:
                    07:8d
                Exponent: 65537 (0x10001)
        X509v3 extensions:
            X509v3 Basic Constraints: 
                CA:FALSE
            X509v3 Subject Key Identifier: 
                0C:84:18:8A:F5:40:20:7B:38:0B:D8:ED:A0:06:CA:91:35:FE:7B:07
            X509v3 Authority Key Identifier: 
                keyid:8C:E7:63:CC:E5:B4:64:C5:37:02:28:66:EC:5E:71:AA:00:7F:9A:65
                DirName:/CN=team344-net
                serial:1A:AB:FF:4D:39:B5:2B:60:8D:48:C4:74:C2:32:37:FB:A0:30:8A:6E

            X509v3 Extended Key Usage: 
                TLS Web Server Authentication
            X509v3 Key Usage: 
                Digital Signature, Key Encipherment
            X509v3 Subject Alternative Name: 
                DNS:team344-server
    Signature Algorithm: sha256WithRSAEncryption
         cf:1d:5c:d7:7d:f4:3c:f3:84:00:52:5a:14:85:b7:13:47:17:
         ef:b8:cb:0a:8b:ae:3d:d0:b3:20:e3:ec:d8:da:b2:54:81:d5:
         b6:e3:66:60:a8:ec:26:4c:56:0a:ed:01:5d:69:ca:79:c1:13:
         82:13:7e:45:a3:15:d9:aa:a2:71:c3:22:e4:8e:5d:23:f1:34:
         42:6e:1c:33:42:3b:69:55:d9:75:18:ea:3a:2e:51:4f:78:31:
         e1:3b:f1:d7:10:cd:9e:13:ef:3b:1d:18:95:15:34:bd:03:ae:
         15:8b:9d:5f:e5:8e:0e:c9:f5:ef:8f:d6:3d:f0:06:00:3a:a9:
         51:6f:c4:77:2e:9f:64:c0:53:4e:88:0d:5b:64:a7:b5:c3:57:
         81:80:ae:2a:79:2c:69:ea:89:f7:42:27:d8:56:b6:39:17:f8:
         89:d5:9d:4b:ef:97:e1:a4:d6:e9:cc:75:6c:91:ea:a0:42:b6:
         b4:a6:2b:88:d0:8c:ce:e5:ae:b4:d6:e6:6d:f2:c8:19:8f:7c:
         60:00:12:91:7c:07:dd:e5:18:43:62:ee:62:b7:6f:ca:33:14:
         ee:2b:e6:7b:b9:53:4b:6b:e8:c8:c7:3e:03:a8:f1:84:da:5e:
         71:be:77:89:07:d0:92:e9:ab:6b:c8:d0:db:5d:73:22:53:5f:
         25:fb:5a:95
-----BEGIN CERTIFICATE-----
MIIDeDCCAmCgAwIBAgIRAM2WKFkLadMd4OTg810rOJwwDQYJKoZIhvcNAQELBQAw
FjEUMBIGA1UEAwwLdGVhbTM0NC1uZXQwHhcNMjEwOTEzMDE1MzUyWhcNMjQwODI4
MDE1MzUyWjAZMRcwFQYDVQQDDA50ZWFtMzQ0LXNlcnZlcjCCASIwDQYJKoZIhvcN
AQEBBQADggEPADCCAQoCggEBAOXbAALsyRDp48HW3fJIOnTZaI33c6SU5BFZFm7I
kFIs8xKFwVC7DL3dpmGd59ASQGOnSEMqXxStP4aq9z++vsJ1hWtdgzWIM5Sp1agL
QRF7y2KAZIR0Bg0N9404v9UC90xZjv2DpaR8Bl7UBuLec0i6aaC/Y//HbGNFh3aZ
v52J7QDmWfUYkFN+HHvE9of+rlhPQ1LcxlvUpPxHucHZJJ6BSWNvTpmykJFLSWun
yXTX9ojscajumtV3UwaTN03CunWaLwG3yVCcLtBWWt7QNy2vdihgInDqu+FbLSLu
KF5wr7hmIRarGCqanCNj4NWxUR/FgdyA6n7gsLqGrz8hB40CAwEAAaOBvTCBujAJ
BgNVHRMEAjAAMB0GA1UdDgQWBBQMhBiK9UAgezgL2O2gBsqRNf57BzBRBgNVHSME
SjBIgBSM52PM5bRkxTcCKGbsXnGqAH+aZaEapBgwFjEUMBIGA1UEAwwLdGVhbTM0
NC1uZXSCFBqr/005tStgjUjEdMIyN/ugMIpuMBMGA1UdJQQMMAoGCCsGAQUFBwMB
MAsGA1UdDwQEAwIFoDAZBgNVHREEEjAQgg50ZWFtMzQ0LXNlcnZlcjANBgkqhkiG
9w0BAQsFAAOCAQEAzx1c1330PPOEAFJaFIW3E0cX77jLCouuPdCzIOPs2NqyVIHV
tuNmYKjsJkxWCu0BXWnKecETghN+RaMV2aqiccMi5I5dI/E0Qm4cM0I7aVXZdRjq
Oi5RT3gx4Tvx1xDNnhPvOx0YlRU0vQOuFYudX+WODsn174/WPfAGADqpUW/Edy6f
ZMBTTogNW2SntcNXgYCuKnksaeqJ90In2Fa2ORf4idWdS++X4aTW6cx1bJHqoEK2
tKYriNCMzuWutNbmbfLIGY98YAASkXwH3eUYQ2LuYrdvyjMU7ivme7lTS2voyMc+
A6jxhNpecb53iQfQkumra8jQ211zIlNfJftalQ==
-----END CERTIFICATE-----
