Certificate:
    Data:
        Version: 3 (0x2)
        Serial Number:
            02:30:84:9b:a0:24:bb:71:16:81:92:6e:7e:7c:b3:76
        Signature Algorithm: sha256WithRSAEncryption
        Issuer: CN=team69-net
        Validity
            Not Before: Sep 12 23:18:55 2021 GMT
            Not After : Aug 27 23:18:55 2024 GMT
        Subject: CN=team69-server
        Subject Public Key Info:
            Public Key Algorithm: rsaEncryption
                RSA Public-Key: (2048 bit)
                Modulus:
                    00:bc:32:14:73:73:95:a4:8c:44:1e:48:72:69:45:
                    81:9a:95:21:cc:d2:07:1d:80:40:f5:79:55:c2:f6:
                    f9:30:0d:05:a3:61:c8:9a:cf:4b:30:e4:fe:05:7b:
                    d6:25:c6:b1:32:31:5a:25:47:43:fb:84:84:52:10:
                    ad:ca:fa:48:85:5b:d7:8d:83:80:f3:87:a6:ba:21:
                    55:e7:d1:27:fa:fa:ae:08:b6:18:3d:10:a3:b9:1a:
                    fa:74:3c:4d:80:b7:8a:9f:81:3b:9a:17:21:e4:12:
                    6f:12:59:05:91:be:34:00:bd:87:d4:b9:25:26:81:
                    03:7f:ff:f0:4d:42:28:b8:3c:7a:a3:a0:1a:78:d9:
                    86:cd:2f:71:3c:51:4f:2e:4c:c7:bd:55:6c:29:7e:
                    bd:16:3c:57:86:a0:45:a8:6b:be:55:f0:52:f2:f2:
                    a1:1f:5f:c0:bc:2b:2d:4b:3a:75:16:ba:c4:80:49:
                    8d:2d:57:49:e4:43:7b:f5:97:ec:b2:90:ad:d0:f6:
                    de:00:97:ca:6c:60:6a:bd:07:c7:97:9d:06:d1:de:
                    73:b0:7b:06:c7:d0:5e:f0:d4:52:07:6f:26:65:12:
                    97:51:df:54:47:b8:9e:f3:c9:1f:05:45:0b:74:20:
                    b1:c7:a5:6f:5e:93:da:22:5d:98:de:a5:df:00:8d:
                    0d:93
                Exponent: 65537 (0x10001)
        X509v3 extensions:
            X509v3 Basic Constraints: 
                CA:FALSE
            X509v3 Subject Key Identifier: 
                4B:F2:E2:6D:FB:80:09:AE:5F:49:63:0E:17:56:75:DF:5F:20:3D:B2
            X509v3 Authority Key Identifier: 
                keyid:44:C6:D6:43:54:42:BB:E9:F3:34:6F:81:89:2D:5E:92:26:D4:A5:0E
                DirName:/CN=team69-net
                serial:01:5D:B0:14:A1:6C:22:64:56:0E:DA:FF:31:E6:15:5C:89:41:99:68

            X509v3 Extended Key Usage: 
                TLS Web Server Authentication
            X509v3 Key Usage: 
                Digital Signature, Key Encipherment
            X509v3 Subject Alternative Name: 
                DNS:team69-server
    Signature Algorithm: sha256WithRSAEncryption
         78:87:2e:b8:59:10:cb:e2:d6:61:8c:54:8f:38:f6:e5:c7:d5:
         57:06:29:2e:d1:96:27:96:83:7e:41:98:f0:a6:6a:35:eb:a2:
         36:c4:aa:a6:92:2a:4e:e5:bd:e4:e2:d4:ef:88:1b:19:92:a3:
         2e:26:47:01:07:40:8a:8d:79:8b:cf:0e:3b:23:39:df:09:82:
         99:35:ed:a6:d2:c4:76:0a:b7:5e:4c:f5:6e:b1:01:cb:2e:5b:
         13:37:9e:50:ee:d3:1a:69:77:f6:69:30:63:36:a1:88:d8:dc:
         8d:4e:f9:df:d1:1f:e2:6d:8e:09:d9:92:a3:80:cb:05:e1:5c:
         ce:10:af:c9:5b:b3:b6:39:4f:d1:e3:3f:6e:55:77:2a:c9:0e:
         8b:5e:b5:85:2b:30:70:94:5f:6b:50:c3:7f:60:41:47:c9:6c:
         d6:d7:19:d6:31:91:26:76:50:ba:83:d5:98:58:cd:e2:e0:b9:
         23:04:7c:ca:bf:2c:bf:78:4a:93:e8:a1:cd:85:a6:91:a1:3e:
         43:8c:60:21:a3:e3:74:21:e7:4d:d7:10:43:e1:fb:2a:92:41:
         ed:5f:2a:a9:43:ef:89:d5:5a:a0:ab:ba:02:38:5b:ee:c1:79:
         ea:4b:d3:51:d3:9d:9c:a8:cb:cf:64:17:90:31:f8:73:1c:bb:
         c1:83:e5:72
-----BEGIN CERTIFICATE-----
MIIDczCCAlugAwIBAgIQAjCEm6Aku3EWgZJufnyzdjANBgkqhkiG9w0BAQsFADAV
MRMwEQYDVQQDDAp0ZWFtNjktbmV0MB4XDTIxMDkxMjIzMTg1NVoXDTI0MDgyNzIz
MTg1NVowGDEWMBQGA1UEAwwNdGVhbTY5LXNlcnZlcjCCASIwDQYJKoZIhvcNAQEB
BQADggEPADCCAQoCggEBALwyFHNzlaSMRB5IcmlFgZqVIczSBx2AQPV5VcL2+TAN
BaNhyJrPSzDk/gV71iXGsTIxWiVHQ/uEhFIQrcr6SIVb142DgPOHprohVefRJ/r6
rgi2GD0Qo7ka+nQ8TYC3ip+BO5oXIeQSbxJZBZG+NAC9h9S5JSaBA3//8E1CKLg8
eqOgGnjZhs0vcTxRTy5Mx71VbCl+vRY8V4agRahrvlXwUvLyoR9fwLwrLUs6dRa6
xIBJjS1XSeRDe/WX7LKQrdD23gCXymxgar0Hx5edBtHec7B7BsfQXvDUUgdvJmUS
l1HfVEe4nvPJHwVFC3Qgscelb16T2iJdmN6l3wCNDZMCAwEAAaOBuzCBuDAJBgNV
HRMEAjAAMB0GA1UdDgQWBBRL8uJt+4AJrl9JYw4XVnXfXyA9sjBQBgNVHSMESTBH
gBRExtZDVEK76fM0b4GJLV6SJtSlDqEZpBcwFTETMBEGA1UEAwwKdGVhbTY5LW5l
dIIUAV2wFKFsImRWDtr/MeYVXIlBmWgwEwYDVR0lBAwwCgYIKwYBBQUHAwEwCwYD
VR0PBAQDAgWgMBgGA1UdEQQRMA+CDXRlYW02OS1zZXJ2ZXIwDQYJKoZIhvcNAQEL
BQADggEBAHiHLrhZEMvi1mGMVI849uXH1VcGKS7RlieWg35BmPCmajXrojbEqqaS
Kk7lveTi1O+IGxmSoy4mRwEHQIqNeYvPDjsjOd8Jgpk17abSxHYKt15M9W6xAcsu
WxM3nlDu0xppd/ZpMGM2oYjY3I1O+d/RH+JtjgnZkqOAywXhXM4Qr8lbs7Y5T9Hj
P25VdyrJDotetYUrMHCUX2tQw39gQUfJbNbXGdYxkSZ2ULqD1ZhYzeLguSMEfMq/
LL94SpPooc2FppGhPkOMYCGj43Qh503XEEPh+yqSQe1fKqlD74nVWqCrugI4W+7B
eepL01HTnZyoy89kF5Ax+HMcu8GD5XI=
-----END CERTIFICATE-----
