Certificate:
    Data:
        Version: 3 (0x2)
        Serial Number:
            4b:17:41:12:0b:eb:b0:d1:2d:10:a9:3a:b6:56:89:47
        Signature Algorithm: sha256WithRSAEncryption
        Issuer: CN=team225-net
        Validity
            Not Before: Sep 13 00:35:57 2021 GMT
            Not After : Aug 28 00:35:57 2024 GMT
        Subject: CN=team225-server
        Subject Public Key Info:
            Public Key Algorithm: rsaEncryption
                RSA Public-Key: (2048 bit)
                Modulus:
                    00:cf:2f:3c:a6:f6:28:15:e3:af:90:c5:99:db:54:
                    63:44:e2:4b:6b:13:1a:03:2c:59:b3:3f:e7:58:0c:
                    f5:f1:e2:24:87:5f:c2:dd:4e:1b:43:d5:ae:2a:a1:
                    67:90:b1:41:40:4d:64:03:8f:c6:84:ec:7d:d8:0e:
                    e6:6c:54:1d:61:34:90:45:ea:0b:94:c4:98:18:97:
                    b9:66:1e:cc:53:33:14:ef:cf:fc:8f:5d:9f:e4:3f:
                    c2:23:57:75:c8:93:e0:94:0d:76:dc:d3:92:d7:82:
                    05:39:ec:ee:72:be:c1:0a:00:63:99:46:79:3e:8f:
                    93:6d:ac:0b:57:e0:46:eb:00:31:2f:22:ab:29:b4:
                    5d:a0:72:47:f8:a5:34:c5:68:38:16:20:ef:48:eb:
                    b9:87:2e:bb:fa:e3:6f:d1:04:80:d1:e9:47:9e:ab:
                    3b:82:b7:56:cf:ac:9f:fe:5b:5d:cc:58:3b:ea:82:
                    47:fe:a9:77:e4:4c:98:db:0c:24:e6:89:76:2d:92:
                    f5:01:b5:35:4a:a1:b2:be:ff:d0:a2:2b:db:c7:b9:
                    47:b4:e4:a9:a5:db:07:69:dc:36:25:08:10:48:d5:
                    b7:f2:cf:5c:bb:77:58:35:1d:9e:69:15:5b:15:4e:
                    64:e9:7c:fd:24:07:f4:37:5c:c0:1e:a3:35:40:34:
                    d0:41
                Exponent: 65537 (0x10001)
        X509v3 extensions:
            X509v3 Basic Constraints: 
                CA:FALSE
            X509v3 Subject Key Identifier: 
                51:CF:3B:E1:D7:E7:2C:34:1D:A4:F2:0A:2A:37:DD:4C:BE:B5:12:32
            X509v3 Authority Key Identifier: 
                keyid:D8:01:46:C5:11:5B:05:59:C4:CE:7E:4E:97:B1:4B:9E:0B:9A:93:4F
                DirName:/CN=team225-net
                serial:22:6B:9D:A7:D2:33:A1:A0:39:17:93:29:A9:35:0A:2B:6A:C3:C2:C0

            X509v3 Extended Key Usage: 
                TLS Web Server Authentication
            X509v3 Key Usage: 
                Digital Signature, Key Encipherment
            X509v3 Subject Alternative Name: 
                DNS:team225-server
    Signature Algorithm: sha256WithRSAEncryption
         54:9d:ae:6b:98:0b:21:7c:fc:0f:2c:a4:0f:15:a6:7e:df:32:
         ed:8b:f3:85:8d:0b:97:39:f8:2c:37:8c:e5:3a:1e:1a:c4:95:
         ff:83:33:1b:2e:cd:51:b3:90:8c:10:f5:2a:8f:2e:ac:64:43:
         44:02:f6:cd:0a:f1:24:5f:cf:10:97:1f:8b:cf:6c:65:7d:20:
         17:cc:1e:e1:6a:83:01:0c:5b:0c:24:cd:7e:3f:8e:7b:e2:20:
         5d:f4:2d:ef:b1:65:be:81:25:1f:85:b3:f0:7b:89:10:42:a8:
         1b:ff:c7:fa:44:dd:86:ca:5c:7c:d7:d8:0b:4c:c9:59:cf:38:
         12:33:63:1d:5d:58:be:8b:68:18:9d:f2:27:ff:45:98:2d:a8:
         6b:de:87:b3:74:4a:7f:e0:ee:d4:76:ac:c0:bc:14:0d:69:c4:
         b7:b5:6e:ba:7e:bd:9a:34:84:76:fc:2b:4d:c1:2a:e4:f6:11:
         76:ca:88:5c:a2:89:0b:de:39:35:36:6b:93:f1:76:78:30:6c:
         ec:c2:f5:b0:43:29:59:5d:28:5e:3d:ce:d1:f8:00:00:d0:90:
         31:77:d4:67:78:82:2b:d4:6d:bb:95:08:f9:c0:77:cc:45:48:
         b9:16:cd:6a:9c:87:1b:9f:17:ca:78:6e:2b:c4:cb:ca:a5:3a:
         8c:2d:df:bb
-----BEGIN CERTIFICATE-----
MIIDdzCCAl+gAwIBAgIQSxdBEgvrsNEtEKk6tlaJRzANBgkqhkiG9w0BAQsFADAW
MRQwEgYDVQQDDAt0ZWFtMjI1LW5ldDAeFw0yMTA5MTMwMDM1NTdaFw0yNDA4Mjgw
MDM1NTdaMBkxFzAVBgNVBAMMDnRlYW0yMjUtc2VydmVyMIIBIjANBgkqhkiG9w0B
AQEFAAOCAQ8AMIIBCgKCAQEAzy88pvYoFeOvkMWZ21RjROJLaxMaAyxZsz/nWAz1
8eIkh1/C3U4bQ9WuKqFnkLFBQE1kA4/GhOx92A7mbFQdYTSQReoLlMSYGJe5Zh7M
UzMU78/8j12f5D/CI1d1yJPglA123NOS14IFOezucr7BCgBjmUZ5Po+TbawLV+BG
6wAxLyKrKbRdoHJH+KU0xWg4FiDvSOu5hy67+uNv0QSA0elHnqs7grdWz6yf/ltd
zFg76oJH/ql35EyY2wwk5ol2LZL1AbU1SqGyvv/Qoivbx7lHtOSppdsHadw2JQgQ
SNW38s9cu3dYNR2eaRVbFU5k6Xz9JAf0N1zAHqM1QDTQQQIDAQABo4G9MIG6MAkG
A1UdEwQCMAAwHQYDVR0OBBYEFFHPO+HX5yw0HaTyCio33Uy+tRIyMFEGA1UdIwRK
MEiAFNgBRsURWwVZxM5+TpexS54LmpNPoRqkGDAWMRQwEgYDVQQDDAt0ZWFtMjI1
LW5ldIIUImudp9IzoaA5F5MpqTUKK2rDwsAwEwYDVR0lBAwwCgYIKwYBBQUHAwEw
CwYDVR0PBAQDAgWgMBkGA1UdEQQSMBCCDnRlYW0yMjUtc2VydmVyMA0GCSqGSIb3
DQEBCwUAA4IBAQBUna5rmAshfPwPLKQPFaZ+3zLti/OFjQuXOfgsN4zlOh4axJX/
gzMbLs1Rs5CMEPUqjy6sZENEAvbNCvEkX88Qlx+Lz2xlfSAXzB7haoMBDFsMJM1+
P4574iBd9C3vsWW+gSUfhbPwe4kQQqgb/8f6RN2Gylx819gLTMlZzzgSM2MdXVi+
i2gYnfIn/0WYLahr3oezdEp/4O7UdqzAvBQNacS3tW66fr2aNIR2/CtNwSrk9hF2
yohcookL3jk1NmuT8XZ4MGzswvWwQylZXShePc7R+AAA0JAxd9RneIIr1G27lQj5
wHfMRUi5Fs1qnIcbnxfKeG4rxMvKpTqMLd+7
-----END CERTIFICATE-----
