Certificate:
    Data:
        Version: 3 (0x2)
        Serial Number:
            e8:65:ce:e6:10:ae:03:2b:54:46:c2:5a:0c:4e:58:a2
        Signature Algorithm: sha256WithRSAEncryption
        Issuer: CN=team545-net
        Validity
            Not Before: Sep 13 03:45:12 2021 GMT
            Not After : Aug 28 03:45:12 2024 GMT
        Subject: CN=team545-server
        Subject Public Key Info:
            Public Key Algorithm: rsaEncryption
                RSA Public-Key: (2048 bit)
                Modulus:
                    00:c1:bc:a6:9c:80:e7:c6:8c:b2:a9:1a:6e:ab:ac:
                    71:2a:c8:ad:33:67:5a:fb:ef:8e:99:7f:09:a8:01:
                    4d:a4:71:ea:ef:f9:41:8e:c6:65:43:58:97:9a:94:
                    19:cc:b1:d9:c6:da:4b:40:89:8c:fd:b6:9b:4f:67:
                    b6:66:b8:f5:a6:bc:6a:22:39:00:b3:fb:be:f7:ae:
                    3d:04:1a:71:99:55:93:1b:67:d4:54:c8:c6:78:cc:
                    b0:de:45:53:fd:e2:40:3b:cf:34:ed:f6:79:4c:e8:
                    35:e2:b5:5d:37:2b:b2:1e:67:9a:b2:07:20:16:1a:
                    f6:3b:ca:14:7e:77:53:9c:38:a2:3f:17:4f:b4:6a:
                    01:f1:8e:39:8e:39:25:2c:54:ca:f9:43:e1:54:8d:
                    31:55:f8:1e:9f:af:36:51:7b:9e:a9:b1:25:e0:99:
                    53:60:c5:7d:f2:5b:0a:94:9f:c3:8b:31:65:cc:e4:
                    ae:92:6b:90:c2:89:74:03:13:1b:57:05:77:20:72:
                    dc:64:d9:00:d7:0a:49:82:0a:1f:01:32:61:dc:31:
                    d6:a1:e6:4a:f2:23:93:0b:43:88:09:6c:71:ce:f9:
                    8f:e9:c3:64:34:a7:fb:d2:0a:e7:13:3d:41:a4:ec:
                    61:dc:70:01:15:21:ba:cd:23:d6:ea:75:bd:52:2f:
                    bd:17
                Exponent: 65537 (0x10001)
        X509v3 extensions:
            X509v3 Basic Constraints: 
                CA:FALSE
            X509v3 Subject Key Identifier: 
                7C:B8:52:2B:EF:17:44:0E:32:78:5E:45:C1:A1:39:08:4D:B8:6A:74
            X509v3 Authority Key Identifier: 
                keyid:71:D4:73:87:96:7F:0F:0F:C7:C4:16:3E:64:35:98:66:4A:B0:BA:7E
                DirName:/CN=team545-net
                serial:58:E5:9D:6B:85:2B:CE:7D:0B:A4:90:A1:CC:1A:3D:ED:3B:E8:36:AA

            X509v3 Extended Key Usage: 
                TLS Web Server Authentication
            X509v3 Key Usage: 
                Digital Signature, Key Encipherment
            X509v3 Subject Alternative Name: 
                DNS:team545-server
    Signature Algorithm: sha256WithRSAEncryption
         26:df:1d:d7:1e:37:e5:bc:e3:0f:7c:42:bd:6f:11:43:1a:cb:
         89:40:1d:b9:67:8d:cf:22:80:24:86:81:46:11:09:54:15:5c:
         1d:d0:1d:ab:10:b6:67:85:b3:7f:ff:75:0a:18:78:e6:fb:25:
         c1:99:a3:46:52:25:65:36:9a:e7:60:0e:f8:75:cd:06:e2:a6:
         43:f7:35:4c:96:57:70:33:8b:5b:b5:87:14:b0:b0:35:7a:e9:
         98:47:3f:29:05:84:6d:d9:34:a5:b4:0b:cf:c5:ac:bf:25:d3:
         47:5e:76:64:0a:5d:d7:4c:f3:f3:11:6f:64:a9:d6:66:2b:07:
         c3:22:b5:2b:3e:b9:16:5d:99:84:92:41:41:cd:1d:4a:db:38:
         35:06:a1:86:47:00:11:c2:26:60:80:d0:1a:29:0c:de:c7:ee:
         0a:66:c9:59:0d:e4:72:3a:e1:58:da:fe:ca:6a:41:6a:ac:1d:
         98:5f:cb:40:12:ad:32:18:64:ac:fd:59:39:7e:00:a0:d8:65:
         58:52:d9:b2:33:8a:90:f8:d2:81:fb:0d:b6:52:6a:34:9a:3e:
         29:5f:e2:85:d1:09:c8:7f:e3:a2:18:57:5f:29:d1:15:23:78:
         81:76:36:15:08:c9:b4:70:6c:90:3f:53:8e:f4:15:b3:8b:36:
         50:c0:49:00
-----BEGIN CERTIFICATE-----
MIIDeDCCAmCgAwIBAgIRAOhlzuYQrgMrVEbCWgxOWKIwDQYJKoZIhvcNAQELBQAw
FjEUMBIGA1UEAwwLdGVhbTU0NS1uZXQwHhcNMjEwOTEzMDM0NTEyWhcNMjQwODI4
MDM0NTEyWjAZMRcwFQYDVQQDDA50ZWFtNTQ1LXNlcnZlcjCCASIwDQYJKoZIhvcN
AQEBBQADggEPADCCAQoCggEBAMG8ppyA58aMsqkabquscSrIrTNnWvvvjpl/CagB
TaRx6u/5QY7GZUNYl5qUGcyx2cbaS0CJjP22m09ntma49aa8aiI5ALP7vveuPQQa
cZlVkxtn1FTIxnjMsN5FU/3iQDvPNO32eUzoNeK1XTcrsh5nmrIHIBYa9jvKFH53
U5w4oj8XT7RqAfGOOY45JSxUyvlD4VSNMVX4Hp+vNlF7nqmxJeCZU2DFffJbCpSf
w4sxZczkrpJrkMKJdAMTG1cFdyBy3GTZANcKSYIKHwEyYdwx1qHmSvIjkwtDiAls
cc75j+nDZDSn+9IK5xM9QaTsYdxwARUhus0j1up1vVIvvRcCAwEAAaOBvTCBujAJ
BgNVHRMEAjAAMB0GA1UdDgQWBBR8uFIr7xdEDjJ4XkXBoTkITbhqdDBRBgNVHSME
SjBIgBRx1HOHln8PD8fEFj5kNZhmSrC6fqEapBgwFjEUMBIGA1UEAwwLdGVhbTU0
NS1uZXSCFFjlnWuFK859C6SQocwaPe076DaqMBMGA1UdJQQMMAoGCCsGAQUFBwMB
MAsGA1UdDwQEAwIFoDAZBgNVHREEEjAQgg50ZWFtNTQ1LXNlcnZlcjANBgkqhkiG
9w0BAQsFAAOCAQEAJt8d1x435bzjD3xCvW8RQxrLiUAduWeNzyKAJIaBRhEJVBVc
HdAdqxC2Z4Wzf/91Chh45vslwZmjRlIlZTaa52AO+HXNBuKmQ/c1TJZXcDOLW7WH
FLCwNXrpmEc/KQWEbdk0pbQLz8WsvyXTR152ZApd10zz8xFvZKnWZisHwyK1Kz65
Fl2ZhJJBQc0dSts4NQahhkcAEcImYIDQGikM3sfuCmbJWQ3kcjrhWNr+ympBaqwd
mF/LQBKtMhhkrP1ZOX4AoNhlWFLZsjOKkPjSgfsNtlJqNJo+KV/ihdEJyH/johhX
XynRFSN4gXY2FQjJtHBskD9TjvQVs4s2UMBJAA==
-----END CERTIFICATE-----
