Certificate:
    Data:
        Version: 3 (0x2)
        Serial Number:
            6a:df:54:fc:66:93:93:50:ad:1c:e3:99:ff:95:c8:ba
        Signature Algorithm: sha256WithRSAEncryption
        Issuer: CN=team3-net
        Validity
            Not Before: Sep 12 22:35:57 2021 GMT
            Not After : Aug 27 22:35:57 2024 GMT
        Subject: CN=team3-client
        Subject Public Key Info:
            Public Key Algorithm: rsaEncryption
                RSA Public-Key: (2048 bit)
                Modulus:
                    00:a1:8d:36:82:5a:ba:6f:27:b6:00:2d:d3:cd:7b:
                    0d:81:11:62:80:9c:19:dc:90:de:e7:59:b7:98:63:
                    22:62:39:22:57:dc:49:23:41:19:f9:60:d5:c9:ed:
                    ee:84:2e:a7:47:e4:ee:f0:00:0c:75:c4:6b:16:0c:
                    1f:ed:33:4f:fd:e6:1e:4b:e7:b0:7f:a3:8b:59:4f:
                    3e:1b:18:72:81:40:59:4c:a3:41:ca:4c:c6:9f:78:
                    2b:97:e2:e9:e2:3e:d9:ec:c9:1d:00:be:9f:d8:a6:
                    5c:07:27:4f:3b:59:3d:31:e6:4e:e1:8f:af:82:ce:
                    0f:4a:d3:f8:43:b0:25:90:26:43:00:83:1c:c3:e5:
                    90:73:04:fd:9d:f3:d4:81:69:be:dc:09:1c:06:f5:
                    c7:24:49:dd:ce:71:2f:ce:6f:0e:46:01:fd:cb:fe:
                    dd:3f:05:6e:7f:fb:6d:7f:3d:60:a6:91:f6:54:34:
                    4f:72:db:62:09:de:59:28:fd:5c:e4:ca:fe:05:75:
                    92:84:a7:c6:84:dc:35:81:b3:d2:e8:87:84:22:0b:
                    36:98:2d:aa:64:60:e7:ae:3e:89:7a:6c:51:90:89:
                    71:78:a0:bc:ec:e5:a8:32:d6:b2:e2:d5:01:c4:a8:
                    0c:a5:10:91:bd:f3:1a:7d:05:43:eb:96:9e:f7:92:
                    dc:db
                Exponent: 65537 (0x10001)
        X509v3 extensions:
            X509v3 Basic Constraints: 
                CA:FALSE
            X509v3 Subject Key Identifier: 
                B1:B6:CE:77:58:2F:A9:C9:32:85:DA:76:10:FD:D4:E1:E9:64:1B:AA
            X509v3 Authority Key Identifier: 
                keyid:3E:60:02:F8:D0:BF:42:C6:A7:73:BA:4F:B3:04:04:F3:08:4C:F2:57
                DirName:/CN=team3-net
                serial:2A:5E:8E:EB:4D:40:3F:0A:C0:DB:57:32:60:7A:0A:22:58:0C:21:14

            X509v3 Extended Key Usage: 
                TLS Web Client Authentication
            X509v3 Key Usage: 
                Digital Signature
    Signature Algorithm: sha256WithRSAEncryption
         4d:7a:b9:bc:9e:dc:02:50:77:6a:a6:db:33:02:92:8a:09:02:
         b5:4f:e9:5a:49:2a:e4:f8:bb:29:2e:f5:a3:44:38:ea:57:8a:
         a9:9d:4a:44:d6:29:df:ed:bc:fc:07:c9:48:2c:1e:3c:04:d8:
         10:da:50:77:92:29:e8:28:25:77:8d:1b:6d:9f:de:bc:fc:41:
         ce:25:01:d3:0b:0b:97:88:d1:d4:cc:e6:00:24:82:44:74:60:
         16:5b:f4:46:a7:bb:03:9a:08:4f:8a:3a:c9:58:54:6b:90:b5:
         ff:88:7a:92:95:9f:df:5f:04:5d:50:ce:0f:a9:fa:32:34:c3:
         ed:ad:21:f4:17:ae:76:ac:1d:d4:63:59:cd:33:49:8e:97:14:
         56:9c:ea:8f:9e:6c:42:98:e0:42:da:c4:45:52:d1:da:0c:c2:
         a8:65:27:bf:86:c0:98:42:da:60:90:74:d2:5a:22:6d:4d:b9:
         85:dd:3a:cc:cc:a7:e2:75:d1:e0:f7:5e:09:9b:76:92:f4:0b:
         e4:25:dd:42:d2:36:2e:eb:60:35:07:da:2f:2c:28:cd:db:c5:
         cb:4b:8c:94:f4:4b:18:7c:62:2b:a6:d3:c9:d9:14:d9:04:6f:
         27:29:7d:de:10:34:b5:e3:93:97:df:9d:15:3a:d6:cd:84:a4:
         b1:ab:db:bf
-----BEGIN CERTIFICATE-----
MIIDVjCCAj6gAwIBAgIQat9U/GaTk1CtHOOZ/5XIujANBgkqhkiG9w0BAQsFADAU
MRIwEAYDVQQDDAl0ZWFtMy1uZXQwHhcNMjEwOTEyMjIzNTU3WhcNMjQwODI3MjIz
NTU3WjAXMRUwEwYDVQQDDAx0ZWFtMy1jbGllbnQwggEiMA0GCSqGSIb3DQEBAQUA
A4IBDwAwggEKAoIBAQChjTaCWrpvJ7YALdPNew2BEWKAnBnckN7nWbeYYyJiOSJX
3EkjQRn5YNXJ7e6ELqdH5O7wAAx1xGsWDB/tM0/95h5L57B/o4tZTz4bGHKBQFlM
o0HKTMafeCuX4uniPtnsyR0Avp/YplwHJ087WT0x5k7hj6+Czg9K0/hDsCWQJkMA
gxzD5ZBzBP2d89SBab7cCRwG9cckSd3OcS/Obw5GAf3L/t0/BW5/+21/PWCmkfZU
NE9y22IJ3lko/Vzkyv4FdZKEp8aE3DWBs9Loh4QiCzaYLapkYOeuPol6bFGQiXF4
oLzs5agy1rLi1QHEqAylEJG98xp9BUPrlp73ktzbAgMBAAGjgaAwgZ0wCQYDVR0T
BAIwADAdBgNVHQ4EFgQUsbbOd1gvqckyhdp2EP3U4elkG6owTwYDVR0jBEgwRoAU
PmAC+NC/Qsanc7pPswQE8whM8lehGKQWMBQxEjAQBgNVBAMMCXRlYW0zLW5ldIIU
Kl6O601APwrA21cyYHoKIlgMIRQwEwYDVR0lBAwwCgYIKwYBBQUHAwIwCwYDVR0P
BAQDAgeAMA0GCSqGSIb3DQEBCwUAA4IBAQBNerm8ntwCUHdqptszApKKCQK1T+la
SSrk+LspLvWjRDjqV4qpnUpE1inf7bz8B8lILB48BNgQ2lB3kinoKCV3jRttn968
/EHOJQHTCwuXiNHUzOYAJIJEdGAWW/RGp7sDmghPijrJWFRrkLX/iHqSlZ/fXwRd
UM4PqfoyNMPtrSH0F652rB3UY1nNM0mOlxRWnOqPnmxCmOBC2sRFUtHaDMKoZSe/
hsCYQtpgkHTSWiJtTbmF3TrMzKfiddHg914Jm3aS9AvkJd1C0jYu62A1B9ovLCjN
28XLS4yU9EsYfGIrptPJ2RTZBG8nKX3eEDS145OX350VOtbNhKSxq9u/
-----END CERTIFICATE-----
