Certificate:
    Data:
        Version: 3 (0x2)
        Serial Number:
            93:c5:00:d7:31:0c:6d:de:c1:d8:12:1a:c0:70:d1:f6
        Signature Algorithm: sha256WithRSAEncryption
        Issuer: CN=team3-net
        Validity
            Not Before: Sep 12 22:35:58 2021 GMT
            Not After : Aug 27 22:35:58 2024 GMT
        Subject: CN=team3-server
        Subject Public Key Info:
            Public Key Algorithm: rsaEncryption
                RSA Public-Key: (2048 bit)
                Modulus:
                    00:ce:e3:c1:a5:50:ad:81:77:14:c7:91:5f:66:6b:
                    21:01:46:00:82:52:47:da:86:33:2d:1d:85:4f:f6:
                    e8:ed:96:0f:08:de:f8:3c:4d:1a:13:0f:c7:98:65:
                    e9:29:26:e1:e8:e3:36:38:ce:94:68:67:9a:8a:fc:
                    14:be:c5:af:5d:ef:5f:3a:6d:72:98:91:23:c3:0b:
                    33:2b:67:23:32:b6:ac:31:08:b5:d7:97:8c:70:ad:
                    80:4d:88:6c:02:97:4c:a6:37:72:9f:09:14:3c:dc:
                    66:15:2d:4b:54:e6:23:14:4d:83:04:1b:f2:ca:1e:
                    63:8d:22:a1:8b:1d:52:69:3e:bd:fd:50:32:4d:c0:
                    40:2f:f2:dd:8a:53:8f:c8:31:a7:00:6f:79:6d:94:
                    fb:ab:14:7e:2a:5f:3e:76:5a:27:51:4c:49:dd:b1:
                    9d:23:68:e6:c0:55:a2:11:71:f9:bd:d8:51:e6:25:
                    dc:68:01:ba:67:58:d8:07:05:01:c2:c0:98:cb:e0:
                    bc:5a:cb:f4:31:21:7d:a3:70:bc:e0:47:8c:e2:95:
                    f7:7e:93:81:6e:d1:5a:d1:0f:e5:06:dd:d5:40:c3:
                    64:27:c0:cd:cb:42:fc:94:52:9c:00:70:7e:2e:2f:
                    2d:9d:9d:b2:aa:a3:2a:a4:48:60:60:b1:3a:d2:5d:
                    dc:cd
                Exponent: 65537 (0x10001)
        X509v3 extensions:
            X509v3 Basic Constraints: 
                CA:FALSE
            X509v3 Subject Key Identifier: 
                35:D8:70:22:66:2C:CA:29:26:1B:16:B8:34:8E:8F:AF:5E:A2:40:FA
            X509v3 Authority Key Identifier: 
                keyid:3E:60:02:F8:D0:BF:42:C6:A7:73:BA:4F:B3:04:04:F3:08:4C:F2:57
                DirName:/CN=team3-net
                serial:2A:5E:8E:EB:4D:40:3F:0A:C0:DB:57:32:60:7A:0A:22:58:0C:21:14

            X509v3 Extended Key Usage: 
                TLS Web Server Authentication
            X509v3 Key Usage: 
                Digital Signature, Key Encipherment
            X509v3 Subject Alternative Name: 
                DNS:team3-server
    Signature Algorithm: sha256WithRSAEncryption
         0b:9c:cf:27:5d:35:dd:7d:0c:16:30:ab:1c:84:41:3b:39:0e:
         a7:c4:5d:9e:8c:fd:c2:51:8d:0d:f2:52:9f:b4:17:2d:66:7d:
         db:e7:d4:0c:20:07:2b:30:99:92:77:5c:88:e4:34:c0:6e:20:
         1e:2e:76:f4:c0:b8:3d:8a:ba:71:4f:22:01:52:ee:0a:26:11:
         cc:41:c6:e0:27:f8:63:df:0a:c0:fc:4f:2b:67:f7:5f:4c:28:
         70:81:93:17:c9:3a:29:23:56:d9:b9:f8:b0:d2:2b:35:86:d6:
         a0:88:b6:ba:94:77:d1:c2:65:2e:be:bc:51:c1:7f:ca:1c:ea:
         79:a3:31:78:9a:32:cb:0f:62:c5:88:66:56:8d:2f:25:95:b1:
         18:a8:a4:b4:ef:0b:80:bc:8c:f1:32:67:77:ac:e1:ed:2f:80:
         3c:8c:5a:8a:d0:5e:46:be:d7:e8:2a:6c:9b:5e:58:d6:3d:ce:
         1f:af:e8:48:30:fc:be:0f:5e:93:18:f0:c2:03:18:b5:67:a5:
         50:99:c6:2a:ad:39:26:3d:42:83:a9:d6:90:91:b5:76:c9:b0:
         05:c7:94:d8:2a:99:e5:a4:b5:ea:0f:c3:05:af:b5:38:66:aa:
         36:0c:3e:19:9f:55:31:96:b0:1f:9c:6b:2e:84:8a:5c:2b:a3:
         f4:72:4f:63
-----BEGIN CERTIFICATE-----
MIIDcDCCAligAwIBAgIRAJPFANcxDG3ewdgSGsBw0fYwDQYJKoZIhvcNAQELBQAw
FDESMBAGA1UEAwwJdGVhbTMtbmV0MB4XDTIxMDkxMjIyMzU1OFoXDTI0MDgyNzIy
MzU1OFowFzEVMBMGA1UEAwwMdGVhbTMtc2VydmVyMIIBIjANBgkqhkiG9w0BAQEF
AAOCAQ8AMIIBCgKCAQEAzuPBpVCtgXcUx5FfZmshAUYAglJH2oYzLR2FT/bo7ZYP
CN74PE0aEw/HmGXpKSbh6OM2OM6UaGeaivwUvsWvXe9fOm1ymJEjwwszK2cjMras
MQi115eMcK2ATYhsApdMpjdynwkUPNxmFS1LVOYjFE2DBBvyyh5jjSKhix1SaT69
/VAyTcBAL/LdilOPyDGnAG95bZT7qxR+Kl8+dlonUUxJ3bGdI2jmwFWiEXH5vdhR
5iXcaAG6Z1jYBwUBwsCYy+C8Wsv0MSF9o3C84EeM4pX3fpOBbtFa0Q/lBt3VQMNk
J8DNy0L8lFKcAHB+Li8tnZ2yqqMqpEhgYLE60l3czQIDAQABo4G5MIG2MAkGA1Ud
EwQCMAAwHQYDVR0OBBYEFDXYcCJmLMopJhsWuDSOj69eokD6ME8GA1UdIwRIMEaA
FD5gAvjQv0LGp3O6T7MEBPMITPJXoRikFjAUMRIwEAYDVQQDDAl0ZWFtMy1uZXSC
FCpejutNQD8KwNtXMmB6CiJYDCEUMBMGA1UdJQQMMAoGCCsGAQUFBwMBMAsGA1Ud
DwQEAwIFoDAXBgNVHREEEDAOggx0ZWFtMy1zZXJ2ZXIwDQYJKoZIhvcNAQELBQAD
ggEBAAuczyddNd19DBYwqxyEQTs5DqfEXZ6M/cJRjQ3yUp+0Fy1mfdvn1AwgBysw
mZJ3XIjkNMBuIB4udvTAuD2KunFPIgFS7gomEcxBxuAn+GPfCsD8Tytn919MKHCB
kxfJOikjVtm5+LDSKzWG1qCItrqUd9HCZS6+vFHBf8oc6nmjMXiaMssPYsWIZlaN
LyWVsRiopLTvC4C8jPEyZ3es4e0vgDyMWorQXka+1+gqbJteWNY9zh+v6Egw/L4P
XpMY8MIDGLVnpVCZxiqtOSY9QoOp1pCRtXbJsAXHlNgqmeWkteoPwwWvtThmqjYM
PhmfVTGWsB+cay6Eilwro/RyT2M=
-----END CERTIFICATE-----
