Certificate:
    Data:
        Version: 3 (0x2)
        Serial Number:
            f4:08:9b:f7:0d:eb:43:e3:6b:14:ab:01:47:db:bd:36
        Signature Algorithm: sha256WithRSAEncryption
        Issuer: CN=team555-net
        Validity
            Not Before: Sep 13 03:33:28 2021 GMT
            Not After : Aug 28 03:33:28 2024 GMT
        Subject: CN=team555-server
        Subject Public Key Info:
            Public Key Algorithm: rsaEncryption
                RSA Public-Key: (2048 bit)
                Modulus:
                    00:f0:39:b7:9d:f5:a8:d8:7b:1c:64:e7:a6:62:f1:
                    9a:00:a8:8d:f2:bb:83:e2:84:11:b4:d0:9c:85:95:
                    b8:2d:3f:35:f7:43:13:7b:8a:e2:7d:56:27:20:06:
                    3c:15:c1:69:4e:e0:16:f2:83:5e:bd:9d:36:f9:cf:
                    53:19:7e:97:08:38:85:67:5e:90:be:d1:28:e5:70:
                    42:4e:a7:f4:31:03:e2:50:fd:04:17:ee:0d:f9:8d:
                    8a:e1:47:31:cc:d6:ba:60:31:82:29:9d:9b:5b:3d:
                    ba:b9:57:02:9d:c3:80:35:dd:22:a8:d0:88:f3:07:
                    8f:e5:ff:bd:1b:99:b8:d7:bc:c0:00:21:76:19:d6:
                    45:58:c7:44:8c:71:de:bf:83:6b:6f:b0:fe:2a:37:
                    a4:fd:c0:b7:dd:1d:0b:be:fa:08:96:00:1b:32:42:
                    29:08:60:6d:b6:2c:8d:a9:7b:3c:47:5d:49:af:24:
                    df:61:8a:b8:0f:31:3e:7d:9f:5f:69:a2:f7:69:fc:
                    25:5e:04:e7:1e:94:05:40:e2:a6:67:c6:4f:78:5e:
                    96:87:f8:35:d6:0d:a0:03:05:90:33:19:10:e7:1f:
                    21:3f:75:42:cd:a0:56:37:66:07:18:7d:0b:60:d6:
                    ca:71:f5:32:a0:d6:82:53:04:ee:a1:72:b3:30:11:
                    d2:e9
                Exponent: 65537 (0x10001)
        X509v3 extensions:
            X509v3 Basic Constraints: 
                CA:FALSE
            X509v3 Subject Key Identifier: 
                CD:29:0D:60:84:25:88:B2:FD:FE:0E:70:D4:BD:EC:A7:9A:35:FC:23
            X509v3 Authority Key Identifier: 
                keyid:C2:75:1A:6B:4E:89:EE:56:9C:53:EC:13:CF:D1:AA:53:00:FA:E0:55
                DirName:/CN=team555-net
                serial:21:59:14:67:9D:DC:39:E6:BD:49:EB:52:9A:BB:5F:3B:64:91:A9:7B

            X509v3 Extended Key Usage: 
                TLS Web Server Authentication
            X509v3 Key Usage: 
                Digital Signature, Key Encipherment
            X509v3 Subject Alternative Name: 
                DNS:team555-server
    Signature Algorithm: sha256WithRSAEncryption
         74:b2:af:39:02:fd:1d:9c:0d:25:65:95:6e:5b:c2:d9:0c:f4:
         84:e5:92:be:40:50:fd:ff:bd:5f:62:95:fb:10:c2:f7:80:69:
         ba:83:28:53:58:92:c2:e6:56:34:03:9c:9a:36:92:81:60:a6:
         bf:4a:54:c9:cf:61:79:8e:c4:31:b8:87:e3:5a:a4:3d:9e:06:
         6f:28:a9:d9:41:1c:94:65:30:26:fd:5b:01:72:66:28:1d:c8:
         e5:40:32:0e:d3:cc:55:63:8e:66:e9:99:bf:fe:23:95:d4:eb:
         20:3e:d7:46:49:d6:a7:7b:1f:e1:c3:f4:f0:a8:4e:27:07:c5:
         de:77:05:27:12:40:c4:a5:4b:c9:02:dc:5b:8d:ee:f8:79:36:
         34:5f:36:07:89:e6:8c:87:16:0c:fc:b7:95:a8:be:7b:df:89:
         95:61:46:44:41:c4:63:2f:a3:4d:bb:6e:2a:f4:a8:14:15:d0:
         48:bf:7c:4b:fe:c1:68:75:a3:dc:79:30:cd:c1:b5:00:5d:6f:
         80:36:8e:18:3e:9d:11:38:a2:cc:77:b0:56:aa:0b:1a:42:66:
         e5:c1:93:af:52:97:b2:86:a5:99:e7:fe:95:3d:ff:a7:dd:b4:
         d7:8f:cd:1e:5b:fd:c3:db:95:e2:10:21:21:01:b0:fc:9c:50:
         28:8f:7f:12
-----BEGIN CERTIFICATE-----
MIIDeDCCAmCgAwIBAgIRAPQIm/cN60PjaxSrAUfbvTYwDQYJKoZIhvcNAQELBQAw
FjEUMBIGA1UEAwwLdGVhbTU1NS1uZXQwHhcNMjEwOTEzMDMzMzI4WhcNMjQwODI4
MDMzMzI4WjAZMRcwFQYDVQQDDA50ZWFtNTU1LXNlcnZlcjCCASIwDQYJKoZIhvcN
AQEBBQADggEPADCCAQoCggEBAPA5t531qNh7HGTnpmLxmgCojfK7g+KEEbTQnIWV
uC0/NfdDE3uK4n1WJyAGPBXBaU7gFvKDXr2dNvnPUxl+lwg4hWdekL7RKOVwQk6n
9DED4lD9BBfuDfmNiuFHMczWumAxgimdm1s9urlXAp3DgDXdIqjQiPMHj+X/vRuZ
uNe8wAAhdhnWRVjHRIxx3r+Da2+w/io3pP3At90dC776CJYAGzJCKQhgbbYsjal7
PEddSa8k32GKuA8xPn2fX2mi92n8JV4E5x6UBUDipmfGT3helof4NdYNoAMFkDMZ
EOcfIT91Qs2gVjdmBxh9C2DWynH1MqDWglME7qFyszAR0ukCAwEAAaOBvTCBujAJ
BgNVHRMEAjAAMB0GA1UdDgQWBBTNKQ1ghCWIsv3+DnDUveynmjX8IzBRBgNVHSME
SjBIgBTCdRprTonuVpxT7BPP0apTAPrgVaEapBgwFjEUMBIGA1UEAwwLdGVhbTU1
NS1uZXSCFCFZFGed3DnmvUnrUpq7Xztkkal7MBMGA1UdJQQMMAoGCCsGAQUFBwMB
MAsGA1UdDwQEAwIFoDAZBgNVHREEEjAQgg50ZWFtNTU1LXNlcnZlcjANBgkqhkiG
9w0BAQsFAAOCAQEAdLKvOQL9HZwNJWWVblvC2Qz0hOWSvkBQ/f+9X2KV+xDC94Bp
uoMoU1iSwuZWNAOcmjaSgWCmv0pUyc9heY7EMbiH41qkPZ4Gbyip2UEclGUwJv1b
AXJmKB3I5UAyDtPMVWOOZumZv/4jldTrID7XRknWp3sf4cP08KhOJwfF3ncFJxJA
xKVLyQLcW43u+Hk2NF82B4nmjIcWDPy3lai+e9+JlWFGREHEYy+jTbtuKvSoFBXQ
SL98S/7BaHWj3HkwzcG1AF1vgDaOGD6dETiizHewVqoLGkJm5cGTr1KXsoalmef+
lT3/p92014/NHlv9w9uV4hAhIQGw/JxQKI9/Eg==
-----END CERTIFICATE-----
