Certificate:
    Data:
        Version: 3 (0x2)
        Serial Number:
            ee:06:e0:e1:fb:f6:68:2d:d9:38:3d:ed:ad:a0:90:e9
        Signature Algorithm: sha256WithRSAEncryption
        Issuer: CN=team204-net
        Validity
            Not Before: Sep 13 00:30:09 2021 GMT
            Not After : Aug 28 00:30:09 2024 GMT
        Subject: CN=team204-client
        Subject Public Key Info:
            Public Key Algorithm: rsaEncryption
                RSA Public-Key: (2048 bit)
                Modulus:
                    00:ef:a4:be:b3:17:97:bb:47:dc:47:ea:04:3d:5b:
                    57:42:1b:d0:c4:21:17:0f:cd:c5:58:34:57:dc:94:
                    df:4c:7d:cb:0b:82:ed:c5:43:7b:a5:ad:bb:8c:b5:
                    17:49:1b:60:59:4c:5c:9c:10:e9:a9:c6:2f:03:b1:
                    fb:4c:b5:21:d8:7a:be:9b:87:34:c0:84:0e:e1:f0:
                    7c:3e:68:67:3d:29:93:78:8c:a6:c0:ce:3c:ad:d8:
                    16:ad:38:43:e3:32:98:91:57:54:c1:93:ff:d0:33:
                    93:07:77:9d:ae:65:03:30:58:77:2b:ea:90:c7:6d:
                    07:24:fc:0d:51:46:d0:6f:f3:64:ad:a0:ad:fd:6a:
                    12:0e:96:99:82:67:46:91:72:69:11:71:ae:04:59:
                    3f:1d:00:20:35:1a:5c:e6:04:dd:b4:d4:8c:fe:f5:
                    b7:d1:22:92:6b:bc:62:b3:29:d7:c6:73:83:ed:33:
                    d6:6d:36:25:6b:ab:1a:d0:5b:cd:60:4d:c4:56:db:
                    f8:58:45:bd:59:e1:a6:0a:e3:89:ab:bc:bf:c9:2c:
                    1b:07:6e:20:a5:da:b6:a8:36:00:b0:bf:7c:f8:21:
                    42:61:52:cf:92:7b:c0:a4:d8:65:7b:da:12:ba:36:
                    0d:d2:0f:8b:18:b1:fe:ce:63:71:c2:b0:b7:ae:5c:
                    77:97
                Exponent: 65537 (0x10001)
        X509v3 extensions:
            X509v3 Basic Constraints: 
                CA:FALSE
            X509v3 Subject Key Identifier: 
                9B:4B:99:6A:AA:4C:BC:EA:6E:0F:11:FF:00:D1:12:D3:F6:40:7D:B2
            X509v3 Authority Key Identifier: 
                keyid:14:27:0E:B2:F6:15:2E:61:4F:BC:AC:F4:BE:37:F9:A1:B5:E4:AD:3A
                DirName:/CN=team204-net
                serial:4B:63:BD:3D:7B:75:9C:47:57:D0:22:86:EB:93:F2:4D:C6:EF:CE:F4

            X509v3 Extended Key Usage: 
                TLS Web Client Authentication
            X509v3 Key Usage: 
                Digital Signature
    Signature Algorithm: sha256WithRSAEncryption
         ac:5e:7a:41:9f:56:fa:70:2e:18:1e:b2:4b:51:32:97:f7:3b:
         61:79:e0:01:ee:ab:7f:83:4d:f8:67:2b:48:2f:8c:b5:89:1c:
         59:d6:c5:ad:22:0a:93:be:21:9f:d6:f3:ac:2e:8c:49:f2:4d:
         44:99:2d:aa:37:28:dd:2a:e1:d8:2f:7a:fa:a0:58:41:ae:ef:
         80:27:b6:ad:37:e0:5b:51:e5:85:bc:fe:22:a1:84:fd:e1:d4:
         b7:af:d7:93:b0:be:b8:1e:e1:f1:2a:a4:cd:49:86:35:4e:a5:
         25:50:e6:09:3f:a9:4e:4e:84:cf:9c:b0:7d:c0:f3:85:08:9c:
         7c:de:42:28:47:99:54:72:03:98:6a:d1:b8:25:a7:8d:55:a8:
         af:80:1d:22:87:0a:7f:92:a2:5f:f2:07:4d:c4:15:a1:f3:1c:
         2b:c5:6f:89:ed:6d:ce:73:b6:b1:f0:e8:65:e3:29:44:65:e0:
         39:71:09:fe:d1:46:79:8b:25:7d:78:e5:ec:ba:f8:13:73:d5:
         3e:90:8f:be:55:2e:08:14:27:49:fe:23:e7:c0:c4:5a:9c:03:
         07:b3:4b:c2:5d:4f:5e:1b:4e:6b:63:9a:af:10:e2:19:21:2e:
         2f:df:f5:63:ac:df:a4:b8:ac:1c:00:3e:bc:ab:e1:f4:1c:8b:
         12:b5:cb:76
-----BEGIN CERTIFICATE-----
MIIDXTCCAkWgAwIBAgIRAO4G4OH79mgt2Tg97a2gkOkwDQYJKoZIhvcNAQELBQAw
FjEUMBIGA1UEAwwLdGVhbTIwNC1uZXQwHhcNMjEwOTEzMDAzMDA5WhcNMjQwODI4
MDAzMDA5WjAZMRcwFQYDVQQDDA50ZWFtMjA0LWNsaWVudDCCASIwDQYJKoZIhvcN
AQEBBQADggEPADCCAQoCggEBAO+kvrMXl7tH3EfqBD1bV0Ib0MQhFw/NxVg0V9yU
30x9ywuC7cVDe6Wtu4y1F0kbYFlMXJwQ6anGLwOx+0y1Idh6vpuHNMCEDuHwfD5o
Zz0pk3iMpsDOPK3YFq04Q+MymJFXVMGT/9Azkwd3na5lAzBYdyvqkMdtByT8DVFG
0G/zZK2grf1qEg6WmYJnRpFyaRFxrgRZPx0AIDUaXOYE3bTUjP71t9Eikmu8YrMp
18Zzg+0z1m02JWurGtBbzWBNxFbb+FhFvVnhpgrjiau8v8ksGwduIKXatqg2ALC/
fPghQmFSz5J7wKTYZXvaEro2DdIPixix/s5jccKwt65cd5cCAwEAAaOBojCBnzAJ
BgNVHRMEAjAAMB0GA1UdDgQWBBSbS5lqqky86m4PEf8A0RLT9kB9sjBRBgNVHSME
SjBIgBQUJw6y9hUuYU+8rPS+N/mhteStOqEapBgwFjEUMBIGA1UEAwwLdGVhbTIw
NC1uZXSCFEtjvT17dZxHV9AihuuT8k3G7870MBMGA1UdJQQMMAoGCCsGAQUFBwMC
MAsGA1UdDwQEAwIHgDANBgkqhkiG9w0BAQsFAAOCAQEArF56QZ9W+nAuGB6yS1Ey
l/c7YXngAe6rf4NN+GcrSC+MtYkcWdbFrSIKk74hn9bzrC6MSfJNRJktqjco3Srh
2C96+qBYQa7vgCe2rTfgW1Hlhbz+IqGE/eHUt6/Xk7C+uB7h8SqkzUmGNU6lJVDm
CT+pTk6Ez5ywfcDzhQicfN5CKEeZVHIDmGrRuCWnjVWor4AdIocKf5KiX/IHTcQV
ofMcK8Vvie1tznO2sfDoZeMpRGXgOXEJ/tFGeYslfXjl7Lr4E3PVPpCPvlUuCBQn
Sf4j58DEWpwDB7NLwl1PXhtOa2OarxDiGSEuL9/1Y6zfpLisHAA+vKvh9ByLErXL
dg==
-----END CERTIFICATE-----
