Certificate:
    Data:
        Version: 3 (0x2)
        Serial Number:
            87:67:d5:84:b8:86:c1:f3:11:ea:9b:34:71:7d:a0:a1
        Signature Algorithm: sha256WithRSAEncryption
        Issuer: CN=team143-net
        Validity
            Not Before: Sep 13 00:01:02 2021 GMT
            Not After : Aug 28 00:01:02 2024 GMT
        Subject: CN=team143-server
        Subject Public Key Info:
            Public Key Algorithm: rsaEncryption
                RSA Public-Key: (2048 bit)
                Modulus:
                    00:e2:cc:5b:6a:2c:36:6f:2c:8e:5d:5c:c7:b6:03:
                    27:38:35:be:f9:61:db:15:34:15:38:a7:d6:d6:ea:
                    23:ec:28:d5:c8:54:10:ab:ca:80:ae:20:de:c5:72:
                    89:1d:69:7b:ad:18:f1:0f:15:d9:7d:93:2c:c9:b8:
                    a3:52:7b:31:ad:bb:49:3f:ef:da:42:7b:6c:b6:67:
                    78:13:19:f0:08:4e:34:70:71:98:a2:fa:1d:12:e7:
                    c6:84:62:ab:ee:20:2b:49:a4:1f:3a:d5:4d:31:ad:
                    c6:4c:a2:f7:56:84:2e:cf:66:02:82:f8:91:a6:ce:
                    db:3b:80:11:00:74:57:c0:16:3a:51:e6:d7:c4:5a:
                    a9:6b:ff:24:ca:01:08:cc:d1:bb:b0:20:eb:57:b5:
                    b4:86:03:14:29:80:8c:b6:7a:dd:0c:b3:23:b7:59:
                    a6:e0:88:e4:15:40:07:da:e9:83:94:2f:38:1b:2c:
                    9e:c0:10:a9:4a:e8:2f:db:33:13:64:6b:ed:d1:95:
                    26:fd:5c:f7:9d:0f:6d:b8:7a:18:89:83:44:1c:0b:
                    be:82:f6:a5:bf:4c:0c:83:49:f5:2e:4f:dd:2e:1a:
                    16:24:41:b0:1d:47:6c:63:b7:68:cb:7f:fc:15:53:
                    42:b2:74:7f:b2:75:8a:73:ff:ce:43:85:5e:9e:88:
                    3a:73
                Exponent: 65537 (0x10001)
        X509v3 extensions:
            X509v3 Basic Constraints: 
                CA:FALSE
            X509v3 Subject Key Identifier: 
                27:74:23:17:55:02:5B:E6:B3:71:B4:A8:61:D6:B5:2D:10:C6:3E:02
            X509v3 Authority Key Identifier: 
                keyid:2D:56:37:A4:01:CC:9F:FA:39:E6:A5:2E:2E:2F:88:89:57:0C:00:B8
                DirName:/CN=team143-net
                serial:01:CE:A8:37:DA:98:BF:A8:BE:5C:33:50:EC:9B:FF:B8:3B:4C:52:AB

            X509v3 Extended Key Usage: 
                TLS Web Server Authentication
            X509v3 Key Usage: 
                Digital Signature, Key Encipherment
            X509v3 Subject Alternative Name: 
                DNS:team143-server
    Signature Algorithm: sha256WithRSAEncryption
         99:1c:d2:e9:13:05:aa:20:87:44:77:ea:fe:7f:80:62:d5:57:
         6e:4d:ad:95:00:94:8f:c8:11:19:7c:0d:af:6b:02:02:8e:5c:
         94:e0:70:13:9f:a5:f0:c7:af:61:d6:3c:98:92:79:69:8f:96:
         f8:e9:ac:bb:ed:2b:24:28:0a:11:b7:33:43:97:56:d3:a6:a5:
         59:da:cf:23:b3:1f:7a:53:d3:01:d7:cf:a4:ba:3a:21:be:89:
         e2:1f:7b:3e:04:be:96:3e:00:cb:2f:74:d6:2e:9e:bc:1f:4d:
         bc:6d:78:98:a6:4a:33:9a:42:4b:09:c8:2c:48:e2:30:92:df:
         0c:19:d5:40:b9:a3:b7:23:92:39:40:4c:89:21:c7:74:8f:7a:
         65:90:90:7a:2b:39:d9:38:bb:99:6c:bd:a2:af:d7:22:d9:c5:
         cf:11:8e:fd:89:30:92:29:c8:c4:c1:0e:4d:71:cc:9f:dd:4e:
         41:8c:c8:a1:42:cb:b7:86:86:1e:40:95:42:cb:da:9b:e3:55:
         1f:c2:17:c7:8a:a9:d7:66:3f:c7:4f:96:a3:ae:7b:b9:64:5d:
         ee:d3:f0:c1:e1:a5:2c:a3:77:c7:91:5a:2c:b2:fc:e0:92:3f:
         6a:c9:32:33:82:5e:af:10:c0:cf:d7:ca:1b:e1:b2:8d:d8:0a:
         b3:48:3c:5c
-----BEGIN CERTIFICATE-----
MIIDeDCCAmCgAwIBAgIRAIdn1YS4hsHzEeqbNHF9oKEwDQYJKoZIhvcNAQELBQAw
FjEUMBIGA1UEAwwLdGVhbTE0My1uZXQwHhcNMjEwOTEzMDAwMTAyWhcNMjQwODI4
MDAwMTAyWjAZMRcwFQYDVQQDDA50ZWFtMTQzLXNlcnZlcjCCASIwDQYJKoZIhvcN
AQEBBQADggEPADCCAQoCggEBAOLMW2osNm8sjl1cx7YDJzg1vvlh2xU0FTin1tbq
I+wo1chUEKvKgK4g3sVyiR1pe60Y8Q8V2X2TLMm4o1J7Ma27ST/v2kJ7bLZneBMZ
8AhONHBxmKL6HRLnxoRiq+4gK0mkHzrVTTGtxkyi91aELs9mAoL4kabO2zuAEQB0
V8AWOlHm18RaqWv/JMoBCMzRu7Ag61e1tIYDFCmAjLZ63QyzI7dZpuCI5BVAB9rp
g5QvOBssnsAQqUroL9szE2Rr7dGVJv1c950Pbbh6GImDRBwLvoL2pb9MDINJ9S5P
3S4aFiRBsB1HbGO3aMt//BVTQrJ0f7J1inP/zkOFXp6IOnMCAwEAAaOBvTCBujAJ
BgNVHRMEAjAAMB0GA1UdDgQWBBQndCMXVQJb5rNxtKhh1rUtEMY+AjBRBgNVHSME
SjBIgBQtVjekAcyf+jnmpS4uL4iJVwwAuKEapBgwFjEUMBIGA1UEAwwLdGVhbTE0
My1uZXSCFAHOqDfamL+ovlwzUOyb/7g7TFKrMBMGA1UdJQQMMAoGCCsGAQUFBwMB
MAsGA1UdDwQEAwIFoDAZBgNVHREEEjAQgg50ZWFtMTQzLXNlcnZlcjANBgkqhkiG
9w0BAQsFAAOCAQEAmRzS6RMFqiCHRHfq/n+AYtVXbk2tlQCUj8gRGXwNr2sCAo5c
lOBwE5+l8MevYdY8mJJ5aY+W+Omsu+0rJCgKEbczQ5dW06alWdrPI7MfelPTAdfP
pLo6Ib6J4h97PgS+lj4Ayy901i6evB9NvG14mKZKM5pCSwnILEjiMJLfDBnVQLmj
tyOSOUBMiSHHdI96ZZCQeis52Ti7mWy9oq/XItnFzxGO/YkwkinIxMEOTXHMn91O
QYzIoULLt4aGHkCVQsvam+NVH8IXx4qp12Y/x0+Wo657uWRd7tPwweGlLKN3x5Fa
LLL84JI/askyM4JerxDAz9fKG+GyjdgKs0g8XA==
-----END CERTIFICATE-----
