Certificate:
    Data:
        Version: 3 (0x2)
        Serial Number:
            7b:73:2e:a1:e8:2f:ef:62:c8:c1:cd:55:d1:6f:e6:2b
        Signature Algorithm: sha256WithRSAEncryption
        Issuer: CN=team593-net
        Validity
            Not Before: Sep 13 03:58:09 2021 GMT
            Not After : Aug 28 03:58:09 2024 GMT
        Subject: CN=team593-client
        Subject Public Key Info:
            Public Key Algorithm: rsaEncryption
                RSA Public-Key: (2048 bit)
                Modulus:
                    00:e3:4e:79:e4:4e:38:4d:bf:58:7b:da:df:c9:2e:
                    d7:b8:36:d9:1d:74:44:eb:a2:be:0c:86:d9:b3:f4:
                    c4:4a:c4:df:83:02:3f:7a:7a:98:f1:24:d4:c0:79:
                    a7:60:01:67:27:85:1b:93:ca:ff:96:e6:22:af:33:
                    95:51:7e:a1:e0:a4:04:c0:c1:77:bf:91:e6:ae:d4:
                    e1:b1:f5:93:cc:49:68:12:e3:2c:a5:7f:4d:ad:56:
                    3d:fe:20:2f:b4:a1:d7:4d:88:42:c0:bd:1a:85:c3:
                    68:24:09:58:da:7d:fd:7e:43:0d:0b:bd:57:2b:e6:
                    be:22:1b:61:59:b8:26:a0:2e:3e:63:2f:b6:37:30:
                    91:70:dc:e2:d1:0e:34:1b:7d:b3:fa:66:90:b4:58:
                    85:7f:d1:bc:54:f2:f9:c0:12:16:7b:7c:e1:5e:b0:
                    a6:43:d7:9b:7e:01:79:c0:7a:f3:7b:b4:9a:04:44:
                    77:68:bc:9f:2a:8f:f0:ef:db:06:b9:c7:93:f7:8c:
                    22:68:7d:58:e2:8b:b9:c2:97:14:77:c6:a9:1e:f8:
                    a1:de:db:3f:d1:a9:ba:79:32:40:83:7c:f0:51:04:
                    e1:a7:c8:8b:d9:cd:fd:da:96:dd:90:00:38:a7:3d:
                    e9:c1:c4:23:03:3a:d0:8a:a4:aa:de:6b:19:37:2d:
                    44:57
                Exponent: 65537 (0x10001)
        X509v3 extensions:
            X509v3 Basic Constraints: 
                CA:FALSE
            X509v3 Subject Key Identifier: 
                22:6A:B8:73:99:20:00:F1:99:F4:90:F6:BB:D2:A3:9B:E1:BC:73:48
            X509v3 Authority Key Identifier: 
                keyid:13:EF:3E:4F:16:DC:08:BC:0F:6D:0C:45:5D:81:5A:23:DC:58:BA:9E
                DirName:/CN=team593-net
                serial:3D:50:C0:C5:F3:4B:18:B4:E1:E6:CA:9E:B1:4A:A9:62:1A:FD:B2:AC

            X509v3 Extended Key Usage: 
                TLS Web Client Authentication
            X509v3 Key Usage: 
                Digital Signature
    Signature Algorithm: sha256WithRSAEncryption
         6b:8a:5c:93:d2:5c:7f:51:52:cb:aa:ff:bb:49:b0:31:dd:e9:
         23:e8:b2:0a:ca:dc:53:9f:5f:6b:0d:a7:87:87:19:3a:bf:0e:
         9b:67:2a:c8:46:34:0e:66:85:10:bf:a2:f4:be:48:5b:63:b3:
         44:7b:58:f2:fb:d4:5e:83:ea:9b:81:23:ef:bf:9e:73:e3:f0:
         cc:a0:58:9f:a8:2a:b6:8d:6a:48:dc:d2:92:99:51:fc:cf:28:
         9e:90:e3:91:ce:8d:e3:1d:3c:ab:e2:87:a8:01:f7:04:5a:dd:
         03:e1:03:ce:0b:4a:49:83:d1:7c:8f:5c:30:9e:e7:c7:cf:58:
         20:fb:22:6d:24:b9:01:fb:2b:ce:a7:a1:6d:95:05:c5:f2:b8:
         17:74:e0:02:a9:4a:d8:70:47:8f:48:3b:a8:06:cb:0d:04:03:
         a2:83:db:e2:8e:3e:c5:20:23:98:73:ed:26:02:b6:25:db:8c:
         20:da:c3:b1:ba:01:ae:7c:91:9b:c4:86:21:4c:8f:ad:63:e5:
         cd:3f:92:28:53:2a:b5:d5:10:54:e1:7d:fe:66:12:26:67:93:
         8f:2a:e4:3d:61:67:27:0e:29:aa:be:f2:9a:8a:7c:be:f2:22:
         23:e9:13:20:fc:05:b3:c9:61:aa:75:38:81:8f:52:c4:5b:fd:
         c3:e5:f8:cf
-----BEGIN CERTIFICATE-----
MIIDXDCCAkSgAwIBAgIQe3Muoegv72LIwc1V0W/mKzANBgkqhkiG9w0BAQsFADAW
MRQwEgYDVQQDDAt0ZWFtNTkzLW5ldDAeFw0yMTA5MTMwMzU4MDlaFw0yNDA4Mjgw
MzU4MDlaMBkxFzAVBgNVBAMMDnRlYW01OTMtY2xpZW50MIIBIjANBgkqhkiG9w0B
AQEFAAOCAQ8AMIIBCgKCAQEA40555E44Tb9Ye9rfyS7XuDbZHXRE66K+DIbZs/TE
SsTfgwI/enqY8STUwHmnYAFnJ4Ubk8r/luYirzOVUX6h4KQEwMF3v5HmrtThsfWT
zEloEuMspX9NrVY9/iAvtKHXTYhCwL0ahcNoJAlY2n39fkMNC71XK+a+IhthWbgm
oC4+Yy+2NzCRcNzi0Q40G32z+maQtFiFf9G8VPL5wBIWe3zhXrCmQ9ebfgF5wHrz
e7SaBER3aLyfKo/w79sGuceT94wiaH1Y4ou5wpcUd8apHvih3ts/0am6eTJAg3zw
UQThp8iL2c392pbdkAA4pz3pwcQjAzrQiqSq3msZNy1EVwIDAQABo4GiMIGfMAkG
A1UdEwQCMAAwHQYDVR0OBBYEFCJquHOZIADxmfSQ9rvSo5vhvHNIMFEGA1UdIwRK
MEiAFBPvPk8W3Ai8D20MRV2BWiPcWLqeoRqkGDAWMRQwEgYDVQQDDAt0ZWFtNTkz
LW5ldIIUPVDAxfNLGLTh5sqesUqpYhr9sqwwEwYDVR0lBAwwCgYIKwYBBQUHAwIw
CwYDVR0PBAQDAgeAMA0GCSqGSIb3DQEBCwUAA4IBAQBrilyT0lx/UVLLqv+7SbAx
3ekj6LIKytxTn19rDaeHhxk6vw6bZyrIRjQOZoUQv6L0vkhbY7NEe1jy+9Reg+qb
gSPvv55z4/DMoFifqCq2jWpI3NKSmVH8zyiekOORzo3jHTyr4oeoAfcEWt0D4QPO
C0pJg9F8j1wwnufHz1gg+yJtJLkB+yvOp6FtlQXF8rgXdOACqUrYcEePSDuoBssN
BAOig9vijj7FICOYc+0mArYl24wg2sOxugGufJGbxIYhTI+tY+XNP5IoUyq11RBU
4X3+ZhImZ5OPKuQ9YWcnDimqvvKainy+8iIj6RMg/AWzyWGqdTiBj1LEW/3D5fjP
-----END CERTIFICATE-----
