Certificate:
    Data:
        Version: 3 (0x2)
        Serial Number:
            09:71:42:6a:2d:66:59:d8:87:2b:b6:c9:69:48:02:68
        Signature Algorithm: sha256WithRSAEncryption
        Issuer: CN=team187-net
        Validity
            Not Before: Sep 13 00:32:09 2021 GMT
            Not After : Aug 28 00:32:09 2024 GMT
        Subject: CN=team187-server
        Subject Public Key Info:
            Public Key Algorithm: rsaEncryption
                RSA Public-Key: (2048 bit)
                Modulus:
                    00:e0:81:bb:9a:b2:df:e5:a8:36:a8:8e:a1:b6:73:
                    a5:67:a5:5f:26:b7:e1:59:d6:8e:78:13:4d:cf:f5:
                    8b:17:da:05:22:23:d3:38:af:cb:21:fe:3c:6a:df:
                    d7:53:b0:c5:ed:62:a1:b0:45:7d:3d:76:92:23:a8:
                    73:29:4e:ba:ee:69:97:27:9a:bd:98:df:6f:6e:ef:
                    a9:d7:e0:d6:03:fe:2e:5b:34:77:ec:de:e0:b4:ac:
                    db:a9:95:2c:cc:e4:a3:fd:b8:8d:3e:3a:60:15:5d:
                    9e:a2:ca:7d:ef:d4:7b:ae:53:e8:08:f5:59:03:c9:
                    71:ce:c3:d1:ed:56:28:95:dc:2e:64:2d:d2:5c:33:
                    01:bf:4f:98:65:9b:1e:ca:ae:1f:c1:e1:9a:e1:9c:
                    ad:50:c7:b1:a8:6a:e4:92:e5:21:a0:2e:6c:68:8d:
                    b2:81:f3:0d:14:48:4d:ca:20:2f:88:76:5f:f0:84:
                    49:89:9b:f5:e4:7e:a4:23:3f:63:65:a2:20:e2:8a:
                    eb:0b:52:db:e1:5e:9d:b9:98:45:16:02:27:17:f0:
                    db:4a:b3:6a:33:3f:0b:e5:8e:d1:50:72:ec:bf:b6:
                    6f:4e:47:89:a6:d7:f1:a6:33:17:d1:1b:7f:17:59:
                    ce:71:c6:f6:bb:d5:38:24:8e:0b:4b:9b:c5:38:44:
                    1e:53
                Exponent: 65537 (0x10001)
        X509v3 extensions:
            X509v3 Basic Constraints: 
                CA:FALSE
            X509v3 Subject Key Identifier: 
                17:BB:08:1F:5D:0E:B1:D8:D5:65:C6:7F:71:C8:49:71:C4:AD:E2:13
            X509v3 Authority Key Identifier: 
                keyid:59:43:C4:97:BD:10:83:88:27:13:01:2F:85:66:0C:19:0D:F4:3C:07
                DirName:/CN=team187-net
                serial:63:98:14:A2:FB:79:CA:94:4D:82:E8:CE:9C:5A:D7:B7:CF:82:43:2A

            X509v3 Extended Key Usage: 
                TLS Web Server Authentication
            X509v3 Key Usage: 
                Digital Signature, Key Encipherment
            X509v3 Subject Alternative Name: 
                DNS:team187-server
    Signature Algorithm: sha256WithRSAEncryption
         8d:b8:4a:88:a5:7b:a8:c2:37:f0:5e:a2:df:b8:ca:79:16:b8:
         63:8a:9a:3d:6c:41:2b:51:59:69:6e:40:63:4c:cb:d4:94:42:
         6d:2f:b4:30:d4:7e:e6:a5:98:2e:b5:37:62:92:3f:09:4b:98:
         50:b9:62:40:5c:b6:cc:fe:13:ce:5a:94:6a:d6:31:73:20:39:
         f2:b2:d3:eb:54:69:18:7e:96:d9:78:22:fd:73:a6:34:ff:d7:
         2f:62:45:d7:12:b5:57:01:7e:fe:cf:db:62:ba:25:be:da:3f:
         41:06:e4:86:36:3c:43:c7:7e:02:73:3d:5d:4f:8a:e6:40:60:
         a3:0b:26:a7:b5:34:aa:50:76:2b:04:5c:38:b6:92:81:94:ee:
         7e:98:9c:a9:d5:a0:07:8f:10:dc:54:11:5e:34:aa:e7:ea:28:
         ea:3d:4e:9a:c3:2b:97:5d:67:7a:4f:36:a3:88:bc:e7:91:47:
         de:de:7b:50:cc:b5:39:2f:38:76:df:df:91:b6:dc:7b:09:ea:
         92:72:43:2e:a1:90:09:fa:21:e0:c7:fc:e4:f8:38:79:e6:2c:
         e9:a9:07:85:b5:d5:da:18:0a:b7:e5:c1:5a:55:ca:13:bf:bb:
         41:e6:bc:77:2b:14:f7:27:63:05:c1:06:fe:1c:1c:44:6c:c7:
         e2:62:04:b0
-----BEGIN CERTIFICATE-----
MIIDdzCCAl+gAwIBAgIQCXFCai1mWdiHK7bJaUgCaDANBgkqhkiG9w0BAQsFADAW
MRQwEgYDVQQDDAt0ZWFtMTg3LW5ldDAeFw0yMTA5MTMwMDMyMDlaFw0yNDA4Mjgw
MDMyMDlaMBkxFzAVBgNVBAMMDnRlYW0xODctc2VydmVyMIIBIjANBgkqhkiG9w0B
AQEFAAOCAQ8AMIIBCgKCAQEA4IG7mrLf5ag2qI6htnOlZ6VfJrfhWdaOeBNNz/WL
F9oFIiPTOK/LIf48at/XU7DF7WKhsEV9PXaSI6hzKU667mmXJ5q9mN9vbu+p1+DW
A/4uWzR37N7gtKzbqZUszOSj/biNPjpgFV2eosp979R7rlPoCPVZA8lxzsPR7VYo
ldwuZC3SXDMBv0+YZZseyq4fweGa4ZytUMexqGrkkuUhoC5saI2ygfMNFEhNyiAv
iHZf8IRJiZv15H6kIz9jZaIg4orrC1Lb4V6duZhFFgInF/DbSrNqMz8L5Y7RUHLs
v7ZvTkeJptfxpjMX0Rt/F1nOccb2u9U4JI4LS5vFOEQeUwIDAQABo4G9MIG6MAkG
A1UdEwQCMAAwHQYDVR0OBBYEFBe7CB9dDrHY1WXGf3HISXHEreITMFEGA1UdIwRK
MEiAFFlDxJe9EIOIJxMBL4VmDBkN9DwHoRqkGDAWMRQwEgYDVQQDDAt0ZWFtMTg3
LW5ldIIUY5gUovt5ypRNgujOnFrXt8+CQyowEwYDVR0lBAwwCgYIKwYBBQUHAwEw
CwYDVR0PBAQDAgWgMBkGA1UdEQQSMBCCDnRlYW0xODctc2VydmVyMA0GCSqGSIb3
DQEBCwUAA4IBAQCNuEqIpXuowjfwXqLfuMp5Frhjipo9bEErUVlpbkBjTMvUlEJt
L7Qw1H7mpZgutTdikj8JS5hQuWJAXLbM/hPOWpRq1jFzIDnystPrVGkYfpbZeCL9
c6Y0/9cvYkXXErVXAX7+z9tiuiW+2j9BBuSGNjxDx34Ccz1dT4rmQGCjCyantTSq
UHYrBFw4tpKBlO5+mJyp1aAHjxDcVBFeNKrn6ijqPU6awyuXXWd6TzajiLznkUfe
3ntQzLU5Lzh239+Rttx7CeqSckMuoZAJ+iHgx/zk+Dh55izpqQeFtdXaGAq35cFa
VcoTv7tB5rx3KxT3J2MFwQb+HBxEbMfiYgSw
-----END CERTIFICATE-----
