Certificate:
    Data:
        Version: 3 (0x2)
        Serial Number:
            1c:6b:08:c9:6a:76:2d:5c:13:3d:cc:d9:ce:39:3c:35
        Signature Algorithm: sha256WithRSAEncryption
        Issuer: CN=team57-net
        Validity
            Not Before: Sep 12 23:11:32 2021 GMT
            Not After : Aug 27 23:11:32 2024 GMT
        Subject: CN=team57-client
        Subject Public Key Info:
            Public Key Algorithm: rsaEncryption
                RSA Public-Key: (2048 bit)
                Modulus:
                    00:ba:f1:25:dd:28:1c:f1:e6:63:57:54:8f:49:4c:
                    fe:0a:d5:fa:18:c0:15:04:82:bf:49:b0:ee:df:fc:
                    f5:40:34:5f:32:b4:9a:c7:ae:be:52:e5:b1:7e:12:
                    59:d3:f7:79:9b:df:01:4e:8c:69:e8:b4:a0:91:b9:
                    1b:00:ea:9b:22:9e:d1:e4:a6:3b:3f:6f:0a:77:1b:
                    a2:a0:7e:d5:ce:7b:4e:26:67:2f:9e:55:90:e0:f4:
                    45:33:3c:5e:ab:81:79:bf:2c:90:59:17:4b:4d:d0:
                    66:c8:61:6c:8f:a5:77:de:89:0d:80:c5:f7:44:e6:
                    3f:81:f4:60:94:a7:7e:d7:9c:35:f1:04:3f:32:68:
                    58:a1:c3:20:61:fa:aa:d8:9d:19:65:30:56:d2:c9:
                    71:17:89:ea:21:55:93:3f:b6:0c:b7:16:85:54:7b:
                    6f:b6:4d:aa:e2:e8:07:e0:d9:4d:a6:cf:5d:15:ef:
                    b4:8f:35:a4:db:13:0e:99:c0:80:7a:22:a1:c8:42:
                    e5:1d:6f:d8:1f:02:ab:a7:b0:fb:29:b9:06:b8:a5:
                    a7:67:cb:3a:ae:90:91:68:5a:3f:37:2c:0d:90:c6:
                    8e:f0:3c:fa:0f:6f:5d:81:98:87:b7:de:c9:56:79:
                    44:8e:93:79:09:0f:24:84:fd:3b:94:f0:6a:e2:46:
                    6d:81
                Exponent: 65537 (0x10001)
        X509v3 extensions:
            X509v3 Basic Constraints: 
                CA:FALSE
            X509v3 Subject Key Identifier: 
                81:63:FC:75:10:52:EB:97:3A:D5:6A:64:22:6A:4C:D8:56:78:11:34
            X509v3 Authority Key Identifier: 
                keyid:CF:78:C2:55:51:46:86:D8:21:89:1A:C9:7F:62:7D:A5:05:A4:02:E6
                DirName:/CN=team57-net
                serial:50:DA:47:2C:57:16:E6:B9:7C:02:1C:77:22:75:A6:C3:29:7E:1A:C4

            X509v3 Extended Key Usage: 
                TLS Web Client Authentication
            X509v3 Key Usage: 
                Digital Signature
    Signature Algorithm: sha256WithRSAEncryption
         a5:ff:81:49:0e:d4:a2:ea:70:01:6b:cd:69:7f:7f:63:21:b2:
         f6:e2:40:c0:a5:3e:ee:d2:87:86:eb:91:59:30:fe:4f:68:d2:
         61:53:97:b8:22:63:b2:dd:87:21:49:87:e2:de:e7:b0:c8:9e:
         65:70:ee:16:dc:7f:ff:c8:82:ad:19:63:1f:4e:7e:0e:56:9b:
         ee:e0:29:04:a0:42:df:0e:86:bf:43:a0:de:45:ac:58:1a:5e:
         33:1b:e5:23:5a:00:ca:67:0a:c1:91:3c:f0:8a:9f:b0:ef:c2:
         02:2e:a6:fe:46:d8:6b:ad:1c:aa:82:d4:18:41:b1:f8:00:5f:
         19:eb:78:a3:8d:ec:5e:76:c2:67:a1:39:6e:7e:e4:0d:a8:51:
         16:18:73:17:63:39:51:33:0f:a0:bb:c3:92:68:3e:6e:cc:42:
         1e:bd:3c:10:9a:56:71:9a:0e:9d:17:d7:b2:f3:59:7c:39:a3:
         40:25:be:62:ee:64:fc:da:32:fc:f8:5d:e7:b1:d4:13:43:ff:
         7b:9e:09:6f:fe:e7:29:7a:5e:6c:94:5f:19:f1:8e:ec:78:6f:
         03:92:09:41:7c:96:9b:d0:ed:b3:8d:aa:6a:b0:78:5d:da:d7:
         0b:7f:da:68:59:ac:41:04:f3:f4:bf:08:02:3d:1b:68:fe:d5:
         3e:76:27:e6
-----BEGIN CERTIFICATE-----
MIIDWTCCAkGgAwIBAgIQHGsIyWp2LVwTPczZzjk8NTANBgkqhkiG9w0BAQsFADAV
MRMwEQYDVQQDDAp0ZWFtNTctbmV0MB4XDTIxMDkxMjIzMTEzMloXDTI0MDgyNzIz
MTEzMlowGDEWMBQGA1UEAwwNdGVhbTU3LWNsaWVudDCCASIwDQYJKoZIhvcNAQEB
BQADggEPADCCAQoCggEBALrxJd0oHPHmY1dUj0lM/grV+hjAFQSCv0mw7t/89UA0
XzK0mseuvlLlsX4SWdP3eZvfAU6Maei0oJG5GwDqmyKe0eSmOz9vCncboqB+1c57
TiZnL55VkOD0RTM8XquBeb8skFkXS03QZshhbI+ld96JDYDF90TmP4H0YJSnftec
NfEEPzJoWKHDIGH6qtidGWUwVtLJcReJ6iFVkz+2DLcWhVR7b7ZNquLoB+DZTabP
XRXvtI81pNsTDpnAgHoiochC5R1v2B8Cq6ew+ym5Brilp2fLOq6QkWhaPzcsDZDG
jvA8+g9vXYGYh7feyVZ5RI6TeQkPJIT9O5TwauJGbYECAwEAAaOBoTCBnjAJBgNV
HRMEAjAAMB0GA1UdDgQWBBSBY/x1EFLrlzrVamQiakzYVngRNDBQBgNVHSMESTBH
gBTPeMJVUUaG2CGJGsl/Yn2lBaQC5qEZpBcwFTETMBEGA1UEAwwKdGVhbTU3LW5l
dIIUUNpHLFcW5rl8Ahx3InWmwyl+GsQwEwYDVR0lBAwwCgYIKwYBBQUHAwIwCwYD
VR0PBAQDAgeAMA0GCSqGSIb3DQEBCwUAA4IBAQCl/4FJDtSi6nABa81pf39jIbL2
4kDApT7u0oeG65FZMP5PaNJhU5e4ImOy3YchSYfi3uewyJ5lcO4W3H//yIKtGWMf
Tn4OVpvu4CkEoELfDoa/Q6DeRaxYGl4zG+UjWgDKZwrBkTzwip+w78ICLqb+Rthr
rRyqgtQYQbH4AF8Z63ijjexedsJnoTlufuQNqFEWGHMXYzlRMw+gu8OSaD5uzEIe
vTwQmlZxmg6dF9ey81l8OaNAJb5i7mT82jL8+F3nsdQTQ/97nglv/ucpel5slF8Z
8Y7seG8DkglBfJab0O2zjapqsHhd2tcLf9poWaxBBPP0vwgCPRto/tU+difm
-----END CERTIFICATE-----
