Certificate:
    Data:
        Version: 3 (0x2)
        Serial Number:
            9e:bd:23:f7:f9:0c:74:a7:b4:bb:c1:68:22:0f:c4:08
        Signature Algorithm: sha256WithRSAEncryption
        Issuer: CN=team347-net
        Validity
            Not Before: Sep 13 01:56:23 2021 GMT
            Not After : Aug 28 01:56:23 2024 GMT
        Subject: CN=team347-client
        Subject Public Key Info:
            Public Key Algorithm: rsaEncryption
                RSA Public-Key: (2048 bit)
                Modulus:
                    00:e6:79:bf:78:71:33:f4:d8:48:8f:bf:0c:cc:fe:
                    9c:aa:68:01:44:4c:c0:9b:89:e9:b3:1b:46:8b:16:
                    14:06:21:40:d5:a7:f1:4e:e6:8a:66:da:95:fd:c4:
                    5f:ed:79:d0:bc:4e:11:52:69:b8:48:6b:34:ae:bc:
                    20:54:7b:d7:f4:17:61:39:36:0e:65:e5:21:f6:de:
                    f0:04:91:e0:c4:e4:9c:ec:6d:33:04:d2:e4:4b:04:
                    02:a2:d4:4f:aa:50:56:1b:58:39:4c:a5:d6:de:f1:
                    44:0f:bb:a4:ce:a3:a1:3d:49:ef:3d:20:c1:14:d3:
                    74:42:57:70:71:b0:40:32:57:ff:83:e1:40:74:cb:
                    70:e8:85:ed:c5:e1:bd:cb:b1:53:c6:5c:c0:7b:aa:
                    71:d4:75:fe:38:f6:30:4f:9f:1f:7d:f5:3d:a4:f3:
                    38:25:f1:5d:4e:31:34:a0:d1:85:19:75:9a:85:95:
                    84:ee:3c:c2:38:a4:a1:f4:c3:74:6e:b3:16:9f:bb:
                    dc:91:6b:d8:23:c3:0b:36:c3:2a:73:73:14:83:b7:
                    e5:7e:69:8f:86:07:e2:4f:e6:d6:71:6d:6c:29:e3:
                    38:4b:8d:dc:e6:25:80:da:9c:59:96:5d:0e:80:93:
                    a8:45:50:88:a8:63:b8:37:5c:0d:94:c4:f5:56:04:
                    a2:0b
                Exponent: 65537 (0x10001)
        X509v3 extensions:
            X509v3 Basic Constraints: 
                CA:FALSE
            X509v3 Subject Key Identifier: 
                65:52:7C:0D:8F:73:F6:85:F4:57:3A:58:E6:D7:DA:E9:D2:0D:01:99
            X509v3 Authority Key Identifier: 
                keyid:D0:42:4F:D0:E4:1C:08:0F:84:B1:03:8D:AA:AF:90:21:3F:41:E0:66
                DirName:/CN=team347-net
                serial:0B:34:59:D2:8D:AF:F8:B6:58:28:9F:8C:71:3C:D1:76:94:06:F8:9D

            X509v3 Extended Key Usage: 
                TLS Web Client Authentication
            X509v3 Key Usage: 
                Digital Signature
    Signature Algorithm: sha256WithRSAEncryption
         15:8c:c6:e8:92:1c:44:8c:db:cd:4e:90:d1:94:5e:f0:86:16:
         49:62:ea:f9:6f:ab:73:64:f2:2e:d0:d9:7a:44:ce:e2:9a:b7:
         ca:88:7d:6d:62:9d:76:c0:e3:07:fd:a9:47:58:d2:ed:ce:2a:
         26:49:39:1e:1b:41:f9:26:9b:71:44:0a:30:fa:29:41:ec:9e:
         20:f7:9a:21:62:10:c9:95:b3:b2:1a:fa:d6:05:03:8b:ff:90:
         78:b6:9e:d2:f7:64:af:6c:01:bd:06:df:6d:0a:e5:00:0b:f9:
         ac:67:26:5f:54:4d:0a:98:f0:d5:1a:79:33:8d:d1:db:94:dc:
         f3:cd:e8:e7:d1:d7:6f:bd:b9:53:28:87:26:27:f5:2e:27:be:
         c1:1d:1c:e1:14:cc:6e:9a:00:be:7d:77:21:be:e9:6a:05:57:
         66:4b:35:51:fb:8c:db:f1:06:6f:95:e7:13:8a:04:54:3d:f7:
         b4:bf:1f:6e:e8:fb:95:ff:25:c8:0f:0c:50:41:af:62:ec:aa:
         20:3d:a7:94:e9:55:db:c2:c9:a0:17:88:b4:4b:64:a4:61:c4:
         2f:d3:38:9d:ef:92:55:0e:69:6d:c7:fb:3a:03:6f:26:4b:34:
         75:93:a4:db:42:b0:d1:63:8a:d3:d7:62:22:12:d8:e9:99:9d:
         7c:d1:24:4e
-----BEGIN CERTIFICATE-----
MIIDXTCCAkWgAwIBAgIRAJ69I/f5DHSntLvBaCIPxAgwDQYJKoZIhvcNAQELBQAw
FjEUMBIGA1UEAwwLdGVhbTM0Ny1uZXQwHhcNMjEwOTEzMDE1NjIzWhcNMjQwODI4
MDE1NjIzWjAZMRcwFQYDVQQDDA50ZWFtMzQ3LWNsaWVudDCCASIwDQYJKoZIhvcN
AQEBBQADggEPADCCAQoCggEBAOZ5v3hxM/TYSI+/DMz+nKpoAURMwJuJ6bMbRosW
FAYhQNWn8U7mimbalf3EX+150LxOEVJpuEhrNK68IFR71/QXYTk2DmXlIfbe8ASR
4MTknOxtMwTS5EsEAqLUT6pQVhtYOUyl1t7xRA+7pM6joT1J7z0gwRTTdEJXcHGw
QDJX/4PhQHTLcOiF7cXhvcuxU8ZcwHuqcdR1/jj2ME+fH331PaTzOCXxXU4xNKDR
hRl1moWVhO48wjikofTDdG6zFp+73JFr2CPDCzbDKnNzFIO35X5pj4YH4k/m1nFt
bCnjOEuN3OYlgNqcWZZdDoCTqEVQiKhjuDdcDZTE9VYEogsCAwEAAaOBojCBnzAJ
BgNVHRMEAjAAMB0GA1UdDgQWBBRlUnwNj3P2hfRXOljm19rp0g0BmTBRBgNVHSME
SjBIgBTQQk/Q5BwID4SxA42qr5AhP0HgZqEapBgwFjEUMBIGA1UEAwwLdGVhbTM0
Ny1uZXSCFAs0WdKNr/i2WCifjHE80XaUBvidMBMGA1UdJQQMMAoGCCsGAQUFBwMC
MAsGA1UdDwQEAwIHgDANBgkqhkiG9w0BAQsFAAOCAQEAFYzG6JIcRIzbzU6Q0ZRe
8IYWSWLq+W+rc2TyLtDZekTO4pq3yoh9bWKddsDjB/2pR1jS7c4qJkk5HhtB+Sab
cUQKMPopQeyeIPeaIWIQyZWzshr61gUDi/+QeLae0vdkr2wBvQbfbQrlAAv5rGcm
X1RNCpjw1Rp5M43R25Tc883o59HXb725UyiHJif1Lie+wR0c4RTMbpoAvn13Ib7p
agVXZks1UfuM2/EGb5XnE4oEVD33tL8fbuj7lf8lyA8MUEGvYuyqID2nlOlV28LJ
oBeItEtkpGHEL9M4ne+SVQ5pbcf7OgNvJks0dZOk20Kw0WOK09diIhLY6ZmdfNEk
Tg==
-----END CERTIFICATE-----
