Certificate:
    Data:
        Version: 3 (0x2)
        Serial Number:
            3d:8d:eb:42:f7:cb:d1:38:20:e4:3b:2f:ee:4c:08:9d
        Signature Algorithm: sha256WithRSAEncryption
        Issuer: CN=team468-net
        Validity
            Not Before: Sep 13 02:57:53 2021 GMT
            Not After : Aug 28 02:57:53 2024 GMT
        Subject: CN=team468-client
        Subject Public Key Info:
            Public Key Algorithm: rsaEncryption
                RSA Public-Key: (2048 bit)
                Modulus:
                    00:b1:4e:98:7a:a0:46:95:8c:52:d3:f3:48:af:48:
                    19:28:65:27:d0:10:da:62:8e:95:4b:42:f1:2f:62:
                    d6:26:fb:b5:b5:73:aa:f4:80:a6:2a:f8:4b:5b:a9:
                    17:52:7e:4f:d2:5f:5c:71:83:d8:1b:43:e9:d2:8f:
                    26:46:8b:0c:ae:51:8a:f9:2c:89:e6:5b:94:a0:57:
                    e4:f9:f1:c9:5e:27:70:a6:c8:82:11:dc:7b:57:78:
                    e8:cf:d1:0a:7d:76:de:0d:84:29:2a:11:1b:e7:b9:
                    c1:c5:02:84:b5:8c:35:9a:c5:a8:6c:0f:a7:67:73:
                    c0:0c:14:0b:f1:76:83:73:46:fb:b3:cd:e2:d1:8f:
                    d8:1a:b2:11:62:de:33:dc:ad:b8:cc:6d:e8:fb:33:
                    05:ba:55:e6:bc:02:24:6f:fe:80:42:3a:ff:61:c8:
                    c1:17:25:fa:8c:7a:a5:ae:65:dd:de:a1:72:f9:20:
                    d5:0a:0a:81:bb:07:14:e9:ee:54:28:61:6d:31:f2:
                    ba:c6:f5:6d:b2:71:7b:45:59:44:4f:95:b9:72:79:
                    2d:a8:29:1c:62:d3:25:f8:f4:2c:7c:aa:12:c3:df:
                    f7:47:3f:12:6e:fc:fb:3f:e4:9c:9c:5c:e6:9a:c1:
                    02:e8:b0:dc:c4:7b:6e:5f:c0:2f:c8:95:a7:80:19:
                    d0:f3
                Exponent: 65537 (0x10001)
        X509v3 extensions:
            X509v3 Basic Constraints: 
                CA:FALSE
            X509v3 Subject Key Identifier: 
                A7:A7:96:5F:93:63:31:80:8D:36:EE:D6:AC:6E:83:73:46:B8:C7:8A
            X509v3 Authority Key Identifier: 
                keyid:7A:22:B0:2A:18:A8:C0:85:C7:E3:B4:98:05:67:07:90:10:B4:1B:3E
                DirName:/CN=team468-net
                serial:08:3D:5F:9E:CC:2E:30:9F:CA:09:C2:05:E4:51:9D:5E:DE:33:61:A9

            X509v3 Extended Key Usage: 
                TLS Web Client Authentication
            X509v3 Key Usage: 
                Digital Signature
    Signature Algorithm: sha256WithRSAEncryption
         8c:a6:01:af:99:1d:fa:b0:45:4b:cf:60:64:00:13:fc:aa:00:
         3b:48:07:26:20:25:7e:b6:1f:1c:f2:6d:17:3b:7f:f6:91:aa:
         1f:a7:aa:7d:7e:a6:95:61:0b:28:1c:45:02:79:c8:54:a7:1e:
         e5:ff:c8:c9:46:c1:44:b4:a3:0b:a9:36:8b:32:4d:3c:6b:c2:
         0b:df:82:87:af:1a:b8:40:7a:93:19:a2:92:4c:28:2e:20:9a:
         24:24:b7:59:25:25:cb:26:e6:ef:e2:93:0c:a5:13:ad:cb:55:
         0e:d8:33:a6:34:4e:06:6f:4d:77:7c:2a:a4:79:0f:b4:4d:65:
         6d:0a:58:69:5a:bd:33:af:9d:ac:13:44:cc:72:f2:ef:78:b0:
         55:52:c4:f9:74:bc:34:af:53:a1:ca:be:2c:2d:1f:67:e9:63:
         8d:fe:08:ef:76:a6:cb:ee:e8:47:ee:d5:6d:76:63:7b:bc:12:
         22:43:fb:8d:17:5e:3b:55:8a:a5:34:d3:e9:cd:59:de:40:ec:
         ad:8e:2f:07:05:f6:2d:45:a3:e7:c6:5f:4c:86:46:70:25:4f:
         a8:8b:e6:c4:e9:ca:e3:fd:6e:27:8d:40:23:3f:48:ba:40:da:
         4d:44:03:63:08:d1:35:7f:53:85:fa:ac:a6:e7:b0:ef:6c:75:
         a6:a8:f0:65
-----BEGIN CERTIFICATE-----
MIIDXDCCAkSgAwIBAgIQPY3rQvfL0Tgg5Dsv7kwInTANBgkqhkiG9w0BAQsFADAW
MRQwEgYDVQQDDAt0ZWFtNDY4LW5ldDAeFw0yMTA5MTMwMjU3NTNaFw0yNDA4Mjgw
MjU3NTNaMBkxFzAVBgNVBAMMDnRlYW00NjgtY2xpZW50MIIBIjANBgkqhkiG9w0B
AQEFAAOCAQ8AMIIBCgKCAQEAsU6YeqBGlYxS0/NIr0gZKGUn0BDaYo6VS0LxL2LW
Jvu1tXOq9ICmKvhLW6kXUn5P0l9ccYPYG0Pp0o8mRosMrlGK+SyJ5luUoFfk+fHJ
XidwpsiCEdx7V3joz9EKfXbeDYQpKhEb57nBxQKEtYw1msWobA+nZ3PADBQL8XaD
c0b7s83i0Y/YGrIRYt4z3K24zG3o+zMFulXmvAIkb/6AQjr/YcjBFyX6jHqlrmXd
3qFy+SDVCgqBuwcU6e5UKGFtMfK6xvVtsnF7RVlET5W5cnktqCkcYtMl+PQsfKoS
w9/3Rz8Sbvz7P+ScnFzmmsEC6LDcxHtuX8AvyJWngBnQ8wIDAQABo4GiMIGfMAkG
A1UdEwQCMAAwHQYDVR0OBBYEFKenll+TYzGAjTbu1qxug3NGuMeKMFEGA1UdIwRK
MEiAFHoisCoYqMCFx+O0mAVnB5AQtBs+oRqkGDAWMRQwEgYDVQQDDAt0ZWFtNDY4
LW5ldIIUCD1fnswuMJ/KCcIF5FGdXt4zYakwEwYDVR0lBAwwCgYIKwYBBQUHAwIw
CwYDVR0PBAQDAgeAMA0GCSqGSIb3DQEBCwUAA4IBAQCMpgGvmR36sEVLz2BkABP8
qgA7SAcmICV+th8c8m0XO3/2kaofp6p9fqaVYQsoHEUCechUpx7l/8jJRsFEtKML
qTaLMk08a8IL34KHrxq4QHqTGaKSTCguIJokJLdZJSXLJubv4pMMpROty1UO2DOm
NE4Gb013fCqkeQ+0TWVtClhpWr0zr52sE0TMcvLveLBVUsT5dLw0r1Ohyr4sLR9n
6WON/gjvdqbL7uhH7tVtdmN7vBIiQ/uNF147VYqlNNPpzVneQOytji8HBfYtRaPn
xl9MhkZwJU+oi+bE6crj/W4njUAjP0i6QNpNRANjCNE1f1OF+qym57DvbHWmqPBl
-----END CERTIFICATE-----
