Certificate:
    Data:
        Version: 3 (0x2)
        Serial Number:
            87:1a:72:88:64:81:94:65:21:6c:37:55:df:44:51:2e
        Signature Algorithm: sha256WithRSAEncryption
        Issuer: CN=team342-net
        Validity
            Not Before: Sep 13 01:56:07 2021 GMT
            Not After : Aug 28 01:56:07 2024 GMT
        Subject: CN=team342-server
        Subject Public Key Info:
            Public Key Algorithm: rsaEncryption
                RSA Public-Key: (2048 bit)
                Modulus:
                    00:ea:5a:41:9a:5c:18:40:6d:ed:a8:cb:52:8c:5d:
                    f5:c6:85:d6:1b:1e:16:c1:9c:f5:dc:b5:ab:92:82:
                    87:44:23:02:75:c8:17:26:3d:1d:5b:90:a0:7a:f4:
                    67:73:f6:fd:c2:af:fe:67:cb:41:be:d3:f0:b0:a2:
                    a7:ec:de:2e:9f:6a:18:30:93:74:b6:2f:4f:d2:65:
                    62:08:9c:5a:e0:a3:67:79:7d:ef:f5:18:70:63:17:
                    b7:24:37:c4:66:c7:67:96:75:b8:6d:58:b9:04:86:
                    65:c8:47:7f:71:1c:77:4c:55:4a:0e:53:9a:97:42:
                    68:c9:ae:c0:9f:42:48:5e:77:98:99:62:63:72:74:
                    1f:79:98:3e:68:0a:a8:76:c1:b1:10:7e:34:7a:dc:
                    c7:21:cb:bc:e2:c3:4d:d9:c8:a8:de:2a:a4:ae:bf:
                    49:e2:f5:ba:29:48:86:9f:61:02:2d:08:cf:5b:90:
                    56:35:8f:c2:93:ff:68:db:33:00:8a:3a:4a:c8:04:
                    90:e8:1c:1b:90:d3:0b:05:72:3a:a3:98:cf:c0:06:
                    e8:2d:f7:13:34:a7:1f:c4:da:e4:fa:cb:24:6a:d5:
                    e4:a6:cb:50:e2:cc:5f:de:67:08:56:fd:6b:20:a1:
                    f4:23:2b:32:6c:63:ad:72:0a:8c:b3:52:88:62:0a:
                    f8:3b
                Exponent: 65537 (0x10001)
        X509v3 extensions:
            X509v3 Basic Constraints: 
                CA:FALSE
            X509v3 Subject Key Identifier: 
                C0:A3:1B:D7:85:9E:20:7F:BC:E7:62:BF:9F:26:0A:32:E9:6F:3C:AD
            X509v3 Authority Key Identifier: 
                keyid:62:A3:5D:9B:29:CE:BB:8E:60:9B:E6:6A:79:89:15:27:AD:BA:C9:F6
                DirName:/CN=team342-net
                serial:6F:C6:35:62:6F:BE:BD:83:4B:0E:C5:5C:0D:3D:FA:EA:D2:54:BF:E3

            X509v3 Extended Key Usage: 
                TLS Web Server Authentication
            X509v3 Key Usage: 
                Digital Signature, Key Encipherment
            X509v3 Subject Alternative Name: 
                DNS:team342-server
    Signature Algorithm: sha256WithRSAEncryption
         ae:70:35:b9:f0:7b:28:10:fd:a7:43:31:5e:1c:5f:a2:08:30:
         16:91:7b:4c:a8:a8:7a:46:26:7d:b5:7d:e0:7b:f0:8d:31:4a:
         d7:f1:95:98:7b:51:17:52:5b:10:7d:4a:63:2b:49:91:06:71:
         3d:28:31:9c:3a:64:97:ae:35:bc:11:6b:d4:10:04:ce:e5:cd:
         f7:89:30:12:a8:cb:f9:0d:ec:a4:82:88:e3:45:27:c3:79:68:
         68:64:87:ae:03:f1:88:97:ef:65:e3:95:76:7f:71:d3:e5:59:
         00:f8:a8:dc:ad:76:0e:54:23:9e:3a:e7:5c:6d:7b:1f:58:e9:
         c6:e8:06:ea:3e:b3:e7:8a:a8:e8:d9:be:21:5e:b2:2c:3e:34:
         92:93:4e:6c:65:23:cd:1a:88:32:93:8c:d7:96:7e:a7:fc:df:
         4c:70:e4:73:8a:9c:1e:14:9d:b9:d3:60:76:e3:47:cf:e6:13:
         52:0f:7f:bc:d3:69:87:9e:8c:c8:3e:93:b6:d0:ad:87:15:99:
         67:71:88:e8:eb:8b:c8:b6:21:05:ab:be:98:be:26:0c:9e:3b:
         18:5a:40:a0:b5:4b:0f:9f:44:95:7d:28:15:df:16:ef:46:68:
         ea:dd:e8:c6:a0:df:75:32:3c:45:27:72:18:56:9f:8d:25:2c:
         b5:94:44:3b
-----BEGIN CERTIFICATE-----
MIIDeDCCAmCgAwIBAgIRAIcacohkgZRlIWw3Vd9EUS4wDQYJKoZIhvcNAQELBQAw
FjEUMBIGA1UEAwwLdGVhbTM0Mi1uZXQwHhcNMjEwOTEzMDE1NjA3WhcNMjQwODI4
MDE1NjA3WjAZMRcwFQYDVQQDDA50ZWFtMzQyLXNlcnZlcjCCASIwDQYJKoZIhvcN
AQEBBQADggEPADCCAQoCggEBAOpaQZpcGEBt7ajLUoxd9caF1hseFsGc9dy1q5KC
h0QjAnXIFyY9HVuQoHr0Z3P2/cKv/mfLQb7T8LCip+zeLp9qGDCTdLYvT9JlYgic
WuCjZ3l97/UYcGMXtyQ3xGbHZ5Z1uG1YuQSGZchHf3Ecd0xVSg5TmpdCaMmuwJ9C
SF53mJliY3J0H3mYPmgKqHbBsRB+NHrcxyHLvOLDTdnIqN4qpK6/SeL1uilIhp9h
Ai0Iz1uQVjWPwpP/aNszAIo6SsgEkOgcG5DTCwVyOqOYz8AG6C33EzSnH8Ta5PrL
JGrV5KbLUOLMX95nCFb9ayCh9CMrMmxjrXIKjLNSiGIK+DsCAwEAAaOBvTCBujAJ
BgNVHRMEAjAAMB0GA1UdDgQWBBTAoxvXhZ4gf7znYr+fJgoy6W88rTBRBgNVHSME
SjBIgBRio12bKc67jmCb5mp5iRUnrbrJ9qEapBgwFjEUMBIGA1UEAwwLdGVhbTM0
Mi1uZXSCFG/GNWJvvr2DSw7FXA09+urSVL/jMBMGA1UdJQQMMAoGCCsGAQUFBwMB
MAsGA1UdDwQEAwIFoDAZBgNVHREEEjAQgg50ZWFtMzQyLXNlcnZlcjANBgkqhkiG
9w0BAQsFAAOCAQEArnA1ufB7KBD9p0MxXhxfoggwFpF7TKioekYmfbV94HvwjTFK
1/GVmHtRF1JbEH1KYytJkQZxPSgxnDpkl641vBFr1BAEzuXN94kwEqjL+Q3spIKI
40Unw3loaGSHrgPxiJfvZeOVdn9x0+VZAPio3K12DlQjnjrnXG17H1jpxugG6j6z
54qo6Nm+IV6yLD40kpNObGUjzRqIMpOM15Z+p/zfTHDkc4qcHhSdudNgduNHz+YT
Ug9/vNNph56MyD6TttCthxWZZ3GI6OuLyLYhBau+mL4mDJ47GFpAoLVLD59ElX0o
Fd8W70Zo6t3oxqDfdTI8RSdyGFafjSUstZREOw==
-----END CERTIFICATE-----
