Certificate:
    Data:
        Version: 3 (0x2)
        Serial Number:
            0f:f7:c8:84:69:53:e9:28:6a:4e:3b:21:9b:29:cf:b4
        Signature Algorithm: sha256WithRSAEncryption
        Issuer: CN=team376-net
        Validity
            Not Before: Sep 13 02:06:55 2021 GMT
            Not After : Aug 28 02:06:55 2024 GMT
        Subject: CN=team376-server
        Subject Public Key Info:
            Public Key Algorithm: rsaEncryption
                RSA Public-Key: (2048 bit)
                Modulus:
                    00:dd:28:f5:2e:c9:e2:6d:c2:8d:ac:33:56:16:e6:
                    3c:6e:80:38:5b:d8:81:1d:aa:23:30:c4:eb:f3:e2:
                    fa:34:6c:1e:c1:a1:61:c0:c4:0b:04:20:99:30:22:
                    ba:6c:9e:04:06:5c:e6:71:ef:6e:df:32:2e:61:d2:
                    c3:61:67:e6:ce:eb:bf:2d:e2:89:47:f3:28:50:04:
                    12:17:53:de:07:24:d2:f3:b2:81:2b:14:60:74:98:
                    a5:df:fc:8f:7f:db:a2:c2:10:97:b4:b5:ba:df:b9:
                    2a:8c:56:dc:b1:05:6d:3a:8b:41:90:b0:e3:d8:9b:
                    fd:eb:bc:ae:54:84:48:9f:53:0b:31:df:c6:a9:c5:
                    1e:2e:dd:f9:24:26:85:41:3e:7b:45:74:3e:52:a9:
                    ec:e0:f7:a8:40:58:15:16:c3:97:51:63:1b:1f:16:
                    04:4d:3c:21:79:1b:0e:c4:52:20:0e:0d:21:18:66:
                    9f:04:59:e4:8a:57:88:b3:49:5d:0c:7d:3b:75:36:
                    45:bc:61:f7:c2:a7:01:ed:1f:38:0b:c9:6b:cd:2c:
                    b4:29:af:c6:af:02:64:d9:78:59:74:c8:a1:49:6b:
                    79:64:d3:a0:5a:ee:8b:3d:7e:1e:0b:b9:d9:2c:17:
                    f5:56:9a:f2:81:a0:7f:bc:89:56:eb:49:8b:8e:f7:
                    d2:bd
                Exponent: 65537 (0x10001)
        X509v3 extensions:
            X509v3 Basic Constraints: 
                CA:FALSE
            X509v3 Subject Key Identifier: 
                B3:B3:92:4E:BD:19:5E:A8:2C:65:94:38:5D:D3:C0:ED:B9:AC:03:24
            X509v3 Authority Key Identifier: 
                keyid:D2:AD:37:30:5B:8A:88:01:33:A4:E1:FB:D8:A1:CF:B2:96:8B:A5:8C
                DirName:/CN=team376-net
                serial:32:F0:02:01:DE:36:60:37:E6:A6:D0:23:B2:31:98:92:90:02:5A:42

            X509v3 Extended Key Usage: 
                TLS Web Server Authentication
            X509v3 Key Usage: 
                Digital Signature, Key Encipherment
            X509v3 Subject Alternative Name: 
                DNS:team376-server
    Signature Algorithm: sha256WithRSAEncryption
         a1:8b:e1:65:3a:21:8c:77:89:12:d1:bc:3c:f1:16:43:97:41:
         46:55:a6:de:9c:df:42:d5:0d:9d:31:c3:c6:70:e9:95:75:81:
         20:6e:d2:65:c9:b9:a5:5d:83:4c:9e:67:dd:29:fc:bb:48:22:
         28:0c:5d:16:93:cd:af:92:17:47:20:59:06:86:a8:62:02:5f:
         dc:51:2a:e4:32:b5:1d:f0:5c:96:9e:b3:24:54:6f:18:31:fb:
         3a:3a:58:cc:0d:f8:19:65:dd:5b:8d:48:54:d5:d3:26:19:1d:
         ad:0e:07:c3:c6:0f:ad:2b:34:5f:cd:78:7a:dd:29:fb:dd:cf:
         c8:8a:0d:bf:2a:03:95:34:f4:40:a4:74:a5:8d:72:69:ed:67:
         aa:ef:b6:6d:ab:ba:ba:43:5f:48:9b:22:6a:4f:a9:a2:75:4c:
         9f:54:86:d2:7f:ca:e8:a7:b5:5b:66:ce:e5:6c:51:06:1d:b0:
         2c:fb:a7:52:12:b9:60:7d:61:ab:bd:2d:1a:3c:bb:50:51:de:
         f6:3c:da:c1:30:00:54:15:8c:30:47:55:5d:68:01:56:4c:66:
         5a:8b:ed:dd:7e:6a:e8:e5:53:42:d8:ff:89:b0:71:96:aa:b7:
         3e:1e:b6:0f:53:73:91:08:3a:64:9d:27:b1:e9:f8:43:4b:f7:
         72:0d:e1:18
-----BEGIN CERTIFICATE-----
MIIDdzCCAl+gAwIBAgIQD/fIhGlT6ShqTjshmynPtDANBgkqhkiG9w0BAQsFADAW
MRQwEgYDVQQDDAt0ZWFtMzc2LW5ldDAeFw0yMTA5MTMwMjA2NTVaFw0yNDA4Mjgw
MjA2NTVaMBkxFzAVBgNVBAMMDnRlYW0zNzYtc2VydmVyMIIBIjANBgkqhkiG9w0B
AQEFAAOCAQ8AMIIBCgKCAQEA3Sj1LsnibcKNrDNWFuY8boA4W9iBHaojMMTr8+L6
NGwewaFhwMQLBCCZMCK6bJ4EBlzmce9u3zIuYdLDYWfmzuu/LeKJR/MoUAQSF1Pe
ByTS87KBKxRgdJil3/yPf9uiwhCXtLW637kqjFbcsQVtOotBkLDj2Jv967yuVIRI
n1MLMd/GqcUeLt35JCaFQT57RXQ+Uqns4PeoQFgVFsOXUWMbHxYETTwheRsOxFIg
Dg0hGGafBFnkileIs0ldDH07dTZFvGH3wqcB7R84C8lrzSy0Ka/GrwJk2XhZdMih
SWt5ZNOgWu6LPX4eC7nZLBf1VprygaB/vIlW60mLjvfSvQIDAQABo4G9MIG6MAkG
A1UdEwQCMAAwHQYDVR0OBBYEFLOzkk69GV6oLGWUOF3TwO25rAMkMFEGA1UdIwRK
MEiAFNKtNzBbiogBM6Th+9ihz7KWi6WMoRqkGDAWMRQwEgYDVQQDDAt0ZWFtMzc2
LW5ldIIUMvACAd42YDfmptAjsjGYkpACWkIwEwYDVR0lBAwwCgYIKwYBBQUHAwEw
CwYDVR0PBAQDAgWgMBkGA1UdEQQSMBCCDnRlYW0zNzYtc2VydmVyMA0GCSqGSIb3
DQEBCwUAA4IBAQChi+FlOiGMd4kS0bw88RZDl0FGVabenN9C1Q2dMcPGcOmVdYEg
btJlybmlXYNMnmfdKfy7SCIoDF0Wk82vkhdHIFkGhqhiAl/cUSrkMrUd8FyWnrMk
VG8YMfs6OljMDfgZZd1bjUhU1dMmGR2tDgfDxg+tKzRfzXh63Sn73c/Iig2/KgOV
NPRApHSljXJp7Weq77Ztq7q6Q19ImyJqT6midUyfVIbSf8rop7VbZs7lbFEGHbAs
+6dSErlgfWGrvS0aPLtQUd72PNrBMABUFYwwR1VdaAFWTGZai+3dfmro5VNC2P+J
sHGWqrc+HrYPU3ORCDpknSex6fhDS/dyDeEY
-----END CERTIFICATE-----
