Certificate:
    Data:
        Version: 3 (0x2)
        Serial Number:
            74:c9:f2:82:bc:d3:a2:62:36:4d:fd:3f:51:14:c6:83
        Signature Algorithm: sha256WithRSAEncryption
        Issuer: CN=team715-net
        Validity
            Not Before: Sep 13 04:56:54 2021 GMT
            Not After : Aug 28 04:56:54 2024 GMT
        Subject: CN=team715-client
        Subject Public Key Info:
            Public Key Algorithm: rsaEncryption
                RSA Public-Key: (2048 bit)
                Modulus:
                    00:ce:41:2a:78:f0:2a:c6:66:c7:93:89:5f:6e:dc:
                    9a:5c:50:2f:65:3d:ba:c5:1b:73:2c:11:6b:48:78:
                    1d:4f:f6:bd:0a:0e:14:31:e1:83:cf:5c:52:f5:d1:
                    28:79:01:47:56:3f:38:7c:0f:f0:10:be:0c:db:6c:
                    d9:9a:67:7e:fd:3f:ef:df:e2:bc:0b:db:a6:03:d7:
                    74:ee:57:d5:ba:f6:62:ff:ea:4b:32:8f:3c:9f:04:
                    0b:c2:86:da:1d:1d:e5:b9:ad:85:28:d0:94:5b:f1:
                    81:53:12:21:34:e2:88:3c:53:58:c8:b8:2d:41:ce:
                    13:62:cb:cd:f3:8b:fd:8f:11:d4:65:c0:03:1d:8e:
                    84:ad:e4:b5:ac:3e:d6:4c:81:bf:e4:26:92:54:50:
                    d1:e7:a8:85:e2:c6:fa:e9:17:2e:13:b8:51:55:27:
                    2b:c3:a6:da:e4:1b:ed:55:74:b0:29:21:51:7b:58:
                    28:ab:06:e8:65:4d:fe:6c:cc:2d:16:1b:2b:e0:f2:
                    45:99:5c:c9:34:f6:e5:37:bd:06:8f:de:18:68:7e:
                    b7:13:93:61:17:1b:c5:a5:0c:ae:a9:89:4b:2b:7a:
                    a5:79:d8:6e:28:03:d5:bd:f0:62:17:69:4c:e4:32:
                    98:1b:16:7f:a7:68:77:0b:73:5c:31:f7:cf:2f:5f:
                    96:3f
                Exponent: 65537 (0x10001)
        X509v3 extensions:
            X509v3 Basic Constraints: 
                CA:FALSE
            X509v3 Subject Key Identifier: 
                CE:93:7E:F9:32:89:59:DA:3A:24:65:1B:3F:1A:9B:EA:7D:EE:A5:A0
            X509v3 Authority Key Identifier: 
                keyid:3D:5E:FE:31:1C:18:9A:BF:C1:28:ED:0C:63:3E:F3:A5:8C:77:EB:E0
                DirName:/CN=team715-net
                serial:77:BC:17:DE:6F:A8:D5:78:C3:B3:8D:8E:67:CF:BE:2D:DD:B5:03:4E

            X509v3 Extended Key Usage: 
                TLS Web Client Authentication
            X509v3 Key Usage: 
                Digital Signature
    Signature Algorithm: sha256WithRSAEncryption
         7c:b1:93:b0:25:3b:f6:c3:12:82:5c:a8:8c:8f:f8:eb:3f:30:
         e7:be:ba:7c:17:a2:17:62:f9:f7:9a:78:c6:06:0c:e5:7a:d7:
         e2:2e:aa:68:36:c4:b0:df:05:c9:fb:29:d8:f5:be:42:34:b8:
         e8:e0:09:ba:63:50:90:c4:2f:56:2b:5d:40:57:f5:81:16:61:
         e0:03:20:82:45:73:ba:bd:c0:88:ea:a4:9d:07:5a:cb:56:60:
         af:bd:2e:f6:dd:ea:f7:aa:52:2a:91:c6:26:89:7e:b2:19:0e:
         66:29:20:f2:54:e6:0b:41:68:41:f0:f8:b9:60:80:b9:e6:77:
         2e:4d:8d:31:42:85:2c:c4:89:50:0b:80:45:9a:6e:70:7f:10:
         a0:71:1b:a9:c1:86:ac:f7:7e:26:f5:9c:c9:c4:98:67:34:b3:
         d4:c2:7a:cd:65:d9:be:3c:c4:5a:35:90:36:02:c7:22:9b:bf:
         11:03:93:ae:54:48:30:5e:2d:60:c8:a1:d5:79:80:d6:32:c2:
         7b:62:7e:01:0f:9b:89:55:5b:09:7d:3f:f5:e8:98:7c:58:6f:
         8a:cb:46:12:fe:6e:6c:0a:ba:9e:72:b1:77:db:3e:45:fd:7a:
         c4:fd:59:da:04:dd:63:a0:60:b2:62:c7:15:fa:61:d1:01:b1:
         8a:8c:24:34
-----BEGIN CERTIFICATE-----
MIIDXDCCAkSgAwIBAgIQdMnygrzTomI2Tf0/URTGgzANBgkqhkiG9w0BAQsFADAW
MRQwEgYDVQQDDAt0ZWFtNzE1LW5ldDAeFw0yMTA5MTMwNDU2NTRaFw0yNDA4Mjgw
NDU2NTRaMBkxFzAVBgNVBAMMDnRlYW03MTUtY2xpZW50MIIBIjANBgkqhkiG9w0B
AQEFAAOCAQ8AMIIBCgKCAQEAzkEqePAqxmbHk4lfbtyaXFAvZT26xRtzLBFrSHgd
T/a9Cg4UMeGDz1xS9dEoeQFHVj84fA/wEL4M22zZmmd+/T/v3+K8C9umA9d07lfV
uvZi/+pLMo88nwQLwobaHR3lua2FKNCUW/GBUxIhNOKIPFNYyLgtQc4TYsvN84v9
jxHUZcADHY6EreS1rD7WTIG/5CaSVFDR56iF4sb66RcuE7hRVScrw6ba5BvtVXSw
KSFRe1goqwboZU3+bMwtFhsr4PJFmVzJNPblN70Gj94YaH63E5NhFxvFpQyuqYlL
K3qledhuKAPVvfBiF2lM5DKYGxZ/p2h3C3NcMffPL1+WPwIDAQABo4GiMIGfMAkG
A1UdEwQCMAAwHQYDVR0OBBYEFM6TfvkyiVnaOiRlGz8am+p97qWgMFEGA1UdIwRK
MEiAFD1e/jEcGJq/wSjtDGM+86WMd+vgoRqkGDAWMRQwEgYDVQQDDAt0ZWFtNzE1
LW5ldIIUd7wX3m+o1XjDs42OZ8++Ld21A04wEwYDVR0lBAwwCgYIKwYBBQUHAwIw
CwYDVR0PBAQDAgeAMA0GCSqGSIb3DQEBCwUAA4IBAQB8sZOwJTv2wxKCXKiMj/jr
PzDnvrp8F6IXYvn3mnjGBgzletfiLqpoNsSw3wXJ+ynY9b5CNLjo4Am6Y1CQxC9W
K11AV/WBFmHgAyCCRXO6vcCI6qSdB1rLVmCvvS723er3qlIqkcYmiX6yGQ5mKSDy
VOYLQWhB8Pi5YIC55ncuTY0xQoUsxIlQC4BFmm5wfxCgcRupwYas934m9ZzJxJhn
NLPUwnrNZdm+PMRaNZA2Ascim78RA5OuVEgwXi1gyKHVeYDWMsJ7Yn4BD5uJVVsJ
fT/16Jh8WG+Ky0YS/m5sCrqecrF32z5F/XrE/VnaBN1joGCyYscV+mHRAbGKjCQ0
-----END CERTIFICATE-----
