Certificate:
    Data:
        Version: 3 (0x2)
        Serial Number:
            42:51:3f:a0:08:05:4b:b3:17:25:7d:15:ab:f7:05:47
        Signature Algorithm: sha256WithRSAEncryption
        Issuer: CN=team186-net
        Validity
            Not Before: Sep 13 00:31:56 2021 GMT
            Not After : Aug 28 00:31:56 2024 GMT
        Subject: CN=team186-client
        Subject Public Key Info:
            Public Key Algorithm: rsaEncryption
                RSA Public-Key: (2048 bit)
                Modulus:
                    00:ee:bf:b1:0d:4d:bd:ac:45:fb:74:12:79:50:f5:
                    d9:8d:8f:ee:f2:2c:98:7b:e8:1f:32:2e:a6:42:d7:
                    1d:b1:58:52:4a:ec:70:00:16:1d:d1:a6:a6:c3:24:
                    78:1d:e9:dd:d2:2c:70:d4:af:75:83:6f:0e:ff:f3:
                    75:f6:2f:11:a9:3c:c2:d0:b4:8a:d7:4e:a3:65:c1:
                    49:72:8a:98:2a:36:fd:2f:ee:f9:a7:4d:a2:62:d3:
                    f7:15:c2:bb:f0:c9:f9:9e:0c:99:2d:dd:08:79:44:
                    8c:b9:b1:c8:4b:aa:a2:5d:5b:9b:73:66:d7:9d:ce:
                    50:e9:21:92:16:8f:d2:75:e3:5c:07:ef:0e:bf:f1:
                    71:f0:a0:24:f5:8f:d8:2a:2f:2f:a8:a2:fc:08:ed:
                    73:0e:25:c5:93:46:bb:81:8d:94:fe:b8:1e:d8:ad:
                    0b:0f:89:e0:ab:e2:54:8c:f4:a8:31:3a:a7:7f:87:
                    b1:12:5a:9e:77:fd:50:5d:9e:50:1c:84:85:50:61:
                    14:e5:f0:64:aa:69:db:ca:ed:87:28:77:99:6a:44:
                    fc:c3:89:ca:23:6d:c6:e2:14:d5:c3:6a:5b:fc:88:
                    4f:50:fa:77:32:66:4a:27:81:46:c9:65:17:47:e2:
                    19:32:9e:97:6a:47:f0:ed:d5:1d:7b:ea:0a:a6:f5:
                    ad:b7
                Exponent: 65537 (0x10001)
        X509v3 extensions:
            X509v3 Basic Constraints: 
                CA:FALSE
            X509v3 Subject Key Identifier: 
                B8:C1:DE:E9:E3:22:25:54:CC:DD:C6:A6:4D:2B:50:36:EC:40:B1:B6
            X509v3 Authority Key Identifier: 
                keyid:47:BC:3B:81:C1:C6:3E:42:25:E8:FA:46:A5:B8:89:81:53:81:90:B2
                DirName:/CN=team186-net
                serial:52:4D:27:1C:BC:03:5E:6B:E4:91:6D:45:78:2D:55:AE:D7:1D:2D:9F

            X509v3 Extended Key Usage: 
                TLS Web Client Authentication
            X509v3 Key Usage: 
                Digital Signature
    Signature Algorithm: sha256WithRSAEncryption
         26:e8:2c:2e:c5:b0:ec:7c:02:f3:36:05:34:bc:8a:74:60:47:
         90:e5:12:b0:f0:42:40:69:aa:ca:36:a7:94:26:a6:66:70:5a:
         b1:19:49:7d:a3:57:b1:ba:1b:cf:36:4e:ef:42:63:6e:28:4d:
         09:b1:2a:ba:1f:ef:07:d2:19:49:73:83:04:3c:47:f5:38:11:
         08:5e:1b:05:c3:16:8f:c0:3b:d6:63:5f:a7:88:86:00:0e:97:
         c5:9d:5c:10:da:ea:2e:32:4e:13:c0:59:b0:db:5a:c0:a6:34:
         9d:3b:e1:2c:04:6a:ef:8d:57:42:f6:2e:12:a8:23:fb:dc:61:
         26:85:03:0e:86:42:71:9e:f6:10:52:5f:e0:df:32:89:86:90:
         5f:32:da:aa:26:01:4d:59:52:7d:c3:88:23:37:1b:41:3d:b8:
         e2:79:72:31:7e:b6:31:38:b3:63:61:17:f8:22:13:c0:74:2f:
         15:2a:6d:7f:86:ff:c4:13:7f:c9:aa:0c:71:db:e7:bf:1c:d7:
         81:5d:1b:77:24:ba:7c:10:63:8c:8e:e4:f7:ca:ea:d0:78:b2:
         52:62:86:9f:06:23:4c:1c:68:a2:96:cf:7f:17:87:36:82:dd:
         ca:71:22:7c:7e:5c:8a:6b:7a:0b:71:0a:e5:80:93:52:e5:b1:
         3f:20:bf:67
-----BEGIN CERTIFICATE-----
MIIDXDCCAkSgAwIBAgIQQlE/oAgFS7MXJX0Vq/cFRzANBgkqhkiG9w0BAQsFADAW
MRQwEgYDVQQDDAt0ZWFtMTg2LW5ldDAeFw0yMTA5MTMwMDMxNTZaFw0yNDA4Mjgw
MDMxNTZaMBkxFzAVBgNVBAMMDnRlYW0xODYtY2xpZW50MIIBIjANBgkqhkiG9w0B
AQEFAAOCAQ8AMIIBCgKCAQEA7r+xDU29rEX7dBJ5UPXZjY/u8iyYe+gfMi6mQtcd
sVhSSuxwABYd0aamwyR4Hend0ixw1K91g28O//N19i8RqTzC0LSK106jZcFJcoqY
Kjb9L+75p02iYtP3FcK78Mn5ngyZLd0IeUSMubHIS6qiXVubc2bXnc5Q6SGSFo/S
deNcB+8Ov/Fx8KAk9Y/YKi8vqKL8CO1zDiXFk0a7gY2U/rge2K0LD4ngq+JUjPSo
MTqnf4exElqed/1QXZ5QHISFUGEU5fBkqmnbyu2HKHeZakT8w4nKI23G4hTVw2pb
/IhPUPp3MmZKJ4FGyWUXR+IZMp6Xakfw7dUde+oKpvWttwIDAQABo4GiMIGfMAkG
A1UdEwQCMAAwHQYDVR0OBBYEFLjB3unjIiVUzN3Gpk0rUDbsQLG2MFEGA1UdIwRK
MEiAFEe8O4HBxj5CJej6RqW4iYFTgZCyoRqkGDAWMRQwEgYDVQQDDAt0ZWFtMTg2
LW5ldIIUUk0nHLwDXmvkkW1FeC1VrtcdLZ8wEwYDVR0lBAwwCgYIKwYBBQUHAwIw
CwYDVR0PBAQDAgeAMA0GCSqGSIb3DQEBCwUAA4IBAQAm6CwuxbDsfALzNgU0vIp0
YEeQ5RKw8EJAaarKNqeUJqZmcFqxGUl9o1exuhvPNk7vQmNuKE0JsSq6H+8H0hlJ
c4MEPEf1OBEIXhsFwxaPwDvWY1+niIYADpfFnVwQ2uouMk4TwFmw21rApjSdO+Es
BGrvjVdC9i4SqCP73GEmhQMOhkJxnvYQUl/g3zKJhpBfMtqqJgFNWVJ9w4gjNxtB
PbjieXIxfrYxOLNjYRf4IhPAdC8VKm1/hv/EE3/Jqgxx2+e/HNeBXRt3JLp8EGOM
juT3yurQeLJSYoafBiNMHGiils9/F4c2gt3KcSJ8flyKa3oLcQrlgJNS5bE/IL9n
-----END CERTIFICATE-----
