Certificate:
    Data:
        Version: 3 (0x2)
        Serial Number:
            7c:dc:8e:b6:44:f8:83:31:d2:8a:e2:1f:76:c3:75:60
        Signature Algorithm: sha256WithRSAEncryption
        Issuer: CN=team186-net
        Validity
            Not Before: Sep 13 00:31:56 2021 GMT
            Not After : Aug 28 00:31:56 2024 GMT
        Subject: CN=team186-server
        Subject Public Key Info:
            Public Key Algorithm: rsaEncryption
                RSA Public-Key: (2048 bit)
                Modulus:
                    00:da:8b:21:ff:c2:6c:a9:1c:0b:4c:a6:32:ba:10:
                    6b:b9:89:a2:6d:b4:57:8d:d5:9e:49:1f:65:d0:93:
                    45:3c:05:cd:9b:d4:df:4b:ae:6a:29:43:b6:7d:14:
                    c8:11:d6:96:5f:91:16:f1:c8:e7:7a:e2:b2:c2:54:
                    06:e5:f3:fc:a5:d9:2c:b8:b8:1a:4d:26:24:c0:7f:
                    57:d9:e4:be:dc:53:d9:5d:7c:8a:15:2c:0a:cf:05:
                    dd:de:02:cb:d9:5b:50:03:ec:ac:23:de:58:82:d1:
                    ae:75:76:ae:d7:88:ae:bc:4a:88:67:54:66:75:5f:
                    0a:81:15:a4:12:69:67:89:15:b6:75:44:05:4e:ab:
                    24:d1:c8:02:ea:72:e8:d8:5f:a4:2f:70:94:00:3e:
                    0a:31:ef:3d:4c:1b:47:64:04:59:93:6f:a5:70:9d:
                    05:7f:cb:0f:2c:50:d5:1a:5e:b3:ea:b3:50:75:e2:
                    16:d3:09:8e:8f:39:2f:99:6c:e7:38:d3:21:68:e5:
                    9c:b6:31:61:81:00:94:a6:de:5c:78:3f:13:5f:35:
                    91:70:44:c8:3d:14:06:00:ca:f6:15:e4:1e:fc:8b:
                    b3:83:de:91:16:36:53:41:c2:5f:cf:f4:51:79:6c:
                    5c:81:50:31:2a:15:03:b4:ae:e1:d6:8a:cf:3e:e6:
                    95:2b
                Exponent: 65537 (0x10001)
        X509v3 extensions:
            X509v3 Basic Constraints: 
                CA:FALSE
            X509v3 Subject Key Identifier: 
                00:0F:EC:50:B2:6E:2F:38:E6:0A:AB:A6:00:81:B1:EF:BF:DD:EF:F4
            X509v3 Authority Key Identifier: 
                keyid:47:BC:3B:81:C1:C6:3E:42:25:E8:FA:46:A5:B8:89:81:53:81:90:B2
                DirName:/CN=team186-net
                serial:52:4D:27:1C:BC:03:5E:6B:E4:91:6D:45:78:2D:55:AE:D7:1D:2D:9F

            X509v3 Extended Key Usage: 
                TLS Web Server Authentication
            X509v3 Key Usage: 
                Digital Signature, Key Encipherment
            X509v3 Subject Alternative Name: 
                DNS:team186-server
    Signature Algorithm: sha256WithRSAEncryption
         d4:20:0b:a5:22:4a:39:3b:be:c1:28:1d:bc:ef:14:e0:be:4a:
         0b:30:c8:15:a3:41:40:b5:20:01:a0:dc:15:f6:fe:7b:24:27:
         1a:c8:3c:bf:d4:a2:93:4f:85:39:75:b6:b4:64:d9:0a:4f:0a:
         ca:20:d6:67:a5:7a:17:03:7d:38:fe:1e:24:cb:b4:27:de:3b:
         08:0c:de:4c:aa:3a:df:1f:e3:f5:0a:80:33:59:7f:76:98:0d:
         11:dc:80:29:e6:18:79:fc:9b:3b:bf:2d:80:c4:be:cc:b4:e6:
         c1:50:2c:c1:98:e1:d1:25:31:b5:b7:ad:8c:5a:82:84:38:66:
         e0:97:59:e7:3e:d2:1f:d2:b4:93:23:73:92:5f:d1:d5:58:0e:
         b7:c6:50:a2:20:49:6c:64:da:63:32:b6:f8:33:04:e5:ac:29:
         2f:0c:9c:ae:bf:be:c3:57:5b:98:c7:65:b2:84:d1:d2:f5:71:
         96:22:d4:ea:63:d0:ce:7a:7e:c9:2e:6c:a3:cf:b3:15:71:97:
         66:01:d5:98:9e:18:5d:1f:de:ff:36:76:02:53:6d:a5:c6:39:
         fb:f0:ba:63:cd:d0:40:54:e8:7e:b4:7e:2c:a1:0f:6a:9e:b8:
         ff:dd:4d:8e:54:f7:1d:98:09:be:9e:3a:e4:b3:7e:a1:b2:bc:
         44:cf:c8:17
-----BEGIN CERTIFICATE-----
MIIDdzCCAl+gAwIBAgIQfNyOtkT4gzHSiuIfdsN1YDANBgkqhkiG9w0BAQsFADAW
MRQwEgYDVQQDDAt0ZWFtMTg2LW5ldDAeFw0yMTA5MTMwMDMxNTZaFw0yNDA4Mjgw
MDMxNTZaMBkxFzAVBgNVBAMMDnRlYW0xODYtc2VydmVyMIIBIjANBgkqhkiG9w0B
AQEFAAOCAQ8AMIIBCgKCAQEA2osh/8JsqRwLTKYyuhBruYmibbRXjdWeSR9l0JNF
PAXNm9TfS65qKUO2fRTIEdaWX5EW8cjneuKywlQG5fP8pdksuLgaTSYkwH9X2eS+
3FPZXXyKFSwKzwXd3gLL2VtQA+ysI95YgtGudXau14iuvEqIZ1RmdV8KgRWkEmln
iRW2dUQFTqsk0cgC6nLo2F+kL3CUAD4KMe89TBtHZARZk2+lcJ0Ff8sPLFDVGl6z
6rNQdeIW0wmOjzkvmWznONMhaOWctjFhgQCUpt5ceD8TXzWRcETIPRQGAMr2FeQe
/Iuzg96RFjZTQcJfz/RReWxcgVAxKhUDtK7h1orPPuaVKwIDAQABo4G9MIG6MAkG
A1UdEwQCMAAwHQYDVR0OBBYEFAAP7FCybi845gqrpgCBse+/3e/0MFEGA1UdIwRK
MEiAFEe8O4HBxj5CJej6RqW4iYFTgZCyoRqkGDAWMRQwEgYDVQQDDAt0ZWFtMTg2
LW5ldIIUUk0nHLwDXmvkkW1FeC1VrtcdLZ8wEwYDVR0lBAwwCgYIKwYBBQUHAwEw
CwYDVR0PBAQDAgWgMBkGA1UdEQQSMBCCDnRlYW0xODYtc2VydmVyMA0GCSqGSIb3
DQEBCwUAA4IBAQDUIAulIko5O77BKB287xTgvkoLMMgVo0FAtSABoNwV9v57JCca
yDy/1KKTT4U5dba0ZNkKTwrKINZnpXoXA304/h4ky7Qn3jsIDN5MqjrfH+P1CoAz
WX92mA0R3IAp5hh5/Js7vy2AxL7MtObBUCzBmOHRJTG1t62MWoKEOGbgl1nnPtIf
0rSTI3OSX9HVWA63xlCiIElsZNpjMrb4MwTlrCkvDJyuv77DV1uYx2WyhNHS9XGW
ItTqY9DOen7JLmyjz7MVcZdmAdWYnhhdH97/NnYCU22lxjn78LpjzdBAVOh+tH4s
oQ9qnrj/3U2OVPcdmAm+njrks36hsrxEz8gX
-----END CERTIFICATE-----
