Certificate:
    Data:
        Version: 3 (0x2)
        Serial Number:
            cd:70:e9:ae:72:0c:0b:e3:31:d5:ec:83:c9:f3:00:ea
        Signature Algorithm: sha256WithRSAEncryption
        Issuer: CN=team651-net
        Validity
            Not Before: Sep 13 04:24:44 2021 GMT
            Not After : Aug 28 04:24:44 2024 GMT
        Subject: CN=team651-server
        Subject Public Key Info:
            Public Key Algorithm: rsaEncryption
                RSA Public-Key: (2048 bit)
                Modulus:
                    00:ba:4f:6b:5b:8c:81:64:1a:32:ae:e5:a1:4b:59:
                    33:26:ad:a3:1c:21:93:c8:d9:74:32:9d:4d:0d:8a:
                    0f:d4:0c:35:13:17:34:21:37:6d:b3:6d:db:18:4f:
                    c3:ee:57:09:20:a0:3a:da:bc:86:12:d6:96:45:ec:
                    d5:69:0c:93:42:54:25:08:85:7a:10:55:cc:2d:db:
                    63:da:e1:96:bb:0f:c0:bc:5a:3b:62:b4:b8:d2:6e:
                    3a:3a:ac:3b:28:c3:51:22:f4:3e:5c:03:52:54:a9:
                    24:8b:17:de:63:3a:50:fb:7f:6a:ba:5d:2b:b3:29:
                    23:26:85:17:4f:8f:8f:63:b4:12:b2:34:e4:d1:aa:
                    3a:1d:b3:18:22:52:29:6b:94:9e:bc:34:7a:8c:20:
                    6e:f5:a2:38:ed:8f:96:1b:93:fa:07:61:1d:8d:c3:
                    e6:21:7d:02:e9:45:20:d5:f7:b1:b7:35:ce:64:9c:
                    6f:8c:0a:41:a5:e2:43:a1:57:d5:78:dc:77:82:43:
                    97:7e:03:7b:9f:f7:73:bb:2a:b7:e5:e2:53:48:c6:
                    86:e9:9f:7b:be:76:da:e0:f1:14:85:84:bb:ef:26:
                    7a:3b:72:e0:4f:6d:e7:a7:c8:29:af:5e:27:72:07:
                    ed:3b:85:c4:90:45:d4:af:15:db:62:35:6b:73:0d:
                    c0:6f
                Exponent: 65537 (0x10001)
        X509v3 extensions:
            X509v3 Basic Constraints: 
                CA:FALSE
            X509v3 Subject Key Identifier: 
                E0:E3:B9:B7:F8:6C:78:AE:22:09:FB:23:33:EC:9E:8F:52:25:70:D1
            X509v3 Authority Key Identifier: 
                keyid:AA:59:D8:01:0F:DF:04:1D:5C:81:9F:2C:0A:43:B1:92:2C:93:B9:64
                DirName:/CN=team651-net
                serial:4D:CE:E8:36:2C:92:4B:B1:EE:08:D0:A2:60:65:62:25:68:46:B6:39

            X509v3 Extended Key Usage: 
                TLS Web Server Authentication
            X509v3 Key Usage: 
                Digital Signature, Key Encipherment
            X509v3 Subject Alternative Name: 
                DNS:team651-server
    Signature Algorithm: sha256WithRSAEncryption
         2c:91:c2:cf:bb:39:10:cd:f0:7f:63:6e:f3:ab:10:4f:de:f1:
         6c:5f:6e:9a:69:79:16:8d:03:3b:c5:7d:99:8b:e6:2a:ee:b8:
         d8:88:93:f3:c2:8a:11:81:3d:04:e3:08:02:2b:25:28:2e:da:
         06:c5:aa:51:45:b8:13:96:20:0b:1c:a0:16:9f:e9:5f:44:ea:
         c2:49:ea:b2:52:49:72:5f:35:cb:35:0f:ba:0d:a0:8c:38:93:
         67:4f:1f:00:3d:f3:93:52:8f:da:67:79:82:74:9f:d4:7d:3c:
         b4:47:4d:9c:95:0f:3a:79:dc:d4:b9:de:eb:8b:bb:01:f7:4b:
         86:e4:cc:c3:c9:2e:2a:8f:31:6c:e0:c2:24:53:0e:4c:94:53:
         93:90:6c:dc:09:80:65:6c:f0:dd:9a:cc:11:11:46:99:4a:9d:
         9f:ba:8e:e1:62:ef:3b:82:be:fa:90:75:b1:7b:e6:af:ba:5e:
         ef:8d:15:61:c6:9d:8f:de:49:be:fc:b7:60:9a:97:c8:ee:28:
         75:47:13:23:0d:48:ef:04:13:6a:80:10:ad:9f:e6:9c:7c:50:
         d6:81:d3:1c:43:84:fe:64:65:6b:63:f8:83:c0:d4:79:25:80:
         c6:74:12:60:a4:6c:57:a7:aa:ac:c2:8a:32:53:d4:a8:c1:e8:
         2e:cb:c2:b4
-----BEGIN CERTIFICATE-----
MIIDeDCCAmCgAwIBAgIRAM1w6a5yDAvjMdXsg8nzAOowDQYJKoZIhvcNAQELBQAw
FjEUMBIGA1UEAwwLdGVhbTY1MS1uZXQwHhcNMjEwOTEzMDQyNDQ0WhcNMjQwODI4
MDQyNDQ0WjAZMRcwFQYDVQQDDA50ZWFtNjUxLXNlcnZlcjCCASIwDQYJKoZIhvcN
AQEBBQADggEPADCCAQoCggEBALpPa1uMgWQaMq7loUtZMyatoxwhk8jZdDKdTQ2K
D9QMNRMXNCE3bbNt2xhPw+5XCSCgOtq8hhLWlkXs1WkMk0JUJQiFehBVzC3bY9rh
lrsPwLxaO2K0uNJuOjqsOyjDUSL0PlwDUlSpJIsX3mM6UPt/arpdK7MpIyaFF0+P
j2O0ErI05NGqOh2zGCJSKWuUnrw0eowgbvWiOO2PlhuT+gdhHY3D5iF9AulFINX3
sbc1zmScb4wKQaXiQ6FX1Xjcd4JDl34De5/3c7sqt+XiU0jGhumfe7522uDxFIWE
u+8mejty4E9t56fIKa9eJ3IH7TuFxJBF1K8V22I1a3MNwG8CAwEAAaOBvTCBujAJ
BgNVHRMEAjAAMB0GA1UdDgQWBBTg47m3+Gx4riIJ+yMz7J6PUiVw0TBRBgNVHSME
SjBIgBSqWdgBD98EHVyBnywKQ7GSLJO5ZKEapBgwFjEUMBIGA1UEAwwLdGVhbTY1
MS1uZXSCFE3O6DYskkux7gjQomBlYiVoRrY5MBMGA1UdJQQMMAoGCCsGAQUFBwMB
MAsGA1UdDwQEAwIFoDAZBgNVHREEEjAQgg50ZWFtNjUxLXNlcnZlcjANBgkqhkiG
9w0BAQsFAAOCAQEALJHCz7s5EM3wf2Nu86sQT97xbF9umml5Fo0DO8V9mYvmKu64
2IiT88KKEYE9BOMIAislKC7aBsWqUUW4E5YgCxygFp/pX0TqwknqslJJcl81yzUP
ug2gjDiTZ08fAD3zk1KP2md5gnSf1H08tEdNnJUPOnnc1Lne64u7AfdLhuTMw8ku
Ko8xbODCJFMOTJRTk5Bs3AmAZWzw3ZrMERFGmUqdn7qO4WLvO4K++pB1sXvmr7pe
740VYcadj95Jvvy3YJqXyO4odUcTIw1I7wQTaoAQrZ/mnHxQ1oHTHEOE/mRla2P4
g8DUeSWAxnQSYKRsV6eqrMKKMlPUqMHoLsvCtA==
-----END CERTIFICATE-----
