Certificate:
    Data:
        Version: 3 (0x2)
        Serial Number:
            f6:29:f7:63:09:0c:91:55:63:a7:f4:34:6b:ba:e8:68
        Signature Algorithm: sha256WithRSAEncryption
        Issuer: CN=team651-net
        Validity
            Not Before: Sep 13 04:24:44 2021 GMT
            Not After : Aug 28 04:24:44 2024 GMT
        Subject: CN=team651-client
        Subject Public Key Info:
            Public Key Algorithm: rsaEncryption
                RSA Public-Key: (2048 bit)
                Modulus:
                    00:de:29:9a:0d:20:d4:f2:8b:4d:26:be:45:27:da:
                    d3:bc:bb:94:6e:21:dc:1a:ef:e9:42:13:7c:49:42:
                    2d:96:b1:3c:42:61:e2:e8:6f:33:1b:90:e3:67:46:
                    c9:7d:8c:67:45:5e:fc:e8:03:2e:6f:76:00:8c:24:
                    f4:b9:bf:66:66:28:29:71:a8:8d:38:d0:0a:91:56:
                    7e:9b:e2:8f:f9:bf:63:e4:b8:af:f1:5e:71:6e:37:
                    3d:d1:5b:e1:7c:cd:c1:7c:5c:68:4d:81:6a:5a:ee:
                    a6:1b:46:78:61:da:df:e6:b8:e0:ac:d6:2b:47:5a:
                    9e:b9:07:ac:b0:09:e9:7d:3d:90:e1:d1:4d:1c:de:
                    7d:fb:b0:e5:27:74:13:d7:82:82:db:0a:cc:06:1e:
                    da:64:f2:c7:0c:21:8a:4f:c2:77:80:11:98:50:16:
                    9b:06:bb:f5:21:70:a2:fb:93:ed:40:73:83:ff:54:
                    de:bd:14:e8:f4:49:f5:b1:f9:d9:b0:4e:56:35:73:
                    5d:e0:83:27:bf:50:17:fd:ac:77:f8:82:f8:42:a8:
                    7e:f5:74:fc:6b:94:54:cf:42:6e:20:a7:ae:65:86:
                    56:a5:17:57:47:70:b2:ff:7b:76:b1:12:96:47:74:
                    45:19:68:71:29:84:01:09:bb:40:89:6b:b4:3b:3e:
                    83:29
                Exponent: 65537 (0x10001)
        X509v3 extensions:
            X509v3 Basic Constraints: 
                CA:FALSE
            X509v3 Subject Key Identifier: 
                8B:89:E5:61:17:B5:7C:41:04:47:1C:7C:2D:62:0E:A9:C8:CC:C9:79
            X509v3 Authority Key Identifier: 
                keyid:AA:59:D8:01:0F:DF:04:1D:5C:81:9F:2C:0A:43:B1:92:2C:93:B9:64
                DirName:/CN=team651-net
                serial:4D:CE:E8:36:2C:92:4B:B1:EE:08:D0:A2:60:65:62:25:68:46:B6:39

            X509v3 Extended Key Usage: 
                TLS Web Client Authentication
            X509v3 Key Usage: 
                Digital Signature
    Signature Algorithm: sha256WithRSAEncryption
         10:7d:83:18:57:69:a2:ba:44:7b:26:85:14:18:0a:74:98:79:
         7b:70:41:dc:e0:c9:31:81:2a:a9:03:f6:11:e7:03:f4:90:e2:
         0a:8a:57:93:29:59:83:a6:2d:88:99:79:7c:aa:65:19:f2:66:
         9f:02:b3:6d:23:ca:f5:d4:52:cc:ba:25:6f:d5:82:fa:05:ea:
         ec:4b:49:51:00:14:70:48:fd:78:fa:9b:3c:90:37:27:0c:d7:
         13:11:ba:25:d6:9e:f9:d1:35:7a:c6:da:23:bd:10:97:e6:2d:
         16:4a:e3:10:23:90:9c:81:56:06:43:04:dc:e5:04:7a:a7:49:
         f1:f3:a7:36:87:c4:3c:c6:7b:82:3f:88:f9:76:c2:2f:ed:af:
         e3:db:b9:12:d3:dd:1d:29:0d:f8:65:88:1f:1d:d6:b8:d6:86:
         2e:d1:d1:f1:bb:1e:9e:52:9e:be:2c:4a:6f:bf:fc:76:04:52:
         d9:e7:05:a2:fd:5f:9c:f7:78:f2:4a:5f:96:a6:7e:7f:87:fc:
         f2:da:52:b8:d4:7a:96:73:ac:90:cf:ab:57:16:a0:82:92:ce:
         25:f2:57:43:54:1f:05:80:0f:1f:75:1b:50:72:87:e9:f1:38:
         bd:de:40:97:d8:24:71:d7:ec:0c:71:29:22:ba:e6:e8:7e:4f:
         6a:c0:25:9f
-----BEGIN CERTIFICATE-----
MIIDXTCCAkWgAwIBAgIRAPYp92MJDJFVY6f0NGu66GgwDQYJKoZIhvcNAQELBQAw
FjEUMBIGA1UEAwwLdGVhbTY1MS1uZXQwHhcNMjEwOTEzMDQyNDQ0WhcNMjQwODI4
MDQyNDQ0WjAZMRcwFQYDVQQDDA50ZWFtNjUxLWNsaWVudDCCASIwDQYJKoZIhvcN
AQEBBQADggEPADCCAQoCggEBAN4pmg0g1PKLTSa+RSfa07y7lG4h3Brv6UITfElC
LZaxPEJh4uhvMxuQ42dGyX2MZ0Ve/OgDLm92AIwk9Lm/ZmYoKXGojTjQCpFWfpvi
j/m/Y+S4r/FecW43PdFb4XzNwXxcaE2BalruphtGeGHa3+a44KzWK0danrkHrLAJ
6X09kOHRTRzeffuw5Sd0E9eCgtsKzAYe2mTyxwwhik/Cd4ARmFAWmwa79SFwovuT
7UBzg/9U3r0U6PRJ9bH52bBOVjVzXeCDJ79QF/2sd/iC+EKofvV0/GuUVM9CbiCn
rmWGVqUXV0dwsv97drESlkd0RRlocSmEAQm7QIlrtDs+gykCAwEAAaOBojCBnzAJ
BgNVHRMEAjAAMB0GA1UdDgQWBBSLieVhF7V8QQRHHHwtYg6pyMzJeTBRBgNVHSME
SjBIgBSqWdgBD98EHVyBnywKQ7GSLJO5ZKEapBgwFjEUMBIGA1UEAwwLdGVhbTY1
MS1uZXSCFE3O6DYskkux7gjQomBlYiVoRrY5MBMGA1UdJQQMMAoGCCsGAQUFBwMC
MAsGA1UdDwQEAwIHgDANBgkqhkiG9w0BAQsFAAOCAQEAEH2DGFdporpEeyaFFBgK
dJh5e3BB3ODJMYEqqQP2EecD9JDiCopXkylZg6YtiJl5fKplGfJmnwKzbSPK9dRS
zLolb9WC+gXq7EtJUQAUcEj9ePqbPJA3JwzXExG6Jdae+dE1esbaI70Ql+YtFkrj
ECOQnIFWBkME3OUEeqdJ8fOnNofEPMZ7gj+I+XbCL+2v49u5EtPdHSkN+GWIHx3W
uNaGLtHR8bsenlKevixKb7/8dgRS2ecFov1fnPd48kpflqZ+f4f88tpSuNR6lnOs
kM+rVxaggpLOJfJXQ1QfBYAPH3UbUHKH6fE4vd5Al9gkcdfsDHEpIrrm6H5PasAl
nw==
-----END CERTIFICATE-----
