Certificate:
    Data:
        Version: 3 (0x2)
        Serial Number:
            ea:1d:8e:e7:56:2a:cd:80:e8:56:8f:29:f9:d7:06:e0
        Signature Algorithm: sha256WithRSAEncryption
        Issuer: CN=team538-net
        Validity
            Not Before: Sep 13 03:41:06 2021 GMT
            Not After : Aug 28 03:41:06 2024 GMT
        Subject: CN=team538-client
        Subject Public Key Info:
            Public Key Algorithm: rsaEncryption
                RSA Public-Key: (2048 bit)
                Modulus:
                    00:d6:0c:8c:5c:6d:b2:07:91:90:65:70:7f:cb:b1:
                    45:eb:0f:d7:f0:fd:f0:bb:8b:e0:47:bd:2c:ad:b9:
                    6c:b3:fd:da:f7:70:be:a2:76:b8:c7:05:de:68:63:
                    bf:a1:86:a7:8f:c0:26:5f:34:3e:4e:76:e7:de:db:
                    5d:e6:eb:2e:8d:d7:fd:d9:9c:5f:bb:4e:87:4f:33:
                    d1:3b:c4:21:ad:65:54:c1:8e:b5:ee:95:33:43:c7:
                    f2:a6:09:88:c1:5d:cf:82:1d:dc:46:13:e1:96:68:
                    fa:e5:6a:d8:ae:52:88:9b:61:d5:e0:5b:02:99:42:
                    e2:04:13:6f:9d:19:8c:3e:d6:1e:6a:a1:c9:63:4f:
                    e0:d5:11:ab:fc:43:c6:02:08:ac:49:c7:8b:bc:1b:
                    6e:39:42:ae:00:ae:10:06:b1:11:db:63:3a:7c:20:
                    09:f9:05:08:c9:f0:88:d0:24:e8:ae:7d:a8:b5:4e:
                    53:68:df:4c:99:b4:67:51:06:af:bd:61:63:ad:94:
                    8e:00:cc:06:03:de:a1:24:ce:c4:40:05:48:4a:d1:
                    aa:56:09:7b:7e:f7:e1:6b:5c:62:8c:66:22:c8:d0:
                    7c:7c:14:a2:a9:a0:c5:f3:3c:a8:be:fa:79:3e:d2:
                    65:bc:9c:dc:bd:dc:7f:48:51:f2:ed:ea:9c:31:3d:
                    17:93
                Exponent: 65537 (0x10001)
        X509v3 extensions:
            X509v3 Basic Constraints: 
                CA:FALSE
            X509v3 Subject Key Identifier: 
                32:34:74:C3:C0:75:14:7F:86:53:1F:DE:62:49:51:BB:B8:6C:64:9D
            X509v3 Authority Key Identifier: 
                keyid:1D:C7:8A:5A:A5:77:D9:4C:3B:C1:C8:2B:38:61:99:1A:BD:2B:F5:95
                DirName:/CN=team538-net
                serial:1D:94:23:D2:7D:ED:AA:02:90:A2:1D:DE:B6:02:B0:8B:57:DC:98:F5

            X509v3 Extended Key Usage: 
                TLS Web Client Authentication
            X509v3 Key Usage: 
                Digital Signature
    Signature Algorithm: sha256WithRSAEncryption
         b5:61:b3:bb:ab:24:e7:a3:ea:f3:8d:f7:2e:5d:c3:36:a6:e7:
         30:04:f0:da:10:58:0c:08:e3:57:22:b0:44:37:10:7d:aa:76:
         9f:03:f4:af:85:94:58:67:c7:41:f5:31:77:b5:84:7b:1a:c4:
         e4:55:e0:20:51:71:a7:d5:e5:12:a9:15:0b:b6:a9:48:78:b5:
         d7:21:26:ea:b8:50:91:7b:a0:b6:48:70:6c:3e:b3:ab:2b:4b:
         6a:2f:42:23:9d:06:22:cd:76:8a:8a:69:79:0e:a4:20:f4:ab:
         50:1f:32:65:98:a4:f7:68:34:c6:52:34:e7:c4:83:a0:36:3e:
         6f:8a:1a:89:04:96:b6:41:af:96:2d:94:22:89:7a:ab:de:8b:
         98:ab:3a:ec:0f:6a:7b:df:e2:31:0c:2b:12:2d:43:54:35:74:
         72:55:5d:61:37:e8:8e:80:22:46:e5:61:d4:77:98:35:10:25:
         30:db:c8:f1:f0:e9:a6:30:5d:db:a2:26:9c:d6:d0:e4:93:38:
         5d:9e:b4:1e:48:07:7f:25:23:a3:b2:78:9f:2e:76:be:d3:21:
         c6:4c:61:75:02:ca:a4:84:e2:d7:ba:5e:5f:79:9b:45:ad:29:
         39:50:43:80:b8:34:85:ad:79:97:a1:73:6b:54:21:57:a2:06:
         78:68:15:74
-----BEGIN CERTIFICATE-----
MIIDXTCCAkWgAwIBAgIRAOodjudWKs2A6FaPKfnXBuAwDQYJKoZIhvcNAQELBQAw
FjEUMBIGA1UEAwwLdGVhbTUzOC1uZXQwHhcNMjEwOTEzMDM0MTA2WhcNMjQwODI4
MDM0MTA2WjAZMRcwFQYDVQQDDA50ZWFtNTM4LWNsaWVudDCCASIwDQYJKoZIhvcN
AQEBBQADggEPADCCAQoCggEBANYMjFxtsgeRkGVwf8uxResP1/D98LuL4Ee9LK25
bLP92vdwvqJ2uMcF3mhjv6GGp4/AJl80Pk52597bXebrLo3X/dmcX7tOh08z0TvE
Ia1lVMGOte6VM0PH8qYJiMFdz4Id3EYT4ZZo+uVq2K5SiJth1eBbAplC4gQTb50Z
jD7WHmqhyWNP4NURq/xDxgIIrEnHi7wbbjlCrgCuEAaxEdtjOnwgCfkFCMnwiNAk
6K59qLVOU2jfTJm0Z1EGr71hY62UjgDMBgPeoSTOxEAFSErRqlYJe3734WtcYoxm
IsjQfHwUoqmgxfM8qL76eT7SZbyc3L3cf0hR8u3qnDE9F5MCAwEAAaOBojCBnzAJ
BgNVHRMEAjAAMB0GA1UdDgQWBBQyNHTDwHUUf4ZTH95iSVG7uGxknTBRBgNVHSME
SjBIgBQdx4papXfZTDvByCs4YZkavSv1laEapBgwFjEUMBIGA1UEAwwLdGVhbTUz
OC1uZXSCFB2UI9J97aoCkKId3rYCsItX3Jj1MBMGA1UdJQQMMAoGCCsGAQUFBwMC
MAsGA1UdDwQEAwIHgDANBgkqhkiG9w0BAQsFAAOCAQEAtWGzu6sk56Pq8433Ll3D
NqbnMATw2hBYDAjjVyKwRDcQfap2nwP0r4WUWGfHQfUxd7WEexrE5FXgIFFxp9Xl
EqkVC7apSHi11yEm6rhQkXugtkhwbD6zqytLai9CI50GIs12ioppeQ6kIPSrUB8y
ZZik92g0xlI058SDoDY+b4oaiQSWtkGvli2UIol6q96LmKs67A9qe9/iMQwrEi1D
VDV0clVdYTfojoAiRuVh1HeYNRAlMNvI8fDppjBd26ImnNbQ5JM4XZ60HkgHfyUj
o7J4ny52vtMhxkxhdQLKpITi17peX3mbRa0pOVBDgLg0ha15l6Fza1QhV6IGeGgV
dA==
-----END CERTIFICATE-----
