Certificate:
    Data:
        Version: 3 (0x2)
        Serial Number:
            ac:8d:09:c7:5c:36:c7:a4:06:73:b9:0a:a3:58:60:51
        Signature Algorithm: sha256WithRSAEncryption
        Issuer: CN=team427-net
        Validity
            Not Before: Sep 13 02:31:50 2021 GMT
            Not After : Aug 28 02:31:50 2024 GMT
        Subject: CN=team427-client
        Subject Public Key Info:
            Public Key Algorithm: rsaEncryption
                RSA Public-Key: (2048 bit)
                Modulus:
                    00:e1:89:99:2e:03:b4:e6:21:d3:a4:38:ba:18:3a:
                    9c:42:36:43:3b:5b:e8:77:be:30:3b:47:c7:ff:a7:
                    05:55:77:87:3b:8c:dd:ab:d8:93:ca:29:e2:47:f4:
                    19:84:de:84:74:d0:a8:cf:7c:ce:db:cd:5d:0f:81:
                    37:c1:34:ad:74:36:62:68:a4:f3:e9:00:bb:a2:83:
                    87:f3:cf:c0:fa:49:59:c5:f2:59:8d:96:6d:81:1e:
                    0e:7a:67:24:dd:11:d9:76:d6:ca:0a:01:35:c8:c8:
                    78:9d:7d:64:3b:ea:18:72:bf:57:de:9c:64:f5:1c:
                    9d:a1:e7:0e:47:f8:56:f2:75:2b:75:46:49:dd:4c:
                    58:37:3f:0c:ff:50:56:42:8f:62:8b:57:cf:93:71:
                    85:19:8d:a8:71:b8:8d:28:96:a4:3f:6d:56:39:bb:
                    f9:0c:e1:47:f1:ef:0b:82:17:f6:a5:29:98:67:57:
                    23:40:2b:4e:20:c9:4a:65:45:29:4b:4b:f4:86:85:
                    d3:66:5b:d6:03:7e:05:5e:25:5e:7f:48:9d:04:75:
                    ca:93:38:3f:c9:29:0c:de:aa:0a:15:75:dc:d6:03:
                    56:10:75:51:92:45:3e:fb:83:57:6c:48:ae:8b:56:
                    10:85:4e:6c:ab:07:8b:a9:15:af:80:29:a9:ce:81:
                    7d:29
                Exponent: 65537 (0x10001)
        X509v3 extensions:
            X509v3 Basic Constraints: 
                CA:FALSE
            X509v3 Subject Key Identifier: 
                78:3D:C8:D6:4B:08:04:9A:F5:C1:AF:76:2A:9E:04:02:71:FD:34:0B
            X509v3 Authority Key Identifier: 
                keyid:8D:A2:DA:F8:53:8E:08:4B:B4:19:11:8D:28:E1:C2:B9:A9:3B:5C:F9
                DirName:/CN=team427-net
                serial:18:40:66:F3:5F:F5:BE:A8:4F:D1:53:D9:E1:34:BD:41:B9:38:16:51

            X509v3 Extended Key Usage: 
                TLS Web Client Authentication
            X509v3 Key Usage: 
                Digital Signature
    Signature Algorithm: sha256WithRSAEncryption
         13:e8:92:44:da:88:91:8f:31:00:31:96:cc:c9:48:7e:2c:3b:
         2a:3c:c3:90:9a:78:1e:3f:06:fe:d9:1c:5a:b8:52:dd:7d:82:
         ea:1c:15:be:e5:ba:be:5b:ed:62:8f:b5:fc:ce:35:02:9c:62:
         56:0e:75:05:ab:c1:e4:e8:8c:8e:b3:02:da:ab:cf:37:ac:10:
         15:dd:07:22:66:33:c1:e4:61:a1:0d:99:74:67:7d:ad:96:92:
         ea:8c:fd:2d:d8:a0:16:fe:f0:19:3e:63:f1:ad:9e:dc:73:eb:
         3d:07:90:60:23:fe:ea:31:2c:c6:19:ca:7f:f3:c9:1f:06:95:
         82:76:9b:e1:85:9c:8d:2a:35:ec:2b:1e:6d:1d:fd:44:8e:da:
         7b:f7:8e:f8:36:59:8e:4d:b0:f8:b0:79:73:e2:ea:a1:5d:cc:
         bc:c4:ad:99:23:0b:e9:cb:ec:53:08:1e:12:71:37:93:ac:17:
         4b:54:54:f5:f2:9f:2d:5d:32:44:6e:ef:ec:ca:cf:55:a9:c0:
         99:74:56:3c:b2:a1:7a:a5:f3:6f:47:a2:b6:1f:03:7d:ae:72:
         94:f0:b4:8a:7c:c4:1b:f9:c7:20:0c:d1:19:ff:a7:bb:65:c8:
         b3:a3:d3:4d:6c:a0:20:14:da:1b:34:66:10:ed:49:96:5b:b2:
         39:29:5c:bb
-----BEGIN CERTIFICATE-----
MIIDXTCCAkWgAwIBAgIRAKyNCcdcNsekBnO5CqNYYFEwDQYJKoZIhvcNAQELBQAw
FjEUMBIGA1UEAwwLdGVhbTQyNy1uZXQwHhcNMjEwOTEzMDIzMTUwWhcNMjQwODI4
MDIzMTUwWjAZMRcwFQYDVQQDDA50ZWFtNDI3LWNsaWVudDCCASIwDQYJKoZIhvcN
AQEBBQADggEPADCCAQoCggEBAOGJmS4DtOYh06Q4uhg6nEI2Qztb6He+MDtHx/+n
BVV3hzuM3avYk8op4kf0GYTehHTQqM98ztvNXQ+BN8E0rXQ2Ymik8+kAu6KDh/PP
wPpJWcXyWY2WbYEeDnpnJN0R2XbWygoBNcjIeJ19ZDvqGHK/V96cZPUcnaHnDkf4
VvJ1K3VGSd1MWDc/DP9QVkKPYotXz5NxhRmNqHG4jSiWpD9tVjm7+QzhR/HvC4IX
9qUpmGdXI0ArTiDJSmVFKUtL9IaF02Zb1gN+BV4lXn9InQR1ypM4P8kpDN6qChV1
3NYDVhB1UZJFPvuDV2xIrotWEIVObKsHi6kVr4Apqc6BfSkCAwEAAaOBojCBnzAJ
BgNVHRMEAjAAMB0GA1UdDgQWBBR4PcjWSwgEmvXBr3YqngQCcf00CzBRBgNVHSME
SjBIgBSNotr4U44IS7QZEY0o4cK5qTtc+aEapBgwFjEUMBIGA1UEAwwLdGVhbTQy
Ny1uZXSCFBhAZvNf9b6oT9FT2eE0vUG5OBZRMBMGA1UdJQQMMAoGCCsGAQUFBwMC
MAsGA1UdDwQEAwIHgDANBgkqhkiG9w0BAQsFAAOCAQEAE+iSRNqIkY8xADGWzMlI
fiw7KjzDkJp4Hj8G/tkcWrhS3X2C6hwVvuW6vlvtYo+1/M41ApxiVg51BavB5OiM
jrMC2qvPN6wQFd0HImYzweRhoQ2ZdGd9rZaS6oz9LdigFv7wGT5j8a2e3HPrPQeQ
YCP+6jEsxhnKf/PJHwaVgnab4YWcjSo17CsebR39RI7ae/eO+DZZjk2w+LB5c+Lq
oV3MvMStmSML6cvsUwgeEnE3k6wXS1RU9fKfLV0yRG7v7MrPVanAmXRWPLKheqXz
b0eith8Dfa5ylPC0inzEG/nHIAzRGf+nu2XIs6PTTWygIBTaGzRmEO1JlluyOSlc
uw==
-----END CERTIFICATE-----
