Certificate:
    Data:
        Version: 3 (0x2)
        Serial Number:
            c3:ab:9d:fa:2a:31:f5:b0:35:ff:86:8a:66:a5:c1:e8
        Signature Algorithm: sha256WithRSAEncryption
        Issuer: CN=team717-net
        Validity
            Not Before: Sep 13 04:57:56 2021 GMT
            Not After : Aug 28 04:57:56 2024 GMT
        Subject: CN=team717-client
        Subject Public Key Info:
            Public Key Algorithm: rsaEncryption
                RSA Public-Key: (2048 bit)
                Modulus:
                    00:c8:f4:8b:d5:81:78:b4:eb:77:19:9b:c8:db:18:
                    0c:68:28:05:b5:7f:da:0f:62:54:18:6a:8a:bc:c1:
                    f2:fa:88:77:f6:48:f7:b5:cb:5a:fe:e6:24:8d:34:
                    1b:15:32:4d:df:36:94:69:92:23:b2:20:35:9e:98:
                    dc:51:1b:0a:48:ca:ba:32:d0:98:7e:75:18:b0:89:
                    0d:e6:61:c3:f2:42:50:a9:33:cb:0f:49:76:a3:ab:
                    30:bf:97:eb:20:00:09:e0:e6:30:b0:d7:0b:91:37:
                    b8:70:35:4f:4d:f0:d2:d2:f3:8c:55:4e:54:55:88:
                    7e:da:7a:56:70:b0:e8:f9:ee:b7:85:f2:88:90:ce:
                    e9:db:cf:08:68:f1:a1:f8:0b:08:c7:06:01:5e:f7:
                    11:27:3f:de:a3:b3:5e:e9:9c:77:6f:fa:46:03:e0:
                    4f:47:74:7a:fc:ed:ab:e5:c0:c5:e4:cb:22:67:24:
                    b3:ab:af:37:14:65:db:d6:03:ca:d1:76:dc:b7:e2:
                    fd:3c:f2:ad:b7:aa:fb:0d:7a:fd:a3:61:69:b6:bd:
                    9e:f4:b6:cd:bb:1b:3d:11:ce:fc:36:e3:3d:02:d4:
                    14:ea:4f:6c:a1:61:f1:5d:05:09:98:6d:b6:49:ac:
                    57:d7:cd:d0:11:d6:cf:ed:80:11:c1:8b:22:c7:24:
                    31:01
                Exponent: 65537 (0x10001)
        X509v3 extensions:
            X509v3 Basic Constraints: 
                CA:FALSE
            X509v3 Subject Key Identifier: 
                EE:B4:AB:37:8D:F2:54:23:A0:40:CA:FD:26:1A:F4:E4:02:C3:6B:CE
            X509v3 Authority Key Identifier: 
                keyid:5C:3C:96:48:E4:06:88:42:F6:76:46:B0:19:F4:5E:5F:82:FF:98:E4
                DirName:/CN=team717-net
                serial:74:16:02:DB:68:16:C2:C5:61:91:85:B4:20:D3:AF:8F:C5:32:DB:93

            X509v3 Extended Key Usage: 
                TLS Web Client Authentication
            X509v3 Key Usage: 
                Digital Signature
    Signature Algorithm: sha256WithRSAEncryption
         98:16:33:97:96:9f:77:8d:a6:49:29:65:7e:c2:04:75:de:1e:
         a0:1b:0a:6e:f9:c3:69:11:92:f3:13:b2:c5:ce:5f:fa:96:e8:
         6b:79:90:94:e9:d6:43:e0:03:a0:4d:58:84:df:8e:b4:48:dd:
         ac:4c:4a:6e:f1:e9:94:7b:bb:38:12:28:96:98:76:6e:fa:63:
         d6:3b:3c:a0:c9:20:2e:fb:1b:96:5a:e2:7f:5b:9e:e5:fa:53:
         85:4a:15:2f:68:41:f7:8d:5c:62:d3:f4:bc:be:2a:14:78:01:
         14:9a:a3:ca:2f:b4:e7:4c:85:99:e3:9a:ec:7a:b5:dd:4f:92:
         ba:0a:58:c7:b1:5c:cb:e9:eb:41:0b:6d:84:4a:05:36:53:ea:
         3b:77:cc:1e:71:4f:95:21:bd:f4:dd:5c:fa:71:fd:9e:c5:27:
         57:e0:80:97:28:59:1a:c2:13:44:61:31:2f:1e:e8:6b:d0:82:
         5c:2c:f6:3c:b2:46:ff:d7:21:dd:82:6e:05:98:17:bf:77:92:
         b8:cb:39:0c:3f:be:48:95:73:d0:28:21:be:ba:0e:17:17:af:
         1c:79:42:4f:64:6a:8e:1b:3e:c4:b3:2d:25:10:00:28:2f:4b:
         87:66:3c:07:7f:a4:c1:27:9e:4f:7e:9d:e2:1b:de:7b:7e:17:
         f7:4f:c9:b8
-----BEGIN CERTIFICATE-----
MIIDXTCCAkWgAwIBAgIRAMOrnfoqMfWwNf+GimalwegwDQYJKoZIhvcNAQELBQAw
FjEUMBIGA1UEAwwLdGVhbTcxNy1uZXQwHhcNMjEwOTEzMDQ1NzU2WhcNMjQwODI4
MDQ1NzU2WjAZMRcwFQYDVQQDDA50ZWFtNzE3LWNsaWVudDCCASIwDQYJKoZIhvcN
AQEBBQADggEPADCCAQoCggEBAMj0i9WBeLTrdxmbyNsYDGgoBbV/2g9iVBhqirzB
8vqId/ZI97XLWv7mJI00GxUyTd82lGmSI7IgNZ6Y3FEbCkjKujLQmH51GLCJDeZh
w/JCUKkzyw9JdqOrML+X6yAACeDmMLDXC5E3uHA1T03w0tLzjFVOVFWIftp6VnCw
6Pnut4XyiJDO6dvPCGjxofgLCMcGAV73ESc/3qOzXumcd2/6RgPgT0d0evztq+XA
xeTLImcks6uvNxRl29YDytF23Lfi/Tzyrbeq+w16/aNhaba9nvS2zbsbPRHO/Dbj
PQLUFOpPbKFh8V0FCZhttkmsV9fN0BHWz+2AEcGLIsckMQECAwEAAaOBojCBnzAJ
BgNVHRMEAjAAMB0GA1UdDgQWBBTutKs3jfJUI6BAyv0mGvTkAsNrzjBRBgNVHSME
SjBIgBRcPJZI5AaIQvZ2RrAZ9F5fgv+Y5KEapBgwFjEUMBIGA1UEAwwLdGVhbTcx
Ny1uZXSCFHQWAttoFsLFYZGFtCDTr4/FMtuTMBMGA1UdJQQMMAoGCCsGAQUFBwMC
MAsGA1UdDwQEAwIHgDANBgkqhkiG9w0BAQsFAAOCAQEAmBYzl5afd42mSSllfsIE
dd4eoBsKbvnDaRGS8xOyxc5f+pboa3mQlOnWQ+ADoE1YhN+OtEjdrExKbvHplHu7
OBIolph2bvpj1js8oMkgLvsbllrif1ue5fpThUoVL2hB941cYtP0vL4qFHgBFJqj
yi+050yFmeOa7Hq13U+SugpYx7Fcy+nrQQtthEoFNlPqO3fMHnFPlSG99N1c+nH9
nsUnV+CAlyhZGsITRGExLx7oa9CCXCz2PLJG/9ch3YJuBZgXv3eSuMs5DD++SJVz
0CghvroOFxevHHlCT2Rqjhs+xLMtJRAAKC9Lh2Y8B3+kwSeeT36d4hvee34X90/J
uA==
-----END CERTIFICATE-----
