Certificate:
    Data:
        Version: 3 (0x2)
        Serial Number:
            4d:58:a0:8a:f4:b0:92:41:60:82:fe:4c:31:ff:e8
        Signature Algorithm: sha256WithRSAEncryption
        Issuer: CN=team581-net
        Validity
            Not Before: Sep 13 03:51:07 2021 GMT
            Not After : Aug 28 03:51:07 2024 GMT
        Subject: CN=team581-server
        Subject Public Key Info:
            Public Key Algorithm: rsaEncryption
                RSA Public-Key: (2048 bit)
                Modulus:
                    00:b3:01:d7:a4:44:d9:61:14:68:2f:a4:0c:96:38:
                    96:2f:67:f0:93:19:d2:2b:14:c7:9e:d2:43:4d:09:
                    4d:df:7c:96:e3:fd:7b:28:79:08:85:ce:a3:53:ab:
                    65:d5:b6:34:5d:a6:d4:ab:6b:9a:4d:a9:d6:fa:be:
                    38:b7:15:05:a0:61:cc:cc:c4:f5:07:4a:57:4d:44:
                    17:0c:69:3d:3b:69:62:98:87:75:e0:57:36:46:a7:
                    4b:d7:7c:4e:2e:9b:97:f4:82:a4:c6:1d:12:3e:5c:
                    42:48:5e:7a:06:23:a3:3d:ff:25:62:a8:58:f9:0b:
                    66:27:6e:1a:0d:3a:1a:6d:25:f5:67:be:fe:7c:8e:
                    d8:0f:84:2f:7c:1d:83:f4:89:aa:10:c5:36:89:7b:
                    bc:7f:e9:82:bc:2b:7d:21:8c:f0:1e:0e:69:0a:78:
                    14:44:4f:94:b7:77:ca:b1:36:99:a5:63:02:e6:67:
                    d3:4d:a5:3f:74:92:67:16:44:f0:5f:5d:e4:8b:fc:
                    05:fd:b6:35:bd:65:6f:29:c1:8d:fd:ae:33:ed:db:
                    51:df:30:5c:2f:12:19:90:f2:53:a5:30:bf:9f:4e:
                    01:2c:5e:b0:0b:4b:7f:21:36:57:48:a6:cc:ba:14:
                    a4:5b:72:f1:7a:bd:5b:9c:b8:7c:8a:70:7d:d4:b9:
                    5d:b1
                Exponent: 65537 (0x10001)
        X509v3 extensions:
            X509v3 Basic Constraints: 
                CA:FALSE
            X509v3 Subject Key Identifier: 
                CC:2E:A1:1D:F1:28:1B:3B:BD:D4:66:84:80:8D:4C:5E:0F:F6:45:D6
            X509v3 Authority Key Identifier: 
                keyid:92:BA:A9:09:6B:04:EF:B9:C6:0E:FA:E5:D4:A5:F6:4D:D2:6A:4A:AE
                DirName:/CN=team581-net
                serial:39:A3:C2:7E:76:37:53:31:5D:37:58:CF:3D:F9:03:01:1D:6D:FA:02

            X509v3 Extended Key Usage: 
                TLS Web Server Authentication
            X509v3 Key Usage: 
                Digital Signature, Key Encipherment
            X509v3 Subject Alternative Name: 
                DNS:team581-server
    Signature Algorithm: sha256WithRSAEncryption
         58:70:83:45:42:9c:37:10:40:26:37:26:ca:46:e5:56:31:1e:
         eb:52:97:35:f7:9f:2c:31:54:8b:02:7f:9d:c5:ba:7a:29:07:
         a3:49:28:f2:01:28:17:98:30:00:05:e5:69:9b:e7:70:c2:37:
         88:79:1d:d8:1a:01:6c:05:e6:8c:46:a0:9c:e2:45:48:14:47:
         1f:9f:19:16:6e:1a:bf:4d:14:88:9e:2c:8d:2f:9f:03:05:bc:
         2c:45:9e:a2:3c:c9:ba:aa:82:b0:76:6f:06:01:4c:a3:4b:a9:
         bc:bc:7b:ca:fc:e7:8a:20:0d:53:3f:94:46:0e:fe:c6:f4:20:
         ba:95:8d:0b:ae:65:79:25:26:a4:61:3f:08:81:9d:c1:d8:88:
         54:f7:03:e8:cc:66:a6:74:8e:2e:9c:0a:ca:9e:44:aa:b5:6a:
         c7:51:7d:8c:45:c3:51:7d:54:a9:79:55:c1:2a:60:ac:15:1d:
         ec:3f:52:d9:d1:85:a9:fb:7b:65:7a:7a:6c:13:b8:15:64:0e:
         89:38:88:c6:37:f4:1a:8a:74:5a:e5:f4:e7:6c:36:90:0d:06:
         5e:72:7c:bf:09:f0:35:12:b8:54:8d:9f:fb:25:9a:55:f2:a8:
         82:91:86:58:d7:1a:b5:c7:a0:15:f5:c5:be:0d:5c:33:1b:e0:
         d2:47:58:9b
-----BEGIN CERTIFICATE-----
MIIDdjCCAl6gAwIBAgIPTVigivSwkkFggv5MMf/oMA0GCSqGSIb3DQEBCwUAMBYx
FDASBgNVBAMMC3RlYW01ODEtbmV0MB4XDTIxMDkxMzAzNTEwN1oXDTI0MDgyODAz
NTEwN1owGTEXMBUGA1UEAwwOdGVhbTU4MS1zZXJ2ZXIwggEiMA0GCSqGSIb3DQEB
AQUAA4IBDwAwggEKAoIBAQCzAdekRNlhFGgvpAyWOJYvZ/CTGdIrFMee0kNNCU3f
fJbj/XsoeQiFzqNTq2XVtjRdptSra5pNqdb6vji3FQWgYczMxPUHSldNRBcMaT07
aWKYh3XgVzZGp0vXfE4um5f0gqTGHRI+XEJIXnoGI6M9/yViqFj5C2YnbhoNOhpt
JfVnvv58jtgPhC98HYP0iaoQxTaJe7x/6YK8K30hjPAeDmkKeBRET5S3d8qxNpml
YwLmZ9NNpT90kmcWRPBfXeSL/AX9tjW9ZW8pwY39rjPt21HfMFwvEhmQ8lOlML+f
TgEsXrALS38hNldIpsy6FKRbcvF6vVucuHyKcH3UuV2xAgMBAAGjgb0wgbowCQYD
VR0TBAIwADAdBgNVHQ4EFgQUzC6hHfEoGzu91GaEgI1MXg/2RdYwUQYDVR0jBEow
SIAUkrqpCWsE77nGDvrl1KX2TdJqSq6hGqQYMBYxFDASBgNVBAMMC3RlYW01ODEt
bmV0ghQ5o8J+djdTMV03WM89+QMBHW36AjATBgNVHSUEDDAKBggrBgEFBQcDATAL
BgNVHQ8EBAMCBaAwGQYDVR0RBBIwEIIOdGVhbTU4MS1zZXJ2ZXIwDQYJKoZIhvcN
AQELBQADggEBAFhwg0VCnDcQQCY3JspG5VYxHutSlzX3nywxVIsCf53FunopB6NJ
KPIBKBeYMAAF5Wmb53DCN4h5HdgaAWwF5oxGoJziRUgURx+fGRZuGr9NFIieLI0v
nwMFvCxFnqI8ybqqgrB2bwYBTKNLqby8e8r854ogDVM/lEYO/sb0ILqVjQuuZXkl
JqRhPwiBncHYiFT3A+jMZqZ0ji6cCsqeRKq1asdRfYxFw1F9VKl5VcEqYKwVHew/
UtnRhan7e2V6emwTuBVkDok4iMY39BqKdFrl9OdsNpANBl5yfL8J8DUSuFSNn/sl
mlXyqIKRhljXGrXHoBX1xb4NXDMb4NJHWJs=
-----END CERTIFICATE-----
