Certificate:
    Data:
        Version: 3 (0x2)
        Serial Number:
            bb:34:73:0c:49:d5:f8:4d:1a:19:9e:0b:d8:4b:b6:8e
        Signature Algorithm: sha256WithRSAEncryption
        Issuer: CN=team581-net
        Validity
            Not Before: Sep 13 03:51:06 2021 GMT
            Not After : Aug 28 03:51:06 2024 GMT
        Subject: CN=team581-client
        Subject Public Key Info:
            Public Key Algorithm: rsaEncryption
                RSA Public-Key: (2048 bit)
                Modulus:
                    00:c9:1c:64:48:57:2d:1e:e6:b5:fc:0b:85:46:44:
                    ba:ff:3d:77:74:91:96:96:e7:3e:b4:09:6f:38:0c:
                    2f:d9:dd:4f:95:70:c4:e3:76:16:66:bc:1f:d7:4e:
                    81:84:23:84:04:76:03:a2:f0:5e:13:1c:ea:3d:1e:
                    93:fc:32:e5:e3:77:81:d9:da:27:34:03:7e:d6:03:
                    a5:a9:e3:59:91:12:56:55:50:6c:36:1b:38:21:8f:
                    06:60:7f:32:4c:64:62:75:61:4b:cb:2c:c8:66:32:
                    ce:a9:4d:64:46:71:49:d9:5e:eb:3c:a0:13:6c:54:
                    88:a6:fa:62:cd:25:b3:05:10:fb:ec:e9:01:20:cf:
                    6e:fa:0b:a3:45:d7:36:46:84:c6:e3:76:aa:7c:14:
                    cf:6f:97:c9:12:6b:5f:09:58:c5:a6:76:c7:74:53:
                    2f:34:2c:d8:5c:dd:06:78:37:eb:83:10:90:07:4a:
                    49:45:34:1d:ce:75:85:ef:db:cb:da:cb:7d:21:aa:
                    8c:c8:eb:c4:fe:63:b6:00:74:30:3b:3a:31:92:27:
                    3b:29:f4:aa:16:ba:3c:e5:94:99:73:f8:82:9e:38:
                    b1:5d:1e:f9:8b:00:0e:50:74:aa:cb:41:09:a1:4c:
                    f6:ce:66:8a:92:ad:7b:78:1c:d6:59:9d:26:96:a9:
                    55:81
                Exponent: 65537 (0x10001)
        X509v3 extensions:
            X509v3 Basic Constraints: 
                CA:FALSE
            X509v3 Subject Key Identifier: 
                BE:FF:9E:AB:4B:59:82:45:CC:9B:59:0F:34:9F:21:5D:B7:63:5B:B8
            X509v3 Authority Key Identifier: 
                keyid:92:BA:A9:09:6B:04:EF:B9:C6:0E:FA:E5:D4:A5:F6:4D:D2:6A:4A:AE
                DirName:/CN=team581-net
                serial:39:A3:C2:7E:76:37:53:31:5D:37:58:CF:3D:F9:03:01:1D:6D:FA:02

            X509v3 Extended Key Usage: 
                TLS Web Client Authentication
            X509v3 Key Usage: 
                Digital Signature
    Signature Algorithm: sha256WithRSAEncryption
         28:59:9f:b9:25:ad:ce:39:78:74:29:cc:27:8c:85:ce:73:91:
         4c:66:c8:dc:91:68:1b:71:6c:b8:7e:17:a8:b5:4e:3b:f0:87:
         3e:db:13:1a:76:3f:29:91:8e:1a:7a:60:bd:1a:5d:f4:20:5f:
         cd:19:d1:6a:31:76:b4:74:ca:43:a2:3a:17:d1:8f:8d:2a:95:
         b5:7f:00:75:76:b0:18:5a:f2:56:e7:6c:a9:aa:31:a6:4f:f4:
         55:a2:0a:05:c9:41:90:5d:e1:d1:f7:0b:82:2c:3b:ca:e6:c4:
         f1:c4:8d:fd:62:08:2c:6e:3e:a9:ee:9a:5d:0f:0a:b2:3c:ef:
         14:86:d4:56:01:27:95:86:26:e1:5d:2b:0d:fe:25:ec:54:29:
         ae:68:16:1a:15:cb:91:13:5a:16:a2:66:40:94:5d:de:b1:d5:
         26:dd:8b:a2:10:b8:e8:2f:28:d3:6c:f8:82:f5:55:38:b7:7c:
         e1:62:5e:53:df:51:f4:5d:61:af:c7:bf:1b:d2:8f:1a:2c:0d:
         9f:0f:37:01:f2:f8:cd:07:60:6a:07:51:9d:e0:e0:8f:c9:4e:
         04:5c:8e:2b:78:85:86:f0:fb:1e:ca:41:18:84:69:4a:a7:5d:
         3d:c2:d2:27:37:52:c7:5d:2d:c1:22:23:52:cc:e9:2d:9c:b7:
         e1:ec:a0:3b
-----BEGIN CERTIFICATE-----
MIIDXTCCAkWgAwIBAgIRALs0cwxJ1fhNGhmeC9hLto4wDQYJKoZIhvcNAQELBQAw
FjEUMBIGA1UEAwwLdGVhbTU4MS1uZXQwHhcNMjEwOTEzMDM1MTA2WhcNMjQwODI4
MDM1MTA2WjAZMRcwFQYDVQQDDA50ZWFtNTgxLWNsaWVudDCCASIwDQYJKoZIhvcN
AQEBBQADggEPADCCAQoCggEBAMkcZEhXLR7mtfwLhUZEuv89d3SRlpbnPrQJbzgM
L9ndT5VwxON2Fma8H9dOgYQjhAR2A6LwXhMc6j0ek/wy5eN3gdnaJzQDftYDpanj
WZESVlVQbDYbOCGPBmB/MkxkYnVhS8ssyGYyzqlNZEZxSdle6zygE2xUiKb6Ys0l
swUQ++zpASDPbvoLo0XXNkaExuN2qnwUz2+XyRJrXwlYxaZ2x3RTLzQs2FzdBng3
64MQkAdKSUU0Hc51he/by9rLfSGqjMjrxP5jtgB0MDs6MZInOyn0qha6POWUmXP4
gp44sV0e+YsADlB0qstBCaFM9s5mipKte3gc1lmdJpapVYECAwEAAaOBojCBnzAJ
BgNVHRMEAjAAMB0GA1UdDgQWBBS+/56rS1mCRcybWQ80nyFdt2NbuDBRBgNVHSME
SjBIgBSSuqkJawTvucYO+uXUpfZN0mpKrqEapBgwFjEUMBIGA1UEAwwLdGVhbTU4
MS1uZXSCFDmjwn52N1MxXTdYzz35AwEdbfoCMBMGA1UdJQQMMAoGCCsGAQUFBwMC
MAsGA1UdDwQEAwIHgDANBgkqhkiG9w0BAQsFAAOCAQEAKFmfuSWtzjl4dCnMJ4yF
znORTGbI3JFoG3FsuH4XqLVOO/CHPtsTGnY/KZGOGnpgvRpd9CBfzRnRajF2tHTK
Q6I6F9GPjSqVtX8AdXawGFryVudsqaoxpk/0VaIKBclBkF3h0fcLgiw7yubE8cSN
/WIILG4+qe6aXQ8KsjzvFIbUVgEnlYYm4V0rDf4l7FQprmgWGhXLkRNaFqJmQJRd
3rHVJt2LohC46C8o02z4gvVVOLd84WJeU99R9F1hr8e/G9KPGiwNnw83AfL4zQdg
agdRneDgj8lOBFyOK3iFhvD7HspBGIRpSqddPcLSJzdSx10twSIjUszpLZy34eyg
Ow==
-----END CERTIFICATE-----
