Certificate:
    Data:
        Version: 3 (0x2)
        Serial Number:
            a6:5d:79:3f:67:66:c1:8b:19:b0:0c:2c:85:72:75:11
        Signature Algorithm: sha256WithRSAEncryption
        Issuer: CN=team115-net
        Validity
            Not Before: Sep 12 23:47:34 2021 GMT
            Not After : Aug 27 23:47:34 2024 GMT
        Subject: CN=team115-client
        Subject Public Key Info:
            Public Key Algorithm: rsaEncryption
                RSA Public-Key: (2048 bit)
                Modulus:
                    00:e2:d4:33:44:c4:8b:2a:b5:5e:c6:03:5e:90:b0:
                    f2:53:ea:5a:b9:fa:59:2a:12:be:e3:92:23:e3:be:
                    a3:8e:4f:dd:dc:d7:4f:d5:fc:60:76:21:32:63:c5:
                    c0:0d:e6:ec:80:0f:13:72:08:1b:48:2f:b4:ca:93:
                    55:01:5d:d2:36:04:5e:3c:f6:73:e8:74:aa:52:1b:
                    71:c0:2b:d8:15:64:52:d7:75:cc:30:8c:f2:c8:dd:
                    75:df:f7:5b:14:16:5a:a8:71:8c:03:ea:43:b6:3e:
                    a4:36:57:65:c3:e9:ac:10:2f:4b:20:00:ce:ce:29:
                    67:b5:ab:41:83:df:7a:95:90:e5:34:c9:e2:69:7b:
                    15:0c:8a:be:69:b8:72:08:17:04:98:77:5d:38:3f:
                    87:1d:86:77:8a:8c:9e:c3:8a:8c:31:b4:08:1b:2b:
                    f8:e1:7e:82:87:83:c9:07:31:76:71:cc:a1:ec:5c:
                    29:da:29:82:58:94:2b:b9:16:38:e3:d9:85:97:af:
                    f7:77:d5:8c:88:27:67:ec:78:89:a7:9e:75:03:9b:
                    bc:52:d3:1f:9b:8b:7e:83:f9:a8:b6:09:d6:8d:62:
                    5a:1a:59:24:1d:a8:e6:8c:59:d6:dd:e8:c0:d3:fa:
                    ac:17:61:fd:a6:b7:32:72:65:90:fd:14:d8:6b:4f:
                    ad:73
                Exponent: 65537 (0x10001)
        X509v3 extensions:
            X509v3 Basic Constraints: 
                CA:FALSE
            X509v3 Subject Key Identifier: 
                71:91:FA:44:E1:D0:28:F7:36:12:C7:E1:43:FF:BC:8D:71:B5:48:49
            X509v3 Authority Key Identifier: 
                keyid:DF:9F:DE:2F:CA:BE:12:C6:9A:48:D1:C8:FD:7A:DC:29:62:54:9B:59
                DirName:/CN=team115-net
                serial:5F:13:6F:3C:A1:31:A9:A5:4E:A3:B4:C7:79:04:0D:DD:CC:D8:9D:87

            X509v3 Extended Key Usage: 
                TLS Web Client Authentication
            X509v3 Key Usage: 
                Digital Signature
    Signature Algorithm: sha256WithRSAEncryption
         d1:5c:b1:b7:0a:dd:71:3f:b6:03:ae:22:2c:22:af:10:48:76:
         9f:1e:35:f9:ff:89:8b:0f:0e:b8:55:65:ff:d4:f7:11:dd:49:
         4d:60:72:5e:7f:e6:92:7f:d6:31:95:9a:6d:88:b3:ef:66:25:
         61:d6:0d:5a:aa:a1:3a:2f:16:67:9d:7d:10:50:fc:0b:cd:48:
         99:09:28:5d:04:c2:7f:94:a1:7d:6f:05:e3:32:4a:07:e4:b4:
         86:f1:03:47:f2:1d:e7:11:cc:2d:bc:96:20:8a:c6:08:75:b1:
         0a:12:d6:5c:19:1f:8e:31:e5:6a:07:f8:ef:14:6a:8e:a7:a1:
         25:8e:3e:71:70:0b:16:2d:b2:0d:0a:27:55:c8:f6:e0:69:55:
         55:5f:27:bf:76:b7:d0:b9:2f:45:47:5b:ee:63:ec:a0:eb:05:
         01:ae:0b:a5:2e:00:d3:44:39:63:ba:f7:87:51:97:9c:08:02:
         e5:c3:e4:6e:d1:33:c4:35:43:84:44:1c:09:39:4a:04:fd:a5:
         2f:45:5f:e8:4b:2b:9e:2d:42:85:b9:53:eb:a8:3b:11:1b:3e:
         98:e6:2f:39:d1:f2:c5:e2:53:7f:4f:c9:85:48:96:b7:01:a6:
         94:15:e6:86:ab:f9:f0:ae:43:2d:e3:70:f6:cf:5d:0a:83:6a:
         fe:43:a5:42
-----BEGIN CERTIFICATE-----
MIIDXTCCAkWgAwIBAgIRAKZdeT9nZsGLGbAMLIVydREwDQYJKoZIhvcNAQELBQAw
FjEUMBIGA1UEAwwLdGVhbTExNS1uZXQwHhcNMjEwOTEyMjM0NzM0WhcNMjQwODI3
MjM0NzM0WjAZMRcwFQYDVQQDDA50ZWFtMTE1LWNsaWVudDCCASIwDQYJKoZIhvcN
AQEBBQADggEPADCCAQoCggEBAOLUM0TEiyq1XsYDXpCw8lPqWrn6WSoSvuOSI+O+
o45P3dzXT9X8YHYhMmPFwA3m7IAPE3IIG0gvtMqTVQFd0jYEXjz2c+h0qlIbccAr
2BVkUtd1zDCM8sjddd/3WxQWWqhxjAPqQ7Y+pDZXZcPprBAvSyAAzs4pZ7WrQYPf
epWQ5TTJ4ml7FQyKvmm4cggXBJh3XTg/hx2Gd4qMnsOKjDG0CBsr+OF+goeDyQcx
dnHMoexcKdopgliUK7kWOOPZhZev93fVjIgnZ+x4iaeedQObvFLTH5uLfoP5qLYJ
1o1iWhpZJB2o5oxZ1t3owNP6rBdh/aa3MnJlkP0U2GtPrXMCAwEAAaOBojCBnzAJ
BgNVHRMEAjAAMB0GA1UdDgQWBBRxkfpE4dAo9zYSx+FD/7yNcbVISTBRBgNVHSME
SjBIgBTfn94vyr4SxppI0cj9etwpYlSbWaEapBgwFjEUMBIGA1UEAwwLdGVhbTEx
NS1uZXSCFF8TbzyhMamlTqO0x3kEDd3M2J2HMBMGA1UdJQQMMAoGCCsGAQUFBwMC
MAsGA1UdDwQEAwIHgDANBgkqhkiG9w0BAQsFAAOCAQEA0VyxtwrdcT+2A64iLCKv
EEh2nx41+f+Jiw8OuFVl/9T3Ed1JTWByXn/mkn/WMZWabYiz72YlYdYNWqqhOi8W
Z519EFD8C81ImQkoXQTCf5ShfW8F4zJKB+S0hvEDR/Id5xHMLbyWIIrGCHWxChLW
XBkfjjHlagf47xRqjqehJY4+cXALFi2yDQonVcj24GlVVV8nv3a30LkvRUdb7mPs
oOsFAa4LpS4A00Q5Y7r3h1GXnAgC5cPkbtEzxDVDhEQcCTlKBP2lL0Vf6Esrni1C
hblT66g7ERs+mOYvOdHyxeJTf0/JhUiWtwGmlBXmhqv58K5DLeNw9s9dCoNq/kOl
Qg==
-----END CERTIFICATE-----
