Certificate:
    Data:
        Version: 3 (0x2)
        Serial Number:
            f6:fa:fa:c0:2b:88:07:1f:69:f5:44:c3:c1:2c:d3:f5
        Signature Algorithm: sha256WithRSAEncryption
        Issuer: CN=team355-net
        Validity
            Not Before: Sep 13 02:00:32 2021 GMT
            Not After : Aug 28 02:00:32 2024 GMT
        Subject: CN=team355-client
        Subject Public Key Info:
            Public Key Algorithm: rsaEncryption
                RSA Public-Key: (2048 bit)
                Modulus:
                    00:cb:a5:0f:56:98:44:64:ab:33:f6:d1:fb:c5:05:
                    b7:2d:15:3a:da:01:10:4c:c1:f4:a8:fe:cb:17:fa:
                    d8:6d:68:ca:ca:52:41:5b:93:e9:ac:32:07:55:47:
                    84:2b:5d:8d:b3:06:aa:15:1f:13:bb:7f:b8:6c:05:
                    3a:7b:0e:3b:7e:76:3c:32:11:f6:b2:ea:13:b4:b9:
                    a7:dd:42:cd:14:06:51:47:eb:6a:aa:77:bc:61:c9:
                    cd:49:18:a5:3f:c6:f5:c1:51:78:94:0e:47:3e:20:
                    25:71:1a:bd:1b:cd:77:39:f5:4d:19:39:97:81:3c:
                    0d:e5:7f:ba:6b:31:0b:89:44:e4:20:7f:cf:01:1d:
                    0a:1d:01:a1:2d:04:47:fb:c7:b9:bf:91:57:6a:37:
                    04:03:33:93:ab:d3:c5:f8:ac:1f:16:3e:dd:c6:5e:
                    c0:55:bb:60:f1:b4:df:40:e0:d5:a6:df:27:c0:4b:
                    8f:6b:15:35:9d:1c:dd:3e:bf:28:55:8a:96:7a:72:
                    a8:fe:47:6e:6e:32:ab:76:93:d3:0a:ed:69:74:d7:
                    16:4e:b8:70:a9:f2:fb:36:4e:f1:95:ba:c3:bd:7d:
                    e9:87:b8:ee:9b:b2:69:2b:e7:c4:cc:e9:3f:f3:86:
                    dd:e8:a4:45:c7:c8:64:42:7c:0d:08:3c:98:e0:af:
                    21:1f
                Exponent: 65537 (0x10001)
        X509v3 extensions:
            X509v3 Basic Constraints: 
                CA:FALSE
            X509v3 Subject Key Identifier: 
                16:98:8A:AD:0A:E4:DB:60:5E:84:B9:63:1C:67:6E:07:CA:8F:BB:57
            X509v3 Authority Key Identifier: 
                keyid:B3:84:59:23:BF:F2:1D:A4:9E:D4:F0:D1:FF:4F:51:BF:C7:E3:19:19
                DirName:/CN=team355-net
                serial:11:84:A6:64:15:09:D1:4F:ED:38:75:43:D6:4B:77:80:A0:D5:FF:24

            X509v3 Extended Key Usage: 
                TLS Web Client Authentication
            X509v3 Key Usage: 
                Digital Signature
    Signature Algorithm: sha256WithRSAEncryption
         72:b5:9e:1f:a2:53:fa:e9:9f:f4:0b:c9:b7:2c:9c:c5:dd:10:
         bb:5b:09:12:df:2c:31:48:11:fa:b5:b7:32:15:e7:1b:32:71:
         e0:4c:a4:eb:ff:4e:49:37:f7:59:63:24:1c:4e:16:74:67:f4:
         65:35:dd:3b:8b:6b:04:60:29:01:97:a1:3d:42:5d:d9:b1:32:
         59:04:47:c2:0a:6e:67:a2:b7:22:94:9f:52:71:c5:ad:a8:7f:
         6e:09:da:2a:0c:2c:fa:95:f1:8c:22:88:50:17:a8:7b:4e:d1:
         41:ce:95:f5:a5:f8:8b:93:21:33:f7:13:aa:e4:91:ed:ed:a4:
         66:1c:a6:4e:5d:b9:69:b7:13:b0:8f:bb:35:18:eb:63:fc:42:
         e2:7c:56:52:6d:d2:19:0c:f7:e1:27:62:6d:6e:ab:58:9f:39:
         f7:55:db:fc:36:42:30:21:3e:6e:52:d0:58:1c:ec:e1:7b:ea:
         61:72:63:70:d5:6d:ec:db:5b:7e:74:a3:8a:2d:be:86:f6:f3:
         51:34:75:95:16:d7:ce:b5:65:9a:9d:e8:1d:e8:4e:66:1d:be:
         02:e7:a1:c7:69:9e:a2:03:53:df:26:17:d9:a1:68:b6:da:5c:
         19:09:b5:5f:b2:e4:5f:be:70:0c:b3:9d:22:09:10:cb:ce:5a:
         23:32:38:6e
-----BEGIN CERTIFICATE-----
MIIDXTCCAkWgAwIBAgIRAPb6+sAriAcfafVEw8Es0/UwDQYJKoZIhvcNAQELBQAw
FjEUMBIGA1UEAwwLdGVhbTM1NS1uZXQwHhcNMjEwOTEzMDIwMDMyWhcNMjQwODI4
MDIwMDMyWjAZMRcwFQYDVQQDDA50ZWFtMzU1LWNsaWVudDCCASIwDQYJKoZIhvcN
AQEBBQADggEPADCCAQoCggEBAMulD1aYRGSrM/bR+8UFty0VOtoBEEzB9Kj+yxf6
2G1oyspSQVuT6awyB1VHhCtdjbMGqhUfE7t/uGwFOnsOO352PDIR9rLqE7S5p91C
zRQGUUfraqp3vGHJzUkYpT/G9cFReJQORz4gJXEavRvNdzn1TRk5l4E8DeV/umsx
C4lE5CB/zwEdCh0BoS0ER/vHub+RV2o3BAMzk6vTxfisHxY+3cZewFW7YPG030Dg
1abfJ8BLj2sVNZ0c3T6/KFWKlnpyqP5Hbm4yq3aT0wrtaXTXFk64cKny+zZO8ZW6
w7196Ye47puyaSvnxMzpP/OG3eikRcfIZEJ8DQg8mOCvIR8CAwEAAaOBojCBnzAJ
BgNVHRMEAjAAMB0GA1UdDgQWBBQWmIqtCuTbYF6EuWMcZ24Hyo+7VzBRBgNVHSME
SjBIgBSzhFkjv/IdpJ7U8NH/T1G/x+MZGaEapBgwFjEUMBIGA1UEAwwLdGVhbTM1
NS1uZXSCFBGEpmQVCdFP7Th1Q9ZLd4Cg1f8kMBMGA1UdJQQMMAoGCCsGAQUFBwMC
MAsGA1UdDwQEAwIHgDANBgkqhkiG9w0BAQsFAAOCAQEAcrWeH6JT+umf9AvJtyyc
xd0Qu1sJEt8sMUgR+rW3MhXnGzJx4Eyk6/9OSTf3WWMkHE4WdGf0ZTXdO4trBGAp
AZehPUJd2bEyWQRHwgpuZ6K3IpSfUnHFrah/bgnaKgws+pXxjCKIUBeoe07RQc6V
9aX4i5MhM/cTquSR7e2kZhymTl25abcTsI+7NRjrY/xC4nxWUm3SGQz34SdibW6r
WJ8591Xb/DZCMCE+blLQWBzs4XvqYXJjcNVt7NtbfnSjii2+hvbzUTR1lRbXzrVl
mp3oHehOZh2+Auehx2meogNT3yYX2aFottpcGQm1X7LkX75wDLOdIgkQy85aIzI4
bg==
-----END CERTIFICATE-----
