Certificate:
    Data:
        Version: 3 (0x2)
        Serial Number:
            20:d0:7d:a9:af:a1:d2:7f:d5:f8:6b:51:4c:d4:e7:05
        Signature Algorithm: sha256WithRSAEncryption
        Issuer: CN=team517-net
        Validity
            Not Before: Sep 13 03:28:02 2021 GMT
            Not After : Aug 28 03:28:02 2024 GMT
        Subject: CN=team517-server
        Subject Public Key Info:
            Public Key Algorithm: rsaEncryption
                RSA Public-Key: (2048 bit)
                Modulus:
                    00:a4:1d:79:56:3d:f3:fb:00:6e:97:e3:6e:c8:70:
                    7e:58:bc:db:ed:c6:c5:34:17:b1:a5:6f:8e:d7:6e:
                    7d:6e:3c:1a:79:26:1f:11:06:00:e9:da:f6:0b:de:
                    98:74:33:d6:98:8e:2e:b0:9b:02:1e:9e:d0:8f:76:
                    88:1b:d1:09:6c:11:61:e7:0b:02:94:9e:ba:a9:ed:
                    4c:dc:77:57:fe:33:8d:9d:c7:e7:99:9c:4b:9a:5f:
                    e4:5c:d4:84:7b:00:40:23:2f:25:40:e5:51:68:ff:
                    08:1b:41:07:f0:22:4e:ad:33:8e:a4:b6:30:37:77:
                    8f:e5:18:ad:d2:f4:6c:57:c8:59:76:a7:e7:2a:24:
                    41:03:fa:3e:19:f8:57:34:f3:a0:76:a3:ff:50:11:
                    50:ee:f7:53:00:c0:d3:3e:f2:65:d6:29:5d:4e:5f:
                    80:24:8e:9a:f7:21:a2:f9:3f:b9:98:2e:95:19:43:
                    81:f9:65:b8:bf:30:c5:08:c3:81:8c:8c:27:15:3d:
                    5b:26:f4:62:89:4e:dd:f7:d4:53:dc:e6:be:22:6b:
                    b9:28:b5:5a:6f:0a:bf:b7:e3:dc:8f:45:f3:d4:e1:
                    f4:3a:ce:38:97:60:2e:fc:e2:b3:28:e1:30:92:ef:
                    f3:28:a9:1f:26:9c:3d:32:03:28:4e:90:42:7a:cb:
                    ed:1d
                Exponent: 65537 (0x10001)
        X509v3 extensions:
            X509v3 Basic Constraints: 
                CA:FALSE
            X509v3 Subject Key Identifier: 
                03:32:8C:38:C8:18:2A:B7:2C:54:47:8E:6D:D0:EB:8F:1C:89:E7:3C
            X509v3 Authority Key Identifier: 
                keyid:9F:55:08:56:6B:FD:54:0F:4E:CE:86:38:F6:1F:70:D6:8B:9A:CB:3B
                DirName:/CN=team517-net
                serial:7D:B3:ED:78:D4:3E:80:4A:D7:5E:B6:8A:18:98:9A:9F:73:8D:9D:29

            X509v3 Extended Key Usage: 
                TLS Web Server Authentication
            X509v3 Key Usage: 
                Digital Signature, Key Encipherment
            X509v3 Subject Alternative Name: 
                DNS:team517-server
    Signature Algorithm: sha256WithRSAEncryption
         5f:ee:44:75:41:d6:ee:5f:51:b6:36:d4:02:03:e4:7a:33:f3:
         d2:f4:c4:82:f0:c3:66:79:ac:f1:1e:2e:77:68:42:59:ee:03:
         9c:75:31:e4:9f:5b:c2:5f:b8:3c:1a:7b:8b:a1:1d:ec:40:75:
         c4:36:8e:31:3f:ab:6f:fc:6f:66:96:6c:17:62:b0:97:f5:97:
         46:f1:5b:24:8b:0d:cc:3d:78:31:a1:19:85:c9:d2:a6:69:c8:
         8a:eb:8e:32:87:8f:50:c2:b9:f8:4a:70:9a:d4:66:5d:df:d4:
         1d:52:9e:3a:87:76:74:c7:9b:7e:fc:c2:61:29:d6:05:e4:79:
         df:09:ec:29:cf:42:d6:72:dc:4b:b7:46:fa:5a:f3:3c:4f:3f:
         49:94:7a:36:2f:59:e3:c8:0f:2c:77:98:fc:29:ea:07:ca:fd:
         cd:d2:e0:22:f5:7f:f9:c2:17:9f:91:23:04:e1:8e:34:62:24:
         1d:b6:9e:05:1c:9d:af:34:93:bd:bf:70:8b:8b:a3:00:1b:3b:
         1f:57:36:21:17:f3:59:5e:2b:e8:df:4d:ca:f0:3a:05:a7:05:
         db:e6:1c:69:40:4a:93:57:c9:b8:25:3a:3c:0a:fc:ac:5e:e5:
         88:31:f1:a0:6d:9b:55:4e:8f:8d:b8:ae:c6:03:79:ea:96:c5:
         68:23:0e:58
-----BEGIN CERTIFICATE-----
MIIDdzCCAl+gAwIBAgIQINB9qa+h0n/V+GtRTNTnBTANBgkqhkiG9w0BAQsFADAW
MRQwEgYDVQQDDAt0ZWFtNTE3LW5ldDAeFw0yMTA5MTMwMzI4MDJaFw0yNDA4Mjgw
MzI4MDJaMBkxFzAVBgNVBAMMDnRlYW01MTctc2VydmVyMIIBIjANBgkqhkiG9w0B
AQEFAAOCAQ8AMIIBCgKCAQEApB15Vj3z+wBul+NuyHB+WLzb7cbFNBexpW+O1259
bjwaeSYfEQYA6dr2C96YdDPWmI4usJsCHp7Qj3aIG9EJbBFh5wsClJ66qe1M3HdX
/jONncfnmZxLml/kXNSEewBAIy8lQOVRaP8IG0EH8CJOrTOOpLYwN3eP5Rit0vRs
V8hZdqfnKiRBA/o+GfhXNPOgdqP/UBFQ7vdTAMDTPvJl1ildTl+AJI6a9yGi+T+5
mC6VGUOB+WW4vzDFCMOBjIwnFT1bJvRiiU7d99RT3Oa+Imu5KLVabwq/t+Pcj0Xz
1OH0Os44l2Au/OKzKOEwku/zKKkfJpw9MgMoTpBCesvtHQIDAQABo4G9MIG6MAkG
A1UdEwQCMAAwHQYDVR0OBBYEFAMyjDjIGCq3LFRHjm3Q648ciec8MFEGA1UdIwRK
MEiAFJ9VCFZr/VQPTs6GOPYfcNaLmss7oRqkGDAWMRQwEgYDVQQDDAt0ZWFtNTE3
LW5ldIIUfbPteNQ+gErXXraKGJian3ONnSkwEwYDVR0lBAwwCgYIKwYBBQUHAwEw
CwYDVR0PBAQDAgWgMBkGA1UdEQQSMBCCDnRlYW01MTctc2VydmVyMA0GCSqGSIb3
DQEBCwUAA4IBAQBf7kR1QdbuX1G2NtQCA+R6M/PS9MSC8MNmeazxHi53aEJZ7gOc
dTHkn1vCX7g8GnuLoR3sQHXENo4xP6tv/G9mlmwXYrCX9ZdG8Vskiw3MPXgxoRmF
ydKmaciK644yh49Qwrn4SnCa1GZd39QdUp46h3Z0x5t+/MJhKdYF5HnfCewpz0LW
ctxLt0b6WvM8Tz9JlHo2L1njyA8sd5j8KeoHyv3N0uAi9X/5whefkSME4Y40YiQd
tp4FHJ2vNJO9v3CLi6MAGzsfVzYhF/NZXivo303K8DoFpwXb5hxpQEqTV8m4JTo8
CvysXuWIMfGgbZtVTo+NuK7GA3nqlsVoIw5Y
-----END CERTIFICATE-----
