Certificate:
    Data:
        Version: 3 (0x2)
        Serial Number:
            24:d8:cf:64:e4:1d:32:6d:1f:7f:c5:26:16:eb:72:d8
        Signature Algorithm: sha256WithRSAEncryption
        Issuer: CN=team119-net
        Validity
            Not Before: Sep 12 23:47:11 2021 GMT
            Not After : Aug 27 23:47:11 2024 GMT
        Subject: CN=team119-server
        Subject Public Key Info:
            Public Key Algorithm: rsaEncryption
                RSA Public-Key: (2048 bit)
                Modulus:
                    00:b6:4d:b9:a8:02:5e:2e:6c:ae:8a:03:a7:29:e9:
                    26:9e:32:a0:c1:9f:3e:6e:86:ab:b3:fe:f6:22:0e:
                    a8:8a:d8:35:1f:7b:fc:77:48:62:61:d1:50:20:54:
                    43:45:6f:2b:56:64:51:6c:60:d5:66:c9:02:1f:1a:
                    fa:4b:80:78:9f:16:c6:a6:6f:01:bb:82:03:90:57:
                    a8:10:9b:a0:51:b4:76:6d:8e:07:5e:b7:e8:f7:43:
                    4d:18:84:4f:30:92:92:cc:77:09:91:fb:e0:bc:24:
                    ac:9f:55:02:28:f8:ea:5e:15:93:17:8a:b2:39:00:
                    4b:4c:5b:f5:df:2d:a3:f7:c5:53:bf:52:3c:c2:d1:
                    32:4d:5b:58:26:66:ed:cb:c9:f6:7a:ba:ea:3f:e5:
                    6b:6c:a9:c6:9f:67:b1:f8:b7:6a:a9:21:f5:79:59:
                    47:be:f0:f4:e9:32:e9:ba:51:81:25:54:93:09:91:
                    ec:1f:81:36:a0:2d:ff:6e:9f:cd:ad:52:8f:23:75:
                    49:ac:77:30:90:53:83:ce:76:1f:de:1a:79:a0:fe:
                    bc:c5:ed:c2:3f:5d:3a:0c:79:be:4e:5e:f1:af:5f:
                    44:30:3e:3c:7e:06:47:71:94:30:44:1c:ce:fd:26:
                    e6:80:55:90:79:22:b5:b0:25:b6:c3:6f:21:4c:c9:
                    c9:bd
                Exponent: 65537 (0x10001)
        X509v3 extensions:
            X509v3 Basic Constraints: 
                CA:FALSE
            X509v3 Subject Key Identifier: 
                6C:4C:6B:A9:3D:2E:E5:C9:65:93:3F:29:88:03:36:2C:D5:19:AA:88
            X509v3 Authority Key Identifier: 
                keyid:6B:3A:2E:1E:8C:48:34:D2:D3:B7:A0:34:C7:7C:B5:01:13:6F:4D:B3
                DirName:/CN=team119-net
                serial:0A:30:3B:5D:3B:2C:F0:DF:18:BB:C5:93:2E:01:60:06:05:A3:F3:5A

            X509v3 Extended Key Usage: 
                TLS Web Server Authentication
            X509v3 Key Usage: 
                Digital Signature, Key Encipherment
            X509v3 Subject Alternative Name: 
                DNS:team119-server
    Signature Algorithm: sha256WithRSAEncryption
         5d:c9:67:c5:dd:eb:05:9c:0b:ce:4b:bc:c5:69:2e:46:8a:f7:
         b2:2d:dc:97:96:b2:20:19:f8:e0:10:a3:5d:b7:59:66:b1:96:
         f6:bb:de:ca:98:78:08:08:d4:92:26:79:d5:7e:ed:14:a6:cd:
         b4:ea:b0:d0:f2:18:e0:f9:80:19:9a:3e:13:3d:a5:03:07:4c:
         9c:4d:1f:f1:37:5a:ef:d2:3d:58:58:cc:ce:09:2b:22:a2:b2:
         d6:b6:c5:b0:e1:f0:ee:ef:dc:50:19:d2:23:a6:69:59:ce:db:
         80:44:68:82:1a:ce:87:73:d8:bc:2a:94:1a:73:67:c2:f5:af:
         2a:51:1b:d3:4c:21:a1:c2:f7:ed:f5:12:e8:02:37:4a:49:d3:
         75:cb:c3:ee:08:fb:2f:75:26:2b:66:0e:cb:99:50:1f:7e:91:
         ba:a0:68:3a:95:15:53:2c:b2:02:fa:dd:d5:78:6a:74:cc:b4:
         55:04:b5:41:d0:23:44:d0:c6:83:a7:18:08:a2:29:90:70:a5:
         bb:29:ad:f7:65:85:80:0f:17:00:24:11:c4:e6:f2:06:38:a2:
         b5:fd:b8:2a:00:a1:e4:c4:97:e9:02:a3:81:cf:5a:ae:82:13:
         7d:f9:5a:ec:68:f0:18:e1:dc:9a:46:33:af:69:bf:30:8c:3c:
         00:87:3b:8e
-----BEGIN CERTIFICATE-----
MIIDdzCCAl+gAwIBAgIQJNjPZOQdMm0ff8UmFuty2DANBgkqhkiG9w0BAQsFADAW
MRQwEgYDVQQDDAt0ZWFtMTE5LW5ldDAeFw0yMTA5MTIyMzQ3MTFaFw0yNDA4Mjcy
MzQ3MTFaMBkxFzAVBgNVBAMMDnRlYW0xMTktc2VydmVyMIIBIjANBgkqhkiG9w0B
AQEFAAOCAQ8AMIIBCgKCAQEAtk25qAJeLmyuigOnKekmnjKgwZ8+boars/72Ig6o
itg1H3v8d0hiYdFQIFRDRW8rVmRRbGDVZskCHxr6S4B4nxbGpm8Bu4IDkFeoEJug
UbR2bY4HXrfo90NNGIRPMJKSzHcJkfvgvCSsn1UCKPjqXhWTF4qyOQBLTFv13y2j
98VTv1I8wtEyTVtYJmbty8n2errqP+VrbKnGn2ex+LdqqSH1eVlHvvD06TLpulGB
JVSTCZHsH4E2oC3/bp/NrVKPI3VJrHcwkFODznYf3hp5oP68xe3CP106DHm+Tl7x
r19EMD48fgZHcZQwRBzO/SbmgFWQeSK1sCW2w28hTMnJvQIDAQABo4G9MIG6MAkG
A1UdEwQCMAAwHQYDVR0OBBYEFGxMa6k9LuXJZZM/KYgDNizVGaqIMFEGA1UdIwRK
MEiAFGs6Lh6MSDTS07egNMd8tQETb02zoRqkGDAWMRQwEgYDVQQDDAt0ZWFtMTE5
LW5ldIIUCjA7XTss8N8Yu8WTLgFgBgWj81owEwYDVR0lBAwwCgYIKwYBBQUHAwEw
CwYDVR0PBAQDAgWgMBkGA1UdEQQSMBCCDnRlYW0xMTktc2VydmVyMA0GCSqGSIb3
DQEBCwUAA4IBAQBdyWfF3esFnAvOS7zFaS5GiveyLdyXlrIgGfjgEKNdt1lmsZb2
u97KmHgICNSSJnnVfu0Ups206rDQ8hjg+YAZmj4TPaUDB0ycTR/xN1rv0j1YWMzO
CSsiorLWtsWw4fDu79xQGdIjpmlZztuARGiCGs6Hc9i8KpQac2fC9a8qURvTTCGh
wvft9RLoAjdKSdN1y8PuCPsvdSYrZg7LmVAffpG6oGg6lRVTLLIC+t3VeGp0zLRV
BLVB0CNE0MaDpxgIoimQcKW7Ka33ZYWADxcAJBHE5vIGOKK1/bgqAKHkxJfpAqOB
z1qughN9+VrsaPAY4dyaRjOvab8wjDwAhzuO
-----END CERTIFICATE-----
