Certificate:
    Data:
        Version: 3 (0x2)
        Serial Number:
            a3:ab:37:d2:57:24:84:95:07:24:d6:e8:91:62:70:2c
        Signature Algorithm: sha256WithRSAEncryption
        Issuer: CN=team98-net
        Validity
            Not Before: Sep 12 23:33:53 2021 GMT
            Not After : Aug 27 23:33:53 2024 GMT
        Subject: CN=team98-client
        Subject Public Key Info:
            Public Key Algorithm: rsaEncryption
                RSA Public-Key: (2048 bit)
                Modulus:
                    00:c4:90:8f:f6:d4:68:04:e5:29:95:26:66:1f:6f:
                    c8:d3:58:98:8c:48:fe:b2:f9:f5:f0:fc:a8:30:b7:
                    6e:14:94:04:8c:67:6f:2a:78:bb:40:9e:85:ba:74:
                    17:58:41:32:a7:df:b1:15:51:26:9c:70:9f:9f:bb:
                    b6:04:5e:de:6a:d6:3d:b6:8d:e0:9a:46:9a:74:fb:
                    18:4d:26:ff:ac:f4:dc:a4:73:34:ef:98:b0:a8:81:
                    2b:dd:85:e0:36:15:32:76:15:d1:68:5f:f4:bc:92:
                    b4:91:8f:c6:4d:a0:50:c1:40:67:56:48:12:34:d2:
                    43:a9:28:2f:1a:6b:2c:5d:5b:e8:39:72:da:58:38:
                    5d:1a:c5:55:21:dc:c7:ab:4f:ec:fd:5e:b2:9a:e4:
                    3d:8a:0f:be:23:3e:cc:f4:d5:57:23:30:48:f4:ed:
                    4f:7a:ab:5f:44:75:2b:10:06:64:d8:c7:33:8c:26:
                    3c:66:24:a1:88:09:15:9d:f0:7b:56:d0:78:99:b3:
                    38:ad:41:a3:98:d4:d3:16:8f:e4:fb:cc:85:9d:28:
                    5f:61:a3:b4:39:db:47:1a:03:93:8c:33:ef:eb:d5:
                    b9:3e:c8:60:63:69:ca:68:e0:a5:8a:c1:a0:3b:8c:
                    23:31:90:af:3c:8d:cd:ee:dd:5c:2a:fe:4f:f9:35:
                    0b:3d
                Exponent: 65537 (0x10001)
        X509v3 extensions:
            X509v3 Basic Constraints: 
                CA:FALSE
            X509v3 Subject Key Identifier: 
                4E:8A:62:41:43:0F:22:FA:4D:1E:B6:23:D0:E4:2B:1E:2F:0F:29:61
            X509v3 Authority Key Identifier: 
                keyid:CD:03:69:71:2B:35:59:4E:AE:D6:31:5E:38:33:94:4C:4D:76:39:DE
                DirName:/CN=team98-net
                serial:2B:BE:50:51:EF:5B:C8:34:92:F7:54:C1:48:6F:3F:E9:03:05:6D:A9

            X509v3 Extended Key Usage: 
                TLS Web Client Authentication
            X509v3 Key Usage: 
                Digital Signature
    Signature Algorithm: sha256WithRSAEncryption
         64:b8:2a:15:79:dd:e4:66:fb:80:6d:ae:77:a3:75:2f:06:7a:
         e3:08:f5:b8:2c:73:ca:06:cc:dd:b7:d0:f2:86:62:1e:a3:a4:
         1c:d6:6e:e3:93:cf:3f:40:58:ce:69:2a:fb:51:5e:ab:5a:c0:
         4e:3b:07:c3:08:36:bd:e0:cb:b3:39:9c:1d:41:d4:4c:f8:86:
         5d:a1:b7:c4:b4:ed:c7:a1:ad:4f:68:9e:d6:0a:32:aa:43:51:
         f8:7f:e4:f2:1e:10:d8:c7:e4:d4:29:e8:9f:b7:7f:76:4b:32:
         0d:58:9c:ce:ab:d5:d5:47:8f:33:dd:45:23:94:70:53:b2:f6:
         c4:89:2e:54:52:43:d0:37:2b:2e:10:b4:16:b2:49:72:61:fb:
         88:a4:a2:c8:1b:fe:7b:50:87:e3:27:be:d5:12:b4:2b:4e:55:
         c8:43:f4:ab:6f:33:0d:5b:f2:87:5a:91:84:f8:33:6a:ca:ed:
         9d:91:9a:be:54:e4:95:cf:c4:3b:a0:33:5a:3f:77:96:5e:cc:
         97:db:7c:51:26:5f:27:d2:b2:2f:03:12:7b:0e:30:d5:1e:16:
         a4:ba:2a:e4:97:2f:ee:2c:af:c5:92:0a:01:a2:0b:c8:9a:d2:
         6f:77:d4:59:c2:a2:97:04:4c:32:56:76:3b:7f:2e:98:50:63:
         f6:2e:90:2e
-----BEGIN CERTIFICATE-----
MIIDWjCCAkKgAwIBAgIRAKOrN9JXJISVByTW6JFicCwwDQYJKoZIhvcNAQELBQAw
FTETMBEGA1UEAwwKdGVhbTk4LW5ldDAeFw0yMTA5MTIyMzMzNTNaFw0yNDA4Mjcy
MzMzNTNaMBgxFjAUBgNVBAMMDXRlYW05OC1jbGllbnQwggEiMA0GCSqGSIb3DQEB
AQUAA4IBDwAwggEKAoIBAQDEkI/21GgE5SmVJmYfb8jTWJiMSP6y+fXw/Kgwt24U
lASMZ28qeLtAnoW6dBdYQTKn37EVUSaccJ+fu7YEXt5q1j22jeCaRpp0+xhNJv+s
9NykczTvmLCogSvdheA2FTJ2FdFoX/S8krSRj8ZNoFDBQGdWSBI00kOpKC8aayxd
W+g5ctpYOF0axVUh3MerT+z9XrKa5D2KD74jPsz01VcjMEj07U96q19EdSsQBmTY
xzOMJjxmJKGICRWd8HtW0HiZszitQaOY1NMWj+T7zIWdKF9ho7Q520caA5OMM+/r
1bk+yGBjacpo4KWKwaA7jCMxkK88jc3u3Vwq/k/5NQs9AgMBAAGjgaEwgZ4wCQYD
VR0TBAIwADAdBgNVHQ4EFgQUTopiQUMPIvpNHrYj0OQrHi8PKWEwUAYDVR0jBEkw
R4AUzQNpcSs1WU6u1jFeODOUTE12Od6hGaQXMBUxEzARBgNVBAMMCnRlYW05OC1u
ZXSCFCu+UFHvW8g0kvdUwUhvP+kDBW2pMBMGA1UdJQQMMAoGCCsGAQUFBwMCMAsG
A1UdDwQEAwIHgDANBgkqhkiG9w0BAQsFAAOCAQEAZLgqFXnd5Gb7gG2ud6N1LwZ6
4wj1uCxzygbM3bfQ8oZiHqOkHNZu45PPP0BYzmkq+1Feq1rATjsHwwg2veDLszmc
HUHUTPiGXaG3xLTtx6GtT2ie1goyqkNR+H/k8h4Q2Mfk1Cnon7d/dksyDViczqvV
1UePM91FI5RwU7L2xIkuVFJD0DcrLhC0FrJJcmH7iKSiyBv+e1CH4ye+1RK0K05V
yEP0q28zDVvyh1qRhPgzasrtnZGavlTklc/EO6AzWj93ll7Ml9t8USZfJ9KyLwMS
ew4w1R4WpLoq5Jcv7iyvxZIKAaILyJrSb3fUWcKilwRMMlZ2O38umFBj9i6QLg==
-----END CERTIFICATE-----
