Certificate:
    Data:
        Version: 3 (0x2)
        Serial Number:
            90:b9:e1:64:83:11:06:d2:06:0a:1b:4b:8b:89:ab:3a
        Signature Algorithm: sha256WithRSAEncryption
        Issuer: CN=team625-net
        Validity
            Not Before: Sep 13 04:11:29 2021 GMT
            Not After : Aug 28 04:11:29 2024 GMT
        Subject: CN=team625-server
        Subject Public Key Info:
            Public Key Algorithm: rsaEncryption
                RSA Public-Key: (2048 bit)
                Modulus:
                    00:ba:27:d5:29:06:4b:89:7a:01:bc:84:7f:e6:74:
                    d6:c5:83:0b:b9:f2:38:76:09:8d:8a:19:04:16:07:
                    3d:da:8b:50:7e:63:0a:75:f1:0e:99:0c:43:53:c7:
                    15:9c:e2:24:f0:e9:f2:51:e7:96:d6:76:71:1a:be:
                    ff:f9:79:2c:6a:68:c7:59:4a:c1:f6:bb:c4:50:0d:
                    79:e3:73:3a:b1:01:23:98:e3:e6:80:93:31:d1:71:
                    5b:c0:d9:9e:7f:9c:63:69:13:41:2d:e3:ee:b5:c7:
                    42:df:db:e1:83:ac:c8:ae:5d:64:71:49:2c:39:02:
                    57:66:37:c0:60:61:5d:51:0f:44:a3:bc:23:e9:14:
                    10:e9:17:24:d0:d2:f5:32:44:b7:86:d1:d4:69:df:
                    e8:d1:a0:0c:b6:e4:cb:62:8c:da:20:f1:1b:23:5c:
                    b6:c1:5d:81:40:51:56:10:cf:ba:62:fe:79:f6:11:
                    af:d1:05:14:4c:35:d0:01:df:49:c1:a8:ec:d1:46:
                    14:62:a2:56:5c:5b:58:a9:93:12:80:26:95:10:26:
                    9f:db:8a:3f:72:e6:e4:ef:48:c9:db:c7:be:ca:1b:
                    92:85:0e:e5:87:e0:7c:f8:d7:25:75:8d:22:6c:88:
                    46:77:2a:e2:85:aa:d8:a0:48:f3:89:9e:94:30:ac:
                    37:51
                Exponent: 65537 (0x10001)
        X509v3 extensions:
            X509v3 Basic Constraints: 
                CA:FALSE
            X509v3 Subject Key Identifier: 
                FC:99:DB:73:95:0F:48:77:B1:9D:A2:CC:E0:B7:FF:B9:63:7C:F4:F8
            X509v3 Authority Key Identifier: 
                keyid:23:D2:B5:06:27:D0:8D:72:F9:C9:36:BF:99:13:71:FD:70:5E:48:8A
                DirName:/CN=team625-net
                serial:2F:98:0C:F8:BE:43:75:40:EF:9A:2D:52:C3:5F:36:C2:6A:D6:57:13

            X509v3 Extended Key Usage: 
                TLS Web Server Authentication
            X509v3 Key Usage: 
                Digital Signature, Key Encipherment
            X509v3 Subject Alternative Name: 
                DNS:team625-server
    Signature Algorithm: sha256WithRSAEncryption
         15:be:3b:e2:58:f9:18:d9:20:9c:8d:70:49:ff:29:49:2b:07:
         9d:95:df:90:63:5d:4c:74:c7:c3:09:35:be:7a:91:96:ac:96:
         a0:90:d8:23:d7:33:7d:7a:93:d7:87:7b:8f:9d:2f:cd:e3:7a:
         97:cf:d7:33:c5:b5:2b:d0:ad:6d:c7:72:e6:63:4a:b0:08:1a:
         eb:0b:11:02:aa:ae:27:1d:77:6a:fa:42:cb:20:10:8a:8c:60:
         64:f6:1f:d0:88:54:5e:72:bf:4f:07:08:ec:2f:16:46:6b:62:
         9c:03:cf:76:b9:71:e9:bc:ba:03:99:87:67:fa:fe:6a:9e:cb:
         d5:2b:54:0a:d2:ac:46:2f:90:dd:41:32:0a:8d:03:65:9b:0a:
         52:f2:cf:20:cb:fd:90:10:31:63:bd:d7:e9:ef:b7:7b:27:7b:
         69:7e:5b:20:23:75:d3:93:99:7a:a0:2f:9d:08:f4:22:a6:c5:
         3e:3f:be:b0:93:cc:17:44:62:e6:5f:46:e9:14:08:3a:b9:a4:
         ac:45:e8:d9:06:f7:0a:55:3f:2a:d3:8d:76:0f:a7:a9:b5:7d:
         ed:62:58:c1:78:de:ec:2b:f0:65:e4:64:de:3e:49:9f:2a:e1:
         52:88:fa:09:0b:f9:c7:77:e9:7e:4c:a3:41:ec:0d:8f:be:32:
         d3:6a:ef:e3
-----BEGIN CERTIFICATE-----
MIIDeDCCAmCgAwIBAgIRAJC54WSDEQbSBgobS4uJqzowDQYJKoZIhvcNAQELBQAw
FjEUMBIGA1UEAwwLdGVhbTYyNS1uZXQwHhcNMjEwOTEzMDQxMTI5WhcNMjQwODI4
MDQxMTI5WjAZMRcwFQYDVQQDDA50ZWFtNjI1LXNlcnZlcjCCASIwDQYJKoZIhvcN
AQEBBQADggEPADCCAQoCggEBALon1SkGS4l6AbyEf+Z01sWDC7nyOHYJjYoZBBYH
PdqLUH5jCnXxDpkMQ1PHFZziJPDp8lHnltZ2cRq+//l5LGpox1lKwfa7xFANeeNz
OrEBI5jj5oCTMdFxW8DZnn+cY2kTQS3j7rXHQt/b4YOsyK5dZHFJLDkCV2Y3wGBh
XVEPRKO8I+kUEOkXJNDS9TJEt4bR1Gnf6NGgDLbky2KM2iDxGyNctsFdgUBRVhDP
umL+efYRr9EFFEw10AHfScGo7NFGFGKiVlxbWKmTEoAmlRAmn9uKP3Lm5O9IydvH
vsobkoUO5YfgfPjXJXWNImyIRncq4oWq2KBI84melDCsN1ECAwEAAaOBvTCBujAJ
BgNVHRMEAjAAMB0GA1UdDgQWBBT8mdtzlQ9Id7Gdoszgt/+5Y3z0+DBRBgNVHSME
SjBIgBQj0rUGJ9CNcvnJNr+ZE3H9cF5IiqEapBgwFjEUMBIGA1UEAwwLdGVhbTYy
NS1uZXSCFC+YDPi+Q3VA75otUsNfNsJq1lcTMBMGA1UdJQQMMAoGCCsGAQUFBwMB
MAsGA1UdDwQEAwIFoDAZBgNVHREEEjAQgg50ZWFtNjI1LXNlcnZlcjANBgkqhkiG
9w0BAQsFAAOCAQEAFb474lj5GNkgnI1wSf8pSSsHnZXfkGNdTHTHwwk1vnqRlqyW
oJDYI9czfXqT14d7j50vzeN6l8/XM8W1K9Ctbcdy5mNKsAga6wsRAqquJx13avpC
yyAQioxgZPYf0IhUXnK/TwcI7C8WRmtinAPPdrlx6by6A5mHZ/r+ap7L1StUCtKs
Ri+Q3UEyCo0DZZsKUvLPIMv9kBAxY73X6e+3eyd7aX5bICN105OZeqAvnQj0IqbF
Pj++sJPMF0Ri5l9G6RQIOrmkrEXo2Qb3ClU/KtONdg+nqbV97WJYwXje7CvwZeRk
3j5JnyrhUoj6CQv5x3fpfkyjQewNj74y02rv4w==
-----END CERTIFICATE-----
