Certificate:
    Data:
        Version: 3 (0x2)
        Serial Number:
            bd:84:38:b0:0e:66:b5:ec:dd:11:d1:1f:bc:af:f1:6d
        Signature Algorithm: sha256WithRSAEncryption
        Issuer: CN=team362-net
        Validity
            Not Before: Sep 13 02:05:44 2021 GMT
            Not After : Aug 28 02:05:44 2024 GMT
        Subject: CN=team362-client
        Subject Public Key Info:
            Public Key Algorithm: rsaEncryption
                RSA Public-Key: (2048 bit)
                Modulus:
                    00:cd:57:81:fd:d5:89:08:46:63:dd:55:2a:2b:4a:
                    31:0a:92:ea:5a:b8:2a:2d:06:e8:84:f6:b8:78:78:
                    bd:a6:df:a1:f4:58:a8:22:73:77:d5:78:73:a0:1d:
                    ff:42:25:5b:2d:48:a8:c9:60:fa:06:3b:b5:49:4b:
                    65:25:66:94:e0:28:16:43:6c:f2:9b:b2:c3:4b:8b:
                    fc:24:9b:62:27:84:6c:c5:3a:6e:20:fe:d5:c4:54:
                    f5:1c:47:6c:57:e0:f7:42:74:a8:3b:99:fd:39:7f:
                    ed:03:c2:d6:c7:e9:ad:cd:81:70:38:f9:0a:df:c1:
                    19:52:08:cc:16:be:0a:cf:08:a6:2a:ff:a4:16:d6:
                    5a:6a:1e:fd:da:a9:cd:ac:71:5d:7f:27:6b:b3:c1:
                    f0:08:6f:f5:e5:a9:ac:91:69:82:59:2e:db:7b:85:
                    64:6e:f0:67:4a:bb:02:ec:22:80:11:ba:06:18:7f:
                    dc:6d:f1:2a:03:c8:de:b4:7b:15:e5:89:81:d9:29:
                    19:86:d0:b0:9d:84:5c:5e:3e:80:b6:5c:8a:c8:08:
                    82:46:a8:28:37:8a:91:86:a8:d8:12:07:68:35:78:
                    94:ff:8a:0b:8f:12:a5:18:4e:54:51:a4:42:64:87:
                    77:03:54:65:7b:01:53:9b:80:9d:c6:c0:41:2a:21:
                    10:b7
                Exponent: 65537 (0x10001)
        X509v3 extensions:
            X509v3 Basic Constraints: 
                CA:FALSE
            X509v3 Subject Key Identifier: 
                BA:30:AC:86:04:27:0A:99:CF:91:BB:43:48:8E:EC:5E:B0:EE:0D:DD
            X509v3 Authority Key Identifier: 
                keyid:5F:67:74:6C:10:76:6B:7C:C3:96:38:B4:08:EE:CB:E0:94:FD:CF:28
                DirName:/CN=team362-net
                serial:74:39:3A:0D:8D:78:DA:69:B9:02:3B:D5:F7:C4:49:A6:E0:2B:97:9F

            X509v3 Extended Key Usage: 
                TLS Web Client Authentication
            X509v3 Key Usage: 
                Digital Signature
    Signature Algorithm: sha256WithRSAEncryption
         b0:33:a4:3f:af:c6:81:a6:a5:e9:47:0b:5a:0d:c6:d8:08:18:
         62:96:de:e7:43:6f:91:53:42:8e:8c:c8:41:f1:b9:9e:21:37:
         57:a8:c1:a6:56:d2:e3:67:91:50:76:b8:56:d5:83:a8:a1:7e:
         b4:16:f2:55:bc:e5:91:99:e6:a4:a5:04:9a:7d:82:c8:59:e5:
         59:93:f2:ff:2f:86:ae:ce:bf:e1:98:ce:5d:47:8d:38:fb:6f:
         5f:ee:70:21:28:09:71:47:74:05:72:1d:bc:dc:8d:bb:7c:ed:
         47:48:a3:e1:98:b2:e5:d9:d4:00:a5:4c:3c:36:0b:c0:b5:af:
         07:78:1c:7a:ab:6b:e4:1c:71:9f:9c:dc:9b:b9:9a:f8:6d:08:
         fd:3e:d1:10:3b:0e:ac:61:0d:a1:c0:8d:e6:a7:1c:8f:0f:0b:
         ae:30:e1:76:f7:47:b2:ad:c4:b0:7f:a4:68:0c:76:e4:1d:bc:
         7f:23:c7:7f:67:35:a2:15:0d:51:f4:58:f9:f2:9e:e1:52:79:
         4a:ad:36:cd:a6:ee:b5:fd:54:b5:c5:2e:2c:a5:16:c1:27:b1:
         97:7c:4b:42:64:9b:39:75:14:b7:31:bd:df:39:84:b8:26:e7:
         e5:a7:22:5c:60:cd:15:f7:2a:ab:ad:b5:2f:79:c8:71:1e:33:
         88:ef:12:7e
-----BEGIN CERTIFICATE-----
MIIDXTCCAkWgAwIBAgIRAL2EOLAOZrXs3RHRH7yv8W0wDQYJKoZIhvcNAQELBQAw
FjEUMBIGA1UEAwwLdGVhbTM2Mi1uZXQwHhcNMjEwOTEzMDIwNTQ0WhcNMjQwODI4
MDIwNTQ0WjAZMRcwFQYDVQQDDA50ZWFtMzYyLWNsaWVudDCCASIwDQYJKoZIhvcN
AQEBBQADggEPADCCAQoCggEBAM1Xgf3ViQhGY91VKitKMQqS6lq4Ki0G6IT2uHh4
vabfofRYqCJzd9V4c6Ad/0IlWy1IqMlg+gY7tUlLZSVmlOAoFkNs8puyw0uL/CSb
YieEbMU6biD+1cRU9RxHbFfg90J0qDuZ/Tl/7QPC1sfprc2BcDj5Ct/BGVIIzBa+
Cs8Ipir/pBbWWmoe/dqpzaxxXX8na7PB8Ahv9eWprJFpglku23uFZG7wZ0q7Auwi
gBG6Bhh/3G3xKgPI3rR7FeWJgdkpGYbQsJ2EXF4+gLZcisgIgkaoKDeKkYao2BIH
aDV4lP+KC48SpRhOVFGkQmSHdwNUZXsBU5uAncbAQSohELcCAwEAAaOBojCBnzAJ
BgNVHRMEAjAAMB0GA1UdDgQWBBS6MKyGBCcKmc+Ru0NIjuxesO4N3TBRBgNVHSME
SjBIgBRfZ3RsEHZrfMOWOLQI7svglP3PKKEapBgwFjEUMBIGA1UEAwwLdGVhbTM2
Mi1uZXSCFHQ5Og2NeNppuQI71ffESabgK5efMBMGA1UdJQQMMAoGCCsGAQUFBwMC
MAsGA1UdDwQEAwIHgDANBgkqhkiG9w0BAQsFAAOCAQEAsDOkP6/Ggaal6UcLWg3G
2AgYYpbe50NvkVNCjozIQfG5niE3V6jBplbS42eRUHa4VtWDqKF+tBbyVbzlkZnm
pKUEmn2CyFnlWZPy/y+Grs6/4ZjOXUeNOPtvX+5wISgJcUd0BXIdvNyNu3ztR0ij
4Ziy5dnUAKVMPDYLwLWvB3gceqtr5Bxxn5zcm7ma+G0I/T7REDsOrGENocCN5qcc
jw8LrjDhdvdHsq3EsH+kaAx25B28fyPHf2c1ohUNUfRY+fKe4VJ5Sq02zabutf1U
tcUuLKUWwSexl3xLQmSbOXUUtzG93zmEuCbn5aciXGDNFfcqq621L3nIcR4ziO8S
fg==
-----END CERTIFICATE-----
