Certificate:
    Data:
        Version: 3 (0x2)
        Serial Number:
            96:28:3e:6b:8f:61:3a:2b:5f:96:66:51:7c:0d:d9:bc
        Signature Algorithm: sha256WithRSAEncryption
        Issuer: CN=team311-net
        Validity
            Not Before: Sep 13 01:33:46 2021 GMT
            Not After : Aug 28 01:33:46 2024 GMT
        Subject: CN=team311-client
        Subject Public Key Info:
            Public Key Algorithm: rsaEncryption
                RSA Public-Key: (2048 bit)
                Modulus:
                    00:dc:3c:de:3b:00:36:6d:9c:c5:28:b2:7d:8c:c2:
                    6e:52:46:15:cb:0d:9a:49:85:7d:38:51:ae:49:04:
                    6e:7c:28:93:36:17:9e:ff:08:bd:9e:c8:39:0f:f1:
                    32:ed:d6:41:14:3e:d4:ed:37:60:27:75:b2:dd:09:
                    7a:c0:63:96:91:51:0b:07:c3:8f:97:f6:31:39:2e:
                    bd:80:96:1f:6e:c8:22:9b:e1:7c:90:95:e1:0d:87:
                    34:40:49:52:97:cd:2b:08:2f:51:62:71:14:dd:8e:
                    4f:c5:4e:3d:3a:c0:74:29:1d:d3:c3:14:db:4f:91:
                    2f:41:6a:3d:2b:d2:ae:18:0b:5e:74:8d:02:58:df:
                    8e:ca:d7:14:37:53:a0:49:ba:0d:1a:11:4d:be:9c:
                    21:74:a8:7c:97:61:9a:3c:46:f3:89:d9:1c:08:8e:
                    ad:df:3a:35:b4:a0:bf:0f:54:c4:17:f4:5f:fc:44:
                    f8:62:bf:8c:48:2f:da:62:37:43:53:4f:a1:37:f0:
                    40:ef:d4:40:f6:5e:1b:88:9b:46:b7:4d:39:35:39:
                    3c:e4:be:02:ed:21:65:cf:56:a3:94:dd:70:42:ce:
                    c4:fa:f1:a4:53:58:b2:1d:41:3b:45:e2:53:87:4c:
                    cd:14:4c:b0:e3:1b:a0:6f:db:20:3b:2a:70:68:49:
                    64:ed
                Exponent: 65537 (0x10001)
        X509v3 extensions:
            X509v3 Basic Constraints: 
                CA:FALSE
            X509v3 Subject Key Identifier: 
                56:0B:7E:43:D2:43:60:45:A8:08:40:83:C4:C7:1C:F1:B4:0D:F5:89
            X509v3 Authority Key Identifier: 
                keyid:5D:58:DC:4A:46:C0:8D:2A:14:7F:10:A2:B1:E2:8C:0F:69:81:B6:17
                DirName:/CN=team311-net
                serial:2C:C2:FA:11:89:6B:0A:8F:E2:4D:E9:31:77:E6:9F:51:F4:32:EC:D6

            X509v3 Extended Key Usage: 
                TLS Web Client Authentication
            X509v3 Key Usage: 
                Digital Signature
    Signature Algorithm: sha256WithRSAEncryption
         25:51:03:ff:25:76:c2:8a:60:d0:83:5c:7c:4c:73:a5:15:f0:
         09:f2:c5:51:77:2c:54:61:20:c8:e5:8c:0d:ee:cd:80:d8:65:
         28:2d:40:67:ce:04:da:98:3b:64:8d:8d:51:80:e0:43:25:79:
         59:13:1a:a4:13:63:47:66:bc:57:f9:17:3c:8b:2c:4b:73:f0:
         1b:d1:6a:7e:a1:9a:a8:f1:66:ac:25:53:12:99:bd:69:71:d6:
         d3:d1:e2:10:f6:7b:ef:e2:aa:ef:be:10:da:9e:2d:9b:f3:8f:
         d7:2e:bd:e8:81:2c:34:30:97:24:e7:1f:a5:ec:ca:a8:79:41:
         8b:c6:ee:2a:f0:d7:4d:dc:2a:00:36:1a:97:32:4f:85:8b:94:
         20:5e:79:f2:7f:70:30:f7:46:66:f5:68:d2:1e:e8:5c:78:42:
         18:00:0e:ff:64:b5:e7:62:98:9b:4a:82:16:b3:ff:95:d6:36:
         c6:24:a8:26:64:30:8e:ab:81:49:86:37:56:54:49:2e:e5:b0:
         d1:2f:98:18:86:44:7b:65:13:8c:8a:1e:9b:59:cf:eb:61:a9:
         b6:9f:f0:ce:10:5d:10:48:93:fc:56:4d:1f:8c:5b:29:d7:a6:
         22:22:5f:26:0d:5c:3f:d7:bd:eb:53:ac:0b:48:fc:2b:c3:b0:
         c6:2c:b4:ed
-----BEGIN CERTIFICATE-----
MIIDXTCCAkWgAwIBAgIRAJYoPmuPYTorX5ZmUXwN2bwwDQYJKoZIhvcNAQELBQAw
FjEUMBIGA1UEAwwLdGVhbTMxMS1uZXQwHhcNMjEwOTEzMDEzMzQ2WhcNMjQwODI4
MDEzMzQ2WjAZMRcwFQYDVQQDDA50ZWFtMzExLWNsaWVudDCCASIwDQYJKoZIhvcN
AQEBBQADggEPADCCAQoCggEBANw83jsANm2cxSiyfYzCblJGFcsNmkmFfThRrkkE
bnwokzYXnv8IvZ7IOQ/xMu3WQRQ+1O03YCd1st0JesBjlpFRCwfDj5f2MTkuvYCW
H27IIpvhfJCV4Q2HNEBJUpfNKwgvUWJxFN2OT8VOPTrAdCkd08MU20+RL0FqPSvS
rhgLXnSNAljfjsrXFDdToEm6DRoRTb6cIXSofJdhmjxG84nZHAiOrd86NbSgvw9U
xBf0X/xE+GK/jEgv2mI3Q1NPoTfwQO/UQPZeG4ibRrdNOTU5POS+Au0hZc9Wo5Td
cELOxPrxpFNYsh1BO0XiU4dMzRRMsOMboG/bIDsqcGhJZO0CAwEAAaOBojCBnzAJ
BgNVHRMEAjAAMB0GA1UdDgQWBBRWC35D0kNgRagIQIPExxzxtA31iTBRBgNVHSME
SjBIgBRdWNxKRsCNKhR/EKKx4owPaYG2F6EapBgwFjEUMBIGA1UEAwwLdGVhbTMx
MS1uZXSCFCzC+hGJawqP4k3pMXfmn1H0MuzWMBMGA1UdJQQMMAoGCCsGAQUFBwMC
MAsGA1UdDwQEAwIHgDANBgkqhkiG9w0BAQsFAAOCAQEAJVED/yV2wopg0INcfExz
pRXwCfLFUXcsVGEgyOWMDe7NgNhlKC1AZ84E2pg7ZI2NUYDgQyV5WRMapBNjR2a8
V/kXPIssS3PwG9FqfqGaqPFmrCVTEpm9aXHW09HiEPZ77+Kq774Q2p4tm/OP1y69
6IEsNDCXJOcfpezKqHlBi8buKvDXTdwqADYalzJPhYuUIF558n9wMPdGZvVo0h7o
XHhCGAAO/2S152KYm0qCFrP/ldY2xiSoJmQwjquBSYY3VlRJLuWw0S+YGIZEe2UT
jIoem1nP62Gptp/wzhBdEEiT/FZNH4xbKdemIiJfJg1cP9e961OsC0j8K8Owxiy0
7Q==
-----END CERTIFICATE-----
