Certificate:
    Data:
        Version: 3 (0x2)
        Serial Number:
            e1:c0:da:e7:26:ca:f2:b0:2d:fd:40:e9:22:b7:3a
        Signature Algorithm: sha256WithRSAEncryption
        Issuer: CN=team153-net
        Validity
            Not Before: Sep 13 00:12:30 2021 GMT
            Not After : Aug 28 00:12:30 2024 GMT
        Subject: CN=team153-client
        Subject Public Key Info:
            Public Key Algorithm: rsaEncryption
                RSA Public-Key: (2048 bit)
                Modulus:
                    00:bf:df:78:78:f3:a2:1e:01:46:76:dc:43:42:14:
                    bc:a2:b4:5f:e4:a1:70:cc:aa:1b:80:2f:53:6d:49:
                    68:d9:4e:b4:1a:a8:92:bd:d6:d7:eb:20:f8:bc:3c:
                    b5:52:cc:80:e4:8e:ce:50:36:01:9d:67:22:b0:57:
                    59:50:b3:d8:b6:ca:6b:0a:11:4d:b0:3e:3b:8a:29:
                    9d:98:04:09:88:e4:ae:2c:9a:91:32:24:b7:b3:41:
                    57:68:8f:97:a6:bc:02:9e:96:5a:59:a4:b5:56:fe:
                    fa:e8:49:1f:d9:38:fd:0e:9b:94:13:04:f5:b9:0b:
                    90:63:a9:f1:dd:46:db:61:80:0f:37:45:53:12:09:
                    7e:5c:4e:5e:0e:8b:28:83:7b:53:90:45:c0:90:83:
                    7d:78:ad:37:3c:1a:74:3b:15:d1:2b:cc:58:45:7b:
                    63:03:40:6d:aa:ef:f4:29:ba:ea:5e:79:52:cb:38:
                    1f:c3:d3:8c:eb:6f:25:2a:c5:e1:83:9d:e4:01:6d:
                    27:db:63:a5:78:83:cb:1b:d0:39:78:fc:90:1f:9d:
                    60:05:78:4a:eb:ce:e4:37:bc:2c:79:79:ed:5a:37:
                    cc:64:ef:5a:f3:25:d0:0e:ae:ec:c0:87:b5:4b:e6:
                    21:04:b3:3a:35:a4:86:ab:fa:85:33:79:94:59:75:
                    16:c1
                Exponent: 65537 (0x10001)
        X509v3 extensions:
            X509v3 Basic Constraints: 
                CA:FALSE
            X509v3 Subject Key Identifier: 
                0C:BD:03:B3:1B:A9:FA:45:46:0E:26:B0:AE:62:5A:99:FD:79:1D:B2
            X509v3 Authority Key Identifier: 
                keyid:2B:FE:5D:F3:B0:72:54:C1:18:46:4E:6B:B5:4B:60:85:D4:5E:08:E7
                DirName:/CN=team153-net
                serial:0E:57:7A:D1:44:32:FF:D2:9A:57:3F:F5:81:7D:30:3A:75:DD:92:F6

            X509v3 Extended Key Usage: 
                TLS Web Client Authentication
            X509v3 Key Usage: 
                Digital Signature
    Signature Algorithm: sha256WithRSAEncryption
         a5:c7:80:39:db:40:31:89:14:d5:3d:86:9f:47:15:c9:38:a2:
         9d:0d:cc:1b:6f:32:90:ca:17:66:59:95:64:84:50:be:5e:37:
         7e:0d:2a:ac:cf:bb:00:2b:d8:f7:51:4d:00:cc:18:83:88:b9:
         fd:7b:35:b4:6c:87:46:24:b4:b0:34:e4:c4:c1:96:8e:1b:80:
         a2:eb:7c:f0:06:dd:ee:2b:27:33:24:39:55:24:76:8b:28:52:
         65:50:90:90:8f:a0:38:79:24:0a:1d:32:66:01:d1:bc:97:39:
         0f:fc:c3:6c:34:be:95:4f:a2:8e:80:4c:1b:c1:c6:76:de:7b:
         45:eb:1a:62:24:6d:31:0c:0b:93:77:84:47:69:60:e7:ed:16:
         23:b4:44:29:69:80:71:6a:ce:63:fd:ad:77:d8:e6:8f:8c:ee:
         d8:73:71:31:04:b9:70:dd:15:85:9b:03:ce:42:be:2e:83:63:
         fb:4f:27:8c:cc:70:7b:bd:f4:99:62:e2:35:76:c4:7d:a1:a6:
         a0:2d:21:c9:cf:93:c5:0f:5e:2b:63:89:2f:af:aa:82:23:ba:
         be:80:d9:10:ba:59:25:3d:c9:f6:c0:62:97:ad:c5:77:23:df:
         2a:26:a2:2a:5c:41:83:7e:44:4f:81:33:4f:94:b8:2e:51:59:
         78:58:53:d9
-----BEGIN CERTIFICATE-----
MIIDXDCCAkSgAwIBAgIQAOHA2ucmyvKwLf1A6SK3OjANBgkqhkiG9w0BAQsFADAW
MRQwEgYDVQQDDAt0ZWFtMTUzLW5ldDAeFw0yMTA5MTMwMDEyMzBaFw0yNDA4Mjgw
MDEyMzBaMBkxFzAVBgNVBAMMDnRlYW0xNTMtY2xpZW50MIIBIjANBgkqhkiG9w0B
AQEFAAOCAQ8AMIIBCgKCAQEAv994ePOiHgFGdtxDQhS8orRf5KFwzKobgC9TbUlo
2U60GqiSvdbX6yD4vDy1UsyA5I7OUDYBnWcisFdZULPYtsprChFNsD47iimdmAQJ
iOSuLJqRMiS3s0FXaI+XprwCnpZaWaS1Vv766Ekf2Tj9DpuUEwT1uQuQY6nx3Ubb
YYAPN0VTEgl+XE5eDosog3tTkEXAkIN9eK03PBp0OxXRK8xYRXtjA0Btqu/0Kbrq
XnlSyzgfw9OM628lKsXhg53kAW0n22OleIPLG9A5ePyQH51gBXhK687kN7wseXnt
WjfMZO9a8yXQDq7swIe1S+YhBLM6NaSGq/qFM3mUWXUWwQIDAQABo4GiMIGfMAkG
A1UdEwQCMAAwHQYDVR0OBBYEFAy9A7MbqfpFRg4msK5iWpn9eR2yMFEGA1UdIwRK
MEiAFCv+XfOwclTBGEZOa7VLYIXUXgjnoRqkGDAWMRQwEgYDVQQDDAt0ZWFtMTUz
LW5ldIIUDld60UQy/9KaVz/1gX0wOnXdkvYwEwYDVR0lBAwwCgYIKwYBBQUHAwIw
CwYDVR0PBAQDAgeAMA0GCSqGSIb3DQEBCwUAA4IBAQClx4A520AxiRTVPYafRxXJ
OKKdDcwbbzKQyhdmWZVkhFC+Xjd+DSqsz7sAK9j3UU0AzBiDiLn9ezW0bIdGJLSw
NOTEwZaOG4Ci63zwBt3uKyczJDlVJHaLKFJlUJCQj6A4eSQKHTJmAdG8lzkP/MNs
NL6VT6KOgEwbwcZ23ntF6xpiJG0xDAuTd4RHaWDn7RYjtEQpaYBxas5j/a132OaP
jO7Yc3ExBLlw3RWFmwPOQr4ug2P7TyeMzHB7vfSZYuI1dsR9oaagLSHJz5PFD14r
Y4kvr6qCI7q+gNkQulklPcn2wGKXrcV3I98qJqIqXEGDfkRPgTNPlLguUVl4WFPZ
-----END CERTIFICATE-----
