Certificate:
    Data:
        Version: 3 (0x2)
        Serial Number:
            87:9e:a9:f3:5c:ac:d7:51:b8:0f:59:48:b4:81:0d:05
        Signature Algorithm: sha256WithRSAEncryption
        Issuer: CN=team326-net
        Validity
            Not Before: Sep 13 01:42:35 2021 GMT
            Not After : Aug 28 01:42:35 2024 GMT
        Subject: CN=team326-server
        Subject Public Key Info:
            Public Key Algorithm: rsaEncryption
                RSA Public-Key: (2048 bit)
                Modulus:
                    00:cb:df:79:27:ec:8d:90:4b:b0:60:f9:4f:c5:40:
                    d1:11:e6:7c:20:3e:4f:83:26:67:b6:76:ee:a4:28:
                    d0:55:6b:09:1f:f1:17:71:9b:35:7c:21:48:bc:88:
                    25:ca:65:5e:4a:c3:b2:dd:a4:f2:0f:04:90:ac:7d:
                    95:d9:ce:cc:e5:c2:0d:2f:2f:42:57:22:bc:5d:9a:
                    21:d6:69:2b:61:49:9f:41:e3:23:65:ee:a1:a1:e9:
                    0a:16:be:71:52:b6:8d:de:98:c2:75:7f:8a:49:16:
                    52:9a:f7:05:08:e2:f0:4b:b7:bc:93:1c:53:fb:1a:
                    9d:df:3c:d9:e8:4c:0f:7f:61:24:1c:3e:b7:13:0e:
                    cf:40:0b:e9:9d:6e:27:97:5d:e8:ac:b8:7b:94:43:
                    f2:52:8f:a9:3c:a3:4c:65:32:8a:96:7e:bc:a5:86:
                    4a:3f:5e:58:1f:df:1f:01:47:01:54:05:fd:d6:9a:
                    c7:c3:5b:c7:d8:a2:5d:2c:79:c7:8d:a0:a5:f1:2f:
                    d6:a0:ee:82:fe:78:ff:f2:12:19:63:01:10:3d:bc:
                    79:83:d9:eb:43:bc:fa:6a:1e:f8:29:89:85:eb:0e:
                    20:60:7a:9f:a8:02:54:6f:68:12:22:db:99:9a:8c:
                    e0:67:a1:67:1b:8e:7e:f8:e2:a3:e8:99:0d:cc:df:
                    df:9f
                Exponent: 65537 (0x10001)
        X509v3 extensions:
            X509v3 Basic Constraints: 
                CA:FALSE
            X509v3 Subject Key Identifier: 
                E8:2C:7F:92:A6:C1:A7:7C:F3:DF:F3:DC:E4:32:7F:C6:C9:26:F0:6E
            X509v3 Authority Key Identifier: 
                keyid:20:AA:2F:B0:B8:0A:FC:5A:8C:8C:9A:BE:A4:34:AF:6C:9F:D3:52:33
                DirName:/CN=team326-net
                serial:6F:32:D1:4C:00:D9:D2:67:6F:DD:23:42:35:B5:6C:E9:D7:FC:2A:54

            X509v3 Extended Key Usage: 
                TLS Web Server Authentication
            X509v3 Key Usage: 
                Digital Signature, Key Encipherment
            X509v3 Subject Alternative Name: 
                DNS:team326-server
    Signature Algorithm: sha256WithRSAEncryption
         d2:0f:0f:46:64:ee:aa:50:62:7c:49:ce:37:62:32:55:3d:27:
         3b:e7:2a:83:16:d2:e6:26:63:96:90:9e:e5:be:0e:74:68:df:
         91:0a:bc:18:35:f8:b0:ad:61:28:c5:2c:f2:b7:a7:24:e2:3a:
         59:9b:2a:08:d7:f7:55:f4:6a:63:1d:d7:5e:dc:eb:64:7e:3b:
         4b:e6:fb:b1:12:84:81:0f:d6:26:74:c2:5d:09:54:8d:15:9c:
         40:33:8f:eb:44:c9:7f:4e:a5:17:1d:12:75:67:18:1a:8e:c2:
         2c:3e:f2:ba:80:50:1b:bf:95:5b:4e:aa:59:ca:cd:da:ba:13:
         e4:53:94:ac:f2:ff:ad:b7:bf:d3:db:82:1e:49:f4:98:71:e6:
         66:e6:2d:ed:3d:60:10:c3:c0:bb:60:b4:a7:87:5a:09:ef:d1:
         e3:0b:58:19:6a:d1:c8:95:19:b2:fd:00:6f:52:16:5b:d4:36:
         19:14:44:c7:b6:83:8f:7f:18:92:8b:7c:24:55:ee:7a:07:1a:
         8b:54:2b:78:2b:f0:b6:f6:ba:4f:82:6a:d0:21:46:d0:4b:09:
         40:9b:8f:31:a6:4d:4e:6e:d3:79:3e:0e:34:6b:3f:40:c0:a9:
         32:7b:fe:b1:86:83:15:44:24:40:44:7d:00:80:e7:4d:53:fa:
         7b:6d:f4:59
-----BEGIN CERTIFICATE-----
MIIDeDCCAmCgAwIBAgIRAIeeqfNcrNdRuA9ZSLSBDQUwDQYJKoZIhvcNAQELBQAw
FjEUMBIGA1UEAwwLdGVhbTMyNi1uZXQwHhcNMjEwOTEzMDE0MjM1WhcNMjQwODI4
MDE0MjM1WjAZMRcwFQYDVQQDDA50ZWFtMzI2LXNlcnZlcjCCASIwDQYJKoZIhvcN
AQEBBQADggEPADCCAQoCggEBAMvfeSfsjZBLsGD5T8VA0RHmfCA+T4MmZ7Z27qQo
0FVrCR/xF3GbNXwhSLyIJcplXkrDst2k8g8EkKx9ldnOzOXCDS8vQlcivF2aIdZp
K2FJn0HjI2XuoaHpCha+cVK2jd6YwnV/ikkWUpr3BQji8Eu3vJMcU/sand882ehM
D39hJBw+txMOz0AL6Z1uJ5dd6Ky4e5RD8lKPqTyjTGUyipZ+vKWGSj9eWB/fHwFH
AVQF/daax8Nbx9iiXSx5x42gpfEv1qDugv54//ISGWMBED28eYPZ60O8+moe+CmJ
hesOIGB6n6gCVG9oEiLbmZqM4GehZxuOfvjio+iZDczf358CAwEAAaOBvTCBujAJ
BgNVHRMEAjAAMB0GA1UdDgQWBBToLH+SpsGnfPPf89zkMn/GySbwbjBRBgNVHSME
SjBIgBQgqi+wuAr8WoyMmr6kNK9sn9NSM6EapBgwFjEUMBIGA1UEAwwLdGVhbTMy
Ni1uZXSCFG8y0UwA2dJnb90jQjW1bOnX/CpUMBMGA1UdJQQMMAoGCCsGAQUFBwMB
MAsGA1UdDwQEAwIFoDAZBgNVHREEEjAQgg50ZWFtMzI2LXNlcnZlcjANBgkqhkiG
9w0BAQsFAAOCAQEA0g8PRmTuqlBifEnON2IyVT0nO+cqgxbS5iZjlpCe5b4OdGjf
kQq8GDX4sK1hKMUs8renJOI6WZsqCNf3VfRqYx3XXtzrZH47S+b7sRKEgQ/WJnTC
XQlUjRWcQDOP60TJf06lFx0SdWcYGo7CLD7yuoBQG7+VW06qWcrN2roT5FOUrPL/
rbe/09uCHkn0mHHmZuYt7T1gEMPAu2C0p4daCe/R4wtYGWrRyJUZsv0Ab1IWW9Q2
GRREx7aDj38Ykot8JFXuegcai1QreCvwtva6T4Jq0CFG0EsJQJuPMaZNTm7TeT4O
NGs/QMCpMnv+sYaDFUQkQER9AIDnTVP6e230WQ==
-----END CERTIFICATE-----
