Certificate:
    Data:
        Version: 3 (0x2)
        Serial Number:
            a0:88:62:18:6d:5b:f3:b8:c8:96:0f:3b:ec:b6:94:78
        Signature Algorithm: sha256WithRSAEncryption
        Issuer: CN=team326-net
        Validity
            Not Before: Sep 13 01:42:35 2021 GMT
            Not After : Aug 28 01:42:35 2024 GMT
        Subject: CN=team326-client
        Subject Public Key Info:
            Public Key Algorithm: rsaEncryption
                RSA Public-Key: (2048 bit)
                Modulus:
                    00:d7:a4:fe:13:17:e5:84:67:4e:09:a8:9e:04:db:
                    26:f8:e5:69:86:a1:8a:23:3c:06:a6:39:48:2a:87:
                    8f:92:1d:27:0a:7a:6b:d6:78:f2:22:5b:3f:9b:76:
                    55:36:44:75:b0:8b:a4:8b:96:50:2a:a8:3b:6b:2d:
                    ae:31:d7:f4:c6:26:8a:1c:3b:73:a4:76:d9:cd:83:
                    c2:b2:37:e0:78:88:d0:91:8a:8c:f4:c4:cc:a2:ad:
                    1d:1d:ed:71:79:f7:6c:0c:a9:87:e6:4e:5b:cb:4f:
                    44:4e:5e:d3:af:03:f2:e5:f2:4f:09:7f:c2:9c:5f:
                    26:9c:1d:97:eb:7f:a8:ab:5e:b1:e2:88:7f:a8:70:
                    74:23:97:64:ea:41:74:5e:ef:08:95:15:91:a0:6e:
                    fd:04:4d:a9:cc:92:cf:81:75:e8:64:df:ba:30:e9:
                    c7:9e:87:3a:b8:b3:a0:b7:73:bb:73:4b:94:b6:97:
                    ad:4d:7d:13:2e:36:6f:5d:dc:8b:c4:f9:59:50:e3:
                    16:60:7e:8e:48:f8:6a:c0:e8:56:78:03:d9:9c:ca:
                    a1:44:44:dd:6a:82:17:ca:6e:8a:f1:54:01:d4:2b:
                    63:33:a5:24:d6:e7:ca:24:25:83:11:78:c7:d6:7f:
                    fe:ac:f7:1a:26:f2:36:32:ff:7c:27:00:67:9a:84:
                    8c:21
                Exponent: 65537 (0x10001)
        X509v3 extensions:
            X509v3 Basic Constraints: 
                CA:FALSE
            X509v3 Subject Key Identifier: 
                9E:EA:6D:A9:15:9B:0A:C6:BC:CA:DC:CC:19:E9:77:0D:D1:F0:89:73
            X509v3 Authority Key Identifier: 
                keyid:20:AA:2F:B0:B8:0A:FC:5A:8C:8C:9A:BE:A4:34:AF:6C:9F:D3:52:33
                DirName:/CN=team326-net
                serial:6F:32:D1:4C:00:D9:D2:67:6F:DD:23:42:35:B5:6C:E9:D7:FC:2A:54

            X509v3 Extended Key Usage: 
                TLS Web Client Authentication
            X509v3 Key Usage: 
                Digital Signature
    Signature Algorithm: sha256WithRSAEncryption
         6c:ab:fb:2e:69:a2:c0:8a:3c:c8:83:fb:e1:38:9b:9f:62:cd:
         a1:c8:23:45:6c:19:a8:29:a2:44:e1:21:12:6d:ef:4e:8b:f9:
         96:b7:8b:f5:12:01:4a:21:e5:c8:75:3e:50:ac:03:64:70:72:
         46:a6:22:fe:eb:9e:4c:d5:e7:0a:46:d8:5e:d0:d4:7e:8c:ad:
         7a:85:b0:89:b0:73:dc:56:29:a7:87:6a:1f:a8:56:f7:7a:35:
         68:d4:d1:e3:14:12:20:9a:d9:87:ed:f3:d0:23:d7:fb:32:31:
         6c:02:f7:c4:72:80:e1:20:e6:7a:a0:de:a0:9c:d0:17:76:6f:
         1b:d4:74:8b:a8:82:96:ad:b7:12:bb:c7:57:2b:52:1c:fd:f2:
         cc:a5:d7:d7:aa:7d:62:ff:4d:c1:bc:60:cd:a9:d3:e8:2c:c4:
         1f:44:cf:bc:bc:be:af:57:78:c6:6b:87:7f:40:cf:64:ca:91:
         09:59:cd:3d:d1:0e:f8:61:37:b7:68:19:99:e3:67:79:d9:99:
         ad:9e:27:7d:7a:b8:80:18:9f:8f:bf:38:ea:e6:df:07:77:82:
         18:36:cb:75:b8:98:91:dc:d6:16:46:16:1f:eb:98:b5:0b:ff:
         b4:24:44:b4:5d:81:64:8f:82:c9:4f:b2:7e:41:67:8c:d6:e3:
         e3:9c:d8:dc
-----BEGIN CERTIFICATE-----
MIIDXTCCAkWgAwIBAgIRAKCIYhhtW/O4yJYPO+y2lHgwDQYJKoZIhvcNAQELBQAw
FjEUMBIGA1UEAwwLdGVhbTMyNi1uZXQwHhcNMjEwOTEzMDE0MjM1WhcNMjQwODI4
MDE0MjM1WjAZMRcwFQYDVQQDDA50ZWFtMzI2LWNsaWVudDCCASIwDQYJKoZIhvcN
AQEBBQADggEPADCCAQoCggEBANek/hMX5YRnTgmongTbJvjlaYahiiM8BqY5SCqH
j5IdJwp6a9Z48iJbP5t2VTZEdbCLpIuWUCqoO2strjHX9MYmihw7c6R22c2DwrI3
4HiI0JGKjPTEzKKtHR3tcXn3bAyph+ZOW8tPRE5e068D8uXyTwl/wpxfJpwdl+t/
qKteseKIf6hwdCOXZOpBdF7vCJUVkaBu/QRNqcySz4F16GTfujDpx56HOrizoLdz
u3NLlLaXrU19Ey42b13ci8T5WVDjFmB+jkj4asDoVngD2ZzKoURE3WqCF8puivFU
AdQrYzOlJNbnyiQlgxF4x9Z//qz3GibyNjL/fCcAZ5qEjCECAwEAAaOBojCBnzAJ
BgNVHRMEAjAAMB0GA1UdDgQWBBSe6m2pFZsKxrzK3MwZ6XcN0fCJczBRBgNVHSME
SjBIgBQgqi+wuAr8WoyMmr6kNK9sn9NSM6EapBgwFjEUMBIGA1UEAwwLdGVhbTMy
Ni1uZXSCFG8y0UwA2dJnb90jQjW1bOnX/CpUMBMGA1UdJQQMMAoGCCsGAQUFBwMC
MAsGA1UdDwQEAwIHgDANBgkqhkiG9w0BAQsFAAOCAQEAbKv7LmmiwIo8yIP74Tib
n2LNocgjRWwZqCmiROEhEm3vTov5lreL9RIBSiHlyHU+UKwDZHByRqYi/uueTNXn
CkbYXtDUfoyteoWwibBz3FYpp4dqH6hW93o1aNTR4xQSIJrZh+3z0CPX+zIxbAL3
xHKA4SDmeqDeoJzQF3ZvG9R0i6iClq23ErvHVytSHP3yzKXX16p9Yv9NwbxgzanT
6CzEH0TPvLy+r1d4xmuHf0DPZMqRCVnNPdEO+GE3t2gZmeNnedmZrZ4nfXq4gBif
j7846ubfB3eCGDbLdbiYkdzWFkYWH+uYtQv/tCREtF2BZI+CyU+yfkFnjNbj45zY
3A==
-----END CERTIFICATE-----
