Certificate:
    Data:
        Version: 3 (0x2)
        Serial Number:
            9d:29:50:5a:f0:ee:c3:bc:af:b0:5c:26:f5:a6:72:ce
        Signature Algorithm: sha256WithRSAEncryption
        Issuer: CN=team357-net
        Validity
            Not Before: Sep 13 02:00:34 2021 GMT
            Not After : Aug 28 02:00:34 2024 GMT
        Subject: CN=team357-client
        Subject Public Key Info:
            Public Key Algorithm: rsaEncryption
                RSA Public-Key: (2048 bit)
                Modulus:
                    00:d8:68:a1:4d:b3:08:8a:e5:92:06:ee:5f:5a:7d:
                    fc:5d:34:0c:57:d9:79:78:92:2c:d3:4c:92:1f:79:
                    55:98:51:c9:f5:d6:6d:38:c2:b3:ad:8f:a6:db:c3:
                    8c:52:94:c1:41:a1:2a:fe:13:4b:03:db:b0:d2:6f:
                    e6:38:90:91:a7:23:da:55:a4:cc:ce:56:f6:8a:11:
                    5e:f7:b9:09:fc:60:b1:81:0c:bf:2e:da:6b:df:68:
                    0b:45:74:c4:b8:21:24:a9:77:14:dd:6b:97:07:12:
                    9c:04:08:39:0b:1e:5c:af:06:e1:f6:c2:d8:33:1b:
                    9a:2e:ff:b5:c0:9d:57:56:d1:c1:49:05:4c:ae:f9:
                    36:5c:49:26:8b:42:4a:92:33:b7:a4:78:c2:f8:64:
                    a7:5d:4f:f1:ef:7f:5a:e7:1c:9b:40:71:cd:d8:90:
                    39:10:63:bc:a6:58:fe:76:b0:c4:34:6a:d3:5c:76:
                    d2:b2:85:75:bc:d9:f0:7e:52:52:15:b1:02:16:c4:
                    26:4c:e7:b4:89:33:52:7f:f5:d3:16:d6:60:ff:1a:
                    f8:b8:a7:f6:65:c0:29:74:7c:6b:4c:c9:c4:90:ed:
                    08:99:0f:36:fe:e9:00:5b:e3:03:8d:04:c0:e8:63:
                    e1:a1:65:96:a6:1b:40:53:db:fb:23:18:50:ae:38:
                    c7:29
                Exponent: 65537 (0x10001)
        X509v3 extensions:
            X509v3 Basic Constraints: 
                CA:FALSE
            X509v3 Subject Key Identifier: 
                AB:8E:4C:C8:55:FE:0E:39:69:46:48:E8:0A:BB:39:FF:2A:A1:0D:83
            X509v3 Authority Key Identifier: 
                keyid:68:5A:37:FB:D8:80:2C:2B:9B:ED:E7:FC:41:ED:77:89:98:C4:EC:0B
                DirName:/CN=team357-net
                serial:47:BF:E3:0D:F9:5A:2E:E3:98:6C:4F:29:68:60:C1:F2:D1:22:A0:1A

            X509v3 Extended Key Usage: 
                TLS Web Client Authentication
            X509v3 Key Usage: 
                Digital Signature
    Signature Algorithm: sha256WithRSAEncryption
         18:d3:3a:14:af:db:29:d1:7c:fc:26:b0:04:7d:f4:ca:a1:d2:
         3f:ae:e8:99:df:bd:76:15:d8:e6:0f:01:8b:c0:18:4f:89:1c:
         af:b2:80:e3:27:3e:79:ae:4c:5e:23:3c:da:10:c3:f5:0a:7b:
         b5:3e:f6:73:1f:58:0f:5b:c0:08:b2:2d:a6:81:ac:b8:24:64:
         ce:33:f2:46:8e:6b:6b:65:d7:6d:8b:83:f6:77:2f:a9:91:b9:
         cc:b8:c1:c7:0b:49:76:4f:b6:83:e9:6f:d7:71:a8:86:24:dd:
         f9:c5:bb:71:cd:c5:db:c4:30:83:90:03:90:92:81:f3:79:59:
         be:49:15:4b:bf:98:2b:19:ed:66:f1:8e:73:d2:d6:dd:c7:e0:
         c5:8f:2f:89:96:f3:e2:c9:2a:ad:d9:1d:47:12:8c:82:5d:df:
         94:ef:46:35:a4:d2:fb:2f:68:1c:80:2a:03:1e:a3:3e:86:13:
         89:ed:cc:4e:b5:23:2a:0d:59:11:34:e1:7e:f6:e3:3c:39:88:
         81:9d:8c:36:e1:a1:0c:3d:31:77:25:d4:5f:85:2b:97:e8:03:
         dc:8f:2f:31:d5:c1:d6:eb:03:f6:98:09:fa:a8:e0:59:d1:b8:
         2c:cd:75:e3:5b:2c:df:e7:ce:2e:13:42:af:d0:bb:4d:cf:c0:
         32:38:0d:9b
-----BEGIN CERTIFICATE-----
MIIDXTCCAkWgAwIBAgIRAJ0pUFrw7sO8r7BcJvWmcs4wDQYJKoZIhvcNAQELBQAw
FjEUMBIGA1UEAwwLdGVhbTM1Ny1uZXQwHhcNMjEwOTEzMDIwMDM0WhcNMjQwODI4
MDIwMDM0WjAZMRcwFQYDVQQDDA50ZWFtMzU3LWNsaWVudDCCASIwDQYJKoZIhvcN
AQEBBQADggEPADCCAQoCggEBANhooU2zCIrlkgbuX1p9/F00DFfZeXiSLNNMkh95
VZhRyfXWbTjCs62PptvDjFKUwUGhKv4TSwPbsNJv5jiQkacj2lWkzM5W9ooRXve5
CfxgsYEMvy7aa99oC0V0xLghJKl3FN1rlwcSnAQIOQseXK8G4fbC2DMbmi7/tcCd
V1bRwUkFTK75NlxJJotCSpIzt6R4wvhkp11P8e9/Wuccm0BxzdiQORBjvKZY/naw
xDRq01x20rKFdbzZ8H5SUhWxAhbEJkzntIkzUn/10xbWYP8a+Lin9mXAKXR8a0zJ
xJDtCJkPNv7pAFvjA40EwOhj4aFllqYbQFPb+yMYUK44xykCAwEAAaOBojCBnzAJ
BgNVHRMEAjAAMB0GA1UdDgQWBBSrjkzIVf4OOWlGSOgKuzn/KqENgzBRBgNVHSME
SjBIgBRoWjf72IAsK5vt5/xB7XeJmMTsC6EapBgwFjEUMBIGA1UEAwwLdGVhbTM1
Ny1uZXSCFEe/4w35Wi7jmGxPKWhgwfLRIqAaMBMGA1UdJQQMMAoGCCsGAQUFBwMC
MAsGA1UdDwQEAwIHgDANBgkqhkiG9w0BAQsFAAOCAQEAGNM6FK/bKdF8/CawBH30
yqHSP67omd+9dhXY5g8Bi8AYT4kcr7KA4yc+ea5MXiM82hDD9Qp7tT72cx9YD1vA
CLItpoGsuCRkzjPyRo5ra2XXbYuD9ncvqZG5zLjBxwtJdk+2g+lv13GohiTd+cW7
cc3F28Qwg5ADkJKB83lZvkkVS7+YKxntZvGOc9LW3cfgxY8viZbz4skqrdkdRxKM
gl3flO9GNaTS+y9oHIAqAx6jPoYTie3MTrUjKg1ZETThfvbjPDmIgZ2MNuGhDD0x
dyXUX4Url+gD3I8vMdXB1usD9pgJ+qjgWdG4LM1141ss3+fOLhNCr9C7Tc/AMjgN
mw==
-----END CERTIFICATE-----
