Certificate:
    Data:
        Version: 3 (0x2)
        Serial Number:
            ac:ef:b6:1f:be:4f:bb:19:99:ea:bc:80:da:cc:16:c5
        Signature Algorithm: sha256WithRSAEncryption
        Issuer: CN=team40-net
        Validity
            Not Before: Sep 12 23:03:59 2021 GMT
            Not After : Aug 27 23:03:59 2024 GMT
        Subject: CN=team40-client
        Subject Public Key Info:
            Public Key Algorithm: rsaEncryption
                RSA Public-Key: (2048 bit)
                Modulus:
                    00:e7:ea:44:21:cf:02:68:37:32:97:40:f9:f3:32:
                    99:2a:56:e7:73:91:1c:7d:1c:98:bf:c9:9a:b2:b8:
                    fc:02:12:0e:a0:58:52:97:0d:24:54:fb:f8:1c:98:
                    18:dc:75:a6:66:32:85:f4:24:67:1c:ba:43:36:e4:
                    f4:6f:70:6c:a3:03:de:4d:0c:d1:47:81:16:a9:7c:
                    5e:de:d2:f0:46:7a:17:72:b3:2f:35:6a:22:1b:40:
                    25:f6:ae:cb:7d:b9:37:a7:6a:66:d5:4c:82:9b:6f:
                    46:3d:7c:3c:cb:67:4f:68:d1:ad:0b:92:cd:5c:b9:
                    7d:11:a5:25:b2:35:8a:eb:7a:96:1f:9a:58:da:12:
                    ff:72:bf:c4:8c:b8:c9:bc:83:dc:ec:20:6f:7c:a4:
                    96:77:1e:28:ac:f5:cf:94:4f:79:8b:a6:02:af:0b:
                    9c:f5:2e:07:61:05:40:10:af:af:da:95:0c:5f:43:
                    69:cf:83:91:6f:31:0d:19:63:67:1a:b7:a9:6d:98:
                    61:60:5a:ae:1c:00:e9:b3:42:1e:98:fa:22:30:8a:
                    8d:33:b7:c1:96:fe:71:34:b6:ed:b6:9b:d1:fc:bb:
                    ea:d9:32:e0:3b:87:f4:3e:f0:4c:02:bf:71:51:95:
                    78:6a:44:84:af:76:53:0a:11:e1:cc:a1:fa:96:57:
                    05:15
                Exponent: 65537 (0x10001)
        X509v3 extensions:
            X509v3 Basic Constraints: 
                CA:FALSE
            X509v3 Subject Key Identifier: 
                B3:B4:E5:61:4B:6A:5D:73:E9:26:F0:E2:A7:AD:57:BE:22:F2:A4:CA
            X509v3 Authority Key Identifier: 
                keyid:FA:95:E3:F2:BA:9D:3B:12:11:25:4A:16:89:47:63:BF:CF:37:79:22
                DirName:/CN=team40-net
                serial:5B:4C:76:2C:8D:03:96:01:A4:35:C7:7E:B6:7C:55:CA:43:7A:81:12

            X509v3 Extended Key Usage: 
                TLS Web Client Authentication
            X509v3 Key Usage: 
                Digital Signature
    Signature Algorithm: sha256WithRSAEncryption
         35:5e:8e:98:6b:92:6a:b5:04:57:7e:01:62:fb:9e:96:df:6d:
         cf:9c:08:da:19:61:15:f5:6a:6d:bb:91:81:2a:f0:0c:f0:b4:
         7c:59:4a:02:68:6a:55:0d:8a:a4:86:4c:2e:37:c4:6b:fa:c9:
         fb:29:63:61:ab:43:33:5a:12:89:a1:dc:14:56:64:b9:b9:5e:
         e0:b8:67:59:b4:ea:da:04:43:a8:02:17:9d:52:67:7d:c2:0c:
         11:87:4a:b7:ac:61:65:a4:2a:df:9a:e5:44:e2:34:bd:94:bf:
         8b:b9:ef:8b:06:be:8e:a9:a1:43:df:ff:10:bf:f3:c4:3f:5b:
         32:f5:4f:73:9f:e1:4b:26:81:ca:2f:e7:da:b5:14:31:b0:40:
         cb:fc:c1:b2:39:b6:ed:eb:22:e0:9a:15:77:35:e5:01:d8:6d:
         6a:74:d3:ad:88:5b:22:17:56:cd:19:c5:de:0b:4b:65:74:37:
         61:97:33:b9:26:19:7b:e5:f0:53:6f:d3:bf:f7:49:40:6a:06:
         59:37:d0:98:2b:d7:44:39:a4:a7:ab:31:3c:dc:98:4c:de:a0:
         b2:18:d4:31:70:8d:b0:c3:60:6b:92:f1:f6:36:24:6e:91:3f:
         a9:e7:b6:6a:c0:81:56:16:ee:4e:f1:97:2f:ed:e1:ce:1f:9c:
         47:60:a6:34
-----BEGIN CERTIFICATE-----
MIIDWjCCAkKgAwIBAgIRAKzvth++T7sZmeq8gNrMFsUwDQYJKoZIhvcNAQELBQAw
FTETMBEGA1UEAwwKdGVhbTQwLW5ldDAeFw0yMTA5MTIyMzAzNTlaFw0yNDA4Mjcy
MzAzNTlaMBgxFjAUBgNVBAMMDXRlYW00MC1jbGllbnQwggEiMA0GCSqGSIb3DQEB
AQUAA4IBDwAwggEKAoIBAQDn6kQhzwJoNzKXQPnzMpkqVudzkRx9HJi/yZqyuPwC
Eg6gWFKXDSRU+/gcmBjcdaZmMoX0JGccukM25PRvcGyjA95NDNFHgRapfF7e0vBG
ehdysy81aiIbQCX2rst9uTenambVTIKbb0Y9fDzLZ09o0a0Lks1cuX0RpSWyNYrr
epYfmljaEv9yv8SMuMm8g9zsIG98pJZ3Hiis9c+UT3mLpgKvC5z1LgdhBUAQr6/a
lQxfQ2nPg5FvMQ0ZY2cat6ltmGFgWq4cAOmzQh6Y+iIwio0zt8GW/nE0tu22m9H8
u+rZMuA7h/Q+8EwCv3FRlXhqRISvdlMKEeHMofqWVwUVAgMBAAGjgaEwgZ4wCQYD
VR0TBAIwADAdBgNVHQ4EFgQUs7TlYUtqXXPpJvDip61XviLypMowUAYDVR0jBEkw
R4AU+pXj8rqdOxIRJUoWiUdjv883eSKhGaQXMBUxEzARBgNVBAMMCnRlYW00MC1u
ZXSCFFtMdiyNA5YBpDXHfrZ8VcpDeoESMBMGA1UdJQQMMAoGCCsGAQUFBwMCMAsG
A1UdDwQEAwIHgDANBgkqhkiG9w0BAQsFAAOCAQEANV6OmGuSarUEV34BYvuelt9t
z5wI2hlhFfVqbbuRgSrwDPC0fFlKAmhqVQ2KpIZMLjfEa/rJ+yljYatDM1oSiaHc
FFZkuble4LhnWbTq2gRDqAIXnVJnfcIMEYdKt6xhZaQq35rlROI0vZS/i7nviwa+
jqmhQ9//EL/zxD9bMvVPc5/hSyaByi/n2rUUMbBAy/zBsjm27esi4JoVdzXlAdht
anTTrYhbIhdWzRnF3gtLZXQ3YZczuSYZe+XwU2/Tv/dJQGoGWTfQmCvXRDmkp6sx
PNyYTN6gshjUMXCNsMNga5Lx9jYkbpE/qee2asCBVhbuTvGXL+3hzh+cR2CmNA==
-----END CERTIFICATE-----
