Certificate:
    Data:
        Version: 3 (0x2)
        Serial Number:
            d3:73:c9:7d:a2:41:21:4b:42:b7:89:96:80:28:4c:f2
        Signature Algorithm: sha256WithRSAEncryption
        Issuer: CN=team40-net
        Validity
            Not Before: Sep 12 23:03:59 2021 GMT
            Not After : Aug 27 23:03:59 2024 GMT
        Subject: CN=team40-server
        Subject Public Key Info:
            Public Key Algorithm: rsaEncryption
                RSA Public-Key: (2048 bit)
                Modulus:
                    00:b3:07:d7:46:08:38:6e:9c:e9:83:ed:bb:51:e5:
                    4d:2b:1d:26:0a:69:0a:d9:b0:48:87:2c:b3:52:66:
                    31:68:94:4a:f5:fc:00:34:1e:3e:70:da:9e:45:ae:
                    e6:6c:16:0d:ac:f1:3b:f2:20:66:f7:e1:3d:78:22:
                    91:aa:db:ea:0e:44:08:ed:1c:02:ad:09:ad:ce:03:
                    fd:55:16:ea:94:ef:fc:88:b2:ef:d6:21:4e:4c:1f:
                    0c:33:d5:ae:59:cd:0d:27:36:36:f3:3e:ba:85:bc:
                    1c:97:3b:7a:7a:48:cd:c5:d3:79:4f:27:7d:36:d7:
                    13:89:ff:64:5e:18:01:ce:64:35:6f:2a:c8:96:98:
                    01:4d:42:17:c1:79:52:2d:cf:34:de:d2:7f:84:28:
                    86:5d:da:af:d2:51:70:39:96:b4:2b:2c:a6:dc:73:
                    27:48:b0:2b:3b:8c:54:26:5f:26:66:e8:fa:d1:01:
                    9e:c2:3b:ae:6b:4a:35:fb:2c:07:b3:71:f8:b7:da:
                    90:19:98:66:8d:bb:b1:ed:eb:9e:92:c1:85:9f:cf:
                    a8:e9:19:95:df:e7:a2:a2:56:18:95:d9:21:be:ed:
                    ec:06:38:3d:75:b6:9a:b2:b7:00:58:01:b9:83:56:
                    0a:ef:a8:a7:1b:61:6f:c8:88:ff:51:c1:47:f0:c6:
                    80:bb
                Exponent: 65537 (0x10001)
        X509v3 extensions:
            X509v3 Basic Constraints: 
                CA:FALSE
            X509v3 Subject Key Identifier: 
                1E:30:4A:DA:80:4A:FF:E9:C3:FF:39:FC:AA:47:C8:EB:17:C1:63:3F
            X509v3 Authority Key Identifier: 
                keyid:FA:95:E3:F2:BA:9D:3B:12:11:25:4A:16:89:47:63:BF:CF:37:79:22
                DirName:/CN=team40-net
                serial:5B:4C:76:2C:8D:03:96:01:A4:35:C7:7E:B6:7C:55:CA:43:7A:81:12

            X509v3 Extended Key Usage: 
                TLS Web Server Authentication
            X509v3 Key Usage: 
                Digital Signature, Key Encipherment
            X509v3 Subject Alternative Name: 
                DNS:team40-server
    Signature Algorithm: sha256WithRSAEncryption
         50:e1:6d:d7:ed:ac:4a:57:e1:20:ea:20:6a:5d:be:56:53:6d:
         ae:de:27:ba:90:c1:a4:bb:87:dd:ba:34:23:c3:ab:07:53:83:
         75:71:01:bb:46:32:2b:96:9e:88:aa:07:e7:18:9a:bf:00:d6:
         75:1f:8e:fa:5b:91:ae:16:1b:50:b1:4e:20:58:bb:53:0d:cb:
         1b:4e:48:af:71:f5:52:32:7a:ca:85:5e:f3:f7:4c:fb:b3:6a:
         70:2a:4d:5a:7c:a9:fe:df:87:45:de:29:45:81:f4:d5:53:db:
         64:0b:12:ce:05:4d:ac:98:76:96:7b:bf:34:5c:57:c3:65:fa:
         b6:56:6f:ba:94:0e:38:db:bb:e9:73:99:96:a0:68:55:85:f0:
         76:7e:b0:56:58:52:9a:27:c0:7a:da:1b:96:1c:61:2f:b8:5f:
         6c:55:ee:97:9f:22:b5:71:c9:2a:c9:0c:46:51:11:ef:9e:6a:
         8b:c2:71:83:45:b7:cd:cf:4d:fe:82:55:ea:7e:06:12:7d:9c:
         94:79:a1:36:45:ec:14:56:a8:ab:45:95:86:54:89:52:ac:77:
         c1:71:d7:c0:ba:ca:b9:fa:79:af:e2:ec:4e:1f:b3:74:43:7d:
         83:84:53:a4:3b:16:73:ff:f1:46:c9:44:18:d4:0c:53:76:01:
         2d:da:02:e2
-----BEGIN CERTIFICATE-----
MIIDdDCCAlygAwIBAgIRANNzyX2iQSFLQreJloAoTPIwDQYJKoZIhvcNAQELBQAw
FTETMBEGA1UEAwwKdGVhbTQwLW5ldDAeFw0yMTA5MTIyMzAzNTlaFw0yNDA4Mjcy
MzAzNTlaMBgxFjAUBgNVBAMMDXRlYW00MC1zZXJ2ZXIwggEiMA0GCSqGSIb3DQEB
AQUAA4IBDwAwggEKAoIBAQCzB9dGCDhunOmD7btR5U0rHSYKaQrZsEiHLLNSZjFo
lEr1/AA0Hj5w2p5FruZsFg2s8TvyIGb34T14IpGq2+oORAjtHAKtCa3OA/1VFuqU
7/yIsu/WIU5MHwwz1a5ZzQ0nNjbzPrqFvByXO3p6SM3F03lPJ3021xOJ/2ReGAHO
ZDVvKsiWmAFNQhfBeVItzzTe0n+EKIZd2q/SUXA5lrQrLKbccydIsCs7jFQmXyZm
6PrRAZ7CO65rSjX7LAezcfi32pAZmGaNu7Ht656SwYWfz6jpGZXf56KiVhiV2SG+
7ewGOD11tpqytwBYAbmDVgrvqKcbYW/IiP9RwUfwxoC7AgMBAAGjgbswgbgwCQYD
VR0TBAIwADAdBgNVHQ4EFgQUHjBK2oBK/+nD/zn8qkfI6xfBYz8wUAYDVR0jBEkw
R4AU+pXj8rqdOxIRJUoWiUdjv883eSKhGaQXMBUxEzARBgNVBAMMCnRlYW00MC1u
ZXSCFFtMdiyNA5YBpDXHfrZ8VcpDeoESMBMGA1UdJQQMMAoGCCsGAQUFBwMBMAsG
A1UdDwQEAwIFoDAYBgNVHREEETAPgg10ZWFtNDAtc2VydmVyMA0GCSqGSIb3DQEB
CwUAA4IBAQBQ4W3X7axKV+Eg6iBqXb5WU22u3ie6kMGku4fdujQjw6sHU4N1cQG7
RjIrlp6IqgfnGJq/ANZ1H476W5GuFhtQsU4gWLtTDcsbTkivcfVSMnrKhV7z90z7
s2pwKk1afKn+34dF3ilFgfTVU9tkCxLOBU2smHaWe780XFfDZfq2Vm+6lA4427vp
c5mWoGhVhfB2frBWWFKaJ8B62huWHGEvuF9sVe6XnyK1cckqyQxGURHvnmqLwnGD
RbfNz03+glXqfgYSfZyUeaE2RewUVqirRZWGVIlSrHfBcdfAusq5+nmv4uxOH7N0
Q32DhFOkOxZz//FGyUQY1AxTdgEt2gLi
-----END CERTIFICATE-----
