Certificate:
    Data:
        Version: 3 (0x2)
        Serial Number:
            76:c2:a8:71:2b:ea:d5:5a:d1:83:26:c8:05:5c:43:c2
        Signature Algorithm: sha256WithRSAEncryption
        Issuer: CN=team394-net
        Validity
            Not Before: Sep 13 02:19:23 2021 GMT
            Not After : Aug 28 02:19:23 2024 GMT
        Subject: CN=team394-client
        Subject Public Key Info:
            Public Key Algorithm: rsaEncryption
                RSA Public-Key: (2048 bit)
                Modulus:
                    00:e6:b2:5a:60:f0:ba:91:74:08:64:75:0f:8d:ad:
                    85:47:63:6b:81:b7:12:2d:28:3a:96:eb:de:1d:00:
                    e5:76:c7:e6:91:5f:32:b8:78:6d:d0:8e:36:cb:6d:
                    da:f3:42:00:e8:ac:53:83:b8:65:8f:a3:b7:5c:f0:
                    e1:d0:35:96:41:e8:ed:c7:d6:63:b1:21:30:ff:fd:
                    30:25:f5:31:aa:13:dc:44:5b:5b:9a:c8:3c:7f:b0:
                    ad:28:f9:30:27:fd:f8:dd:80:26:6a:13:4d:4a:0a:
                    63:af:e1:18:75:0f:d3:87:90:d4:ba:4e:8e:94:89:
                    58:1c:60:98:9d:b4:1d:c0:ff:e7:55:43:65:7a:30:
                    16:c7:13:6b:d3:c2:7d:13:48:0a:74:f4:1c:09:57:
                    a8:bc:2a:fb:ff:58:77:94:01:8e:3b:5b:a4:6d:ed:
                    de:4f:45:7e:be:5e:b7:ea:7f:b9:54:12:76:ec:d9:
                    df:59:57:6e:34:d9:ec:58:88:83:9d:0f:60:ab:f3:
                    a1:77:4f:c9:8b:be:3e:e0:cf:e4:da:7e:36:a5:ad:
                    ec:44:31:40:d7:1c:62:09:42:06:7c:d1:2b:20:e1:
                    68:c2:3b:e8:de:a1:f6:31:2f:12:2b:0c:0f:9a:65:
                    49:52:02:c6:f3:7c:f3:46:a8:99:42:3d:1b:da:cf:
                    e3:21
                Exponent: 65537 (0x10001)
        X509v3 extensions:
            X509v3 Basic Constraints: 
                CA:FALSE
            X509v3 Subject Key Identifier: 
                F0:3A:A4:E9:FC:1F:1F:70:4A:EF:28:E2:D7:FB:FB:A6:7B:21:54:65
            X509v3 Authority Key Identifier: 
                keyid:4E:18:2D:F5:49:29:AD:83:52:39:7A:59:CE:B6:26:49:A3:68:70:8B
                DirName:/CN=team394-net
                serial:1F:B6:FA:A9:36:75:F2:76:DD:F7:76:DE:EE:C7:23:F2:81:80:B1:0C

            X509v3 Extended Key Usage: 
                TLS Web Client Authentication
            X509v3 Key Usage: 
                Digital Signature
    Signature Algorithm: sha256WithRSAEncryption
         79:22:68:2d:13:54:21:db:64:93:f7:33:c6:09:dd:a7:07:c8:
         48:ba:39:ea:81:19:6c:65:36:d0:dc:3d:bd:95:2f:20:f3:49:
         16:97:08:58:e3:ae:c9:50:df:97:7c:ef:17:b2:d4:56:d6:66:
         71:db:ff:8f:c6:b3:c8:00:56:cb:a0:48:b1:b3:ca:64:73:69:
         e6:97:ac:d1:26:17:3b:98:61:55:4b:85:7b:0d:d4:62:83:6f:
         b7:21:fa:5d:22:21:27:ca:20:94:7a:c9:8b:15:f8:a9:11:75:
         fe:ad:6e:bf:ef:b0:24:5e:6c:d1:b6:c8:c5:80:9c:12:10:93:
         69:4d:95:46:b3:58:d8:64:b6:3a:be:33:c6:75:9c:cd:f0:d9:
         a5:8a:69:36:b6:45:66:49:4b:c7:7a:9a:98:08:f1:5a:5d:2c:
         a0:bf:a6:29:e0:8a:ef:d2:95:6e:93:dd:59:54:5f:fa:b2:e2:
         c4:33:47:21:db:e8:31:ce:d8:f6:1f:16:2b:12:43:d7:51:27:
         84:d4:54:5e:81:f4:89:73:39:67:8a:71:75:5a:00:9c:9a:bc:
         9f:12:ed:82:aa:02:31:43:b2:2e:5b:c9:8d:00:40:46:76:fe:
         ef:ba:b5:e9:9e:ed:4b:95:06:23:f6:8b:75:91:c7:72:35:13:
         8a:78:65:51
-----BEGIN CERTIFICATE-----
MIIDXDCCAkSgAwIBAgIQdsKocSvq1VrRgybIBVxDwjANBgkqhkiG9w0BAQsFADAW
MRQwEgYDVQQDDAt0ZWFtMzk0LW5ldDAeFw0yMTA5MTMwMjE5MjNaFw0yNDA4Mjgw
MjE5MjNaMBkxFzAVBgNVBAMMDnRlYW0zOTQtY2xpZW50MIIBIjANBgkqhkiG9w0B
AQEFAAOCAQ8AMIIBCgKCAQEA5rJaYPC6kXQIZHUPja2FR2NrgbcSLSg6luveHQDl
dsfmkV8yuHht0I42y23a80IA6KxTg7hlj6O3XPDh0DWWQejtx9ZjsSEw//0wJfUx
qhPcRFtbmsg8f7CtKPkwJ/343YAmahNNSgpjr+EYdQ/Th5DUuk6OlIlYHGCYnbQd
wP/nVUNlejAWxxNr08J9E0gKdPQcCVeovCr7/1h3lAGOO1ukbe3eT0V+vl636n+5
VBJ27NnfWVduNNnsWIiDnQ9gq/Ohd0/Ji74+4M/k2n42pa3sRDFA1xxiCUIGfNEr
IOFowjvo3qH2MS8SKwwPmmVJUgLG83zzRqiZQj0b2s/jIQIDAQABo4GiMIGfMAkG
A1UdEwQCMAAwHQYDVR0OBBYEFPA6pOn8Hx9wSu8o4tf7+6Z7IVRlMFEGA1UdIwRK
MEiAFE4YLfVJKa2DUjl6Wc62JkmjaHCLoRqkGDAWMRQwEgYDVQQDDAt0ZWFtMzk0
LW5ldIIUH7b6qTZ18nbd93be7scj8oGAsQwwEwYDVR0lBAwwCgYIKwYBBQUHAwIw
CwYDVR0PBAQDAgeAMA0GCSqGSIb3DQEBCwUAA4IBAQB5ImgtE1Qh22ST9zPGCd2n
B8hIujnqgRlsZTbQ3D29lS8g80kWlwhY467JUN+XfO8XstRW1mZx2/+PxrPIAFbL
oEixs8pkc2nml6zRJhc7mGFVS4V7DdRig2+3IfpdIiEnyiCUesmLFfipEXX+rW6/
77AkXmzRtsjFgJwSEJNpTZVGs1jYZLY6vjPGdZzN8Nmlimk2tkVmSUvHepqYCPFa
XSygv6Yp4Irv0pVuk91ZVF/6suLEM0ch2+gxztj2HxYrEkPXUSeE1FRegfSJczln
inF1WgCcmryfEu2CqgIxQ7IuW8mNAEBGdv7vurXpnu1LlQYj9ot1kcdyNROKeGVR
-----END CERTIFICATE-----
