Certificate:
    Data:
        Version: 3 (0x2)
        Serial Number:
            f5:db:66:5f:ac:de:ce:2e:2a:aa:0f:12:6f:c6:7e:e2
        Signature Algorithm: sha256WithRSAEncryption
        Issuer: CN=team219-net
        Validity
            Not Before: Sep 13 00:45:37 2021 GMT
            Not After : Aug 28 00:45:37 2024 GMT
        Subject: CN=team219-server
        Subject Public Key Info:
            Public Key Algorithm: rsaEncryption
                RSA Public-Key: (2048 bit)
                Modulus:
                    00:e8:bd:bf:85:32:b5:cc:82:c5:36:0e:49:6c:b8:
                    64:6f:52:1c:ce:6b:b2:76:04:50:8e:64:55:05:dd:
                    6c:4f:1e:d6:99:34:91:4d:eb:67:3d:9a:1c:ca:79:
                    1c:ba:d3:9c:50:51:5b:67:32:d7:d4:1f:e0:45:36:
                    d8:f4:e2:a6:74:5e:e5:e8:30:56:aa:e4:f1:66:6d:
                    97:00:2e:f8:66:46:55:5b:cf:84:84:68:f1:c7:01:
                    7c:51:a2:26:b9:eb:fa:38:8d:1f:d6:22:dc:09:96:
                    4a:2e:4b:54:03:64:bd:c3:f6:42:3f:d9:b2:32:13:
                    e9:0c:1d:d7:06:75:a6:17:20:38:36:f1:c5:34:b2:
                    69:6d:5a:e8:8c:77:e7:87:40:cc:4a:ca:02:5b:31:
                    dc:f4:6a:e4:49:ef:3a:6d:f4:4c:52:00:6f:c0:39:
                    4f:31:dc:58:6e:17:e6:fc:61:b9:2a:9f:b4:a0:c5:
                    25:51:84:80:89:4e:38:b8:fd:6e:7c:a4:fd:59:01:
                    0a:2a:1c:39:91:f1:0a:70:11:3e:a4:dc:82:a7:89:
                    22:51:0a:1c:47:b2:bd:26:89:de:37:69:8b:08:1c:
                    42:35:b1:c3:e5:a8:aa:27:96:1d:30:10:29:fa:6c:
                    81:82:ac:de:cb:34:a4:c7:43:c2:06:d3:52:12:75:
                    b5:5b
                Exponent: 65537 (0x10001)
        X509v3 extensions:
            X509v3 Basic Constraints: 
                CA:FALSE
            X509v3 Subject Key Identifier: 
                0D:8A:A0:27:36:7C:70:79:B5:7A:7B:A1:BE:BB:F5:9F:6B:32:26:C1
            X509v3 Authority Key Identifier: 
                keyid:3C:2A:0A:06:06:3D:6A:48:E4:E1:FC:D5:1B:9C:C7:C6:18:73:5C:2B
                DirName:/CN=team219-net
                serial:5F:F2:22:73:DF:71:E5:6F:DF:1F:00:21:E9:41:2E:FE:E7:0E:33:E1

            X509v3 Extended Key Usage: 
                TLS Web Server Authentication
            X509v3 Key Usage: 
                Digital Signature, Key Encipherment
            X509v3 Subject Alternative Name: 
                DNS:team219-server
    Signature Algorithm: sha256WithRSAEncryption
         3a:90:9c:4d:08:02:16:2e:08:25:a0:79:35:2f:12:fe:42:a8:
         69:61:d1:df:d1:4c:73:9c:ea:b0:74:1a:46:61:bf:ff:5b:c0:
         8f:11:18:4c:fe:81:4e:74:d0:b7:a4:5e:1c:7c:b4:f7:59:11:
         2e:5a:b4:17:d0:d9:3e:0d:4b:b9:96:27:b4:20:ff:5f:df:64:
         de:c0:36:f5:37:cb:d2:0a:a8:e7:b5:98:05:37:8e:e2:b0:f9:
         da:49:95:ef:53:83:87:ba:81:62:02:5f:c7:8e:11:d9:ce:9e:
         b9:71:44:e8:0c:1c:4a:5c:10:01:3e:d9:5f:ec:64:17:bf:6c:
         d0:3f:42:f8:ac:52:d3:d9:87:af:a1:32:a7:00:61:df:fe:10:
         88:ed:21:a3:c9:b5:68:0c:d0:c1:da:ab:a1:e9:e2:30:66:bb:
         e3:47:54:71:ef:95:6b:07:eb:f1:31:6a:f8:60:48:a3:50:18:
         64:93:5a:a4:52:90:7d:57:83:8c:d8:ed:72:87:75:68:ee:b8:
         a7:8e:34:b0:90:96:93:65:6a:d7:4c:3d:09:e8:b0:11:10:c5:
         cc:d0:6e:fb:eb:96:66:ab:0a:42:4b:25:43:38:59:fc:da:3d:
         6b:ab:cb:9e:8e:04:81:60:6e:e7:9c:72:ac:79:fe:5b:ee:df:
         23:61:d5:da
-----BEGIN CERTIFICATE-----
MIIDeDCCAmCgAwIBAgIRAPXbZl+s3s4uKqoPEm/GfuIwDQYJKoZIhvcNAQELBQAw
FjEUMBIGA1UEAwwLdGVhbTIxOS1uZXQwHhcNMjEwOTEzMDA0NTM3WhcNMjQwODI4
MDA0NTM3WjAZMRcwFQYDVQQDDA50ZWFtMjE5LXNlcnZlcjCCASIwDQYJKoZIhvcN
AQEBBQADggEPADCCAQoCggEBAOi9v4UytcyCxTYOSWy4ZG9SHM5rsnYEUI5kVQXd
bE8e1pk0kU3rZz2aHMp5HLrTnFBRW2cy19Qf4EU22PTipnRe5egwVqrk8WZtlwAu
+GZGVVvPhIRo8ccBfFGiJrnr+jiNH9Yi3AmWSi5LVANkvcP2Qj/ZsjIT6Qwd1wZ1
phcgODbxxTSyaW1a6Ix354dAzErKAlsx3PRq5EnvOm30TFIAb8A5TzHcWG4X5vxh
uSqftKDFJVGEgIlOOLj9bnyk/VkBCiocOZHxCnARPqTcgqeJIlEKHEeyvSaJ3jdp
iwgcQjWxw+WoqieWHTAQKfpsgYKs3ss0pMdDwgbTUhJ1tVsCAwEAAaOBvTCBujAJ
BgNVHRMEAjAAMB0GA1UdDgQWBBQNiqAnNnxwebV6e6G+u/WfazImwTBRBgNVHSME
SjBIgBQ8KgoGBj1qSOTh/NUbnMfGGHNcK6EapBgwFjEUMBIGA1UEAwwLdGVhbTIx
OS1uZXSCFF/yInPfceVv3x8AIelBLv7nDjPhMBMGA1UdJQQMMAoGCCsGAQUFBwMB
MAsGA1UdDwQEAwIFoDAZBgNVHREEEjAQgg50ZWFtMjE5LXNlcnZlcjANBgkqhkiG
9w0BAQsFAAOCAQEAOpCcTQgCFi4IJaB5NS8S/kKoaWHR39FMc5zqsHQaRmG//1vA
jxEYTP6BTnTQt6ReHHy091kRLlq0F9DZPg1LuZYntCD/X99k3sA29TfL0gqo57WY
BTeO4rD52kmV71ODh7qBYgJfx44R2c6euXFE6AwcSlwQAT7ZX+xkF79s0D9C+KxS
09mHr6EypwBh3/4QiO0ho8m1aAzQwdqroeniMGa740dUce+Vawfr8TFq+GBIo1AY
ZJNapFKQfVeDjNjtcod1aO64p440sJCWk2Vq10w9CeiwERDFzNBu++uWZqsKQksl
QzhZ/No9a6vLno4EgWBu55xyrHn+W+7fI2HV2g==
-----END CERTIFICATE-----
