Certificate:
    Data:
        Version: 3 (0x2)
        Serial Number:
            37:8b:b6:48:77:9a:1f:c0:42:ac:4c:3c:9d:1a:ce:79
        Signature Algorithm: sha256WithRSAEncryption
        Issuer: CN=team219-net
        Validity
            Not Before: Sep 13 00:45:37 2021 GMT
            Not After : Aug 28 00:45:37 2024 GMT
        Subject: CN=team219-client
        Subject Public Key Info:
            Public Key Algorithm: rsaEncryption
                RSA Public-Key: (2048 bit)
                Modulus:
                    00:ba:f1:d5:cf:24:f3:f4:93:71:e1:e4:b4:e0:19:
                    29:12:a5:47:53:18:d2:23:bc:8c:87:1e:d9:60:69:
                    0d:3b:f6:a3:9b:bd:e5:a5:04:93:e2:42:cf:10:c2:
                    d7:86:38:d6:ef:98:79:ef:d9:1b:64:5d:64:90:91:
                    28:55:e3:e3:3f:c0:6f:70:47:98:2c:02:00:48:76:
                    37:c8:ff:20:e6:cb:32:66:e4:5d:86:2a:58:4f:b3:
                    68:35:a1:6c:09:ef:33:2e:01:55:8b:8a:19:17:d8:
                    b1:70:3d:78:b9:71:d4:74:eb:b9:3f:3e:45:2c:d8:
                    f1:f3:13:cd:73:1f:be:41:2b:55:05:f4:44:fa:a1:
                    39:19:65:d2:80:9c:3e:97:df:9b:47:4c:a7:4d:f7:
                    32:d0:4d:53:34:c4:8e:d3:4a:f7:3a:1d:ff:27:6b:
                    4b:82:31:e5:22:b9:2d:d9:f4:c8:85:a4:56:07:dc:
                    50:c7:15:cf:9e:c5:c1:16:06:f6:5b:0c:09:67:c5:
                    0d:2a:c6:32:df:b3:f9:e4:99:86:d0:db:ad:f8:d7:
                    88:68:7c:4e:81:9a:d5:26:3f:3a:c6:9b:bc:88:f0:
                    d6:86:33:0e:05:e7:c0:d0:18:a4:32:07:39:f0:6c:
                    e1:3b:85:a4:57:9e:3b:cd:10:48:7a:36:0d:87:72:
                    50:65
                Exponent: 65537 (0x10001)
        X509v3 extensions:
            X509v3 Basic Constraints: 
                CA:FALSE
            X509v3 Subject Key Identifier: 
                DA:B0:CF:57:47:F3:2F:3A:1B:F6:3A:3A:46:43:AC:19:CA:9D:FD:44
            X509v3 Authority Key Identifier: 
                keyid:3C:2A:0A:06:06:3D:6A:48:E4:E1:FC:D5:1B:9C:C7:C6:18:73:5C:2B
                DirName:/CN=team219-net
                serial:5F:F2:22:73:DF:71:E5:6F:DF:1F:00:21:E9:41:2E:FE:E7:0E:33:E1

            X509v3 Extended Key Usage: 
                TLS Web Client Authentication
            X509v3 Key Usage: 
                Digital Signature
    Signature Algorithm: sha256WithRSAEncryption
         52:fd:dd:b2:42:aa:57:c4:b5:fe:df:2e:9b:d2:98:26:f8:d8:
         b5:00:49:5b:c9:76:80:a4:a1:bb:ec:96:6c:03:0f:f1:87:6e:
         be:0e:5b:6f:0d:c5:22:79:6e:38:2c:3b:42:d7:99:40:41:82:
         96:b1:c6:f8:8a:40:ef:cc:12:e3:c4:b7:af:59:6c:90:6b:11:
         f4:1a:8c:44:e3:57:1f:74:3f:bf:a5:7d:79:92:32:ff:00:9a:
         ff:70:1a:83:4c:b7:1e:4a:31:a7:e9:51:0a:9d:4c:b1:4e:5b:
         41:57:0d:a3:2e:64:30:5a:45:93:8b:de:06:c6:80:5f:d9:c5:
         b6:c3:74:83:b1:23:ba:ec:45:96:25:bb:b1:d8:61:00:84:45:
         9e:5a:a7:7d:2a:d2:01:cf:2a:c9:78:0b:4b:ad:72:3b:ae:70:
         a8:74:4b:10:10:99:de:64:2a:ec:b6:33:36:98:a9:5b:3a:1a:
         05:f6:03:92:c0:b0:e5:9a:90:13:ce:2e:82:10:df:e5:34:2d:
         ba:d9:c1:61:76:3a:fc:57:64:c5:a8:dc:78:5e:16:75:59:9d:
         8c:14:80:eb:94:3d:7f:8c:40:69:97:6c:a2:ab:70:de:47:6b:
         1f:af:cf:2b:d3:20:a2:af:78:93:7d:52:3e:4e:d7:84:04:36:
         ea:b4:7c:fd
-----BEGIN CERTIFICATE-----
MIIDXDCCAkSgAwIBAgIQN4u2SHeaH8BCrEw8nRrOeTANBgkqhkiG9w0BAQsFADAW
MRQwEgYDVQQDDAt0ZWFtMjE5LW5ldDAeFw0yMTA5MTMwMDQ1MzdaFw0yNDA4Mjgw
MDQ1MzdaMBkxFzAVBgNVBAMMDnRlYW0yMTktY2xpZW50MIIBIjANBgkqhkiG9w0B
AQEFAAOCAQ8AMIIBCgKCAQEAuvHVzyTz9JNx4eS04BkpEqVHUxjSI7yMhx7ZYGkN
O/ajm73lpQST4kLPEMLXhjjW75h579kbZF1kkJEoVePjP8BvcEeYLAIASHY3yP8g
5ssyZuRdhipYT7NoNaFsCe8zLgFVi4oZF9ixcD14uXHUdOu5Pz5FLNjx8xPNcx++
QStVBfRE+qE5GWXSgJw+l9+bR0ynTfcy0E1TNMSO00r3Oh3/J2tLgjHlIrkt2fTI
haRWB9xQxxXPnsXBFgb2WwwJZ8UNKsYy37P55JmG0Nut+NeIaHxOgZrVJj86xpu8
iPDWhjMOBefA0BikMgc58GzhO4WkV547zRBIejYNh3JQZQIDAQABo4GiMIGfMAkG
A1UdEwQCMAAwHQYDVR0OBBYEFNqwz1dH8y86G/Y6OkZDrBnKnf1EMFEGA1UdIwRK
MEiAFDwqCgYGPWpI5OH81Rucx8YYc1wroRqkGDAWMRQwEgYDVQQDDAt0ZWFtMjE5
LW5ldIIUX/Iic99x5W/fHwAh6UEu/ucOM+EwEwYDVR0lBAwwCgYIKwYBBQUHAwIw
CwYDVR0PBAQDAgeAMA0GCSqGSIb3DQEBCwUAA4IBAQBS/d2yQqpXxLX+3y6b0pgm
+Ni1AElbyXaApKG77JZsAw/xh26+DltvDcUieW44LDtC15lAQYKWscb4ikDvzBLj
xLevWWyQaxH0GoxE41cfdD+/pX15kjL/AJr/cBqDTLceSjGn6VEKnUyxTltBVw2j
LmQwWkWTi94GxoBf2cW2w3SDsSO67EWWJbux2GEAhEWeWqd9KtIBzyrJeAtLrXI7
rnCodEsQEJneZCrstjM2mKlbOhoF9gOSwLDlmpATzi6CEN/lNC262cFhdjr8V2TF
qNx4XhZ1WZ2MFIDrlD1/jEBpl2yiq3DeR2sfr88r0yCir3iTfVI+TteEBDbqtHz9
-----END CERTIFICATE-----
