Certificate:
    Data:
        Version: 3 (0x2)
        Serial Number:
            6e:9b:f3:f1:f3:33:34:62:71:39:85:01:34:20:72:a6
        Signature Algorithm: sha256WithRSAEncryption
        Issuer: CN=team684-net
        Validity
            Not Before: Sep 13 05:11:24 2021 GMT
            Not After : Aug 28 05:11:24 2024 GMT
        Subject: CN=team684-server
        Subject Public Key Info:
            Public Key Algorithm: rsaEncryption
                RSA Public-Key: (2048 bit)
                Modulus:
                    00:a3:80:51:8d:72:ea:04:ee:80:00:49:22:21:37:
                    2e:e3:4d:10:6a:ce:62:5c:71:d9:47:16:35:57:e7:
                    c9:f1:f9:fc:9a:d8:24:66:d9:8b:43:55:4d:5d:a4:
                    fb:ee:ba:56:e5:75:36:23:33:4e:6c:1f:71:13:6b:
                    44:32:f9:a8:11:d1:97:15:9e:4d:88:06:76:fe:c3:
                    51:89:01:e5:0c:17:f3:ed:98:1d:04:e1:d4:86:13:
                    b3:1c:4e:9f:ac:d8:8b:3d:56:44:d8:c7:37:0b:9d:
                    00:f9:b4:9b:0f:e8:97:82:e7:73:40:6f:0b:41:c7:
                    8c:0a:ca:ef:ba:9d:72:fd:c1:45:ea:d1:91:47:75:
                    1f:e8:ea:02:56:44:6a:93:e9:28:9e:11:c7:1f:b4:
                    92:32:c6:2f:af:f6:97:d3:f5:71:0f:69:5d:a3:0f:
                    df:04:78:2a:be:0a:24:ca:aa:86:ce:3a:a3:4a:ca:
                    2f:39:dd:ff:7b:18:f4:a9:4f:dc:8e:dd:32:85:73:
                    d9:2e:ee:22:ad:d0:35:ae:3a:6d:f8:a0:1e:eb:ce:
                    00:61:80:fb:5d:6c:21:dc:80:fc:57:24:e3:1a:ae:
                    66:91:3a:46:e9:d3:55:8c:46:36:7d:77:55:93:7b:
                    1f:b5:89:5e:a2:ca:07:a6:2a:dd:cc:63:e2:78:bd:
                    2f:1f
                Exponent: 65537 (0x10001)
        X509v3 extensions:
            X509v3 Basic Constraints: 
                CA:FALSE
            X509v3 Subject Key Identifier: 
                A3:AD:FA:71:90:2B:BE:9D:FC:BB:17:CB:16:61:8F:C3:12:73:AF:E9
            X509v3 Authority Key Identifier: 
                keyid:94:05:F6:AF:74:12:7C:1F:53:BB:6F:9E:E4:11:2C:C0:CF:2A:39:28
                DirName:/CN=team684-net
                serial:31:82:95:0E:B4:43:D1:7C:9C:7E:D9:0D:9F:74:69:D3:1A:FE:4E:F4

            X509v3 Extended Key Usage: 
                TLS Web Server Authentication
            X509v3 Key Usage: 
                Digital Signature, Key Encipherment
            X509v3 Subject Alternative Name: 
                DNS:team684-server
    Signature Algorithm: sha256WithRSAEncryption
         08:64:9e:e2:ff:6d:f3:c9:e7:0a:91:f8:26:e2:cf:1d:7a:27:
         3a:4f:09:41:67:9a:50:f7:f6:24:76:1e:54:2e:4a:33:c0:8e:
         20:5a:c0:40:41:d9:b0:b4:ce:11:43:9a:df:84:41:cc:b5:83:
         cb:16:a2:0b:c8:18:91:9e:3b:bb:62:90:db:6f:6c:8f:7c:c2:
         35:e3:2f:ec:a5:bb:62:86:22:93:64:c9:46:5e:db:57:29:ed:
         df:73:c0:23:46:3d:3d:b0:98:29:9c:37:ca:e8:03:5b:1a:3e:
         c1:3a:45:2a:9d:92:35:ca:59:11:4c:0a:ad:a0:a2:70:0e:94:
         ed:de:5e:6c:8c:16:88:0f:a1:18:7e:35:b4:f3:8d:fc:02:60:
         01:68:53:d8:ad:d4:7b:20:8d:07:85:dd:1e:5e:22:c2:05:cd:
         14:21:c1:d3:29:77:d2:d6:45:0b:6e:21:fd:7a:a4:6f:e0:bd:
         f1:2f:8d:5f:00:ce:b2:f7:36:e0:a5:c2:ce:3d:25:36:c9:1f:
         44:43:d9:a4:d7:e5:c5:7d:80:32:33:c5:91:09:25:fe:74:55:
         f3:ad:37:a0:31:90:b3:0a:e4:84:3d:fe:b8:d2:6b:3f:22:11:
         9d:43:13:c7:a0:fb:fe:81:bb:32:e8:9a:4a:ad:c5:92:4d:7c:
         aa:90:df:9c
-----BEGIN CERTIFICATE-----
MIIDdzCCAl+gAwIBAgIQbpvz8fMzNGJxOYUBNCBypjANBgkqhkiG9w0BAQsFADAW
MRQwEgYDVQQDDAt0ZWFtNjg0LW5ldDAeFw0yMTA5MTMwNTExMjRaFw0yNDA4Mjgw
NTExMjRaMBkxFzAVBgNVBAMMDnRlYW02ODQtc2VydmVyMIIBIjANBgkqhkiG9w0B
AQEFAAOCAQ8AMIIBCgKCAQEAo4BRjXLqBO6AAEkiITcu400Qas5iXHHZRxY1V+fJ
8fn8mtgkZtmLQ1VNXaT77rpW5XU2IzNObB9xE2tEMvmoEdGXFZ5NiAZ2/sNRiQHl
DBfz7ZgdBOHUhhOzHE6frNiLPVZE2Mc3C50A+bSbD+iXgudzQG8LQceMCsrvup1y
/cFF6tGRR3Uf6OoCVkRqk+konhHHH7SSMsYvr/aX0/VxD2ldow/fBHgqvgokyqqG
zjqjSsovOd3/exj0qU/cjt0yhXPZLu4irdA1rjpt+KAe684AYYD7XWwh3ID8VyTj
Gq5mkTpG6dNVjEY2fXdVk3sftYleosoHpirdzGPieL0vHwIDAQABo4G9MIG6MAkG
A1UdEwQCMAAwHQYDVR0OBBYEFKOt+nGQK76d/LsXyxZhj8MSc6/pMFEGA1UdIwRK
MEiAFJQF9q90EnwfU7tvnuQRLMDPKjkooRqkGDAWMRQwEgYDVQQDDAt0ZWFtNjg0
LW5ldIIUMYKVDrRD0XycftkNn3Rp0xr+TvQwEwYDVR0lBAwwCgYIKwYBBQUHAwEw
CwYDVR0PBAQDAgWgMBkGA1UdEQQSMBCCDnRlYW02ODQtc2VydmVyMA0GCSqGSIb3
DQEBCwUAA4IBAQAIZJ7i/23zyecKkfgm4s8deic6TwlBZ5pQ9/Ykdh5ULkozwI4g
WsBAQdmwtM4RQ5rfhEHMtYPLFqILyBiRnju7YpDbb2yPfMI14y/spbtihiKTZMlG
XttXKe3fc8AjRj09sJgpnDfK6ANbGj7BOkUqnZI1ylkRTAqtoKJwDpTt3l5sjBaI
D6EYfjW08438AmABaFPYrdR7II0Hhd0eXiLCBc0UIcHTKXfS1kULbiH9eqRv4L3x
L41fAM6y9zbgpcLOPSU2yR9EQ9mk1+XFfYAyM8WRCSX+dFXzrTegMZCzCuSEPf64
0ms/IhGdQxPHoPv+gbsy6JpKrcWSTXyqkN+c
-----END CERTIFICATE-----
