Certificate:
    Data:
        Version: 3 (0x2)
        Serial Number:
            f8:eb:9b:af:8d:b3:0c:17:d2:14:76:ba:bd:2c:a6:ac
        Signature Algorithm: sha256WithRSAEncryption
        Issuer: CN=team684-net
        Validity
            Not Before: Sep 13 05:11:24 2021 GMT
            Not After : Aug 28 05:11:24 2024 GMT
        Subject: CN=team684-client
        Subject Public Key Info:
            Public Key Algorithm: rsaEncryption
                RSA Public-Key: (2048 bit)
                Modulus:
                    00:e2:74:ec:3d:0c:2f:83:d7:7d:aa:56:16:1b:09:
                    d1:fb:f4:9e:de:c4:f9:b0:ef:b2:43:67:ca:3b:2e:
                    19:9e:ab:3b:f2:ab:4f:f0:f8:25:04:e1:20:bd:33:
                    a7:37:be:00:16:6f:10:1d:7e:a9:43:bf:27:8b:75:
                    51:39:3a:dd:f8:85:99:f9:1b:b8:df:00:5c:f0:2b:
                    46:0b:de:5d:54:67:e0:3e:01:ea:e4:e9:7a:da:40:
                    b4:96:0e:db:1a:c1:5e:d9:c7:73:b5:9c:7d:b4:64:
                    e5:06:81:a3:60:c8:cc:8b:2f:8e:24:9f:cc:29:42:
                    5f:6f:97:f9:77:cf:c1:ad:41:ff:0c:9b:8d:b3:13:
                    1d:f2:7e:5b:6f:a5:73:08:26:3a:5a:06:e1:e7:7c:
                    9e:0a:95:a6:9b:57:88:4c:ac:6c:1f:77:06:ca:63:
                    fa:44:eb:8a:be:5c:c0:ae:72:25:7c:29:2a:2d:ba:
                    8b:5d:09:36:37:e1:7b:37:ce:98:22:7e:78:e5:52:
                    58:73:06:26:fb:a6:28:54:dd:0c:93:04:48:58:4f:
                    37:5a:87:1d:9a:e0:25:9a:f7:b6:34:10:1d:ed:09:
                    77:30:a3:35:d0:f1:4d:91:13:4c:ed:4a:e6:03:01:
                    ed:a9:11:61:1c:0c:fb:8a:25:40:40:6e:0d:af:b6:
                    27:d7
                Exponent: 65537 (0x10001)
        X509v3 extensions:
            X509v3 Basic Constraints: 
                CA:FALSE
            X509v3 Subject Key Identifier: 
                39:F5:6A:0C:CA:72:DD:9C:77:CC:6C:18:3F:AD:F4:F8:F5:2C:64:A5
            X509v3 Authority Key Identifier: 
                keyid:94:05:F6:AF:74:12:7C:1F:53:BB:6F:9E:E4:11:2C:C0:CF:2A:39:28
                DirName:/CN=team684-net
                serial:31:82:95:0E:B4:43:D1:7C:9C:7E:D9:0D:9F:74:69:D3:1A:FE:4E:F4

            X509v3 Extended Key Usage: 
                TLS Web Client Authentication
            X509v3 Key Usage: 
                Digital Signature
    Signature Algorithm: sha256WithRSAEncryption
         77:6e:0d:37:c1:39:2f:c6:6b:4f:59:ed:1c:96:5d:7d:45:10:
         3b:d2:f5:3d:c5:2a:39:47:41:08:02:0b:91:15:d9:8e:da:4e:
         42:67:1d:66:03:b4:53:50:9b:27:2a:5e:56:91:3b:a7:d9:5d:
         ab:96:28:8c:77:75:bb:5d:df:81:0e:12:0e:8d:f4:5e:7c:bc:
         e3:c8:54:bb:2d:f0:94:16:ba:18:6a:37:dd:7b:46:77:07:36:
         15:22:b5:3d:a2:1b:f5:36:95:13:be:ab:ca:f7:3d:06:85:23:
         3c:0f:b4:77:8f:e4:c1:27:7b:38:58:3b:28:9c:5a:6e:b5:53:
         c8:90:2b:5c:71:3e:35:42:38:ea:ce:a1:f8:42:d8:ec:1a:9c:
         94:16:2b:83:3e:0e:7d:fd:28:05:d5:05:c6:9e:99:a1:95:15:
         fb:97:ca:f6:b0:c2:d2:4c:21:83:0d:1a:1d:46:62:27:10:96:
         78:cc:ad:00:02:cd:ef:8f:44:f8:5f:a4:59:2c:0d:0d:47:b8:
         df:7e:c4:c7:dd:6c:e1:78:c8:3f:63:dc:51:3b:bb:13:34:fc:
         04:ca:15:a0:04:f4:8b:95:34:58:0f:a6:a5:b6:c8:06:b0:37:
         78:41:d7:d7:f1:1e:57:c8:28:a4:2e:02:68:f7:3f:f6:73:18:
         ac:13:49:4d
-----BEGIN CERTIFICATE-----
MIIDXTCCAkWgAwIBAgIRAPjrm6+NswwX0hR2ur0spqwwDQYJKoZIhvcNAQELBQAw
FjEUMBIGA1UEAwwLdGVhbTY4NC1uZXQwHhcNMjEwOTEzMDUxMTI0WhcNMjQwODI4
MDUxMTI0WjAZMRcwFQYDVQQDDA50ZWFtNjg0LWNsaWVudDCCASIwDQYJKoZIhvcN
AQEBBQADggEPADCCAQoCggEBAOJ07D0ML4PXfapWFhsJ0fv0nt7E+bDvskNnyjsu
GZ6rO/KrT/D4JQThIL0zpze+ABZvEB1+qUO/J4t1UTk63fiFmfkbuN8AXPArRgve
XVRn4D4B6uTpetpAtJYO2xrBXtnHc7WcfbRk5QaBo2DIzIsvjiSfzClCX2+X+XfP
wa1B/wybjbMTHfJ+W2+lcwgmOloG4ed8ngqVpptXiEysbB93Bspj+kTrir5cwK5y
JXwpKi26i10JNjfhezfOmCJ+eOVSWHMGJvumKFTdDJMESFhPN1qHHZrgJZr3tjQQ
He0JdzCjNdDxTZETTO1K5gMB7akRYRwM+4olQEBuDa+2J9cCAwEAAaOBojCBnzAJ
BgNVHRMEAjAAMB0GA1UdDgQWBBQ59WoMynLdnHfMbBg/rfT49SxkpTBRBgNVHSME
SjBIgBSUBfavdBJ8H1O7b57kESzAzyo5KKEapBgwFjEUMBIGA1UEAwwLdGVhbTY4
NC1uZXSCFDGClQ60Q9F8nH7ZDZ90adMa/k70MBMGA1UdJQQMMAoGCCsGAQUFBwMC
MAsGA1UdDwQEAwIHgDANBgkqhkiG9w0BAQsFAAOCAQEAd24NN8E5L8ZrT1ntHJZd
fUUQO9L1PcUqOUdBCAILkRXZjtpOQmcdZgO0U1CbJypeVpE7p9ldq5YojHd1u13f
gQ4SDo30Xny848hUuy3wlBa6GGo33XtGdwc2FSK1PaIb9TaVE76ryvc9BoUjPA+0
d4/kwSd7OFg7KJxabrVTyJArXHE+NUI46s6h+ELY7BqclBYrgz4Off0oBdUFxp6Z
oZUV+5fK9rDC0kwhgw0aHUZiJxCWeMytAALN749E+F+kWSwNDUe4337Ex91s4XjI
P2PcUTu7EzT8BMoVoAT0i5U0WA+mpbbIBrA3eEHX1/EeV8gopC4CaPc/9nMYrBNJ
TQ==
-----END CERTIFICATE-----
