Certificate:
    Data:
        Version: 3 (0x2)
        Serial Number:
            ec:a3:f7:b8:84:44:50:4a:ab:02:42:9b:41:ac:66:d2
        Signature Algorithm: sha256WithRSAEncryption
        Issuer: CN=team215-net
        Validity
            Not Before: Sep 13 00:44:34 2021 GMT
            Not After : Aug 28 00:44:34 2024 GMT
        Subject: CN=team215-server
        Subject Public Key Info:
            Public Key Algorithm: rsaEncryption
                RSA Public-Key: (2048 bit)
                Modulus:
                    00:f3:96:37:65:d3:29:ab:a7:87:5a:ed:87:9c:24:
                    d2:b7:e5:1c:d9:37:bb:c8:d5:29:34:ed:26:f3:d7:
                    9f:72:66:7d:fd:b0:48:84:66:03:c6:3e:1d:c3:90:
                    03:5f:3e:34:2d:f5:fb:f9:4b:e5:f6:65:a2:db:89:
                    6c:3a:37:6f:df:5f:43:ec:84:c9:1b:87:ba:e7:a2:
                    8d:1f:12:7e:57:5c:5d:16:6a:cd:8f:70:f6:0f:9e:
                    de:b3:83:7c:40:14:be:a7:6b:22:a8:5f:fb:5a:be:
                    25:2a:8c:8a:04:ab:f4:38:62:eb:62:60:23:ba:5d:
                    a5:7c:b3:d6:66:4e:d0:ef:7e:10:79:17:8d:b3:a3:
                    7b:ee:da:04:a3:a8:66:56:24:5e:03:a5:7b:41:81:
                    16:ff:57:e9:6f:ab:93:3c:39:b7:e0:17:ea:ea:15:
                    4e:d9:06:29:81:35:69:81:d7:40:6e:98:6b:5b:0f:
                    a3:62:85:39:12:80:b6:4d:ae:fd:8a:51:89:7f:ca:
                    32:08:5a:78:93:a3:25:4e:a9:9d:f9:90:f0:16:a3:
                    3f:87:91:da:78:cf:6c:7b:0c:b9:76:3d:95:0a:7f:
                    a5:01:83:b1:ce:e1:73:e9:5c:07:0a:f8:b4:e9:d8:
                    ab:8c:29:dd:49:e0:4a:9b:1f:b5:d2:1e:d3:77:31:
                    d0:4d
                Exponent: 65537 (0x10001)
        X509v3 extensions:
            X509v3 Basic Constraints: 
                CA:FALSE
            X509v3 Subject Key Identifier: 
                0C:E1:B9:FB:80:A1:81:A5:1D:0E:BE:4E:08:D6:27:B8:F5:16:82:FC
            X509v3 Authority Key Identifier: 
                keyid:76:EF:56:D8:34:F1:4B:C0:8D:B1:9F:ED:CB:2B:73:2D:22:FA:53:63
                DirName:/CN=team215-net
                serial:7C:D0:99:96:16:2C:0F:77:48:0E:BF:A8:C4:63:F5:7E:01:05:E2:16

            X509v3 Extended Key Usage: 
                TLS Web Server Authentication
            X509v3 Key Usage: 
                Digital Signature, Key Encipherment
            X509v3 Subject Alternative Name: 
                DNS:team215-server
    Signature Algorithm: sha256WithRSAEncryption
         07:fc:10:ed:32:b9:60:cd:22:e1:4f:cc:4f:6c:5e:dd:7f:60:
         9d:f7:1d:55:df:90:8f:90:fe:53:2f:03:f6:e4:5b:38:b8:f2:
         fc:02:e3:ca:c2:1b:cd:f3:68:ef:b7:dd:c2:35:87:4f:7a:81:
         34:cc:a7:1c:2c:23:ce:92:67:5c:00:a5:25:42:b5:48:52:0a:
         1f:ce:19:48:81:37:ed:62:97:74:0c:84:fe:ad:c7:6b:34:89:
         41:b9:26:40:67:d1:a4:e4:d1:c4:87:b6:24:33:d8:cd:0b:f8:
         59:79:32:83:5a:4b:3a:9f:b9:94:f8:3d:80:78:bc:5f:a6:bf:
         07:e8:1a:74:08:6b:71:33:e2:33:ec:ba:f5:a0:90:92:7e:d9:
         03:3d:94:d1:a2:73:23:b2:0c:e6:42:c2:30:a8:c1:3c:a7:ec:
         ac:05:a2:6e:0f:a6:2f:bf:fb:12:c7:d4:f9:ba:af:cd:b1:7f:
         92:4e:f5:9d:d7:42:e5:4c:52:c1:54:58:91:61:43:92:c3:9a:
         c7:e4:3f:9a:e7:67:e7:d3:98:34:7a:20:89:47:d7:f6:0e:e2:
         03:cb:ff:2e:60:49:e2:ba:66:ec:9e:89:09:a0:f4:22:0d:37:
         ac:17:09:19:18:aa:50:0d:c9:fd:a6:1a:39:fd:02:ca:6a:17:
         b7:52:ee:66
-----BEGIN CERTIFICATE-----
MIIDeDCCAmCgAwIBAgIRAOyj97iERFBKqwJCm0GsZtIwDQYJKoZIhvcNAQELBQAw
FjEUMBIGA1UEAwwLdGVhbTIxNS1uZXQwHhcNMjEwOTEzMDA0NDM0WhcNMjQwODI4
MDA0NDM0WjAZMRcwFQYDVQQDDA50ZWFtMjE1LXNlcnZlcjCCASIwDQYJKoZIhvcN
AQEBBQADggEPADCCAQoCggEBAPOWN2XTKaunh1rth5wk0rflHNk3u8jVKTTtJvPX
n3Jmff2wSIRmA8Y+HcOQA18+NC31+/lL5fZlotuJbDo3b99fQ+yEyRuHuueijR8S
fldcXRZqzY9w9g+e3rODfEAUvqdrIqhf+1q+JSqMigSr9Dhi62JgI7pdpXyz1mZO
0O9+EHkXjbOje+7aBKOoZlYkXgOle0GBFv9X6W+rkzw5t+AX6uoVTtkGKYE1aYHX
QG6Ya1sPo2KFORKAtk2u/YpRiX/KMghaeJOjJU6pnfmQ8BajP4eR2njPbHsMuXY9
lQp/pQGDsc7hc+lcBwr4tOnYq4wp3UngSpsftdIe03cx0E0CAwEAAaOBvTCBujAJ
BgNVHRMEAjAAMB0GA1UdDgQWBBQM4bn7gKGBpR0Ovk4I1ie49RaC/DBRBgNVHSME
SjBIgBR271bYNPFLwI2xn+3LK3MtIvpTY6EapBgwFjEUMBIGA1UEAwwLdGVhbTIx
NS1uZXSCFHzQmZYWLA93SA6/qMRj9X4BBeIWMBMGA1UdJQQMMAoGCCsGAQUFBwMB
MAsGA1UdDwQEAwIFoDAZBgNVHREEEjAQgg50ZWFtMjE1LXNlcnZlcjANBgkqhkiG
9w0BAQsFAAOCAQEAB/wQ7TK5YM0i4U/MT2xe3X9gnfcdVd+Qj5D+Uy8D9uRbOLjy
/ALjysIbzfNo77fdwjWHT3qBNMynHCwjzpJnXAClJUK1SFIKH84ZSIE37WKXdAyE
/q3HazSJQbkmQGfRpOTRxIe2JDPYzQv4WXkyg1pLOp+5lPg9gHi8X6a/B+gadAhr
cTPiM+y69aCQkn7ZAz2U0aJzI7IM5kLCMKjBPKfsrAWibg+mL7/7EsfU+bqvzbF/
kk71nddC5UxSwVRYkWFDksOax+Q/mudn59OYNHogiUfX9g7iA8v/LmBJ4rpm7J6J
CaD0Ig03rBcJGRiqUA3J/aYaOf0CymoXt1LuZg==
-----END CERTIFICATE-----
