Certificate:
    Data:
        Version: 3 (0x2)
        Serial Number:
            11:11:5a:18:d3:5b:3a:07:4d:44:8f:e0:ce:ae:99:4a
        Signature Algorithm: sha256WithRSAEncryption
        Issuer: CN=team179-net
        Validity
            Not Before: Sep 13 00:29:08 2021 GMT
            Not After : Aug 28 00:29:08 2024 GMT
        Subject: CN=team179-client
        Subject Public Key Info:
            Public Key Algorithm: rsaEncryption
                RSA Public-Key: (2048 bit)
                Modulus:
                    00:fe:29:3b:15:9a:6b:86:3c:07:c0:ef:b0:f4:26:
                    cb:1c:48:e1:cc:6c:07:40:2b:b3:fc:92:65:20:fa:
                    d6:d2:01:89:37:9d:70:1c:88:3c:95:c8:28:76:b3:
                    e0:03:00:da:f4:9d:d0:8e:a6:b8:38:7d:81:b0:6b:
                    8b:51:27:94:5f:c6:c4:8d:68:a9:ac:ed:02:47:69:
                    17:d2:dd:80:03:5e:a0:07:16:f8:b6:96:3c:24:c1:
                    63:a2:9d:69:6e:3b:b7:fd:38:b3:32:86:91:4f:e6:
                    5e:9e:a8:b4:59:69:4d:51:11:51:23:b0:df:88:cb:
                    2a:31:78:66:d1:0b:43:06:67:95:f7:d7:14:e9:04:
                    e1:88:e2:11:9c:61:1e:13:24:e9:80:39:84:8e:57:
                    08:47:ec:bd:ef:0b:ea:80:d0:4a:2d:3d:09:b3:91:
                    68:1b:1b:a6:a6:65:76:a0:62:fa:f6:83:d3:d0:84:
                    a3:b8:80:02:90:87:cd:d2:30:64:d0:73:f2:27:53:
                    d3:7a:6d:02:fe:f8:10:f3:d3:5b:ae:1c:95:59:55:
                    bf:d1:36:64:07:91:33:b3:c6:ee:77:78:7e:80:ce:
                    62:7e:00:57:bf:68:02:57:89:9a:de:27:bb:93:88:
                    a8:7d:17:c6:d9:73:3f:93:8c:8f:c8:a7:af:c6:40:
                    1d:ed
                Exponent: 65537 (0x10001)
        X509v3 extensions:
            X509v3 Basic Constraints: 
                CA:FALSE
            X509v3 Subject Key Identifier: 
                2A:B6:86:C3:AE:C7:68:EE:23:37:82:59:55:FB:72:67:97:19:E6:1C
            X509v3 Authority Key Identifier: 
                keyid:BF:48:F6:57:60:84:3E:B1:91:17:A2:F1:1C:F5:D6:23:14:27:5B:F1
                DirName:/CN=team179-net
                serial:2B:AE:52:54:3C:F4:4F:F5:A9:47:6C:6E:C5:8F:BC:35:07:68:65:1B

            X509v3 Extended Key Usage: 
                TLS Web Client Authentication
            X509v3 Key Usage: 
                Digital Signature
    Signature Algorithm: sha256WithRSAEncryption
         1e:ef:b9:0a:0a:6f:c6:dd:50:d0:ab:03:da:ec:8c:bd:2d:25:
         c9:f3:70:3c:ee:05:7a:ac:f1:d4:fc:ab:98:a8:29:12:43:06:
         53:92:17:28:a3:ec:02:7e:48:71:8a:91:28:a0:2c:83:5a:0e:
         e4:03:e4:c6:fc:4d:d0:96:a3:15:53:53:5a:e8:3d:a1:65:0e:
         04:34:8b:e9:3c:00:21:f8:e5:9f:35:e7:cd:dc:fe:ee:3a:a3:
         07:77:c4:c7:54:e3:76:61:75:45:cf:e6:29:0f:62:de:df:cc:
         4d:e0:31:28:52:6d:d3:e5:58:4f:10:e5:60:14:18:26:72:c6:
         78:41:45:e9:52:05:4e:e8:a6:72:87:17:a2:b4:f0:81:84:33:
         84:af:b8:cd:d9:da:9a:15:a2:c3:d1:bf:86:83:dd:59:a0:a9:
         4c:c6:38:a6:ab:39:0e:82:86:a1:6f:17:22:e0:8e:10:ef:b1:
         ef:ec:27:f9:23:59:d0:b5:13:56:5a:68:90:09:ca:0a:74:10:
         e6:dd:91:79:54:40:fb:56:d0:83:bf:bb:e0:ad:4f:c0:3a:a4:
         60:0b:66:ae:de:a4:05:78:c1:c6:8d:4f:2c:c2:8b:64:8b:43:
         f3:6c:e2:76:44:9b:23:65:20:d7:84:1a:33:23:3d:d6:92:f7:
         a6:44:73:a2
-----BEGIN CERTIFICATE-----
MIIDXDCCAkSgAwIBAgIQERFaGNNbOgdNRI/gzq6ZSjANBgkqhkiG9w0BAQsFADAW
MRQwEgYDVQQDDAt0ZWFtMTc5LW5ldDAeFw0yMTA5MTMwMDI5MDhaFw0yNDA4Mjgw
MDI5MDhaMBkxFzAVBgNVBAMMDnRlYW0xNzktY2xpZW50MIIBIjANBgkqhkiG9w0B
AQEFAAOCAQ8AMIIBCgKCAQEA/ik7FZprhjwHwO+w9CbLHEjhzGwHQCuz/JJlIPrW
0gGJN51wHIg8lcgodrPgAwDa9J3Qjqa4OH2BsGuLUSeUX8bEjWiprO0CR2kX0t2A
A16gBxb4tpY8JMFjop1pbju3/TizMoaRT+Zenqi0WWlNURFRI7DfiMsqMXhm0QtD
BmeV99cU6QThiOIRnGEeEyTpgDmEjlcIR+y97wvqgNBKLT0Js5FoGxumpmV2oGL6
9oPT0ISjuIACkIfN0jBk0HPyJ1PTem0C/vgQ89NbrhyVWVW/0TZkB5Ezs8bud3h+
gM5ifgBXv2gCV4ma3ie7k4iofRfG2XM/k4yPyKevxkAd7QIDAQABo4GiMIGfMAkG
A1UdEwQCMAAwHQYDVR0OBBYEFCq2hsOux2juIzeCWVX7cmeXGeYcMFEGA1UdIwRK
MEiAFL9I9ldghD6xkRei8Rz11iMUJ1vxoRqkGDAWMRQwEgYDVQQDDAt0ZWFtMTc5
LW5ldIIUK65SVDz0T/WpR2xuxY+8NQdoZRswEwYDVR0lBAwwCgYIKwYBBQUHAwIw
CwYDVR0PBAQDAgeAMA0GCSqGSIb3DQEBCwUAA4IBAQAe77kKCm/G3VDQqwPa7Iy9
LSXJ83A87gV6rPHU/KuYqCkSQwZTkhcoo+wCfkhxipEooCyDWg7kA+TG/E3QlqMV
U1Na6D2hZQ4ENIvpPAAh+OWfNefN3P7uOqMHd8THVON2YXVFz+YpD2Le38xN4DEo
Um3T5VhPEOVgFBgmcsZ4QUXpUgVO6KZyhxeitPCBhDOEr7jN2dqaFaLD0b+Gg91Z
oKlMxjimqzkOgoahbxci4I4Q77Hv7Cf5I1nQtRNWWmiQCcoKdBDm3ZF5VED7VtCD
v7vgrU/AOqRgC2au3qQFeMHGjU8swotki0PzbOJ2RJsjZSDXhBozIz3WkvemRHOi
-----END CERTIFICATE-----
