Certificate:
    Data:
        Version: 3 (0x2)
        Serial Number:
            7e:c2:d7:a9:85:f9:63:27:1d:7c:07:40:37:8d:8f:64
        Signature Algorithm: sha256WithRSAEncryption
        Issuer: CN=team647-net
        Validity
            Not Before: Sep 13 04:23:32 2021 GMT
            Not After : Aug 28 04:23:32 2024 GMT
        Subject: CN=team647-client
        Subject Public Key Info:
            Public Key Algorithm: rsaEncryption
                RSA Public-Key: (2048 bit)
                Modulus:
                    00:ec:de:79:0a:e8:ff:d8:55:e0:4c:be:bb:ec:94:
                    46:89:d4:e7:16:b7:5a:98:57:23:65:80:af:c4:5d:
                    74:1e:53:46:a6:ae:5a:69:44:68:a9:52:cf:26:e1:
                    ef:90:8f:33:34:6f:d3:20:54:10:41:b2:ea:da:fe:
                    53:e4:91:2e:78:1d:30:0c:4f:34:01:27:5d:dd:43:
                    a2:1b:18:3d:d9:aa:96:ec:6b:c3:a3:21:41:53:e2:
                    08:11:ea:6d:3c:47:aa:9b:fd:5d:5a:dc:6b:9d:24:
                    28:cd:5d:eb:2b:10:bf:1f:4d:d6:a8:da:5a:d6:72:
                    ef:67:78:3c:1d:7f:92:a7:34:92:34:1b:d8:f6:9d:
                    91:e7:51:d6:20:d7:27:da:a0:99:cc:36:41:31:d9:
                    d6:fc:da:58:68:72:9e:1c:4c:d7:47:fe:86:94:ea:
                    a0:f6:64:07:37:ca:a6:32:f7:75:34:66:ca:ec:e6:
                    ad:fd:f3:f2:e0:3e:ac:0e:12:ef:74:2d:7f:98:2d:
                    27:af:e6:ab:ab:a6:38:25:4e:48:a4:33:bb:5f:ee:
                    5a:f2:32:94:c8:5b:ba:e6:9a:27:b9:0b:e5:c3:76:
                    42:0d:4f:29:fc:c8:e5:36:94:d0:4a:d8:76:ba:69:
                    5e:34:2a:fe:75:fa:89:b0:c0:8e:f2:3b:82:ac:d2:
                    1c:f1
                Exponent: 65537 (0x10001)
        X509v3 extensions:
            X509v3 Basic Constraints: 
                CA:FALSE
            X509v3 Subject Key Identifier: 
                CE:B3:9D:BC:55:77:4D:1C:AA:DC:3D:73:1C:2F:0E:2A:D5:4E:E2:B2
            X509v3 Authority Key Identifier: 
                keyid:A9:12:B9:62:46:EF:4D:33:7A:1E:78:A7:10:E1:49:78:74:B9:9B:E3
                DirName:/CN=team647-net
                serial:68:29:F0:34:BE:4E:82:32:1F:3E:0C:43:AA:49:92:6D:B7:A4:9D:26

            X509v3 Extended Key Usage: 
                TLS Web Client Authentication
            X509v3 Key Usage: 
                Digital Signature
    Signature Algorithm: sha256WithRSAEncryption
         1d:fb:dd:2c:5d:a8:aa:1b:e1:65:db:44:eb:d2:50:4e:79:e6:
         54:ef:ee:8a:d4:a4:3d:c9:ec:44:64:b1:d9:0e:79:27:31:9e:
         c3:bf:07:a4:6d:3f:13:79:08:cd:ac:24:57:7c:13:03:7f:d9:
         c5:1a:04:f1:0f:3f:b1:91:9f:f4:99:b3:76:5d:62:dd:88:3e:
         33:10:7c:da:90:24:6b:ca:0c:97:5e:fe:ca:b7:a6:13:20:f6:
         35:a1:fd:ba:b6:8a:0a:5e:c3:4f:7d:a2:8a:16:20:0c:d0:4c:
         63:db:7d:49:f4:a5:2d:47:cb:d8:15:ea:90:9c:15:8c:e9:c8:
         55:2f:6c:b7:36:ab:c2:f9:2e:7b:67:6b:88:2c:25:7d:ef:b7:
         d0:8d:d4:98:b9:87:77:a8:99:26:1e:95:69:08:29:dd:bb:7d:
         5e:58:c0:0c:4e:d5:31:4b:2b:04:4b:9f:48:42:12:63:90:76:
         84:ff:df:40:f6:bc:1d:e5:03:05:5a:27:78:aa:23:a5:8f:15:
         8d:af:33:dc:b9:c9:39:56:0f:3b:35:a2:1d:07:00:02:de:9b:
         d1:63:1e:49:f4:36:06:d8:4d:3a:f8:89:53:e2:a5:5b:ca:4c:
         0c:2f:ad:e0:74:83:dc:0f:a6:ba:bf:29:98:27:9e:7e:a2:47:
         5b:07:5f:03
-----BEGIN CERTIFICATE-----
MIIDXDCCAkSgAwIBAgIQfsLXqYX5YycdfAdAN42PZDANBgkqhkiG9w0BAQsFADAW
MRQwEgYDVQQDDAt0ZWFtNjQ3LW5ldDAeFw0yMTA5MTMwNDIzMzJaFw0yNDA4Mjgw
NDIzMzJaMBkxFzAVBgNVBAMMDnRlYW02NDctY2xpZW50MIIBIjANBgkqhkiG9w0B
AQEFAAOCAQ8AMIIBCgKCAQEA7N55Cuj/2FXgTL677JRGidTnFrdamFcjZYCvxF10
HlNGpq5aaURoqVLPJuHvkI8zNG/TIFQQQbLq2v5T5JEueB0wDE80ASdd3UOiGxg9
2aqW7GvDoyFBU+IIEeptPEeqm/1dWtxrnSQozV3rKxC/H03WqNpa1nLvZ3g8HX+S
pzSSNBvY9p2R51HWINcn2qCZzDZBMdnW/NpYaHKeHEzXR/6GlOqg9mQHN8qmMvd1
NGbK7Oat/fPy4D6sDhLvdC1/mC0nr+arq6Y4JU5IpDO7X+5a8jKUyFu65ponuQvl
w3ZCDU8p/MjlNpTQSth2umleNCr+dfqJsMCO8juCrNIc8QIDAQABo4GiMIGfMAkG
A1UdEwQCMAAwHQYDVR0OBBYEFM6znbxVd00cqtw9cxwvDirVTuKyMFEGA1UdIwRK
MEiAFKkSuWJG700zeh54pxDhSXh0uZvjoRqkGDAWMRQwEgYDVQQDDAt0ZWFtNjQ3
LW5ldIIUaCnwNL5OgjIfPgxDqkmSbbeknSYwEwYDVR0lBAwwCgYIKwYBBQUHAwIw
CwYDVR0PBAQDAgeAMA0GCSqGSIb3DQEBCwUAA4IBAQAd+90sXaiqG+Fl20Tr0lBO
eeZU7+6K1KQ9yexEZLHZDnknMZ7DvwekbT8TeQjNrCRXfBMDf9nFGgTxDz+xkZ/0
mbN2XWLdiD4zEHzakCRrygyXXv7Kt6YTIPY1of26tooKXsNPfaKKFiAM0Exj231J
9KUtR8vYFeqQnBWM6chVL2y3NqvC+S57Z2uILCV977fQjdSYuYd3qJkmHpVpCCnd
u31eWMAMTtUxSysES59IQhJjkHaE/99A9rwd5QMFWid4qiOljxWNrzPcuck5Vg87
NaIdBwAC3pvRYx5J9DYG2E06+IlT4qVbykwML63gdIPcD6a6vymYJ55+okdbB18D
-----END CERTIFICATE-----
