Certificate:
    Data:
        Version: 3 (0x2)
        Serial Number:
            03:f6:22:e7:63:07:dd:2b:e5:46:89:92:b2:8c:9c:b7
        Signature Algorithm: sha256WithRSAEncryption
        Issuer: CN=team224-net
        Validity
            Not Before: Sep 13 00:51:01 2021 GMT
            Not After : Aug 28 00:51:01 2024 GMT
        Subject: CN=team224-client
        Subject Public Key Info:
            Public Key Algorithm: rsaEncryption
                RSA Public-Key: (2048 bit)
                Modulus:
                    00:b5:53:0e:78:6b:5f:5f:4f:42:8d:f9:70:43:1d:
                    6b:e3:38:80:09:bb:04:cb:eb:d2:91:27:3b:4e:b9:
                    2d:a4:de:c6:42:b6:ac:df:ef:11:79:03:2b:1b:0c:
                    52:4e:e1:93:b7:85:66:2c:ce:1d:92:ff:66:31:d3:
                    5b:84:0f:7c:ef:2d:65:d5:0e:77:68:0b:0a:e6:42:
                    6c:7c:19:6c:e7:b7:e8:ed:d8:46:e8:45:94:61:f5:
                    26:c1:16:f7:8a:b0:3b:68:93:f7:69:8d:86:95:f2:
                    5c:84:ac:9a:6e:dc:65:30:8e:5b:3a:35:5a:87:65:
                    26:36:c8:52:55:5c:d4:39:74:e3:bc:c2:39:3c:d8:
                    d8:44:53:a7:9d:77:a1:6f:70:ff:44:1d:86:33:77:
                    05:33:c2:9a:df:9c:7a:3d:f6:af:4c:b8:09:16:a0:
                    1c:da:17:25:91:77:c6:ee:88:45:90:64:7d:1b:c0:
                    3a:82:d9:2b:be:21:35:46:6e:87:4b:80:22:24:1d:
                    80:a2:1b:97:2a:4b:00:af:0f:16:47:81:ac:6d:23:
                    5b:89:04:11:fd:6a:6e:be:18:00:0f:56:da:1f:05:
                    7b:12:cb:ac:5c:0a:db:34:a4:ef:86:ee:97:b7:8e:
                    a7:3b:c3:35:83:81:55:5d:54:3c:fe:7d:43:d6:fa:
                    cd:eb
                Exponent: 65537 (0x10001)
        X509v3 extensions:
            X509v3 Basic Constraints: 
                CA:FALSE
            X509v3 Subject Key Identifier: 
                E0:4E:FB:4F:63:8D:B8:24:84:CD:9F:1A:7A:2C:58:89:0F:A9:44:95
            X509v3 Authority Key Identifier: 
                keyid:F4:28:B7:07:B7:51:04:05:E3:0B:4C:39:32:FD:D1:B1:AD:F7:3D:15
                DirName:/CN=team224-net
                serial:20:47:C0:B7:7F:9D:15:65:1D:28:96:14:5D:BC:46:BB:55:02:3D:19

            X509v3 Extended Key Usage: 
                TLS Web Client Authentication
            X509v3 Key Usage: 
                Digital Signature
    Signature Algorithm: sha256WithRSAEncryption
         bf:15:24:ca:01:9e:07:2c:99:9f:a6:88:3a:0a:f3:fd:5b:7f:
         4e:dd:21:6a:a3:45:98:f9:4f:46:04:a2:b5:37:3b:8f:14:12:
         e5:b9:a4:56:de:e0:62:24:a3:17:32:74:fc:60:e1:b0:ef:f3:
         bb:e3:5a:ba:ec:6b:11:8b:d4:85:4d:7c:8e:06:d9:13:b3:0a:
         28:63:4a:fa:1b:14:8f:6d:c2:12:2d:2b:f8:12:1d:6e:3c:56:
         7f:c5:75:8d:c4:87:6a:e2:cf:37:00:82:8f:db:17:7b:dc:8e:
         6e:3d:e5:3d:88:67:78:d9:49:ca:c0:69:04:27:b9:ba:96:f2:
         4a:c5:41:c7:57:70:68:d2:7d:fc:02:6e:a5:be:fc:cc:bf:12:
         93:3e:27:5f:81:b5:ef:c0:1f:19:24:77:d4:11:a7:b6:85:06:
         e9:5d:5e:38:17:58:2e:c0:a1:49:64:1d:c6:ef:7a:b8:44:e2:
         6d:de:ae:db:bc:60:1a:72:4f:47:74:8a:89:78:04:1c:f0:ba:
         fc:68:e0:08:45:f5:47:95:15:18:38:d9:7c:72:7f:a7:1b:6e:
         8e:1b:58:d2:f0:46:06:fe:16:d2:48:e9:75:7d:b4:3e:54:48:
         44:42:c6:b6:35:f8:fe:7a:2e:ec:8b:bd:7b:16:15:4b:ee:43:
         7f:3b:6a:9b
-----BEGIN CERTIFICATE-----
MIIDXDCCAkSgAwIBAgIQA/Yi52MH3SvlRomSsoyctzANBgkqhkiG9w0BAQsFADAW
MRQwEgYDVQQDDAt0ZWFtMjI0LW5ldDAeFw0yMTA5MTMwMDUxMDFaFw0yNDA4Mjgw
MDUxMDFaMBkxFzAVBgNVBAMMDnRlYW0yMjQtY2xpZW50MIIBIjANBgkqhkiG9w0B
AQEFAAOCAQ8AMIIBCgKCAQEAtVMOeGtfX09CjflwQx1r4ziACbsEy+vSkSc7Trkt
pN7GQras3+8ReQMrGwxSTuGTt4VmLM4dkv9mMdNbhA987y1l1Q53aAsK5kJsfBls
57fo7dhG6EWUYfUmwRb3irA7aJP3aY2GlfJchKyabtxlMI5bOjVah2UmNshSVVzU
OXTjvMI5PNjYRFOnnXehb3D/RB2GM3cFM8Ka35x6PfavTLgJFqAc2hclkXfG7ohF
kGR9G8A6gtkrviE1Rm6HS4AiJB2AohuXKksArw8WR4GsbSNbiQQR/WpuvhgAD1ba
HwV7EsusXArbNKTvhu6Xt46nO8M1g4FVXVQ8/n1D1vrN6wIDAQABo4GiMIGfMAkG
A1UdEwQCMAAwHQYDVR0OBBYEFOBO+09jjbgkhM2fGnosWIkPqUSVMFEGA1UdIwRK
MEiAFPQotwe3UQQF4wtMOTL90bGt9z0VoRqkGDAWMRQwEgYDVQQDDAt0ZWFtMjI0
LW5ldIIUIEfAt3+dFWUdKJYUXbxGu1UCPRkwEwYDVR0lBAwwCgYIKwYBBQUHAwIw
CwYDVR0PBAQDAgeAMA0GCSqGSIb3DQEBCwUAA4IBAQC/FSTKAZ4HLJmfpog6CvP9
W39O3SFqo0WY+U9GBKK1NzuPFBLluaRW3uBiJKMXMnT8YOGw7/O741q67GsRi9SF
TXyOBtkTswooY0r6GxSPbcISLSv4Eh1uPFZ/xXWNxIdq4s83AIKP2xd73I5uPeU9
iGd42UnKwGkEJ7m6lvJKxUHHV3Bo0n38Am6lvvzMvxKTPidfgbXvwB8ZJHfUEae2
hQbpXV44F1guwKFJZB3G73q4ROJt3q7bvGAack9HdIqJeAQc8Lr8aOAIRfVHlRUY
ONl8cn+nG26OG1jS8EYG/hbSSOl1fbQ+VEhEQsa2Nfj+ei7si717FhVL7kN/O2qb
-----END CERTIFICATE-----
