Certificate:
    Data:
        Version: 3 (0x2)
        Serial Number:
            65:6a:7c:62:e9:16:7d:a4:ef:1c:b5:da:20:8f:e7:c6
        Signature Algorithm: sha256WithRSAEncryption
        Issuer: CN=team297-net
        Validity
            Not Before: Sep 13 01:25:47 2021 GMT
            Not After : Aug 28 01:25:47 2024 GMT
        Subject: CN=team297-server
        Subject Public Key Info:
            Public Key Algorithm: rsaEncryption
                RSA Public-Key: (2048 bit)
                Modulus:
                    00:c3:fc:0e:8a:ba:7f:89:20:e9:b4:de:f9:72:be:
                    62:2e:37:06:f9:be:15:a7:51:a1:30:02:56:cb:01:
                    9b:31:2b:e1:d7:df:27:b9:f2:91:5f:6d:1a:73:c0:
                    9c:c3:b8:d9:6e:0d:77:90:01:d8:1a:b1:5f:03:75:
                    98:02:b7:7e:0a:ef:07:94:9c:a0:47:99:dd:ce:38:
                    f6:01:e7:09:17:7f:56:b8:7b:7a:07:a2:82:21:92:
                    dc:40:85:e3:4d:22:1d:2a:dd:13:3f:ca:8e:22:df:
                    f8:6d:17:ab:e0:89:16:1a:83:b8:81:d6:d5:15:28:
                    78:7e:f1:7e:31:56:6e:64:7b:83:ba:c7:24:65:3f:
                    e8:03:fb:c8:51:65:95:06:2b:b5:22:e6:6a:4d:4b:
                    d3:03:25:86:88:3c:f8:9e:9e:d5:41:ae:9c:0f:94:
                    96:89:ad:d2:00:b9:dd:b6:2f:de:50:a8:3b:40:06:
                    2f:7e:e8:31:fd:d2:0e:95:7c:ca:97:32:59:a0:3b:
                    6b:29:1a:48:56:9e:f4:54:14:b1:4f:04:61:e7:7d:
                    ac:52:09:df:4c:6e:aa:27:54:3b:a6:bd:a2:4d:ce:
                    bb:32:93:b9:c2:3c:1d:37:ba:37:2e:f0:49:f2:0d:
                    be:25:d5:7b:5f:e1:17:01:01:05:2b:c6:d2:17:01:
                    06:51
                Exponent: 65537 (0x10001)
        X509v3 extensions:
            X509v3 Basic Constraints: 
                CA:FALSE
            X509v3 Subject Key Identifier: 
                3E:C7:E0:5B:BA:DA:F5:E6:67:7D:0B:AE:7A:99:A1:AC:A7:59:11:F0
            X509v3 Authority Key Identifier: 
                keyid:31:4C:D6:2B:DB:CA:CE:AF:7E:5C:4D:4F:51:71:FA:63:FC:ED:2D:D3
                DirName:/CN=team297-net
                serial:27:BC:3E:41:7B:87:1F:7C:3E:C1:60:6A:3B:F5:00:24:A3:A9:C0:74

            X509v3 Extended Key Usage: 
                TLS Web Server Authentication
            X509v3 Key Usage: 
                Digital Signature, Key Encipherment
            X509v3 Subject Alternative Name: 
                DNS:team297-server
    Signature Algorithm: sha256WithRSAEncryption
         17:e5:43:1b:00:06:60:bd:62:29:e1:5b:bb:be:22:d7:01:3e:
         e2:4d:ba:4a:dc:c1:e6:fc:d9:d6:5e:1b:8a:ad:76:27:bd:83:
         9a:fb:f0:ef:55:90:ce:ba:d4:4d:2f:65:bd:4e:16:e7:59:79:
         0e:ed:d6:ca:8e:67:f7:5d:ec:7e:bd:96:a9:2d:04:19:42:71:
         1f:b7:7b:1a:bb:ae:da:28:b2:0c:84:2f:69:d4:01:36:ee:04:
         93:17:31:80:81:89:b3:84:ad:15:ea:5e:82:31:2d:92:01:19:
         44:6d:b9:7d:9b:7c:21:1e:a8:44:44:26:d4:a5:87:b6:ce:f4:
         b7:0c:0e:83:69:1c:a6:f2:08:06:09:72:09:89:c2:af:ce:68:
         50:ef:80:7b:4d:4f:37:75:65:a4:92:60:da:ef:ca:4c:cc:da:
         23:40:bf:ef:b7:21:d8:59:a6:21:fc:59:ca:9b:39:60:14:ce:
         4b:8f:db:65:db:57:0f:13:89:df:e3:68:7c:2d:2b:5a:78:9d:
         61:4b:47:45:c1:51:9a:fb:a0:e2:21:76:75:d5:34:86:2e:d1:
         23:1f:2d:63:47:71:d9:9e:94:d9:7f:84:9b:60:84:26:0a:ce:
         8f:76:fa:79:60:dd:7f:f8:63:c0:fe:95:26:fc:b5:56:ba:f4:
         d1:e0:11:77
-----BEGIN CERTIFICATE-----
MIIDdzCCAl+gAwIBAgIQZWp8YukWfaTvHLXaII/nxjANBgkqhkiG9w0BAQsFADAW
MRQwEgYDVQQDDAt0ZWFtMjk3LW5ldDAeFw0yMTA5MTMwMTI1NDdaFw0yNDA4Mjgw
MTI1NDdaMBkxFzAVBgNVBAMMDnRlYW0yOTctc2VydmVyMIIBIjANBgkqhkiG9w0B
AQEFAAOCAQ8AMIIBCgKCAQEAw/wOirp/iSDptN75cr5iLjcG+b4Vp1GhMAJWywGb
MSvh198nufKRX20ac8Ccw7jZbg13kAHYGrFfA3WYArd+Cu8HlJygR5ndzjj2AecJ
F39WuHt6B6KCIZLcQIXjTSIdKt0TP8qOIt/4bRer4IkWGoO4gdbVFSh4fvF+MVZu
ZHuDusckZT/oA/vIUWWVBiu1IuZqTUvTAyWGiDz4np7VQa6cD5SWia3SALndti/e
UKg7QAYvfugx/dIOlXzKlzJZoDtrKRpIVp70VBSxTwRh532sUgnfTG6qJ1Q7pr2i
Tc67MpO5wjwdN7o3LvBJ8g2+JdV7X+EXAQEFK8bSFwEGUQIDAQABo4G9MIG6MAkG
A1UdEwQCMAAwHQYDVR0OBBYEFD7H4Fu62vXmZ30LrnqZoaynWRHwMFEGA1UdIwRK
MEiAFDFM1ivbys6vflxNT1Fx+mP87S3ToRqkGDAWMRQwEgYDVQQDDAt0ZWFtMjk3
LW5ldIIUJ7w+QXuHH3w+wWBqO/UAJKOpwHQwEwYDVR0lBAwwCgYIKwYBBQUHAwEw
CwYDVR0PBAQDAgWgMBkGA1UdEQQSMBCCDnRlYW0yOTctc2VydmVyMA0GCSqGSIb3
DQEBCwUAA4IBAQAX5UMbAAZgvWIp4Vu7viLXAT7iTbpK3MHm/NnWXhuKrXYnvYOa
+/DvVZDOutRNL2W9ThbnWXkO7dbKjmf3Xex+vZapLQQZQnEft3sau67aKLIMhC9p
1AE27gSTFzGAgYmzhK0V6l6CMS2SARlEbbl9m3whHqhERCbUpYe2zvS3DA6DaRym
8ggGCXIJicKvzmhQ74B7TU83dWWkkmDa78pMzNojQL/vtyHYWaYh/FnKmzlgFM5L
j9tl21cPE4nf42h8LStaeJ1hS0dFwVGa+6DiIXZ11TSGLtEjHy1jR3HZnpTZf4Sb
YIQmCs6Pdvp5YN1/+GPA/pUm/LVWuvTR4BF3
-----END CERTIFICATE-----
