Certificate:
    Data:
        Version: 3 (0x2)
        Serial Number:
            28:53:c7:56:0f:04:5e:6a:b9:93:bb:6f:c0:f4:b3:e4
        Signature Algorithm: sha256WithRSAEncryption
        Issuer: CN=team72-net
        Validity
            Not Before: Sep 12 23:19:27 2021 GMT
            Not After : Aug 27 23:19:27 2024 GMT
        Subject: CN=team72-client
        Subject Public Key Info:
            Public Key Algorithm: rsaEncryption
                RSA Public-Key: (2048 bit)
                Modulus:
                    00:a6:1c:93:42:b1:d2:ec:28:75:3f:fe:53:ae:49:
                    00:c5:b5:74:d5:58:ca:54:35:0e:fa:5b:c2:0b:7c:
                    b0:51:43:16:c9:86:74:7f:b2:31:7b:e1:f9:d1:92:
                    63:59:01:e2:d3:b1:67:5e:50:12:36:a7:e1:a5:d6:
                    01:07:1d:b4:f1:8d:fc:72:04:fc:19:64:da:17:94:
                    b4:e6:67:49:b8:64:ee:4b:88:9c:10:79:48:90:a4:
                    69:15:93:4b:53:44:6f:d4:64:28:fc:e2:71:06:29:
                    92:f5:47:df:03:93:17:c4:a9:39:9d:eb:46:36:ee:
                    a8:71:5f:e8:ec:60:f5:5b:e0:8f:40:d4:31:3d:69:
                    a6:52:42:cd:89:ff:1c:8f:f9:f1:43:4a:f9:55:99:
                    f2:23:10:51:63:fa:72:57:39:f5:08:e4:a6:b7:5c:
                    a5:4c:a9:a2:e7:32:49:ca:2e:dc:5a:3e:85:e0:10:
                    aa:6d:ec:45:fa:f4:15:27:8a:29:1c:15:44:51:01:
                    4a:22:97:06:bb:86:4c:1f:95:d7:f8:27:9a:36:9d:
                    6a:16:63:a2:71:a7:e7:5e:a6:b1:5c:f1:7d:38:10:
                    4b:ab:e6:6a:e2:c1:9d:6e:4e:b4:1f:17:ba:71:01:
                    1d:a7:bb:e1:0a:d8:9f:09:73:e6:a6:71:7e:6d:f3:
                    be:33
                Exponent: 65537 (0x10001)
        X509v3 extensions:
            X509v3 Basic Constraints: 
                CA:FALSE
            X509v3 Subject Key Identifier: 
                19:EC:30:1C:F3:65:BC:48:BE:73:C6:E2:AB:09:04:03:F6:A7:FD:37
            X509v3 Authority Key Identifier: 
                keyid:EE:51:24:BB:86:80:6F:AE:1F:B2:3F:20:B1:32:A4:5C:B2:4B:BA:85
                DirName:/CN=team72-net
                serial:1E:83:79:1D:A9:F3:94:14:71:88:0A:4F:9D:5C:9B:C1:C0:F1:5C:3B

            X509v3 Extended Key Usage: 
                TLS Web Client Authentication
            X509v3 Key Usage: 
                Digital Signature
    Signature Algorithm: sha256WithRSAEncryption
         3c:05:17:56:a5:b1:97:77:a4:00:49:ad:3b:e2:81:58:ba:d6:
         cd:c3:2f:3c:2d:b0:23:d2:fa:4c:e0:5e:c8:51:ce:38:04:d6:
         41:f4:2f:5f:e8:7c:8d:08:2e:48:b0:4e:85:90:73:f5:b6:a5:
         e2:4b:c4:e8:ad:48:42:e9:12:d8:40:bf:d6:36:6f:6c:e1:ee:
         ea:52:8d:f8:d4:d4:8e:40:09:9b:7f:12:e3:7b:65:a3:e3:31:
         51:06:e1:3c:f1:23:d0:bb:94:da:3c:d7:cb:af:01:43:b9:33:
         9d:7f:c4:af:ef:54:ed:da:25:aa:a1:ce:2c:96:23:7c:f2:da:
         7c:15:51:c1:34:64:a2:3f:8c:d8:42:17:e3:87:05:ff:be:c7:
         58:d8:d8:c7:61:4d:82:49:a2:88:49:db:20:92:e8:2a:7d:5f:
         f6:da:d8:d7:97:75:e7:fb:b3:75:b0:67:0e:2d:bc:01:71:a2:
         de:a4:97:ee:36:73:1e:8c:b6:6c:c8:00:3b:de:0d:97:15:45:
         d4:52:f6:82:e7:d6:62:ec:bb:31:db:bc:97:9a:b2:22:60:dc:
         82:6c:4e:51:ce:be:c4:a2:7c:ef:50:dd:c6:e9:a2:e5:bb:e1:
         98:97:06:41:32:5c:8e:5b:49:c7:86:c7:04:44:07:40:5b:a8:
         60:90:95:1c
-----BEGIN CERTIFICATE-----
MIIDWTCCAkGgAwIBAgIQKFPHVg8EXmq5k7tvwPSz5DANBgkqhkiG9w0BAQsFADAV
MRMwEQYDVQQDDAp0ZWFtNzItbmV0MB4XDTIxMDkxMjIzMTkyN1oXDTI0MDgyNzIz
MTkyN1owGDEWMBQGA1UEAwwNdGVhbTcyLWNsaWVudDCCASIwDQYJKoZIhvcNAQEB
BQADggEPADCCAQoCggEBAKYck0Kx0uwodT/+U65JAMW1dNVYylQ1Dvpbwgt8sFFD
FsmGdH+yMXvh+dGSY1kB4tOxZ15QEjan4aXWAQcdtPGN/HIE/Blk2heUtOZnSbhk
7kuInBB5SJCkaRWTS1NEb9RkKPzicQYpkvVH3wOTF8SpOZ3rRjbuqHFf6Oxg9Vvg
j0DUMT1pplJCzYn/HI/58UNK+VWZ8iMQUWP6clc59QjkprdcpUypoucyScou3Fo+
heAQqm3sRfr0FSeKKRwVRFEBSiKXBruGTB+V1/gnmjadahZjonGn516msVzxfTgQ
S6vmauLBnW5OtB8XunEBHae74QrYnwlz5qZxfm3zvjMCAwEAAaOBoTCBnjAJBgNV
HRMEAjAAMB0GA1UdDgQWBBQZ7DAc82W8SL5zxuKrCQQD9qf9NzBQBgNVHSMESTBH
gBTuUSS7hoBvrh+yPyCxMqRcsku6haEZpBcwFTETMBEGA1UEAwwKdGVhbTcyLW5l
dIIUHoN5HanzlBRxiApPnVybwcDxXDswEwYDVR0lBAwwCgYIKwYBBQUHAwIwCwYD
VR0PBAQDAgeAMA0GCSqGSIb3DQEBCwUAA4IBAQA8BRdWpbGXd6QASa074oFYutbN
wy88LbAj0vpM4F7IUc44BNZB9C9f6HyNCC5IsE6FkHP1tqXiS8TorUhC6RLYQL/W
Nm9s4e7qUo341NSOQAmbfxLje2Wj4zFRBuE88SPQu5TaPNfLrwFDuTOdf8Sv71Tt
2iWqoc4sliN88tp8FVHBNGSiP4zYQhfjhwX/vsdY2NjHYU2CSaKISdsgkugqfV/2
2tjXl3Xn+7N1sGcOLbwBcaLepJfuNnMejLZsyAA73g2XFUXUUvaC59Zi7Lsx27yX
mrIiYNyCbE5Rzr7EonzvUN3G6aLlu+GYlwZBMlyOW0nHhscERAdAW6hgkJUc
-----END CERTIFICATE-----
