Certificate:
    Data:
        Version: 3 (0x2)
        Serial Number:
            11:d0:a1:c7:af:e2:2e:bf:fc:05:14:75:fb:59:b4:9b
        Signature Algorithm: sha256WithRSAEncryption
        Issuer: CN=team78-net
        Validity
            Not Before: Sep 12 23:24:16 2021 GMT
            Not After : Aug 27 23:24:16 2024 GMT
        Subject: CN=team78-client
        Subject Public Key Info:
            Public Key Algorithm: rsaEncryption
                RSA Public-Key: (2048 bit)
                Modulus:
                    00:ad:be:00:42:ef:fb:05:97:06:f0:e3:23:06:97:
                    f6:88:d3:98:62:27:18:e8:d2:45:73:37:81:89:a1:
                    9a:73:7f:57:23:83:04:32:48:4e:4d:cf:2d:80:f0:
                    03:77:fb:c2:cf:9b:96:3b:fa:db:59:1b:34:02:22:
                    b6:8d:44:3d:9e:f8:35:69:56:1f:35:2d:66:a3:84:
                    82:be:88:72:9c:73:94:01:26:aa:36:8d:f0:29:12:
                    0d:de:cb:60:af:7b:73:74:70:8c:46:f4:82:fa:62:
                    60:43:7e:33:50:d9:b2:be:f2:5d:dd:32:5f:a3:e6:
                    8c:da:a6:37:2a:ce:9d:86:6b:d1:5e:44:06:13:11:
                    79:8b:dd:d4:32:c5:fc:0a:50:d8:f1:c9:4b:b2:9f:
                    96:44:e5:7d:d2:52:3d:b3:14:60:72:11:11:29:57:
                    2c:5a:04:77:39:59:be:b1:bf:e8:28:64:f2:52:7e:
                    4f:d7:a1:73:43:44:77:4a:19:9a:83:d3:a7:a8:63:
                    45:1e:52:28:ee:43:9d:d2:5c:50:32:8b:1e:83:ef:
                    ad:d8:55:3f:ac:f4:57:6e:c7:cd:61:fb:04:04:b1:
                    99:f6:6d:10:64:cd:65:e6:3f:29:f2:15:c7:75:e8:
                    d1:1c:63:82:01:ef:95:d8:54:66:16:9f:fa:94:92:
                    da:43
                Exponent: 65537 (0x10001)
        X509v3 extensions:
            X509v3 Basic Constraints: 
                CA:FALSE
            X509v3 Subject Key Identifier: 
                43:79:23:F9:5E:78:A6:D6:35:AA:8D:73:54:E9:1C:EA:9A:AC:3C:36
            X509v3 Authority Key Identifier: 
                keyid:54:DF:BF:6B:A7:99:DE:FD:69:9E:E5:2D:62:18:45:16:38:5C:41:3B
                DirName:/CN=team78-net
                serial:37:67:47:5F:2F:52:F9:AC:BA:C1:FC:B9:2A:5A:78:39:8B:C1:30:22

            X509v3 Extended Key Usage: 
                TLS Web Client Authentication
            X509v3 Key Usage: 
                Digital Signature
    Signature Algorithm: sha256WithRSAEncryption
         2f:27:83:f2:8b:97:48:26:4e:1d:25:13:58:a8:5b:50:f8:da:
         2a:14:f0:7e:af:89:8a:9b:96:67:da:01:7e:9f:62:e9:6e:7c:
         4f:2e:f0:41:45:48:e3:1c:2b:fc:95:4b:17:5c:05:d8:9a:d9:
         9a:fc:be:e2:bf:cb:f0:89:c6:82:83:df:86:3b:1b:bd:f3:de:
         68:92:10:9b:e8:74:38:c6:50:d0:a3:9d:e4:54:9d:18:20:26:
         8c:3b:66:cb:a0:fb:55:21:ad:c3:07:fa:5c:af:c9:b5:ec:f3:
         1f:83:cd:2a:d9:d0:e3:43:2b:5c:d5:eb:2e:bb:cf:5c:01:2b:
         cd:3d:93:65:79:65:d0:e6:ee:61:ca:c7:27:b4:cc:8f:43:81:
         59:db:a9:6c:5c:c9:ea:e1:46:ac:59:20:92:e5:94:82:0e:65:
         43:78:f4:8f:c1:51:14:4c:4f:74:7b:78:d0:a5:c7:e7:f5:29:
         ab:66:77:f2:8d:cd:5e:bb:29:31:40:f6:fd:51:98:9f:04:96:
         26:3b:7b:73:78:60:0d:af:da:5d:a2:e3:8f:3d:70:f2:4b:18:
         25:27:d3:6e:22:f5:db:e1:88:11:42:33:35:4e:f5:50:35:3f:
         ab:38:c0:16:01:cb:90:53:53:04:58:9d:d5:05:c5:57:f9:8a:
         25:79:f3:6f
-----BEGIN CERTIFICATE-----
MIIDWTCCAkGgAwIBAgIQEdChx6/iLr/8BRR1+1m0mzANBgkqhkiG9w0BAQsFADAV
MRMwEQYDVQQDDAp0ZWFtNzgtbmV0MB4XDTIxMDkxMjIzMjQxNloXDTI0MDgyNzIz
MjQxNlowGDEWMBQGA1UEAwwNdGVhbTc4LWNsaWVudDCCASIwDQYJKoZIhvcNAQEB
BQADggEPADCCAQoCggEBAK2+AELv+wWXBvDjIwaX9ojTmGInGOjSRXM3gYmhmnN/
VyODBDJITk3PLYDwA3f7ws+bljv621kbNAIito1EPZ74NWlWHzUtZqOEgr6Icpxz
lAEmqjaN8CkSDd7LYK97c3RwjEb0gvpiYEN+M1DZsr7yXd0yX6PmjNqmNyrOnYZr
0V5EBhMReYvd1DLF/ApQ2PHJS7KflkTlfdJSPbMUYHIRESlXLFoEdzlZvrG/6Chk
8lJ+T9ehc0NEd0oZmoPTp6hjRR5SKO5DndJcUDKLHoPvrdhVP6z0V27HzWH7BASx
mfZtEGTNZeY/KfIVx3Xo0RxjggHvldhUZhaf+pSS2kMCAwEAAaOBoTCBnjAJBgNV
HRMEAjAAMB0GA1UdDgQWBBRDeSP5Xnim1jWqjXNU6Rzqmqw8NjBQBgNVHSMESTBH
gBRU379rp5ne/Wme5S1iGEUWOFxBO6EZpBcwFTETMBEGA1UEAwwKdGVhbTc4LW5l
dIIUN2dHXy9S+ay6wfy5Klp4OYvBMCIwEwYDVR0lBAwwCgYIKwYBBQUHAwIwCwYD
VR0PBAQDAgeAMA0GCSqGSIb3DQEBCwUAA4IBAQAvJ4Pyi5dIJk4dJRNYqFtQ+Noq
FPB+r4mKm5Zn2gF+n2LpbnxPLvBBRUjjHCv8lUsXXAXYmtma/L7iv8vwicaCg9+G
Oxu9895okhCb6HQ4xlDQo53kVJ0YICaMO2bLoPtVIa3DB/pcr8m17PMfg80q2dDj
Qytc1esuu89cASvNPZNleWXQ5u5hyscntMyPQ4FZ26lsXMnq4UasWSCS5ZSCDmVD
ePSPwVEUTE90e3jQpcfn9SmrZnfyjc1euykxQPb9UZifBJYmO3tzeGANr9pdouOP
PXDySxglJ9NuIvXb4YgRQjM1TvVQNT+rOMAWAcuQU1MEWJ3VBcVX+YolefNv
-----END CERTIFICATE-----
