Certificate:
    Data:
        Version: 3 (0x2)
        Serial Number:
            82:86:bb:76:24:25:01:c5:3f:9c:56:09:34:a9:26:a5
        Signature Algorithm: sha256WithRSAEncryption
        Issuer: CN=team99-net
        Validity
            Not Before: Sep 12 23:38:10 2021 GMT
            Not After : Aug 27 23:38:10 2024 GMT
        Subject: CN=team99-server
        Subject Public Key Info:
            Public Key Algorithm: rsaEncryption
                RSA Public-Key: (2048 bit)
                Modulus:
                    00:d0:92:11:88:20:c1:97:4d:4a:4d:2f:00:24:fb:
                    78:5b:30:61:dd:7a:94:c6:de:ed:68:a0:a4:24:ca:
                    4d:bd:bf:dc:ef:f9:a4:82:75:66:08:2d:be:3b:84:
                    7d:3d:61:0d:1c:27:fa:fb:66:06:a4:6c:6b:44:81:
                    c0:42:c5:f9:8e:19:7a:e0:38:e9:1c:be:ad:2d:65:
                    d0:9c:4c:34:69:5b:58:67:e5:d4:86:ec:99:f7:62:
                    1b:7b:fb:e1:cc:fd:a2:4f:9f:fa:2b:d4:6b:96:d9:
                    6a:2d:b5:4a:2f:da:20:b0:54:aa:86:1d:1f:b7:c7:
                    1d:ad:34:7c:51:f6:b4:0c:0a:49:58:89:1c:c8:ee:
                    c4:47:3f:25:e1:e7:bb:f4:7c:d6:9f:2f:2e:61:ac:
                    6f:f0:39:c2:93:4f:c3:66:5e:64:1d:3d:0b:6b:b0:
                    b8:7f:ab:92:af:89:10:89:f6:06:8c:e1:d5:7d:d1:
                    f5:2f:ee:31:15:fa:bd:3c:6c:ce:f7:ac:87:4d:d2:
                    b4:6a:3b:fe:38:f1:4c:d6:9d:36:ae:7f:20:dd:b0:
                    87:4c:15:19:b2:2b:07:ae:68:b5:35:99:6f:ed:ac:
                    f9:1a:96:e9:36:d1:77:ab:6d:53:95:6b:48:69:0d:
                    ac:95:30:74:26:d5:6b:18:64:f8:5a:3f:be:73:f1:
                    0c:9f
                Exponent: 65537 (0x10001)
        X509v3 extensions:
            X509v3 Basic Constraints: 
                CA:FALSE
            X509v3 Subject Key Identifier: 
                17:D6:3A:E6:38:91:B0:F2:90:58:2A:81:AC:12:A8:CE:D4:5E:71:F4
            X509v3 Authority Key Identifier: 
                keyid:69:81:3D:1A:4A:22:87:45:00:7C:85:64:7E:74:1B:01:D4:9A:99:B6
                DirName:/CN=team99-net
                serial:1F:36:35:22:DE:0D:F1:53:64:BA:AF:12:96:EF:D9:48:D1:1A:6C:48

            X509v3 Extended Key Usage: 
                TLS Web Server Authentication
            X509v3 Key Usage: 
                Digital Signature, Key Encipherment
            X509v3 Subject Alternative Name: 
                DNS:team99-server
    Signature Algorithm: sha256WithRSAEncryption
         3a:d6:dc:5d:1b:af:11:00:2f:2d:08:9c:30:2a:41:8d:35:b6:
         ce:3b:78:84:c6:79:4f:76:2a:d7:1c:8f:ff:4d:0d:2a:cc:bc:
         73:ca:7b:34:96:84:28:64:37:39:7f:f6:24:3b:26:4d:0a:4d:
         a6:11:27:e0:8b:c0:c6:94:b0:e9:18:b7:5c:da:10:e3:b4:80:
         c8:e8:8d:4f:9d:9a:af:7d:df:8f:19:b5:29:33:a0:e9:dc:b8:
         ab:9c:7b:3b:c6:50:24:cd:14:4a:a1:30:6b:77:4f:83:7d:33:
         b8:7c:e6:7b:d6:ea:c2:c6:8c:36:34:cc:a9:ea:6b:0c:e3:c3:
         fc:bb:36:77:2f:a0:0d:89:97:3b:00:85:6b:28:c8:e5:16:e2:
         70:bd:22:1f:61:46:b6:95:ce:c0:7d:3c:51:c7:bc:ad:9d:fb:
         c4:7e:3d:9b:56:68:3b:8d:d8:c3:33:8c:09:aa:3b:9e:ae:1f:
         50:96:85:e3:87:11:7f:c3:91:23:81:a2:bd:d0:50:c8:88:51:
         8c:1d:a5:d2:81:00:0e:ca:81:e7:d8:1b:91:8d:c8:c7:a4:64:
         43:34:10:5d:41:ea:60:31:eb:4d:1c:8c:9b:c5:8b:d6:e8:00:
         1e:e0:b5:cc:32:f0:0f:e5:bc:3e:55:b2:67:f5:31:aa:b4:b7:
         f5:93:1a:a9
-----BEGIN CERTIFICATE-----
MIIDdDCCAlygAwIBAgIRAIKGu3YkJQHFP5xWCTSpJqUwDQYJKoZIhvcNAQELBQAw
FTETMBEGA1UEAwwKdGVhbTk5LW5ldDAeFw0yMTA5MTIyMzM4MTBaFw0yNDA4Mjcy
MzM4MTBaMBgxFjAUBgNVBAMMDXRlYW05OS1zZXJ2ZXIwggEiMA0GCSqGSIb3DQEB
AQUAA4IBDwAwggEKAoIBAQDQkhGIIMGXTUpNLwAk+3hbMGHdepTG3u1ooKQkyk29
v9zv+aSCdWYILb47hH09YQ0cJ/r7ZgakbGtEgcBCxfmOGXrgOOkcvq0tZdCcTDRp
W1hn5dSG7Jn3Yht7++HM/aJPn/or1GuW2WottUov2iCwVKqGHR+3xx2tNHxR9rQM
CklYiRzI7sRHPyXh57v0fNafLy5hrG/wOcKTT8NmXmQdPQtrsLh/q5KviRCJ9gaM
4dV90fUv7jEV+r08bM73rIdN0rRqO/448UzWnTaufyDdsIdMFRmyKweuaLU1mW/t
rPkaluk20XerbVOVa0hpDayVMHQm1WsYZPhaP75z8QyfAgMBAAGjgbswgbgwCQYD
VR0TBAIwADAdBgNVHQ4EFgQUF9Y65jiRsPKQWCqBrBKoztRecfQwUAYDVR0jBEkw
R4AUaYE9Gkoih0UAfIVkfnQbAdSambahGaQXMBUxEzARBgNVBAMMCnRlYW05OS1u
ZXSCFB82NSLeDfFTZLqvEpbv2UjRGmxIMBMGA1UdJQQMMAoGCCsGAQUFBwMBMAsG
A1UdDwQEAwIFoDAYBgNVHREEETAPgg10ZWFtOTktc2VydmVyMA0GCSqGSIb3DQEB
CwUAA4IBAQA61txdG68RAC8tCJwwKkGNNbbOO3iExnlPdirXHI//TQ0qzLxzyns0
loQoZDc5f/YkOyZNCk2mESfgi8DGlLDpGLdc2hDjtIDI6I1PnZqvfd+PGbUpM6Dp
3LirnHs7xlAkzRRKoTBrd0+DfTO4fOZ71urCxow2NMyp6msM48P8uzZ3L6ANiZc7
AIVrKMjlFuJwvSIfYUa2lc7AfTxRx7ytnfvEfj2bVmg7jdjDM4wJqjuerh9QloXj
hxF/w5EjgaK90FDIiFGMHaXSgQAOyoHn2BuRjcjHpGRDNBBdQepgMetNHIybxYvW
6AAe4LXMMvAP5bw+VbJn9TGqtLf1kxqp
-----END CERTIFICATE-----
