Certificate:
    Data:
        Version: 3 (0x2)
        Serial Number:
            98:79:20:25:e3:29:67:96:e5:1e:03:ff:b1:fd:ba:cb
        Signature Algorithm: sha256WithRSAEncryption
        Issuer: CN=team64-net
        Validity
            Not Before: Sep 12 23:16:32 2021 GMT
            Not After : Aug 27 23:16:32 2024 GMT
        Subject: CN=team64-server
        Subject Public Key Info:
            Public Key Algorithm: rsaEncryption
                RSA Public-Key: (2048 bit)
                Modulus:
                    00:c6:25:c9:ff:7a:ac:f0:21:d8:b9:40:12:b2:21:
                    f4:e2:b8:29:9e:9b:bb:b1:02:77:94:0d:c9:dc:5c:
                    ff:15:11:af:b4:a2:74:19:b2:de:1d:26:ae:c7:c4:
                    ac:de:4a:c2:63:e1:be:84:7d:d9:e6:16:7f:31:7a:
                    e5:f1:d5:0a:c4:0b:69:a9:0a:00:a7:6a:47:a2:48:
                    a1:61:fb:6b:c4:bd:5b:67:f0:2c:8e:73:a7:65:9a:
                    03:b3:bc:5f:15:1c:41:60:df:be:51:af:1e:f5:a3:
                    9e:8f:8e:35:39:0b:7f:9f:c1:72:dc:50:7e:89:92:
                    36:ed:e6:ef:f7:49:7e:50:ef:d5:2a:5c:76:17:0c:
                    36:d8:b8:92:db:9f:d2:76:15:f5:74:7e:e3:6b:b6:
                    77:e3:30:41:53:34:5d:07:b3:c2:a8:cf:23:ff:83:
                    b8:3f:90:cf:46:f4:ef:9e:f3:88:cd:87:18:01:fc:
                    01:8f:b5:89:ab:c0:35:ed:93:08:7f:16:7c:42:f8:
                    72:56:f4:f9:6f:4f:18:2d:1f:4a:87:94:11:1a:02:
                    16:26:8c:5a:a2:17:36:ae:1e:f4:7a:8f:79:40:b2:
                    ca:ec:c4:cd:04:61:24:53:2e:7a:a5:6f:7e:7f:0f:
                    b6:f6:17:a7:2f:30:8d:d5:74:65:32:21:9a:6c:f1:
                    ae:63
                Exponent: 65537 (0x10001)
        X509v3 extensions:
            X509v3 Basic Constraints: 
                CA:FALSE
            X509v3 Subject Key Identifier: 
                1C:1E:9C:3D:19:BB:5D:C3:97:B8:F1:DC:1E:7B:A0:AB:0C:E9:E5:6A
            X509v3 Authority Key Identifier: 
                keyid:94:4D:76:55:33:B9:70:D1:52:9B:45:F4:8E:0B:F5:40:4A:7E:38:2C
                DirName:/CN=team64-net
                serial:20:DB:34:65:34:88:EA:FA:ED:0E:B1:BB:AD:AA:2F:AA:00:40:AC:13

            X509v3 Extended Key Usage: 
                TLS Web Server Authentication
            X509v3 Key Usage: 
                Digital Signature, Key Encipherment
            X509v3 Subject Alternative Name: 
                DNS:team64-server
    Signature Algorithm: sha256WithRSAEncryption
         1e:0e:ba:f3:bb:da:96:12:52:b2:25:ef:04:e6:de:a4:e3:7d:
         45:a6:b9:b9:bc:2a:45:a2:e4:dd:3e:e0:99:5e:f4:51:37:1c:
         5f:4f:3a:0e:0c:b0:53:38:41:b3:fc:34:04:63:d8:a2:29:56:
         e9:26:28:fa:15:1c:49:a5:df:8d:1d:20:72:a9:2d:17:fe:1f:
         3f:c2:3c:4f:b9:1c:57:70:b4:31:13:57:b2:cb:e5:cf:ef:b2:
         ee:2c:66:a0:4b:9d:b5:6b:01:93:3f:01:c7:31:0b:e3:9a:ed:
         5f:a8:95:ee:56:d4:b5:25:31:0e:a4:c6:50:0f:14:a4:42:68:
         cf:ed:b0:ee:7b:3f:92:02:75:5c:0e:80:79:dc:98:92:9a:eb:
         e6:d6:b7:9e:9f:cd:a9:88:39:0b:04:96:4c:a7:d1:80:e7:30:
         58:8f:48:ac:43:a7:b6:1a:42:53:14:9d:8b:44:b4:a8:98:03:
         69:08:0b:22:44:92:d9:2f:99:96:9a:7c:af:09:c9:2b:3c:9f:
         14:2e:32:14:da:03:8e:d1:ef:89:12:8c:b1:5e:cd:44:3c:b0:
         1a:ca:7f:f0:a4:5f:da:00:a4:23:8f:0d:4b:5c:9b:ff:35:0e:
         00:ba:44:1d:1a:18:ab:b6:90:01:8f:dd:fc:ba:f1:fc:fa:e8:
         d9:ca:3b:05
-----BEGIN CERTIFICATE-----
MIIDdDCCAlygAwIBAgIRAJh5ICXjKWeW5R4D/7H9usswDQYJKoZIhvcNAQELBQAw
FTETMBEGA1UEAwwKdGVhbTY0LW5ldDAeFw0yMTA5MTIyMzE2MzJaFw0yNDA4Mjcy
MzE2MzJaMBgxFjAUBgNVBAMMDXRlYW02NC1zZXJ2ZXIwggEiMA0GCSqGSIb3DQEB
AQUAA4IBDwAwggEKAoIBAQDGJcn/eqzwIdi5QBKyIfTiuCmem7uxAneUDcncXP8V
Ea+0onQZst4dJq7HxKzeSsJj4b6EfdnmFn8xeuXx1QrEC2mpCgCnakeiSKFh+2vE
vVtn8CyOc6dlmgOzvF8VHEFg375Rrx71o56PjjU5C3+fwXLcUH6Jkjbt5u/3SX5Q
79UqXHYXDDbYuJLbn9J2FfV0fuNrtnfjMEFTNF0Hs8KozyP/g7g/kM9G9O+e84jN
hxgB/AGPtYmrwDXtkwh/FnxC+HJW9PlvTxgtH0qHlBEaAhYmjFqiFzauHvR6j3lA
ssrsxM0EYSRTLnqlb35/D7b2F6cvMI3VdGUyIZps8a5jAgMBAAGjgbswgbgwCQYD
VR0TBAIwADAdBgNVHQ4EFgQUHB6cPRm7XcOXuPHcHnugqwzp5WowUAYDVR0jBEkw
R4AUlE12VTO5cNFSm0X0jgv1QEp+OCyhGaQXMBUxEzARBgNVBAMMCnRlYW02NC1u
ZXSCFCDbNGU0iOr67Q6xu62qL6oAQKwTMBMGA1UdJQQMMAoGCCsGAQUFBwMBMAsG
A1UdDwQEAwIFoDAYBgNVHREEETAPgg10ZWFtNjQtc2VydmVyMA0GCSqGSIb3DQEB
CwUAA4IBAQAeDrrzu9qWElKyJe8E5t6k431Fprm5vCpFouTdPuCZXvRRNxxfTzoO
DLBTOEGz/DQEY9iiKVbpJij6FRxJpd+NHSByqS0X/h8/wjxPuRxXcLQxE1eyy+XP
77LuLGagS521awGTPwHHMQvjmu1fqJXuVtS1JTEOpMZQDxSkQmjP7bDuez+SAnVc
DoB53JiSmuvm1reen82piDkLBJZMp9GA5zBYj0isQ6e2GkJTFJ2LRLSomANpCAsi
RJLZL5mWmnyvCckrPJ8ULjIU2gOO0e+JEoyxXs1EPLAayn/wpF/aAKQjjw1LXJv/
NQ4AukQdGhirtpABj938uvH8+ujZyjsF
-----END CERTIFICATE-----
