Certificate:
    Data:
        Version: 3 (0x2)
        Serial Number:
            65:51:f4:0d:d3:5d:38:d2:3b:05:d8:41:d9:60:e9:05
        Signature Algorithm: sha256WithRSAEncryption
        Issuer: CN=team750-net
        Validity
            Not Before: Sep 13 05:11:06 2021 GMT
            Not After : Aug 28 05:11:06 2024 GMT
        Subject: CN=team750-client
        Subject Public Key Info:
            Public Key Algorithm: rsaEncryption
                RSA Public-Key: (2048 bit)
                Modulus:
                    00:d1:41:d1:c1:ea:75:70:91:b6:d1:75:3d:8c:df:
                    03:28:8c:de:db:86:b7:5f:ab:73:bb:00:c6:bd:55:
                    7f:85:4f:f8:26:13:b3:ee:03:d1:3c:28:5e:ec:3e:
                    a9:bf:fd:e2:e7:f9:fd:8a:84:20:1c:1f:37:94:fc:
                    63:bc:b8:bb:98:af:90:9a:7d:db:48:2f:b8:d3:1c:
                    63:52:28:ab:4b:3f:63:ac:13:2e:d3:dd:a7:58:f2:
                    2f:1e:1f:dd:0c:3a:5e:3e:63:11:cd:46:72:2f:26:
                    7d:9c:23:7d:bf:47:cd:8d:2c:4a:81:f8:9b:88:6d:
                    6a:88:d6:7c:3e:e0:38:c3:f2:7f:91:4b:95:99:6e:
                    f5:a2:e1:95:5b:8c:18:ff:2d:e3:1c:08:47:fa:91:
                    e1:82:2b:f9:a1:3f:d2:4d:5f:fe:42:00:38:e4:4c:
                    06:73:fa:46:43:10:ce:bb:d3:d3:a3:31:1b:77:ab:
                    d9:98:69:6c:e8:39:f1:27:40:64:19:a6:5a:1d:9f:
                    e0:3d:dc:b4:f3:2d:d0:90:f9:34:9c:3d:60:ff:0f:
                    4d:b4:75:fe:92:5f:d1:b7:3a:0e:b4:66:ef:3d:47:
                    f4:e9:a6:0b:27:b8:67:91:db:25:43:07:99:9c:8e:
                    45:8f:5d:c5:24:2a:35:79:43:6d:36:29:98:ce:98:
                    aa:d3
                Exponent: 65537 (0x10001)
        X509v3 extensions:
            X509v3 Basic Constraints: 
                CA:FALSE
            X509v3 Subject Key Identifier: 
                41:4C:95:CB:4D:E8:8F:1F:18:6C:30:31:58:B5:9E:D2:02:95:05:3B
            X509v3 Authority Key Identifier: 
                keyid:34:C0:69:16:70:3C:B6:26:BA:BE:A7:84:73:B4:DE:05:B5:D7:E5:06
                DirName:/CN=team750-net
                serial:6A:DD:00:B1:F8:7E:52:19:02:8B:F9:C3:7A:6E:8A:77:FE:BB:D8:92

            X509v3 Extended Key Usage: 
                TLS Web Client Authentication
            X509v3 Key Usage: 
                Digital Signature
    Signature Algorithm: sha256WithRSAEncryption
         9f:d4:5a:6a:ca:f4:9b:91:98:77:9c:86:41:0d:96:bc:8c:f7:
         92:6e:f5:a0:ce:94:e9:72:06:4d:9b:fe:60:e0:d2:ff:3c:cb:
         3a:ca:48:9d:19:17:ee:be:16:d8:07:22:db:a4:43:74:9d:b3:
         02:32:91:36:d2:3d:5f:15:77:62:a8:d4:82:d4:c4:f0:c3:ca:
         c9:82:e9:3b:0a:1d:0c:1a:40:4f:f8:3b:ac:10:83:05:ae:96:
         6d:30:3a:c2:1e:e2:e9:34:c5:53:cc:a2:99:ec:2b:fd:aa:0b:
         f5:22:14:8b:ca:3c:a0:e8:28:3c:43:00:c4:fb:99:f4:db:14:
         4f:0e:57:ca:3d:a0:f5:b9:f7:5f:a4:36:bc:80:0d:d2:95:8d:
         45:f2:6f:1a:9f:02:4e:7f:e4:b0:02:ff:de:95:b1:22:bf:63:
         b0:00:18:af:0a:49:43:05:5c:ee:ae:68:99:df:fa:1f:a5:ae:
         ab:01:03:0a:29:57:85:51:5d:ef:f7:68:a3:08:c0:da:39:75:
         e7:39:3b:c3:c4:72:7d:2b:5c:4e:d1:db:b2:36:93:13:c2:77:
         24:11:df:d9:bd:5d:ee:b6:36:5e:7a:c3:0b:ae:a9:26:c9:33:
         cd:5a:83:72:7d:8a:a5:ca:77:11:07:7f:4c:ae:99:4c:33:a2:
         33:30:e3:41
-----BEGIN CERTIFICATE-----
MIIDXDCCAkSgAwIBAgIQZVH0DdNdONI7BdhB2WDpBTANBgkqhkiG9w0BAQsFADAW
MRQwEgYDVQQDDAt0ZWFtNzUwLW5ldDAeFw0yMTA5MTMwNTExMDZaFw0yNDA4Mjgw
NTExMDZaMBkxFzAVBgNVBAMMDnRlYW03NTAtY2xpZW50MIIBIjANBgkqhkiG9w0B
AQEFAAOCAQ8AMIIBCgKCAQEA0UHRwep1cJG20XU9jN8DKIze24a3X6tzuwDGvVV/
hU/4JhOz7gPRPChe7D6pv/3i5/n9ioQgHB83lPxjvLi7mK+Qmn3bSC+40xxjUiir
Sz9jrBMu092nWPIvHh/dDDpePmMRzUZyLyZ9nCN9v0fNjSxKgfibiG1qiNZ8PuA4
w/J/kUuVmW71ouGVW4wY/y3jHAhH+pHhgiv5oT/STV/+QgA45EwGc/pGQxDOu9PT
ozEbd6vZmGls6DnxJ0BkGaZaHZ/gPdy08y3QkPk0nD1g/w9NtHX+kl/RtzoOtGbv
PUf06aYLJ7hnkdslQweZnI5Fj13FJCo1eUNtNimYzpiq0wIDAQABo4GiMIGfMAkG
A1UdEwQCMAAwHQYDVR0OBBYEFEFMlctN6I8fGGwwMVi1ntIClQU7MFEGA1UdIwRK
MEiAFDTAaRZwPLYmur6nhHO03gW11+UGoRqkGDAWMRQwEgYDVQQDDAt0ZWFtNzUw
LW5ldIIUat0Asfh+UhkCi/nDem6Kd/672JIwEwYDVR0lBAwwCgYIKwYBBQUHAwIw
CwYDVR0PBAQDAgeAMA0GCSqGSIb3DQEBCwUAA4IBAQCf1FpqyvSbkZh3nIZBDZa8
jPeSbvWgzpTpcgZNm/5g4NL/PMs6ykidGRfuvhbYByLbpEN0nbMCMpE20j1fFXdi
qNSC1MTww8rJguk7Ch0MGkBP+DusEIMFrpZtMDrCHuLpNMVTzKKZ7Cv9qgv1IhSL
yjyg6Cg8QwDE+5n02xRPDlfKPaD1ufdfpDa8gA3SlY1F8m8anwJOf+SwAv/elbEi
v2OwABivCklDBVzurmiZ3/ofpa6rAQMKKVeFUV3v92ijCMDaOXXnOTvDxHJ9K1xO
0duyNpMTwnckEd/ZvV3utjZeesMLrqkmyTPNWoNyfYqlyncRB39MrplMM6IzMONB
-----END CERTIFICATE-----
