Certificate:
    Data:
        Version: 3 (0x2)
        Serial Number:
            f0:9c:74:7c:d7:15:6c:3c:c7:86:03:a4:a3:9f:49:56
        Signature Algorithm: sha256WithRSAEncryption
        Issuer: CN=team71-net
        Validity
            Not Before: Sep 12 23:19:18 2021 GMT
            Not After : Aug 27 23:19:18 2024 GMT
        Subject: CN=team71-server
        Subject Public Key Info:
            Public Key Algorithm: rsaEncryption
                RSA Public-Key: (2048 bit)
                Modulus:
                    00:c2:5e:29:64:79:bb:57:e0:8f:42:75:7f:c2:fd:
                    73:e7:9e:92:28:4c:7e:71:f5:ce:31:be:b3:3c:5c:
                    52:6d:d7:52:81:d5:21:02:e3:1f:ba:41:75:ae:bb:
                    c5:2f:9a:4c:27:7c:9c:52:96:d1:64:5f:3c:65:b7:
                    d5:8a:d6:62:af:df:71:46:ca:d9:b8:a6:be:35:79:
                    16:60:83:46:e6:83:42:a3:a8:be:5f:86:90:28:21:
                    dd:20:c7:e9:29:03:e7:03:d5:df:5e:40:1c:37:83:
                    dd:21:ba:bd:09:a1:73:2e:3f:38:cc:c3:e9:24:d7:
                    4c:ad:ef:6a:10:19:d9:13:32:e3:ac:9e:df:cb:8e:
                    0d:f9:d4:79:6a:17:3e:36:cf:2d:58:e0:6b:e0:d1:
                    81:10:3a:d6:97:86:60:32:d5:21:59:b8:23:71:f9:
                    cd:b3:07:33:89:4c:72:bd:87:9d:8a:2b:cd:0e:cc:
                    39:df:cb:70:a6:d8:89:03:d2:23:62:3d:99:85:30:
                    b6:e7:60:68:fa:13:1e:b0:76:8f:3d:85:61:c3:f9:
                    33:1d:84:97:52:a1:f7:7a:8c:c2:62:6a:6e:e2:51:
                    81:34:f1:07:99:b1:29:40:76:fe:93:78:2b:4a:6b:
                    ac:af:be:f2:30:18:6b:f3:11:bb:02:b9:e5:5e:5c:
                    bc:57
                Exponent: 65537 (0x10001)
        X509v3 extensions:
            X509v3 Basic Constraints: 
                CA:FALSE
            X509v3 Subject Key Identifier: 
                3E:17:33:90:25:C6:9B:1A:48:D7:8A:62:7D:FC:2B:DC:38:1E:50:CB
            X509v3 Authority Key Identifier: 
                keyid:C2:D3:D9:C9:F3:A6:45:78:C6:2E:2B:FB:85:27:AF:93:6E:B6:8D:74
                DirName:/CN=team71-net
                serial:04:EE:55:E1:BC:C1:ED:37:51:00:4E:05:45:2D:86:BB:34:FE:66:74

            X509v3 Extended Key Usage: 
                TLS Web Server Authentication
            X509v3 Key Usage: 
                Digital Signature, Key Encipherment
            X509v3 Subject Alternative Name: 
                DNS:team71-server
    Signature Algorithm: sha256WithRSAEncryption
         44:cc:2f:42:2c:99:cc:e6:60:48:25:b1:8c:17:99:c0:69:81:
         6b:15:83:86:3c:34:ce:10:86:df:73:f6:59:db:d4:84:a4:42:
         dd:98:f9:1d:04:19:39:ce:30:0b:b2:42:c0:7d:b7:f7:d3:f6:
         5d:92:eb:7a:d9:49:f0:d8:27:b9:f3:e5:ec:06:f9:f9:66:23:
         9a:97:14:ab:ef:1b:9a:c9:07:16:81:55:b7:48:e7:91:70:f9:
         3a:cf:26:32:e0:4b:05:3f:47:29:7b:7d:8e:28:c8:91:a3:5f:
         b9:8c:7d:a5:4d:99:74:3e:70:18:dc:c4:a8:8b:6f:3c:a2:0d:
         6b:71:69:20:65:e9:31:d8:1f:74:fd:48:ce:d5:89:e7:ef:e6:
         43:67:12:2d:c7:1d:d6:44:39:2d:d8:ad:48:9d:e6:08:07:92:
         c7:b3:f2:a0:01:64:a6:04:ac:cd:00:98:84:83:53:54:8b:6a:
         45:9d:69:69:7c:f3:04:c0:f2:6d:8d:97:21:7a:9e:4a:4a:e9:
         e1:91:94:e2:bb:2e:48:35:3c:3f:5d:77:40:7d:4f:d7:e7:a8:
         fe:07:16:bb:e6:9f:a3:fa:76:81:43:73:f3:bc:ea:04:ad:89:
         1d:2f:9a:70:1d:11:e4:f8:b6:a8:2f:e9:9e:59:90:ad:b6:07:
         88:d3:d2:4d
-----BEGIN CERTIFICATE-----
MIIDdDCCAlygAwIBAgIRAPCcdHzXFWw8x4YDpKOfSVYwDQYJKoZIhvcNAQELBQAw
FTETMBEGA1UEAwwKdGVhbTcxLW5ldDAeFw0yMTA5MTIyMzE5MThaFw0yNDA4Mjcy
MzE5MThaMBgxFjAUBgNVBAMMDXRlYW03MS1zZXJ2ZXIwggEiMA0GCSqGSIb3DQEB
AQUAA4IBDwAwggEKAoIBAQDCXilkebtX4I9CdX/C/XPnnpIoTH5x9c4xvrM8XFJt
11KB1SEC4x+6QXWuu8UvmkwnfJxSltFkXzxlt9WK1mKv33FGytm4pr41eRZgg0bm
g0KjqL5fhpAoId0gx+kpA+cD1d9eQBw3g90hur0JoXMuPzjMw+kk10yt72oQGdkT
MuOsnt/Ljg351HlqFz42zy1Y4Gvg0YEQOtaXhmAy1SFZuCNx+c2zBzOJTHK9h52K
K80OzDnfy3Cm2IkD0iNiPZmFMLbnYGj6Ex6wdo89hWHD+TMdhJdSofd6jMJiam7i
UYE08QeZsSlAdv6TeCtKa6yvvvIwGGvzEbsCueVeXLxXAgMBAAGjgbswgbgwCQYD
VR0TBAIwADAdBgNVHQ4EFgQUPhczkCXGmxpI14piffwr3DgeUMswUAYDVR0jBEkw
R4AUwtPZyfOmRXjGLiv7hSevk262jXShGaQXMBUxEzARBgNVBAMMCnRlYW03MS1u
ZXSCFATuVeG8we03UQBOBUUthrs0/mZ0MBMGA1UdJQQMMAoGCCsGAQUFBwMBMAsG
A1UdDwQEAwIFoDAYBgNVHREEETAPgg10ZWFtNzEtc2VydmVyMA0GCSqGSIb3DQEB
CwUAA4IBAQBEzC9CLJnM5mBIJbGMF5nAaYFrFYOGPDTOEIbfc/ZZ29SEpELdmPkd
BBk5zjALskLAfbf30/Zdkut62Unw2Ce58+XsBvn5ZiOalxSr7xuayQcWgVW3SOeR
cPk6zyYy4EsFP0cpe32OKMiRo1+5jH2lTZl0PnAY3MSoi288og1rcWkgZekx2B90
/UjO1Ynn7+ZDZxItxx3WRDkt2K1IneYIB5LHs/KgAWSmBKzNAJiEg1NUi2pFnWlp
fPMEwPJtjZchep5KSunhkZTiuy5INTw/XXdAfU/X56j+Bxa75p+j+naBQ3PzvOoE
rYkdL5pwHRHk+LaoL+meWZCttgeI09JN
-----END CERTIFICATE-----
