Certificate:
    Data:
        Version: 3 (0x2)
        Serial Number:
            64:1b:e9:30:62:62:ed:c2:0c:99:3f:7b:55:48:04:0c
        Signature Algorithm: sha256WithRSAEncryption
        Issuer: CN=team411-net
        Validity
            Not Before: Sep 13 02:24:32 2021 GMT
            Not After : Aug 28 02:24:32 2024 GMT
        Subject: CN=team411-client
        Subject Public Key Info:
            Public Key Algorithm: rsaEncryption
                RSA Public-Key: (2048 bit)
                Modulus:
                    00:ef:f8:19:ee:40:63:4a:b1:47:ac:38:4a:d4:89:
                    ab:93:56:13:1e:c4:82:01:54:65:47:d3:40:ee:d2:
                    8c:35:29:83:1b:f1:96:6b:b3:21:54:a3:1a:11:6f:
                    91:00:a7:45:74:f2:52:d1:9a:bb:49:8c:d5:bc:ea:
                    dd:9c:0e:e3:e8:e3:16:ec:c4:4c:ba:96:56:ea:77:
                    fd:1b:14:62:e1:ef:c3:af:4b:b2:6b:6c:6e:b3:13:
                    4c:3a:10:44:80:c5:d7:28:4b:d5:ea:a2:cf:2d:7e:
                    61:cc:3a:0d:43:2a:5f:52:c5:e0:0c:9b:89:c9:5e:
                    d2:00:6f:a0:cf:f9:58:1c:84:4e:f9:7c:ad:8d:39:
                    9f:f7:5f:df:1c:ce:2a:40:e1:86:75:94:f2:05:ad:
                    d3:29:c2:23:bf:b4:b3:fb:37:ab:95:d8:65:35:c1:
                    e9:05:ca:4a:ad:e2:66:fa:98:bd:95:71:d6:06:42:
                    45:29:cc:35:cb:13:2c:a3:38:9e:7d:b9:79:ab:36:
                    e7:78:d0:f7:de:47:cb:81:f3:ee:23:92:1c:98:85:
                    6b:90:53:0d:b4:b8:f9:02:d0:71:a6:8e:29:b4:a2:
                    8d:6b:40:f1:da:22:61:1f:23:39:ae:f4:61:f1:7f:
                    fa:84:1e:71:7c:ec:d8:bc:75:12:37:1b:49:09:59:
                    7f:69
                Exponent: 65537 (0x10001)
        X509v3 extensions:
            X509v3 Basic Constraints: 
                CA:FALSE
            X509v3 Subject Key Identifier: 
                58:46:93:91:93:3E:7F:C8:9B:D2:68:69:00:26:7B:EA:95:29:58:63
            X509v3 Authority Key Identifier: 
                keyid:F7:50:8C:F0:D1:A2:1F:77:EE:1B:3E:9A:C5:5F:94:E1:D5:3A:35:50
                DirName:/CN=team411-net
                serial:25:6A:77:FE:90:DD:EB:48:A9:64:45:A2:F0:64:5B:A3:71:4E:84:91

            X509v3 Extended Key Usage: 
                TLS Web Client Authentication
            X509v3 Key Usage: 
                Digital Signature
    Signature Algorithm: sha256WithRSAEncryption
         7f:48:98:92:6e:10:d0:2f:0e:cc:da:3a:75:4c:35:5c:28:f6:
         17:c0:4c:0d:e6:65:9b:90:19:b8:c8:59:af:7b:52:72:3e:71:
         b1:a8:88:5d:89:9b:14:72:89:31:1e:f1:18:ec:de:d6:f8:7d:
         ac:bb:08:61:b5:c5:5b:b3:c8:40:fd:90:c5:8d:e4:fb:e7:ec:
         61:a0:cc:3f:25:46:9b:83:66:2b:06:18:31:5a:95:a1:11:9f:
         34:87:6f:b2:ff:4e:9a:79:e6:cb:bb:80:05:15:11:57:31:6e:
         85:0a:c6:e5:e9:2e:14:62:a8:e7:7e:dc:48:11:7c:eb:12:fb:
         c5:84:e4:00:05:14:36:5e:97:16:5f:ff:6a:7c:fd:71:86:5f:
         98:cc:e8:bd:83:85:00:04:cd:ed:00:01:b1:18:73:77:a4:40:
         db:74:17:06:4a:85:2a:5d:1c:5c:f3:be:3a:7c:e9:7a:0f:e4:
         db:60:ba:6c:ee:44:8e:9c:48:75:c1:c2:5e:78:6d:24:35:47:
         4a:de:35:06:33:f2:13:d5:e2:8d:95:c9:1a:ed:95:e4:d8:cc:
         c2:52:59:69:9c:54:8d:1d:86:89:96:45:12:52:f1:5e:33:8d:
         1b:0d:fa:65:1a:94:a0:1b:09:41:0e:ae:92:24:bb:46:f6:20:
         33:97:8d:07
-----BEGIN CERTIFICATE-----
MIIDXDCCAkSgAwIBAgIQZBvpMGJi7cIMmT97VUgEDDANBgkqhkiG9w0BAQsFADAW
MRQwEgYDVQQDDAt0ZWFtNDExLW5ldDAeFw0yMTA5MTMwMjI0MzJaFw0yNDA4Mjgw
MjI0MzJaMBkxFzAVBgNVBAMMDnRlYW00MTEtY2xpZW50MIIBIjANBgkqhkiG9w0B
AQEFAAOCAQ8AMIIBCgKCAQEA7/gZ7kBjSrFHrDhK1Imrk1YTHsSCAVRlR9NA7tKM
NSmDG/GWa7MhVKMaEW+RAKdFdPJS0Zq7SYzVvOrdnA7j6OMW7MRMupZW6nf9GxRi
4e/Dr0uya2xusxNMOhBEgMXXKEvV6qLPLX5hzDoNQypfUsXgDJuJyV7SAG+gz/lY
HIRO+XytjTmf91/fHM4qQOGGdZTyBa3TKcIjv7Sz+zerldhlNcHpBcpKreJm+pi9
lXHWBkJFKcw1yxMsoziefbl5qzbneND33kfLgfPuI5IcmIVrkFMNtLj5AtBxpo4p
tKKNa0Dx2iJhHyM5rvRh8X/6hB5xfOzYvHUSNxtJCVl/aQIDAQABo4GiMIGfMAkG
A1UdEwQCMAAwHQYDVR0OBBYEFFhGk5GTPn/Im9JoaQAme+qVKVhjMFEGA1UdIwRK
MEiAFPdQjPDRoh937hs+msVflOHVOjVQoRqkGDAWMRQwEgYDVQQDDAt0ZWFtNDEx
LW5ldIIUJWp3/pDd60ipZEWi8GRbo3FOhJEwEwYDVR0lBAwwCgYIKwYBBQUHAwIw
CwYDVR0PBAQDAgeAMA0GCSqGSIb3DQEBCwUAA4IBAQB/SJiSbhDQLw7M2jp1TDVc
KPYXwEwN5mWbkBm4yFmve1JyPnGxqIhdiZsUcokxHvEY7N7W+H2suwhhtcVbs8hA
/ZDFjeT75+xhoMw/JUabg2YrBhgxWpWhEZ80h2+y/06aeebLu4AFFRFXMW6FCsbl
6S4UYqjnftxIEXzrEvvFhOQABRQ2XpcWX/9qfP1xhl+YzOi9g4UABM3tAAGxGHN3
pEDbdBcGSoUqXRxc8746fOl6D+TbYLps7kSOnEh1wcJeeG0kNUdK3jUGM/IT1eKN
lcka7ZXk2MzCUllpnFSNHYaJlkUSUvFeM40bDfplGpSgGwlBDq6SJLtG9iAzl40H
-----END CERTIFICATE-----
