Certificate:
    Data:
        Version: 3 (0x2)
        Serial Number:
            e0:78:12:5a:c0:54:36:30:b6:fe:3d:1f:4a:f9:34:8e
        Signature Algorithm: sha256WithRSAEncryption
        Issuer: CN=team534-net
        Validity
            Not Before: Sep 13 03:24:06 2021 GMT
            Not After : Aug 28 03:24:06 2024 GMT
        Subject: CN=team534-client
        Subject Public Key Info:
            Public Key Algorithm: rsaEncryption
                RSA Public-Key: (2048 bit)
                Modulus:
                    00:c2:13:7b:46:a6:9a:52:65:27:5b:4b:9f:5d:d2:
                    81:f7:28:ed:97:2f:25:bc:11:d6:3d:92:91:47:68:
                    0d:cc:a0:a1:d7:78:3d:c4:78:90:12:dd:83:d7:1a:
                    f6:55:43:40:1a:2c:48:f5:82:48:3d:6e:74:60:7e:
                    1a:56:c5:cf:e9:06:d9:f0:db:25:93:ed:e5:0a:e0:
                    2f:8a:bd:5f:fc:99:c6:d7:1f:1b:f5:bf:2c:13:de:
                    6f:f2:e7:20:42:01:a2:0a:87:21:6c:3b:dd:8e:9d:
                    a9:f6:cd:97:03:ec:93:7a:13:fe:3e:5d:4c:03:35:
                    06:b4:4a:6b:8c:4c:48:de:33:27:33:89:ca:bb:c1:
                    aa:db:9e:9b:46:fb:04:4d:c4:cb:2f:8d:46:b4:f3:
                    4f:b1:93:e8:0c:b0:cb:6a:48:33:22:3b:33:fd:01:
                    c7:09:09:dd:8a:22:fa:b2:83:3d:51:16:a0:b0:03:
                    39:0b:16:49:6e:b3:a1:01:04:0c:f1:a9:66:e4:25:
                    c0:3d:00:ee:3d:e4:04:9e:46:82:47:9e:96:c0:42:
                    8f:18:c5:e6:69:9b:dc:59:27:86:4d:b9:73:23:76:
                    1c:e1:49:96:d0:a4:fd:35:19:84:a6:51:ae:69:f2:
                    43:a5:4b:1e:42:63:e8:8e:04:45:8c:64:f4:09:b4:
                    c0:0f
                Exponent: 65537 (0x10001)
        X509v3 extensions:
            X509v3 Basic Constraints: 
                CA:FALSE
            X509v3 Subject Key Identifier: 
                DD:38:6D:18:49:D7:1E:73:B6:91:EF:1E:E9:01:2F:0C:BC:9A:30:3E
            X509v3 Authority Key Identifier: 
                keyid:13:20:B7:F8:A7:55:95:20:B1:6C:82:EE:87:5E:85:81:3C:B0:35:9D
                DirName:/CN=team534-net
                serial:3B:A0:CE:B4:07:D4:C4:E7:91:9A:5C:D7:2C:E8:52:4B:AF:7D:D0:A9

            X509v3 Extended Key Usage: 
                TLS Web Client Authentication
            X509v3 Key Usage: 
                Digital Signature
    Signature Algorithm: sha256WithRSAEncryption
         5b:80:3c:6e:03:ed:53:8c:d3:47:6e:3d:75:a4:a4:5b:e8:fe:
         a8:b6:39:4e:1d:18:f2:de:0f:19:cb:e8:0a:00:75:a7:48:3e:
         ee:d4:05:6a:fc:9e:20:b3:08:e6:98:64:fe:ba:d0:a5:34:c5:
         1b:9a:b0:d3:5f:54:70:ec:e8:8e:7f:9e:cd:b6:9e:ea:10:6a:
         78:f6:7a:34:09:c3:67:24:7f:25:e4:b9:55:ee:f5:66:46:d0:
         f9:8a:b9:6f:eb:a9:48:e9:0d:66:e2:1d:5b:ba:34:38:65:31:
         64:2b:c0:ee:70:05:52:d8:d8:b9:e1:e1:45:ba:70:7b:32:3f:
         47:98:a5:38:44:18:9a:af:74:09:75:78:65:3b:21:da:c0:96:
         57:71:4d:05:2d:d8:57:88:83:a3:e0:4b:e5:dc:e6:1c:9b:ec:
         d3:3f:0c:4d:04:71:51:54:c7:d7:a9:d1:2b:49:55:6f:a0:41:
         df:f2:c1:e3:d0:f8:ef:e1:4a:8d:92:fd:1b:ae:85:17:b9:29:
         da:05:63:d4:69:d4:1e:7e:eb:27:ce:2f:16:30:9c:62:1f:28:
         ce:b3:6d:92:21:dd:ca:3a:22:cf:f0:da:e0:b2:2e:48:48:e5:
         d4:ac:b7:87:11:4c:f9:fc:e6:f9:98:19:30:5e:f1:81:d3:6a:
         17:18:1d:cd
-----BEGIN CERTIFICATE-----
MIIDXTCCAkWgAwIBAgIRAOB4ElrAVDYwtv49H0r5NI4wDQYJKoZIhvcNAQELBQAw
FjEUMBIGA1UEAwwLdGVhbTUzNC1uZXQwHhcNMjEwOTEzMDMyNDA2WhcNMjQwODI4
MDMyNDA2WjAZMRcwFQYDVQQDDA50ZWFtNTM0LWNsaWVudDCCASIwDQYJKoZIhvcN
AQEBBQADggEPADCCAQoCggEBAMITe0ammlJlJ1tLn13Sgfco7ZcvJbwR1j2SkUdo
Dcygodd4PcR4kBLdg9ca9lVDQBosSPWCSD1udGB+GlbFz+kG2fDbJZPt5QrgL4q9
X/yZxtcfG/W/LBPeb/LnIEIBogqHIWw73Y6dqfbNlwPsk3oT/j5dTAM1BrRKa4xM
SN4zJzOJyrvBqtuem0b7BE3Eyy+NRrTzT7GT6Aywy2pIMyI7M/0BxwkJ3Yoi+rKD
PVEWoLADOQsWSW6zoQEEDPGpZuQlwD0A7j3kBJ5GgkeelsBCjxjF5mmb3Fknhk25
cyN2HOFJltCk/TUZhKZRrmnyQ6VLHkJj6I4ERYxk9Am0wA8CAwEAAaOBojCBnzAJ
BgNVHRMEAjAAMB0GA1UdDgQWBBTdOG0YSdcec7aR7x7pAS8MvJowPjBRBgNVHSME
SjBIgBQTILf4p1WVILFsgu6HXoWBPLA1naEapBgwFjEUMBIGA1UEAwwLdGVhbTUz
NC1uZXSCFDugzrQH1MTnkZpc1yzoUkuvfdCpMBMGA1UdJQQMMAoGCCsGAQUFBwMC
MAsGA1UdDwQEAwIHgDANBgkqhkiG9w0BAQsFAAOCAQEAW4A8bgPtU4zTR249daSk
W+j+qLY5Th0Y8t4PGcvoCgB1p0g+7tQFavyeILMI5phk/rrQpTTFG5qw019UcOzo
jn+ezbae6hBqePZ6NAnDZyR/JeS5Ve71ZkbQ+Yq5b+upSOkNZuIdW7o0OGUxZCvA
7nAFUtjYueHhRbpwezI/R5ilOEQYmq90CXV4ZTsh2sCWV3FNBS3YV4iDo+BL5dzm
HJvs0z8MTQRxUVTH16nRK0lVb6BB3/LB49D47+FKjZL9G66FF7kp2gVj1GnUHn7r
J84vFjCcYh8ozrNtkiHdyjoiz/Da4LIuSEjl1Ky3hxFM+fzm+ZgZMF7xgdNqFxgd
zQ==
-----END CERTIFICATE-----
