Certificate:
    Data:
        Version: 3 (0x2)
        Serial Number:
            0d:f2:77:b1:9c:51:d5:96:c8:11:92:95:0d:e3:e0:fc
        Signature Algorithm: sha256WithRSAEncryption
        Issuer: CN=team618-net
        Validity
            Not Before: Sep 13 04:09:36 2021 GMT
            Not After : Aug 28 04:09:36 2024 GMT
        Subject: CN=team618-client
        Subject Public Key Info:
            Public Key Algorithm: rsaEncryption
                RSA Public-Key: (2048 bit)
                Modulus:
                    00:b7:98:ec:7b:3f:f3:66:61:db:44:0c:8b:17:41:
                    7d:e3:9f:5c:d1:d9:19:8c:9b:84:f4:06:d7:4e:79:
                    05:23:03:10:20:b2:e7:6d:48:36:73:98:84:8f:8a:
                    fe:43:08:f2:3d:42:70:e4:7b:04:af:4b:d4:da:80:
                    dc:77:d6:a5:15:d9:4b:53:be:23:f9:35:49:54:ca:
                    1a:54:17:fa:3f:e6:38:11:a5:66:48:14:59:cd:d6:
                    af:34:90:b8:70:87:d0:79:1a:1e:7f:0c:64:99:9a:
                    50:64:c6:cb:65:c3:5d:da:5a:2a:0a:09:f5:23:5b:
                    75:c8:f5:3f:94:70:32:83:54:cc:b5:37:09:b4:53:
                    1a:f6:3d:72:90:5b:e1:37:09:fb:bf:ea:dc:e5:6f:
                    e7:66:03:a5:d8:67:ef:3e:49:4d:f9:85:25:1c:c8:
                    42:20:0f:47:fe:06:e8:d6:43:fc:f6:16:79:11:64:
                    a8:f8:8c:2c:5d:9e:d8:3f:a1:f2:2f:94:27:11:ce:
                    42:33:7e:57:9b:31:14:8e:fc:0c:81:4d:f5:8b:0b:
                    cc:db:5e:e0:68:56:95:3e:38:66:b2:82:d5:6f:ab:
                    0e:dc:a2:e6:99:cd:b2:fa:82:e8:98:9c:91:e9:b5:
                    3d:68:3d:88:96:80:d0:66:8f:c6:7a:b4:c4:57:10:
                    cb:b3
                Exponent: 65537 (0x10001)
        X509v3 extensions:
            X509v3 Basic Constraints: 
                CA:FALSE
            X509v3 Subject Key Identifier: 
                32:3E:67:1A:20:8C:47:BD:20:C0:48:4D:23:7B:27:4F:A6:74:F9:EC
            X509v3 Authority Key Identifier: 
                keyid:64:CA:D9:99:7C:7C:DE:43:11:95:D0:36:73:F9:0B:D1:AB:C9:37:55
                DirName:/CN=team618-net
                serial:37:E6:61:D4:90:7C:CE:EC:AC:4D:6D:BC:5D:CB:DA:6C:B2:71:34:CE

            X509v3 Extended Key Usage: 
                TLS Web Client Authentication
            X509v3 Key Usage: 
                Digital Signature
    Signature Algorithm: sha256WithRSAEncryption
         b4:f1:af:18:06:86:c3:04:2b:e9:21:1a:d4:2f:5b:b1:d0:6e:
         d8:87:35:26:a6:97:2a:96:8d:8b:2c:a1:df:64:77:02:08:48:
         52:e2:72:e6:84:8d:ce:30:c0:d7:67:4a:1e:da:03:66:bd:0f:
         2a:1f:e9:af:47:33:46:ee:7b:b5:94:59:77:c9:91:f4:6c:3e:
         95:bd:53:07:5b:64:a2:da:25:55:01:cd:58:c0:40:d2:59:9c:
         54:66:60:97:c7:65:73:a4:bb:db:07:5e:64:9c:bb:50:0e:ee:
         d4:ed:33:12:d7:b0:3c:97:80:5d:2e:80:48:49:1f:fd:20:2c:
         a5:46:78:39:63:63:9a:37:61:02:a8:97:1e:4c:8b:69:09:bf:
         c1:90:e3:e8:0d:0c:71:89:ea:fa:6d:5d:bb:3a:19:9b:ce:78:
         c1:92:25:48:51:ac:59:8c:53:3d:dd:9c:87:65:c5:39:2a:69:
         f8:38:b3:ff:1d:2f:28:ad:eb:ac:7b:59:f4:ab:1e:72:28:94:
         f9:4c:6c:26:d5:fc:42:b1:db:b1:6a:5b:71:4d:8c:f3:14:73:
         2f:fd:ab:b8:d3:38:0b:08:33:b8:aa:7b:e3:a3:dd:74:97:2d:
         80:31:46:47:dc:50:8d:ab:9a:00:88:a7:6d:ed:56:8a:ba:76:
         c4:3d:0e:17
-----BEGIN CERTIFICATE-----
MIIDXDCCAkSgAwIBAgIQDfJ3sZxR1ZbIEZKVDePg/DANBgkqhkiG9w0BAQsFADAW
MRQwEgYDVQQDDAt0ZWFtNjE4LW5ldDAeFw0yMTA5MTMwNDA5MzZaFw0yNDA4Mjgw
NDA5MzZaMBkxFzAVBgNVBAMMDnRlYW02MTgtY2xpZW50MIIBIjANBgkqhkiG9w0B
AQEFAAOCAQ8AMIIBCgKCAQEAt5jsez/zZmHbRAyLF0F9459c0dkZjJuE9AbXTnkF
IwMQILLnbUg2c5iEj4r+QwjyPUJw5HsEr0vU2oDcd9alFdlLU74j+TVJVMoaVBf6
P+Y4EaVmSBRZzdavNJC4cIfQeRoefwxkmZpQZMbLZcNd2loqCgn1I1t1yPU/lHAy
g1TMtTcJtFMa9j1ykFvhNwn7v+rc5W/nZgOl2GfvPklN+YUlHMhCIA9H/gbo1kP8
9hZ5EWSo+IwsXZ7YP6HyL5QnEc5CM35XmzEUjvwMgU31iwvM217gaFaVPjhmsoLV
b6sO3KLmmc2y+oLomJyR6bU9aD2IloDQZo/GerTEVxDLswIDAQABo4GiMIGfMAkG
A1UdEwQCMAAwHQYDVR0OBBYEFDI+ZxogjEe9IMBITSN7J0+mdPnsMFEGA1UdIwRK
MEiAFGTK2Zl8fN5DEZXQNnP5C9GryTdVoRqkGDAWMRQwEgYDVQQDDAt0ZWFtNjE4
LW5ldIIUN+Zh1JB8zuysTW28XcvabLJxNM4wEwYDVR0lBAwwCgYIKwYBBQUHAwIw
CwYDVR0PBAQDAgeAMA0GCSqGSIb3DQEBCwUAA4IBAQC08a8YBobDBCvpIRrUL1ux
0G7YhzUmppcqlo2LLKHfZHcCCEhS4nLmhI3OMMDXZ0oe2gNmvQ8qH+mvRzNG7nu1
lFl3yZH0bD6VvVMHW2Si2iVVAc1YwEDSWZxUZmCXx2VzpLvbB15knLtQDu7U7TMS
17A8l4BdLoBISR/9ICylRng5Y2OaN2ECqJceTItpCb/BkOPoDQxxier6bV27Ohmb
znjBkiVIUaxZjFM93ZyHZcU5Kmn4OLP/HS8oreuse1n0qx5yKJT5TGwm1fxCsdux
altxTYzzFHMv/au40zgLCDO4qnvjo910ly2AMUZH3FCNq5oAiKdt7VaKunbEPQ4X
-----END CERTIFICATE-----
