Certificate:
    Data:
        Version: 3 (0x2)
        Serial Number:
            4b:03:2f:0c:a3:62:21:bb:18:9e:0f:8e:55:73:4b:f1
        Signature Algorithm: sha256WithRSAEncryption
        Issuer: CN=team656-net
        Validity
            Not Before: Sep 13 04:52:43 2021 GMT
            Not After : Aug 28 04:52:43 2024 GMT
        Subject: CN=team656-server
        Subject Public Key Info:
            Public Key Algorithm: rsaEncryption
                RSA Public-Key: (2048 bit)
                Modulus:
                    00:dc:fc:ee:17:67:6a:ed:dc:17:1d:c3:a3:90:a6:
                    a6:fb:6e:26:f8:d5:cc:a1:12:8e:8c:ef:51:38:90:
                    d3:c7:41:21:ef:4a:fa:a3:bb:09:3f:2b:18:7f:4e:
                    a9:2c:5d:ab:3d:42:01:1d:b0:8b:2d:96:c9:4d:af:
                    07:4c:09:8f:cd:2a:d1:d4:07:c9:7e:4b:4e:cd:4b:
                    a2:0c:1f:ea:ad:05:fd:ca:51:b6:c4:48:8a:6b:65:
                    2e:19:b3:97:ec:91:b9:f6:e2:7c:02:9e:61:75:2c:
                    cc:fb:ba:df:78:07:7c:c2:02:10:f1:8a:61:e0:c7:
                    2f:db:3a:82:dd:51:18:d9:2f:86:5d:b8:fd:c4:6f:
                    96:4d:1b:57:a2:7d:30:21:b1:f1:bd:c2:86:55:64:
                    a3:72:fb:0d:d7:fa:ce:bc:f7:e6:53:ba:ba:c3:9c:
                    11:9e:e1:74:b0:b5:be:46:1f:bc:04:ac:a3:ab:eb:
                    d4:8c:f8:01:75:a5:73:a9:53:68:76:10:44:26:a2:
                    8b:50:b5:27:21:80:30:6c:fe:83:9f:9c:a4:7c:be:
                    6f:8e:ed:a0:02:09:6e:75:f4:ae:00:8b:b4:62:4b:
                    f1:92:94:e5:cc:b1:ff:58:bb:24:18:86:21:21:cc:
                    66:0b:24:62:62:52:be:b2:76:b7:df:9d:c6:33:75:
                    10:37
                Exponent: 65537 (0x10001)
        X509v3 extensions:
            X509v3 Basic Constraints: 
                CA:FALSE
            X509v3 Subject Key Identifier: 
                4B:56:0C:41:78:61:4F:C6:6E:BB:71:3D:CD:E6:82:00:B0:8B:7E:D8
            X509v3 Authority Key Identifier: 
                keyid:AB:D9:A5:71:D4:97:B4:BA:6B:09:43:EF:48:3E:24:84:0C:32:1C:CB
                DirName:/CN=team656-net
                serial:2C:CF:E4:3A:94:81:59:F8:54:4F:D6:6A:DA:EF:70:F4:C5:D9:C0:49

            X509v3 Extended Key Usage: 
                TLS Web Server Authentication
            X509v3 Key Usage: 
                Digital Signature, Key Encipherment
            X509v3 Subject Alternative Name: 
                DNS:team656-server
    Signature Algorithm: sha256WithRSAEncryption
         af:89:08:12:2f:ee:c5:b2:7b:f8:27:d2:25:83:77:e3:07:44:
         77:f1:4f:60:51:9a:59:bd:ba:17:82:8f:b7:9d:c2:ee:b4:24:
         9d:25:f2:1e:af:72:50:c0:e2:02:f6:98:cf:7e:5f:f3:99:a7:
         f4:ba:49:e7:d2:5d:44:6e:54:5e:ea:23:c1:7f:cb:cd:fe:ae:
         cd:6d:6c:64:5e:a5:43:49:b5:68:62:fd:71:ca:bb:fb:2c:39:
         eb:b5:d4:b8:ed:67:f7:67:63:8b:17:f1:f7:71:03:60:04:0a:
         82:23:7c:e2:e4:ee:86:30:43:83:35:5b:42:20:1b:6e:32:c3:
         0d:fd:1c:0f:8c:13:cd:23:65:76:59:a4:cf:03:3c:09:5d:f5:
         01:a4:d6:ef:6b:6b:76:ff:d0:61:c2:6b:e6:d3:a5:cd:5f:c4:
         bd:0a:49:85:56:f6:e9:44:db:64:6a:0a:7c:74:25:51:20:7f:
         b6:0a:a4:40:d3:42:6d:63:94:c3:ae:2f:2a:7f:6b:8a:0a:ef:
         5f:76:27:89:25:bf:32:d2:6f:b4:01:06:a7:eb:2a:80:21:f1:
         01:85:eb:05:e3:4b:b9:fc:fd:5a:c6:f2:3a:ea:eb:2b:b5:50:
         ee:64:f6:db:ce:42:64:bc:f4:50:50:9e:a5:7e:cc:3b:72:3d:
         7f:52:fa:74
-----BEGIN CERTIFICATE-----
MIIDdzCCAl+gAwIBAgIQSwMvDKNiIbsYng+OVXNL8TANBgkqhkiG9w0BAQsFADAW
MRQwEgYDVQQDDAt0ZWFtNjU2LW5ldDAeFw0yMTA5MTMwNDUyNDNaFw0yNDA4Mjgw
NDUyNDNaMBkxFzAVBgNVBAMMDnRlYW02NTYtc2VydmVyMIIBIjANBgkqhkiG9w0B
AQEFAAOCAQ8AMIIBCgKCAQEA3PzuF2dq7dwXHcOjkKam+24m+NXMoRKOjO9ROJDT
x0Eh70r6o7sJPysYf06pLF2rPUIBHbCLLZbJTa8HTAmPzSrR1AfJfktOzUuiDB/q
rQX9ylG2xEiKa2UuGbOX7JG59uJ8Ap5hdSzM+7rfeAd8wgIQ8Yph4Mcv2zqC3VEY
2S+GXbj9xG+WTRtXon0wIbHxvcKGVWSjcvsN1/rOvPfmU7q6w5wRnuF0sLW+Rh+8
BKyjq+vUjPgBdaVzqVNodhBEJqKLULUnIYAwbP6Dn5ykfL5vju2gAgludfSuAIu0
YkvxkpTlzLH/WLskGIYhIcxmCyRiYlK+sna3353GM3UQNwIDAQABo4G9MIG6MAkG
A1UdEwQCMAAwHQYDVR0OBBYEFEtWDEF4YU/GbrtxPc3mggCwi37YMFEGA1UdIwRK
MEiAFKvZpXHUl7S6awlD70g+JIQMMhzLoRqkGDAWMRQwEgYDVQQDDAt0ZWFtNjU2
LW5ldIIULM/kOpSBWfhUT9Zq2u9w9MXZwEkwEwYDVR0lBAwwCgYIKwYBBQUHAwEw
CwYDVR0PBAQDAgWgMBkGA1UdEQQSMBCCDnRlYW02NTYtc2VydmVyMA0GCSqGSIb3
DQEBCwUAA4IBAQCviQgSL+7Fsnv4J9Ilg3fjB0R38U9gUZpZvboXgo+3ncLutCSd
JfIer3JQwOIC9pjPfl/zmaf0uknn0l1EblRe6iPBf8vN/q7NbWxkXqVDSbVoYv1x
yrv7LDnrtdS47Wf3Z2OLF/H3cQNgBAqCI3zi5O6GMEODNVtCIBtuMsMN/RwPjBPN
I2V2WaTPAzwJXfUBpNbva2t2/9Bhwmvm06XNX8S9CkmFVvbpRNtkagp8dCVRIH+2
CqRA00JtY5TDri8qf2uKCu9fdieJJb8y0m+0AQan6yqAIfEBhesF40u5/P1axvI6
6usrtVDuZPbbzkJkvPRQUJ6lfsw7cj1/Uvp0
-----END CERTIFICATE-----
