Certificate:
    Data:
        Version: 3 (0x2)
        Serial Number:
            92:0f:8d:15:4c:ca:c6:5e:01:23:c6:90:a9:81:c5:62
        Signature Algorithm: sha256WithRSAEncryption
        Issuer: CN=team565-net
        Validity
            Not Before: Sep 13 03:55:44 2021 GMT
            Not After : Aug 28 03:55:44 2024 GMT
        Subject: CN=team565-server
        Subject Public Key Info:
            Public Key Algorithm: rsaEncryption
                RSA Public-Key: (2048 bit)
                Modulus:
                    00:a0:d1:e1:15:1a:d0:c1:2a:f5:c3:ac:8d:cf:65:
                    f0:8f:f8:24:f1:c2:ec:78:ab:42:e8:c5:9a:17:28:
                    e4:83:c2:5a:1c:b7:d9:ce:61:b9:54:b9:56:89:81:
                    e6:5b:8e:c1:51:7e:b6:7c:a2:6f:5f:4e:eb:80:19:
                    dd:51:91:99:23:d0:f7:33:6d:6e:3c:54:75:0d:44:
                    b3:05:7f:f0:de:ca:48:1b:d2:3a:f9:37:a0:87:06:
                    80:93:2a:61:1f:54:34:ed:73:fe:dd:9f:a4:15:07:
                    18:29:4c:54:6f:a9:d3:84:b6:0f:4d:42:c9:05:6b:
                    05:e1:98:4b:75:22:d0:12:29:07:46:bf:86:98:e0:
                    9c:b8:5c:76:6e:27:84:39:ba:6a:6a:eb:9b:f2:91:
                    22:cc:41:2d:60:c9:95:48:48:e6:79:90:94:c7:1b:
                    88:a3:08:44:b6:c4:59:4d:84:75:1d:fa:a3:e4:a1:
                    f0:89:11:cb:25:d6:37:70:b5:55:f9:34:47:a1:f5:
                    49:4f:9a:c6:0f:d7:3e:9e:66:ef:a8:44:09:fd:30:
                    8e:ad:ed:33:f7:fd:32:53:10:37:20:07:46:32:34:
                    57:dd:40:12:3f:90:a0:8b:0d:f0:05:10:bd:4d:32:
                    de:9b:ee:2e:a7:c8:ce:ad:3d:f5:f4:26:e8:89:01:
                    17:91
                Exponent: 65537 (0x10001)
        X509v3 extensions:
            X509v3 Basic Constraints: 
                CA:FALSE
            X509v3 Subject Key Identifier: 
                B6:E5:2A:9F:A3:BF:36:80:9C:6F:D9:48:3A:2C:0E:3C:48:BA:5C:AF
            X509v3 Authority Key Identifier: 
                keyid:73:84:E0:C6:35:82:F3:8A:40:89:20:77:F5:A5:63:AA:FD:D9:AB:B5
                DirName:/CN=team565-net
                serial:23:7C:A8:71:2C:A8:FF:E6:EF:9B:D2:4F:61:FD:32:DA:32:55:B8:3D

            X509v3 Extended Key Usage: 
                TLS Web Server Authentication
            X509v3 Key Usage: 
                Digital Signature, Key Encipherment
            X509v3 Subject Alternative Name: 
                DNS:team565-server
    Signature Algorithm: sha256WithRSAEncryption
         6e:7c:ac:03:57:9f:3f:06:b6:44:8f:3e:8a:db:92:e5:75:4b:
         7a:92:f5:63:01:fb:b8:54:ad:b5:e0:41:1a:dc:11:dc:6b:ab:
         c2:bd:28:0d:03:92:cc:d7:20:93:37:24:d5:63:eb:aa:53:94:
         d1:64:c2:56:bc:0d:84:fe:98:9e:e1:cc:d9:04:2f:74:5a:5c:
         74:7d:25:bc:1d:3c:3a:3c:f2:2a:89:bd:1c:a3:46:75:a2:3e:
         4b:3a:ba:9c:25:15:b7:dd:16:f2:63:6a:f4:65:a6:34:20:d0:
         1a:7d:e4:7e:1a:0e:80:4a:d5:71:38:55:d1:a2:23:7b:17:8e:
         e0:4a:70:4b:7b:0a:50:0c:29:3a:2a:b1:6e:01:4c:3c:b5:b2:
         c3:c0:00:7f:29:7a:96:0f:0f:6e:c2:26:90:fe:87:6e:1a:1a:
         b8:c0:77:e8:fa:0e:cb:88:58:e1:19:1f:e6:be:88:43:9c:60:
         51:33:94:dc:3e:62:85:be:1a:09:82:85:dc:92:61:a9:95:d9:
         4a:88:bd:a4:80:da:eb:47:08:70:80:58:8d:13:8d:bf:f6:47:
         27:89:b8:98:28:29:19:37:fa:68:e4:c1:bc:07:03:c3:e4:da:
         3a:b3:81:62:3b:95:92:96:e9:c3:09:cf:72:be:23:57:5a:16:
         38:0e:e1:5f
-----BEGIN CERTIFICATE-----
MIIDeDCCAmCgAwIBAgIRAJIPjRVMysZeASPGkKmBxWIwDQYJKoZIhvcNAQELBQAw
FjEUMBIGA1UEAwwLdGVhbTU2NS1uZXQwHhcNMjEwOTEzMDM1NTQ0WhcNMjQwODI4
MDM1NTQ0WjAZMRcwFQYDVQQDDA50ZWFtNTY1LXNlcnZlcjCCASIwDQYJKoZIhvcN
AQEBBQADggEPADCCAQoCggEBAKDR4RUa0MEq9cOsjc9l8I/4JPHC7HirQujFmhco
5IPCWhy32c5huVS5VomB5luOwVF+tnyib19O64AZ3VGRmSPQ9zNtbjxUdQ1EswV/
8N7KSBvSOvk3oIcGgJMqYR9UNO1z/t2fpBUHGClMVG+p04S2D01CyQVrBeGYS3Ui
0BIpB0a/hpjgnLhcdm4nhDm6amrrm/KRIsxBLWDJlUhI5nmQlMcbiKMIRLbEWU2E
dR36o+Sh8IkRyyXWN3C1Vfk0R6H1SU+axg/XPp5m76hECf0wjq3tM/f9MlMQNyAH
RjI0V91AEj+QoIsN8AUQvU0y3pvuLqfIzq099fQm6IkBF5ECAwEAAaOBvTCBujAJ
BgNVHRMEAjAAMB0GA1UdDgQWBBS25Sqfo782gJxv2Ug6LA48SLpcrzBRBgNVHSME
SjBIgBRzhODGNYLzikCJIHf1pWOq/dmrtaEapBgwFjEUMBIGA1UEAwwLdGVhbTU2
NS1uZXSCFCN8qHEsqP/m75vST2H9MtoyVbg9MBMGA1UdJQQMMAoGCCsGAQUFBwMB
MAsGA1UdDwQEAwIFoDAZBgNVHREEEjAQgg50ZWFtNTY1LXNlcnZlcjANBgkqhkiG
9w0BAQsFAAOCAQEAbnysA1efPwa2RI8+ituS5XVLepL1YwH7uFStteBBGtwR3Gur
wr0oDQOSzNcgkzck1WPrqlOU0WTCVrwNhP6YnuHM2QQvdFpcdH0lvB08OjzyKom9
HKNGdaI+Szq6nCUVt90W8mNq9GWmNCDQGn3kfhoOgErVcThV0aIjexeO4EpwS3sK
UAwpOiqxbgFMPLWyw8AAfyl6lg8PbsImkP6HbhoauMB36PoOy4hY4Rkf5r6IQ5xg
UTOU3D5ihb4aCYKF3JJhqZXZSoi9pIDa60cIcIBYjRONv/ZHJ4m4mCgpGTf6aOTB
vAcDw+TaOrOBYjuVkpbpwwnPcr4jV1oWOA7hXw==
-----END CERTIFICATE-----
