Certificate:
    Data:
        Version: 3 (0x2)
        Serial Number:
            d5:64:1f:51:23:0e:f0:fb:86:10:ab:f2:cb:7b:96:73
        Signature Algorithm: sha256WithRSAEncryption
        Issuer: CN=team708-net
        Validity
            Not Before: Sep 13 05:27:03 2021 GMT
            Not After : Aug 28 05:27:03 2024 GMT
        Subject: CN=team708-server
        Subject Public Key Info:
            Public Key Algorithm: rsaEncryption
                RSA Public-Key: (2048 bit)
                Modulus:
                    00:ad:ef:95:f9:2a:0b:32:16:bb:c2:93:16:30:3a:
                    9f:b5:03:b0:e3:52:56:0d:81:96:c0:f7:4f:c7:f5:
                    d2:4e:2a:ff:8d:12:76:e0:72:04:c3:83:8b:a4:94:
                    4e:8c:15:0f:51:0b:36:8d:1b:d0:b6:75:2f:cd:11:
                    b1:0b:fc:1d:35:54:f6:b8:16:4c:73:89:31:69:a7:
                    af:6e:3e:73:f7:be:f1:42:6c:80:8d:ae:51:54:bb:
                    9c:39:98:3e:1e:0a:52:d3:36:5d:4e:37:89:c6:fa:
                    c4:7b:69:7c:98:aa:48:3e:cf:b3:2e:cd:32:32:8b:
                    33:0c:c2:85:10:11:3e:00:88:34:a8:c4:a9:7e:63:
                    c5:bd:a1:39:e7:e2:bb:f0:f9:d8:1a:e7:c6:cd:c9:
                    ae:92:d4:a1:e8:1c:8b:59:8f:96:64:60:2e:d9:0f:
                    39:fc:fe:ca:47:9f:63:bc:f2:5f:b0:8c:47:76:2d:
                    b8:9c:ac:24:10:ad:ec:e7:b2:b1:cc:46:eb:79:3c:
                    ad:18:71:04:10:ac:d3:b2:d9:00:6b:2b:f3:78:bc:
                    60:54:df:2c:23:85:f6:4b:87:fb:33:43:4e:78:82:
                    25:c3:15:7b:f2:e3:dd:5d:d7:e1:26:6c:a9:7b:39:
                    12:9d:a7:af:46:29:bf:88:4f:ad:64:9f:93:c4:32:
                    32:57
                Exponent: 65537 (0x10001)
        X509v3 extensions:
            X509v3 Basic Constraints: 
                CA:FALSE
            X509v3 Subject Key Identifier: 
                4D:43:A6:BE:F0:00:AC:8A:4C:07:DC:38:A8:FE:E4:26:2A:16:1E:7B
            X509v3 Authority Key Identifier: 
                keyid:2A:7F:3F:EA:D6:E5:70:43:87:C8:28:61:45:97:77:CB:90:2D:2A:1D
                DirName:/CN=team708-net
                serial:38:93:F9:8E:C0:D3:37:E3:B1:B6:6E:9E:A8:70:A9:E9:AE:6D:BC:3F

            X509v3 Extended Key Usage: 
                TLS Web Server Authentication
            X509v3 Key Usage: 
                Digital Signature, Key Encipherment
            X509v3 Subject Alternative Name: 
                DNS:team708-server
    Signature Algorithm: sha256WithRSAEncryption
         97:58:ca:86:9d:b7:77:77:6a:b8:42:90:42:71:97:45:2e:51:
         39:6c:e2:24:e1:9b:00:c0:c2:f3:27:35:1b:c2:df:87:3b:9f:
         a7:11:36:4f:99:ac:16:3d:ad:88:fe:45:50:32:af:06:c0:d4:
         ab:27:7e:ab:16:96:eb:8c:f1:db:9f:3f:1a:2d:1a:67:42:d0:
         e0:ce:2b:93:0e:97:b9:81:74:84:11:b4:b1:ee:37:60:c1:85:
         ec:20:0c:c5:db:f6:99:33:ec:9b:d7:89:03:09:9f:ee:ad:71:
         c4:84:c8:82:e9:6e:18:d5:e7:a6:24:db:72:34:b7:e2:9d:6b:
         18:77:66:09:eb:a4:39:37:3d:3d:be:ea:3a:c3:47:8a:69:59:
         ee:b4:87:3c:78:ab:b2:35:e4:a5:10:7f:96:c8:43:90:4a:18:
         b6:e7:a8:e0:3a:61:35:d7:a8:19:99:b5:a5:36:d1:6a:5e:ce:
         ef:40:a5:1b:9d:54:e4:da:05:04:d6:f4:99:c9:ec:42:7b:8a:
         af:cc:fe:6f:5f:0b:58:dd:9f:d7:7b:75:3c:dc:4e:6f:b4:3e:
         7f:65:49:bd:9d:0b:bd:fe:4d:68:a7:50:c7:1b:a6:e9:0b:d2:
         b9:f7:56:28:49:a3:bf:5f:0e:a2:aa:d9:01:ef:93:30:db:e4:
         a6:fc:3b:6b
-----BEGIN CERTIFICATE-----
MIIDeDCCAmCgAwIBAgIRANVkH1EjDvD7hhCr8st7lnMwDQYJKoZIhvcNAQELBQAw
FjEUMBIGA1UEAwwLdGVhbTcwOC1uZXQwHhcNMjEwOTEzMDUyNzAzWhcNMjQwODI4
MDUyNzAzWjAZMRcwFQYDVQQDDA50ZWFtNzA4LXNlcnZlcjCCASIwDQYJKoZIhvcN
AQEBBQADggEPADCCAQoCggEBAK3vlfkqCzIWu8KTFjA6n7UDsONSVg2BlsD3T8f1
0k4q/40SduByBMODi6SUTowVD1ELNo0b0LZ1L80RsQv8HTVU9rgWTHOJMWmnr24+
c/e+8UJsgI2uUVS7nDmYPh4KUtM2XU43icb6xHtpfJiqSD7Psy7NMjKLMwzChRAR
PgCINKjEqX5jxb2hOefiu/D52Brnxs3JrpLUoegci1mPlmRgLtkPOfz+ykefY7zy
X7CMR3YtuJysJBCt7OeyscxG63k8rRhxBBCs07LZAGsr83i8YFTfLCOF9kuH+zND
TniCJcMVe/Lj3V3X4SZsqXs5Ep2nr0Ypv4hPrWSfk8QyMlcCAwEAAaOBvTCBujAJ
BgNVHRMEAjAAMB0GA1UdDgQWBBRNQ6a+8ACsikwH3Dio/uQmKhYeezBRBgNVHSME
SjBIgBQqfz/q1uVwQ4fIKGFFl3fLkC0qHaEapBgwFjEUMBIGA1UEAwwLdGVhbTcw
OC1uZXSCFDiT+Y7A0zfjsbZunqhwqemubbw/MBMGA1UdJQQMMAoGCCsGAQUFBwMB
MAsGA1UdDwQEAwIFoDAZBgNVHREEEjAQgg50ZWFtNzA4LXNlcnZlcjANBgkqhkiG
9w0BAQsFAAOCAQEAl1jKhp23d3dquEKQQnGXRS5ROWziJOGbAMDC8yc1G8Lfhzuf
pxE2T5msFj2tiP5FUDKvBsDUqyd+qxaW64zx258/Gi0aZ0LQ4M4rkw6XuYF0hBG0
se43YMGF7CAMxdv2mTPsm9eJAwmf7q1xxITIguluGNXnpiTbcjS34p1rGHdmCeuk
OTc9Pb7qOsNHimlZ7rSHPHirsjXkpRB/lshDkEoYtueo4DphNdeoGZm1pTbRal7O
70ClG51U5NoFBNb0mcnsQnuKr8z+b18LWN2f13t1PNxOb7Q+f2VJvZ0Lvf5NaKdQ
xxum6QvSufdWKEmjv18OoqrZAe+TMNvkpvw7aw==
-----END CERTIFICATE-----
