Certificate:
    Data:
        Version: 3 (0x2)
        Serial Number:
            1e:8b:57:17:9d:9c:85:ec:74:0e:c0:bd:b3:e3:9b:1b
        Signature Algorithm: sha256WithRSAEncryption
        Issuer: CN=team637-net
        Validity
            Not Before: Sep 13 04:41:47 2021 GMT
            Not After : Aug 28 04:41:47 2024 GMT
        Subject: CN=team637-server
        Subject Public Key Info:
            Public Key Algorithm: rsaEncryption
                RSA Public-Key: (2048 bit)
                Modulus:
                    00:b2:fd:3a:35:02:f9:e0:63:24:69:59:9e:d3:0f:
                    ae:58:cc:7f:77:c7:fd:9d:e2:99:da:91:06:7b:a5:
                    d3:94:2a:5f:61:57:6a:69:b3:ba:7e:27:1f:cd:bf:
                    da:12:dd:90:ed:8e:3c:2c:0d:45:a7:ac:e0:b1:8e:
                    a2:a9:3d:04:73:b0:5a:f6:24:f3:21:d9:ce:76:6a:
                    4e:4c:eb:4a:51:75:08:1e:f5:f7:3a:04:68:3d:70:
                    95:17:d5:23:84:04:46:fe:e7:0e:c3:c1:64:49:69:
                    82:40:45:3a:03:4d:d8:02:5d:c2:29:64:81:a2:48:
                    b8:14:d8:86:d4:a3:a7:c3:e4:0d:17:5c:e3:95:de:
                    f0:af:f0:26:74:84:78:ef:b4:59:1d:37:22:00:c6:
                    2b:5e:24:a6:ab:ec:a3:98:56:a7:29:53:5d:a6:28:
                    ea:8d:99:f8:91:55:d1:6b:d1:c6:50:d0:31:32:1e:
                    36:8c:3b:d2:15:a5:9e:2d:bf:25:64:da:08:e1:0f:
                    95:cc:dd:d2:92:ff:d6:1c:f0:8a:6e:b2:4e:90:61:
                    79:c3:e1:de:a9:b9:a0:05:fb:cc:8b:55:3b:20:61:
                    45:03:0a:3d:50:0c:51:ba:3c:88:00:76:ad:c5:51:
                    17:02:ed:20:ee:c1:7d:5c:05:95:b6:9e:00:8f:08:
                    9e:ab
                Exponent: 65537 (0x10001)
        X509v3 extensions:
            X509v3 Basic Constraints: 
                CA:FALSE
            X509v3 Subject Key Identifier: 
                75:E2:6C:D3:A7:DB:74:F8:69:52:88:1A:ED:97:23:80:A4:38:30:A5
            X509v3 Authority Key Identifier: 
                keyid:AC:09:7D:DA:95:AF:DB:CA:5B:6C:FC:49:30:C6:DA:FE:F4:4D:F4:A8
                DirName:/CN=team637-net
                serial:38:87:C2:6B:D4:38:9F:24:7D:7D:C4:D8:32:38:4B:C3:64:8D:BE:96

            X509v3 Extended Key Usage: 
                TLS Web Server Authentication
            X509v3 Key Usage: 
                Digital Signature, Key Encipherment
            X509v3 Subject Alternative Name: 
                DNS:team637-server
    Signature Algorithm: sha256WithRSAEncryption
         b6:49:9c:13:bb:d4:ae:03:3e:8c:1e:67:0c:3f:0e:77:52:28:
         ec:98:cc:da:6b:76:de:49:21:93:85:57:ac:11:c4:ed:e2:84:
         11:95:a0:c9:38:9c:b1:f4:bb:c4:45:13:2e:a8:1b:a7:46:59:
         84:8d:61:5b:cf:be:38:a1:cd:68:74:7a:4e:6c:c3:c2:55:ab:
         a2:e0:1e:c8:15:a6:1b:cb:d0:a2:58:4d:e5:68:35:72:c2:43:
         48:06:82:08:b2:70:8b:14:b0:7f:f2:55:66:c3:e4:c9:29:bd:
         b4:82:c2:c3:fa:34:70:dd:0b:39:7d:65:01:1e:2d:2b:da:78:
         20:1e:d1:bc:90:c0:2a:62:fe:27:bc:94:46:69:ea:d5:48:a4:
         63:cb:15:70:45:94:2a:c3:c7:99:53:bf:35:b8:67:c0:5d:bd:
         32:db:3e:cd:6c:7c:e1:54:ad:15:7f:5b:77:04:78:42:69:92:
         60:15:7e:88:f6:c0:28:f5:e3:cd:4a:18:60:97:1e:c2:86:76:
         c0:8b:f9:c2:df:f1:6a:42:04:89:6c:5b:00:ea:73:9d:29:8f:
         14:08:2d:ab:8d:b3:b2:72:5e:ba:b6:b2:7a:a9:dc:cb:de:ef:
         cb:4e:7f:b0:62:ab:f3:f5:2a:cb:29:4f:e2:72:cb:df:37:2b:
         40:8b:3c:11
-----BEGIN CERTIFICATE-----
MIIDdzCCAl+gAwIBAgIQHotXF52chex0DsC9s+ObGzANBgkqhkiG9w0BAQsFADAW
MRQwEgYDVQQDDAt0ZWFtNjM3LW5ldDAeFw0yMTA5MTMwNDQxNDdaFw0yNDA4Mjgw
NDQxNDdaMBkxFzAVBgNVBAMMDnRlYW02Mzctc2VydmVyMIIBIjANBgkqhkiG9w0B
AQEFAAOCAQ8AMIIBCgKCAQEAsv06NQL54GMkaVme0w+uWMx/d8f9neKZ2pEGe6XT
lCpfYVdqabO6ficfzb/aEt2Q7Y48LA1Fp6zgsY6iqT0Ec7Ba9iTzIdnOdmpOTOtK
UXUIHvX3OgRoPXCVF9UjhARG/ucOw8FkSWmCQEU6A03YAl3CKWSBoki4FNiG1KOn
w+QNF1zjld7wr/AmdIR477RZHTciAMYrXiSmq+yjmFanKVNdpijqjZn4kVXRa9HG
UNAxMh42jDvSFaWeLb8lZNoI4Q+VzN3Skv/WHPCKbrJOkGF5w+HeqbmgBfvMi1U7
IGFFAwo9UAxRujyIAHatxVEXAu0g7sF9XAWVtp4AjwieqwIDAQABo4G9MIG6MAkG
A1UdEwQCMAAwHQYDVR0OBBYEFHXibNOn23T4aVKIGu2XI4CkODClMFEGA1UdIwRK
MEiAFKwJfdqVr9vKW2z8STDG2v70TfSooRqkGDAWMRQwEgYDVQQDDAt0ZWFtNjM3
LW5ldIIUOIfCa9Q4nyR9fcTYMjhLw2SNvpYwEwYDVR0lBAwwCgYIKwYBBQUHAwEw
CwYDVR0PBAQDAgWgMBkGA1UdEQQSMBCCDnRlYW02Mzctc2VydmVyMA0GCSqGSIb3
DQEBCwUAA4IBAQC2SZwTu9SuAz6MHmcMPw53UijsmMzaa3beSSGThVesEcTt4oQR
laDJOJyx9LvERRMuqBunRlmEjWFbz744oc1odHpObMPCVaui4B7IFaYby9CiWE3l
aDVywkNIBoIIsnCLFLB/8lVmw+TJKb20gsLD+jRw3Qs5fWUBHi0r2nggHtG8kMAq
Yv4nvJRGaerVSKRjyxVwRZQqw8eZU781uGfAXb0y2z7NbHzhVK0Vf1t3BHhCaZJg
FX6I9sAo9ePNShhglx7ChnbAi/nC3/FqQgSJbFsA6nOdKY8UCC2rjbOycl66trJ6
qdzL3u/LTn+wYqvz9SrLKU/icsvfNytAizwR
-----END CERTIFICATE-----
