Certificate:
    Data:
        Version: 3 (0x2)
        Serial Number:
            f3:e1:58:87:4a:bd:e6:22:75:69:ba:c9:2f:93:5b:84
        Signature Algorithm: sha256WithRSAEncryption
        Issuer: CN=team414-net
        Validity
            Not Before: Sep 13 02:31:18 2021 GMT
            Not After : Aug 28 02:31:18 2024 GMT
        Subject: CN=team414-server
        Subject Public Key Info:
            Public Key Algorithm: rsaEncryption
                RSA Public-Key: (2048 bit)
                Modulus:
                    00:aa:0a:64:2b:10:3e:63:9b:90:92:30:d1:30:01:
                    e1:dc:53:ff:42:61:a8:97:d0:a8:43:e0:e2:d5:62:
                    db:d0:2e:58:4e:f5:32:40:fd:f5:e8:23:bc:11:fd:
                    54:0a:f2:dd:a9:b0:bf:6d:0a:25:9a:de:09:9c:c9:
                    33:62:c3:0d:8e:fc:e1:ed:fb:dc:75:92:49:06:f0:
                    79:00:9b:72:86:8e:16:45:f1:29:1b:ce:4c:0f:46:
                    e9:5b:65:32:ea:f1:08:50:c1:04:65:9a:30:75:ce:
                    22:e8:dd:8e:8c:d3:06:43:a1:fc:10:a0:64:2d:71:
                    93:9b:ed:ae:01:b7:7c:4e:f0:5d:2c:f2:fc:1f:f5:
                    5d:a8:a6:a9:f8:62:f7:f8:b0:42:25:f6:45:d1:0a:
                    77:04:07:23:01:49:c4:13:81:8f:28:99:02:b3:32:
                    02:45:15:77:15:05:81:12:cc:b2:b0:44:1e:f3:90:
                    0b:38:a0:ed:94:69:2b:f7:8b:e9:4f:94:8f:69:12:
                    68:30:4e:30:e5:d6:19:e5:84:09:b5:e1:a7:e0:4e:
                    b2:e3:00:70:3b:08:55:3c:20:ad:1c:94:a5:13:60:
                    5e:2b:55:b6:c5:92:2c:02:08:4c:6d:d4:31:5f:d3:
                    4c:d2:39:d3:67:42:c3:58:6a:ae:f2:30:07:ef:f6:
                    d1:a3
                Exponent: 65537 (0x10001)
        X509v3 extensions:
            X509v3 Basic Constraints: 
                CA:FALSE
            X509v3 Subject Key Identifier: 
                2F:D3:B8:0B:5E:B4:67:53:C1:97:C2:B3:6D:A0:5A:F9:BE:60:33:B2
            X509v3 Authority Key Identifier: 
                keyid:9D:5A:3C:E5:D8:8F:C0:65:6E:7F:D3:25:45:19:BC:EB:A4:76:F4:C3
                DirName:/CN=team414-net
                serial:1B:6A:67:BE:44:78:77:FE:06:48:C4:8D:99:34:B4:55:6F:6E:96:ED

            X509v3 Extended Key Usage: 
                TLS Web Server Authentication
            X509v3 Key Usage: 
                Digital Signature, Key Encipherment
            X509v3 Subject Alternative Name: 
                DNS:team414-server
    Signature Algorithm: sha256WithRSAEncryption
         a3:06:a5:91:46:2f:1f:3b:57:f5:d2:d4:2f:eb:8e:fe:0b:2a:
         35:40:d4:17:1a:ff:61:34:a8:c4:2e:99:3e:43:72:c8:49:c1:
         84:ee:7a:d0:5b:8e:19:71:f4:61:a1:49:8d:88:a2:73:68:e8:
         4d:22:4f:17:79:e9:e0:fb:ec:f5:f6:53:58:5b:c9:63:74:5e:
         b9:8e:79:66:d3:6f:ba:f9:fb:20:d2:fb:8d:51:bf:e5:44:7a:
         a2:04:e4:f3:8a:87:1a:98:22:42:4d:1b:b9:f5:89:a0:1c:2a:
         82:f4:cb:82:ce:1c:4a:f2:28:23:9b:3e:88:f4:75:b7:6f:f8:
         ec:22:dd:4a:e7:97:ff:5a:1b:0c:8f:04:b7:4d:4b:96:22:a3:
         dc:cb:e6:9e:3a:bd:4a:f0:ee:00:19:2f:62:66:6d:30:7a:c6:
         5a:f2:0c:78:4b:c2:67:1e:b5:74:41:ff:63:ab:e8:60:b3:41:
         61:dd:de:83:27:46:ce:4f:b4:72:91:ac:1c:94:11:83:1a:2c:
         48:7a:7d:ce:11:1e:b8:34:77:c9:41:00:3f:7f:ac:d9:b0:aa:
         b6:02:8a:95:6b:07:15:44:87:bd:5b:a1:03:47:36:6c:9f:c2:
         5e:27:ae:e1:27:d4:51:1d:ad:29:f7:cf:fa:9b:bf:86:12:55:
         ee:30:50:62
-----BEGIN CERTIFICATE-----
MIIDeDCCAmCgAwIBAgIRAPPhWIdKveYidWm6yS+TW4QwDQYJKoZIhvcNAQELBQAw
FjEUMBIGA1UEAwwLdGVhbTQxNC1uZXQwHhcNMjEwOTEzMDIzMTE4WhcNMjQwODI4
MDIzMTE4WjAZMRcwFQYDVQQDDA50ZWFtNDE0LXNlcnZlcjCCASIwDQYJKoZIhvcN
AQEBBQADggEPADCCAQoCggEBAKoKZCsQPmObkJIw0TAB4dxT/0JhqJfQqEPg4tVi
29AuWE71MkD99egjvBH9VAry3amwv20KJZreCZzJM2LDDY784e373HWSSQbweQCb
coaOFkXxKRvOTA9G6VtlMurxCFDBBGWaMHXOIujdjozTBkOh/BCgZC1xk5vtrgG3
fE7wXSzy/B/1Xaimqfhi9/iwQiX2RdEKdwQHIwFJxBOBjyiZArMyAkUVdxUFgRLM
srBEHvOQCzig7ZRpK/eL6U+Uj2kSaDBOMOXWGeWECbXhp+BOsuMAcDsIVTwgrRyU
pRNgXitVtsWSLAIITG3UMV/TTNI502dCw1hqrvIwB+/20aMCAwEAAaOBvTCBujAJ
BgNVHRMEAjAAMB0GA1UdDgQWBBQv07gLXrRnU8GXwrNtoFr5vmAzsjBRBgNVHSME
SjBIgBSdWjzl2I/AZW5/0yVFGbzrpHb0w6EapBgwFjEUMBIGA1UEAwwLdGVhbTQx
NC1uZXSCFBtqZ75EeHf+BkjEjZk0tFVvbpbtMBMGA1UdJQQMMAoGCCsGAQUFBwMB
MAsGA1UdDwQEAwIFoDAZBgNVHREEEjAQgg50ZWFtNDE0LXNlcnZlcjANBgkqhkiG
9w0BAQsFAAOCAQEAowalkUYvHztX9dLUL+uO/gsqNUDUFxr/YTSoxC6ZPkNyyEnB
hO560FuOGXH0YaFJjYiic2joTSJPF3np4Pvs9fZTWFvJY3ReuY55ZtNvuvn7INL7
jVG/5UR6ogTk84qHGpgiQk0bufWJoBwqgvTLgs4cSvIoI5s+iPR1t2/47CLdSueX
/1obDI8Et01LliKj3Mvmnjq9SvDuABkvYmZtMHrGWvIMeEvCZx61dEH/Y6voYLNB
Yd3egydGzk+0cpGsHJQRgxosSHp9zhEeuDR3yUEAP3+s2bCqtgKKlWsHFUSHvVuh
A0c2bJ/CXieu4SfUUR2tKffP+pu/hhJV7jBQYg==
-----END CERTIFICATE-----
