Certificate:
    Data:
        Version: 3 (0x2)
        Serial Number:
            29:3f:57:f1:4c:5c:15:2e:61:50:b6:70:60:86:b2:f9
        Signature Algorithm: sha256WithRSAEncryption
        Issuer: CN=team531-net
        Validity
            Not Before: Sep 13 03:35:32 2021 GMT
            Not After : Aug 28 03:35:32 2024 GMT
        Subject: CN=team531-server
        Subject Public Key Info:
            Public Key Algorithm: rsaEncryption
                RSA Public-Key: (2048 bit)
                Modulus:
                    00:b5:29:f9:e2:6c:eb:60:2c:00:3a:8c:1a:64:a5:
                    1a:e6:4a:d6:83:b1:ab:50:4e:89:5a:3b:08:75:fc:
                    04:50:1a:c5:3a:1c:2a:f3:5e:f3:a7:41:c8:3f:78:
                    dd:67:70:97:79:6a:56:ae:b0:13:68:6a:bf:f6:09:
                    52:b0:e2:c8:83:58:0b:10:0f:a6:d4:80:46:94:ad:
                    9d:ea:b5:3d:9a:84:e5:9e:6a:53:cd:a7:30:c8:0a:
                    38:4e:54:86:dd:16:68:4d:fa:39:e7:16:e3:a9:1e:
                    e6:c5:d2:16:49:bf:98:f3:d0:4a:58:a5:6b:14:ca:
                    1c:f3:65:44:8a:88:14:21:d8:c5:6a:46:11:c1:a4:
                    9c:00:63:5c:2a:51:08:a1:1f:df:2a:20:d0:bd:65:
                    d1:ce:f5:ce:03:ed:56:25:66:21:5a:ae:38:2a:51:
                    14:10:9c:d2:c1:31:e9:9d:ca:19:36:93:c0:4e:51:
                    76:ca:c4:a8:76:b8:5c:c4:d0:ec:a7:fc:28:d6:8d:
                    97:4c:96:37:11:be:bf:ae:f8:ec:a6:f6:22:ba:bd:
                    1e:96:55:79:80:36:d4:78:73:05:1d:d5:f2:ad:cc:
                    c3:1c:9e:40:54:aa:83:5a:01:10:a3:4a:61:78:07:
                    aa:bf:ec:4b:8a:74:f0:c3:38:ab:0f:58:5a:75:88:
                    00:7b
                Exponent: 65537 (0x10001)
        X509v3 extensions:
            X509v3 Basic Constraints: 
                CA:FALSE
            X509v3 Subject Key Identifier: 
                29:82:4E:1D:C0:DF:2B:25:02:DB:51:F7:F9:50:7A:A8:24:BD:50:82
            X509v3 Authority Key Identifier: 
                keyid:C3:B9:D1:A0:48:51:6D:CC:3C:40:B4:3D:39:96:A1:20:AC:3F:C3:F3
                DirName:/CN=team531-net
                serial:6F:93:D2:6C:9B:88:6E:91:F1:7A:9E:EF:C0:9B:6E:8F:75:78:B6:B5

            X509v3 Extended Key Usage: 
                TLS Web Server Authentication
            X509v3 Key Usage: 
                Digital Signature, Key Encipherment
            X509v3 Subject Alternative Name: 
                DNS:team531-server
    Signature Algorithm: sha256WithRSAEncryption
         ac:7e:e8:0d:4e:82:54:3c:84:1c:6f:40:56:28:55:e8:b6:8f:
         27:75:f9:0e:2b:2f:9d:3e:5f:3c:38:13:18:84:1a:27:82:0d:
         c7:6c:a0:13:8b:95:5c:83:74:07:43:f4:95:7a:f4:58:28:65:
         fa:1f:63:42:9a:00:f1:f6:b6:ae:8d:f4:89:3a:bd:38:5a:60:
         1f:e8:c7:3c:aa:4f:7d:bd:bb:7c:95:53:07:49:fb:66:1c:26:
         6e:77:ab:86:d7:72:31:ed:4a:f2:ff:bc:bd:e3:bb:d4:eb:0b:
         d2:ef:2b:3c:c4:fb:d8:d6:19:54:1f:8d:70:cf:19:6c:88:e5:
         7f:8d:bb:b3:47:8d:b0:7c:3a:91:b3:e9:52:e8:97:68:97:29:
         c9:32:27:dd:57:6b:8f:60:b2:a6:a4:40:a2:2a:17:42:fd:93:
         e5:fe:64:ba:37:aa:cb:0d:4b:1e:03:2e:e0:00:97:2d:d0:34:
         9f:e3:80:4d:5b:84:84:1a:37:30:af:de:26:1d:8d:a1:4b:12:
         48:61:d3:c2:64:24:22:64:f2:bc:2e:89:df:10:a4:71:e8:18:
         0b:dd:d6:ad:d3:8e:58:c8:d4:d6:75:6a:a9:f0:33:3d:0a:74:
         d2:34:8a:05:f5:5d:91:c2:03:0c:fa:02:fd:67:4e:19:ac:76:
         e7:d4:63:ef
-----BEGIN CERTIFICATE-----
MIIDdzCCAl+gAwIBAgIQKT9X8UxcFS5hULZwYIay+TANBgkqhkiG9w0BAQsFADAW
MRQwEgYDVQQDDAt0ZWFtNTMxLW5ldDAeFw0yMTA5MTMwMzM1MzJaFw0yNDA4Mjgw
MzM1MzJaMBkxFzAVBgNVBAMMDnRlYW01MzEtc2VydmVyMIIBIjANBgkqhkiG9w0B
AQEFAAOCAQ8AMIIBCgKCAQEAtSn54mzrYCwAOowaZKUa5krWg7GrUE6JWjsIdfwE
UBrFOhwq817zp0HIP3jdZ3CXeWpWrrATaGq/9glSsOLIg1gLEA+m1IBGlK2d6rU9
moTlnmpTzacwyAo4TlSG3RZoTfo55xbjqR7mxdIWSb+Y89BKWKVrFMoc82VEiogU
IdjFakYRwaScAGNcKlEIoR/fKiDQvWXRzvXOA+1WJWYhWq44KlEUEJzSwTHpncoZ
NpPATlF2ysSodrhcxNDsp/wo1o2XTJY3Eb6/rvjspvYiur0ellV5gDbUeHMFHdXy
rczDHJ5AVKqDWgEQo0pheAeqv+xLinTwwzirD1hadYgAewIDAQABo4G9MIG6MAkG
A1UdEwQCMAAwHQYDVR0OBBYEFCmCTh3A3yslAttR9/lQeqgkvVCCMFEGA1UdIwRK
MEiAFMO50aBIUW3MPEC0PTmWoSCsP8PzoRqkGDAWMRQwEgYDVQQDDAt0ZWFtNTMx
LW5ldIIUb5PSbJuIbpHxep7vwJtuj3V4trUwEwYDVR0lBAwwCgYIKwYBBQUHAwEw
CwYDVR0PBAQDAgWgMBkGA1UdEQQSMBCCDnRlYW01MzEtc2VydmVyMA0GCSqGSIb3
DQEBCwUAA4IBAQCsfugNToJUPIQcb0BWKFXoto8ndfkOKy+dPl88OBMYhBongg3H
bKATi5Vcg3QHQ/SVevRYKGX6H2NCmgDx9raujfSJOr04WmAf6Mc8qk99vbt8lVMH
SftmHCZud6uG13Ix7Ury/7y947vU6wvS7ys8xPvY1hlUH41wzxlsiOV/jbuzR42w
fDqRs+lS6JdolynJMifdV2uPYLKmpECiKhdC/ZPl/mS6N6rLDUseAy7gAJct0DSf
44BNW4SEGjcwr94mHY2hSxJIYdPCZCQiZPK8LonfEKRx6BgL3dat045YyNTWdWqp
8DM9CnTSNIoF9V2RwgMM+gL9Z04ZrHbn1GPv
-----END CERTIFICATE-----
