Certificate:
    Data:
        Version: 3 (0x2)
        Serial Number:
            b7:45:04:53:0f:6f:1f:85:06:ba:c1:bc:a2:ac:93:9d
        Signature Algorithm: sha256WithRSAEncryption
        Issuer: CN=team275-net
        Validity
            Not Before: Sep 13 01:17:53 2021 GMT
            Not After : Aug 28 01:17:53 2024 GMT
        Subject: CN=team275-client
        Subject Public Key Info:
            Public Key Algorithm: rsaEncryption
                RSA Public-Key: (2048 bit)
                Modulus:
                    00:be:c4:d9:62:8b:c1:2f:e8:b2:e5:80:78:c6:2c:
                    f9:d7:c4:49:8e:52:80:e2:d7:a6:51:c8:d5:8a:54:
                    89:a4:b3:7b:a9:96:e0:f6:df:46:7c:14:8b:d6:dc:
                    5e:5e:69:8c:9c:6a:ac:b1:9b:67:d5:84:22:6a:35:
                    1b:59:10:19:7e:71:8c:e8:3b:fc:26:3f:ea:5b:3a:
                    b5:49:50:e3:d3:19:d5:34:fb:88:f0:e2:62:b0:8d:
                    a8:0c:6a:d7:43:80:82:56:ca:07:ba:8d:36:63:20:
                    0e:a6:06:18:e3:7f:38:4c:23:0c:1d:92:69:3b:21:
                    60:66:94:39:07:ce:78:48:24:89:c0:9b:c3:0a:33:
                    a7:ee:dc:87:4a:8f:70:f0:40:4a:e5:08:79:f7:3a:
                    5c:59:66:ff:3b:6e:d1:80:b6:e6:3d:b0:1a:94:30:
                    2c:99:46:76:9f:b9:74:8b:4a:bd:52:71:5a:13:5b:
                    03:ac:71:22:8b:c7:59:d6:ed:74:15:20:98:8f:56:
                    dc:49:a4:02:c1:f6:dc:8a:87:c2:f7:52:ef:05:72:
                    25:a0:3b:1e:83:a6:e7:15:f3:a4:58:2a:28:b8:3e:
                    30:56:ed:4a:95:91:08:ad:93:cf:8a:7e:16:d2:78:
                    c0:5d:18:63:4c:ea:67:0e:b4:2b:81:ae:c7:57:f7:
                    68:03
                Exponent: 65537 (0x10001)
        X509v3 extensions:
            X509v3 Basic Constraints: 
                CA:FALSE
            X509v3 Subject Key Identifier: 
                6A:02:89:DB:B4:1F:98:06:0C:91:58:AF:DE:6F:FD:E3:C2:46:BC:A3
            X509v3 Authority Key Identifier: 
                keyid:E4:E6:0A:87:F8:AB:74:7A:63:1B:71:EC:73:B5:06:00:D1:2D:F0:7F
                DirName:/CN=team275-net
                serial:70:5E:7A:C0:72:77:0F:16:7E:D3:54:DA:42:79:ED:12:D9:94:A3:A5

            X509v3 Extended Key Usage: 
                TLS Web Client Authentication
            X509v3 Key Usage: 
                Digital Signature
    Signature Algorithm: sha256WithRSAEncryption
         38:13:5f:b1:31:c5:9e:6a:37:61:43:7f:ba:7a:0c:5a:3e:01:
         c0:55:15:19:ce:18:5d:dc:63:99:fa:1f:bd:be:0d:1c:83:92:
         d2:dc:46:e6:9f:ce:ab:32:09:94:c4:b8:f3:60:6f:91:1b:05:
         2a:0c:f0:bd:01:86:e5:ea:b0:0e:d7:6d:db:eb:26:78:c2:f1:
         28:cc:7e:72:a6:2e:bc:a6:74:b0:29:a2:7b:e3:e4:d5:34:04:
         31:a4:9b:80:29:aa:0f:26:0a:aa:b4:0c:87:a3:88:b3:4f:4c:
         ab:5f:bc:fd:65:86:11:9f:1b:d4:10:8d:9c:0c:27:6f:c7:2b:
         41:75:1a:19:ce:92:0d:3b:a1:9f:c5:8d:12:2f:94:15:b7:3e:
         5e:e1:6c:83:47:8a:c9:ac:20:60:cd:cb:b0:2d:c4:e8:9a:a1:
         23:33:f7:fa:4b:b1:f8:9e:e7:da:9e:79:8c:86:2a:5e:12:e6:
         87:0d:e7:29:af:58:33:9d:d9:e4:64:50:d6:d3:e8:e9:36:b0:
         b4:e7:b0:22:a3:4a:ed:f2:62:a4:6e:7c:b6:cd:69:78:81:03:
         db:f2:73:b4:fd:ac:86:cc:6b:2f:ad:38:bb:ef:c6:18:6f:a8:
         b4:c1:ec:cd:e6:02:09:9e:53:af:1a:ed:97:51:4d:47:1c:bb:
         3e:48:e1:c3
-----BEGIN CERTIFICATE-----
MIIDXTCCAkWgAwIBAgIRALdFBFMPbx+FBrrBvKKsk50wDQYJKoZIhvcNAQELBQAw
FjEUMBIGA1UEAwwLdGVhbTI3NS1uZXQwHhcNMjEwOTEzMDExNzUzWhcNMjQwODI4
MDExNzUzWjAZMRcwFQYDVQQDDA50ZWFtMjc1LWNsaWVudDCCASIwDQYJKoZIhvcN
AQEBBQADggEPADCCAQoCggEBAL7E2WKLwS/osuWAeMYs+dfESY5SgOLXplHI1YpU
iaSze6mW4PbfRnwUi9bcXl5pjJxqrLGbZ9WEImo1G1kQGX5xjOg7/CY/6ls6tUlQ
49MZ1TT7iPDiYrCNqAxq10OAglbKB7qNNmMgDqYGGON/OEwjDB2SaTshYGaUOQfO
eEgkicCbwwozp+7ch0qPcPBASuUIefc6XFlm/ztu0YC25j2wGpQwLJlGdp+5dItK
vVJxWhNbA6xxIovHWdbtdBUgmI9W3EmkAsH23IqHwvdS7wVyJaA7HoOm5xXzpFgq
KLg+MFbtSpWRCK2Tz4p+FtJ4wF0YY0zqZw60K4Gux1f3aAMCAwEAAaOBojCBnzAJ
BgNVHRMEAjAAMB0GA1UdDgQWBBRqAonbtB+YBgyRWK/eb/3jwka8ozBRBgNVHSME
SjBIgBTk5gqH+Kt0emMbcexztQYA0S3wf6EapBgwFjEUMBIGA1UEAwwLdGVhbTI3
NS1uZXSCFHBeesBydw8WftNU2kJ57RLZlKOlMBMGA1UdJQQMMAoGCCsGAQUFBwMC
MAsGA1UdDwQEAwIHgDANBgkqhkiG9w0BAQsFAAOCAQEAOBNfsTHFnmo3YUN/unoM
Wj4BwFUVGc4YXdxjmfofvb4NHIOS0txG5p/OqzIJlMS482BvkRsFKgzwvQGG5eqw
Dtdt2+smeMLxKMx+cqYuvKZ0sCmie+Pk1TQEMaSbgCmqDyYKqrQMh6OIs09Mq1+8
/WWGEZ8b1BCNnAwnb8crQXUaGc6SDTuhn8WNEi+UFbc+XuFsg0eKyawgYM3LsC3E
6JqhIzP3+kux+J7n2p55jIYqXhLmhw3nKa9YM53Z5GRQ1tPo6TawtOewIqNK7fJi
pG58ts1peIED2/JztP2shsxrL604u+/GGG+otMHszeYCCZ5Trxrtl1FNRxy7Pkjh
ww==
-----END CERTIFICATE-----
