Certificate:
    Data:
        Version: 3 (0x2)
        Serial Number:
            31:9f:fd:6e:71:3e:b9:56:19:c9:0a:7b:a2:53:ea:59
        Signature Algorithm: sha256WithRSAEncryption
        Issuer: CN=team116-net
        Validity
            Not Before: Sep 12 23:47:38 2021 GMT
            Not After : Aug 27 23:47:38 2024 GMT
        Subject: CN=team116-client
        Subject Public Key Info:
            Public Key Algorithm: rsaEncryption
                RSA Public-Key: (2048 bit)
                Modulus:
                    00:aa:8a:14:9f:a7:aa:42:b5:32:20:e3:5a:c5:94:
                    35:83:f3:f6:93:2c:d6:95:3a:d7:4d:3c:f8:1c:e1:
                    01:66:4b:3e:ff:fc:45:5b:59:8f:be:55:73:94:a7:
                    5c:00:5b:ce:13:f5:e4:f8:27:de:5c:b7:dc:a2:32:
                    cb:9e:c4:b4:31:f8:08:70:a8:23:bf:0d:b2:c3:ed:
                    2c:00:70:40:35:35:e2:0a:12:e2:b3:31:b4:c3:fe:
                    e2:91:a4:9d:a4:3d:b4:f5:ea:86:af:f5:68:ce:7e:
                    0f:78:b6:70:ec:d1:2d:2d:6e:01:91:5c:3d:b0:ca:
                    82:87:2a:f8:41:0b:c6:0c:22:24:4f:38:3e:1d:58:
                    12:cd:30:b5:68:4c:a8:6f:24:a5:06:6a:33:c8:0b:
                    e2:fc:40:73:da:8e:ef:f2:44:24:59:aa:0b:4d:c2:
                    6e:d5:4e:3b:87:b8:e1:65:b7:d8:e3:03:bc:46:00:
                    7e:a6:fd:94:cd:06:d9:38:b5:d8:08:f1:90:91:b0:
                    fc:b3:4f:af:7c:6e:ee:d5:2e:53:a8:93:2a:51:0e:
                    b3:19:38:62:14:f2:9f:eb:f9:08:f9:fd:f9:5d:64:
                    c8:18:0f:fd:f6:bc:f6:c1:5b:8a:73:62:66:42:d8:
                    0c:f5:75:b4:a4:65:16:31:41:e0:23:72:18:11:36:
                    2b:ff
                Exponent: 65537 (0x10001)
        X509v3 extensions:
            X509v3 Basic Constraints: 
                CA:FALSE
            X509v3 Subject Key Identifier: 
                6B:14:13:A5:3B:C3:C5:DE:CC:09:37:C4:7E:BA:1D:1A:BC:DC:11:D9
            X509v3 Authority Key Identifier: 
                keyid:EB:D8:59:99:ED:0B:15:A4:A5:9F:C0:9B:D1:5E:61:70:C5:1E:E9:C5
                DirName:/CN=team116-net
                serial:2B:8D:D1:14:61:7D:5A:80:51:F9:9C:EF:4C:ED:2C:87:AC:AE:5F:FB

            X509v3 Extended Key Usage: 
                TLS Web Client Authentication
            X509v3 Key Usage: 
                Digital Signature
    Signature Algorithm: sha256WithRSAEncryption
         ba:87:c3:c8:37:cd:4d:1a:9a:42:64:c0:c1:8d:3c:94:9f:a6:
         d8:e1:6b:91:ee:19:af:96:4d:1f:35:00:37:e9:90:b6:8c:1b:
         1a:c6:b8:3d:b9:3a:b9:af:ba:0e:17:0b:1d:5a:5e:5f:a4:05:
         0c:c9:3b:dc:3e:5f:ae:86:fb:c5:26:b5:bf:f2:27:11:ee:da:
         6d:1c:ff:46:c2:55:40:c7:ba:99:2d:dd:82:99:2f:fc:ce:c0:
         f8:80:e0:e8:27:30:98:e3:99:55:27:b4:84:a6:08:16:d6:01:
         bd:c1:29:79:82:ed:96:e6:88:e6:ef:a9:1c:da:17:71:06:d9:
         c5:2a:b5:bc:43:33:c8:06:fd:72:d0:87:3e:4b:81:ea:28:0b:
         7f:4b:2b:e6:40:04:c1:88:8b:32:f0:e6:ae:93:0b:0f:3b:3f:
         68:23:eb:51:fc:eb:e5:35:a7:93:bb:84:35:44:e7:30:09:15:
         e8:33:8d:66:b3:11:32:2c:44:92:09:2e:3a:25:52:70:f0:b7:
         33:ec:b0:93:01:35:bf:73:b9:8e:88:7f:4f:ee:68:04:a0:15:
         40:6d:1c:59:dd:3c:6f:8f:6f:7e:2b:4e:cd:5e:51:85:58:02:
         98:68:74:4b:c5:8f:3b:1f:f1:4b:1b:a5:8c:36:95:f9:c2:7d:
         30:58:8f:64
-----BEGIN CERTIFICATE-----
MIIDXDCCAkSgAwIBAgIQMZ/9bnE+uVYZyQp7olPqWTANBgkqhkiG9w0BAQsFADAW
MRQwEgYDVQQDDAt0ZWFtMTE2LW5ldDAeFw0yMTA5MTIyMzQ3MzhaFw0yNDA4Mjcy
MzQ3MzhaMBkxFzAVBgNVBAMMDnRlYW0xMTYtY2xpZW50MIIBIjANBgkqhkiG9w0B
AQEFAAOCAQ8AMIIBCgKCAQEAqooUn6eqQrUyIONaxZQ1g/P2kyzWlTrXTTz4HOEB
Zks+//xFW1mPvlVzlKdcAFvOE/Xk+CfeXLfcojLLnsS0MfgIcKgjvw2yw+0sAHBA
NTXiChLiszG0w/7ikaSdpD209eqGr/Vozn4PeLZw7NEtLW4BkVw9sMqChyr4QQvG
DCIkTzg+HVgSzTC1aEyobySlBmozyAvi/EBz2o7v8kQkWaoLTcJu1U47h7jhZbfY
4wO8RgB+pv2UzQbZOLXYCPGQkbD8s0+vfG7u1S5TqJMqUQ6zGThiFPKf6/kI+f35
XWTIGA/99rz2wVuKc2JmQtgM9XW0pGUWMUHgI3IYETYr/wIDAQABo4GiMIGfMAkG
A1UdEwQCMAAwHQYDVR0OBBYEFGsUE6U7w8XezAk3xH66HRq83BHZMFEGA1UdIwRK
MEiAFOvYWZntCxWkpZ/Am9FeYXDFHunFoRqkGDAWMRQwEgYDVQQDDAt0ZWFtMTE2
LW5ldIIUK43RFGF9WoBR+ZzvTO0sh6yuX/swEwYDVR0lBAwwCgYIKwYBBQUHAwIw
CwYDVR0PBAQDAgeAMA0GCSqGSIb3DQEBCwUAA4IBAQC6h8PIN81NGppCZMDBjTyU
n6bY4WuR7hmvlk0fNQA36ZC2jBsaxrg9uTq5r7oOFwsdWl5fpAUMyTvcPl+uhvvF
JrW/8icR7tptHP9GwlVAx7qZLd2CmS/8zsD4gODoJzCY45lVJ7SEpggW1gG9wSl5
gu2W5ojm76kc2hdxBtnFKrW8QzPIBv1y0Ic+S4HqKAt/SyvmQATBiIsy8OaukwsP
Oz9oI+tR/OvlNaeTu4Q1ROcwCRXoM41msxEyLESSCS46JVJw8Lcz7LCTATW/c7mO
iH9P7mgEoBVAbRxZ3Txvj29+K07NXlGFWAKYaHRLxY87H/FLG6WMNpX5wn0wWI9k
-----END CERTIFICATE-----
