Certificate:
    Data:
        Version: 3 (0x2)
        Serial Number:
            fa:e4:9c:68:0b:76:fc:09:79:28:79:6a:1e:f6:35:d4
        Signature Algorithm: sha256WithRSAEncryption
        Issuer: CN=team116-net
        Validity
            Not Before: Sep 12 23:47:38 2021 GMT
            Not After : Aug 27 23:47:38 2024 GMT
        Subject: CN=team116-server
        Subject Public Key Info:
            Public Key Algorithm: rsaEncryption
                RSA Public-Key: (2048 bit)
                Modulus:
                    00:b7:3f:5e:8e:5c:40:e5:86:51:35:9a:8a:16:d4:
                    a9:87:96:10:74:59:79:de:3e:c9:a5:90:14:39:1c:
                    49:e1:3d:29:0a:6a:bc:c1:60:ea:b8:2a:ee:03:27:
                    99:52:7b:09:f0:f8:83:be:de:5b:db:22:37:d3:8a:
                    7e:14:48:26:ea:ad:78:86:c0:00:ce:3a:83:ab:f3:
                    37:15:9d:11:41:b7:b1:fa:18:91:45:f7:fb:98:25:
                    c2:ee:1a:55:05:0c:f1:fe:1e:bf:1e:61:54:27:91:
                    43:83:f2:03:c2:0a:28:8a:74:3f:02:3a:09:b1:d8:
                    42:0e:40:f1:f8:9b:87:d5:c2:b8:f5:74:e1:55:08:
                    f1:0f:01:f3:18:88:08:a4:a7:ad:a3:98:f4:9d:0b:
                    7a:3a:00:76:af:cf:e1:fa:cf:be:1e:2b:bc:8d:ac:
                    42:0a:59:d1:8a:f7:dd:8a:89:12:19:fe:79:b6:b0:
                    7c:11:83:30:5c:37:95:a0:f5:3a:4e:1f:8a:54:7d:
                    5b:7a:8a:bc:57:3c:aa:a9:d9:d6:8f:a6:58:21:3f:
                    31:09:ab:86:da:a0:35:c2:ce:b8:f5:9f:f1:57:27:
                    d6:ab:5f:a1:51:62:90:9c:b7:c9:39:b0:74:fe:05:
                    23:f1:62:dd:55:45:a8:c3:3c:ca:48:da:6f:f8:b5:
                    a1:5f
                Exponent: 65537 (0x10001)
        X509v3 extensions:
            X509v3 Basic Constraints: 
                CA:FALSE
            X509v3 Subject Key Identifier: 
                8A:71:12:53:95:89:10:26:D0:CC:F5:7A:E9:6D:05:73:18:EE:5E:68
            X509v3 Authority Key Identifier: 
                keyid:EB:D8:59:99:ED:0B:15:A4:A5:9F:C0:9B:D1:5E:61:70:C5:1E:E9:C5
                DirName:/CN=team116-net
                serial:2B:8D:D1:14:61:7D:5A:80:51:F9:9C:EF:4C:ED:2C:87:AC:AE:5F:FB

            X509v3 Extended Key Usage: 
                TLS Web Server Authentication
            X509v3 Key Usage: 
                Digital Signature, Key Encipherment
            X509v3 Subject Alternative Name: 
                DNS:team116-server
    Signature Algorithm: sha256WithRSAEncryption
         11:d6:c3:e7:26:fe:f1:ca:4f:b7:8a:30:67:9c:fe:c5:9c:5c:
         b0:6b:04:94:01:33:39:50:04:c0:ab:cf:64:08:d7:03:a4:e1:
         3d:0b:4d:2f:ee:4c:9e:cb:ea:b8:b7:86:f4:2c:6b:36:b4:44:
         be:a6:85:a1:8f:76:f1:ee:69:88:b8:bc:9c:40:55:66:e5:fe:
         4b:f7:bf:6e:a4:30:39:e4:ac:cd:79:33:e3:ab:4a:bb:e6:4d:
         b8:5d:2a:e4:76:fd:a3:15:65:ab:0c:1f:5b:79:f0:cb:ea:97:
         5a:61:5c:07:f1:a1:42:db:1e:0b:8a:33:c1:6d:a5:c6:c9:26:
         f1:24:d5:ad:2c:22:07:f5:01:ee:2f:6e:fd:be:16:e3:ec:82:
         18:f8:c4:88:e4:0f:2e:be:e3:be:73:2f:cd:a7:58:e0:0c:93:
         6e:29:78:f3:f3:09:c3:71:c8:34:65:3c:b0:4f:1b:e9:b3:b9:
         98:97:ef:47:79:fc:27:6e:f3:2d:29:23:3f:2c:1b:40:c8:75:
         5a:d3:92:7c:e8:0e:2e:da:90:15:61:c3:73:a2:67:84:28:a2:
         5b:0f:18:b1:6c:3d:3e:79:82:b0:3e:0a:a2:e1:5b:dc:38:53:
         fc:7c:52:94:46:aa:de:44:a3:e6:64:79:5e:ad:58:8f:9f:59:
         c2:57:42:95
-----BEGIN CERTIFICATE-----
MIIDeDCCAmCgAwIBAgIRAPrknGgLdvwJeSh5ah72NdQwDQYJKoZIhvcNAQELBQAw
FjEUMBIGA1UEAwwLdGVhbTExNi1uZXQwHhcNMjEwOTEyMjM0NzM4WhcNMjQwODI3
MjM0NzM4WjAZMRcwFQYDVQQDDA50ZWFtMTE2LXNlcnZlcjCCASIwDQYJKoZIhvcN
AQEBBQADggEPADCCAQoCggEBALc/Xo5cQOWGUTWaihbUqYeWEHRZed4+yaWQFDkc
SeE9KQpqvMFg6rgq7gMnmVJ7CfD4g77eW9siN9OKfhRIJuqteIbAAM46g6vzNxWd
EUG3sfoYkUX3+5glwu4aVQUM8f4evx5hVCeRQ4PyA8IKKIp0PwI6CbHYQg5A8fib
h9XCuPV04VUI8Q8B8xiICKSnraOY9J0LejoAdq/P4frPvh4rvI2sQgpZ0Yr33YqJ
Ehn+ebawfBGDMFw3laD1Ok4filR9W3qKvFc8qqnZ1o+mWCE/MQmrhtqgNcLOuPWf
8Vcn1qtfoVFikJy3yTmwdP4FI/Fi3VVFqMM8ykjab/i1oV8CAwEAAaOBvTCBujAJ
BgNVHRMEAjAAMB0GA1UdDgQWBBSKcRJTlYkQJtDM9XrpbQVzGO5eaDBRBgNVHSME
SjBIgBTr2FmZ7QsVpKWfwJvRXmFwxR7pxaEapBgwFjEUMBIGA1UEAwwLdGVhbTEx
Ni1uZXSCFCuN0RRhfVqAUfmc70ztLIesrl/7MBMGA1UdJQQMMAoGCCsGAQUFBwMB
MAsGA1UdDwQEAwIFoDAZBgNVHREEEjAQgg50ZWFtMTE2LXNlcnZlcjANBgkqhkiG
9w0BAQsFAAOCAQEAEdbD5yb+8cpPt4owZ5z+xZxcsGsElAEzOVAEwKvPZAjXA6Th
PQtNL+5MnsvquLeG9CxrNrREvqaFoY928e5piLi8nEBVZuX+S/e/bqQwOeSszXkz
46tKu+ZNuF0q5Hb9oxVlqwwfW3nwy+qXWmFcB/GhQtseC4ozwW2lxskm8STVrSwi
B/UB7i9u/b4W4+yCGPjEiOQPLr7jvnMvzadY4AyTbil48/MJw3HINGU8sE8b6bO5
mJfvR3n8J27zLSkjPywbQMh1WtOSfOgOLtqQFWHDc6JnhCiiWw8YsWw9PnmCsD4K
ouFb3DhT/HxSlEaq3kSj5mR5Xq1Yj59ZwldClQ==
-----END CERTIFICATE-----
