Certificate:
    Data:
        Version: 3 (0x2)
        Serial Number:
            2b:b7:5a:82:7f:02:17:e0:db:c5:9f:4b:01:70:51:0b
        Signature Algorithm: sha256WithRSAEncryption
        Issuer: CN=team379-net
        Validity
            Not Before: Sep 13 02:09:40 2021 GMT
            Not After : Aug 28 02:09:40 2024 GMT
        Subject: CN=team379-server
        Subject Public Key Info:
            Public Key Algorithm: rsaEncryption
                RSA Public-Key: (2048 bit)
                Modulus:
                    00:b2:ca:1c:43:1a:0b:d5:b0:6a:c2:bf:49:9b:cb:
                    30:0b:6a:4f:1b:52:55:38:18:b2:dd:47:16:f5:e5:
                    31:18:85:f1:b1:44:86:6e:18:48:db:67:b5:de:27:
                    cc:b2:69:5f:16:7b:9a:10:f2:a8:b1:f4:50:d3:8a:
                    25:0c:3b:8b:85:f8:1b:3b:39:5b:5c:fb:d6:c3:67:
                    26:85:a2:ae:26:49:9e:8e:83:f7:be:ec:8d:ef:24:
                    dc:76:c2:e0:dc:45:d6:d0:cb:dd:44:40:1b:fc:82:
                    c8:37:7d:6b:dc:b6:58:7e:d9:3b:f0:16:e2:da:62:
                    8b:7f:7a:c5:41:3a:06:4c:d8:92:6d:cd:87:2d:29:
                    d2:2d:4b:7f:9e:ad:86:c2:1d:8b:68:ad:c5:53:16:
                    7c:94:74:a9:bf:b4:7f:6c:24:f1:74:40:22:5e:5c:
                    96:8f:1d:81:9a:28:b0:64:cc:5f:c7:eb:31:24:67:
                    e7:da:d2:23:5d:34:a8:c7:d3:d0:46:c5:94:1d:81:
                    b8:b0:c5:9b:2c:22:64:37:27:f3:03:1a:77:37:57:
                    a4:34:df:fb:65:74:cd:c2:54:c3:dd:32:7f:82:0f:
                    d8:44:e6:dd:c3:bc:90:22:dc:bb:2c:cd:b7:dd:f6:
                    c6:cd:9c:a6:8f:e5:68:1e:7a:6f:0c:e0:74:9c:1e:
                    02:53
                Exponent: 65537 (0x10001)
        X509v3 extensions:
            X509v3 Basic Constraints: 
                CA:FALSE
            X509v3 Subject Key Identifier: 
                D9:2A:F9:16:2A:4A:C0:3F:28:F0:D0:C1:92:E9:3B:42:F2:C1:5E:13
            X509v3 Authority Key Identifier: 
                keyid:A9:2D:52:95:D3:4B:E1:E3:65:0E:EB:48:6F:BB:7F:F4:18:9F:FF:AB
                DirName:/CN=team379-net
                serial:57:73:7E:26:70:99:FC:15:54:DA:F7:CA:99:51:BF:B1:DC:5D:55:65

            X509v3 Extended Key Usage: 
                TLS Web Server Authentication
            X509v3 Key Usage: 
                Digital Signature, Key Encipherment
            X509v3 Subject Alternative Name: 
                DNS:team379-server
    Signature Algorithm: sha256WithRSAEncryption
         45:0f:74:08:43:28:9c:2e:82:30:cd:81:41:64:8f:30:0b:c1:
         0a:84:ff:22:3e:25:97:85:9b:27:5d:31:ec:76:01:ee:cd:52:
         e2:fa:c1:68:65:00:18:29:fc:1a:70:2c:f2:b7:90:c3:19:fc:
         f8:af:78:1c:7c:83:30:38:57:33:8e:4d:ef:dd:86:61:7c:dc:
         dd:10:47:2f:a5:49:b4:4d:76:72:34:21:39:aa:67:a1:e6:c4:
         c2:5a:46:3e:c9:8a:cf:43:32:e8:38:11:2e:13:45:ab:0a:c2:
         69:94:32:72:04:0e:c5:87:92:18:9f:57:2f:1f:ef:b9:a2:3f:
         2a:76:a7:82:48:41:4c:71:51:91:9c:d6:91:51:29:f8:0f:3b:
         5b:38:6b:15:67:49:30:45:0a:ac:89:08:53:ff:9d:74:6c:98:
         cd:76:67:a3:9e:4a:e0:61:dd:a3:8f:f7:86:ab:a7:c4:92:30:
         f4:e4:93:91:0b:87:b3:91:77:6f:92:04:8e:c4:f3:80:ba:08:
         7f:cc:27:cc:11:8e:17:96:c3:5b:83:2b:89:26:a6:cc:33:1d:
         67:9a:90:0f:93:28:30:58:3d:e9:39:c5:50:cb:9e:21:b9:96:
         32:45:00:16:3d:e5:e4:c6:c0:f1:c5:d1:e0:7c:a2:6b:87:7b:
         73:c7:db:ab
-----BEGIN CERTIFICATE-----
MIIDdzCCAl+gAwIBAgIQK7dagn8CF+DbxZ9LAXBRCzANBgkqhkiG9w0BAQsFADAW
MRQwEgYDVQQDDAt0ZWFtMzc5LW5ldDAeFw0yMTA5MTMwMjA5NDBaFw0yNDA4Mjgw
MjA5NDBaMBkxFzAVBgNVBAMMDnRlYW0zNzktc2VydmVyMIIBIjANBgkqhkiG9w0B
AQEFAAOCAQ8AMIIBCgKCAQEAssocQxoL1bBqwr9Jm8swC2pPG1JVOBiy3UcW9eUx
GIXxsUSGbhhI22e13ifMsmlfFnuaEPKosfRQ04olDDuLhfgbOzlbXPvWw2cmhaKu
JkmejoP3vuyN7yTcdsLg3EXW0MvdREAb/ILIN31r3LZYftk78Bbi2mKLf3rFQToG
TNiSbc2HLSnSLUt/nq2Gwh2LaK3FUxZ8lHSpv7R/bCTxdEAiXlyWjx2BmiiwZMxf
x+sxJGfn2tIjXTSox9PQRsWUHYG4sMWbLCJkNyfzAxp3N1ekNN/7ZXTNwlTD3TJ/
gg/YRObdw7yQIty7LM233fbGzZymj+VoHnpvDOB0nB4CUwIDAQABo4G9MIG6MAkG
A1UdEwQCMAAwHQYDVR0OBBYEFNkq+RYqSsA/KPDQwZLpO0LywV4TMFEGA1UdIwRK
MEiAFKktUpXTS+HjZQ7rSG+7f/QYn/+roRqkGDAWMRQwEgYDVQQDDAt0ZWFtMzc5
LW5ldIIUV3N+JnCZ/BVU2vfKmVG/sdxdVWUwEwYDVR0lBAwwCgYIKwYBBQUHAwEw
CwYDVR0PBAQDAgWgMBkGA1UdEQQSMBCCDnRlYW0zNzktc2VydmVyMA0GCSqGSIb3
DQEBCwUAA4IBAQBFD3QIQyicLoIwzYFBZI8wC8EKhP8iPiWXhZsnXTHsdgHuzVLi
+sFoZQAYKfwacCzyt5DDGfz4r3gcfIMwOFczjk3v3YZhfNzdEEcvpUm0TXZyNCE5
qmeh5sTCWkY+yYrPQzLoOBEuE0WrCsJplDJyBA7Fh5IYn1cvH++5oj8qdqeCSEFM
cVGRnNaRUSn4DztbOGsVZ0kwRQqsiQhT/510bJjNdmejnkrgYd2jj/eGq6fEkjD0
5JORC4ezkXdvkgSOxPOAugh/zCfMEY4XlsNbgyuJJqbMMx1nmpAPkygwWD3pOcVQ
y54huZYyRQAWPeXkxsDxxdHgfKJrh3tzx9ur
-----END CERTIFICATE-----
