Certificate:
    Data:
        Version: 3 (0x2)
        Serial Number:
            ce:9d:fc:bb:d0:db:5e:61:3c:d2:15:cc:f2:a1:ad:21
        Signature Algorithm: sha256WithRSAEncryption
        Issuer: CN=team552-net
        Validity
            Not Before: Sep 13 03:48:54 2021 GMT
            Not After : Aug 28 03:48:54 2024 GMT
        Subject: CN=team552-client
        Subject Public Key Info:
            Public Key Algorithm: rsaEncryption
                RSA Public-Key: (2048 bit)
                Modulus:
                    00:ea:3a:14:ff:57:49:8f:48:46:c6:6d:86:5f:37:
                    4c:b1:52:22:42:34:dc:cf:61:1a:b1:fe:52:41:b7:
                    fb:00:fa:29:0c:92:63:60:ab:ca:6e:8f:8b:07:83:
                    83:22:32:5a:3c:7b:00:aa:24:23:c4:37:2b:12:1b:
                    73:79:c4:58:ac:a1:8d:26:0a:c0:40:a8:c1:48:6c:
                    ae:b2:83:f7:bb:69:2a:e4:28:48:af:22:ff:54:96:
                    60:f4:73:98:5a:3d:d2:15:89:b0:8c:6f:ff:5b:f9:
                    2d:9e:35:96:36:c3:1e:8c:6a:eb:95:de:a7:73:f2:
                    c3:98:9e:e2:31:e9:ea:b1:64:ee:c7:04:97:19:5e:
                    cf:76:c9:32:f7:bc:da:27:a1:f6:62:97:28:3c:50:
                    d6:76:6e:cf:f8:a2:35:2b:90:0d:47:96:51:a2:a1:
                    ad:6a:4b:81:42:6e:c1:3c:20:53:85:38:65:60:fa:
                    10:c2:7d:55:40:da:53:41:ac:ce:2d:ab:23:e8:d2:
                    94:ec:7e:71:c1:74:f0:0a:5b:e8:ec:c2:0c:2b:97:
                    f0:ed:20:fa:a4:f0:4e:25:f3:ad:58:fe:63:a7:02:
                    dc:65:f9:43:e0:00:9f:9e:af:be:86:c2:7d:9c:fb:
                    56:03:b4:1e:e0:4a:0c:39:46:ac:20:c6:fe:b2:f3:
                    03:0d
                Exponent: 65537 (0x10001)
        X509v3 extensions:
            X509v3 Basic Constraints: 
                CA:FALSE
            X509v3 Subject Key Identifier: 
                9B:C2:DD:E7:FE:7C:C5:80:27:73:F2:A7:AA:DC:4C:A9:E3:BE:AF:2C
            X509v3 Authority Key Identifier: 
                keyid:EE:9A:DE:C6:2B:B1:4F:BE:69:5E:09:15:B8:3A:EB:A9:8A:64:D6:E4
                DirName:/CN=team552-net
                serial:2B:A7:19:B6:B4:7E:73:5E:C8:44:23:7A:45:A3:4C:A4:D1:94:1C:A9

            X509v3 Extended Key Usage: 
                TLS Web Client Authentication
            X509v3 Key Usage: 
                Digital Signature
    Signature Algorithm: sha256WithRSAEncryption
         81:19:44:cb:65:f0:63:3f:f7:16:65:7a:2d:b1:e6:8c:22:91:
         46:6c:fb:a2:b5:3f:02:4d:56:2a:36:a7:d6:80:72:9f:17:73:
         c0:4b:97:56:24:4f:b9:d1:80:bd:bc:e2:df:69:9f:37:88:4e:
         72:ed:95:c6:2f:5e:e5:1c:fb:f8:f5:a8:ab:0b:e2:81:c2:2d:
         43:c9:ec:49:34:48:5d:0e:80:0a:b0:37:d6:ed:9b:c2:81:7f:
         d7:a2:51:70:5f:37:c4:c0:b1:5c:38:2d:6c:23:18:1f:92:ba:
         c6:1a:83:9e:ae:eb:49:66:95:1a:82:a0:51:17:9d:88:c8:e0:
         d8:97:b1:3a:23:4d:48:5b:f0:4e:10:26:af:ce:51:2a:e9:98:
         82:fc:ef:4a:d2:b4:07:51:41:74:6b:c0:5b:85:c7:07:8d:3e:
         7b:f8:d0:fc:92:4d:b1:0a:72:93:61:cb:04:e6:1e:ff:57:8f:
         6d:0f:5f:9b:6e:14:e5:13:32:43:fb:e2:e6:01:56:7e:d4:f6:
         44:8d:78:6d:95:fe:d3:e3:89:a6:e1:14:b2:85:f9:d2:0e:9b:
         02:0c:33:64:fd:d0:d5:dd:ed:6b:9a:3c:11:a3:58:95:44:0e:
         60:36:9b:71:b1:2e:9f:6c:f5:70:da:4f:ec:50:ee:93:80:e0:
         23:60:9b:cf
-----BEGIN CERTIFICATE-----
MIIDXTCCAkWgAwIBAgIRAM6d/LvQ215hPNIVzPKhrSEwDQYJKoZIhvcNAQELBQAw
FjEUMBIGA1UEAwwLdGVhbTU1Mi1uZXQwHhcNMjEwOTEzMDM0ODU0WhcNMjQwODI4
MDM0ODU0WjAZMRcwFQYDVQQDDA50ZWFtNTUyLWNsaWVudDCCASIwDQYJKoZIhvcN
AQEBBQADggEPADCCAQoCggEBAOo6FP9XSY9IRsZthl83TLFSIkI03M9hGrH+UkG3
+wD6KQySY2Crym6PiweDgyIyWjx7AKokI8Q3KxIbc3nEWKyhjSYKwECowUhsrrKD
97tpKuQoSK8i/1SWYPRzmFo90hWJsIxv/1v5LZ41ljbDHoxq65Xep3Pyw5ie4jHp
6rFk7scElxlez3bJMve82ieh9mKXKDxQ1nZuz/iiNSuQDUeWUaKhrWpLgUJuwTwg
U4U4ZWD6EMJ9VUDaU0Gszi2rI+jSlOx+ccF08Apb6OzCDCuX8O0g+qTwTiXzrVj+
Y6cC3GX5Q+AAn56vvobCfZz7VgO0HuBKDDlGrCDG/rLzAw0CAwEAAaOBojCBnzAJ
BgNVHRMEAjAAMB0GA1UdDgQWBBSbwt3n/nzFgCdz8qeq3Eyp476vLDBRBgNVHSME
SjBIgBTumt7GK7FPvmleCRW4OuupimTW5KEapBgwFjEUMBIGA1UEAwwLdGVhbTU1
Mi1uZXSCFCunGba0fnNeyEQjekWjTKTRlBypMBMGA1UdJQQMMAoGCCsGAQUFBwMC
MAsGA1UdDwQEAwIHgDANBgkqhkiG9w0BAQsFAAOCAQEAgRlEy2XwYz/3FmV6LbHm
jCKRRmz7orU/Ak1WKjan1oBynxdzwEuXViRPudGAvbzi32mfN4hOcu2Vxi9e5Rz7
+PWoqwvigcItQ8nsSTRIXQ6ACrA31u2bwoF/16JRcF83xMCxXDgtbCMYH5K6xhqD
nq7rSWaVGoKgURediMjg2JexOiNNSFvwThAmr85RKumYgvzvStK0B1FBdGvAW4XH
B40+e/jQ/JJNsQpyk2HLBOYe/1ePbQ9fm24U5RMyQ/vi5gFWftT2RI14bZX+0+OJ
puEUsoX50g6bAgwzZP3Q1d3ta5o8EaNYlUQOYDabcbEun2z1cNpP7FDuk4DgI2Cb
zw==
-----END CERTIFICATE-----
