Certificate:
    Data:
        Version: 3 (0x2)
        Serial Number:
            0d:d0:25:e7:40:09:17:13:00:32:a9:42:0b:27:d0:a1
        Signature Algorithm: sha256WithRSAEncryption
        Issuer: CN=team600-net
        Validity
            Not Before: Sep 13 04:01:28 2021 GMT
            Not After : Aug 28 04:01:28 2024 GMT
        Subject: CN=team600-server
        Subject Public Key Info:
            Public Key Algorithm: rsaEncryption
                RSA Public-Key: (2048 bit)
                Modulus:
                    00:d9:46:dc:97:bf:29:b2:70:1b:aa:ae:ef:f6:de:
                    f2:43:d9:38:97:3e:43:9f:6c:50:7d:ba:2e:41:f0:
                    f6:67:ee:0d:95:9c:c0:50:77:12:e3:57:38:0e:37:
                    37:94:b2:08:ba:c7:87:4d:cf:55:f2:3f:79:80:46:
                    60:e8:b6:d2:95:a2:22:48:df:db:a7:ff:e6:26:a7:
                    97:fb:08:a6:78:87:25:1c:eb:e8:f3:32:28:18:03:
                    de:01:ee:35:96:62:64:b3:12:64:df:1f:96:86:e4:
                    fb:31:86:ab:c3:0d:2a:34:b3:dd:fc:ae:cd:b2:8e:
                    86:6d:a1:9d:ba:4d:c8:59:7f:87:a9:08:82:0e:18:
                    96:47:3a:90:bd:74:3a:b1:90:86:73:47:9a:e2:7b:
                    2d:76:7a:85:14:f8:05:cf:c7:4e:a1:b9:8f:ea:07:
                    a1:04:e1:a4:0c:80:9d:98:e5:e2:0f:92:57:c5:b0:
                    85:1d:37:23:56:b6:56:38:64:a4:2b:82:d9:f0:19:
                    3c:a3:1f:e8:ea:82:da:05:84:3d:a9:ac:6f:e9:b3:
                    85:84:db:c9:b6:c5:d8:cc:5c:00:06:9d:a0:ab:40:
                    ca:82:78:5d:c9:cf:f3:0e:c3:64:70:85:c1:ac:6a:
                    e4:d1:56:e7:d9:09:6c:94:03:77:1c:ed:17:b5:5e:
                    df:df
                Exponent: 65537 (0x10001)
        X509v3 extensions:
            X509v3 Basic Constraints: 
                CA:FALSE
            X509v3 Subject Key Identifier: 
                F4:A1:79:FF:1B:8A:8D:80:56:83:A9:C8:5F:59:2D:A4:0B:0C:3A:83
            X509v3 Authority Key Identifier: 
                keyid:BD:10:8F:4F:B7:35:73:93:DE:F8:92:3C:64:64:0C:FC:38:46:4E:B1
                DirName:/CN=team600-net
                serial:77:9C:D5:72:F2:60:89:3A:1C:A9:66:A9:01:A0:14:74:1F:A6:E1:FF

            X509v3 Extended Key Usage: 
                TLS Web Server Authentication
            X509v3 Key Usage: 
                Digital Signature, Key Encipherment
            X509v3 Subject Alternative Name: 
                DNS:team600-server
    Signature Algorithm: sha256WithRSAEncryption
         29:71:79:37:a8:5e:53:7a:56:22:48:4c:a6:1d:02:02:0f:30:
         e3:dd:0f:c7:87:c9:65:a5:d2:8a:c2:c7:59:5a:70:d8:f8:f0:
         52:8a:3f:54:1d:72:53:ed:88:57:51:24:d0:0e:2c:b4:4b:63:
         61:5c:99:e7:9a:d9:57:35:a5:3b:a0:66:7a:65:92:31:ef:10:
         b8:5b:14:a9:e9:41:93:cb:a8:6b:e6:61:dc:49:a4:81:18:5e:
         23:d7:cc:70:ba:cc:12:84:55:77:28:f5:be:9c:82:2a:b4:d0:
         bf:91:02:9c:d5:35:cd:4a:e5:89:6b:c2:76:56:18:91:06:95:
         39:15:71:37:cf:dc:32:1f:52:5a:65:99:d6:14:c4:42:f4:8f:
         a1:e9:ad:94:d6:61:44:4e:db:36:12:ec:32:e2:ab:af:47:8c:
         86:97:2a:b0:05:b8:35:9a:45:7b:2a:05:dc:4e:b5:c6:f3:ab:
         fc:8f:b9:99:7c:1f:7d:de:b8:8a:c2:b8:ca:2f:d1:e3:ff:1d:
         d5:74:f0:8c:9e:fd:fb:e1:07:a6:f2:f5:13:6c:be:3c:76:98:
         b2:3c:dd:43:20:95:f5:f6:b5:cb:2b:b6:93:cf:ab:42:2f:38:
         2a:4d:a6:3a:97:70:3b:c1:f1:78:24:6d:a5:d2:10:55:f4:50:
         d0:a4:72:35
-----BEGIN CERTIFICATE-----
MIIDdzCCAl+gAwIBAgIQDdAl50AJFxMAMqlCCyfQoTANBgkqhkiG9w0BAQsFADAW
MRQwEgYDVQQDDAt0ZWFtNjAwLW5ldDAeFw0yMTA5MTMwNDAxMjhaFw0yNDA4Mjgw
NDAxMjhaMBkxFzAVBgNVBAMMDnRlYW02MDAtc2VydmVyMIIBIjANBgkqhkiG9w0B
AQEFAAOCAQ8AMIIBCgKCAQEA2Ubcl78psnAbqq7v9t7yQ9k4lz5Dn2xQfbouQfD2
Z+4NlZzAUHcS41c4Djc3lLIIuseHTc9V8j95gEZg6LbSlaIiSN/bp//mJqeX+wim
eIclHOvo8zIoGAPeAe41lmJksxJk3x+WhuT7MYarww0qNLPd/K7Nso6GbaGduk3I
WX+HqQiCDhiWRzqQvXQ6sZCGc0ea4nstdnqFFPgFz8dOobmP6gehBOGkDICdmOXi
D5JXxbCFHTcjVrZWOGSkK4LZ8Bk8ox/o6oLaBYQ9qaxv6bOFhNvJtsXYzFwABp2g
q0DKgnhdyc/zDsNkcIXBrGrk0Vbn2QlslAN3HO0XtV7f3wIDAQABo4G9MIG6MAkG
A1UdEwQCMAAwHQYDVR0OBBYEFPShef8bio2AVoOpyF9ZLaQLDDqDMFEGA1UdIwRK
MEiAFL0Qj0+3NXOT3viSPGRkDPw4Rk6xoRqkGDAWMRQwEgYDVQQDDAt0ZWFtNjAw
LW5ldIIUd5zVcvJgiTocqWapAaAUdB+m4f8wEwYDVR0lBAwwCgYIKwYBBQUHAwEw
CwYDVR0PBAQDAgWgMBkGA1UdEQQSMBCCDnRlYW02MDAtc2VydmVyMA0GCSqGSIb3
DQEBCwUAA4IBAQApcXk3qF5TelYiSEymHQICDzDj3Q/Hh8llpdKKwsdZWnDY+PBS
ij9UHXJT7YhXUSTQDiy0S2NhXJnnmtlXNaU7oGZ6ZZIx7xC4WxSp6UGTy6hr5mHc
SaSBGF4j18xwuswShFV3KPW+nIIqtNC/kQKc1TXNSuWJa8J2VhiRBpU5FXE3z9wy
H1JaZZnWFMRC9I+h6a2U1mFETts2Euwy4quvR4yGlyqwBbg1mkV7KgXcTrXG86v8
j7mZfB993riKwrjKL9Hj/x3VdPCMnv374Qem8vUTbL48dpiyPN1DIJX19rXLK7aT
z6tCLzgqTaY6l3A7wfF4JG2l0hBV9FDQpHI1
-----END CERTIFICATE-----
