Certificate:
    Data:
        Version: 3 (0x2)
        Serial Number:
            03:cd:fb:86:b6:83:3a:1e:66:8f:40:dd:b2:14:0a:66
        Signature Algorithm: sha256WithRSAEncryption
        Issuer: CN=team262-net
        Validity
            Not Before: Sep 13 00:58:34 2021 GMT
            Not After : Aug 28 00:58:34 2024 GMT
        Subject: CN=team262-server
        Subject Public Key Info:
            Public Key Algorithm: rsaEncryption
                RSA Public-Key: (2048 bit)
                Modulus:
                    00:c3:93:9d:ac:52:cc:a6:39:32:a5:5d:86:c4:68:
                    dd:e0:89:66:1d:99:b7:94:d2:50:9d:3f:c8:c5:bd:
                    f6:b7:32:fd:46:c1:af:dc:1c:db:e9:2f:a6:55:7d:
                    a1:75:f5:6b:7f:af:aa:27:c0:a6:63:e5:fa:fa:b6:
                    40:ee:82:7a:46:e1:24:53:86:22:80:31:96:3c:fe:
                    10:48:63:83:15:a7:f9:61:9c:b9:9b:19:d2:9c:37:
                    cd:05:b0:21:b8:52:cf:37:09:1b:96:07:35:59:03:
                    68:a1:9d:5f:98:2b:07:77:f3:56:69:17:cc:33:49:
                    a6:e1:14:1a:c1:c6:96:3d:70:eb:8a:d2:9a:96:41:
                    d1:98:f8:7b:f1:38:28:9c:e5:2d:77:69:fb:8a:9d:
                    bf:8c:97:c3:b0:a9:c2:28:48:98:7c:37:75:59:dc:
                    ea:b4:18:29:e6:a8:59:23:30:46:e1:7e:d3:76:4d:
                    f2:99:48:e5:c1:d3:81:b1:ff:a2:7b:4f:ef:fa:a4:
                    a5:f5:2f:dd:5a:6d:79:41:a5:86:3b:57:7d:01:17:
                    68:ec:d9:32:4a:ac:2a:a1:fb:ca:7f:e9:55:85:af:
                    c4:e6:b7:04:81:53:01:06:85:d3:59:82:41:cb:f6:
                    8d:00:23:7a:57:e9:d5:b2:72:77:8b:0a:a0:1b:b2:
                    0b:5b
                Exponent: 65537 (0x10001)
        X509v3 extensions:
            X509v3 Basic Constraints: 
                CA:FALSE
            X509v3 Subject Key Identifier: 
                29:FF:C9:EC:6D:17:8E:3B:39:61:6A:02:1C:F8:0C:54:F8:FB:BF:04
            X509v3 Authority Key Identifier: 
                keyid:C3:F6:9B:E5:E4:1B:88:ED:42:D1:25:FF:7E:0D:92:E5:32:90:EF:F2
                DirName:/CN=team262-net
                serial:14:44:75:69:64:AD:FF:D7:E2:13:EF:7F:33:EE:20:49:D4:1F:FD:B5

            X509v3 Extended Key Usage: 
                TLS Web Server Authentication
            X509v3 Key Usage: 
                Digital Signature, Key Encipherment
            X509v3 Subject Alternative Name: 
                DNS:team262-server
    Signature Algorithm: sha256WithRSAEncryption
         2a:66:1b:3a:d5:80:33:77:a6:fb:01:64:f1:34:c2:d2:fc:00:
         62:7f:a8:2d:57:c6:7b:dd:27:f4:de:3d:43:22:6c:25:bb:c7:
         6e:7d:77:8c:22:fa:a9:42:9d:d5:c3:41:0a:28:0a:1a:b7:73:
         db:0e:31:5b:b7:69:ba:10:36:07:1c:f0:6d:29:78:d6:db:9d:
         ca:1b:36:7e:8c:8e:99:6c:f1:de:29:cc:a5:39:c4:42:f9:88:
         8a:ca:f5:ca:6e:98:26:8e:31:f5:22:f5:2c:2a:59:51:d1:34:
         34:2a:c4:12:f6:25:a7:d3:e3:f4:79:a0:e1:68:34:05:16:38:
         9d:eb:66:1d:fa:e8:e8:c2:5d:15:9e:9b:4e:8f:c3:c9:12:40:
         9f:74:01:6e:97:c1:02:36:d9:7f:e6:10:08:3d:d0:1c:22:95:
         67:c2:61:aa:b8:03:eb:5e:f6:e6:88:0e:3e:84:e4:8b:df:bb:
         5c:67:17:3b:61:e1:16:8a:62:83:da:a4:ab:5a:7e:65:a9:e3:
         26:22:ac:5c:31:70:95:4a:08:15:80:ee:f6:6e:ee:1b:c7:ca:
         a1:4a:09:8c:42:78:d7:30:95:fd:c8:42:14:2a:fa:d7:4b:65:
         c9:4b:7a:ad:e8:6d:9d:8f:4d:d9:2a:9a:c8:08:a0:f8:a3:04:
         2f:e4:66:61
-----BEGIN CERTIFICATE-----
MIIDdzCCAl+gAwIBAgIQA837hraDOh5mj0DdshQKZjANBgkqhkiG9w0BAQsFADAW
MRQwEgYDVQQDDAt0ZWFtMjYyLW5ldDAeFw0yMTA5MTMwMDU4MzRaFw0yNDA4Mjgw
MDU4MzRaMBkxFzAVBgNVBAMMDnRlYW0yNjItc2VydmVyMIIBIjANBgkqhkiG9w0B
AQEFAAOCAQ8AMIIBCgKCAQEAw5OdrFLMpjkypV2GxGjd4IlmHZm3lNJQnT/Ixb32
tzL9RsGv3Bzb6S+mVX2hdfVrf6+qJ8CmY+X6+rZA7oJ6RuEkU4YigDGWPP4QSGOD
Faf5YZy5mxnSnDfNBbAhuFLPNwkblgc1WQNooZ1fmCsHd/NWaRfMM0mm4RQawcaW
PXDritKalkHRmPh78TgonOUtd2n7ip2/jJfDsKnCKEiYfDd1WdzqtBgp5qhZIzBG
4X7Tdk3ymUjlwdOBsf+ie0/v+qSl9S/dWm15QaWGO1d9ARdo7NkySqwqofvKf+lV
ha/E5rcEgVMBBoXTWYJBy/aNACN6V+nVsnJ3iwqgG7ILWwIDAQABo4G9MIG6MAkG
A1UdEwQCMAAwHQYDVR0OBBYEFCn/yextF447OWFqAhz4DFT4+78EMFEGA1UdIwRK
MEiAFMP2m+XkG4jtQtEl/34NkuUykO/yoRqkGDAWMRQwEgYDVQQDDAt0ZWFtMjYy
LW5ldIIUFER1aWSt/9fiE+9/M+4gSdQf/bUwEwYDVR0lBAwwCgYIKwYBBQUHAwEw
CwYDVR0PBAQDAgWgMBkGA1UdEQQSMBCCDnRlYW0yNjItc2VydmVyMA0GCSqGSIb3
DQEBCwUAA4IBAQAqZhs61YAzd6b7AWTxNMLS/ABif6gtV8Z73Sf03j1DImwlu8du
fXeMIvqpQp3Vw0EKKAoat3PbDjFbt2m6EDYHHPBtKXjW253KGzZ+jI6ZbPHeKcyl
OcRC+YiKyvXKbpgmjjH1IvUsKllR0TQ0KsQS9iWn0+P0eaDhaDQFFjid62Yd+ujo
wl0VnptOj8PJEkCfdAFul8ECNtl/5hAIPdAcIpVnwmGquAPrXvbmiA4+hOSL37tc
Zxc7YeEWimKD2qSrWn5lqeMmIqxcMXCVSggVgO72bu4bx8qhSgmMQnjXMJX9yEIU
KvrXS2XJS3qt6G2dj03ZKprICKD4owQv5GZh
-----END CERTIFICATE-----
