Certificate:
    Data:
        Version: 3 (0x2)
        Serial Number:
            89:4d:0b:7e:1d:3d:d9:63:af:d0:63:b5:6c:21:ab:4b
        Signature Algorithm: sha256WithRSAEncryption
        Issuer: CN=team472-net
        Validity
            Not Before: Sep 13 02:59:49 2021 GMT
            Not After : Aug 28 02:59:49 2024 GMT
        Subject: CN=team472-server
        Subject Public Key Info:
            Public Key Algorithm: rsaEncryption
                RSA Public-Key: (2048 bit)
                Modulus:
                    00:b2:03:e8:40:b3:09:d7:75:08:aa:4d:ce:15:1a:
                    ea:cc:0f:cf:13:c6:54:40:13:02:51:d6:ed:3e:6e:
                    b2:b6:17:97:d5:b4:f8:12:05:fc:ad:39:87:fb:44:
                    af:ca:eb:95:95:a9:2f:42:dc:e3:7d:fc:5b:89:01:
                    e7:33:0e:9a:c3:97:76:18:be:77:f9:3c:3b:bd:1b:
                    8a:7b:3d:29:30:5a:19:f4:e0:20:ab:e4:e9:ad:6d:
                    6f:db:b3:9f:b6:76:d5:e3:51:5f:77:f2:9c:58:05:
                    c9:2e:3f:3d:a2:2f:2d:3c:c9:d5:e2:ac:28:ce:ba:
                    c4:a5:e8:4e:4f:05:e6:00:e8:c4:fc:71:50:92:31:
                    59:51:06:5f:15:f0:8c:cc:a8:b1:85:d2:91:22:81:
                    86:1a:f3:82:18:ac:aa:be:4d:c4:5e:36:3f:f5:72:
                    72:cd:ce:84:34:9b:10:4e:d4:f6:9e:a9:85:99:22:
                    e8:7d:36:64:86:bc:f4:8f:61:25:db:69:09:60:c1:
                    09:5b:8a:09:b7:89:a9:0d:1a:17:a6:04:58:0c:ff:
                    6e:75:9b:bc:ca:fc:0c:83:56:05:fa:19:e2:dd:00:
                    0d:34:28:4e:91:e7:52:5a:2f:0d:fb:c7:0e:27:d7:
                    71:6f:18:89:97:02:82:b8:80:f1:fa:98:86:52:dd:
                    17:23
                Exponent: 65537 (0x10001)
        X509v3 extensions:
            X509v3 Basic Constraints: 
                CA:FALSE
            X509v3 Subject Key Identifier: 
                A1:C0:D3:0D:10:57:78:3B:60:AD:41:08:93:7E:AC:A2:5C:D8:36:68
            X509v3 Authority Key Identifier: 
                keyid:1C:EE:73:11:31:2D:BF:D4:AE:07:6F:0B:BD:19:F6:11:5C:8C:47:7C
                DirName:/CN=team472-net
                serial:49:3E:F6:DB:A8:CC:4B:38:09:27:53:A6:37:49:31:F2:61:66:71:E6

            X509v3 Extended Key Usage: 
                TLS Web Server Authentication
            X509v3 Key Usage: 
                Digital Signature, Key Encipherment
            X509v3 Subject Alternative Name: 
                DNS:team472-server
    Signature Algorithm: sha256WithRSAEncryption
         51:8b:af:e1:cd:5f:42:83:65:f1:86:cd:50:72:b4:48:02:e4:
         f8:b1:e7:82:d5:55:b7:6e:ac:eb:44:5c:ed:83:90:88:a6:20:
         06:08:7a:13:32:74:b6:24:6d:e2:31:1f:a1:d8:f5:8f:64:dc:
         13:21:8b:77:a8:10:36:0b:8a:dd:f7:71:97:4c:6b:e4:61:f2:
         29:b1:26:78:17:a5:20:d0:17:f1:12:70:39:4c:2b:16:94:dc:
         bb:cf:06:65:a2:2f:e7:ce:16:ec:53:88:08:da:cd:77:98:1c:
         6b:8f:1a:3c:8b:cf:67:bf:91:71:bc:1e:c7:8f:07:28:6d:29:
         f3:26:3e:7f:1b:d8:ba:50:05:c2:c0:f1:a3:ce:ff:b8:0d:5a:
         f1:67:31:9b:c0:e8:97:22:43:0f:f4:e2:9d:4e:b6:1f:fe:22:
         6e:0a:81:8c:4c:88:52:12:06:bc:13:d5:65:04:c0:b8:ac:7e:
         57:30:ec:c4:ab:8f:ef:ca:f2:fc:28:ac:55:b0:70:a3:50:63:
         44:d6:28:99:7a:0e:d1:db:d2:ab:5e:b3:c7:74:b8:47:61:ac:
         14:43:b6:bb:0e:f4:0e:5a:9a:9b:fa:d6:5a:1f:4c:ef:a9:24:
         69:4c:26:8c:1e:b8:31:08:57:67:e0:22:84:d3:93:2a:20:ae:
         ee:6b:7c:c8
-----BEGIN CERTIFICATE-----
MIIDeDCCAmCgAwIBAgIRAIlNC34dPdljr9BjtWwhq0swDQYJKoZIhvcNAQELBQAw
FjEUMBIGA1UEAwwLdGVhbTQ3Mi1uZXQwHhcNMjEwOTEzMDI1OTQ5WhcNMjQwODI4
MDI1OTQ5WjAZMRcwFQYDVQQDDA50ZWFtNDcyLXNlcnZlcjCCASIwDQYJKoZIhvcN
AQEBBQADggEPADCCAQoCggEBALID6ECzCdd1CKpNzhUa6swPzxPGVEATAlHW7T5u
srYXl9W0+BIF/K05h/tEr8rrlZWpL0Lc4338W4kB5zMOmsOXdhi+d/k8O70bins9
KTBaGfTgIKvk6a1tb9uzn7Z21eNRX3fynFgFyS4/PaIvLTzJ1eKsKM66xKXoTk8F
5gDoxPxxUJIxWVEGXxXwjMyosYXSkSKBhhrzghisqr5NxF42P/Vycs3OhDSbEE7U
9p6phZki6H02ZIa89I9hJdtpCWDBCVuKCbeJqQ0aF6YEWAz/bnWbvMr8DINWBfoZ
4t0ADTQoTpHnUlovDfvHDifXcW8YiZcCgriA8fqYhlLdFyMCAwEAAaOBvTCBujAJ
BgNVHRMEAjAAMB0GA1UdDgQWBBShwNMNEFd4O2CtQQiTfqyiXNg2aDBRBgNVHSME
SjBIgBQc7nMRMS2/1K4Hbwu9GfYRXIxHfKEapBgwFjEUMBIGA1UEAwwLdGVhbTQ3
Mi1uZXSCFEk+9tuozEs4CSdTpjdJMfJhZnHmMBMGA1UdJQQMMAoGCCsGAQUFBwMB
MAsGA1UdDwQEAwIFoDAZBgNVHREEEjAQgg50ZWFtNDcyLXNlcnZlcjANBgkqhkiG
9w0BAQsFAAOCAQEAUYuv4c1fQoNl8YbNUHK0SALk+LHngtVVt26s60Rc7YOQiKYg
Bgh6EzJ0tiRt4jEfodj1j2TcEyGLd6gQNguK3fdxl0xr5GHyKbEmeBelINAX8RJw
OUwrFpTcu88GZaIv584W7FOICNrNd5gca48aPIvPZ7+Rcbwex48HKG0p8yY+fxvY
ulAFwsDxo87/uA1a8Wcxm8DolyJDD/TinU62H/4ibgqBjEyIUhIGvBPVZQTAuKx+
VzDsxKuP78ry/CisVbBwo1BjRNYomXoO0dvSq16zx3S4R2GsFEO2uw70Dlqam/rW
Wh9M76kkaUwmjB64MQhXZ+AihNOTKiCu7mt8yA==
-----END CERTIFICATE-----
