Certificate:
    Data:
        Version: 3 (0x2)
        Serial Number:
            01:49:45:13:a6:a4:38:34:a6:40:51:41:a9:7f:5b:ff
        Signature Algorithm: sha256WithRSAEncryption
        Issuer: CN=team714-net
        Validity
            Not Before: Sep 13 04:55:05 2021 GMT
            Not After : Aug 28 04:55:05 2024 GMT
        Subject: CN=team714-client
        Subject Public Key Info:
            Public Key Algorithm: rsaEncryption
                RSA Public-Key: (2048 bit)
                Modulus:
                    00:ab:74:14:30:d5:58:33:15:d2:28:ba:5a:c2:69:
                    94:8c:bb:4a:5b:ea:55:ff:51:5d:13:e1:a7:44:40:
                    af:9c:f3:5e:cd:fd:e4:cd:3e:8e:60:b3:a0:e6:e0:
                    f1:ae:51:8e:58:17:00:87:36:50:f7:9a:a6:3b:fd:
                    e9:9d:3e:09:57:73:c7:4f:3b:bb:2f:b0:d1:12:05:
                    bf:a1:de:46:c5:be:6f:25:b7:0b:b5:62:ad:5d:5f:
                    fb:30:a0:31:7c:bb:30:e9:61:15:bd:fd:7b:02:76:
                    01:d9:e7:68:25:32:7f:a0:c6:9b:96:53:6b:9a:2c:
                    5d:d3:c0:73:ca:b1:b1:81:6e:91:2a:73:61:12:5f:
                    49:1c:49:3e:4e:d0:e6:1c:0c:f0:a9:2a:31:cc:bf:
                    bd:df:0d:d8:72:11:46:89:31:a3:35:a5:5c:8b:67:
                    9f:75:84:0d:0c:4d:4b:e0:a2:a0:f4:e7:1c:d1:be:
                    46:9a:bf:1c:e9:68:31:6f:5c:4e:38:0a:21:4b:6b:
                    75:f0:de:43:a9:56:24:48:c4:6f:45:7f:82:3a:3c:
                    dc:f8:14:0a:b5:d6:1e:2b:c4:38:0b:8f:f8:25:86:
                    85:ae:d0:a9:74:20:aa:29:2f:52:17:cd:84:ed:9b:
                    9f:6c:fb:1f:42:18:76:e3:0d:b5:d9:19:90:bd:ba:
                    d9:07
                Exponent: 65537 (0x10001)
        X509v3 extensions:
            X509v3 Basic Constraints: 
                CA:FALSE
            X509v3 Subject Key Identifier: 
                5C:3C:F2:DA:31:6E:03:00:C6:61:60:1A:70:FF:1D:48:BE:87:18:E7
            X509v3 Authority Key Identifier: 
                keyid:D9:BB:B7:C5:63:0A:34:50:7C:1C:3A:66:7E:A2:70:0F:92:31:47:00
                DirName:/CN=team714-net
                serial:6C:31:8E:5F:6E:F1:1F:76:E1:BB:54:9F:B4:19:3A:E7:BE:3D:4C:19

            X509v3 Extended Key Usage: 
                TLS Web Client Authentication
            X509v3 Key Usage: 
                Digital Signature
    Signature Algorithm: sha256WithRSAEncryption
         80:3e:32:2c:63:ce:66:d3:07:de:5e:20:d9:ae:79:a4:60:b4:
         a7:a3:1a:2e:89:47:97:91:57:14:af:65:1d:e5:55:db:b7:b5:
         4e:ec:17:a5:8b:4b:0a:22:dd:61:89:bc:35:d5:68:68:12:d7:
         cb:8f:9a:55:7f:e0:75:6e:b0:5b:55:a7:98:32:cc:61:9d:25:
         8c:0b:c7:14:58:a0:2a:00:ab:cc:3a:91:e4:cf:4d:99:93:76:
         1a:4d:d6:30:71:36:bc:e5:23:72:e9:2c:44:69:2f:57:a3:00:
         d2:ec:56:11:fe:4b:71:6a:a3:ed:24:cb:ba:f0:c3:47:34:e3:
         18:ce:f4:4d:dc:70:9a:20:52:52:17:0e:d1:7b:bf:73:1c:fe:
         60:40:1f:36:65:a0:76:9f:50:5c:24:31:4c:be:d1:71:c0:c4:
         9a:03:2e:c0:f0:ef:03:82:f6:91:9b:62:eb:1b:51:09:c7:ca:
         27:1c:dd:11:90:c0:dc:a3:4c:fd:81:99:7b:25:9a:3c:c3:2d:
         6e:98:f4:93:bd:ec:49:87:27:03:68:63:98:2c:10:9b:54:bf:
         0b:7b:c1:be:b8:13:a9:89:72:43:a0:6b:1f:68:b4:49:53:2c:
         94:ae:96:4e:89:6e:6b:d8:89:24:be:a5:82:23:eb:0a:b3:d5:
         44:04:11:b1
-----BEGIN CERTIFICATE-----
MIIDXDCCAkSgAwIBAgIQAUlFE6akODSmQFFBqX9b/zANBgkqhkiG9w0BAQsFADAW
MRQwEgYDVQQDDAt0ZWFtNzE0LW5ldDAeFw0yMTA5MTMwNDU1MDVaFw0yNDA4Mjgw
NDU1MDVaMBkxFzAVBgNVBAMMDnRlYW03MTQtY2xpZW50MIIBIjANBgkqhkiG9w0B
AQEFAAOCAQ8AMIIBCgKCAQEAq3QUMNVYMxXSKLpawmmUjLtKW+pV/1FdE+GnRECv
nPNezf3kzT6OYLOg5uDxrlGOWBcAhzZQ95qmO/3pnT4JV3PHTzu7L7DREgW/od5G
xb5vJbcLtWKtXV/7MKAxfLsw6WEVvf17AnYB2edoJTJ/oMabllNrmixd08BzyrGx
gW6RKnNhEl9JHEk+TtDmHAzwqSoxzL+93w3YchFGiTGjNaVci2efdYQNDE1L4KKg
9Occ0b5Gmr8c6Wgxb1xOOAohS2t18N5DqVYkSMRvRX+COjzc+BQKtdYeK8Q4C4/4
JYaFrtCpdCCqKS9SF82E7ZufbPsfQhh24w212RmQvbrZBwIDAQABo4GiMIGfMAkG
A1UdEwQCMAAwHQYDVR0OBBYEFFw88toxbgMAxmFgGnD/HUi+hxjnMFEGA1UdIwRK
MEiAFNm7t8VjCjRQfBw6Zn6icA+SMUcAoRqkGDAWMRQwEgYDVQQDDAt0ZWFtNzE0
LW5ldIIUbDGOX27xH3bhu1SftBk65749TBkwEwYDVR0lBAwwCgYIKwYBBQUHAwIw
CwYDVR0PBAQDAgeAMA0GCSqGSIb3DQEBCwUAA4IBAQCAPjIsY85m0wfeXiDZrnmk
YLSnoxouiUeXkVcUr2Ud5VXbt7VO7Beli0sKIt1hibw11WhoEtfLj5pVf+B1brBb
VaeYMsxhnSWMC8cUWKAqAKvMOpHkz02Zk3YaTdYwcTa85SNy6SxEaS9XowDS7FYR
/ktxaqPtJMu68MNHNOMYzvRN3HCaIFJSFw7Re79zHP5gQB82ZaB2n1BcJDFMvtFx
wMSaAy7A8O8DgvaRm2LrG1EJx8onHN0RkMDco0z9gZl7JZo8wy1umPSTvexJhycD
aGOYLBCbVL8Le8G+uBOpiXJDoGsfaLRJUyyUrpZOiW5r2IkkvqWCI+sKs9VEBBGx
-----END CERTIFICATE-----
