Certificate:
    Data:
        Version: 3 (0x2)
        Serial Number:
            52:2d:22:a0:8f:ab:1e:07:32:d2:74:b5:1d:02:c1:e2
        Signature Algorithm: sha256WithRSAEncryption
        Issuer: CN=team111-net
        Validity
            Not Before: Sep 12 23:42:00 2021 GMT
            Not After : Aug 27 23:42:00 2024 GMT
        Subject: CN=team111-client
        Subject Public Key Info:
            Public Key Algorithm: rsaEncryption
                RSA Public-Key: (2048 bit)
                Modulus:
                    00:a0:41:8d:ff:d3:4f:90:c0:4f:1b:e5:c8:bf:f8:
                    0b:6c:82:a4:b9:b2:20:49:82:83:dd:4b:5a:45:a6:
                    c9:5d:35:fc:7c:43:2c:59:63:e8:28:52:97:d0:8d:
                    82:4e:f8:8f:a3:c0:5d:7d:bf:59:a7:68:32:30:7f:
                    ad:6d:53:8f:81:08:d6:1d:ac:eb:e5:ca:07:77:eb:
                    a6:c7:ce:36:fc:08:f5:3b:c8:98:c7:53:9a:66:a5:
                    d4:2a:a8:5d:b2:90:56:f1:27:ac:fd:9b:97:d2:0e:
                    e1:5c:95:2d:62:1f:af:b9:23:6d:dc:f2:40:68:77:
                    40:91:56:b7:db:d8:7b:07:f4:07:a8:e9:ac:1d:57:
                    1f:4d:a6:73:23:be:4b:e2:21:00:9f:9b:b9:f0:ee:
                    c4:e3:92:28:21:0a:d6:b2:63:88:d0:df:81:c5:01:
                    09:8b:b4:77:7e:72:55:80:cd:3e:02:08:3f:27:81:
                    05:2e:8e:f5:9b:bd:25:e4:26:e1:fc:c9:8b:85:f4:
                    22:de:69:7e:27:55:b7:e7:bb:84:60:9c:d2:7f:d7:
                    79:42:94:5b:d4:c6:db:c7:4b:43:5f:49:e6:eb:26:
                    4a:ff:1e:8b:66:9d:b7:16:68:c8:1e:2a:94:9a:84:
                    e9:7b:0e:bf:74:f6:81:0a:9a:84:7d:df:61:ba:76:
                    b4:bf
                Exponent: 65537 (0x10001)
        X509v3 extensions:
            X509v3 Basic Constraints: 
                CA:FALSE
            X509v3 Subject Key Identifier: 
                8A:4C:D9:97:CD:49:4F:21:09:0F:DE:EE:09:93:AB:34:55:F2:96:96
            X509v3 Authority Key Identifier: 
                keyid:EC:51:CF:DF:82:73:A5:CF:18:B6:32:D8:D6:F1:19:91:8C:C7:F7:82
                DirName:/CN=team111-net
                serial:45:B6:1D:65:2D:D6:72:4E:35:A3:8A:10:BF:AD:E2:4A:CB:DD:D9:4C

            X509v3 Extended Key Usage: 
                TLS Web Client Authentication
            X509v3 Key Usage: 
                Digital Signature
    Signature Algorithm: sha256WithRSAEncryption
         2c:6a:2c:53:0e:9d:ed:41:4d:4d:aa:1c:b2:a0:da:55:37:aa:
         53:f1:94:72:62:f5:2a:a5:b7:e0:83:26:67:21:e0:c9:ae:b8:
         fe:82:c9:83:e4:ba:b7:e5:aa:e2:fa:61:69:82:5d:c6:ff:73:
         46:c7:28:d5:26:2e:f3:f5:15:ed:74:bd:cc:07:0a:cb:ab:8c:
         69:04:f7:b8:f7:df:b0:9b:a5:08:7a:35:0b:2a:58:17:44:d4:
         32:c9:fa:7c:e8:c5:bd:38:b8:d7:59:ed:19:66:18:06:9e:2f:
         93:7d:85:49:44:e9:c1:0a:61:80:b1:16:23:f3:32:0f:ac:5f:
         5f:01:4d:17:c2:6a:79:8e:d1:9f:4c:e9:24:c6:ba:93:d2:2b:
         d8:a4:e8:b3:e5:f0:ec:59:62:0e:b0:9d:8a:47:2f:96:73:39:
         df:b6:fc:ce:af:7a:e0:d0:93:3a:7f:7e:36:18:dc:5b:23:7b:
         3e:35:61:b6:50:5c:dc:4e:b9:dd:bf:e1:14:b2:d2:a4:82:d4:
         79:9b:02:7c:a0:c8:e3:4e:a1:14:2e:64:ff:89:0c:50:8a:d6:
         eb:df:34:78:66:15:0d:cc:e3:bd:72:84:4a:03:b4:94:73:05:
         9d:79:36:6d:0d:a7:35:9a:d4:63:e5:af:1a:cb:28:86:0f:bf:
         3f:76:bb:b9
-----BEGIN CERTIFICATE-----
MIIDXDCCAkSgAwIBAgIQUi0ioI+rHgcy0nS1HQLB4jANBgkqhkiG9w0BAQsFADAW
MRQwEgYDVQQDDAt0ZWFtMTExLW5ldDAeFw0yMTA5MTIyMzQyMDBaFw0yNDA4Mjcy
MzQyMDBaMBkxFzAVBgNVBAMMDnRlYW0xMTEtY2xpZW50MIIBIjANBgkqhkiG9w0B
AQEFAAOCAQ8AMIIBCgKCAQEAoEGN/9NPkMBPG+XIv/gLbIKkubIgSYKD3UtaRabJ
XTX8fEMsWWPoKFKX0I2CTviPo8Bdfb9Zp2gyMH+tbVOPgQjWHazr5coHd+umx842
/Aj1O8iYx1OaZqXUKqhdspBW8Ses/ZuX0g7hXJUtYh+vuSNt3PJAaHdAkVa329h7
B/QHqOmsHVcfTaZzI75L4iEAn5u58O7E45IoIQrWsmOI0N+BxQEJi7R3fnJVgM0+
Agg/J4EFLo71m70l5Cbh/MmLhfQi3ml+J1W357uEYJzSf9d5QpRb1Mbbx0tDX0nm
6yZK/x6LZp23FmjIHiqUmoTpew6/dPaBCpqEfd9huna0vwIDAQABo4GiMIGfMAkG
A1UdEwQCMAAwHQYDVR0OBBYEFIpM2ZfNSU8hCQ/e7gmTqzRV8paWMFEGA1UdIwRK
MEiAFOxRz9+Cc6XPGLYy2NbxGZGMx/eCoRqkGDAWMRQwEgYDVQQDDAt0ZWFtMTEx
LW5ldIIURbYdZS3Wck41o4oQv63iSsvd2UwwEwYDVR0lBAwwCgYIKwYBBQUHAwIw
CwYDVR0PBAQDAgeAMA0GCSqGSIb3DQEBCwUAA4IBAQAsaixTDp3tQU1NqhyyoNpV
N6pT8ZRyYvUqpbfggyZnIeDJrrj+gsmD5Lq35ari+mFpgl3G/3NGxyjVJi7z9RXt
dL3MBwrLq4xpBPe499+wm6UIejULKlgXRNQyyfp86MW9OLjXWe0ZZhgGni+TfYVJ
ROnBCmGAsRYj8zIPrF9fAU0Xwmp5jtGfTOkkxrqT0ivYpOiz5fDsWWIOsJ2KRy+W
cznftvzOr3rg0JM6f342GNxbI3s+NWG2UFzcTrndv+EUstKkgtR5mwJ8oMjjTqEU
LmT/iQxQitbr3zR4ZhUNzOO9coRKA7SUcwWdeTZtDac1mtRj5a8ayyiGD78/dru5
-----END CERTIFICATE-----
