Certificate:
    Data:
        Version: 3 (0x2)
        Serial Number:
            df:46:ec:c8:cb:93:a9:18:19:71:7e:4c:5d:0e:ad:82
        Signature Algorithm: sha256WithRSAEncryption
        Issuer: CN=team426-net
        Validity
            Not Before: Sep 13 02:31:41 2021 GMT
            Not After : Aug 28 02:31:41 2024 GMT
        Subject: CN=team426-client
        Subject Public Key Info:
            Public Key Algorithm: rsaEncryption
                RSA Public-Key: (2048 bit)
                Modulus:
                    00:be:f4:d8:55:52:fc:b4:34:ef:9f:5d:6f:49:33:
                    3c:33:c0:ec:6c:78:68:b8:79:15:3a:52:0d:2e:5d:
                    38:ed:12:35:7a:06:53:65:f2:93:57:61:c1:75:dd:
                    4e:44:5d:74:7f:33:5e:ab:b8:86:b0:c1:2f:ea:bb:
                    3f:a7:15:47:66:45:41:ef:00:79:41:47:99:b0:e5:
                    da:a5:4c:50:61:2b:07:76:39:71:99:ed:99:79:a0:
                    df:48:a3:ca:ec:f5:0b:de:13:76:66:c7:87:f1:cc:
                    8d:24:eb:db:25:bb:dc:5e:77:22:de:e9:45:d4:cf:
                    3e:ba:36:07:c0:ce:53:d3:ef:c5:12:e5:63:40:fb:
                    ad:ec:8c:50:1b:b6:4a:be:fb:d4:c0:46:0f:b3:e7:
                    a6:61:5f:ae:aa:60:7b:be:7b:79:b3:47:c5:c3:fc:
                    31:01:af:a9:fe:e2:4c:75:91:c0:ae:09:a8:5c:b3:
                    9b:cd:74:6d:b0:29:4d:bc:48:64:62:dd:4e:a9:0f:
                    40:4a:36:fa:e9:a2:18:15:26:0c:9e:38:65:8c:37:
                    2c:67:6c:97:55:69:86:4c:dd:87:eb:5a:0f:81:76:
                    f6:73:3e:14:09:2a:0b:a7:fb:fc:ec:77:e7:88:29:
                    ac:75:ad:04:42:66:71:35:f2:0e:53:0e:22:96:aa:
                    ca:d5
                Exponent: 65537 (0x10001)
        X509v3 extensions:
            X509v3 Basic Constraints: 
                CA:FALSE
            X509v3 Subject Key Identifier: 
                BC:72:CF:F3:7E:CE:F6:0C:FE:B2:A7:6E:AE:BF:BE:18:71:7C:FC:C0
            X509v3 Authority Key Identifier: 
                keyid:45:A1:CB:E0:25:91:21:0D:19:31:17:4A:81:5E:68:1F:D7:2D:85:C3
                DirName:/CN=team426-net
                serial:06:00:CA:5D:03:D7:A8:05:5B:6D:AE:88:A9:45:86:AD:EC:2F:B1:5D

            X509v3 Extended Key Usage: 
                TLS Web Client Authentication
            X509v3 Key Usage: 
                Digital Signature
    Signature Algorithm: sha256WithRSAEncryption
         3e:8b:93:31:f6:dc:13:67:0c:09:60:52:1e:4e:17:72:ae:96:
         42:eb:a4:bf:69:0d:e8:99:86:52:4a:34:5e:7e:2f:5e:7f:2e:
         56:52:f6:b0:d1:26:4a:4a:d1:ee:d8:f6:d3:43:97:34:e3:93:
         d5:83:d0:44:c5:e6:91:f9:cd:ed:72:b3:4f:c4:a8:76:75:1d:
         8b:ba:51:df:77:6a:c8:69:52:94:1e:ee:cf:d1:3d:29:52:2d:
         e7:21:d0:ed:48:9b:20:78:ae:92:7c:e1:dc:65:cd:f9:26:4e:
         b9:0b:0b:c7:b9:07:5a:24:55:79:7b:c2:be:46:8c:77:57:b0:
         10:4c:be:8e:89:b1:46:71:a9:bc:43:fa:4c:f3:59:f0:c9:f4:
         2a:99:9d:10:a9:96:9b:8b:26:ee:7e:f9:19:56:05:40:ec:23:
         4a:0a:01:17:3c:46:e8:3a:6a:d7:4e:ea:84:64:59:cf:b3:8e:
         98:57:5a:ef:76:99:d7:ed:a7:e8:6b:1d:03:b5:8e:ff:3e:82:
         0b:7c:1c:e8:fa:9c:38:15:8a:6f:50:8d:ae:5c:95:31:b2:bc:
         b6:f1:ab:e3:4d:08:bd:a7:f8:4e:3b:96:9d:ea:56:39:c5:e8:
         e3:75:22:ae:f8:c0:9f:29:c3:85:33:7c:55:4b:af:2c:ea:1c:
         74:8a:b2:57
-----BEGIN CERTIFICATE-----
MIIDXTCCAkWgAwIBAgIRAN9G7MjLk6kYGXF+TF0OrYIwDQYJKoZIhvcNAQELBQAw
FjEUMBIGA1UEAwwLdGVhbTQyNi1uZXQwHhcNMjEwOTEzMDIzMTQxWhcNMjQwODI4
MDIzMTQxWjAZMRcwFQYDVQQDDA50ZWFtNDI2LWNsaWVudDCCASIwDQYJKoZIhvcN
AQEBBQADggEPADCCAQoCggEBAL702FVS/LQ0759db0kzPDPA7Gx4aLh5FTpSDS5d
OO0SNXoGU2Xyk1dhwXXdTkRddH8zXqu4hrDBL+q7P6cVR2ZFQe8AeUFHmbDl2qVM
UGErB3Y5cZntmXmg30ijyuz1C94TdmbHh/HMjSTr2yW73F53It7pRdTPPro2B8DO
U9PvxRLlY0D7reyMUBu2Sr771MBGD7PnpmFfrqpge757ebNHxcP8MQGvqf7iTHWR
wK4JqFyzm810bbApTbxIZGLdTqkPQEo2+umiGBUmDJ44ZYw3LGdsl1Vphkzdh+ta
D4F29nM+FAkqC6f7/Ox354gprHWtBEJmcTXyDlMOIpaqytUCAwEAAaOBojCBnzAJ
BgNVHRMEAjAAMB0GA1UdDgQWBBS8cs/zfs72DP6yp26uv74YcXz8wDBRBgNVHSME
SjBIgBRFocvgJZEhDRkxF0qBXmgf1y2Fw6EapBgwFjEUMBIGA1UEAwwLdGVhbTQy
Ni1uZXSCFAYAyl0D16gFW22uiKlFhq3sL7FdMBMGA1UdJQQMMAoGCCsGAQUFBwMC
MAsGA1UdDwQEAwIHgDANBgkqhkiG9w0BAQsFAAOCAQEAPouTMfbcE2cMCWBSHk4X
cq6WQuukv2kN6JmGUko0Xn4vXn8uVlL2sNEmSkrR7tj200OXNOOT1YPQRMXmkfnN
7XKzT8SodnUdi7pR33dqyGlSlB7uz9E9KVIt5yHQ7UibIHiuknzh3GXN+SZOuQsL
x7kHWiRVeXvCvkaMd1ewEEy+jomxRnGpvEP6TPNZ8Mn0KpmdEKmWm4sm7n75GVYF
QOwjSgoBFzxG6Dpq107qhGRZz7OOmFda73aZ1+2n6GsdA7WO/z6CC3wc6PqcOBWK
b1CNrlyVMbK8tvGr400Ivaf4TjuWnepWOcXo43UirvjAnynDhTN8VUuvLOocdIqy
Vw==
-----END CERTIFICATE-----
