Certificate:
    Data:
        Version: 3 (0x2)
        Serial Number:
            18:2f:d5:b5:10:e2:86:6f:5c:ae:56:fa:dc:93:8a:e2
        Signature Algorithm: sha256WithRSAEncryption
        Issuer: CN=team67-net
        Validity
            Not Before: Sep 12 23:13:38 2021 GMT
            Not After : Aug 27 23:13:38 2024 GMT
        Subject: CN=team67-client
        Subject Public Key Info:
            Public Key Algorithm: rsaEncryption
                RSA Public-Key: (2048 bit)
                Modulus:
                    00:c0:3f:39:e1:2f:c2:66:45:1b:9d:6a:d1:69:c4:
                    c0:33:56:18:e5:6f:91:fd:40:20:84:3a:f4:09:2d:
                    1a:84:b9:82:98:0d:e8:cd:97:11:23:03:40:3c:50:
                    f3:bb:2b:8f:6e:1c:aa:ba:ce:c9:1a:c2:04:5e:40:
                    c1:67:a5:69:64:db:01:1a:12:77:30:7d:a2:ca:2d:
                    2a:a7:a6:17:c3:23:28:26:dc:d4:0e:14:7a:41:f4:
                    ec:87:f7:53:39:e9:d4:b1:7c:69:d2:88:21:4b:82:
                    1f:24:25:b4:13:3a:af:c9:4b:3f:a6:a5:04:39:6f:
                    d7:e4:e5:73:48:51:c1:6c:e4:93:c9:1c:e8:e4:d8:
                    44:20:3a:26:19:2c:cf:c3:03:f5:ce:45:a6:24:8b:
                    f3:58:43:60:ed:6b:5b:be:eb:2b:fb:bb:35:d7:4b:
                    ae:cc:7d:cf:7b:a5:05:f2:d2:a3:c4:26:73:df:b4:
                    54:03:15:54:61:fd:c5:39:04:49:72:37:cf:9d:f7:
                    98:af:84:94:24:6f:d1:39:47:3b:09:05:47:33:5b:
                    4c:98:b8:49:b6:2c:ad:b2:90:85:a5:f0:f6:99:00:
                    83:6e:ee:fe:d6:e8:5c:02:75:12:13:c6:ab:5b:80:
                    4a:92:2a:c2:24:93:8e:53:8f:40:78:09:c1:4a:60:
                    f2:2f
                Exponent: 65537 (0x10001)
        X509v3 extensions:
            X509v3 Basic Constraints: 
                CA:FALSE
            X509v3 Subject Key Identifier: 
                38:D3:12:A8:E2:46:3A:7A:70:F0:C5:32:C2:91:CD:BC:26:B1:03:B9
            X509v3 Authority Key Identifier: 
                keyid:1F:FE:F7:B7:1A:CD:0E:01:9D:60:4F:40:0B:8C:41:C7:E0:ED:F2:F9
                DirName:/CN=team67-net
                serial:1C:24:5B:35:DA:2B:22:19:3E:ED:35:E6:AE:F5:D5:A3:8F:95:B5:4B

            X509v3 Extended Key Usage: 
                TLS Web Client Authentication
            X509v3 Key Usage: 
                Digital Signature
    Signature Algorithm: sha256WithRSAEncryption
         2d:d7:0b:5d:44:da:e0:26:6a:a6:83:8a:bf:35:bf:80:4e:7e:
         58:47:86:30:e3:3d:6a:9b:bd:cd:cc:1e:d4:45:f4:79:b8:86:
         dc:06:01:a5:cb:85:50:5c:ca:8d:b5:f7:95:21:ed:c1:48:5b:
         91:0f:33:fa:63:2f:b0:9d:06:de:74:8f:74:b8:3b:28:0c:99:
         e7:b5:4b:19:b8:f4:88:18:7e:ec:f7:c8:42:b0:47:f5:b5:ba:
         c9:d5:28:c5:67:d0:60:95:8b:3f:0c:91:fb:54:3f:6b:c2:d6:
         04:b1:0c:e4:dc:8f:23:a9:d6:9f:3b:42:77:c9:1f:6e:6c:17:
         22:b4:7d:ea:cc:32:42:d4:2e:c3:74:7a:0d:bc:8b:b1:dd:db:
         df:30:06:e8:ce:38:f0:53:4a:2f:a9:12:b6:3f:4d:c6:5c:9e:
         24:99:53:69:3a:4b:68:8f:c9:41:f4:2a:1e:04:45:c3:29:be:
         b3:5a:09:bf:a9:7d:e3:29:60:1a:2c:73:3e:35:89:d7:9c:31:
         d5:71:7b:3a:cb:7e:dd:56:1b:39:b8:8b:ce:c1:ad:0b:b4:f1:
         56:f8:e8:57:fa:b7:97:bc:6c:b7:ea:4b:5c:ba:f4:ed:e4:e4:
         78:37:83:c6:cb:53:f0:75:3c:9e:50:a2:c2:a9:3e:27:39:17:
         06:dc:ac:7b
-----BEGIN CERTIFICATE-----
MIIDWTCCAkGgAwIBAgIQGC/VtRDihm9crlb63JOK4jANBgkqhkiG9w0BAQsFADAV
MRMwEQYDVQQDDAp0ZWFtNjctbmV0MB4XDTIxMDkxMjIzMTMzOFoXDTI0MDgyNzIz
MTMzOFowGDEWMBQGA1UEAwwNdGVhbTY3LWNsaWVudDCCASIwDQYJKoZIhvcNAQEB
BQADggEPADCCAQoCggEBAMA/OeEvwmZFG51q0WnEwDNWGOVvkf1AIIQ69AktGoS5
gpgN6M2XESMDQDxQ87srj24cqrrOyRrCBF5AwWelaWTbARoSdzB9osotKqemF8Mj
KCbc1A4UekH07If3Uznp1LF8adKIIUuCHyQltBM6r8lLP6alBDlv1+Tlc0hRwWzk
k8kc6OTYRCA6Jhksz8MD9c5FpiSL81hDYO1rW77rK/u7NddLrsx9z3ulBfLSo8Qm
c9+0VAMVVGH9xTkESXI3z533mK+ElCRv0TlHOwkFRzNbTJi4SbYsrbKQhaXw9pkA
g27u/tboXAJ1EhPGq1uASpIqwiSTjlOPQHgJwUpg8i8CAwEAAaOBoTCBnjAJBgNV
HRMEAjAAMB0GA1UdDgQWBBQ40xKo4kY6enDwxTLCkc28JrEDuTBQBgNVHSMESTBH
gBQf/ve3Gs0OAZ1gT0ALjEHH4O3y+aEZpBcwFTETMBEGA1UEAwwKdGVhbTY3LW5l
dIIUHCRbNdorIhk+7TXmrvXVo4+VtUswEwYDVR0lBAwwCgYIKwYBBQUHAwIwCwYD
VR0PBAQDAgeAMA0GCSqGSIb3DQEBCwUAA4IBAQAt1wtdRNrgJmqmg4q/Nb+ATn5Y
R4Yw4z1qm73NzB7URfR5uIbcBgGly4VQXMqNtfeVIe3BSFuRDzP6Yy+wnQbedI90
uDsoDJnntUsZuPSIGH7s98hCsEf1tbrJ1SjFZ9BglYs/DJH7VD9rwtYEsQzk3I8j
qdafO0J3yR9ubBcitH3qzDJC1C7DdHoNvIux3dvfMAbozjjwU0ovqRK2P03GXJ4k
mVNpOktoj8lB9CoeBEXDKb6zWgm/qX3jKWAaLHM+NYnXnDHVcXs6y37dVhs5uIvO
wa0LtPFW+OhX+reXvGy36ktcuvTt5OR4N4PGy1PwdTyeUKLCqT4nORcG3Kx7
-----END CERTIFICATE-----
