Certificate:
    Data:
        Version: 3 (0x2)
        Serial Number:
            f0:0e:56:3a:7f:b4:a9:bd:78:f4:e3:b9:61:bc:af:05
        Signature Algorithm: sha256WithRSAEncryption
        Issuer: CN=team67-net
        Validity
            Not Before: Sep 12 23:13:39 2021 GMT
            Not After : Aug 27 23:13:39 2024 GMT
        Subject: CN=team67-server
        Subject Public Key Info:
            Public Key Algorithm: rsaEncryption
                RSA Public-Key: (2048 bit)
                Modulus:
                    00:fb:5e:28:09:17:df:b8:13:35:8f:76:ab:e8:69:
                    5c:b5:3c:7e:ed:3c:61:d7:7e:76:a5:b5:24:18:68:
                    37:c9:31:ff:c4:3a:9b:b0:b2:ff:72:bf:40:17:95:
                    47:64:ab:77:92:ef:0b:a7:a7:f3:4d:79:0a:3f:7b:
                    fb:79:a7:1d:d4:49:3e:14:d9:26:e4:8c:f0:09:b0:
                    8c:cd:bf:5c:14:34:31:2f:35:a8:bc:2b:fa:f3:bd:
                    5d:28:8f:38:4c:4e:f7:90:e8:08:3e:6f:db:60:f1:
                    87:6b:7c:a1:c0:4b:05:d5:03:31:cc:b0:6d:d6:56:
                    29:f6:68:ca:f6:ff:48:fe:80:ac:d3:dc:cd:93:df:
                    f0:bf:a6:6c:e8:a4:04:45:2e:f1:a2:6d:cc:30:a3:
                    54:43:99:b0:7f:3a:70:d4:8d:2b:e4:33:ca:12:58:
                    91:46:df:dd:f0:85:8e:c9:10:d7:91:aa:27:ce:c2:
                    1d:53:d8:d6:28:57:23:71:f8:96:ee:6f:a2:5d:7a:
                    27:de:e6:c9:57:bf:cb:cb:e9:74:de:ec:14:c6:43:
                    82:14:b1:2a:81:89:39:8b:88:1f:b2:a9:e4:81:ed:
                    91:74:57:11:f9:19:1c:1b:76:30:8e:e0:8b:09:fc:
                    1d:03:b2:8f:2f:de:c4:64:81:e8:50:b9:d8:73:52:
                    b9:6b
                Exponent: 65537 (0x10001)
        X509v3 extensions:
            X509v3 Basic Constraints: 
                CA:FALSE
            X509v3 Subject Key Identifier: 
                BF:E9:69:CF:C7:CE:22:34:FE:AA:07:32:2A:F7:5A:C2:53:53:56:36
            X509v3 Authority Key Identifier: 
                keyid:1F:FE:F7:B7:1A:CD:0E:01:9D:60:4F:40:0B:8C:41:C7:E0:ED:F2:F9
                DirName:/CN=team67-net
                serial:1C:24:5B:35:DA:2B:22:19:3E:ED:35:E6:AE:F5:D5:A3:8F:95:B5:4B

            X509v3 Extended Key Usage: 
                TLS Web Server Authentication
            X509v3 Key Usage: 
                Digital Signature, Key Encipherment
            X509v3 Subject Alternative Name: 
                DNS:team67-server
    Signature Algorithm: sha256WithRSAEncryption
         00:b8:c3:40:69:44:f0:e0:a6:9f:05:9f:e3:a7:68:ba:36:83:
         ab:27:e3:36:b2:fa:e0:bc:e4:72:79:ac:d3:b8:13:82:76:ea:
         6d:96:d4:47:07:af:8b:a6:20:ce:f1:b0:a0:af:a3:d5:36:ba:
         cd:2f:bd:6a:13:b5:a1:90:a7:ca:11:4d:1c:06:3d:d2:20:cf:
         e0:cf:d4:ee:85:c9:df:2e:2f:61:74:e1:8d:82:e4:3f:17:21:
         20:35:f9:c3:40:62:1d:87:4f:4b:1e:9f:0b:c8:2c:8a:19:c8:
         29:34:07:be:ed:87:ba:ac:ea:c9:4b:d3:99:15:55:69:00:d2:
         35:d6:6d:7f:c9:a9:ac:d6:80:33:98:55:0e:2b:c2:3a:75:bf:
         56:df:fb:ad:18:62:22:d8:63:9e:1e:08:c3:ce:6a:9b:a8:a1:
         49:85:88:b8:72:6c:a5:6d:e4:94:5b:71:bb:e0:dd:4c:45:bf:
         c9:08:8d:26:36:15:57:62:8d:99:44:e1:c4:1e:cd:15:c3:f0:
         f0:c6:e7:01:6f:ee:8e:80:5a:35:8a:27:d6:8a:29:5e:b0:9a:
         8c:91:4f:26:56:a2:9b:ac:2e:97:e8:9d:ec:bf:41:29:5e:63:
         1b:9d:73:fa:a1:a1:03:ec:89:85:a7:b5:ff:ce:7a:3a:30:07:
         1a:ef:30:0d
-----BEGIN CERTIFICATE-----
MIIDdDCCAlygAwIBAgIRAPAOVjp/tKm9ePTjuWG8rwUwDQYJKoZIhvcNAQELBQAw
FTETMBEGA1UEAwwKdGVhbTY3LW5ldDAeFw0yMTA5MTIyMzEzMzlaFw0yNDA4Mjcy
MzEzMzlaMBgxFjAUBgNVBAMMDXRlYW02Ny1zZXJ2ZXIwggEiMA0GCSqGSIb3DQEB
AQUAA4IBDwAwggEKAoIBAQD7XigJF9+4EzWPdqvoaVy1PH7tPGHXfnaltSQYaDfJ
Mf/EOpuwsv9yv0AXlUdkq3eS7wunp/NNeQo/e/t5px3UST4U2SbkjPAJsIzNv1wU
NDEvNai8K/rzvV0ojzhMTveQ6Ag+b9tg8YdrfKHASwXVAzHMsG3WVin2aMr2/0j+
gKzT3M2T3/C/pmzopARFLvGibcwwo1RDmbB/OnDUjSvkM8oSWJFG393whY7JENeR
qifOwh1T2NYoVyNx+Jbub6Jdeife5slXv8vL6XTe7BTGQ4IUsSqBiTmLiB+yqeSB
7ZF0VxH5GRwbdjCO4IsJ/B0Dso8v3sRkgehQudhzUrlrAgMBAAGjgbswgbgwCQYD
VR0TBAIwADAdBgNVHQ4EFgQUv+lpz8fOIjT+qgcyKvdawlNTVjYwUAYDVR0jBEkw
R4AUH/73txrNDgGdYE9AC4xBx+Dt8vmhGaQXMBUxEzARBgNVBAMMCnRlYW02Ny1u
ZXSCFBwkWzXaKyIZPu015q711aOPlbVLMBMGA1UdJQQMMAoGCCsGAQUFBwMBMAsG
A1UdDwQEAwIFoDAYBgNVHREEETAPgg10ZWFtNjctc2VydmVyMA0GCSqGSIb3DQEB
CwUAA4IBAQAAuMNAaUTw4KafBZ/jp2i6NoOrJ+M2svrgvORyeazTuBOCduptltRH
B6+LpiDO8bCgr6PVNrrNL71qE7WhkKfKEU0cBj3SIM/gz9TuhcnfLi9hdOGNguQ/
FyEgNfnDQGIdh09LHp8LyCyKGcgpNAe+7Ye6rOrJS9OZFVVpANI11m1/yams1oAz
mFUOK8I6db9W3/utGGIi2GOeHgjDzmqbqKFJhYi4cmylbeSUW3G74N1MRb/JCI0m
NhVXYo2ZROHEHs0Vw/DwxucBb+6OgFo1iifWiilesJqMkU8mVqKbrC6X6J3sv0Ep
XmMbnXP6oaED7ImFp7X/zno6MAca7zAN
-----END CERTIFICATE-----
