Certificate:
    Data:
        Version: 3 (0x2)
        Serial Number:
            25:33:f9:b1:d0:78:19:bb:af:fd:c3:16:36:ad:26:da
        Signature Algorithm: sha256WithRSAEncryption
        Issuer: CN=team694-net
        Validity
            Not Before: Sep 13 05:16:59 2021 GMT
            Not After : Aug 28 05:16:59 2024 GMT
        Subject: CN=team694-client
        Subject Public Key Info:
            Public Key Algorithm: rsaEncryption
                RSA Public-Key: (2048 bit)
                Modulus:
                    00:d6:da:d3:02:64:48:6d:9e:a2:d4:ba:74:8c:04:
                    80:3f:8f:22:dd:d5:dc:91:18:b6:25:d8:48:58:c5:
                    b3:fc:7b:d2:15:b1:f4:c0:21:9c:0e:d7:a1:41:d5:
                    f0:7d:d7:23:e4:be:de:b2:6e:29:26:e0:f4:f0:2e:
                    04:0d:2f:be:3a:e3:1b:c6:c6:18:ae:63:c2:97:84:
                    5f:1f:12:fb:b7:78:f6:e7:4d:e3:90:06:3f:53:79:
                    9a:90:2a:e9:56:bd:27:5b:ed:4d:f4:bf:86:28:d8:
                    45:4e:84:82:8d:d9:97:28:06:9e:9e:83:31:2a:53:
                    66:22:a8:fa:ce:d3:8d:3e:84:c3:1b:b2:3a:41:8d:
                    22:d2:2e:86:23:8d:50:3b:8e:f6:cc:ac:0a:cb:49:
                    bb:ad:6b:6f:64:a2:1e:a0:d6:d4:c0:f8:08:15:97:
                    15:b5:3e:1d:0d:76:be:84:43:fd:6a:d4:96:64:cf:
                    98:96:ef:45:b9:32:ba:33:e9:f9:b3:72:e0:3c:93:
                    e0:b1:ff:34:77:da:03:57:bc:0a:9d:a2:f5:13:e5:
                    5c:77:da:c5:41:77:1a:c2:45:e9:d4:67:8b:13:c8:
                    92:5d:ec:79:fc:0b:e9:52:a2:ac:be:b7:24:45:df:
                    b7:63:e5:10:11:72:fc:5e:e9:98:89:3e:f7:87:ae:
                    ef:fd
                Exponent: 65537 (0x10001)
        X509v3 extensions:
            X509v3 Basic Constraints: 
                CA:FALSE
            X509v3 Subject Key Identifier: 
                8F:59:C7:2A:4D:80:99:2C:21:FE:23:6D:13:96:B5:9B:8D:66:B2:5A
            X509v3 Authority Key Identifier: 
                keyid:87:9E:C4:C2:19:03:F9:A1:7E:D9:E7:E0:C2:C9:83:C4:6D:6F:50:E4
                DirName:/CN=team694-net
                serial:40:0F:18:6C:EF:8E:D4:5B:7A:8D:2A:0B:48:F4:E6:D4:3D:4F:0E

            X509v3 Extended Key Usage: 
                TLS Web Client Authentication
            X509v3 Key Usage: 
                Digital Signature
    Signature Algorithm: sha256WithRSAEncryption
         16:05:32:ff:d4:ec:a9:18:4f:d9:5f:f5:79:6b:cc:4b:3a:e2:
         58:36:3d:30:d0:4d:dd:f6:92:13:74:81:20:0e:46:5d:40:ca:
         b5:0d:e7:9a:17:f3:db:fd:12:28:9d:4a:21:a8:d2:bc:5e:e4:
         94:a8:ad:84:ea:d2:57:b9:85:ee:de:ce:cb:d9:aa:29:ab:b6:
         a6:9f:72:ce:11:d0:52:95:0f:fc:bb:82:ca:9b:32:52:9e:4b:
         05:42:9e:dc:92:c0:b5:8d:8d:15:a1:d4:87:37:2e:16:7a:12:
         9a:73:ff:3e:2d:2e:81:45:35:0a:ce:00:8c:d9:d1:28:78:1a:
         23:68:8c:ad:32:8c:f9:4b:30:2a:f0:b0:b9:89:33:c4:5a:55:
         8b:5c:94:cb:db:d1:50:3b:d8:fb:c6:52:c5:3e:44:d3:97:0d:
         f3:07:f6:c3:ea:df:09:b0:d7:90:81:d7:6b:72:18:b3:fd:50:
         2c:df:24:da:c2:9b:44:ca:06:6b:e0:8a:4a:3c:e5:71:10:52:
         bc:6f:2f:a7:13:ad:1c:43:42:6b:5d:dc:84:19:cc:b4:a0:0c:
         02:86:ed:61:7f:dd:93:46:4f:d3:00:da:98:5e:c7:c4:a8:3c:
         69:87:10:44:0a:53:82:44:18:5e:76:a8:6b:7a:49:e1:96:95:
         6d:ff:66:29
-----BEGIN CERTIFICATE-----
MIIDWzCCAkOgAwIBAgIQJTP5sdB4Gbuv/cMWNq0m2jANBgkqhkiG9w0BAQsFADAW
MRQwEgYDVQQDDAt0ZWFtNjk0LW5ldDAeFw0yMTA5MTMwNTE2NTlaFw0yNDA4Mjgw
NTE2NTlaMBkxFzAVBgNVBAMMDnRlYW02OTQtY2xpZW50MIIBIjANBgkqhkiG9w0B
AQEFAAOCAQ8AMIIBCgKCAQEA1trTAmRIbZ6i1Lp0jASAP48i3dXckRi2JdhIWMWz
/HvSFbH0wCGcDtehQdXwfdcj5L7esm4pJuD08C4EDS++OuMbxsYYrmPCl4RfHxL7
t3j2503jkAY/U3makCrpVr0nW+1N9L+GKNhFToSCjdmXKAaenoMxKlNmIqj6ztON
PoTDG7I6QY0i0i6GI41QO472zKwKy0m7rWtvZKIeoNbUwPgIFZcVtT4dDXa+hEP9
atSWZM+Ylu9FuTK6M+n5s3LgPJPgsf80d9oDV7wKnaL1E+Vcd9rFQXcawkXp1GeL
E8iSXex5/AvpUqKsvrckRd+3Y+UQEXL8XumYiT73h67v/QIDAQABo4GhMIGeMAkG
A1UdEwQCMAAwHQYDVR0OBBYEFI9ZxypNgJksIf4jbROWtZuNZrJaMFAGA1UdIwRJ
MEeAFIeexMIZA/mhftnn4MLJg8Rtb1DkoRqkGDAWMRQwEgYDVQQDDAt0ZWFtNjk0
LW5ldIITQA8YbO+O1Ft6jSoLSPTm1D1PDjATBgNVHSUEDDAKBggrBgEFBQcDAjAL
BgNVHQ8EBAMCB4AwDQYJKoZIhvcNAQELBQADggEBABYFMv/U7KkYT9lf9XlrzEs6
4lg2PTDQTd32khN0gSAORl1AyrUN55oX89v9EiidSiGo0rxe5JSorYTq0le5he7e
zsvZqimrtqafcs4R0FKVD/y7gsqbMlKeSwVCntySwLWNjRWh1Ic3LhZ6Eppz/z4t
LoFFNQrOAIzZ0Sh4GiNojK0yjPlLMCrwsLmJM8RaVYtclMvb0VA72PvGUsU+RNOX
DfMH9sPq3wmw15CB12tyGLP9UCzfJNrCm0TKBmvgiko85XEQUrxvL6cTrRxDQmtd
3IQZzLSgDAKG7WF/3ZNGT9MA2phex8SoPGmHEEQKU4JEGF52qGt6SeGWlW3/Zik=
-----END CERTIFICATE-----
