Certificate:
    Data:
        Version: 3 (0x2)
        Serial Number:
            62:4a:f2:06:6a:30:d4:d1:b9:05:c4:5e:c5:26:b1:c9
        Signature Algorithm: sha256WithRSAEncryption
        Issuer: CN=team117-net
        Validity
            Not Before: Sep 12 23:48:00 2021 GMT
            Not After : Aug 27 23:48:00 2024 GMT
        Subject: CN=team117-client
        Subject Public Key Info:
            Public Key Algorithm: rsaEncryption
                RSA Public-Key: (2048 bit)
                Modulus:
                    00:be:38:bf:4f:f0:44:e2:56:c6:dd:8f:7d:51:12:
                    9f:53:ff:cd:48:b8:c1:06:08:27:b0:c3:bf:8d:a7:
                    91:92:09:e3:43:51:92:10:10:6c:b9:b3:bc:51:ed:
                    2e:5d:97:f1:35:96:58:03:a7:b0:56:0d:6c:5f:d7:
                    f7:5c:8d:ea:53:9a:7e:73:b5:4c:07:0c:e9:ea:49:
                    e8:a5:99:58:ae:1a:d0:64:f3:4e:e2:5a:83:c3:e8:
                    a8:f2:89:11:20:17:ac:33:d7:d9:42:e3:97:21:c8:
                    15:29:d8:a3:ef:3c:33:5b:3b:c1:18:b1:f0:4d:f8:
                    0c:d2:cb:ef:d9:d4:01:43:cb:fc:d1:5d:e1:a2:d6:
                    98:0f:04:b4:8b:39:34:c7:c4:41:f8:33:78:81:76:
                    55:f7:6c:e9:c1:5d:17:39:d1:d1:02:17:bd:13:6c:
                    87:b2:6e:92:da:3e:c8:39:9f:63:20:72:5c:f4:b6:
                    e8:ca:94:48:4d:21:66:f6:d2:7b:7e:fd:40:d3:fe:
                    d2:6a:c5:37:e6:69:40:2d:84:04:5c:76:b9:d6:d2:
                    d3:c2:86:71:98:a4:22:76:1f:c5:1b:35:d2:f4:cf:
                    93:6b:e3:98:79:9a:d7:e7:67:33:51:c1:ae:e2:ce:
                    3d:12:bd:06:08:5a:a7:b6:bb:25:f1:a2:70:81:db:
                    23:07
                Exponent: 65537 (0x10001)
        X509v3 extensions:
            X509v3 Basic Constraints: 
                CA:FALSE
            X509v3 Subject Key Identifier: 
                FB:69:99:FA:B5:D7:E5:05:FC:D4:F2:2D:FD:A1:15:AD:52:DC:F0:DF
            X509v3 Authority Key Identifier: 
                keyid:5E:BC:CA:0A:2C:D3:07:81:41:5D:45:73:B9:33:F7:66:3D:53:FE:B9
                DirName:/CN=team117-net
                serial:57:D7:95:FD:FA:0A:C6:79:AA:7C:A8:C2:24:8B:98:D2:61:D6:2F:43

            X509v3 Extended Key Usage: 
                TLS Web Client Authentication
            X509v3 Key Usage: 
                Digital Signature
    Signature Algorithm: sha256WithRSAEncryption
         89:87:11:0c:50:51:01:f2:95:43:0c:e6:2d:2f:49:4e:5d:46:
         9f:a5:aa:df:b0:bd:97:98:ab:2a:fe:11:8e:47:cb:d3:f0:ee:
         5b:39:7d:ba:f7:4f:cf:11:63:f3:15:c7:81:33:18:a7:5f:2e:
         5f:39:ca:f3:3f:8f:12:84:9f:a7:c4:ad:f8:72:4f:4d:bf:0c:
         31:d0:cc:cf:a9:4c:30:ee:7e:45:9e:80:48:4a:99:fd:5f:43:
         e6:db:cd:a7:76:4e:e6:69:bc:d3:4a:0e:5c:b1:17:db:b3:fb:
         a0:d2:8b:76:40:1a:6a:be:98:64:4a:55:ff:2a:d2:83:aa:47:
         6d:e4:88:2a:d6:7f:df:d0:73:cd:7a:b7:85:8f:2b:64:51:54:
         b1:46:8e:c2:bd:c4:88:22:77:d0:83:e9:5d:4e:bc:23:77:af:
         43:9a:67:1a:08:29:a5:c8:37:d6:bf:9e:dd:c8:3f:b3:9d:02:
         a2:3f:b2:7b:91:ad:8e:c0:2f:19:5e:53:eb:c8:bd:b5:59:88:
         5d:ab:ef:7a:38:d0:80:c0:15:6c:da:77:5d:cb:c9:58:95:26:
         b9:3f:1c:87:04:56:2e:54:f5:a4:f1:eb:79:14:ad:14:cb:f5:
         4a:41:00:db:f4:fa:6c:9e:45:0c:3b:b9:9c:b9:2c:d0:cf:84:
         5d:51:a6:b5
-----BEGIN CERTIFICATE-----
MIIDXDCCAkSgAwIBAgIQYkryBmow1NG5BcRexSaxyTANBgkqhkiG9w0BAQsFADAW
MRQwEgYDVQQDDAt0ZWFtMTE3LW5ldDAeFw0yMTA5MTIyMzQ4MDBaFw0yNDA4Mjcy
MzQ4MDBaMBkxFzAVBgNVBAMMDnRlYW0xMTctY2xpZW50MIIBIjANBgkqhkiG9w0B
AQEFAAOCAQ8AMIIBCgKCAQEAvji/T/BE4lbG3Y99URKfU//NSLjBBggnsMO/jaeR
kgnjQ1GSEBBsubO8Ue0uXZfxNZZYA6ewVg1sX9f3XI3qU5p+c7VMBwzp6knopZlY
rhrQZPNO4lqDw+io8okRIBesM9fZQuOXIcgVKdij7zwzWzvBGLHwTfgM0svv2dQB
Q8v80V3hotaYDwS0izk0x8RB+DN4gXZV92zpwV0XOdHRAhe9E2yHsm6S2j7IOZ9j
IHJc9LboypRITSFm9tJ7fv1A0/7SasU35mlALYQEXHa51tLTwoZxmKQidh/FGzXS
9M+Ta+OYeZrX52czUcGu4s49Er0GCFqntrsl8aJwgdsjBwIDAQABo4GiMIGfMAkG
A1UdEwQCMAAwHQYDVR0OBBYEFPtpmfq11+UF/NTyLf2hFa1S3PDfMFEGA1UdIwRK
MEiAFF68ygos0weBQV1Fc7kz92Y9U/65oRqkGDAWMRQwEgYDVQQDDAt0ZWFtMTE3
LW5ldIIUV9eV/foKxnmqfKjCJIuY0mHWL0MwEwYDVR0lBAwwCgYIKwYBBQUHAwIw
CwYDVR0PBAQDAgeAMA0GCSqGSIb3DQEBCwUAA4IBAQCJhxEMUFEB8pVDDOYtL0lO
XUafparfsL2XmKsq/hGOR8vT8O5bOX2690/PEWPzFceBMxinXy5fOcrzP48ShJ+n
xK34ck9Nvwwx0MzPqUww7n5FnoBISpn9X0Pm282ndk7mabzTSg5csRfbs/ug0ot2
QBpqvphkSlX/KtKDqkdt5Igq1n/f0HPNereFjytkUVSxRo7CvcSIInfQg+ldTrwj
d69DmmcaCCmlyDfWv57dyD+znQKiP7J7ka2OwC8ZXlPryL21WYhdq+96ONCAwBVs
2nddy8lYlSa5PxyHBFYuVPWk8et5FK0Uy/VKQQDb9PpsnkUMO7mcuSzQz4RdUaa1
-----END CERTIFICATE-----
