Certificate:
    Data:
        Version: 3 (0x2)
        Serial Number:
            4c:48:63:47:f7:41:63:b0:fc:92:22:73:a9:d8:9d:40
        Signature Algorithm: sha256WithRSAEncryption
        Issuer: CN=team396-net
        Validity
            Not Before: Sep 13 02:16:09 2021 GMT
            Not After : Aug 28 02:16:09 2024 GMT
        Subject: CN=team396-server
        Subject Public Key Info:
            Public Key Algorithm: rsaEncryption
                RSA Public-Key: (2048 bit)
                Modulus:
                    00:e6:68:c0:76:3c:a0:88:75:c5:31:ef:20:51:35:
                    f2:6a:30:fd:39:c3:5a:e8:5d:26:3f:f5:a8:e5:ae:
                    c4:b4:71:d0:86:e1:8d:5d:6c:ec:6f:64:b0:34:07:
                    43:c0:35:18:2b:4b:29:66:7b:8b:a1:ea:e8:19:0f:
                    70:b5:a9:af:c0:c5:c7:89:c6:33:37:af:0c:50:ff:
                    0c:c9:07:fc:b6:2e:2c:14:e2:5f:57:d7:de:8b:7d:
                    cf:0c:18:b3:9b:2c:8f:6a:5b:04:54:8f:bc:e0:c4:
                    3b:e8:f9:95:f2:2e:2e:93:1a:b7:10:f9:16:96:37:
                    bb:d3:b3:92:0b:e3:b0:ac:5f:c4:18:0a:4d:f3:a5:
                    c5:3f:75:c4:ef:d7:11:ff:c5:16:95:45:03:2d:8f:
                    ed:d9:b1:0f:b6:6d:fa:a1:4e:46:2a:29:f3:f5:c6:
                    50:76:2c:45:41:a8:c5:6b:41:e3:73:1f:0f:02:0b:
                    67:92:81:a7:fc:24:07:0a:7b:98:ac:f9:5e:2a:b1:
                    86:67:37:15:f4:8d:10:b3:4d:b7:a7:7f:b9:4c:c8:
                    b2:5c:2b:c9:8f:a6:39:eb:7d:55:a8:e4:56:f1:8d:
                    2b:26:ce:6e:ab:ac:65:51:84:64:14:43:3f:47:83:
                    cc:ce:7e:4b:50:b2:fc:1f:58:38:30:23:b1:58:9e:
                    75:27
                Exponent: 65537 (0x10001)
        X509v3 extensions:
            X509v3 Basic Constraints: 
                CA:FALSE
            X509v3 Subject Key Identifier: 
                09:FA:46:A5:FE:2B:49:C5:54:26:55:C2:59:AB:86:5E:11:EC:F2:D0
            X509v3 Authority Key Identifier: 
                keyid:8D:0C:6B:6C:AA:5B:A8:6A:97:34:60:C6:7B:D7:B5:52:FB:00:01:1F
                DirName:/CN=team396-net
                serial:69:C6:C9:55:E8:77:22:91:9B:5F:4A:1A:05:37:CB:CE:1A:C3:26:06

            X509v3 Extended Key Usage: 
                TLS Web Server Authentication
            X509v3 Key Usage: 
                Digital Signature, Key Encipherment
            X509v3 Subject Alternative Name: 
                DNS:team396-server
    Signature Algorithm: sha256WithRSAEncryption
         05:e1:dd:64:eb:ea:89:8f:26:91:42:1a:1f:f7:61:02:c9:4b:
         ef:78:fe:a3:f8:9b:73:c4:c1:8a:2f:ba:1e:e8:55:c8:0d:76:
         51:b5:e7:c6:d0:ec:d4:51:00:73:ef:cf:e7:25:90:a9:66:52:
         6f:c6:17:c6:3e:60:f1:72:0e:6b:8e:50:94:ef:90:01:f8:d6:
         4c:46:44:b4:b3:55:da:35:c6:74:ab:2e:cf:6f:f5:3e:e6:0f:
         3b:aa:9b:75:72:0c:f5:7e:d7:4d:66:d2:df:ad:5d:cc:3a:94:
         4f:76:07:20:91:8a:91:64:7c:b4:df:20:00:e5:39:da:55:13:
         4c:f4:7b:89:22:d7:ed:14:47:29:de:1f:bf:76:30:9b:90:26:
         4f:1e:18:77:89:67:8c:69:c9:75:d3:20:1f:cf:6d:c4:e5:60:
         56:1d:4c:84:de:18:6f:c0:40:74:98:14:5a:80:7a:99:32:cd:
         77:74:eb:a5:b9:5f:b1:e1:cc:41:41:30:a0:e6:d1:86:f2:36:
         0e:61:c2:4e:af:9d:4b:e6:f7:f9:22:76:7b:cf:a8:28:b7:86:
         d3:b8:d1:76:69:e3:b0:95:58:13:0f:9c:61:9c:78:d3:5e:5c:
         f7:26:89:5d:00:02:69:c8:57:75:07:38:85:2c:9a:12:fe:31:
         d7:94:7b:68
-----BEGIN CERTIFICATE-----
MIIDdzCCAl+gAwIBAgIQTEhjR/dBY7D8kiJzqdidQDANBgkqhkiG9w0BAQsFADAW
MRQwEgYDVQQDDAt0ZWFtMzk2LW5ldDAeFw0yMTA5MTMwMjE2MDlaFw0yNDA4Mjgw
MjE2MDlaMBkxFzAVBgNVBAMMDnRlYW0zOTYtc2VydmVyMIIBIjANBgkqhkiG9w0B
AQEFAAOCAQ8AMIIBCgKCAQEA5mjAdjygiHXFMe8gUTXyajD9OcNa6F0mP/Wo5a7E
tHHQhuGNXWzsb2SwNAdDwDUYK0spZnuLoeroGQ9wtamvwMXHicYzN68MUP8MyQf8
ti4sFOJfV9fei33PDBizmyyPalsEVI+84MQ76PmV8i4ukxq3EPkWlje707OSC+Ow
rF/EGApN86XFP3XE79cR/8UWlUUDLY/t2bEPtm36oU5GKinz9cZQdixFQajFa0Hj
cx8PAgtnkoGn/CQHCnuYrPleKrGGZzcV9I0Qs023p3+5TMiyXCvJj6Y5631VqORW
8Y0rJs5uq6xlUYRkFEM/R4PMzn5LULL8H1g4MCOxWJ51JwIDAQABo4G9MIG6MAkG
A1UdEwQCMAAwHQYDVR0OBBYEFAn6RqX+K0nFVCZVwlmrhl4R7PLQMFEGA1UdIwRK
MEiAFI0Ma2yqW6hqlzRgxnvXtVL7AAEfoRqkGDAWMRQwEgYDVQQDDAt0ZWFtMzk2
LW5ldIIUacbJVeh3IpGbX0oaBTfLzhrDJgYwEwYDVR0lBAwwCgYIKwYBBQUHAwEw
CwYDVR0PBAQDAgWgMBkGA1UdEQQSMBCCDnRlYW0zOTYtc2VydmVyMA0GCSqGSIb3
DQEBCwUAA4IBAQAF4d1k6+qJjyaRQhof92ECyUvveP6j+JtzxMGKL7oe6FXIDXZR
tefG0OzUUQBz78/nJZCpZlJvxhfGPmDxcg5rjlCU75AB+NZMRkS0s1XaNcZ0qy7P
b/U+5g87qpt1cgz1ftdNZtLfrV3MOpRPdgcgkYqRZHy03yAA5TnaVRNM9HuJItft
FEcp3h+/djCbkCZPHhh3iWeMacl10yAfz23E5WBWHUyE3hhvwEB0mBRagHqZMs13
dOuluV+x4cxBQTCg5tGG8jYOYcJOr51L5vf5InZ7z6got4bTuNF2aeOwlVgTD5xh
nHjTXlz3JoldAAJpyFd1BziFLJoS/jHXlHto
-----END CERTIFICATE-----
