Certificate:
    Data:
        Version: 3 (0x2)
        Serial Number:
            e0:78:8d:13:6a:60:bc:57:47:13:f6:f4:bb:e0:15:7c
        Signature Algorithm: sha256WithRSAEncryption
        Issuer: CN=team396-net
        Validity
            Not Before: Sep 13 02:16:08 2021 GMT
            Not After : Aug 28 02:16:08 2024 GMT
        Subject: CN=team396-client
        Subject Public Key Info:
            Public Key Algorithm: rsaEncryption
                RSA Public-Key: (2048 bit)
                Modulus:
                    00:f6:11:f6:14:79:54:ab:eb:25:85:64:90:fb:72:
                    2a:79:7c:a6:ad:cb:89:80:64:b1:3b:06:9b:92:7f:
                    b6:b0:ff:03:42:e0:fb:85:8e:1d:5d:93:6e:34:de:
                    55:a8:b0:09:1d:e0:12:98:7c:11:e3:56:8e:cd:5d:
                    30:f1:b5:5f:30:1a:df:0f:ca:7c:5b:c1:89:d7:87:
                    55:4d:17:4c:2a:f7:1a:d7:f1:4e:50:0e:af:3d:92:
                    7c:a1:57:25:17:7c:1a:45:1e:04:1e:d3:d4:53:bc:
                    4b:56:22:a0:cc:aa:db:85:dd:82:39:4f:e3:94:ae:
                    cc:22:e6:1a:b6:e7:78:c1:4c:6b:01:90:bf:44:1f:
                    64:8d:ea:1b:e7:9d:98:98:30:f9:c4:ce:55:e3:ef:
                    91:70:8d:0e:44:d5:b0:c8:06:a5:61:7f:83:68:41:
                    a6:ec:27:93:94:99:dd:5a:02:a5:7e:52:93:32:e7:
                    e9:09:63:1b:39:d5:79:71:c5:a7:3e:ec:41:64:32:
                    ee:fe:c7:cf:19:e8:9e:22:7b:92:5f:23:12:ea:9b:
                    00:b3:d3:a1:30:30:7d:10:03:f1:c0:5b:59:ff:31:
                    42:c9:c6:67:10:a1:eb:b1:a9:a8:5c:9b:43:23:5f:
                    e3:01:22:73:3f:16:37:6f:13:93:eb:dd:8a:98:a7:
                    08:0f
                Exponent: 65537 (0x10001)
        X509v3 extensions:
            X509v3 Basic Constraints: 
                CA:FALSE
            X509v3 Subject Key Identifier: 
                40:2D:15:8F:31:6D:A7:11:59:6C:A5:9B:2D:42:3B:81:B0:20:9F:9D
            X509v3 Authority Key Identifier: 
                keyid:8D:0C:6B:6C:AA:5B:A8:6A:97:34:60:C6:7B:D7:B5:52:FB:00:01:1F
                DirName:/CN=team396-net
                serial:69:C6:C9:55:E8:77:22:91:9B:5F:4A:1A:05:37:CB:CE:1A:C3:26:06

            X509v3 Extended Key Usage: 
                TLS Web Client Authentication
            X509v3 Key Usage: 
                Digital Signature
    Signature Algorithm: sha256WithRSAEncryption
         ac:1b:e2:87:d3:70:39:b5:9f:75:45:aa:98:86:9a:59:c6:50:
         d5:ea:e2:73:86:a2:73:96:b2:10:f8:37:ac:53:d5:6e:47:30:
         1d:1d:a1:e8:06:69:16:8e:06:4c:e0:e2:b9:e2:b3:0a:b2:fd:
         bd:96:d0:73:9f:42:ea:37:dc:b2:fc:f8:71:97:c9:94:3c:f4:
         f1:d2:9c:42:b4:b4:89:66:72:e6:51:4a:50:41:a8:0a:00:97:
         40:4b:ac:5e:5c:45:e9:d5:ed:85:ad:3d:1f:be:cb:20:4a:82:
         b2:7f:4a:43:42:e7:eb:c2:fe:2a:07:6a:95:81:ad:29:48:2b:
         47:30:7c:14:8f:cf:db:6f:10:0f:0c:5f:ba:17:9f:c7:d9:11:
         96:ca:52:0f:ae:c1:95:d9:e7:5f:c2:91:e7:9a:7c:76:53:07:
         34:f5:ec:54:0c:c3:0b:50:3c:39:ec:21:49:86:93:01:7a:a4:
         29:53:65:2a:44:04:6b:45:48:a8:0f:23:7b:14:32:99:12:4b:
         d4:90:43:71:9a:b7:d5:6a:fc:94:d1:bf:42:db:01:94:4a:4e:
         0f:7e:b9:ec:a1:e4:1d:35:d0:4f:58:1d:1a:6f:c0:9e:24:e2:
         48:97:b2:7c:ca:33:f3:94:56:d7:90:0a:9a:0a:d2:64:96:b2:
         51:41:44:2f
-----BEGIN CERTIFICATE-----
MIIDXTCCAkWgAwIBAgIRAOB4jRNqYLxXRxP29LvgFXwwDQYJKoZIhvcNAQELBQAw
FjEUMBIGA1UEAwwLdGVhbTM5Ni1uZXQwHhcNMjEwOTEzMDIxNjA4WhcNMjQwODI4
MDIxNjA4WjAZMRcwFQYDVQQDDA50ZWFtMzk2LWNsaWVudDCCASIwDQYJKoZIhvcN
AQEBBQADggEPADCCAQoCggEBAPYR9hR5VKvrJYVkkPtyKnl8pq3LiYBksTsGm5J/
trD/A0Lg+4WOHV2TbjTeVaiwCR3gEph8EeNWjs1dMPG1XzAa3w/KfFvBideHVU0X
TCr3GtfxTlAOrz2SfKFXJRd8GkUeBB7T1FO8S1YioMyq24XdgjlP45SuzCLmGrbn
eMFMawGQv0QfZI3qG+edmJgw+cTOVePvkXCNDkTVsMgGpWF/g2hBpuwnk5SZ3VoC
pX5SkzLn6QljGznVeXHFpz7sQWQy7v7HzxnoniJ7kl8jEuqbALPToTAwfRAD8cBb
Wf8xQsnGZxCh67GpqFybQyNf4wEicz8WN28Tk+vdipinCA8CAwEAAaOBojCBnzAJ
BgNVHRMEAjAAMB0GA1UdDgQWBBRALRWPMW2nEVlspZstQjuBsCCfnTBRBgNVHSME
SjBIgBSNDGtsqluoapc0YMZ717VS+wABH6EapBgwFjEUMBIGA1UEAwwLdGVhbTM5
Ni1uZXSCFGnGyVXodyKRm19KGgU3y84awyYGMBMGA1UdJQQMMAoGCCsGAQUFBwMC
MAsGA1UdDwQEAwIHgDANBgkqhkiG9w0BAQsFAAOCAQEArBvih9NwObWfdUWqmIaa
WcZQ1eric4aic5ayEPg3rFPVbkcwHR2h6AZpFo4GTODiueKzCrL9vZbQc59C6jfc
svz4cZfJlDz08dKcQrS0iWZy5lFKUEGoCgCXQEusXlxF6dXtha09H77LIEqCsn9K
Q0Ln68L+KgdqlYGtKUgrRzB8FI/P228QDwxfuhefx9kRlspSD67BldnnX8KR55p8
dlMHNPXsVAzDC1A8OewhSYaTAXqkKVNlKkQEa0VIqA8jexQymRJL1JBDcZq31Wr8
lNG/QtsBlEpOD3657KHkHTXQT1gdGm/AniTiSJeyfMoz85RW15AKmgrSZJayUUFE
Lw==
-----END CERTIFICATE-----
