Certificate:
    Data:
        Version: 3 (0x2)
        Serial Number:
            9d:6a:46:3f:74:67:69:64:27:bc:b4:af:5d:8c:84:23
        Signature Algorithm: sha256WithRSAEncryption
        Issuer: CN=team454-net
        Validity
            Not Before: Sep 13 02:53:21 2021 GMT
            Not After : Aug 28 02:53:21 2024 GMT
        Subject: CN=team454-client
        Subject Public Key Info:
            Public Key Algorithm: rsaEncryption
                RSA Public-Key: (2048 bit)
                Modulus:
                    00:f2:d7:3a:ae:9f:6c:6f:60:d6:9f:df:18:ba:a4:
                    a4:d2:1a:6d:79:c3:ca:b7:b7:eb:b2:28:1b:8f:1f:
                    db:23:4d:dd:06:bc:6f:3c:71:3d:79:ef:cb:dc:e9:
                    aa:be:94:64:70:7a:29:3b:c4:d0:be:a7:18:39:3d:
                    6c:5a:47:fe:bf:46:5e:f5:18:76:f5:6a:09:58:21:
                    f3:05:98:4e:9c:8c:ea:f5:ca:80:48:05:29:31:92:
                    c2:f3:6b:7a:a7:2a:39:ad:9b:82:7e:91:11:30:7e:
                    e7:78:02:61:ce:61:7f:d9:e3:ea:22:4c:c0:1d:b0:
                    ef:d2:f9:d8:eb:7e:16:00:5f:f4:26:8b:1b:f4:c8:
                    15:ec:7a:8c:c0:98:10:09:44:d3:02:11:35:5c:62:
                    5f:67:29:66:b5:db:ef:49:3e:ed:ac:a7:34:ff:fe:
                    f8:bd:94:21:1d:d8:00:98:a1:c2:f4:73:99:66:9c:
                    6f:f9:54:6e:a1:d5:d8:1d:d4:91:52:8a:62:67:22:
                    8e:95:68:da:1c:e8:e5:ba:6b:d0:48:b0:04:4a:c9:
                    69:ef:8e:a7:4c:73:76:20:72:fe:e0:05:c1:39:e5:
                    af:00:66:6e:73:30:d2:d3:a0:ec:f4:0f:94:a4:72:
                    86:db:e8:29:45:26:05:c2:29:ff:9f:c7:88:a7:fa:
                    94:89
                Exponent: 65537 (0x10001)
        X509v3 extensions:
            X509v3 Basic Constraints: 
                CA:FALSE
            X509v3 Subject Key Identifier: 
                70:9B:4A:3E:95:56:B9:E3:7D:48:1C:1A:08:7C:42:EE:45:43:A8:54
            X509v3 Authority Key Identifier: 
                keyid:E3:BB:9E:3C:C5:38:5D:54:A8:0E:00:F7:11:69:22:D2:AA:D2:07:7A
                DirName:/CN=team454-net
                serial:0A:5F:93:C4:8B:04:6D:42:20:EA:AB:65:95:1F:B9:91:21:59:5E:A3

            X509v3 Extended Key Usage: 
                TLS Web Client Authentication
            X509v3 Key Usage: 
                Digital Signature
    Signature Algorithm: sha256WithRSAEncryption
         9c:0b:4b:22:68:e9:ef:8e:fb:9f:96:6e:59:7e:c8:19:5c:53:
         79:fa:6e:dc:57:d9:65:70:44:18:cf:a4:ca:6a:c2:59:48:03:
         a3:b9:8b:f6:fd:84:43:14:98:dd:84:87:1f:4b:72:1a:b8:20:
         3d:b6:fb:34:be:d5:9a:03:14:cb:f3:a0:22:30:e6:bb:c2:96:
         92:a0:1f:1a:f3:a6:b2:1e:fd:ab:15:59:a7:c1:9e:86:9d:32:
         50:90:9e:dc:fc:91:7d:06:13:52:ba:e6:54:f7:bb:c2:51:2a:
         48:f4:db:12:36:11:cf:a1:35:3f:ed:a1:b0:90:89:f7:4c:22:
         3c:d6:27:e4:c3:db:2e:d5:4a:a3:26:ed:2d:ae:7c:3b:0f:cc:
         7c:ae:d3:7e:66:21:6f:f7:74:db:ae:a9:eb:ed:e5:c8:06:af:
         3e:90:24:32:60:be:81:66:1a:e9:c2:1d:fa:02:92:50:0e:93:
         59:9a:3d:74:47:bf:66:ef:b1:d2:14:96:0b:79:25:33:ab:22:
         90:ac:6c:3b:43:0f:82:6f:25:01:48:61:27:03:a4:92:0f:5d:
         ce:be:9b:cb:07:cf:53:58:1d:22:69:19:14:55:84:fa:cc:4a:
         a3:fb:6e:8e:1e:f3:a9:cb:5f:1e:ea:dd:0e:eb:ff:03:c9:da:
         43:4d:c6:f2
-----BEGIN CERTIFICATE-----
MIIDXTCCAkWgAwIBAgIRAJ1qRj90Z2lkJ7y0r12MhCMwDQYJKoZIhvcNAQELBQAw
FjEUMBIGA1UEAwwLdGVhbTQ1NC1uZXQwHhcNMjEwOTEzMDI1MzIxWhcNMjQwODI4
MDI1MzIxWjAZMRcwFQYDVQQDDA50ZWFtNDU0LWNsaWVudDCCASIwDQYJKoZIhvcN
AQEBBQADggEPADCCAQoCggEBAPLXOq6fbG9g1p/fGLqkpNIabXnDyre367IoG48f
2yNN3Qa8bzxxPXnvy9zpqr6UZHB6KTvE0L6nGDk9bFpH/r9GXvUYdvVqCVgh8wWY
TpyM6vXKgEgFKTGSwvNreqcqOa2bgn6RETB+53gCYc5hf9nj6iJMwB2w79L52Ot+
FgBf9CaLG/TIFex6jMCYEAlE0wIRNVxiX2cpZrXb70k+7aynNP/++L2UIR3YAJih
wvRzmWacb/lUbqHV2B3UkVKKYmcijpVo2hzo5bpr0EiwBErJae+Op0xzdiBy/uAF
wTnlrwBmbnMw0tOg7PQPlKRyhtvoKUUmBcIp/5/HiKf6lIkCAwEAAaOBojCBnzAJ
BgNVHRMEAjAAMB0GA1UdDgQWBBRwm0o+lVa5431IHBoIfELuRUOoVDBRBgNVHSME
SjBIgBTju548xThdVKgOAPcRaSLSqtIHeqEapBgwFjEUMBIGA1UEAwwLdGVhbTQ1
NC1uZXSCFApfk8SLBG1CIOqrZZUfuZEhWV6jMBMGA1UdJQQMMAoGCCsGAQUFBwMC
MAsGA1UdDwQEAwIHgDANBgkqhkiG9w0BAQsFAAOCAQEAnAtLImjp7477n5ZuWX7I
GVxTefpu3FfZZXBEGM+kymrCWUgDo7mL9v2EQxSY3YSHH0tyGrggPbb7NL7VmgMU
y/OgIjDmu8KWkqAfGvOmsh79qxVZp8Gehp0yUJCe3PyRfQYTUrrmVPe7wlEqSPTb
EjYRz6E1P+2hsJCJ90wiPNYn5MPbLtVKoybtLa58Ow/MfK7TfmYhb/d0266p6+3l
yAavPpAkMmC+gWYa6cId+gKSUA6TWZo9dEe/Zu+x0hSWC3klM6sikKxsO0MPgm8l
AUhhJwOkkg9dzr6bywfPU1gdImkZFFWE+sxKo/tujh7zqctfHurdDuv/A8naQ03G
8g==
-----END CERTIFICATE-----
