Certificate:
    Data:
        Version: 3 (0x2)
        Serial Number:
            34:0a:a2:4c:68:ef:8e:0f:ca:91:ae:3b:87:86:84:cc
        Signature Algorithm: sha256WithRSAEncryption
        Issuer: CN=team335-net
        Validity
            Not Before: Sep 13 01:49:20 2021 GMT
            Not After : Aug 28 01:49:20 2024 GMT
        Subject: CN=team335-server
        Subject Public Key Info:
            Public Key Algorithm: rsaEncryption
                RSA Public-Key: (2048 bit)
                Modulus:
                    00:d3:44:b4:3d:2e:c3:6a:2d:1b:66:16:49:8f:71:
                    d8:e2:09:35:73:40:54:ef:94:82:f8:69:e3:98:e4:
                    f3:27:0b:9f:31:36:59:95:de:25:9e:89:81:e6:40:
                    85:78:94:a1:d2:1e:e0:12:3a:27:d4:a5:93:58:5d:
                    c6:c6:d8:07:e7:a8:e2:53:6f:0f:cf:5e:bf:d4:67:
                    60:b7:05:38:5e:73:bc:ac:58:ea:15:9f:d5:fa:dd:
                    f0:d8:22:47:c6:73:e1:6f:0f:38:e0:05:06:82:d4:
                    56:81:ce:ff:52:15:81:63:9a:f2:b9:ae:3f:73:b9:
                    e2:a5:1a:c8:9a:75:18:ce:a9:6b:0a:fb:86:f7:d1:
                    d6:db:c7:d6:0f:0d:97:af:31:af:e5:8f:da:b7:86:
                    27:81:94:1c:ed:2f:0f:7c:04:d6:09:71:93:50:db:
                    af:c4:f4:98:fc:7f:1d:81:9d:02:a0:40:60:00:46:
                    79:1e:61:67:10:14:8c:16:fb:ab:ef:4f:89:81:e6:
                    94:f2:14:5a:3a:cf:3e:ae:bb:1f:1b:5a:3e:68:3b:
                    03:16:c3:f6:6b:dd:ce:14:61:33:41:89:5e:80:52:
                    84:23:16:cd:cb:92:d4:d4:2b:11:fb:0e:54:1e:96:
                    0a:69:4a:46:a5:76:f1:e3:10:79:7b:18:98:cc:0e:
                    98:9f
                Exponent: 65537 (0x10001)
        X509v3 extensions:
            X509v3 Basic Constraints: 
                CA:FALSE
            X509v3 Subject Key Identifier: 
                39:1F:90:4D:54:6B:E3:3F:34:4A:27:2D:7C:D1:AF:B8:E1:4D:4B:A3
            X509v3 Authority Key Identifier: 
                keyid:67:5F:FA:4F:55:5D:E2:19:C3:8A:3C:1B:FC:8E:7B:01:B8:60:59:98
                DirName:/CN=team335-net
                serial:43:08:C1:58:A5:B4:FD:9F:C1:F0:D0:4F:FD:89:52:AA:46:4E:6D:48

            X509v3 Extended Key Usage: 
                TLS Web Server Authentication
            X509v3 Key Usage: 
                Digital Signature, Key Encipherment
            X509v3 Subject Alternative Name: 
                DNS:team335-server
    Signature Algorithm: sha256WithRSAEncryption
         0a:71:e4:60:9d:f2:e4:b1:fb:12:c8:7f:c2:0f:20:dc:ea:48:
         f7:50:0f:3a:7c:86:19:94:06:ff:0d:3f:f4:e3:7f:ea:b1:93:
         ab:8a:0c:fa:04:cc:1b:7b:c9:9d:db:3c:ba:c5:1f:7c:a8:1c:
         fb:d5:76:bd:f9:d4:ab:04:d4:a4:cd:90:95:6a:b1:c0:a7:36:
         a3:90:0e:42:bc:c7:74:6c:90:ba:a5:22:4f:b5:0f:75:ea:14:
         c2:c2:bb:18:db:8a:ae:4b:3e:3c:fd:68:b6:db:1a:03:12:eb:
         9e:79:d3:3a:dc:39:68:6f:8c:12:96:80:ed:30:18:6b:0e:46:
         ef:9e:f6:4c:29:01:ab:89:a4:e0:c8:2f:f6:59:e6:79:17:57:
         a0:55:ce:f6:6c:22:7d:c4:f0:3c:92:e0:9e:90:1f:8c:84:1f:
         d0:17:48:9e:06:e2:c1:e2:45:02:4f:56:99:f7:40:03:4e:f5:
         31:24:11:07:37:d6:93:1e:dc:24:b2:f0:93:50:f5:7d:5f:fc:
         a8:e6:a7:84:95:e2:14:43:b5:b0:7c:a5:5f:53:34:95:2c:7a:
         5b:c2:68:ba:4e:5b:e6:b3:68:1c:a3:1c:da:2f:e2:2c:0b:34:
         d2:46:d1:c2:44:af:cb:9d:20:16:5f:4f:e3:42:2a:51:12:8b:
         1a:cb:65:fc
-----BEGIN CERTIFICATE-----
MIIDdzCCAl+gAwIBAgIQNAqiTGjvjg/Kka47h4aEzDANBgkqhkiG9w0BAQsFADAW
MRQwEgYDVQQDDAt0ZWFtMzM1LW5ldDAeFw0yMTA5MTMwMTQ5MjBaFw0yNDA4Mjgw
MTQ5MjBaMBkxFzAVBgNVBAMMDnRlYW0zMzUtc2VydmVyMIIBIjANBgkqhkiG9w0B
AQEFAAOCAQ8AMIIBCgKCAQEA00S0PS7Dai0bZhZJj3HY4gk1c0BU75SC+GnjmOTz
JwufMTZZld4lnomB5kCFeJSh0h7gEjon1KWTWF3GxtgH56jiU28Pz16/1GdgtwU4
XnO8rFjqFZ/V+t3w2CJHxnPhbw844AUGgtRWgc7/UhWBY5ryua4/c7nipRrImnUY
zqlrCvuG99HW28fWDw2XrzGv5Y/at4YngZQc7S8PfATWCXGTUNuvxPSY/H8dgZ0C
oEBgAEZ5HmFnEBSMFvur70+JgeaU8hRaOs8+rrsfG1o+aDsDFsP2a93OFGEzQYle
gFKEIxbNy5LU1CsR+w5UHpYKaUpGpXbx4xB5exiYzA6YnwIDAQABo4G9MIG6MAkG
A1UdEwQCMAAwHQYDVR0OBBYEFDkfkE1Ua+M/NEonLXzRr7jhTUujMFEGA1UdIwRK
MEiAFGdf+k9VXeIZw4o8G/yOewG4YFmYoRqkGDAWMRQwEgYDVQQDDAt0ZWFtMzM1
LW5ldIIUQwjBWKW0/Z/B8NBP/YlSqkZObUgwEwYDVR0lBAwwCgYIKwYBBQUHAwEw
CwYDVR0PBAQDAgWgMBkGA1UdEQQSMBCCDnRlYW0zMzUtc2VydmVyMA0GCSqGSIb3
DQEBCwUAA4IBAQAKceRgnfLksfsSyH/CDyDc6kj3UA86fIYZlAb/DT/043/qsZOr
igz6BMwbe8md2zy6xR98qBz71Xa9+dSrBNSkzZCVarHApzajkA5CvMd0bJC6pSJP
tQ916hTCwrsY24quSz48/Wi22xoDEuueedM63Dlob4wSloDtMBhrDkbvnvZMKQGr
iaTgyC/2WeZ5F1egVc72bCJ9xPA8kuCekB+MhB/QF0ieBuLB4kUCT1aZ90ADTvUx
JBEHN9aTHtwksvCTUPV9X/yo5qeEleIUQ7WwfKVfUzSVLHpbwmi6Tlvms2gcoxza
L+IsCzTSRtHCRK/LnSAWX0/jQipREosay2X8
-----END CERTIFICATE-----
