Certificate:
    Data:
        Version: 3 (0x2)
        Serial Number:
            a6:98:84:9c:b2:99:77:0f:ce:f6:b2:a6:60:d9:8a:87
        Signature Algorithm: sha256WithRSAEncryption
        Issuer: CN=team424-net
        Validity
            Not Before: Sep 13 02:35:58 2021 GMT
            Not After : Aug 28 02:35:58 2024 GMT
        Subject: CN=team424-client
        Subject Public Key Info:
            Public Key Algorithm: rsaEncryption
                RSA Public-Key: (2048 bit)
                Modulus:
                    00:ad:40:d2:4a:93:81:5a:7f:1e:bd:4e:b3:eb:4f:
                    55:a5:01:77:e8:c4:23:82:43:de:bc:a2:a6:4c:b8:
                    3f:84:60:75:a3:f8:1b:fa:63:2f:5f:d0:4d:90:9a:
                    2c:83:ba:9d:a2:48:64:cb:a9:71:79:f7:d2:64:1d:
                    ab:8e:cc:f4:33:c0:05:66:f2:7a:fa:5e:5d:fd:1b:
                    98:b4:a6:e6:af:77:b2:95:b0:c6:f4:eb:3c:8e:81:
                    d0:ab:2a:66:ca:90:3c:0a:38:7e:9c:dd:a7:cb:4c:
                    07:22:fb:de:3e:7d:81:f1:c2:6d:2e:9b:8a:f2:b9:
                    8f:96:f8:ac:1b:c0:81:b6:31:37:31:02:fe:a8:b4:
                    ae:cb:56:73:90:a3:dc:5d:fe:de:9a:47:5d:0d:a3:
                    87:98:a2:2c:21:1c:50:6b:ae:b7:44:7d:d4:be:e0:
                    da:c6:a7:45:7b:d8:75:4f:d2:e7:87:9b:5f:2c:4d:
                    32:2a:da:5a:51:bf:53:0b:2c:1d:54:6f:7c:78:22:
                    03:fc:34:d0:f8:0e:48:9d:38:3f:5e:b6:cb:63:70:
                    63:5b:b8:6c:98:b7:69:d8:0a:68:dc:a0:1c:03:96:
                    d5:1c:2d:da:00:53:d4:a3:c0:00:ea:36:f9:11:69:
                    a1:4e:3c:87:1e:c1:20:46:69:03:96:51:e0:23:5c:
                    90:95
                Exponent: 65537 (0x10001)
        X509v3 extensions:
            X509v3 Basic Constraints: 
                CA:FALSE
            X509v3 Subject Key Identifier: 
                45:F7:7A:E0:8F:03:98:E5:77:76:E5:0B:DD:14:FA:05:3E:0B:41:32
            X509v3 Authority Key Identifier: 
                keyid:60:3D:F2:10:AE:14:31:3D:C9:11:C7:CD:84:29:D5:DF:E6:0B:8E:AE
                DirName:/CN=team424-net
                serial:49:2F:DB:CE:A1:25:9A:E4:1B:FE:9B:62:EB:CB:97:9C:43:AF:08:9E

            X509v3 Extended Key Usage: 
                TLS Web Client Authentication
            X509v3 Key Usage: 
                Digital Signature
    Signature Algorithm: sha256WithRSAEncryption
         49:c8:c8:6b:7b:20:ae:fc:f3:e1:38:69:1a:2e:e7:ec:41:33:
         79:28:ff:e5:31:32:6f:c6:c9:4e:db:16:40:60:d5:ce:e0:20:
         91:1a:2d:7f:84:56:17:f3:b1:99:df:3a:53:ee:76:9d:3d:92:
         f9:4d:f1:27:3e:66:5f:22:2d:9f:f4:53:78:6c:bc:37:28:68:
         6a:29:09:b8:c6:77:c6:75:57:fc:fb:e1:ec:38:3d:19:e2:3a:
         35:8a:f1:7e:3c:28:16:00:5c:57:73:d1:85:99:bf:0b:4c:18:
         04:ee:54:dc:59:23:64:30:13:2a:62:22:80:eb:04:02:4a:43:
         f4:c6:aa:84:c3:55:1a:de:50:b3:b3:2e:1f:0c:50:3f:25:50:
         2a:4b:92:8b:dd:fa:14:c5:6a:62:fc:1a:26:24:d6:83:f6:fa:
         01:f9:5e:0e:25:4e:eb:e7:41:94:a0:79:cf:44:a3:64:47:cc:
         bc:99:48:c4:ef:63:6a:b2:74:73:32:04:6b:dd:52:a7:26:77:
         7e:44:06:1f:4d:5d:b1:1e:8b:5c:7f:ab:be:83:50:e4:c6:68:
         dd:06:65:67:32:f7:34:58:39:05:b2:21:44:be:50:cd:b6:ce:
         8d:89:95:8d:a0:83:a1:01:05:28:49:ae:f2:7f:a5:ee:6a:3f:
         cd:34:76:27
-----BEGIN CERTIFICATE-----
MIIDXTCCAkWgAwIBAgIRAKaYhJyymXcPzvaypmDZiocwDQYJKoZIhvcNAQELBQAw
FjEUMBIGA1UEAwwLdGVhbTQyNC1uZXQwHhcNMjEwOTEzMDIzNTU4WhcNMjQwODI4
MDIzNTU4WjAZMRcwFQYDVQQDDA50ZWFtNDI0LWNsaWVudDCCASIwDQYJKoZIhvcN
AQEBBQADggEPADCCAQoCggEBAK1A0kqTgVp/Hr1Os+tPVaUBd+jEI4JD3ryipky4
P4RgdaP4G/pjL1/QTZCaLIO6naJIZMupcXn30mQdq47M9DPABWbyevpeXf0bmLSm
5q93spWwxvTrPI6B0KsqZsqQPAo4fpzdp8tMByL73j59gfHCbS6bivK5j5b4rBvA
gbYxNzEC/qi0rstWc5Cj3F3+3ppHXQ2jh5iiLCEcUGuut0R91L7g2sanRXvYdU/S
54ebXyxNMiraWlG/UwssHVRvfHgiA/w00PgOSJ04P162y2NwY1u4bJi3adgKaNyg
HAOW1Rwt2gBT1KPAAOo2+RFpoU48hx7BIEZpA5ZR4CNckJUCAwEAAaOBojCBnzAJ
BgNVHRMEAjAAMB0GA1UdDgQWBBRF93rgjwOY5Xd25QvdFPoFPgtBMjBRBgNVHSME
SjBIgBRgPfIQrhQxPckRx82EKdXf5guOrqEapBgwFjEUMBIGA1UEAwwLdGVhbTQy
NC1uZXSCFEkv286hJZrkG/6bYuvLl5xDrwieMBMGA1UdJQQMMAoGCCsGAQUFBwMC
MAsGA1UdDwQEAwIHgDANBgkqhkiG9w0BAQsFAAOCAQEAScjIa3sgrvzz4ThpGi7n
7EEzeSj/5TEyb8bJTtsWQGDVzuAgkRotf4RWF/Oxmd86U+52nT2S+U3xJz5mXyIt
n/RTeGy8NyhoaikJuMZ3xnVX/Pvh7Dg9GeI6NYrxfjwoFgBcV3PRhZm/C0wYBO5U
3FkjZDATKmIigOsEAkpD9MaqhMNVGt5Qs7MuHwxQPyVQKkuSi936FMVqYvwaJiTW
g/b6AfleDiVO6+dBlKB5z0SjZEfMvJlIxO9jarJ0czIEa91SpyZ3fkQGH01dsR6L
XH+rvoNQ5MZo3QZlZzL3NFg5BbIhRL5QzbbOjYmVjaCDoQEFKEmu8n+l7mo/zTR2
Jw==
-----END CERTIFICATE-----
