Certificate:
    Data:
        Version: 3 (0x2)
        Serial Number:
            55:78:26:ca:82:d3:85:05:96:6d:5e:a5:2d:94:df:7b
        Signature Algorithm: sha256WithRSAEncryption
        Issuer: CN=team0-net
        Validity
            Not Before: Sep 12 22:36:02 2021 GMT
            Not After : Aug 27 22:36:02 2024 GMT
        Subject: CN=team0-server
        Subject Public Key Info:
            Public Key Algorithm: rsaEncryption
                RSA Public-Key: (2048 bit)
                Modulus:
                    00:b1:6e:31:96:8b:ce:bf:86:3d:9f:e7:ed:18:a0:
                    df:bc:9e:27:8e:70:5a:b7:3a:9b:ec:95:a8:5a:e6:
                    f1:1a:a6:99:16:d7:c6:b6:ca:08:57:8a:c5:8f:98:
                    ed:4b:79:c8:d2:1a:f4:c2:3b:66:30:8f:c9:79:f6:
                    67:a6:fe:38:8a:dd:8e:32:ff:1f:51:d4:8b:82:19:
                    17:b4:e1:4c:12:27:61:c3:45:9a:9f:c9:84:8b:37:
                    ae:0f:45:44:36:f0:a2:ab:8e:38:36:ff:e2:d9:10:
                    78:21:54:fe:69:41:fe:b6:35:4e:32:3e:8b:8d:30:
                    7e:d0:16:6e:38:2a:e7:93:7b:ff:4b:39:a9:62:cd:
                    f4:ea:82:82:0b:8e:d0:83:46:e0:ae:68:06:3e:47:
                    ec:f2:55:ca:3c:97:70:9f:b7:0e:99:c2:a7:87:fb:
                    77:27:d8:e7:e1:28:93:4f:a2:7a:f0:3a:f0:f7:5e:
                    85:5b:5f:f3:36:fc:f5:72:37:9a:02:f4:c1:1a:50:
                    d7:3f:6a:0d:5e:0e:af:c9:8b:93:4f:b0:01:13:e3:
                    76:ce:db:f1:65:ab:1e:6d:11:02:8c:b6:82:1a:60:
                    48:d5:61:00:da:30:99:21:f6:7c:9a:a8:fb:28:33:
                    9d:a0:05:7e:df:e9:6b:9f:5b:62:1b:da:d5:b4:53:
                    30:57
                Exponent: 65537 (0x10001)
        X509v3 extensions:
            X509v3 Basic Constraints: 
                CA:FALSE
            X509v3 Subject Key Identifier: 
                6F:71:56:D1:23:ED:D8:22:29:A8:84:94:37:5D:4E:F8:86:D8:F2:94
            X509v3 Authority Key Identifier: 
                keyid:01:AF:30:25:DB:E4:4A:9E:74:DF:B3:B5:03:E6:B9:F8:7F:B6:94:59
                DirName:/CN=team0-net
                serial:49:9D:4D:21:1E:94:9D:04:10:64:81:E7:41:79:F3:04:68:12:DF:B0

            X509v3 Extended Key Usage: 
                TLS Web Server Authentication
            X509v3 Key Usage: 
                Digital Signature, Key Encipherment
            X509v3 Subject Alternative Name: 
                DNS:team0-server
    Signature Algorithm: sha256WithRSAEncryption
         a4:ee:5b:56:10:77:3c:49:98:1d:ad:28:19:e3:ac:15:77:af:
         de:2c:e2:9f:2f:09:a9:d7:50:11:8f:9e:6c:cf:99:85:6f:13:
         82:74:6d:9a:69:c3:bb:45:94:4d:0a:d5:36:25:dd:48:fd:08:
         ec:07:7b:a5:c5:c7:20:ce:11:53:c8:23:0d:c6:b7:98:d9:82:
         47:18:90:66:95:ee:32:ef:fb:16:91:1b:ce:ea:f7:d6:c1:26:
         3f:45:bb:d1:ac:b6:04:53:e7:06:94:ea:f4:32:fa:94:41:34:
         4f:53:e0:ad:af:55:ec:47:be:f0:9f:eb:7b:ef:6f:c7:a7:24:
         5a:82:03:ba:2f:85:74:99:6e:94:c3:b1:22:19:ff:f2:ba:c2:
         b7:58:07:c8:3a:65:b3:bd:91:3f:d7:63:04:d5:b4:3e:0a:4d:
         f9:e2:6d:58:b6:b1:66:ee:60:21:96:4a:8c:d2:5b:a4:40:53:
         06:41:cf:d6:39:2c:13:da:e7:a0:19:86:1e:44:bc:75:70:83:
         fc:fb:87:2a:7a:d8:08:fd:31:9e:69:7e:36:b4:2b:fa:6e:31:
         60:b8:aa:4c:d8:27:4a:27:78:06:4c:39:d1:ae:64:81:39:e9:
         10:91:ed:b4:d8:53:fd:68:a4:f6:ac:21:aa:28:36:d3:65:94:
         06:54:26:23
-----BEGIN CERTIFICATE-----
MIIDbzCCAlegAwIBAgIQVXgmyoLThQWWbV6lLZTfezANBgkqhkiG9w0BAQsFADAU
MRIwEAYDVQQDDAl0ZWFtMC1uZXQwHhcNMjEwOTEyMjIzNjAyWhcNMjQwODI3MjIz
NjAyWjAXMRUwEwYDVQQDDAx0ZWFtMC1zZXJ2ZXIwggEiMA0GCSqGSIb3DQEBAQUA
A4IBDwAwggEKAoIBAQCxbjGWi86/hj2f5+0YoN+8nieOcFq3Opvslaha5vEappkW
18a2yghXisWPmO1LecjSGvTCO2Ywj8l59mem/jiK3Y4y/x9R1IuCGRe04UwSJ2HD
RZqfyYSLN64PRUQ28KKrjjg2/+LZEHghVP5pQf62NU4yPouNMH7QFm44KueTe/9L
OalizfTqgoILjtCDRuCuaAY+R+zyVco8l3Cftw6ZwqeH+3cn2OfhKJNPonrwOvD3
XoVbX/M2/PVyN5oC9MEaUNc/ag1eDq/Ji5NPsAET43bO2/Flqx5tEQKMtoIaYEjV
YQDaMJkh9nyaqPsoM52gBX7f6WufW2Ib2tW0UzBXAgMBAAGjgbkwgbYwCQYDVR0T
BAIwADAdBgNVHQ4EFgQUb3FW0SPt2CIpqISUN11O+IbY8pQwTwYDVR0jBEgwRoAU
Aa8wJdvkSp5037O1A+a5+H+2lFmhGKQWMBQxEjAQBgNVBAMMCXRlYW0wLW5ldIIU
SZ1NIR6UnQQQZIHnQXnzBGgS37AwEwYDVR0lBAwwCgYIKwYBBQUHAwEwCwYDVR0P
BAQDAgWgMBcGA1UdEQQQMA6CDHRlYW0wLXNlcnZlcjANBgkqhkiG9w0BAQsFAAOC
AQEApO5bVhB3PEmYHa0oGeOsFXev3iziny8JqddQEY+ebM+ZhW8TgnRtmmnDu0WU
TQrVNiXdSP0I7Ad7pcXHIM4RU8gjDca3mNmCRxiQZpXuMu/7FpEbzur31sEmP0W7
0ay2BFPnBpTq9DL6lEE0T1Pgra9V7Ee+8J/re+9vx6ckWoIDui+FdJlulMOxIhn/
8rrCt1gHyDpls72RP9djBNW0PgpN+eJtWLaxZu5gIZZKjNJbpEBTBkHP1jksE9rn
oBmGHkS8dXCD/PuHKnrYCP0xnml+NrQr+m4xYLiqTNgnSid4Bkw50a5kgTnpEJHt
tNhT/Wik9qwhqig202WUBlQmIw==
-----END CERTIFICATE-----
