Certificate:
    Data:
        Version: 3 (0x2)
        Serial Number:
            cd:49:ca:d5:c0:ac:90:7c:8d:9d:19:40:d6:ba:d5:6a
        Signature Algorithm: sha256WithRSAEncryption
        Issuer: CN=team276-net
        Validity
            Not Before: Sep 13 01:18:03 2021 GMT
            Not After : Aug 28 01:18:03 2024 GMT
        Subject: CN=team276-server
        Subject Public Key Info:
            Public Key Algorithm: rsaEncryption
                RSA Public-Key: (2048 bit)
                Modulus:
                    00:da:50:44:2a:1f:05:7a:6d:7e:0a:46:96:34:7f:
                    2b:4c:f7:49:25:69:59:6d:90:ad:e4:f8:e4:43:d5:
                    9e:ba:4f:fe:19:93:e9:ca:eb:3d:fc:23:66:e2:6b:
                    51:67:7b:d2:53:c0:89:49:9e:9a:48:51:ae:a4:db:
                    6e:30:b0:2b:6e:0f:24:71:12:23:7b:8e:41:e8:8c:
                    23:e4:f5:96:81:03:69:1f:45:38:6d:c6:56:bf:10:
                    93:f1:f3:1f:b6:d5:05:f2:48:05:01:ee:42:8e:e7:
                    85:ee:df:d7:2e:7b:5f:23:c6:95:8f:05:56:4e:59:
                    a0:31:6c:1a:4f:6e:c9:3f:08:cd:c9:df:c2:99:54:
                    03:66:30:42:d7:df:41:82:fe:bf:b6:95:cc:93:eb:
                    ee:af:fc:1c:d1:b9:81:dd:a8:cc:f0:44:2b:1e:10:
                    68:3d:59:78:45:3c:7e:32:57:ff:9b:d1:1c:97:28:
                    70:2b:d1:2a:8c:31:e5:cb:3c:4e:67:0e:1e:96:4e:
                    f8:3a:3c:26:da:c6:1b:1b:d5:7b:4f:c3:8b:6e:c9:
                    b1:12:e0:b0:04:21:39:42:a6:da:a5:c5:b0:bf:4b:
                    84:70:ca:a2:84:64:0c:83:82:d4:0f:49:f2:61:35:
                    c0:79:29:16:34:a3:39:53:5d:eb:32:fd:fd:b6:54:
                    24:31
                Exponent: 65537 (0x10001)
        X509v3 extensions:
            X509v3 Basic Constraints: 
                CA:FALSE
            X509v3 Subject Key Identifier: 
                F6:E5:62:9D:6D:CD:55:83:6D:5B:E6:8E:25:B0:7D:F4:0B:5D:A3:BD
            X509v3 Authority Key Identifier: 
                keyid:71:1C:B6:67:5F:C4:FB:9A:FA:F3:47:D7:B4:42:5E:07:22:52:C2:EB
                DirName:/CN=team276-net
                serial:6F:B0:7A:32:54:E1:2F:5B:F4:88:B2:17:E0:C4:F9:0B:50:EA:A8:27

            X509v3 Extended Key Usage: 
                TLS Web Server Authentication
            X509v3 Key Usage: 
                Digital Signature, Key Encipherment
            X509v3 Subject Alternative Name: 
                DNS:team276-server
    Signature Algorithm: sha256WithRSAEncryption
         11:d1:8c:ab:7d:00:e7:cf:06:ee:e8:a3:5f:56:42:9c:02:3a:
         bd:4c:05:c5:89:6d:e3:e5:58:ab:2d:5b:9e:87:3d:0f:cc:7b:
         ec:fd:26:4c:1f:7a:a7:a6:a5:4d:e5:1e:83:db:ae:44:ac:de:
         ee:07:db:1a:02:44:b2:b8:76:9b:27:4e:1c:05:a7:f9:2e:8d:
         a5:28:e0:03:03:75:c1:fc:72:75:65:0e:d6:95:a9:57:f9:6a:
         41:24:c7:31:4a:48:09:49:15:1e:d8:4b:12:34:74:26:f7:42:
         bc:6f:6e:fd:81:5b:ae:76:e6:9c:15:8e:a2:20:2d:ab:d2:f7:
         28:45:18:a7:9a:ab:08:2f:e3:a5:cf:da:d9:30:20:67:c3:48:
         18:c3:30:57:08:a4:5f:d0:05:c8:ce:14:6b:92:29:02:b5:21:
         71:ff:b3:88:bd:16:8b:27:95:ef:a8:25:f5:8c:b1:37:ee:e4:
         0e:b0:14:74:e9:8d:cf:64:c6:fb:7f:7e:96:64:fe:39:82:1b:
         b4:7e:49:89:42:33:f9:29:8f:0f:26:c2:bf:e9:36:40:d3:84:
         75:fe:6d:06:ce:cd:73:0e:60:af:c0:1f:9f:25:0e:a9:7b:c9:
         c4:00:ae:b6:3e:7b:da:3f:9d:a9:68:83:9a:74:33:18:ef:f9:
         9f:c6:78:9c
-----BEGIN CERTIFICATE-----
MIIDeDCCAmCgAwIBAgIRAM1JytXArJB8jZ0ZQNa61WowDQYJKoZIhvcNAQELBQAw
FjEUMBIGA1UEAwwLdGVhbTI3Ni1uZXQwHhcNMjEwOTEzMDExODAzWhcNMjQwODI4
MDExODAzWjAZMRcwFQYDVQQDDA50ZWFtMjc2LXNlcnZlcjCCASIwDQYJKoZIhvcN
AQEBBQADggEPADCCAQoCggEBANpQRCofBXptfgpGljR/K0z3SSVpWW2QreT45EPV
nrpP/hmT6crrPfwjZuJrUWd70lPAiUmemkhRrqTbbjCwK24PJHESI3uOQeiMI+T1
loEDaR9FOG3GVr8Qk/HzH7bVBfJIBQHuQo7nhe7f1y57XyPGlY8FVk5ZoDFsGk9u
yT8IzcnfwplUA2YwQtffQYL+v7aVzJPr7q/8HNG5gd2ozPBEKx4QaD1ZeEU8fjJX
/5vRHJcocCvRKowx5cs8TmcOHpZO+Do8JtrGGxvVe0/Di27JsRLgsAQhOUKm2qXF
sL9LhHDKooRkDIOC1A9J8mE1wHkpFjSjOVNd6zL9/bZUJDECAwEAAaOBvTCBujAJ
BgNVHRMEAjAAMB0GA1UdDgQWBBT25WKdbc1Vg21b5o4lsH30C12jvTBRBgNVHSME
SjBIgBRxHLZnX8T7mvrzR9e0Ql4HIlLC66EapBgwFjEUMBIGA1UEAwwLdGVhbTI3
Ni1uZXSCFG+wejJU4S9b9IiyF+DE+QtQ6qgnMBMGA1UdJQQMMAoGCCsGAQUFBwMB
MAsGA1UdDwQEAwIFoDAZBgNVHREEEjAQgg50ZWFtMjc2LXNlcnZlcjANBgkqhkiG
9w0BAQsFAAOCAQEAEdGMq30A588G7uijX1ZCnAI6vUwFxYlt4+VYqy1bnoc9D8x7
7P0mTB96p6alTeUeg9uuRKze7gfbGgJEsrh2mydOHAWn+S6NpSjgAwN1wfxydWUO
1pWpV/lqQSTHMUpICUkVHthLEjR0JvdCvG9u/YFbrnbmnBWOoiAtq9L3KEUYp5qr
CC/jpc/a2TAgZ8NIGMMwVwikX9AFyM4Ua5IpArUhcf+ziL0WiyeV76gl9YyxN+7k
DrAUdOmNz2TG+39+lmT+OYIbtH5JiUIz+SmPDybCv+k2QNOEdf5tBs7Ncw5gr8Af
nyUOqXvJxACutj572j+dqWiDmnQzGO/5n8Z4nA==
-----END CERTIFICATE-----
