Certificate:
    Data:
        Version: 3 (0x2)
        Serial Number:
            36:42:56:bb:36:e2:15:2d:1b:7c:e6:e8:48:c4:e6:6e
        Signature Algorithm: sha256WithRSAEncryption
        Issuer: CN=team383-net
        Validity
            Not Before: Sep 13 02:11:32 2021 GMT
            Not After : Aug 28 02:11:32 2024 GMT
        Subject: CN=team383-client
        Subject Public Key Info:
            Public Key Algorithm: rsaEncryption
                RSA Public-Key: (2048 bit)
                Modulus:
                    00:f3:c4:bd:36:e9:c2:a8:15:cf:8d:56:eb:d9:0a:
                    9b:a1:98:fc:01:fc:20:0b:bd:4a:58:22:ee:78:b4:
                    67:fa:50:19:39:e1:fc:99:0e:6f:bb:62:9d:ce:f0:
                    d8:9d:a1:c1:42:10:3c:42:3a:3b:76:fe:58:19:58:
                    4d:35:12:a6:32:3f:cc:2d:0e:1f:0d:b5:de:89:19:
                    ac:4f:3d:c4:dd:09:05:8e:01:3c:ca:25:4e:e8:e4:
                    1b:7f:7d:94:1b:1f:3a:13:f5:a1:b7:b4:0b:af:1c:
                    dc:a3:b2:c1:74:1f:be:c7:53:dd:bc:b2:d1:eb:18:
                    ce:c3:90:e5:67:38:1b:e0:aa:d1:6e:66:f3:ca:89:
                    ad:d2:d8:56:08:b0:f7:7f:d3:d0:6a:38:12:25:45:
                    51:63:eb:cf:29:a3:4b:55:9c:d2:47:06:f7:28:b3:
                    f4:67:5a:fd:88:6e:00:31:75:fe:72:6e:48:5d:99:
                    7f:bf:db:78:b2:05:82:af:e4:29:37:3b:a5:27:3a:
                    91:00:c8:0b:04:5a:3f:6e:fa:50:2f:d7:4a:cf:41:
                    f7:45:92:22:e2:f9:1d:c6:8f:50:08:c9:69:b6:e9:
                    bb:f7:d0:a3:2a:ee:b5:30:d0:5d:1e:9f:58:d8:9d:
                    82:c6:ef:8b:ea:b3:a6:bb:ab:a4:38:6e:f0:5f:81:
                    38:15
                Exponent: 65537 (0x10001)
        X509v3 extensions:
            X509v3 Basic Constraints: 
                CA:FALSE
            X509v3 Subject Key Identifier: 
                F4:03:EA:84:4B:57:AF:DF:E8:A7:06:C3:B2:96:C7:91:90:7D:C4:34
            X509v3 Authority Key Identifier: 
                keyid:48:5B:94:E4:0C:01:48:F9:00:94:3F:BA:56:99:FC:60:F6:36:97:25
                DirName:/CN=team383-net
                serial:7D:8A:95:BC:FA:A1:6B:E5:A6:DD:EB:BF:07:BA:9C:08:88:3B:BC:24

            X509v3 Extended Key Usage: 
                TLS Web Client Authentication
            X509v3 Key Usage: 
                Digital Signature
    Signature Algorithm: sha256WithRSAEncryption
         a3:c6:5c:24:c9:9a:ac:5a:4e:1f:1a:1b:01:0b:de:ef:a2:b7:
         07:db:7a:c8:25:50:ea:07:b2:bd:dc:f0:d2:d7:82:ba:7f:70:
         21:dd:21:bd:90:fb:29:62:84:f5:d8:d8:1d:0e:2d:5f:0d:8a:
         0b:cc:79:ca:e6:78:66:32:ca:ac:0f:db:6b:f3:b8:fa:49:06:
         7c:e3:9c:51:ad:bd:56:f1:24:60:78:b6:f7:8f:5f:b0:fe:31:
         c7:28:2e:88:56:40:59:33:16:c2:ae:7c:df:10:61:9f:b0:93:
         ea:a7:e1:08:cb:af:75:06:65:bf:f9:46:91:32:ee:90:c7:32:
         66:64:4c:e0:dc:54:fa:38:5c:8c:3c:12:41:85:18:fa:7f:fe:
         3e:fa:63:b3:b0:d1:6c:29:54:07:ea:45:76:2f:d8:84:cd:55:
         32:c7:1c:4e:24:59:88:19:ba:b7:93:87:55:99:84:a9:c5:5d:
         56:f3:f4:ac:ea:70:f8:c1:fb:ff:dc:a0:44:a7:12:b2:fd:76:
         20:9f:c6:69:49:48:57:99:76:a5:56:4e:88:a2:3a:d0:66:7c:
         c2:44:32:b3:3e:17:5f:77:65:85:d7:5a:99:de:51:0b:60:f5:
         16:df:79:c6:dc:d9:9a:6e:5d:a8:95:ac:ed:05:38:26:71:ac:
         07:e3:0e:7f
-----BEGIN CERTIFICATE-----
MIIDXDCCAkSgAwIBAgIQNkJWuzbiFS0bfOboSMTmbjANBgkqhkiG9w0BAQsFADAW
MRQwEgYDVQQDDAt0ZWFtMzgzLW5ldDAeFw0yMTA5MTMwMjExMzJaFw0yNDA4Mjgw
MjExMzJaMBkxFzAVBgNVBAMMDnRlYW0zODMtY2xpZW50MIIBIjANBgkqhkiG9w0B
AQEFAAOCAQ8AMIIBCgKCAQEA88S9NunCqBXPjVbr2QqboZj8AfwgC71KWCLueLRn
+lAZOeH8mQ5vu2KdzvDYnaHBQhA8Qjo7dv5YGVhNNRKmMj/MLQ4fDbXeiRmsTz3E
3QkFjgE8yiVO6OQbf32UGx86E/Wht7QLrxzco7LBdB++x1PdvLLR6xjOw5DlZzgb
4KrRbmbzyomt0thWCLD3f9PQajgSJUVRY+vPKaNLVZzSRwb3KLP0Z1r9iG4AMXX+
cm5IXZl/v9t4sgWCr+QpNzulJzqRAMgLBFo/bvpQL9dKz0H3RZIi4vkdxo9QCMlp
tum799CjKu61MNBdHp9Y2J2Cxu+L6rOmu6ukOG7wX4E4FQIDAQABo4GiMIGfMAkG
A1UdEwQCMAAwHQYDVR0OBBYEFPQD6oRLV6/f6KcGw7KWx5GQfcQ0MFEGA1UdIwRK
MEiAFEhblOQMAUj5AJQ/ulaZ/GD2NpcloRqkGDAWMRQwEgYDVQQDDAt0ZWFtMzgz
LW5ldIIUfYqVvPqha+Wm3eu/B7qcCIg7vCQwEwYDVR0lBAwwCgYIKwYBBQUHAwIw
CwYDVR0PBAQDAgeAMA0GCSqGSIb3DQEBCwUAA4IBAQCjxlwkyZqsWk4fGhsBC97v
orcH23rIJVDqB7K93PDS14K6f3Ah3SG9kPspYoT12NgdDi1fDYoLzHnK5nhmMsqs
D9tr87j6SQZ845xRrb1W8SRgeLb3j1+w/jHHKC6IVkBZMxbCrnzfEGGfsJPqp+EI
y691BmW/+UaRMu6QxzJmZEzg3FT6OFyMPBJBhRj6f/4++mOzsNFsKVQH6kV2L9iE
zVUyxxxOJFmIGbq3k4dVmYSpxV1W8/Ss6nD4wfv/3KBEpxKy/XYgn8ZpSUhXmXal
Vk6IojrQZnzCRDKzPhdfd2WF11qZ3lELYPUW33nG3Nmabl2olaztBTgmcawH4w5/
-----END CERTIFICATE-----
