Certificate:
    Data:
        Version: 3 (0x2)
        Serial Number:
            ed:d3:3e:77:78:35:fc:3d:40:f8:d8:5c:6c:74:dd:89
        Signature Algorithm: sha256WithRSAEncryption
        Issuer: CN=team555-net
        Validity
            Not Before: Sep 13 03:49:41 2021 GMT
            Not After : Aug 28 03:49:41 2024 GMT
        Subject: CN=team555-server
        Subject Public Key Info:
            Public Key Algorithm: rsaEncryption
                RSA Public-Key: (2048 bit)
                Modulus:
                    00:cf:48:c1:ab:14:60:e3:15:de:96:5c:cc:d4:31:
                    43:5a:02:cf:42:e3:11:1f:f2:3a:5b:2e:dc:cb:94:
                    bc:86:eb:0e:9c:fe:0c:1c:52:60:28:bc:b3:71:b6:
                    78:fa:9d:50:c7:fa:88:00:ee:bf:ee:58:99:d6:32:
                    8b:fd:1a:5d:6f:75:e7:e6:70:3a:b6:0e:cf:97:60:
                    3a:85:dc:a7:6d:ab:2c:7a:fd:b8:b7:39:6f:0f:53:
                    98:97:0c:1d:85:e7:2c:60:e9:46:86:cb:76:cc:ff:
                    83:0e:ab:4d:6e:c1:45:24:e0:4a:59:fb:bd:ee:dc:
                    c2:fb:6a:d8:2b:ac:db:85:80:9d:23:fa:54:9e:fd:
                    1a:e7:1e:60:ae:3f:b5:76:52:04:df:87:16:d7:20:
                    a0:c7:79:a0:97:6c:c5:73:79:4a:e1:b6:5a:c1:35:
                    e5:4d:85:93:7e:86:33:60:db:89:69:02:8c:dd:28:
                    49:b8:67:92:94:a6:e7:f3:90:d4:78:e0:25:66:b9:
                    e3:ad:fc:06:8e:73:35:b5:ed:ec:26:fc:ba:68:6f:
                    74:b3:6c:5a:a2:af:c6:56:f3:b7:da:21:78:23:cc:
                    29:dc:8c:f7:f1:5a:89:02:f8:2e:e4:7d:6a:1d:65:
                    ea:97:ef:a5:89:ae:c1:bd:74:02:35:f9:72:b5:a7:
                    6b:e7
                Exponent: 65537 (0x10001)
        X509v3 extensions:
            X509v3 Basic Constraints: 
                CA:FALSE
            X509v3 Subject Key Identifier: 
                EE:17:0D:77:4E:9C:FB:0B:B6:EC:56:C4:85:41:75:43:45:E1:31:07
            X509v3 Authority Key Identifier: 
                keyid:9B:4A:9F:74:B4:44:EF:99:9F:C3:F8:E4:B9:60:10:23:62:09:D1:B6
                DirName:/CN=team555-net
                serial:5C:E3:14:91:06:8C:98:5E:32:33:79:63:3D:5D:75:23:3A:CD:F0:E6

            X509v3 Extended Key Usage: 
                TLS Web Server Authentication
            X509v3 Key Usage: 
                Digital Signature, Key Encipherment
            X509v3 Subject Alternative Name: 
                DNS:team555-server
    Signature Algorithm: sha256WithRSAEncryption
         8d:9b:23:5a:16:1a:41:a0:cf:22:fa:e9:54:b9:6e:42:4c:aa:
         3b:81:66:19:7f:c8:53:da:5c:3d:c1:7c:49:d4:4f:c8:fd:f2:
         6e:4f:47:d9:51:63:9d:dd:2a:9c:66:86:fc:38:e5:24:3d:3d:
         98:39:8d:95:08:7b:53:54:67:5a:a6:47:66:36:39:b3:8b:e1:
         80:ac:6c:3b:f2:82:9c:7c:46:9f:bd:24:a2:f4:74:35:0b:79:
         49:f9:f1:5b:8e:0f:9e:bc:95:c7:dd:7a:12:3f:25:2f:5b:6d:
         12:f8:c5:0c:0f:33:08:f9:84:ec:82:0c:59:12:40:73:16:47:
         93:3a:6b:4b:23:60:0f:09:3f:8c:45:1a:4b:cd:9d:0a:5f:24:
         bc:a8:10:45:58:71:d6:6a:0e:06:29:b7:93:e8:41:d8:8b:d5:
         84:96:66:81:11:ae:9a:4f:c1:04:dc:fd:54:5c:9b:05:b9:d2:
         3b:8e:a8:ac:96:68:75:7d:9c:5f:e6:00:bc:05:eb:b6:43:eb:
         77:34:3f:d1:4f:b6:a5:63:a9:ff:d4:a6:2f:7e:76:aa:06:b5:
         5a:ec:11:af:87:bc:0e:32:d2:ae:c8:bf:ac:50:92:71:d6:04:
         50:a0:42:56:a7:b1:ad:ee:28:52:90:cf:84:50:33:61:fc:1c:
         ee:c0:98:31
-----BEGIN CERTIFICATE-----
MIIDeDCCAmCgAwIBAgIRAO3TPnd4Nfw9QPjYXGx03YkwDQYJKoZIhvcNAQELBQAw
FjEUMBIGA1UEAwwLdGVhbTU1NS1uZXQwHhcNMjEwOTEzMDM0OTQxWhcNMjQwODI4
MDM0OTQxWjAZMRcwFQYDVQQDDA50ZWFtNTU1LXNlcnZlcjCCASIwDQYJKoZIhvcN
AQEBBQADggEPADCCAQoCggEBAM9IwasUYOMV3pZczNQxQ1oCz0LjER/yOlsu3MuU
vIbrDpz+DBxSYCi8s3G2ePqdUMf6iADuv+5YmdYyi/0aXW915+ZwOrYOz5dgOoXc
p22rLHr9uLc5bw9TmJcMHYXnLGDpRobLdsz/gw6rTW7BRSTgSln7ve7cwvtq2Cus
24WAnSP6VJ79GuceYK4/tXZSBN+HFtcgoMd5oJdsxXN5SuG2WsE15U2Fk36GM2Db
iWkCjN0oSbhnkpSm5/OQ1HjgJWa54638Bo5zNbXt7Cb8umhvdLNsWqKvxlbzt9oh
eCPMKdyM9/FaiQL4LuR9ah1l6pfvpYmuwb10AjX5crWna+cCAwEAAaOBvTCBujAJ
BgNVHRMEAjAAMB0GA1UdDgQWBBTuFw13Tpz7C7bsVsSFQXVDReExBzBRBgNVHSME
SjBIgBSbSp90tETvmZ/D+OS5YBAjYgnRtqEapBgwFjEUMBIGA1UEAwwLdGVhbTU1
NS1uZXSCFFzjFJEGjJheMjN5Yz1ddSM6zfDmMBMGA1UdJQQMMAoGCCsGAQUFBwMB
MAsGA1UdDwQEAwIFoDAZBgNVHREEEjAQgg50ZWFtNTU1LXNlcnZlcjANBgkqhkiG
9w0BAQsFAAOCAQEAjZsjWhYaQaDPIvrpVLluQkyqO4FmGX/IU9pcPcF8SdRPyP3y
bk9H2VFjnd0qnGaG/DjlJD09mDmNlQh7U1RnWqZHZjY5s4vhgKxsO/KCnHxGn70k
ovR0NQt5SfnxW44PnryVx916Ej8lL1ttEvjFDA8zCPmE7IIMWRJAcxZHkzprSyNg
Dwk/jEUaS82dCl8kvKgQRVhx1moOBim3k+hB2IvVhJZmgRGumk/BBNz9VFybBbnS
O46orJZodX2cX+YAvAXrtkPrdzQ/0U+2pWOp/9SmL352qga1WuwRr4e8DjLSrsi/
rFCScdYEUKBCVqexre4oUpDPhFAzYfwc7sCYMQ==
-----END CERTIFICATE-----
