Certificate:
    Data:
        Version: 3 (0x2)
        Serial Number:
            1e:89:3d:00:b4:bd:57:8d:e6:de:8c:f7:11:ef:b3:98
        Signature Algorithm: sha256WithRSAEncryption
        Issuer: CN=team455-net
        Validity
            Not Before: Sep 13 02:53:27 2021 GMT
            Not After : Aug 28 02:53:27 2024 GMT
        Subject: CN=team455-server
        Subject Public Key Info:
            Public Key Algorithm: rsaEncryption
                RSA Public-Key: (2048 bit)
                Modulus:
                    00:ab:d5:bc:a5:16:05:f7:41:df:61:67:f4:25:d4:
                    8e:5a:55:b4:6f:db:37:c3:03:8b:39:08:4e:21:e9:
                    e4:be:ee:cf:9d:09:a3:b3:d1:04:b2:70:b2:4e:1d:
                    db:e8:84:3b:fa:89:51:89:99:f4:6b:8f:ee:a9:96:
                    94:12:60:a2:50:d8:99:61:98:a0:82:f4:be:e3:88:
                    97:81:60:44:4f:e1:37:ec:8a:b7:73:e5:ab:9e:48:
                    57:54:07:fc:c5:6a:99:14:ea:7a:30:01:22:1b:5e:
                    a3:2f:cd:b1:14:4d:4c:15:a1:f0:3c:14:4c:d6:47:
                    a9:c1:fd:f8:6c:85:a9:6c:bd:92:3c:ca:83:a3:a7:
                    f5:d3:93:cf:7d:31:aa:7b:73:d4:16:b2:07:0c:88:
                    83:63:b0:98:ab:85:ab:ab:f7:4f:91:80:22:e7:53:
                    63:e3:a8:e2:53:b7:b1:3b:c6:73:62:b7:e5:1f:85:
                    a1:18:b5:47:c5:8a:31:99:e4:d0:f6:2d:d5:aa:9b:
                    d9:de:a5:57:9d:18:53:36:cc:80:d6:ad:0c:89:ae:
                    f7:c3:a4:9c:13:b4:ed:b9:6e:c1:83:e5:e8:67:9e:
                    85:6a:6f:34:70:9a:1b:be:78:43:fb:f6:a1:96:06:
                    d0:cc:ae:19:ef:ce:96:a4:35:ff:f1:a1:13:d6:c2:
                    f6:23
                Exponent: 65537 (0x10001)
        X509v3 extensions:
            X509v3 Basic Constraints: 
                CA:FALSE
            X509v3 Subject Key Identifier: 
                8F:C9:A5:9C:88:A2:67:52:5B:69:1F:8B:9C:B4:7A:39:AA:11:83:84
            X509v3 Authority Key Identifier: 
                keyid:05:78:68:04:33:75:8F:A0:1B:2C:AE:28:CD:26:8A:FA:69:DB:54:9B
                DirName:/CN=team455-net
                serial:0F:D6:91:93:1F:06:5C:78:33:5D:0F:5E:45:60:70:B7:F9:1F:30:C1

            X509v3 Extended Key Usage: 
                TLS Web Server Authentication
            X509v3 Key Usage: 
                Digital Signature, Key Encipherment
            X509v3 Subject Alternative Name: 
                DNS:team455-server
    Signature Algorithm: sha256WithRSAEncryption
         65:61:31:c0:6c:33:38:38:e0:90:87:5e:c0:57:a5:37:e8:86:
         dd:e1:32:d6:06:04:16:33:4f:ae:0e:81:82:a7:f1:2f:ce:24:
         d1:40:3d:55:f4:63:e4:5f:5d:51:e0:60:a3:1c:61:f2:98:e4:
         7e:36:9d:60:37:6d:fb:da:11:4a:4e:eb:ea:e4:a6:a1:d0:01:
         76:44:07:b0:ad:12:3b:48:61:c5:e8:dc:9a:0e:49:29:b0:74:
         7f:8f:d9:d2:6a:f5:ab:fa:4b:77:85:8f:38:d4:5d:42:b5:ba:
         f7:43:fb:66:b5:a7:22:9a:2a:62:f6:ec:23:14:7a:80:68:01:
         da:83:f2:d5:ae:25:b1:d7:07:24:2a:48:62:cc:da:a8:83:f2:
         e8:ef:91:1c:22:7c:79:64:f8:a0:f5:43:2a:5a:55:ea:d3:0d:
         49:3f:8d:85:cf:e0:9f:91:6b:39:17:0a:8b:05:48:b4:3d:dd:
         e1:3f:8c:02:5d:c1:ab:67:4b:92:96:31:1d:43:66:2c:3f:5b:
         8c:15:6d:21:fa:64:db:29:4a:41:82:bd:0f:22:36:a2:97:ea:
         6b:50:4a:35:d7:f6:bc:ae:39:49:e9:0e:27:3b:7a:67:64:42:
         a7:a0:37:3d:50:e5:da:1b:2b:d0:6d:4d:35:00:9b:2c:b3:78:
         1d:37:4d:c3
-----BEGIN CERTIFICATE-----
MIIDdzCCAl+gAwIBAgIQHok9ALS9V43m3oz3Ee+zmDANBgkqhkiG9w0BAQsFADAW
MRQwEgYDVQQDDAt0ZWFtNDU1LW5ldDAeFw0yMTA5MTMwMjUzMjdaFw0yNDA4Mjgw
MjUzMjdaMBkxFzAVBgNVBAMMDnRlYW00NTUtc2VydmVyMIIBIjANBgkqhkiG9w0B
AQEFAAOCAQ8AMIIBCgKCAQEAq9W8pRYF90HfYWf0JdSOWlW0b9s3wwOLOQhOIenk
vu7PnQmjs9EEsnCyTh3b6IQ7+olRiZn0a4/uqZaUEmCiUNiZYZiggvS+44iXgWBE
T+E37Iq3c+WrnkhXVAf8xWqZFOp6MAEiG16jL82xFE1MFaHwPBRM1kepwf34bIWp
bL2SPMqDo6f105PPfTGqe3PUFrIHDIiDY7CYq4Wrq/dPkYAi51Nj46jiU7exO8Zz
YrflH4WhGLVHxYoxmeTQ9i3VqpvZ3qVXnRhTNsyA1q0Mia73w6ScE7TtuW7Bg+Xo
Z56Fam80cJobvnhD+/ahlgbQzK4Z786WpDX/8aET1sL2IwIDAQABo4G9MIG6MAkG
A1UdEwQCMAAwHQYDVR0OBBYEFI/JpZyIomdSW2kfi5y0ejmqEYOEMFEGA1UdIwRK
MEiAFAV4aAQzdY+gGyyuKM0mivpp21SboRqkGDAWMRQwEgYDVQQDDAt0ZWFtNDU1
LW5ldIIUD9aRkx8GXHgzXQ9eRWBwt/kfMMEwEwYDVR0lBAwwCgYIKwYBBQUHAwEw
CwYDVR0PBAQDAgWgMBkGA1UdEQQSMBCCDnRlYW00NTUtc2VydmVyMA0GCSqGSIb3
DQEBCwUAA4IBAQBlYTHAbDM4OOCQh17AV6U36Ibd4TLWBgQWM0+uDoGCp/EvziTR
QD1V9GPkX11R4GCjHGHymOR+Np1gN2372hFKTuvq5Kah0AF2RAewrRI7SGHF6Nya
DkkpsHR/j9nSavWr+kt3hY841F1Ctbr3Q/tmtacimipi9uwjFHqAaAHag/LVriWx
1wckKkhizNqog/Lo75EcInx5ZPig9UMqWlXq0w1JP42Fz+CfkWs5FwqLBUi0Pd3h
P4wCXcGrZ0uSljEdQ2YsP1uMFW0h+mTbKUpBgr0PIjail+prUEo11/a8rjlJ6Q4n
O3pnZEKnoDc9UOXaGyvQbU01AJsss3gdN03D
-----END CERTIFICATE-----
