Certificate:
    Data:
        Version: 3 (0x2)
        Serial Number:
            04:63:c1:47:81:d7:88:17:18:7f:f5:58:4a:cf:63:8b
        Signature Algorithm: sha256WithRSAEncryption
        Issuer: CN=team291-net
        Validity
            Not Before: Sep 13 01:19:52 2021 GMT
            Not After : Aug 28 01:19:52 2024 GMT
        Subject: CN=team291-client
        Subject Public Key Info:
            Public Key Algorithm: rsaEncryption
                RSA Public-Key: (2048 bit)
                Modulus:
                    00:aa:68:92:29:f2:ad:04:9f:e9:6f:9a:ce:fa:0a:
                    44:8c:49:66:d4:59:98:a6:8f:e7:23:47:60:5d:2c:
                    b9:5e:fb:cb:3d:c3:0a:95:dd:fa:bc:68:50:8b:e8:
                    5b:66:07:9d:1f:7d:0b:53:db:67:69:b1:c1:49:73:
                    14:da:d4:cd:73:1b:53:db:b2:f3:25:6b:be:4c:33:
                    09:e5:6a:e2:c7:da:d7:e9:4a:de:37:a3:2a:ab:1d:
                    82:a2:b5:8a:d1:5b:b7:f9:10:16:2c:3b:c3:9c:d9:
                    ad:02:18:f3:a0:00:12:08:80:88:71:8f:ef:7e:47:
                    63:3c:4a:5e:d7:7c:69:c7:56:2e:e5:9d:f1:3a:86:
                    ec:56:e6:b5:15:5d:0d:08:fc:a8:9c:b9:d9:ec:e6:
                    17:40:d3:0e:32:ba:e5:a6:7b:93:7d:4a:e6:5c:be:
                    54:57:79:76:99:19:0b:16:f3:17:29:4e:a8:9a:c6:
                    0f:f2:8c:db:93:58:82:17:fe:a8:90:81:72:2c:79:
                    e8:5e:bb:86:84:99:d0:58:fa:b8:3f:d3:95:c9:e1:
                    eb:2e:11:d7:4c:aa:b9:04:b3:b8:8d:05:dd:c5:a5:
                    5c:04:2f:2a:3c:5e:21:93:7b:7e:e9:a8:54:f4:10:
                    b0:23:a6:4c:e1:18:60:0a:75:5e:4f:f2:eb:45:3e:
                    2d:97
                Exponent: 65537 (0x10001)
        X509v3 extensions:
            X509v3 Basic Constraints: 
                CA:FALSE
            X509v3 Subject Key Identifier: 
                13:C1:21:1D:40:D4:03:2C:46:C7:C6:15:E1:7B:2E:23:EB:2D:1C:BC
            X509v3 Authority Key Identifier: 
                keyid:0F:69:18:A6:48:47:EC:0F:ED:F9:B9:9F:02:3C:64:12:E3:A7:22:81
                DirName:/CN=team291-net
                serial:11:95:80:A2:19:C7:EE:13:5C:8B:F0:23:E2:7B:26:7E:2A:9D:AC:27

            X509v3 Extended Key Usage: 
                TLS Web Client Authentication
            X509v3 Key Usage: 
                Digital Signature
    Signature Algorithm: sha256WithRSAEncryption
         23:6e:eb:fb:44:b2:ae:df:46:d3:91:7e:11:b4:48:e1:f3:76:
         b3:d8:b2:59:07:74:b2:c9:00:11:41:1e:54:e7:5c:42:5d:a8:
         e7:c7:34:64:41:54:d6:04:32:e6:6f:69:4b:1b:60:43:f4:c8:
         d1:3e:94:9d:8f:19:02:6c:98:79:5c:24:13:13:bc:b0:17:36:
         9d:28:fd:3f:5a:f8:4e:18:e1:7c:46:bc:1b:bd:93:e8:9d:30:
         8a:81:9e:63:ef:81:f8:53:39:32:7f:c6:a1:24:b9:07:9a:f0:
         27:35:fc:ea:62:9b:40:e8:13:1f:69:9f:6d:82:d0:09:db:01:
         3e:b1:5c:18:62:42:fd:fa:d1:dc:35:b9:60:d8:36:75:88:26:
         fa:7f:4c:02:70:1a:87:8f:9c:3e:65:fd:45:89:d7:3f:30:ea:
         3e:32:8d:c9:5b:6f:d8:a2:d4:b2:ec:3f:73:5b:24:ce:e9:68:
         98:83:c3:49:59:39:a8:58:18:b8:7e:17:19:42:dc:4b:a5:e1:
         28:04:c4:d4:f1:66:b3:26:e3:92:a8:0b:2e:d4:46:ae:20:7f:
         5c:b1:cc:8a:98:64:a4:ed:8b:92:53:9a:dd:14:03:31:cc:fd:
         51:9b:fb:90:3e:87:35:83:f9:2d:c5:5f:11:98:b3:33:15:11:
         b1:0e:87:a5
-----BEGIN CERTIFICATE-----
MIIDXDCCAkSgAwIBAgIQBGPBR4HXiBcYf/VYSs9jizANBgkqhkiG9w0BAQsFADAW
MRQwEgYDVQQDDAt0ZWFtMjkxLW5ldDAeFw0yMTA5MTMwMTE5NTJaFw0yNDA4Mjgw
MTE5NTJaMBkxFzAVBgNVBAMMDnRlYW0yOTEtY2xpZW50MIIBIjANBgkqhkiG9w0B
AQEFAAOCAQ8AMIIBCgKCAQEAqmiSKfKtBJ/pb5rO+gpEjElm1FmYpo/nI0dgXSy5
XvvLPcMKld36vGhQi+hbZgedH30LU9tnabHBSXMU2tTNcxtT27LzJWu+TDMJ5Wri
x9rX6UreN6Mqqx2CorWK0Vu3+RAWLDvDnNmtAhjzoAASCICIcY/vfkdjPEpe13xp
x1Yu5Z3xOobsVua1FV0NCPyonLnZ7OYXQNMOMrrlpnuTfUrmXL5UV3l2mRkLFvMX
KU6omsYP8ozbk1iCF/6okIFyLHnoXruGhJnQWPq4P9OVyeHrLhHXTKq5BLO4jQXd
xaVcBC8qPF4hk3t+6ahU9BCwI6ZM4RhgCnVeT/LrRT4tlwIDAQABo4GiMIGfMAkG
A1UdEwQCMAAwHQYDVR0OBBYEFBPBIR1A1AMsRsfGFeF7LiPrLRy8MFEGA1UdIwRK
MEiAFA9pGKZIR+wP7fm5nwI8ZBLjpyKBoRqkGDAWMRQwEgYDVQQDDAt0ZWFtMjkx
LW5ldIIUEZWAohnH7hNci/Aj4nsmfiqdrCcwEwYDVR0lBAwwCgYIKwYBBQUHAwIw
CwYDVR0PBAQDAgeAMA0GCSqGSIb3DQEBCwUAA4IBAQAjbuv7RLKu30bTkX4RtEjh
83az2LJZB3SyyQARQR5U51xCXajnxzRkQVTWBDLmb2lLG2BD9MjRPpSdjxkCbJh5
XCQTE7ywFzadKP0/WvhOGOF8RrwbvZPonTCKgZ5j74H4Uzkyf8ahJLkHmvAnNfzq
YptA6BMfaZ9tgtAJ2wE+sVwYYkL9+tHcNblg2DZ1iCb6f0wCcBqHj5w+Zf1Fidc/
MOo+Mo3JW2/YotSy7D9zWyTO6WiYg8NJWTmoWBi4fhcZQtxLpeEoBMTU8WazJuOS
qAsu1EauIH9cscyKmGSk7YuSU5rdFAMxzP1Rm/uQPoc1g/ktxV8RmLMzFRGxDoel
-----END CERTIFICATE-----
