Certificate:
    Data:
        Version: 3 (0x2)
        Serial Number:
            22:88:a5:db:6f:99:22:87:0c:8c:a0:bc:ca:71:80:91
        Signature Algorithm: sha256WithRSAEncryption
        Issuer: CN=team291-net
        Validity
            Not Before: Sep 13 01:19:52 2021 GMT
            Not After : Aug 28 01:19:52 2024 GMT
        Subject: CN=team291-server
        Subject Public Key Info:
            Public Key Algorithm: rsaEncryption
                RSA Public-Key: (2048 bit)
                Modulus:
                    00:c9:86:7c:4e:ab:83:6f:c3:d5:00:88:81:09:d2:
                    8c:9c:1c:e9:4c:6c:ab:1f:3f:13:5f:b9:63:ce:dc:
                    d4:f2:3d:29:03:09:e9:ec:6f:3d:5e:ce:8a:fc:17:
                    14:ba:94:72:8b:ef:db:f1:16:88:0e:25:76:db:9e:
                    76:59:ec:43:a2:1c:ee:45:22:a0:e6:8c:fd:be:88:
                    f8:14:a9:a8:5f:cd:57:15:3d:78:da:68:85:74:0a:
                    65:81:a8:e7:aa:da:bd:63:28:4e:8f:a6:60:64:e5:
                    46:3a:7e:b7:6e:b9:27:f4:f3:7f:4b:d1:1e:02:63:
                    5c:4c:0d:30:58:9e:c6:2a:9c:5f:2c:ec:04:b0:6a:
                    e2:73:02:a6:e5:f7:79:fe:ca:fe:df:6b:b2:fa:0c:
                    5b:9c:2f:f3:7c:5c:ff:99:46:d1:3c:58:18:83:64:
                    a3:bf:df:17:63:0f:0e:53:f7:1f:d7:c7:91:58:ae:
                    e3:d1:23:bf:f9:e2:ff:b9:2f:05:77:18:4a:36:7d:
                    c8:11:9b:05:dd:16:76:ec:01:9d:93:51:cf:0c:8d:
                    7a:8c:cb:99:d7:43:3b:3e:78:c9:ce:45:b9:70:4d:
                    20:4a:3b:cb:0a:17:72:eb:de:5b:75:39:77:ce:a2:
                    f2:eb:88:46:d2:30:6b:30:39:d0:b6:c0:53:c6:3a:
                    05:8d
                Exponent: 65537 (0x10001)
        X509v3 extensions:
            X509v3 Basic Constraints: 
                CA:FALSE
            X509v3 Subject Key Identifier: 
                59:63:4E:47:7F:D3:AA:44:22:8F:73:2B:80:53:21:12:D6:3F:5A:E2
            X509v3 Authority Key Identifier: 
                keyid:0F:69:18:A6:48:47:EC:0F:ED:F9:B9:9F:02:3C:64:12:E3:A7:22:81
                DirName:/CN=team291-net
                serial:11:95:80:A2:19:C7:EE:13:5C:8B:F0:23:E2:7B:26:7E:2A:9D:AC:27

            X509v3 Extended Key Usage: 
                TLS Web Server Authentication
            X509v3 Key Usage: 
                Digital Signature, Key Encipherment
            X509v3 Subject Alternative Name: 
                DNS:team291-server
    Signature Algorithm: sha256WithRSAEncryption
         a0:39:31:34:7a:a9:5d:66:ff:a7:aa:15:36:a2:cc:7e:7a:bd:
         49:0d:81:9b:1c:ca:5e:e2:d7:99:f0:8a:4b:21:46:94:64:c9:
         a8:48:d5:a6:21:f4:3f:05:6e:f2:f0:7a:2d:5c:d9:a3:f6:9f:
         c5:d3:82:27:85:4d:62:60:58:aa:6e:d7:af:c2:2e:2f:e5:fd:
         8d:af:99:26:9d:ea:6a:7e:3f:48:0e:b0:b4:2e:23:af:99:e5:
         5e:1a:9c:47:9e:77:56:00:66:dc:b3:94:ca:05:f2:3d:2f:05:
         8b:90:51:46:f7:07:03:46:29:fc:6c:38:70:c5:93:54:2d:2b:
         4c:6b:24:ef:dd:d0:8a:00:78:fc:b7:c3:0b:b9:b9:79:1a:52:
         a9:f8:26:0a:60:84:71:ac:6a:47:66:b8:fc:ea:de:d2:a0:85:
         46:20:92:e0:2c:3d:4b:1c:1b:a2:6d:39:17:36:29:6e:db:41:
         7c:ea:c4:db:9a:af:f3:be:ba:26:ff:09:cf:8c:72:29:17:36:
         ec:c5:55:70:24:cc:6c:05:90:82:b5:e6:a7:af:c0:31:67:dd:
         30:4d:32:e9:91:20:23:b6:43:97:5c:bc:31:65:d1:3d:de:07:
         a7:13:00:16:c1:a2:81:73:0b:d7:3a:88:ab:8b:3e:77:f3:7b:
         5d:7d:38:97
-----BEGIN CERTIFICATE-----
MIIDdzCCAl+gAwIBAgIQIoil22+ZIocMjKC8ynGAkTANBgkqhkiG9w0BAQsFADAW
MRQwEgYDVQQDDAt0ZWFtMjkxLW5ldDAeFw0yMTA5MTMwMTE5NTJaFw0yNDA4Mjgw
MTE5NTJaMBkxFzAVBgNVBAMMDnRlYW0yOTEtc2VydmVyMIIBIjANBgkqhkiG9w0B
AQEFAAOCAQ8AMIIBCgKCAQEAyYZ8TquDb8PVAIiBCdKMnBzpTGyrHz8TX7ljztzU
8j0pAwnp7G89Xs6K/BcUupRyi+/b8RaIDiV22552WexDohzuRSKg5oz9voj4FKmo
X81XFT142miFdAplgajnqtq9YyhOj6ZgZOVGOn63brkn9PN/S9EeAmNcTA0wWJ7G
KpxfLOwEsGricwKm5fd5/sr+32uy+gxbnC/zfFz/mUbRPFgYg2Sjv98XYw8OU/cf
18eRWK7j0SO/+eL/uS8FdxhKNn3IEZsF3RZ27AGdk1HPDI16jMuZ10M7PnjJzkW5
cE0gSjvLChdy695bdTl3zqLy64hG0jBrMDnQtsBTxjoFjQIDAQABo4G9MIG6MAkG
A1UdEwQCMAAwHQYDVR0OBBYEFFljTkd/06pEIo9zK4BTIRLWP1riMFEGA1UdIwRK
MEiAFA9pGKZIR+wP7fm5nwI8ZBLjpyKBoRqkGDAWMRQwEgYDVQQDDAt0ZWFtMjkx
LW5ldIIUEZWAohnH7hNci/Aj4nsmfiqdrCcwEwYDVR0lBAwwCgYIKwYBBQUHAwEw
CwYDVR0PBAQDAgWgMBkGA1UdEQQSMBCCDnRlYW0yOTEtc2VydmVyMA0GCSqGSIb3
DQEBCwUAA4IBAQCgOTE0eqldZv+nqhU2osx+er1JDYGbHMpe4teZ8IpLIUaUZMmo
SNWmIfQ/BW7y8HotXNmj9p/F04InhU1iYFiqbtevwi4v5f2Nr5kmnepqfj9IDrC0
LiOvmeVeGpxHnndWAGbcs5TKBfI9LwWLkFFG9wcDRin8bDhwxZNULStMayTv3dCK
AHj8t8MLubl5GlKp+CYKYIRxrGpHZrj86t7SoIVGIJLgLD1LHBuibTkXNilu20F8
6sTbmq/zvrom/wnPjHIpFzbsxVVwJMxsBZCCteanr8AxZ90wTTLpkSAjtkOXXLwx
ZdE93genEwAWwaKBcwvXOoiriz5383tdfTiX
-----END CERTIFICATE-----
