Certificate:
    Data:
        Version: 3 (0x2)
        Serial Number:
            45:5d:2f:9d:21:c4:aa:59:88:4e:53:a7:1a:5a:0e:3d
        Signature Algorithm: sha256WithRSAEncryption
        Issuer: CN=team74-net
        Validity
            Not Before: Sep 12 23:20:04 2021 GMT
            Not After : Aug 27 23:20:04 2024 GMT
        Subject: CN=team74-server
        Subject Public Key Info:
            Public Key Algorithm: rsaEncryption
                RSA Public-Key: (2048 bit)
                Modulus:
                    00:bf:32:41:7e:ad:7b:70:7b:18:d9:79:fe:97:54:
                    78:a7:4e:18:57:29:54:30:e5:f5:b5:44:6e:70:27:
                    58:32:7b:d5:5a:ac:c7:14:32:a7:da:5c:cf:b4:39:
                    13:7d:82:f6:48:61:92:c9:3e:78:4a:d8:ab:de:cf:
                    92:27:54:bf:76:f0:e6:b0:4d:78:00:a0:65:cd:ef:
                    6c:ee:8b:2d:d6:13:5a:44:68:14:6d:52:3d:bc:73:
                    40:d8:bb:b2:c6:e6:f6:a1:7e:5e:12:dd:4e:ff:6b:
                    65:f6:83:17:6e:0f:0e:9a:e5:cb:d2:27:2a:3f:46:
                    de:d0:75:10:ec:31:26:78:dd:95:f0:bd:ea:d1:16:
                    86:8c:1e:e5:0a:d3:14:05:40:38:74:4a:d8:17:bf:
                    74:1f:6f:55:1c:fb:68:c3:44:02:47:b3:f7:36:55:
                    b8:2a:89:2c:63:db:e0:24:e9:f0:b6:cf:14:23:cf:
                    6f:ad:23:af:df:b1:32:ca:26:c0:67:cb:ed:ce:a0:
                    49:12:7d:65:e8:0f:02:b3:7b:56:16:ab:d9:81:06:
                    21:44:49:70:7e:04:8e:18:d0:80:2c:2d:cd:50:bb:
                    48:68:ed:da:8b:83:ae:e3:f0:35:e6:c4:c8:f5:55:
                    66:49:e6:23:b5:fa:df:d1:3a:3c:c6:6c:98:63:5c:
                    5f:45
                Exponent: 65537 (0x10001)
        X509v3 extensions:
            X509v3 Basic Constraints: 
                CA:FALSE
            X509v3 Subject Key Identifier: 
                5E:77:E4:96:0F:9C:5D:D1:B8:70:FD:F6:53:81:3C:C6:AF:7C:56:2E
            X509v3 Authority Key Identifier: 
                keyid:80:6C:65:A4:D3:43:D3:75:F3:75:CA:EF:15:D3:A8:4A:75:68:22:E4
                DirName:/CN=team74-net
                serial:75:CF:4A:0F:E9:6D:06:0F:EE:59:9C:43:86:00:ED:D9:0C:3F:A8:C5

            X509v3 Extended Key Usage: 
                TLS Web Server Authentication
            X509v3 Key Usage: 
                Digital Signature, Key Encipherment
            X509v3 Subject Alternative Name: 
                DNS:team74-server
    Signature Algorithm: sha256WithRSAEncryption
         64:f6:bd:5a:70:65:e5:10:45:56:b8:e0:ba:ca:2b:8a:26:f9:
         d3:66:7e:87:2a:7e:07:b0:8f:77:fd:5d:8b:ad:e9:47:57:14:
         f5:4b:2c:92:32:58:f3:bf:ae:50:46:74:28:1d:a7:b4:5a:bd:
         18:55:e3:4f:0c:3a:8a:02:89:97:96:7a:44:61:38:31:b1:c3:
         3f:d5:d4:1a:6a:c0:79:67:5a:d3:fc:9c:5a:34:2c:4b:ab:8b:
         12:9d:4a:95:bd:dd:2c:fd:63:51:91:f7:9f:40:16:0e:be:54:
         69:5b:ff:83:9e:49:59:1e:90:0b:09:a1:47:69:43:a8:06:8c:
         8d:41:68:ae:05:86:47:8f:db:95:8e:83:4f:de:9e:f7:23:c7:
         a7:6a:76:17:97:77:5e:76:40:9f:ba:e7:a0:42:8f:92:5c:c8:
         06:f5:42:c3:aa:a6:d8:88:6a:21:9a:f4:02:8d:b9:9a:28:8e:
         b8:46:2c:fc:5c:9e:c8:7e:ec:f1:ba:a2:b9:6f:c4:dc:21:20:
         d9:8c:4e:eb:e6:aa:9e:83:d6:34:c5:d6:75:5b:e4:41:02:f4:
         b9:f6:26:fc:6c:02:de:03:7c:90:00:68:08:e6:aa:f4:fd:4f:
         53:79:3e:8e:35:b5:f8:b7:a3:ed:db:66:41:1d:81:8b:26:85:
         3b:e4:8a:67
-----BEGIN CERTIFICATE-----
MIIDczCCAlugAwIBAgIQRV0vnSHEqlmITlOnGloOPTANBgkqhkiG9w0BAQsFADAV
MRMwEQYDVQQDDAp0ZWFtNzQtbmV0MB4XDTIxMDkxMjIzMjAwNFoXDTI0MDgyNzIz
MjAwNFowGDEWMBQGA1UEAwwNdGVhbTc0LXNlcnZlcjCCASIwDQYJKoZIhvcNAQEB
BQADggEPADCCAQoCggEBAL8yQX6te3B7GNl5/pdUeKdOGFcpVDDl9bVEbnAnWDJ7
1VqsxxQyp9pcz7Q5E32C9khhksk+eErYq97PkidUv3bw5rBNeACgZc3vbO6LLdYT
WkRoFG1SPbxzQNi7ssbm9qF+XhLdTv9rZfaDF24PDprly9InKj9G3tB1EOwxJnjd
lfC96tEWhowe5QrTFAVAOHRK2Be/dB9vVRz7aMNEAkez9zZVuCqJLGPb4CTp8LbP
FCPPb60jr9+xMsomwGfL7c6gSRJ9ZegPArN7Vhar2YEGIURJcH4EjhjQgCwtzVC7
SGjt2ouDruPwNebEyPVVZknmI7X639E6PMZsmGNcX0UCAwEAAaOBuzCBuDAJBgNV
HRMEAjAAMB0GA1UdDgQWBBRed+SWD5xd0bhw/fZTgTzGr3xWLjBQBgNVHSMESTBH
gBSAbGWk00PTdfN1yu8V06hKdWgi5KEZpBcwFTETMBEGA1UEAwwKdGVhbTc0LW5l
dIIUdc9KD+ltBg/uWZxDhgDt2Qw/qMUwEwYDVR0lBAwwCgYIKwYBBQUHAwEwCwYD
VR0PBAQDAgWgMBgGA1UdEQQRMA+CDXRlYW03NC1zZXJ2ZXIwDQYJKoZIhvcNAQEL
BQADggEBAGT2vVpwZeUQRVa44LrKK4om+dNmfocqfgewj3f9XYut6UdXFPVLLJIy
WPO/rlBGdCgdp7RavRhV408MOooCiZeWekRhODGxwz/V1BpqwHlnWtP8nFo0LEur
ixKdSpW93Sz9Y1GR959AFg6+VGlb/4OeSVkekAsJoUdpQ6gGjI1BaK4FhkeP25WO
g0/envcjx6dqdheXd152QJ+656BCj5JcyAb1QsOqptiIaiGa9AKNuZoojrhGLPxc
nsh+7PG6orlvxNwhINmMTuvmqp6D1jTF1nVb5EEC9Ln2JvxsAt4DfJAAaAjmqvT9
T1N5Po41tfi3o+3bZkEdgYsmhTvkimc=
-----END CERTIFICATE-----
