Certificate:
    Data:
        Version: 3 (0x2)
        Serial Number:
            2d:4b:a6:e6:dc:01:3d:48:bf:cf:93:cb:c9:12:81:6a
        Signature Algorithm: sha256WithRSAEncryption
        Issuer: CN=team245-net
        Validity
            Not Before: Sep 13 00:59:35 2021 GMT
            Not After : Aug 28 00:59:35 2024 GMT
        Subject: CN=team245-client
        Subject Public Key Info:
            Public Key Algorithm: rsaEncryption
                RSA Public-Key: (2048 bit)
                Modulus:
                    00:be:b4:81:35:ee:7b:04:19:50:57:78:66:a4:32:
                    50:10:d7:a3:53:df:f6:c5:9a:44:a3:b0:66:ef:2d:
                    a9:ba:4b:20:53:df:3d:40:f8:e0:98:08:9c:f3:0f:
                    95:9e:c0:cc:ce:e4:12:6d:74:b8:d0:47:ed:d9:9c:
                    9b:71:ab:67:29:b7:f8:db:9c:e3:4c:37:1c:e1:51:
                    a0:59:47:8f:e7:88:d9:68:b2:a8:63:d1:74:9a:eb:
                    30:0f:e6:84:ea:cf:95:97:a1:9a:71:4c:66:57:04:
                    93:ae:54:81:5e:e9:9e:fa:00:f2:b7:0d:7f:a8:f9:
                    9f:27:e8:f7:35:64:52:da:d0:ba:74:02:85:a5:30:
                    99:60:42:57:30:02:8b:6c:56:b1:4a:da:fb:ea:34:
                    f6:b2:aa:26:9b:ca:dd:b6:ae:ac:74:e1:01:54:16:
                    1d:d3:26:08:25:9b:a9:28:e2:d3:fb:2b:e1:d7:9a:
                    d3:60:eb:33:58:c1:cd:95:4d:17:ce:38:3e:6b:a2:
                    08:bf:86:07:ae:7c:f4:14:fd:96:1e:a5:ab:5d:d6:
                    6c:85:af:c8:eb:0f:ed:20:6e:f5:5d:c2:93:4a:60:
                    a9:c1:4f:f4:06:f2:53:8f:fe:12:e9:45:84:a0:ea:
                    de:d1:8c:1a:6e:33:4b:88:a9:f5:27:c4:8b:cd:67:
                    89:f1
                Exponent: 65537 (0x10001)
        X509v3 extensions:
            X509v3 Basic Constraints: 
                CA:FALSE
            X509v3 Subject Key Identifier: 
                E4:4E:EF:8C:78:19:A4:8A:AE:C5:AA:89:C9:92:6D:D3:AE:09:30:D3
            X509v3 Authority Key Identifier: 
                keyid:77:90:C9:A4:D5:4A:DF:35:4A:4A:48:58:FF:A6:8B:D8:50:CB:9B:5F
                DirName:/CN=team245-net
                serial:63:04:26:95:D0:48:50:F9:4E:D0:1C:C8:9A:D0:3D:3F:EF:0E:C0:4D

            X509v3 Extended Key Usage: 
                TLS Web Client Authentication
            X509v3 Key Usage: 
                Digital Signature
    Signature Algorithm: sha256WithRSAEncryption
         0f:d2:71:25:4d:28:64:f6:62:fc:e8:d8:06:93:4b:46:a3:43:
         c0:a9:ed:6e:80:5c:ca:94:34:41:fa:7c:c1:11:a5:d1:1d:22:
         72:bb:25:bf:38:66:37:5c:13:08:7e:91:b0:73:33:00:96:58:
         94:d1:30:ba:a5:7a:a9:29:4e:03:6c:8e:f9:7e:d6:d5:d7:05:
         ad:7c:bc:e5:43:5a:a0:42:90:96:97:27:5c:b0:9b:60:e8:ad:
         fa:b9:17:2b:db:8e:e6:73:77:ad:d6:29:83:16:ae:ed:4b:28:
         1b:49:0d:29:35:e1:83:bb:76:c1:40:6c:2d:29:f1:f3:b5:97:
         d8:ad:0b:f0:f3:c1:3f:c8:6d:ea:e7:98:62:da:ca:42:18:37:
         8d:99:b1:65:16:fc:62:6e:a5:d6:fd:60:b5:73:ee:9f:66:3d:
         ea:4c:20:f2:d2:8d:b9:8c:29:16:53:e8:a2:49:f2:98:43:e2:
         35:68:19:ea:1e:23:2a:30:ee:80:75:d9:a2:48:27:83:56:18:
         93:75:f7:82:f2:a8:94:7f:60:9c:a7:da:ae:5a:50:4e:45:6f:
         5a:03:46:0e:3b:5e:ff:93:e2:75:2c:97:91:5f:94:e3:2e:5e:
         7d:c5:01:8b:05:cf:88:e0:61:39:11:7a:37:10:65:e0:5c:a1:
         c6:25:da:e0
-----BEGIN CERTIFICATE-----
MIIDXDCCAkSgAwIBAgIQLUum5twBPUi/z5PLyRKBajANBgkqhkiG9w0BAQsFADAW
MRQwEgYDVQQDDAt0ZWFtMjQ1LW5ldDAeFw0yMTA5MTMwMDU5MzVaFw0yNDA4Mjgw
MDU5MzVaMBkxFzAVBgNVBAMMDnRlYW0yNDUtY2xpZW50MIIBIjANBgkqhkiG9w0B
AQEFAAOCAQ8AMIIBCgKCAQEAvrSBNe57BBlQV3hmpDJQENejU9/2xZpEo7Bm7y2p
uksgU989QPjgmAic8w+VnsDMzuQSbXS40Eft2ZybcatnKbf425zjTDcc4VGgWUeP
54jZaLKoY9F0muswD+aE6s+Vl6GacUxmVwSTrlSBXume+gDytw1/qPmfJ+j3NWRS
2tC6dAKFpTCZYEJXMAKLbFaxStr76jT2sqomm8rdtq6sdOEBVBYd0yYIJZupKOLT
+yvh15rTYOszWMHNlU0Xzjg+a6IIv4YHrnz0FP2WHqWrXdZsha/I6w/tIG71XcKT
SmCpwU/0BvJTj/4S6UWEoOre0YwabjNLiKn1J8SLzWeJ8QIDAQABo4GiMIGfMAkG
A1UdEwQCMAAwHQYDVR0OBBYEFORO74x4GaSKrsWqicmSbdOuCTDTMFEGA1UdIwRK
MEiAFHeQyaTVSt81SkpIWP+mi9hQy5tfoRqkGDAWMRQwEgYDVQQDDAt0ZWFtMjQ1
LW5ldIIUYwQmldBIUPlO0BzImtA9P+8OwE0wEwYDVR0lBAwwCgYIKwYBBQUHAwIw
CwYDVR0PBAQDAgeAMA0GCSqGSIb3DQEBCwUAA4IBAQAP0nElTShk9mL86NgGk0tG
o0PAqe1ugFzKlDRB+nzBEaXRHSJyuyW/OGY3XBMIfpGwczMAlliU0TC6pXqpKU4D
bI75ftbV1wWtfLzlQ1qgQpCWlydcsJtg6K36uRcr247mc3et1imDFq7tSygbSQ0p
NeGDu3bBQGwtKfHztZfYrQvw88E/yG3q55hi2spCGDeNmbFlFvxibqXW/WC1c+6f
Zj3qTCDy0o25jCkWU+iiSfKYQ+I1aBnqHiMqMO6AddmiSCeDVhiTdfeC8qiUf2Cc
p9quWlBORW9aA0YOO17/k+J1LJeRX5TjLl59xQGLBc+I4GE5EXo3EGXgXKHGJdrg
-----END CERTIFICATE-----
