Certificate:
    Data:
        Version: 3 (0x2)
        Serial Number:
            32:51:32:2d:08:a7:57:0e:6b:3a:71:b0:ce:c9:b8:5f
        Signature Algorithm: sha256WithRSAEncryption
        Issuer: CN=team491-net
        Validity
            Not Before: Sep 13 03:04:11 2021 GMT
            Not After : Aug 28 03:04:11 2024 GMT
        Subject: CN=team491-client
        Subject Public Key Info:
            Public Key Algorithm: rsaEncryption
                RSA Public-Key: (2048 bit)
                Modulus:
                    00:c6:d5:bb:dc:62:04:89:43:3e:4f:17:31:a7:6b:
                    a3:57:d0:c2:89:fe:82:fd:ab:87:23:0b:2f:1c:d0:
                    72:af:aa:18:17:e3:10:60:cd:50:bf:5a:6c:fe:46:
                    b9:9f:0e:8d:e1:31:bc:5b:c3:28:f9:1a:a8:3e:4f:
                    d5:90:5b:e9:6e:44:6c:93:9b:25:40:69:7e:a8:46:
                    8f:98:b6:c0:3c:16:19:62:1b:5d:20:d6:ba:59:3e:
                    27:87:fc:cb:5f:27:8d:dc:c3:aa:4f:c6:7b:e5:ee:
                    a9:d2:61:89:a4:b7:3d:6c:1a:b9:44:d5:63:2c:71:
                    6e:ff:cb:eb:16:67:08:1d:cb:d8:29:84:77:84:dd:
                    26:53:b6:49:0b:9a:34:c1:9b:a4:14:e7:a5:07:05:
                    ff:da:53:32:c2:9c:b1:84:eb:a7:33:b0:f2:ce:c5:
                    5f:02:e1:af:c0:98:fe:f2:13:34:5e:72:1d:1a:51:
                    9d:93:aa:0e:14:88:ac:48:10:89:70:5c:19:3d:73:
                    45:68:06:ef:1c:bd:b9:92:30:d6:87:32:f0:af:5f:
                    98:3b:a9:be:fd:cb:1d:15:25:09:88:e2:f2:d0:df:
                    1d:93:7f:5b:24:94:03:00:50:4d:9e:47:c8:74:88:
                    e4:55:87:95:55:d7:5d:ff:bd:18:60:21:5a:e0:80:
                    ea:57
                Exponent: 65537 (0x10001)
        X509v3 extensions:
            X509v3 Basic Constraints: 
                CA:FALSE
            X509v3 Subject Key Identifier: 
                7A:B2:A3:48:68:C1:C6:91:29:87:36:49:C0:4A:7C:5E:F1:05:1D:8B
            X509v3 Authority Key Identifier: 
                keyid:70:97:D4:2C:A1:23:BB:37:CF:6D:84:A1:82:A5:2C:2B:A9:9B:83:6F
                DirName:/CN=team491-net
                serial:05:D1:8A:00:D5:DE:46:E7:0F:87:59:3B:D6:A9:28:4E:DE:A0:7A:32

            X509v3 Extended Key Usage: 
                TLS Web Client Authentication
            X509v3 Key Usage: 
                Digital Signature
    Signature Algorithm: sha256WithRSAEncryption
         45:be:27:46:95:69:bc:bf:05:f1:68:68:9b:62:e6:95:27:49:
         e8:b2:5c:4e:ba:0e:ea:69:f0:a9:f0:fb:d0:e2:70:11:f4:e1:
         fd:9d:66:87:87:04:f2:ce:4a:14:90:6d:36:16:f8:09:5f:4b:
         ba:13:79:1f:2f:6a:06:83:c4:10:f3:95:dc:7d:29:4d:98:42:
         02:58:75:ae:cc:5a:5f:89:46:da:f8:d2:44:23:a9:9b:c1:88:
         fc:07:25:be:a8:ee:3a:6e:1d:94:d3:1d:92:96:06:20:fc:6a:
         11:d7:09:5e:9e:b7:80:ea:8d:10:97:e9:96:7e:d2:80:85:bb:
         6c:59:9f:b0:27:f8:e5:60:17:e6:b7:ee:ce:db:8a:71:33:bf:
         de:1a:6c:d6:10:5f:28:66:61:d7:8b:43:de:f9:8b:bb:c7:03:
         18:6b:77:e1:33:34:57:98:58:f0:cb:92:ff:92:db:70:b6:4e:
         30:dc:34:a6:b6:76:b5:4a:2b:6d:42:98:ce:98:b6:97:65:2a:
         99:f2:f0:dc:91:5e:52:a5:ee:5c:3b:50:bc:5c:14:f1:1b:3d:
         42:78:19:f9:bb:1a:41:12:d9:fa:59:ec:11:5d:53:ba:c5:41:
         73:eb:90:9e:17:30:69:7b:29:ea:4d:b0:b6:3b:bc:fb:1b:2c:
         29:99:aa:0b
-----BEGIN CERTIFICATE-----
MIIDXDCCAkSgAwIBAgIQMlEyLQinVw5rOnGwzsm4XzANBgkqhkiG9w0BAQsFADAW
MRQwEgYDVQQDDAt0ZWFtNDkxLW5ldDAeFw0yMTA5MTMwMzA0MTFaFw0yNDA4Mjgw
MzA0MTFaMBkxFzAVBgNVBAMMDnRlYW00OTEtY2xpZW50MIIBIjANBgkqhkiG9w0B
AQEFAAOCAQ8AMIIBCgKCAQEAxtW73GIEiUM+Txcxp2ujV9DCif6C/auHIwsvHNBy
r6oYF+MQYM1Qv1ps/ka5nw6N4TG8W8Mo+RqoPk/VkFvpbkRsk5slQGl+qEaPmLbA
PBYZYhtdINa6WT4nh/zLXyeN3MOqT8Z75e6p0mGJpLc9bBq5RNVjLHFu/8vrFmcI
HcvYKYR3hN0mU7ZJC5o0wZukFOelBwX/2lMywpyxhOunM7DyzsVfAuGvwJj+8hM0
XnIdGlGdk6oOFIisSBCJcFwZPXNFaAbvHL25kjDWhzLwr1+YO6m+/csdFSUJiOLy
0N8dk39bJJQDAFBNnkfIdIjkVYeVVddd/70YYCFa4IDqVwIDAQABo4GiMIGfMAkG
A1UdEwQCMAAwHQYDVR0OBBYEFHqyo0howcaRKYc2ScBKfF7xBR2LMFEGA1UdIwRK
MEiAFHCX1CyhI7s3z22EoYKlLCupm4NvoRqkGDAWMRQwEgYDVQQDDAt0ZWFtNDkx
LW5ldIIUBdGKANXeRucPh1k71qkoTt6gejIwEwYDVR0lBAwwCgYIKwYBBQUHAwIw
CwYDVR0PBAQDAgeAMA0GCSqGSIb3DQEBCwUAA4IBAQBFvidGlWm8vwXxaGibYuaV
J0noslxOug7qafCp8PvQ4nAR9OH9nWaHhwTyzkoUkG02FvgJX0u6E3kfL2oGg8QQ
85XcfSlNmEICWHWuzFpfiUba+NJEI6mbwYj8ByW+qO46bh2U0x2SlgYg/GoR1wle
nreA6o0Ql+mWftKAhbtsWZ+wJ/jlYBfmt+7O24pxM7/eGmzWEF8oZmHXi0Pe+Yu7
xwMYa3fhMzRXmFjwy5L/kttwtk4w3DSmtna1SittQpjOmLaXZSqZ8vDckV5Spe5c
O1C8XBTxGz1CeBn5uxpBEtn6WewRXVO6xUFz65CeFzBpeynqTbC2O7z7GywpmaoL
-----END CERTIFICATE-----
