Certificate:
    Data:
        Version: 3 (0x2)
        Serial Number:
            64:60:19:d1:81:57:10:9a:0e:c4:7b:eb:a3:69:96:a8
        Signature Algorithm: sha256WithRSAEncryption
        Issuer: CN=team491-net
        Validity
            Not Before: Sep 13 03:04:11 2021 GMT
            Not After : Aug 28 03:04:11 2024 GMT
        Subject: CN=team491-server
        Subject Public Key Info:
            Public Key Algorithm: rsaEncryption
                RSA Public-Key: (2048 bit)
                Modulus:
                    00:d7:0e:f7:4a:ba:d6:be:8a:99:be:c6:6a:13:61:
                    50:7f:0f:f3:f1:c1:33:ba:41:3c:be:88:03:2f:9f:
                    54:fc:f9:96:05:28:84:4f:53:f4:c1:cb:eb:f3:97:
                    16:7b:06:ed:29:40:35:e7:92:22:64:46:22:3f:cd:
                    dc:bf:3f:42:27:92:52:9b:2e:c5:3a:de:85:90:f3:
                    15:23:20:65:f8:71:90:17:d9:fb:0c:df:59:67:54:
                    9d:c6:39:5a:7e:22:56:72:4d:bc:de:3d:d8:19:50:
                    a4:24:1a:14:96:5a:f7:d5:d7:0e:7e:8c:46:37:d3:
                    51:6a:d8:05:dd:25:25:db:be:5c:d3:bd:e1:de:bd:
                    10:b6:cc:da:28:3e:23:06:63:d1:28:81:01:3c:2e:
                    24:c9:13:4c:f3:20:a7:0d:db:8f:64:f4:51:cb:9b:
                    18:a8:2e:46:9f:a4:85:06:73:c2:af:cd:6b:ea:11:
                    b5:5e:94:40:0f:da:8f:73:ba:d2:65:84:94:8f:3d:
                    18:f7:20:8b:a4:31:ce:a0:de:c6:93:b9:b3:93:07:
                    9e:6f:9c:1f:2f:51:32:fc:97:29:36:53:36:59:d8:
                    32:ae:1b:38:6e:30:9e:ed:e4:0a:3d:fd:08:83:4c:
                    59:ed:29:cd:85:34:dd:36:80:0f:32:02:64:2e:6a:
                    f4:2b
                Exponent: 65537 (0x10001)
        X509v3 extensions:
            X509v3 Basic Constraints: 
                CA:FALSE
            X509v3 Subject Key Identifier: 
                DC:07:11:EF:71:2E:FD:CA:C8:1E:3D:16:54:37:15:F9:4A:C7:F8:C3
            X509v3 Authority Key Identifier: 
                keyid:70:97:D4:2C:A1:23:BB:37:CF:6D:84:A1:82:A5:2C:2B:A9:9B:83:6F
                DirName:/CN=team491-net
                serial:05:D1:8A:00:D5:DE:46:E7:0F:87:59:3B:D6:A9:28:4E:DE:A0:7A:32

            X509v3 Extended Key Usage: 
                TLS Web Server Authentication
            X509v3 Key Usage: 
                Digital Signature, Key Encipherment
            X509v3 Subject Alternative Name: 
                DNS:team491-server
    Signature Algorithm: sha256WithRSAEncryption
         10:13:a6:1b:16:2e:2f:a1:de:85:7e:d3:f3:e4:52:f1:e5:49:
         86:b0:90:f9:42:dd:06:5d:61:44:92:0f:ad:f4:02:3f:7c:48:
         2f:6d:d3:22:4f:96:49:7b:63:86:89:5b:3e:eb:bc:53:64:ba:
         0d:8e:ec:e3:fc:d9:1d:a4:db:bf:32:90:96:f7:18:a4:2b:90:
         2f:4b:45:42:2d:d5:0f:0e:f5:f5:11:64:d7:0f:05:fe:50:9c:
         3a:af:33:83:e6:34:12:12:86:24:11:85:47:1d:62:96:ac:29:
         3b:1c:44:f8:da:8d:28:04:a4:f5:26:23:2e:ef:c9:b0:1e:f5:
         73:7b:74:b6:ff:57:1b:d4:95:94:b3:16:31:d2:c8:e5:87:2e:
         db:69:93:16:a8:f1:97:59:73:0c:6e:b0:bb:4d:ba:c2:b7:7f:
         fb:8b:3c:e3:0e:4e:a8:29:b9:94:1c:a5:53:33:84:e6:0e:a5:
         27:86:55:da:2c:46:ad:38:ad:1f:f0:a6:a3:d7:35:6b:15:cb:
         60:62:a9:7e:d9:69:6c:03:a2:60:e0:1c:5d:5a:97:73:08:30:
         a2:18:dd:d0:6f:78:e4:40:b7:b6:d1:34:9c:ae:03:0a:48:8d:
         eb:1a:ff:df:41:fd:12:0d:ca:c2:48:9f:a4:7a:2d:8e:56:0e:
         a2:99:d1:47
-----BEGIN CERTIFICATE-----
MIIDdzCCAl+gAwIBAgIQZGAZ0YFXEJoOxHvro2mWqDANBgkqhkiG9w0BAQsFADAW
MRQwEgYDVQQDDAt0ZWFtNDkxLW5ldDAeFw0yMTA5MTMwMzA0MTFaFw0yNDA4Mjgw
MzA0MTFaMBkxFzAVBgNVBAMMDnRlYW00OTEtc2VydmVyMIIBIjANBgkqhkiG9w0B
AQEFAAOCAQ8AMIIBCgKCAQEA1w73SrrWvoqZvsZqE2FQfw/z8cEzukE8vogDL59U
/PmWBSiET1P0wcvr85cWewbtKUA155IiZEYiP83cvz9CJ5JSmy7FOt6FkPMVIyBl
+HGQF9n7DN9ZZ1SdxjlafiJWck283j3YGVCkJBoUllr31dcOfoxGN9NRatgF3SUl
275c073h3r0QtszaKD4jBmPRKIEBPC4kyRNM8yCnDduPZPRRy5sYqC5Gn6SFBnPC
r81r6hG1XpRAD9qPc7rSZYSUjz0Y9yCLpDHOoN7Gk7mzkweeb5wfL1Ey/JcpNlM2
Wdgyrhs4bjCe7eQKPf0Ig0xZ7SnNhTTdNoAPMgJkLmr0KwIDAQABo4G9MIG6MAkG
A1UdEwQCMAAwHQYDVR0OBBYEFNwHEe9xLv3KyB49FlQ3FflKx/jDMFEGA1UdIwRK
MEiAFHCX1CyhI7s3z22EoYKlLCupm4NvoRqkGDAWMRQwEgYDVQQDDAt0ZWFtNDkx
LW5ldIIUBdGKANXeRucPh1k71qkoTt6gejIwEwYDVR0lBAwwCgYIKwYBBQUHAwEw
CwYDVR0PBAQDAgWgMBkGA1UdEQQSMBCCDnRlYW00OTEtc2VydmVyMA0GCSqGSIb3
DQEBCwUAA4IBAQAQE6YbFi4vod6FftPz5FLx5UmGsJD5Qt0GXWFEkg+t9AI/fEgv
bdMiT5ZJe2OGiVs+67xTZLoNjuzj/NkdpNu/MpCW9xikK5AvS0VCLdUPDvX1EWTX
DwX+UJw6rzOD5jQSEoYkEYVHHWKWrCk7HET42o0oBKT1JiMu78mwHvVze3S2/1cb
1JWUsxYx0sjlhy7baZMWqPGXWXMMbrC7TbrCt3/7izzjDk6oKbmUHKVTM4TmDqUn
hlXaLEatOK0f8Kaj1zVrFctgYql+2WlsA6Jg4BxdWpdzCDCiGN3Qb3jkQLe20TSc
rgMKSI3rGv/fQf0SDcrCSJ+kei2OVg6imdFH
-----END CERTIFICATE-----
