Certificate:
    Data:
        Version: 3 (0x2)
        Serial Number:
            7e:08:c6:6e:ea:ba:8c:e3:08:a2:dd:b9:07:f7:13:4b
        Signature Algorithm: sha256WithRSAEncryption
        Issuer: CN=team420-net
        Validity
            Not Before: Sep 13 02:30:22 2021 GMT
            Not After : Aug 28 02:30:22 2024 GMT
        Subject: CN=team420-client
        Subject Public Key Info:
            Public Key Algorithm: rsaEncryption
                RSA Public-Key: (2048 bit)
                Modulus:
                    00:d0:22:9d:68:b6:1d:11:04:f1:5f:77:5f:39:08:
                    6d:22:c3:96:74:15:77:e0:fd:46:4a:9e:fb:a9:5d:
                    0c:f4:51:07:ec:df:3e:dc:d0:af:fd:b4:48:96:f3:
                    25:c5:02:d4:5d:8a:98:6d:35:63:5a:c6:6a:fc:bb:
                    81:da:05:25:cd:d9:49:66:7b:a3:4b:38:04:c5:fc:
                    2d:b3:d2:9d:84:a4:3a:63:72:ca:ac:59:ea:12:ff:
                    41:ef:82:00:2d:3f:0b:fd:ca:1f:3e:a6:84:99:53:
                    17:ef:44:d0:65:ba:80:3a:ef:68:0f:1d:a8:1e:11:
                    19:6f:2d:18:f4:ee:56:0f:6f:87:21:09:99:ec:4d:
                    21:e1:f1:87:0e:f9:e3:47:b1:32:a1:c9:20:c2:5a:
                    c5:e2:dc:cd:63:2a:18:5b:1b:a6:2e:99:ed:d8:87:
                    de:cf:65:80:d6:bd:94:ad:af:45:8a:51:bc:2a:36:
                    f4:71:59:af:eb:6e:0f:09:ad:c6:22:d3:19:45:ff:
                    56:8c:06:44:2c:56:94:8a:f7:27:35:b7:82:a1:5f:
                    e7:80:4e:58:b3:80:46:18:89:65:4a:05:a4:db:78:
                    35:a0:be:f3:98:85:7b:24:99:ac:8b:d5:1a:b4:d6:
                    8b:c7:b7:6f:c0:b6:2f:50:f8:ec:75:27:09:8b:6b:
                    5c:c9
                Exponent: 65537 (0x10001)
        X509v3 extensions:
            X509v3 Basic Constraints: 
                CA:FALSE
            X509v3 Subject Key Identifier: 
                8A:3E:2D:D8:30:56:D4:F0:4D:C0:7C:A8:9E:03:1B:FA:15:77:6A:0A
            X509v3 Authority Key Identifier: 
                keyid:CE:67:96:EF:F6:4A:BF:21:C7:53:1F:51:39:BE:A9:7E:AF:89:75:5B
                DirName:/CN=team420-net
                serial:2E:48:17:94:01:26:B5:91:F2:FB:C7:B8:74:C1:25:E8:73:EE:CE:14

            X509v3 Extended Key Usage: 
                TLS Web Client Authentication
            X509v3 Key Usage: 
                Digital Signature
    Signature Algorithm: sha256WithRSAEncryption
         23:95:78:8d:e0:0f:a9:c6:62:81:2c:26:56:d5:ff:fd:a9:f0:
         b8:8c:a3:ba:42:f6:f7:20:f6:33:2d:e7:a3:cb:2a:16:ae:d6:
         37:6f:cc:f5:cb:f0:e4:4d:58:ff:6a:94:d2:bc:02:fc:ad:ba:
         63:1e:22:45:d1:9a:9b:59:74:a2:c1:37:07:bb:58:50:bd:98:
         26:3a:37:06:b5:c1:b4:66:73:51:c3:15:13:da:7c:a1:da:95:
         03:26:14:63:77:90:0e:d6:ff:ba:17:63:32:a2:8a:75:8a:23:
         bb:79:a6:34:8e:14:64:68:70:37:ee:35:f9:d5:92:ea:03:7b:
         75:30:74:3f:b8:27:b3:91:c1:19:b7:61:68:c0:64:a2:d1:99:
         3c:3c:d9:d6:08:6a:66:ea:4e:60:d3:b4:70:d7:61:56:33:a3:
         60:e9:79:85:5c:90:54:94:6a:96:9c:45:f0:36:63:55:cf:cb:
         bc:c0:74:9d:ca:63:37:e8:4e:ff:2f:25:ab:52:56:d4:5e:8a:
         20:27:63:10:63:e2:48:b9:5b:9f:62:d0:42:d8:d4:29:7d:6c:
         68:9a:a6:3f:33:95:cc:80:ea:3c:bf:39:4b:25:9f:75:2a:da:
         4c:c1:bc:28:87:11:06:96:8a:1c:10:20:d3:13:84:55:3f:f1:
         a4:6f:ba:5e
-----BEGIN CERTIFICATE-----
MIIDXDCCAkSgAwIBAgIQfgjGbuq6jOMIot25B/cTSzANBgkqhkiG9w0BAQsFADAW
MRQwEgYDVQQDDAt0ZWFtNDIwLW5ldDAeFw0yMTA5MTMwMjMwMjJaFw0yNDA4Mjgw
MjMwMjJaMBkxFzAVBgNVBAMMDnRlYW00MjAtY2xpZW50MIIBIjANBgkqhkiG9w0B
AQEFAAOCAQ8AMIIBCgKCAQEA0CKdaLYdEQTxX3dfOQhtIsOWdBV34P1GSp77qV0M
9FEH7N8+3NCv/bRIlvMlxQLUXYqYbTVjWsZq/LuB2gUlzdlJZnujSzgExfwts9Kd
hKQ6Y3LKrFnqEv9B74IALT8L/cofPqaEmVMX70TQZbqAOu9oDx2oHhEZby0Y9O5W
D2+HIQmZ7E0h4fGHDvnjR7EyockgwlrF4tzNYyoYWxumLpnt2Ifez2WA1r2Ura9F
ilG8Kjb0cVmv624PCa3GItMZRf9WjAZELFaUivcnNbeCoV/ngE5Ys4BGGIllSgWk
23g1oL7zmIV7JJmsi9UatNaLx7dvwLYvUPjsdScJi2tcyQIDAQABo4GiMIGfMAkG
A1UdEwQCMAAwHQYDVR0OBBYEFIo+LdgwVtTwTcB8qJ4DG/oVd2oKMFEGA1UdIwRK
MEiAFM5nlu/2Sr8hx1MfUTm+qX6viXVboRqkGDAWMRQwEgYDVQQDDAt0ZWFtNDIw
LW5ldIIULkgXlAEmtZHy+8e4dMEl6HPuzhQwEwYDVR0lBAwwCgYIKwYBBQUHAwIw
CwYDVR0PBAQDAgeAMA0GCSqGSIb3DQEBCwUAA4IBAQAjlXiN4A+pxmKBLCZW1f/9
qfC4jKO6Qvb3IPYzLeejyyoWrtY3b8z1y/DkTVj/apTSvAL8rbpjHiJF0ZqbWXSi
wTcHu1hQvZgmOjcGtcG0ZnNRwxUT2nyh2pUDJhRjd5AO1v+6F2Myoop1iiO7eaY0
jhRkaHA37jX51ZLqA3t1MHQ/uCezkcEZt2FowGSi0Zk8PNnWCGpm6k5g07Rw12FW
M6Ng6XmFXJBUlGqWnEXwNmNVz8u8wHSdymM36E7/LyWrUlbUXoogJ2MQY+JIuVuf
YtBC2NQpfWxomqY/M5XMgOo8vzlLJZ91KtpMwbwohxEGloocECDTE4RVP/Gkb7pe
-----END CERTIFICATE-----
