Certificate:
    Data:
        Version: 3 (0x2)
        Serial Number:
            1f:97:d6:a5:75:9f:2a:b9:d9:b5:6d:00:38:b0:5e:6f
        Signature Algorithm: sha256WithRSAEncryption
        Issuer: CN=team420-net
        Validity
            Not Before: Sep 13 02:30:22 2021 GMT
            Not After : Aug 28 02:30:22 2024 GMT
        Subject: CN=team420-server
        Subject Public Key Info:
            Public Key Algorithm: rsaEncryption
                RSA Public-Key: (2048 bit)
                Modulus:
                    00:bf:57:38:b2:4f:eb:57:36:7a:76:7b:02:c4:53:
                    85:d9:21:83:de:b4:fb:ff:44:0a:15:37:a9:a2:01:
                    24:20:26:38:ba:67:4a:68:23:1d:89:27:b5:2c:78:
                    e6:27:80:34:9c:bd:a8:be:a0:e8:45:c1:98:1b:0a:
                    39:50:e3:73:4c:39:46:9c:94:74:74:ec:d7:37:ee:
                    e0:97:73:e4:80:0e:cc:ec:64:17:15:d6:bc:db:84:
                    fd:e0:58:da:0f:4b:07:2d:53:fd:0a:af:32:2f:d4:
                    78:b4:d4:b9:cc:c6:48:4a:08:32:96:33:e1:fe:f6:
                    c0:d1:85:67:e0:1e:86:51:6f:a0:8e:29:2c:b6:f6:
                    5f:98:44:e9:4c:c2:64:56:29:89:a3:18:1f:89:4a:
                    da:6f:06:4d:bd:01:8b:ba:99:12:30:b7:f2:d2:d8:
                    d6:ae:71:5a:61:32:ae:ec:22:93:ab:cd:cc:8d:52:
                    b4:fa:41:db:7b:73:bd:f3:8c:41:c5:6b:4c:4e:f8:
                    de:dc:8b:0b:36:b4:d6:cb:da:b2:98:ba:16:f0:d6:
                    bf:51:90:58:87:b2:fc:36:26:3b:c0:dd:f0:15:44:
                    c8:f1:08:79:5b:b1:60:50:85:26:53:0a:2a:c1:11:
                    fb:84:a0:cf:7e:2c:f9:49:db:48:ae:6e:cd:b4:8a:
                    4f:ed
                Exponent: 65537 (0x10001)
        X509v3 extensions:
            X509v3 Basic Constraints: 
                CA:FALSE
            X509v3 Subject Key Identifier: 
                E8:6F:67:8A:71:B0:9D:FA:0D:60:23:CE:B6:24:A4:97:3C:9B:37:B5
            X509v3 Authority Key Identifier: 
                keyid:CE:67:96:EF:F6:4A:BF:21:C7:53:1F:51:39:BE:A9:7E:AF:89:75:5B
                DirName:/CN=team420-net
                serial:2E:48:17:94:01:26:B5:91:F2:FB:C7:B8:74:C1:25:E8:73:EE:CE:14

            X509v3 Extended Key Usage: 
                TLS Web Server Authentication
            X509v3 Key Usage: 
                Digital Signature, Key Encipherment
            X509v3 Subject Alternative Name: 
                DNS:team420-server
    Signature Algorithm: sha256WithRSAEncryption
         08:a8:da:c2:8e:0e:c4:0a:0b:32:1a:cc:a9:f6:00:de:56:5d:
         8e:92:e2:68:35:0e:1b:fc:96:73:c3:87:66:da:ee:d3:53:03:
         69:5b:4a:9a:92:d9:4c:1f:5c:f1:c6:53:ed:7f:93:58:a7:c5:
         db:19:dd:c9:ff:ea:cb:f9:89:95:dc:e2:b8:51:82:83:b5:2e:
         e1:d9:60:d6:a3:da:ce:de:6a:18:d4:83:db:1c:68:fa:72:b8:
         4b:28:89:9d:8b:64:8b:8b:cd:0e:d0:36:ed:ac:b1:8b:12:31:
         e1:63:91:54:c3:34:5e:01:35:f6:7c:5a:06:cc:9c:0d:0a:3d:
         13:43:82:7d:b1:58:cf:82:ec:f7:1e:fe:e5:69:ff:3b:5a:7a:
         50:cd:e4:40:4f:fa:ce:85:f1:f5:b8:12:a6:5c:ea:39:24:fc:
         db:a8:13:01:2d:ea:61:c4:b1:61:e0:11:f0:41:5d:bf:57:32:
         83:57:b1:48:e1:14:cf:a1:3a:d8:d5:d0:56:f5:ba:a6:aa:17:
         b9:b4:a1:59:cf:b6:6f:12:0a:7c:8b:ba:c1:f0:53:6a:2b:b4:
         a7:58:19:ee:9c:79:01:e8:ca:e3:bd:bd:0d:83:91:18:f6:8b:
         5d:0b:dd:eb:fb:c9:af:b5:a4:a0:2d:7e:52:6a:42:68:d4:9c:
         d8:7a:d6:8c
-----BEGIN CERTIFICATE-----
MIIDdzCCAl+gAwIBAgIQH5fWpXWfKrnZtW0AOLBebzANBgkqhkiG9w0BAQsFADAW
MRQwEgYDVQQDDAt0ZWFtNDIwLW5ldDAeFw0yMTA5MTMwMjMwMjJaFw0yNDA4Mjgw
MjMwMjJaMBkxFzAVBgNVBAMMDnRlYW00MjAtc2VydmVyMIIBIjANBgkqhkiG9w0B
AQEFAAOCAQ8AMIIBCgKCAQEAv1c4sk/rVzZ6dnsCxFOF2SGD3rT7/0QKFTepogEk
ICY4umdKaCMdiSe1LHjmJ4A0nL2ovqDoRcGYGwo5UONzTDlGnJR0dOzXN+7gl3Pk
gA7M7GQXFda824T94FjaD0sHLVP9Cq8yL9R4tNS5zMZISggyljPh/vbA0YVn4B6G
UW+gjikstvZfmETpTMJkVimJoxgfiUrabwZNvQGLupkSMLfy0tjWrnFaYTKu7CKT
q83MjVK0+kHbe3O984xBxWtMTvje3IsLNrTWy9qymLoW8Na/UZBYh7L8NiY7wN3w
FUTI8Qh5W7FgUIUmUwoqwRH7hKDPfiz5SdtIrm7NtIpP7QIDAQABo4G9MIG6MAkG
A1UdEwQCMAAwHQYDVR0OBBYEFOhvZ4pxsJ36DWAjzrYkpJc8mze1MFEGA1UdIwRK
MEiAFM5nlu/2Sr8hx1MfUTm+qX6viXVboRqkGDAWMRQwEgYDVQQDDAt0ZWFtNDIw
LW5ldIIULkgXlAEmtZHy+8e4dMEl6HPuzhQwEwYDVR0lBAwwCgYIKwYBBQUHAwEw
CwYDVR0PBAQDAgWgMBkGA1UdEQQSMBCCDnRlYW00MjAtc2VydmVyMA0GCSqGSIb3
DQEBCwUAA4IBAQAIqNrCjg7ECgsyGsyp9gDeVl2OkuJoNQ4b/JZzw4dm2u7TUwNp
W0qaktlMH1zxxlPtf5NYp8XbGd3J/+rL+YmV3OK4UYKDtS7h2WDWo9rO3moY1IPb
HGj6crhLKImdi2SLi80O0DbtrLGLEjHhY5FUwzReATX2fFoGzJwNCj0TQ4J9sVjP
guz3Hv7laf87WnpQzeRAT/rOhfH1uBKmXOo5JPzbqBMBLephxLFh4BHwQV2/VzKD
V7FI4RTPoTrY1dBW9bqmqhe5tKFZz7ZvEgp8i7rB8FNqK7SnWBnunHkB6Mrjvb0N
g5EY9otdC93r+8mvtaSgLX5SakJo1JzYetaM
-----END CERTIFICATE-----
