Certificate:
    Data:
        Version: 3 (0x2)
        Serial Number:
            14:94:f5:4a:87:b4:f5:2d:75:71:b0:b8:be:cd:e7:d9
        Signature Algorithm: sha256WithRSAEncryption
        Issuer: CN=team368-net
        Validity
            Not Before: Sep 13 02:03:18 2021 GMT
            Not After : Aug 28 02:03:18 2024 GMT
        Subject: CN=team368-client
        Subject Public Key Info:
            Public Key Algorithm: rsaEncryption
                RSA Public-Key: (2048 bit)
                Modulus:
                    00:c4:21:73:a0:01:3e:4d:2e:5a:16:d7:34:e0:11:
                    28:e7:4b:58:a3:6c:cf:36:ee:68:4f:f9:3a:f0:71:
                    25:28:ca:12:5b:8b:4c:df:53:c7:c6:75:2b:d5:9d:
                    c5:65:f5:da:3f:19:e3:1c:3b:d5:bf:d6:af:2f:ec:
                    67:c0:80:d6:aa:dc:69:01:a5:fd:51:96:f7:11:8d:
                    19:df:f2:84:ef:ec:fb:4c:94:91:ad:f4:55:8c:e1:
                    3b:b3:11:f7:a7:bc:d8:9c:65:22:e8:91:66:ef:4b:
                    b7:7d:d3:85:39:df:3b:83:dc:53:7d:51:14:a8:22:
                    07:3b:d9:55:a5:50:0d:fe:f2:24:d0:05:25:64:77:
                    69:da:1d:28:5b:e8:c0:1b:84:55:33:85:10:9b:92:
                    37:ac:41:d5:50:c0:06:1c:57:f2:d3:8d:8c:6a:16:
                    98:81:45:90:e8:fa:1d:0c:4a:63:15:05:7f:94:df:
                    f0:bb:b7:fb:47:41:64:77:e6:f8:69:89:1f:64:0d:
                    df:32:eb:8e:ce:b4:fd:e1:ea:7b:09:3d:81:25:75:
                    a5:7c:d2:19:d3:35:d0:f6:88:f6:92:07:ec:f5:9f:
                    22:dc:a4:f8:70:61:f8:5d:99:17:f7:84:60:f8:bc:
                    bc:bf:07:8f:58:4c:34:a3:98:47:63:c5:ed:48:ab:
                    23:0f
                Exponent: 65537 (0x10001)
        X509v3 extensions:
            X509v3 Basic Constraints: 
                CA:FALSE
            X509v3 Subject Key Identifier: 
                2C:A5:91:15:90:7B:1E:A5:95:F1:41:C9:96:1F:17:81:BF:C6:CF:2F
            X509v3 Authority Key Identifier: 
                keyid:23:58:BF:68:86:7A:EC:A9:18:9E:E9:58:3B:37:C7:00:30:85:0A:A9
                DirName:/CN=team368-net
                serial:43:8C:9A:4D:D5:05:3D:72:78:81:02:15:D9:62:76:17:90:FE:DB:DD

            X509v3 Extended Key Usage: 
                TLS Web Client Authentication
            X509v3 Key Usage: 
                Digital Signature
    Signature Algorithm: sha256WithRSAEncryption
         18:d0:af:c4:b9:6b:df:53:0c:03:da:4e:d9:83:a5:a9:6e:fc:
         f2:26:96:26:d0:51:d2:3a:cd:40:61:11:2f:78:45:93:d0:91:
         9e:d2:20:d7:27:10:ba:a0:a4:93:82:ec:fa:97:7b:a6:1f:46:
         d6:df:82:58:34:7f:a5:06:1b:4b:19:ea:51:aa:4c:1b:b9:d6:
         68:8c:c7:e9:86:19:fc:32:a0:6e:11:7b:5d:45:21:5f:c0:90:
         e6:25:ec:0b:e2:1b:92:af:b1:bd:be:b1:24:f5:61:2d:16:45:
         f6:9c:2e:a2:d2:7d:5b:1f:d5:96:1d:9e:d8:b9:11:92:e6:3c:
         a7:b4:83:38:7c:1a:f7:05:67:d7:5a:8d:e6:38:d3:ac:4f:9f:
         29:61:b1:fa:7d:50:63:78:31:81:78:48:8c:ac:e5:ff:0c:2c:
         f2:a3:37:a0:95:7b:ba:24:93:4e:1b:61:09:10:1d:08:0b:d6:
         ea:00:21:da:45:fe:34:65:f3:5f:53:f9:07:55:4f:04:fe:6f:
         81:fa:4a:c0:4c:d9:ea:59:ad:5c:07:b5:86:49:f9:05:51:b8:
         a4:b9:c7:ee:29:83:75:21:41:98:1e:31:93:5e:ce:8a:3f:df:
         bf:51:12:95:2d:54:38:01:81:c1:8b:db:60:50:16:57:37:fa:
         f7:3a:c8:23
-----BEGIN CERTIFICATE-----
MIIDXDCCAkSgAwIBAgIQFJT1Soe09S11cbC4vs3n2TANBgkqhkiG9w0BAQsFADAW
MRQwEgYDVQQDDAt0ZWFtMzY4LW5ldDAeFw0yMTA5MTMwMjAzMThaFw0yNDA4Mjgw
MjAzMThaMBkxFzAVBgNVBAMMDnRlYW0zNjgtY2xpZW50MIIBIjANBgkqhkiG9w0B
AQEFAAOCAQ8AMIIBCgKCAQEAxCFzoAE+TS5aFtc04BEo50tYo2zPNu5oT/k68HEl
KMoSW4tM31PHxnUr1Z3FZfXaPxnjHDvVv9avL+xnwIDWqtxpAaX9UZb3EY0Z3/KE
7+z7TJSRrfRVjOE7sxH3p7zYnGUi6JFm70u3fdOFOd87g9xTfVEUqCIHO9lVpVAN
/vIk0AUlZHdp2h0oW+jAG4RVM4UQm5I3rEHVUMAGHFfy042MahaYgUWQ6PodDEpj
FQV/lN/wu7f7R0Fkd+b4aYkfZA3fMuuOzrT94ep7CT2BJXWlfNIZ0zXQ9oj2kgfs
9Z8i3KT4cGH4XZkX94Rg+Ly8vwePWEw0o5hHY8XtSKsjDwIDAQABo4GiMIGfMAkG
A1UdEwQCMAAwHQYDVR0OBBYEFCylkRWQex6llfFByZYfF4G/xs8vMFEGA1UdIwRK
MEiAFCNYv2iGeuypGJ7pWDs3xwAwhQqpoRqkGDAWMRQwEgYDVQQDDAt0ZWFtMzY4
LW5ldIIUQ4yaTdUFPXJ4gQIV2WJ2F5D+290wEwYDVR0lBAwwCgYIKwYBBQUHAwIw
CwYDVR0PBAQDAgeAMA0GCSqGSIb3DQEBCwUAA4IBAQAY0K/EuWvfUwwD2k7Zg6Wp
bvzyJpYm0FHSOs1AYREveEWT0JGe0iDXJxC6oKSTguz6l3umH0bW34JYNH+lBhtL
GepRqkwbudZojMfphhn8MqBuEXtdRSFfwJDmJewL4huSr7G9vrEk9WEtFkX2nC6i
0n1bH9WWHZ7YuRGS5jyntIM4fBr3BWfXWo3mONOsT58pYbH6fVBjeDGBeEiMrOX/
DCzyozeglXu6JJNOG2EJEB0IC9bqACHaRf40ZfNfU/kHVU8E/m+B+krATNnqWa1c
B7WGSfkFUbikucfuKYN1IUGYHjGTXs6KP9+/URKVLVQ4AYHBi9tgUBZXN/r3Osgj
-----END CERTIFICATE-----
