Certificate:
    Data:
        Version: 3 (0x2)
        Serial Number:
            32:30:86:7e:e0:e4:5a:45:7d:c4:71:9a:ff:7c:74:b1
        Signature Algorithm: sha256WithRSAEncryption
        Issuer: CN=team273-net
        Validity
            Not Before: Sep 13 01:15:38 2021 GMT
            Not After : Aug 28 01:15:38 2024 GMT
        Subject: CN=team273-client
        Subject Public Key Info:
            Public Key Algorithm: rsaEncryption
                RSA Public-Key: (2048 bit)
                Modulus:
                    00:b0:4b:37:37:f2:5e:36:e2:d4:75:c1:20:49:7c:
                    45:40:c7:c8:9e:63:7a:63:99:24:92:09:39:3c:49:
                    28:bb:b0:da:57:ae:45:c5:50:9e:cc:73:aa:57:a7:
                    c9:bf:67:8c:1e:97:1f:a4:92:8c:8e:f4:c5:d0:2c:
                    c0:58:96:b4:7d:18:2d:12:d8:ef:3d:56:56:e6:3c:
                    83:aa:92:ae:56:8c:1b:b4:1e:0b:8c:c5:fd:a8:6a:
                    ed:59:c6:5d:d7:87:08:93:2d:fd:e0:1d:3d:47:c0:
                    09:6c:f1:6f:89:39:27:01:e0:16:be:50:8e:26:74:
                    f8:66:d3:50:f4:5e:ea:6a:cd:59:7a:13:17:4b:9e:
                    dd:2d:fa:63:9b:fd:f1:ba:de:ed:d3:9b:2a:ea:a2:
                    e6:d0:82:9c:0f:3e:73:81:36:e7:18:6d:b1:b6:ac:
                    9b:5f:b5:cb:49:48:f0:77:2a:2f:56:33:03:37:1e:
                    00:2a:e8:f2:d0:df:85:52:b4:60:cd:5b:23:f7:66:
                    87:8b:f5:58:f9:23:25:3f:f5:5f:fd:e7:38:18:17:
                    e8:f2:da:2e:81:9b:03:5b:54:f9:95:54:e9:93:81:
                    b8:0a:6c:6f:45:ec:e2:ba:67:b4:50:27:5d:07:04:
                    1e:fb:0c:46:87:7e:e0:27:1b:28:11:07:13:90:0f:
                    e2:f3
                Exponent: 65537 (0x10001)
        X509v3 extensions:
            X509v3 Basic Constraints: 
                CA:FALSE
            X509v3 Subject Key Identifier: 
                1F:7B:46:4D:9C:BC:42:AD:4D:62:25:9C:7F:86:B2:90:6E:20:5A:5C
            X509v3 Authority Key Identifier: 
                keyid:52:8F:A1:BF:70:BD:A6:56:6A:9F:6C:7F:07:0A:86:F9:16:DA:BD:53
                DirName:/CN=team273-net
                serial:6B:11:EB:BF:E2:FA:06:24:0D:20:02:BD:4B:6C:86:AF:69:6C:7A:5F

            X509v3 Extended Key Usage: 
                TLS Web Client Authentication
            X509v3 Key Usage: 
                Digital Signature
    Signature Algorithm: sha256WithRSAEncryption
         86:70:e1:a5:d6:d4:38:f6:68:7f:cc:2f:4e:31:22:29:31:49:
         a5:73:1f:d1:5b:9f:cb:bd:ea:7e:f2:d7:4b:28:88:f3:e4:86:
         df:5e:25:14:4c:99:02:ca:b4:f8:e0:bb:db:6a:f8:75:56:7d:
         c3:12:5e:a4:a8:60:75:65:5a:f0:7e:57:3d:bc:cc:5b:74:a3:
         53:8c:b8:aa:73:8b:2f:c4:37:76:3e:66:59:29:40:1d:ad:95:
         e3:7e:2a:0a:10:55:08:ae:a6:04:f3:99:16:5d:d5:7f:6a:0a:
         67:28:fd:e3:76:46:47:ea:2a:3c:49:e5:77:cb:1a:e5:85:cd:
         02:1a:62:dc:2d:46:fb:78:68:c8:6f:ff:71:70:3b:3d:6b:24:
         81:02:b2:d0:07:55:26:7d:0c:68:6c:16:0e:8e:53:a8:68:7d:
         b8:43:a0:a8:50:89:93:fc:7e:83:71:60:58:6a:f2:06:a5:84:
         43:f4:f1:93:64:c8:eb:44:9f:5f:54:d0:a9:72:67:90:2e:6c:
         6c:eb:13:26:6a:41:45:a8:45:ac:59:f1:37:db:11:63:8b:61:
         16:e0:48:92:18:8c:6a:00:51:e1:43:95:99:32:d4:48:b8:b1:
         57:0c:69:0e:5d:df:17:a5:e4:3b:28:51:14:1b:27:ee:cc:b0:
         66:ba:9a:1b
-----BEGIN CERTIFICATE-----
MIIDXDCCAkSgAwIBAgIQMjCGfuDkWkV9xHGa/3x0sTANBgkqhkiG9w0BAQsFADAW
MRQwEgYDVQQDDAt0ZWFtMjczLW5ldDAeFw0yMTA5MTMwMTE1MzhaFw0yNDA4Mjgw
MTE1MzhaMBkxFzAVBgNVBAMMDnRlYW0yNzMtY2xpZW50MIIBIjANBgkqhkiG9w0B
AQEFAAOCAQ8AMIIBCgKCAQEAsEs3N/JeNuLUdcEgSXxFQMfInmN6Y5kkkgk5PEko
u7DaV65FxVCezHOqV6fJv2eMHpcfpJKMjvTF0CzAWJa0fRgtEtjvPVZW5jyDqpKu
VowbtB4LjMX9qGrtWcZd14cIky394B09R8AJbPFviTknAeAWvlCOJnT4ZtNQ9F7q
as1ZehMXS57dLfpjm/3xut7t05sq6qLm0IKcDz5zgTbnGG2xtqybX7XLSUjwdyov
VjMDNx4AKujy0N+FUrRgzVsj92aHi/VY+SMlP/Vf/ec4GBfo8tougZsDW1T5lVTp
k4G4CmxvReziume0UCddBwQe+wxGh37gJxsoEQcTkA/i8wIDAQABo4GiMIGfMAkG
A1UdEwQCMAAwHQYDVR0OBBYEFB97Rk2cvEKtTWIlnH+GspBuIFpcMFEGA1UdIwRK
MEiAFFKPob9wvaZWap9sfwcKhvkW2r1ToRqkGDAWMRQwEgYDVQQDDAt0ZWFtMjcz
LW5ldIIUaxHrv+L6BiQNIAK9S2yGr2lsel8wEwYDVR0lBAwwCgYIKwYBBQUHAwIw
CwYDVR0PBAQDAgeAMA0GCSqGSIb3DQEBCwUAA4IBAQCGcOGl1tQ49mh/zC9OMSIp
MUmlcx/RW5/Lvep+8tdLKIjz5IbfXiUUTJkCyrT44Lvbavh1Vn3DEl6kqGB1ZVrw
flc9vMxbdKNTjLiqc4svxDd2PmZZKUAdrZXjfioKEFUIrqYE85kWXdV/agpnKP3j
dkZH6io8SeV3yxrlhc0CGmLcLUb7eGjIb/9xcDs9aySBArLQB1UmfQxobBYOjlOo
aH24Q6CoUImT/H6DcWBYavIGpYRD9PGTZMjrRJ9fVNCpcmeQLmxs6xMmakFFqEWs
WfE32xFji2EW4EiSGIxqAFHhQ5WZMtRIuLFXDGkOXd8XpeQ7KFEUGyfuzLBmupob
-----END CERTIFICATE-----
