Certificate:
    Data:
        Version: 3 (0x2)
        Serial Number:
            a8:12:92:18:76:43:37:bf:2d:04:8f:ca:96:56:99:0d
        Signature Algorithm: sha256WithRSAEncryption
        Issuer: CN=team422-net
        Validity
            Not Before: Sep 13 02:30:38 2021 GMT
            Not After : Aug 28 02:30:38 2024 GMT
        Subject: CN=team422-server
        Subject Public Key Info:
            Public Key Algorithm: rsaEncryption
                RSA Public-Key: (2048 bit)
                Modulus:
                    00:ad:da:62:f6:68:b8:0e:a0:d6:b7:84:4b:e8:f4:
                    41:7e:0e:72:b5:9b:9e:e8:9e:83:54:d5:9f:e4:d6:
                    6f:5a:c2:81:a4:36:b9:38:33:e8:11:5c:1d:af:8e:
                    e4:5c:10:10:ea:59:cc:fd:f4:51:3f:9a:87:76:0b:
                    a4:1c:97:07:f0:04:23:06:a9:7f:6c:ba:19:7d:85:
                    32:15:49:fb:65:af:85:5f:64:f9:4d:fe:02:91:c2:
                    60:f5:f0:03:0e:77:23:0b:1f:47:01:9a:86:3e:3d:
                    d2:7d:2f:b5:bf:fc:49:ec:7d:21:73:15:88:59:c0:
                    7b:04:c2:2b:c4:cc:fd:5c:c3:bf:e7:db:1d:b9:0d:
                    b4:a4:90:75:85:5d:67:3c:a0:2d:20:9e:16:ad:fa:
                    3c:a9:94:a8:0b:b4:b2:0a:0a:b5:08:18:b0:bc:bf:
                    05:37:eb:ed:fb:82:74:96:c5:37:8d:10:82:f0:b9:
                    a0:e8:f9:cc:dc:61:1e:2d:51:32:11:8a:b7:21:3a:
                    9c:82:cd:e5:45:36:ca:12:38:d2:db:18:6e:91:cb:
                    59:7e:b4:e1:78:fe:7a:a2:5a:43:39:96:4d:2c:28:
                    0d:c6:ef:1e:ac:65:13:66:50:f6:63:ce:13:00:5b:
                    47:c0:1f:8d:9f:db:ee:ca:aa:08:a0:c2:c3:da:30:
                    a3:39
                Exponent: 65537 (0x10001)
        X509v3 extensions:
            X509v3 Basic Constraints: 
                CA:FALSE
            X509v3 Subject Key Identifier: 
                81:82:51:FD:10:7B:10:55:57:2F:21:57:D5:99:50:08:50:D9:7D:4D
            X509v3 Authority Key Identifier: 
                keyid:9B:D4:A2:07:42:B7:33:81:E6:06:89:E6:9F:1B:F0:7A:00:29:C6:78
                DirName:/CN=team422-net
                serial:61:EF:A7:79:E4:DF:2A:3F:41:95:4D:72:74:1D:9B:CD:FB:0D:B4:4C

            X509v3 Extended Key Usage: 
                TLS Web Server Authentication
            X509v3 Key Usage: 
                Digital Signature, Key Encipherment
            X509v3 Subject Alternative Name: 
                DNS:team422-server
    Signature Algorithm: sha256WithRSAEncryption
         18:41:75:d6:17:00:fe:d0:65:11:31:d5:60:17:5a:dd:7e:eb:
         3b:3e:29:2a:27:f0:dc:c8:f3:9f:ca:5b:ba:e5:2f:80:41:ae:
         99:19:2c:49:52:89:04:05:99:bb:cb:86:23:2a:b4:64:62:a6:
         32:05:9c:64:f3:f8:6f:ea:c0:50:b9:27:09:45:db:13:5d:b2:
         37:db:7c:82:9b:61:00:2d:17:c8:8e:71:8f:dc:4c:99:ff:5b:
         da:27:dd:a5:00:7b:20:6b:d9:1c:e8:1a:05:9c:fc:a9:6e:e0:
         28:9f:8f:1e:d2:62:f8:41:62:58:d6:71:0e:eb:9a:24:47:20:
         bf:ec:ec:39:65:42:f7:9b:94:d8:ad:79:77:15:f3:e0:73:29:
         c6:af:0e:ff:ae:f7:de:0d:4d:34:72:13:95:be:b6:7b:6b:7b:
         87:87:ed:62:7d:0f:fd:87:d4:09:1e:b7:ff:4b:21:3e:82:67:
         b5:e3:a7:01:67:f1:e7:95:b7:b9:da:0e:68:5d:f2:7f:10:d6:
         c7:8a:ca:e6:c6:f2:b5:af:10:cf:10:12:6d:bc:c2:1d:2a:bd:
         e4:5c:aa:c1:f4:55:4e:60:5b:01:f1:9d:1e:6e:1e:e3:7e:29:
         c8:3a:52:4e:b7:3d:48:24:c7:67:53:0a:80:e9:a6:3b:e8:e2:
         3b:29:24:af
-----BEGIN CERTIFICATE-----
MIIDeDCCAmCgAwIBAgIRAKgSkhh2Qze/LQSPypZWmQ0wDQYJKoZIhvcNAQELBQAw
FjEUMBIGA1UEAwwLdGVhbTQyMi1uZXQwHhcNMjEwOTEzMDIzMDM4WhcNMjQwODI4
MDIzMDM4WjAZMRcwFQYDVQQDDA50ZWFtNDIyLXNlcnZlcjCCASIwDQYJKoZIhvcN
AQEBBQADggEPADCCAQoCggEBAK3aYvZouA6g1reES+j0QX4OcrWbnuieg1TVn+TW
b1rCgaQ2uTgz6BFcHa+O5FwQEOpZzP30UT+ah3YLpByXB/AEIwapf2y6GX2FMhVJ
+2WvhV9k+U3+ApHCYPXwAw53IwsfRwGahj490n0vtb/8Sex9IXMViFnAewTCK8TM
/VzDv+fbHbkNtKSQdYVdZzygLSCeFq36PKmUqAu0sgoKtQgYsLy/BTfr7fuCdJbF
N40QgvC5oOj5zNxhHi1RMhGKtyE6nILN5UU2yhI40tsYbpHLWX604Xj+eqJaQzmW
TSwoDcbvHqxlE2ZQ9mPOEwBbR8AfjZ/b7sqqCKDCw9owozkCAwEAAaOBvTCBujAJ
BgNVHRMEAjAAMB0GA1UdDgQWBBSBglH9EHsQVVcvIVfVmVAIUNl9TTBRBgNVHSME
SjBIgBSb1KIHQrczgeYGieafG/B6ACnGeKEapBgwFjEUMBIGA1UEAwwLdGVhbTQy
Mi1uZXSCFGHvp3nk3yo/QZVNcnQdm837DbRMMBMGA1UdJQQMMAoGCCsGAQUFBwMB
MAsGA1UdDwQEAwIFoDAZBgNVHREEEjAQgg50ZWFtNDIyLXNlcnZlcjANBgkqhkiG
9w0BAQsFAAOCAQEAGEF11hcA/tBlETHVYBda3X7rOz4pKifw3Mjzn8pbuuUvgEGu
mRksSVKJBAWZu8uGIyq0ZGKmMgWcZPP4b+rAULknCUXbE12yN9t8gpthAC0XyI5x
j9xMmf9b2ifdpQB7IGvZHOgaBZz8qW7gKJ+PHtJi+EFiWNZxDuuaJEcgv+zsOWVC
95uU2K15dxXz4HMpxq8O/6733g1NNHITlb62e2t7h4ftYn0P/YfUCR63/0shPoJn
teOnAWfx55W3udoOaF3yfxDWx4rK5sbyta8QzxASbbzCHSq95FyqwfRVTmBbAfGd
Hm4e434pyDpSTrc9SCTHZ1MKgOmmO+jiOykkrw==
-----END CERTIFICATE-----
