Certificate:
    Data:
        Version: 3 (0x2)
        Serial Number:
            f3:b6:fb:aa:d3:a9:15:82:b9:b2:98:48:fc:8a:8e:99
        Signature Algorithm: sha256WithRSAEncryption
        Issuer: CN=team178-net
        Validity
            Not Before: Sep 13 00:20:44 2021 GMT
            Not After : Aug 28 00:20:44 2024 GMT
        Subject: CN=team178-client
        Subject Public Key Info:
            Public Key Algorithm: rsaEncryption
                RSA Public-Key: (2048 bit)
                Modulus:
                    00:b4:99:c8:e5:05:ef:4d:33:7e:71:31:2f:79:ba:
                    81:de:c3:56:9f:9c:a2:0c:28:89:7d:11:07:cb:2d:
                    ed:59:68:3d:4a:97:e3:3e:14:a4:c2:07:c3:9c:09:
                    2e:4e:13:f0:db:02:be:89:bb:22:4d:5e:e0:2f:3f:
                    dd:ad:74:c5:34:35:60:75:cf:96:66:d2:45:59:09:
                    95:f3:23:ab:a4:36:4b:ef:57:da:a2:f2:91:6b:00:
                    7a:4f:71:31:91:b5:68:fc:73:b3:2d:85:5a:de:c1:
                    b7:c8:04:31:11:5b:e8:05:e9:69:23:a4:39:74:8d:
                    aa:a9:8e:5f:61:13:c1:b4:17:5d:df:e8:a4:76:ee:
                    2b:da:13:54:3b:d8:1e:df:bd:1f:0c:fd:e6:df:6c:
                    86:67:56:31:61:e6:9c:bc:60:70:b6:89:d2:ef:84:
                    3e:55:df:08:a9:ca:96:fd:75:8f:7c:2e:10:99:68:
                    cf:42:d4:ba:f3:2e:27:99:66:09:ba:cf:8a:b8:cc:
                    82:29:08:5e:89:c9:43:c9:1c:f4:6e:e4:e7:6e:17:
                    af:ae:33:98:ae:2c:b7:5b:ad:d6:3f:df:6e:3b:dd:
                    65:88:9c:58:a5:30:db:00:36:dd:e8:a1:fa:15:8f:
                    62:97:6e:fb:82:a3:64:72:d5:14:35:ac:5d:b1:3e:
                    e6:8d
                Exponent: 65537 (0x10001)
        X509v3 extensions:
            X509v3 Basic Constraints: 
                CA:FALSE
            X509v3 Subject Key Identifier: 
                34:39:5E:FC:56:29:11:8B:3D:DB:2B:03:44:21:46:D2:14:98:FA:E8
            X509v3 Authority Key Identifier: 
                keyid:DB:1E:A6:88:9F:3A:A8:29:64:42:42:54:1A:3B:2A:9E:E1:2C:DC:16
                DirName:/CN=team178-net
                serial:2D:45:4A:02:D5:50:DC:E6:CD:FB:EF:15:0A:BE:18:4B:6C:33:13:1C

            X509v3 Extended Key Usage: 
                TLS Web Client Authentication
            X509v3 Key Usage: 
                Digital Signature
    Signature Algorithm: sha256WithRSAEncryption
         c9:03:e5:c6:83:a6:a3:39:88:c5:82:45:4e:d7:85:9f:86:c2:
         f7:77:fc:57:b6:d3:79:f2:3e:0d:fc:18:ab:99:2c:03:48:b2:
         5b:ff:50:d7:53:a7:22:a9:aa:41:cc:65:c0:9a:50:cd:19:f9:
         06:f8:b6:1f:50:f9:63:73:f1:26:6f:54:51:34:3e:b8:31:f3:
         f7:6e:71:98:48:3f:70:bb:72:21:dd:d1:b5:8c:48:12:ac:96:
         c7:c7:55:94:29:fb:09:0a:f8:69:6d:32:66:da:77:e1:34:2a:
         b9:20:5f:f2:ef:fe:cd:d9:58:7b:99:93:25:8c:48:cf:05:88:
         6d:6c:d0:98:ec:19:9b:7f:4c:e8:19:1e:3d:0a:c9:b4:8d:f6:
         d8:6b:4e:d0:a1:93:e6:68:a1:b8:73:20:45:63:f7:77:3f:5e:
         0f:6c:97:ba:7a:6d:22:46:48:04:cb:4b:aa:01:0e:00:60:ae:
         81:58:1d:5b:d5:54:d4:2c:32:c6:29:75:02:b9:6d:c7:57:87:
         8f:f3:d3:cc:0e:f4:94:86:e4:3e:33:c9:24:f5:e2:38:38:92:
         e2:58:0c:f9:90:c8:7a:92:a6:0a:da:9f:63:d9:15:37:da:db:
         87:2b:b3:a4:fb:fe:24:0d:13:65:36:eb:71:6a:f6:f1:d6:b0:
         de:4a:f7:6a
-----BEGIN CERTIFICATE-----
MIIDXTCCAkWgAwIBAgIRAPO2+6rTqRWCubKYSPyKjpkwDQYJKoZIhvcNAQELBQAw
FjEUMBIGA1UEAwwLdGVhbTE3OC1uZXQwHhcNMjEwOTEzMDAyMDQ0WhcNMjQwODI4
MDAyMDQ0WjAZMRcwFQYDVQQDDA50ZWFtMTc4LWNsaWVudDCCASIwDQYJKoZIhvcN
AQEBBQADggEPADCCAQoCggEBALSZyOUF700zfnExL3m6gd7DVp+cogwoiX0RB8st
7VloPUqX4z4UpMIHw5wJLk4T8NsCvom7Ik1e4C8/3a10xTQ1YHXPlmbSRVkJlfMj
q6Q2S+9X2qLykWsAek9xMZG1aPxzsy2FWt7Bt8gEMRFb6AXpaSOkOXSNqqmOX2ET
wbQXXd/opHbuK9oTVDvYHt+9Hwz95t9shmdWMWHmnLxgcLaJ0u+EPlXfCKnKlv11
j3wuEJloz0LUuvMuJ5lmCbrPirjMgikIXonJQ8kc9G7k524Xr64zmK4st1ut1j/f
bjvdZYicWKUw2wA23eih+hWPYpdu+4KjZHLVFDWsXbE+5o0CAwEAAaOBojCBnzAJ
BgNVHRMEAjAAMB0GA1UdDgQWBBQ0OV78VikRiz3bKwNEIUbSFJj66DBRBgNVHSME
SjBIgBTbHqaInzqoKWRCQlQaOyqe4SzcFqEapBgwFjEUMBIGA1UEAwwLdGVhbTE3
OC1uZXSCFC1FSgLVUNzmzfvvFQq+GEtsMxMcMBMGA1UdJQQMMAoGCCsGAQUFBwMC
MAsGA1UdDwQEAwIHgDANBgkqhkiG9w0BAQsFAAOCAQEAyQPlxoOmozmIxYJFTteF
n4bC93f8V7bTefI+DfwYq5ksA0iyW/9Q11OnIqmqQcxlwJpQzRn5Bvi2H1D5Y3Px
Jm9UUTQ+uDHz925xmEg/cLtyId3RtYxIEqyWx8dVlCn7CQr4aW0yZtp34TQquSBf
8u/+zdlYe5mTJYxIzwWIbWzQmOwZm39M6BkePQrJtI322GtO0KGT5mihuHMgRWP3
dz9eD2yXunptIkZIBMtLqgEOAGCugVgdW9VU1Cwyxil1Arltx1eHj/PTzA70lIbk
PjPJJPXiODiS4lgM+ZDIepKmCtqfY9kVN9rbhyuzpPv+JA0TZTbrcWr28daw3kr3
ag==
-----END CERTIFICATE-----
