Certificate:
    Data:
        Version: 3 (0x2)
        Serial Number:
            14:eb:b7:bf:e4:fe:34:6d:2a:30:92:18:b6:5e:e6:25
        Signature Algorithm: sha256WithRSAEncryption
        Issuer: CN=team547-net
        Validity
            Not Before: Sep 13 03:29:46 2021 GMT
            Not After : Aug 28 03:29:46 2024 GMT
        Subject: CN=team547-client
        Subject Public Key Info:
            Public Key Algorithm: rsaEncryption
                RSA Public-Key: (2048 bit)
                Modulus:
                    00:bd:1e:59:2c:63:71:8a:8a:0d:6b:a3:f1:53:f7:
                    de:b1:32:65:a0:de:24:25:ed:50:7d:98:61:96:a9:
                    54:8a:a4:a3:b0:73:f0:0e:33:cf:2d:84:b1:67:93:
                    7b:86:23:a7:15:ff:49:30:3e:30:d5:b0:c7:bb:2c:
                    9d:27:85:a1:a9:9c:15:17:25:a9:e6:f3:a7:6c:3b:
                    96:a1:ee:a4:0a:c3:46:ac:f2:4d:50:86:a7:3e:ca:
                    2a:68:2c:04:16:6d:cf:a5:5c:69:3a:a6:28:ca:54:
                    de:ad:15:0c:03:c8:ac:a0:f0:1d:0b:ed:39:3c:59:
                    78:a8:8f:98:0f:20:7b:44:5e:fc:4c:6c:27:b1:f1:
                    c9:95:7f:83:07:1a:b9:9e:cb:91:b3:f6:dc:a9:9b:
                    c8:53:b8:cf:f9:35:9f:d7:10:65:51:7d:2b:ad:48:
                    8b:e2:cc:c1:84:b9:bf:30:1f:26:21:69:8c:22:bb:
                    41:b3:ca:b4:7a:60:ef:cd:5d:81:e5:c8:60:d6:47:
                    17:56:80:26:99:da:46:fe:c3:c3:af:fe:0a:08:7d:
                    a7:0e:e4:4f:cd:d0:82:a9:05:5f:e9:52:2d:36:97:
                    7e:0c:ab:8f:f4:d6:8f:4b:c3:44:ed:23:5f:52:b9:
                    ee:ff:34:9c:ec:88:df:6a:4e:b6:5b:48:cb:1a:f3:
                    cb:9b
                Exponent: 65537 (0x10001)
        X509v3 extensions:
            X509v3 Basic Constraints: 
                CA:FALSE
            X509v3 Subject Key Identifier: 
                96:93:D8:AA:2F:D4:1A:8D:09:1D:FE:79:EE:04:68:C8:2A:88:79:EA
            X509v3 Authority Key Identifier: 
                keyid:0F:31:ED:7D:76:34:96:5B:4C:10:DA:CD:B4:AC:17:FE:23:EC:67:72
                DirName:/CN=team547-net
                serial:0E:AF:CA:7A:6E:15:07:53:F4:57:56:88:FE:62:82:3D:FA:8D:03:3F

            X509v3 Extended Key Usage: 
                TLS Web Client Authentication
            X509v3 Key Usage: 
                Digital Signature
    Signature Algorithm: sha256WithRSAEncryption
         97:f4:18:54:b8:bd:29:2d:2f:0b:5f:07:51:00:f8:7c:17:7a:
         ca:8f:ce:b9:ea:e8:a7:6b:74:8d:da:96:0a:52:3f:63:5a:2c:
         90:b4:39:c3:b6:c4:c9:0a:29:29:49:7d:a3:88:e0:32:df:06:
         06:53:60:e4:ce:4d:f9:ff:ee:85:e2:85:20:63:7b:ac:7a:70:
         c5:95:fb:6f:30:5e:d0:ea:ba:5d:46:2d:2c:b0:0c:96:8d:0c:
         ea:ee:d1:e9:12:6f:ac:86:f7:76:7d:e0:4c:0e:70:8a:7f:19:
         2a:1e:8d:ee:27:5f:47:01:84:69:9a:31:8e:70:bd:a3:be:5a:
         59:c5:f3:3d:1b:4d:fa:f7:f1:2b:9b:4b:a1:49:e8:46:79:7a:
         03:8d:04:7f:fe:67:88:13:e7:d3:cb:41:66:94:95:f1:8d:70:
         a2:b1:18:c8:82:01:6d:8d:ba:9b:e8:50:ba:85:b4:66:e7:c4:
         04:10:65:32:61:3d:e6:fb:f5:dd:38:ba:e4:ac:6b:35:8f:c2:
         3d:48:7a:c3:87:9a:f5:b8:e5:94:00:fd:a6:15:1c:84:65:c5:
         87:1d:c2:6e:0d:b0:f8:81:fb:bb:0e:ad:73:99:5a:9b:76:31:
         4a:92:92:01:e9:d4:a3:26:45:17:54:18:d6:d3:01:29:be:d4:
         86:64:9f:9a
-----BEGIN CERTIFICATE-----
MIIDXDCCAkSgAwIBAgIQFOu3v+T+NG0qMJIYtl7mJTANBgkqhkiG9w0BAQsFADAW
MRQwEgYDVQQDDAt0ZWFtNTQ3LW5ldDAeFw0yMTA5MTMwMzI5NDZaFw0yNDA4Mjgw
MzI5NDZaMBkxFzAVBgNVBAMMDnRlYW01NDctY2xpZW50MIIBIjANBgkqhkiG9w0B
AQEFAAOCAQ8AMIIBCgKCAQEAvR5ZLGNxiooNa6PxU/fesTJloN4kJe1QfZhhlqlU
iqSjsHPwDjPPLYSxZ5N7hiOnFf9JMD4w1bDHuyydJ4WhqZwVFyWp5vOnbDuWoe6k
CsNGrPJNUIanPsoqaCwEFm3PpVxpOqYoylTerRUMA8isoPAdC+05PFl4qI+YDyB7
RF78TGwnsfHJlX+DBxq5nsuRs/bcqZvIU7jP+TWf1xBlUX0rrUiL4szBhLm/MB8m
IWmMIrtBs8q0emDvzV2B5chg1kcXVoAmmdpG/sPDr/4KCH2nDuRPzdCCqQVf6VIt
Npd+DKuP9NaPS8NE7SNfUrnu/zSc7Ijfak62W0jLGvPLmwIDAQABo4GiMIGfMAkG
A1UdEwQCMAAwHQYDVR0OBBYEFJaT2Kov1BqNCR3+ee4EaMgqiHnqMFEGA1UdIwRK
MEiAFA8x7X12NJZbTBDazbSsF/4j7GdyoRqkGDAWMRQwEgYDVQQDDAt0ZWFtNTQ3
LW5ldIIUDq/Kem4VB1P0V1aI/mKCPfqNAz8wEwYDVR0lBAwwCgYIKwYBBQUHAwIw
CwYDVR0PBAQDAgeAMA0GCSqGSIb3DQEBCwUAA4IBAQCX9BhUuL0pLS8LXwdRAPh8
F3rKj8656uina3SN2pYKUj9jWiyQtDnDtsTJCikpSX2jiOAy3wYGU2Dkzk35/+6F
4oUgY3usenDFlftvMF7Q6rpdRi0ssAyWjQzq7tHpEm+shvd2feBMDnCKfxkqHo3u
J19HAYRpmjGOcL2jvlpZxfM9G0369/Erm0uhSehGeXoDjQR//meIE+fTy0FmlJXx
jXCisRjIggFtjbqb6FC6hbRm58QEEGUyYT3m+/XdOLrkrGs1j8I9SHrDh5r1uOWU
AP2mFRyEZcWHHcJuDbD4gfu7Dq1zmVqbdjFKkpIB6dSjJkUXVBjW0wEpvtSGZJ+a
-----END CERTIFICATE-----
