Certificate:
    Data:
        Version: 3 (0x2)
        Serial Number:
            b3:46:5f:7b:f2:68:33:33:7f:57:4a:2b:46:4e:d2:ca
        Signature Algorithm: sha256WithRSAEncryption
        Issuer: CN=team180-net
        Validity
            Not Before: Sep 13 00:29:38 2021 GMT
            Not After : Aug 28 00:29:38 2024 GMT
        Subject: CN=team180-server
        Subject Public Key Info:
            Public Key Algorithm: rsaEncryption
                RSA Public-Key: (2048 bit)
                Modulus:
                    00:c0:1c:d2:46:02:9c:60:95:67:32:c5:0c:18:91:
                    19:e4:d6:60:5d:06:d2:ff:4f:bc:d3:d6:19:dd:ba:
                    8e:f9:09:7d:37:40:c8:85:c9:3f:d2:75:85:73:4e:
                    b0:5f:ec:a9:f6:1c:2c:97:a5:8c:b3:08:55:f0:40:
                    b0:e7:9f:a4:f3:d5:9a:b3:c4:2d:b6:f5:d0:25:04:
                    05:02:86:cd:87:b5:04:7c:f0:bb:ab:a0:b5:65:7d:
                    42:33:c1:87:ff:b3:f3:bd:9a:6d:de:4c:09:75:8f:
                    02:66:a2:02:84:43:f3:60:72:7c:5a:57:e8:b2:1a:
                    62:f2:8f:7f:70:10:b6:e7:0d:98:2e:a9:d3:28:97:
                    2e:44:4a:17:9c:9b:29:7b:ed:ea:09:a3:cc:9c:ea:
                    71:95:73:f1:94:8c:d6:b7:02:0c:dd:0b:6a:0b:e8:
                    a0:95:90:a5:ab:71:4c:a9:b9:95:ca:fd:2e:73:32:
                    fe:88:6e:17:54:b1:67:70:fb:6d:bb:cc:23:c6:67:
                    4c:26:20:65:63:6b:7d:6d:47:80:51:93:1f:3f:e1:
                    a2:e8:c3:22:a8:b0:97:e3:eb:e6:fe:36:0d:03:cc:
                    51:78:5d:28:50:c6:8c:53:80:04:b2:6d:18:da:25:
                    9d:34:8e:0e:b5:a9:30:7d:48:13:9d:fd:b6:07:f2:
                    c0:ab
                Exponent: 65537 (0x10001)
        X509v3 extensions:
            X509v3 Basic Constraints: 
                CA:FALSE
            X509v3 Subject Key Identifier: 
                64:13:96:9A:93:3D:07:CD:9F:1C:72:43:AB:06:5B:D1:BD:ED:05:B3
            X509v3 Authority Key Identifier: 
                keyid:DC:A5:64:8C:81:9A:48:7E:2B:EE:B7:B6:72:A6:80:B9:D6:E7:85:11
                DirName:/CN=team180-net
                serial:32:D3:56:EC:41:67:E4:40:6D:90:A1:E7:B1:EC:07:3D:F1:5D:E1:FC

            X509v3 Extended Key Usage: 
                TLS Web Server Authentication
            X509v3 Key Usage: 
                Digital Signature, Key Encipherment
            X509v3 Subject Alternative Name: 
                DNS:team180-server
    Signature Algorithm: sha256WithRSAEncryption
         68:b2:64:95:9a:eb:1b:d9:44:20:a5:f8:e3:36:98:b0:69:2b:
         23:89:5b:06:a7:a7:2d:e4:91:b0:e8:ae:7e:89:09:4d:0c:41:
         43:0a:cc:12:58:08:b8:e2:7e:1c:ed:06:25:33:4e:80:24:9f:
         b7:a5:2f:d7:58:2c:8e:c5:b9:57:e4:01:6f:2b:e0:47:74:ef:
         e0:5a:24:64:3f:fb:34:5d:15:59:45:ff:c1:88:f4:5d:5b:82:
         17:c1:95:ef:7e:c5:23:bb:ff:d1:2f:ea:da:44:7e:66:91:6f:
         58:47:a1:d4:72:79:f1:c3:87:1f:39:f9:28:f8:42:e9:c3:b0:
         35:6e:9f:b5:72:c6:20:3d:a0:89:e5:ec:37:07:73:d2:c0:76:
         32:88:94:0f:28:f5:9f:5e:b1:28:7d:3a:10:1b:ec:07:15:f5:
         48:b5:58:8d:3c:09:ff:fd:35:5c:fe:1a:0e:99:16:d1:88:70:
         98:62:5e:eb:6c:8d:5d:99:9c:42:bb:ed:e6:2b:1c:fa:e7:4a:
         33:c9:89:c2:02:07:d7:17:a9:b3:d7:fb:cc:d9:2a:04:eb:30:
         67:44:a5:de:3e:34:b1:7e:e0:32:3b:70:b3:b3:77:6c:41:aa:
         b8:7e:b0:7e:48:71:98:d7:55:e1:9d:bb:b0:8f:84:8c:74:ce:
         1e:f6:d5:9b
-----BEGIN CERTIFICATE-----
MIIDeDCCAmCgAwIBAgIRALNGX3vyaDMzf1dKK0ZO0sowDQYJKoZIhvcNAQELBQAw
FjEUMBIGA1UEAwwLdGVhbTE4MC1uZXQwHhcNMjEwOTEzMDAyOTM4WhcNMjQwODI4
MDAyOTM4WjAZMRcwFQYDVQQDDA50ZWFtMTgwLXNlcnZlcjCCASIwDQYJKoZIhvcN
AQEBBQADggEPADCCAQoCggEBAMAc0kYCnGCVZzLFDBiRGeTWYF0G0v9PvNPWGd26
jvkJfTdAyIXJP9J1hXNOsF/sqfYcLJeljLMIVfBAsOefpPPVmrPELbb10CUEBQKG
zYe1BHzwu6ugtWV9QjPBh/+z872abd5MCXWPAmaiAoRD82ByfFpX6LIaYvKPf3AQ
tucNmC6p0yiXLkRKF5ybKXvt6gmjzJzqcZVz8ZSM1rcCDN0LagvooJWQpatxTKm5
lcr9LnMy/ohuF1SxZ3D7bbvMI8ZnTCYgZWNrfW1HgFGTHz/houjDIqiwl+Pr5v42
DQPMUXhdKFDGjFOABLJtGNolnTSODrWpMH1IE539tgfywKsCAwEAAaOBvTCBujAJ
BgNVHRMEAjAAMB0GA1UdDgQWBBRkE5aakz0HzZ8cckOrBlvRve0FszBRBgNVHSME
SjBIgBTcpWSMgZpIfivut7ZypoC51ueFEaEapBgwFjEUMBIGA1UEAwwLdGVhbTE4
MC1uZXSCFDLTVuxBZ+RAbZCh57HsBz3xXeH8MBMGA1UdJQQMMAoGCCsGAQUFBwMB
MAsGA1UdDwQEAwIFoDAZBgNVHREEEjAQgg50ZWFtMTgwLXNlcnZlcjANBgkqhkiG
9w0BAQsFAAOCAQEAaLJklZrrG9lEIKX44zaYsGkrI4lbBqenLeSRsOiufokJTQxB
QwrMElgIuOJ+HO0GJTNOgCSft6Uv11gsjsW5V+QBbyvgR3Tv4FokZD/7NF0VWUX/
wYj0XVuCF8GV737FI7v/0S/q2kR+ZpFvWEeh1HJ58cOHHzn5KPhC6cOwNW6ftXLG
ID2gieXsNwdz0sB2MoiUDyj1n16xKH06EBvsBxX1SLVYjTwJ//01XP4aDpkW0Yhw
mGJe62yNXZmcQrvt5isc+udKM8mJwgIH1xeps9f7zNkqBOswZ0Sl3j40sX7gMjtw
s7N3bEGquH6wfkhxmNdV4Z27sI+EjHTOHvbVmw==
-----END CERTIFICATE-----
