Certificate:
    Data:
        Version: 3 (0x2)
        Serial Number:
            8c:9e:13:75:1f:8b:54:34:56:2e:06:36:6a:44:91
        Signature Algorithm: sha256WithRSAEncryption
        Issuer: CN=team250-net
        Validity
            Not Before: Sep 13 01:03:01 2021 GMT
            Not After : Aug 28 01:03:01 2024 GMT
        Subject: CN=team250-client
        Subject Public Key Info:
            Public Key Algorithm: rsaEncryption
                RSA Public-Key: (2048 bit)
                Modulus:
                    00:e2:3f:a3:16:4e:e6:d2:09:a2:67:4b:16:56:63:
                    01:cb:d8:32:f9:eb:e2:40:16:f1:3f:2a:cf:a6:77:
                    ca:3a:9d:14:5e:a6:30:97:7a:3c:53:04:96:07:b0:
                    dd:c3:dd:a1:76:11:64:9f:49:76:fc:a2:77:ef:6e:
                    e2:ed:6e:92:c4:b9:46:27:e6:e1:95:0b:76:d7:4f:
                    ac:e5:8c:43:00:18:95:e9:8c:16:2c:95:f9:9c:58:
                    3a:4c:eb:b9:e8:66:f9:57:1b:63:fa:6e:6f:4f:9d:
                    68:9b:0b:ac:2e:50:f6:21:a1:8c:22:d1:a7:a7:57:
                    59:8c:8e:f2:a6:d7:ad:cc:aa:8b:ac:e7:4e:3e:10:
                    36:8d:89:5f:5f:35:30:31:e5:91:46:04:94:1e:7a:
                    4d:45:03:0e:4d:62:2a:1a:d0:bc:d4:d8:22:c9:6a:
                    6d:25:11:83:29:87:67:db:21:a4:f3:05:2a:8c:22:
                    c5:32:b3:3c:3c:64:19:3f:f5:5f:6d:f1:16:3a:1d:
                    c2:2f:e6:e1:92:70:30:a1:1f:d3:cb:62:09:ba:a8:
                    7c:bc:18:34:ee:35:61:2b:32:d0:91:36:fc:3e:d2:
                    ef:ee:b7:c1:ac:51:a5:d2:ca:92:b8:64:e3:70:00:
                    94:88:9a:7d:00:cc:87:66:a6:14:38:47:38:42:86:
                    53:4d
                Exponent: 65537 (0x10001)
        X509v3 extensions:
            X509v3 Basic Constraints: 
                CA:FALSE
            X509v3 Subject Key Identifier: 
                6E:FF:3E:E2:F5:C3:AB:DA:20:92:87:1A:78:0C:BC:1F:36:95:EB:DB
            X509v3 Authority Key Identifier: 
                keyid:49:EB:F6:E3:62:F6:1E:BC:27:2D:F9:A0:31:14:9B:6A:19:01:AC:2A
                DirName:/CN=team250-net
                serial:55:8A:03:14:24:F7:63:27:A9:D5:11:F4:40:24:4D:46:DB:4D:3A:59

            X509v3 Extended Key Usage: 
                TLS Web Client Authentication
            X509v3 Key Usage: 
                Digital Signature
    Signature Algorithm: sha256WithRSAEncryption
         80:e5:ac:f4:51:b3:76:44:52:0a:0f:aa:f9:48:e8:70:05:74:
         05:9e:fc:b7:73:22:40:c7:35:54:19:4f:6a:e3:c6:c3:64:b7:
         d5:9a:9d:e4:8c:63:0b:ae:82:f7:70:9e:12:64:8e:81:1c:42:
         07:ae:cc:dd:79:88:bf:0d:f1:f4:76:5c:23:05:0b:47:1a:7a:
         19:24:c2:20:13:c6:56:de:4e:79:a3:84:46:ca:96:c6:1a:5b:
         12:55:6d:97:86:11:70:2a:20:34:d8:b0:31:86:87:3b:4b:b2:
         a6:4f:76:f2:28:f2:4b:a5:d8:69:42:13:19:ce:bf:fc:70:fb:
         6e:be:d3:1c:b6:fb:e7:04:73:94:ea:b2:34:34:e6:07:a1:fd:
         45:f4:1e:64:83:90:da:3c:bd:fc:e4:71:c1:35:8d:31:fc:0f:
         c2:5a:4a:32:c2:ff:2a:f0:1b:be:0f:7f:0d:a8:9d:ed:d7:bb:
         b0:0e:4b:0b:cd:46:db:16:f5:08:72:17:f7:51:ac:37:90:5d:
         6c:c1:bd:21:81:ce:98:5c:3a:43:85:f9:bc:2e:2c:58:60:ab:
         10:49:bb:93:16:1c:61:8b:d1:62:14:43:24:70:f0:1a:f3:90:
         61:7c:36:96:9e:7a:a9:dc:5b:65:f2:7e:aa:9f:f2:65:3d:94:
         27:01:14:f3
-----BEGIN CERTIFICATE-----
MIIDXDCCAkSgAwIBAgIQAIyeE3Ufi1Q0Vi4GNmpEkTANBgkqhkiG9w0BAQsFADAW
MRQwEgYDVQQDDAt0ZWFtMjUwLW5ldDAeFw0yMTA5MTMwMTAzMDFaFw0yNDA4Mjgw
MTAzMDFaMBkxFzAVBgNVBAMMDnRlYW0yNTAtY2xpZW50MIIBIjANBgkqhkiG9w0B
AQEFAAOCAQ8AMIIBCgKCAQEA4j+jFk7m0gmiZ0sWVmMBy9gy+eviQBbxPyrPpnfK
Op0UXqYwl3o8UwSWB7Ddw92hdhFkn0l2/KJ3727i7W6SxLlGJ+bhlQt210+s5YxD
ABiV6YwWLJX5nFg6TOu56Gb5Vxtj+m5vT51omwusLlD2IaGMItGnp1dZjI7yptet
zKqLrOdOPhA2jYlfXzUwMeWRRgSUHnpNRQMOTWIqGtC81NgiyWptJRGDKYdn2yGk
8wUqjCLFMrM8PGQZP/VfbfEWOh3CL+bhknAwoR/Ty2IJuqh8vBg07jVhKzLQkTb8
PtLv7rfBrFGl0sqSuGTjcACUiJp9AMyHZqYUOEc4QoZTTQIDAQABo4GiMIGfMAkG
A1UdEwQCMAAwHQYDVR0OBBYEFG7/PuL1w6vaIJKHGngMvB82levbMFEGA1UdIwRK
MEiAFEnr9uNi9h68Jy35oDEUm2oZAawqoRqkGDAWMRQwEgYDVQQDDAt0ZWFtMjUw
LW5ldIIUVYoDFCT3Yyep1RH0QCRNRttNOlkwEwYDVR0lBAwwCgYIKwYBBQUHAwIw
CwYDVR0PBAQDAgeAMA0GCSqGSIb3DQEBCwUAA4IBAQCA5az0UbN2RFIKD6r5SOhw
BXQFnvy3cyJAxzVUGU9q48bDZLfVmp3kjGMLroL3cJ4SZI6BHEIHrszdeYi/DfH0
dlwjBQtHGnoZJMIgE8ZW3k55o4RGypbGGlsSVW2XhhFwKiA02LAxhoc7S7KmT3by
KPJLpdhpQhMZzr/8cPtuvtMctvvnBHOU6rI0NOYHof1F9B5kg5DaPL385HHBNY0x
/A/CWkoywv8q8Bu+D38NqJ3t17uwDksLzUbbFvUIchf3Uaw3kF1swb0hgc6YXDpD
hfm8LixYYKsQSbuTFhxhi9FiFEMkcPAa85BhfDaWnnqp3Ftl8n6qn/JlPZQnARTz
-----END CERTIFICATE-----
