Certificate:
    Data:
        Version: 3 (0x2)
        Serial Number:
            47:3c:d4:a4:a2:12:59:21:a3:44:9b:dc:00:d2:8c:88
        Signature Algorithm: sha256WithRSAEncryption
        Issuer: CN=team220-net
        Validity
            Not Before: Sep 13 00:35:24 2021 GMT
            Not After : Aug 28 00:35:24 2024 GMT
        Subject: CN=team220-server
        Subject Public Key Info:
            Public Key Algorithm: rsaEncryption
                RSA Public-Key: (2048 bit)
                Modulus:
                    00:e1:d3:5b:47:08:b9:1f:8d:60:29:fc:a0:62:c7:
                    c1:b6:c6:95:e2:18:ea:d1:06:1a:c1:7c:0e:cd:c0:
                    3e:ef:92:94:25:27:3d:96:0f:b7:47:26:31:53:da:
                    03:a5:ad:97:47:ab:ee:c7:4a:8e:7d:93:ab:2d:16:
                    b4:34:62:b1:bd:18:a3:33:22:a2:89:4a:fc:97:ee:
                    10:aa:94:72:17:aa:33:69:5c:c2:98:82:fe:8a:22:
                    a4:20:e7:3a:16:68:9c:f3:9f:4d:bf:21:f5:d9:89:
                    63:d6:40:68:85:bb:64:3f:34:3a:ab:bc:74:25:25:
                    73:55:f6:bf:41:f9:61:66:bb:06:f1:0b:0d:ca:0e:
                    ef:26:2d:94:f7:f2:b3:b3:34:6c:01:cd:60:e5:9b:
                    40:11:72:b0:98:8e:4f:a8:3a:d3:8e:62:6b:8d:0c:
                    b8:88:a6:0a:ce:fd:9c:74:4b:42:02:ce:10:e4:74:
                    aa:2e:b7:93:ee:4d:51:f3:4e:66:4e:fc:c2:c5:7e:
                    0f:5b:f0:72:50:20:2a:ae:38:4a:e5:6f:a4:6a:e3:
                    5d:c4:62:ef:0b:2c:f4:2d:8f:fd:d3:7d:bc:56:58:
                    d6:57:89:3a:f6:79:ff:31:cc:ec:cb:d9:6a:2b:c3:
                    b9:29:c7:96:81:44:87:99:96:1f:30:c6:cc:ce:3a:
                    64:b5
                Exponent: 65537 (0x10001)
        X509v3 extensions:
            X509v3 Basic Constraints: 
                CA:FALSE
            X509v3 Subject Key Identifier: 
                66:83:B2:B0:1F:B8:83:54:88:13:72:35:72:8A:83:0C:8F:E8:FA:7C
            X509v3 Authority Key Identifier: 
                keyid:B6:5C:DD:25:92:02:6A:4C:6F:9D:38:7E:A8:80:BF:87:E7:8F:8F:87
                DirName:/CN=team220-net
                serial:21:59:FF:C4:FE:D9:0C:75:F6:F5:8B:C7:5D:44:DE:AE:BA:9A:F6:32

            X509v3 Extended Key Usage: 
                TLS Web Server Authentication
            X509v3 Key Usage: 
                Digital Signature, Key Encipherment
            X509v3 Subject Alternative Name: 
                DNS:team220-server
    Signature Algorithm: sha256WithRSAEncryption
         7f:9c:1e:5f:cf:c4:93:f5:30:77:27:a6:a0:b6:bf:26:49:15:
         d2:a9:d0:64:fa:34:9b:3d:be:a1:db:54:e5:67:f1:4a:bf:9b:
         b8:12:0d:cb:2d:0a:88:43:ed:0a:35:ff:6c:d5:46:b7:be:33:
         b6:09:80:7a:0c:89:8b:ab:5c:af:50:7b:ca:da:0b:75:69:0b:
         5e:37:24:d4:61:d3:42:89:75:e7:db:eb:83:ab:f7:ce:bc:2f:
         7f:63:09:37:1d:c5:e4:e5:98:b3:b2:74:b2:38:33:8a:8b:2c:
         c0:8e:bb:ec:55:b3:50:ca:1c:cf:59:c7:0a:0e:0d:06:aa:b3:
         09:e4:40:8c:0c:c4:d2:cc:3a:b6:40:64:49:31:ce:4e:d2:82:
         2f:09:dc:a7:86:ce:a7:09:08:56:96:21:5f:5a:aa:d8:5c:6b:
         30:2d:b5:11:7b:78:41:79:3f:d5:52:30:5c:14:11:95:e1:ef:
         af:08:9f:f0:0f:da:bb:4d:f1:0b:f3:2e:55:e5:67:61:ff:c0:
         b4:cc:2f:6a:44:c1:95:0f:75:96:fc:b4:71:18:36:a6:f4:68:
         19:f7:51:e4:45:86:39:44:74:2d:9d:45:6a:4e:9e:d3:57:ee:
         d6:4a:89:d4:d5:57:1a:38:ed:84:76:a0:87:b4:0c:0c:99:2a:
         30:39:a9:e0
-----BEGIN CERTIFICATE-----
MIIDdzCCAl+gAwIBAgIQRzzUpKISWSGjRJvcANKMiDANBgkqhkiG9w0BAQsFADAW
MRQwEgYDVQQDDAt0ZWFtMjIwLW5ldDAeFw0yMTA5MTMwMDM1MjRaFw0yNDA4Mjgw
MDM1MjRaMBkxFzAVBgNVBAMMDnRlYW0yMjAtc2VydmVyMIIBIjANBgkqhkiG9w0B
AQEFAAOCAQ8AMIIBCgKCAQEA4dNbRwi5H41gKfygYsfBtsaV4hjq0QYawXwOzcA+
75KUJSc9lg+3RyYxU9oDpa2XR6vux0qOfZOrLRa0NGKxvRijMyKiiUr8l+4QqpRy
F6ozaVzCmIL+iiKkIOc6Fmic859NvyH12Ylj1kBohbtkPzQ6q7x0JSVzVfa/Qflh
ZrsG8QsNyg7vJi2U9/KzszRsAc1g5ZtAEXKwmI5PqDrTjmJrjQy4iKYKzv2cdEtC
As4Q5HSqLreT7k1R805mTvzCxX4PW/ByUCAqrjhK5W+kauNdxGLvCyz0LY/90328
VljWV4k69nn/Mczsy9lqK8O5KceWgUSHmZYfMMbMzjpktQIDAQABo4G9MIG6MAkG
A1UdEwQCMAAwHQYDVR0OBBYEFGaDsrAfuINUiBNyNXKKgwyP6Pp8MFEGA1UdIwRK
MEiAFLZc3SWSAmpMb504fqiAv4fnj4+HoRqkGDAWMRQwEgYDVQQDDAt0ZWFtMjIw
LW5ldIIUIVn/xP7ZDHX29YvHXUTerrqa9jIwEwYDVR0lBAwwCgYIKwYBBQUHAwEw
CwYDVR0PBAQDAgWgMBkGA1UdEQQSMBCCDnRlYW0yMjAtc2VydmVyMA0GCSqGSIb3
DQEBCwUAA4IBAQB/nB5fz8ST9TB3J6agtr8mSRXSqdBk+jSbPb6h21TlZ/FKv5u4
Eg3LLQqIQ+0KNf9s1Ua3vjO2CYB6DImLq1yvUHvK2gt1aQteNyTUYdNCiXXn2+uD
q/fOvC9/Ywk3HcXk5ZizsnSyODOKiyzAjrvsVbNQyhzPWccKDg0GqrMJ5ECMDMTS
zDq2QGRJMc5O0oIvCdynhs6nCQhWliFfWqrYXGswLbURe3hBeT/VUjBcFBGV4e+v
CJ/wD9q7TfEL8y5V5Wdh/8C0zC9qRMGVD3WW/LRxGDam9GgZ91HkRYY5RHQtnUVq
Tp7TV+7WSonU1VcaOO2EdqCHtAwMmSowOang
-----END CERTIFICATE-----
