Certificate:
    Data:
        Version: 3 (0x2)
        Serial Number:
            43:0b:98:fa:e4:52:ea:54:67:a7:ce:45:5e:dd:69:ce
        Signature Algorithm: sha256WithRSAEncryption
        Issuer: CN=team262-net
        Validity
            Not Before: Sep 13 00:58:34 2021 GMT
            Not After : Aug 28 00:58:34 2024 GMT
        Subject: CN=team262-client
        Subject Public Key Info:
            Public Key Algorithm: rsaEncryption
                RSA Public-Key: (2048 bit)
                Modulus:
                    00:b6:4e:4d:99:60:41:33:bd:c3:b2:8c:8c:fb:9a:
                    4d:dd:2d:b2:f4:95:60:7c:f8:cc:bb:db:96:74:e7:
                    fc:d7:2d:d1:50:fa:36:bf:e9:eb:2a:29:3a:a2:f5:
                    4c:7e:10:88:9b:71:00:ae:55:98:4c:dd:ee:4f:5c:
                    f6:c5:7f:8d:97:86:4a:a1:be:31:16:6c:56:19:aa:
                    05:6d:a5:ab:27:18:c9:cc:5e:75:19:8d:a8:95:d1:
                    71:b2:96:bc:97:40:11:39:15:06:ff:6c:93:f9:8e:
                    67:5a:7b:e2:0e:2d:9c:88:57:7a:b5:63:65:48:98:
                    9e:e6:fa:d2:dc:88:1b:98:78:72:27:4b:cc:00:da:
                    12:21:4f:ce:fc:e7:45:47:a4:07:48:0f:e1:7f:0e:
                    fc:01:4d:60:38:42:09:ec:46:52:1f:dd:7d:7d:6f:
                    c3:1c:d2:cd:f0:1c:5e:e7:10:c3:c4:5c:58:68:1a:
                    18:54:0d:96:63:7a:59:1b:13:e3:ba:bd:0a:12:17:
                    ed:18:68:f3:59:7b:bd:22:4c:99:9c:78:d3:03:34:
                    2e:a6:73:d4:f0:e8:0d:19:dc:ad:c6:6a:04:6a:07:
                    b9:49:9c:04:92:0d:71:52:4f:1d:92:de:3b:f1:a5:
                    1a:51:f4:76:05:fe:69:03:87:99:65:69:8a:db:83:
                    09:bd
                Exponent: 65537 (0x10001)
        X509v3 extensions:
            X509v3 Basic Constraints: 
                CA:FALSE
            X509v3 Subject Key Identifier: 
                E2:F4:36:96:F4:B0:23:5C:5D:5E:A1:A4:48:77:F1:27:0A:83:06:FA
            X509v3 Authority Key Identifier: 
                keyid:C3:F6:9B:E5:E4:1B:88:ED:42:D1:25:FF:7E:0D:92:E5:32:90:EF:F2
                DirName:/CN=team262-net
                serial:14:44:75:69:64:AD:FF:D7:E2:13:EF:7F:33:EE:20:49:D4:1F:FD:B5

            X509v3 Extended Key Usage: 
                TLS Web Client Authentication
            X509v3 Key Usage: 
                Digital Signature
    Signature Algorithm: sha256WithRSAEncryption
         03:02:c4:6b:ec:40:62:5b:31:d0:27:e8:e1:f8:49:63:f9:5c:
         49:cc:79:db:2c:d9:91:68:b6:15:8a:13:9a:0c:cb:90:81:cf:
         74:1c:f9:8e:21:01:59:d9:4e:11:5b:5f:3d:47:83:4f:6e:1a:
         19:ae:94:be:96:01:72:91:fc:65:1a:fd:ef:dc:01:be:3a:25:
         ff:fa:39:36:ab:1d:c6:eb:a3:d0:df:73:75:d8:db:d4:7f:ff:
         49:3c:1f:c4:47:d0:6f:5c:ae:58:b9:dd:07:14:2a:79:55:73:
         a9:ef:2a:b0:ed:c2:59:75:fc:cd:16:a1:f6:94:18:78:31:93:
         25:57:70:3b:38:a6:8b:03:20:bc:1d:0b:ef:c5:36:49:db:79:
         55:bd:c8:54:f9:22:eb:67:c0:50:b0:33:0a:05:48:c5:af:72:
         86:67:6a:0a:cf:d3:af:7f:84:d5:23:6b:0f:22:65:a0:e3:ba:
         88:7a:4f:55:5e:01:ad:44:86:35:0e:2b:09:09:0e:52:5f:b9:
         df:32:12:e4:ce:2f:f7:8e:f6:af:9a:f3:7e:22:70:fa:bd:39:
         22:61:fb:e8:3c:04:93:66:52:b2:3f:51:0a:16:a6:a5:f4:59:
         d1:b1:01:00:a2:f2:c0:b5:0f:ca:dd:ac:18:b9:7a:3b:f1:da:
         16:92:60:03
-----BEGIN CERTIFICATE-----
MIIDXDCCAkSgAwIBAgIQQwuY+uRS6lRnp85FXt1pzjANBgkqhkiG9w0BAQsFADAW
MRQwEgYDVQQDDAt0ZWFtMjYyLW5ldDAeFw0yMTA5MTMwMDU4MzRaFw0yNDA4Mjgw
MDU4MzRaMBkxFzAVBgNVBAMMDnRlYW0yNjItY2xpZW50MIIBIjANBgkqhkiG9w0B
AQEFAAOCAQ8AMIIBCgKCAQEAtk5NmWBBM73DsoyM+5pN3S2y9JVgfPjMu9uWdOf8
1y3RUPo2v+nrKik6ovVMfhCIm3EArlWYTN3uT1z2xX+Nl4ZKob4xFmxWGaoFbaWr
JxjJzF51GY2oldFxspa8l0ARORUG/2yT+Y5nWnviDi2ciFd6tWNlSJie5vrS3Igb
mHhyJ0vMANoSIU/O/OdFR6QHSA/hfw78AU1gOEIJ7EZSH919fW/DHNLN8Bxe5xDD
xFxYaBoYVA2WY3pZGxPjur0KEhftGGjzWXu9IkyZnHjTAzQupnPU8OgNGdytxmoE
age5SZwEkg1xUk8dkt478aUaUfR2Bf5pA4eZZWmK24MJvQIDAQABo4GiMIGfMAkG
A1UdEwQCMAAwHQYDVR0OBBYEFOL0Npb0sCNcXV6hpEh38ScKgwb6MFEGA1UdIwRK
MEiAFMP2m+XkG4jtQtEl/34NkuUykO/yoRqkGDAWMRQwEgYDVQQDDAt0ZWFtMjYy
LW5ldIIUFER1aWSt/9fiE+9/M+4gSdQf/bUwEwYDVR0lBAwwCgYIKwYBBQUHAwIw
CwYDVR0PBAQDAgeAMA0GCSqGSIb3DQEBCwUAA4IBAQADAsRr7EBiWzHQJ+jh+Elj
+VxJzHnbLNmRaLYVihOaDMuQgc90HPmOIQFZ2U4RW189R4NPbhoZrpS+lgFykfxl
Gv3v3AG+OiX/+jk2qx3G66PQ33N12NvUf/9JPB/ER9BvXK5Yud0HFCp5VXOp7yqw
7cJZdfzNFqH2lBh4MZMlV3A7OKaLAyC8HQvvxTZJ23lVvchU+SLrZ8BQsDMKBUjF
r3KGZ2oKz9Ovf4TVI2sPImWg47qIek9VXgGtRIY1DisJCQ5SX7nfMhLkzi/3jvav
mvN+InD6vTkiYfvoPASTZlKyP1EKFqal9FnRsQEAovLAtQ/K3awYuXo78doWkmAD
-----END CERTIFICATE-----
