Certificate:
    Data:
        Version: 3 (0x2)
        Serial Number:
            52:b1:4f:79:ac:87:61:8f:7f:33:db:77:f6:1c:44:42
        Signature Algorithm: sha256WithRSAEncryption
        Issuer: CN=team661-net
        Validity
            Not Before: Sep 13 04:54:58 2021 GMT
            Not After : Aug 28 04:54:58 2024 GMT
        Subject: CN=team661-client
        Subject Public Key Info:
            Public Key Algorithm: rsaEncryption
                RSA Public-Key: (2048 bit)
                Modulus:
                    00:a7:49:81:ea:b1:ec:92:ba:6e:d0:5c:e6:db:d4:
                    b6:3b:95:9b:9d:63:87:97:2b:b5:ba:aa:30:7f:04:
                    ed:e8:e0:a5:d3:b0:66:8d:cb:5c:45:be:8c:8c:7f:
                    05:59:32:b5:20:27:90:f3:cf:bb:6e:b4:df:3c:59:
                    40:9b:54:da:19:86:0a:d7:e2:13:a0:6f:8d:92:9c:
                    95:38:59:25:75:7d:80:67:fd:fe:3f:5e:2b:f2:77:
                    1e:e8:66:7d:46:fc:c1:1f:ac:77:d7:37:cc:ea:f2:
                    38:61:9c:e4:36:7a:79:b0:d4:3f:2e:53:10:a6:22:
                    d8:e5:9b:bb:e6:7b:81:55:05:5a:32:e7:eb:d2:8f:
                    b9:44:50:69:88:94:d0:22:21:4e:fc:df:47:d3:04:
                    e2:56:f9:e2:65:3e:8b:a3:b8:00:a5:46:ff:47:ae:
                    3c:5a:ed:42:fb:a3:fd:d6:bd:bc:26:ab:f6:90:dd:
                    75:fb:c2:fe:e7:c8:10:61:96:2c:08:97:95:11:02:
                    6a:c2:8e:3c:b5:b6:9d:82:6d:c9:b1:ca:6f:b0:64:
                    ca:9e:41:66:e2:d4:3f:78:96:10:47:bb:06:65:5f:
                    c1:12:68:6c:9f:a6:5d:5a:f1:7e:a4:1e:0b:63:17:
                    02:46:35:ab:5a:4a:f7:31:e4:ac:85:d9:05:50:9a:
                    c5:f1
                Exponent: 65537 (0x10001)
        X509v3 extensions:
            X509v3 Basic Constraints: 
                CA:FALSE
            X509v3 Subject Key Identifier: 
                C6:50:9E:85:85:A7:3A:80:34:E9:C7:3E:6B:0A:FA:FD:24:A9:0C:3B
            X509v3 Authority Key Identifier: 
                keyid:7F:4C:5D:60:31:81:B4:A6:2A:10:E8:45:B0:DA:4B:A7:DB:17:99:06
                DirName:/CN=team661-net
                serial:3E:B6:2A:E7:A6:19:AA:34:79:06:44:D5:F2:DF:38:C9:66:79:A0:3C

            X509v3 Extended Key Usage: 
                TLS Web Client Authentication
            X509v3 Key Usage: 
                Digital Signature
    Signature Algorithm: sha256WithRSAEncryption
         09:8a:f8:2d:fa:fc:20:05:f3:70:08:bf:ce:16:e2:c9:1b:d2:
         af:fb:68:b6:d6:1f:0f:13:44:39:a1:32:18:cf:a2:17:d8:77:
         ad:a2:3b:70:39:1e:9e:69:38:d9:45:e8:11:e9:22:b2:0d:2e:
         19:89:9b:08:0a:da:d2:f1:fc:26:39:36:f7:3e:09:9e:ee:bf:
         7f:a2:f4:e4:84:60:98:b1:3b:03:70:07:de:f8:c1:5c:ed:85:
         50:3a:7a:7a:3b:e7:c9:28:17:b7:10:4c:fc:e1:72:cb:4d:1f:
         c0:17:d3:a7:0c:fc:17:68:4c:7e:5d:58:5d:d2:74:ae:46:d1:
         6d:90:66:86:cf:d6:1b:47:68:f5:12:9d:35:54:c8:c7:54:29:
         cd:7a:3c:9a:8b:e3:2f:9a:56:50:16:a4:dc:a0:b4:7c:1f:e5:
         21:88:8b:4d:78:c3:e1:19:c3:87:be:a8:94:05:ec:9a:ef:d1:
         cf:b9:16:2d:d6:75:0f:77:ec:b6:e7:a6:2b:57:f1:5b:35:05:
         a5:3d:9e:8f:fc:a4:eb:17:94:14:b9:5f:00:4c:e5:89:e2:be:
         9a:e6:76:15:30:b3:a7:1e:e7:19:9c:2f:06:48:6e:42:fc:4b:
         4d:90:89:13:5a:20:07:28:c2:ad:be:c0:d8:25:0a:35:1b:60:
         0f:ad:f0:44
-----BEGIN CERTIFICATE-----
MIIDXDCCAkSgAwIBAgIQUrFPeayHYY9/M9t39hxEQjANBgkqhkiG9w0BAQsFADAW
MRQwEgYDVQQDDAt0ZWFtNjYxLW5ldDAeFw0yMTA5MTMwNDU0NThaFw0yNDA4Mjgw
NDU0NThaMBkxFzAVBgNVBAMMDnRlYW02NjEtY2xpZW50MIIBIjANBgkqhkiG9w0B
AQEFAAOCAQ8AMIIBCgKCAQEAp0mB6rHskrpu0Fzm29S2O5WbnWOHlyu1uqowfwTt
6OCl07BmjctcRb6MjH8FWTK1ICeQ88+7brTfPFlAm1TaGYYK1+IToG+NkpyVOFkl
dX2AZ/3+P14r8nce6GZ9RvzBH6x31zfM6vI4YZzkNnp5sNQ/LlMQpiLY5Zu75nuB
VQVaMufr0o+5RFBpiJTQIiFO/N9H0wTiVvniZT6Lo7gApUb/R648Wu1C+6P91r28
Jqv2kN11+8L+58gQYZYsCJeVEQJqwo48tbadgm3JscpvsGTKnkFm4tQ/eJYQR7sG
ZV/BEmhsn6ZdWvF+pB4LYxcCRjWrWkr3MeSshdkFUJrF8QIDAQABo4GiMIGfMAkG
A1UdEwQCMAAwHQYDVR0OBBYEFMZQnoWFpzqANOnHPmsK+v0kqQw7MFEGA1UdIwRK
MEiAFH9MXWAxgbSmKhDoRbDaS6fbF5kGoRqkGDAWMRQwEgYDVQQDDAt0ZWFtNjYx
LW5ldIIUPrYq56YZqjR5BkTV8t84yWZ5oDwwEwYDVR0lBAwwCgYIKwYBBQUHAwIw
CwYDVR0PBAQDAgeAMA0GCSqGSIb3DQEBCwUAA4IBAQAJivgt+vwgBfNwCL/OFuLJ
G9Kv+2i21h8PE0Q5oTIYz6IX2HetojtwOR6eaTjZRegR6SKyDS4ZiZsICtrS8fwm
OTb3Pgme7r9/ovTkhGCYsTsDcAfe+MFc7YVQOnp6O+fJKBe3EEz84XLLTR/AF9On
DPwXaEx+XVhd0nSuRtFtkGaGz9YbR2j1Ep01VMjHVCnNejyai+MvmlZQFqTcoLR8
H+UhiItNeMPhGcOHvqiUBeya79HPuRYt1nUPd+y256YrV/FbNQWlPZ6P/KTrF5QU
uV8ATOWJ4r6a5nYVMLOnHucZnC8GSG5C/EtNkIkTWiAHKMKtvsDYJQo1G2APrfBE
-----END CERTIFICATE-----
