Certificate:
    Data:
        Version: 3 (0x2)
        Serial Number:
            8e:12:f1:47:b7:1a:de:2e:75:8f:81:e1:0a:f3:7e:a6
        Signature Algorithm: sha256WithRSAEncryption
        Issuer: CN=team591-net
        Validity
            Not Before: Sep 13 04:09:03 2021 GMT
            Not After : Aug 28 04:09:03 2024 GMT
        Subject: CN=team591-client
        Subject Public Key Info:
            Public Key Algorithm: rsaEncryption
                RSA Public-Key: (2048 bit)
                Modulus:
                    00:db:37:00:cf:fb:4c:da:d4:c1:97:d9:c0:c5:a9:
                    a6:fc:9b:a1:ae:ed:9c:a0:8e:bd:a3:25:04:4b:f6:
                    4f:bc:8f:2c:2f:f5:81:19:28:60:cb:cc:0e:40:9b:
                    97:e0:aa:fd:c5:a0:53:c7:0c:a8:1d:4f:d9:7f:9c:
                    d9:f2:5c:e6:c1:91:74:96:09:31:c9:4b:0e:f7:a1:
                    9e:30:00:ad:fe:ca:84:ba:40:81:32:0c:0d:0b:fd:
                    bd:77:47:51:a7:84:c1:26:8a:74:f4:e8:92:2f:c4:
                    7e:fe:f1:cd:2a:f0:62:5e:67:1c:23:f8:a1:7c:e5:
                    fb:25:ce:97:6c:08:a9:e9:d0:7c:c5:e5:bc:c6:b8:
                    a3:3f:1b:04:f6:4f:a2:b3:59:71:ce:3b:30:6c:82:
                    4a:6b:dd:9d:22:f5:a6:12:f1:5d:cc:30:d6:8c:bf:
                    f7:8e:3e:26:ae:36:8b:11:34:3e:ca:51:55:c9:40:
                    b7:9f:d2:a1:2f:41:76:d4:68:34:b4:fc:70:d4:86:
                    3f:b7:ff:40:d0:d2:f3:07:e2:64:8b:b2:42:e2:20:
                    16:99:0b:9a:7d:5b:21:21:16:c5:cb:81:68:49:e2:
                    8e:82:0a:fb:78:78:b0:5e:c3:1b:de:40:2c:b5:7e:
                    aa:24:d9:a7:43:50:97:12:d3:fa:a9:68:97:a9:49:
                    5f:d5
                Exponent: 65537 (0x10001)
        X509v3 extensions:
            X509v3 Basic Constraints: 
                CA:FALSE
            X509v3 Subject Key Identifier: 
                ED:3F:A8:AA:BE:CE:45:BD:88:FA:CE:F0:41:7F:2C:3F:21:F9:0F:2B
            X509v3 Authority Key Identifier: 
                keyid:46:E3:BD:7B:21:3B:09:79:F5:91:DD:C4:11:52:3C:A9:17:9C:07:0E
                DirName:/CN=team591-net
                serial:26:F4:38:1E:D9:61:22:C6:9A:09:E0:DE:90:9C:B2:25:63:75:A1:C3

            X509v3 Extended Key Usage: 
                TLS Web Client Authentication
            X509v3 Key Usage: 
                Digital Signature
    Signature Algorithm: sha256WithRSAEncryption
         56:b5:f2:37:27:fc:08:7b:bb:06:60:ea:4a:37:20:90:c4:0d:
         37:c2:ed:31:16:c0:99:fa:1b:c4:9a:9b:f4:c5:f2:3c:ba:a3:
         57:70:f9:6a:94:f9:89:03:23:07:13:56:48:64:ab:b4:73:dc:
         1f:f7:1e:84:20:05:b7:39:70:74:67:c9:09:8d:87:77:fa:69:
         6a:4f:d9:aa:ac:ef:ab:b2:d3:a8:fa:d4:34:a2:8f:7f:03:3f:
         35:06:c3:4a:15:49:fc:85:69:dc:51:77:89:c0:dc:7c:4f:ad:
         62:01:05:32:f4:f6:45:95:4a:c6:e2:e6:13:7b:b5:96:88:e7:
         06:b4:40:76:20:4a:21:3d:93:db:34:92:1e:4b:8b:df:e6:5c:
         09:57:e5:35:b4:0d:85:6e:e7:fa:3d:d1:2a:91:a0:df:12:82:
         d7:76:c8:80:b5:13:6e:14:4a:c0:05:2b:56:8a:1d:b0:db:b5:
         84:9f:06:4b:22:f3:a8:4d:c2:1a:fb:24:bd:01:e6:f9:5d:76:
         08:02:f9:ba:a2:6a:79:55:e1:2e:2f:0d:c5:02:91:0c:cb:91:
         83:fb:45:51:de:0a:39:ea:b1:e1:57:a5:ac:fa:dd:66:d7:11:
         06:54:d6:df:8f:4c:2d:22:50:a5:53:db:cd:cc:fd:d0:24:17:
         e4:17:1a:9d
-----BEGIN CERTIFICATE-----
MIIDXTCCAkWgAwIBAgIRAI4S8Ue3Gt4udY+B4QrzfqYwDQYJKoZIhvcNAQELBQAw
FjEUMBIGA1UEAwwLdGVhbTU5MS1uZXQwHhcNMjEwOTEzMDQwOTAzWhcNMjQwODI4
MDQwOTAzWjAZMRcwFQYDVQQDDA50ZWFtNTkxLWNsaWVudDCCASIwDQYJKoZIhvcN
AQEBBQADggEPADCCAQoCggEBANs3AM/7TNrUwZfZwMWppvyboa7tnKCOvaMlBEv2
T7yPLC/1gRkoYMvMDkCbl+Cq/cWgU8cMqB1P2X+c2fJc5sGRdJYJMclLDvehnjAA
rf7KhLpAgTIMDQv9vXdHUaeEwSaKdPToki/Efv7xzSrwYl5nHCP4oXzl+yXOl2wI
qenQfMXlvMa4oz8bBPZPorNZcc47MGyCSmvdnSL1phLxXcww1oy/944+Jq42ixE0
PspRVclAt5/SoS9BdtRoNLT8cNSGP7f/QNDS8wfiZIuyQuIgFpkLmn1bISEWxcuB
aEnijoIK+3h4sF7DG95ALLV+qiTZp0NQlxLT+qlol6lJX9UCAwEAAaOBojCBnzAJ
BgNVHRMEAjAAMB0GA1UdDgQWBBTtP6iqvs5FvYj6zvBBfyw/IfkPKzBRBgNVHSME
SjBIgBRG4717ITsJefWR3cQRUjypF5wHDqEapBgwFjEUMBIGA1UEAwwLdGVhbTU5
MS1uZXSCFCb0OB7ZYSLGmgng3pCcsiVjdaHDMBMGA1UdJQQMMAoGCCsGAQUFBwMC
MAsGA1UdDwQEAwIHgDANBgkqhkiG9w0BAQsFAAOCAQEAVrXyNyf8CHu7BmDqSjcg
kMQNN8LtMRbAmfobxJqb9MXyPLqjV3D5apT5iQMjBxNWSGSrtHPcH/cehCAFtzlw
dGfJCY2Hd/ppak/Zqqzvq7LTqPrUNKKPfwM/NQbDShVJ/IVp3FF3icDcfE+tYgEF
MvT2RZVKxuLmE3u1lojnBrRAdiBKIT2T2zSSHkuL3+ZcCVflNbQNhW7n+j3RKpGg
3xKC13bIgLUTbhRKwAUrVoodsNu1hJ8GSyLzqE3CGvskvQHm+V12CAL5uqJqeVXh
Li8NxQKRDMuRg/tFUd4KOeqx4VelrPrdZtcRBlTW349MLSJQpVPbzcz90CQX5Bca
nQ==
-----END CERTIFICATE-----
