Certificate:
    Data:
        Version: 3 (0x2)
        Serial Number:
            bd:00:d4:f5:8b:4a:83:91:31:23:5f:bc:b0:b7:5d:a0
        Signature Algorithm: sha256WithRSAEncryption
        Issuer: CN=team462-net
        Validity
            Not Before: Sep 13 02:54:26 2021 GMT
            Not After : Aug 28 02:54:26 2024 GMT
        Subject: CN=team462-client
        Subject Public Key Info:
            Public Key Algorithm: rsaEncryption
                RSA Public-Key: (2048 bit)
                Modulus:
                    00:ef:e4:88:39:98:d0:5c:ac:07:43:7d:b3:26:02:
                    c0:08:0d:c8:47:d8:52:53:36:71:99:d3:d2:55:bd:
                    77:41:25:ec:3c:93:c2:62:36:03:e9:21:80:60:00:
                    f6:6a:e0:8f:a3:33:c4:fb:4a:bc:98:ec:b5:2d:8f:
                    f5:ef:cd:82:53:b5:cd:42:16:04:a3:78:a6:91:93:
                    f4:fb:a5:d5:a0:40:60:ef:7a:24:ad:94:87:24:f0:
                    e3:34:71:d8:db:d0:87:68:bb:f6:e0:2b:e8:49:fd:
                    70:3b:1e:56:11:1e:ac:2c:97:4d:b9:d6:13:38:7a:
                    52:8b:c4:e0:46:90:8d:64:f8:a4:6e:c8:85:09:5c:
                    00:c7:e9:80:aa:00:bb:fd:94:34:43:16:da:33:fb:
                    c0:1c:cd:1f:87:e2:3b:eb:56:ce:6b:33:d4:99:f6:
                    a2:81:a4:24:c4:dd:4e:8b:27:ef:81:25:78:d9:a3:
                    4e:60:5b:68:48:61:b4:e4:d2:90:8f:b1:db:1c:a1:
                    48:16:84:84:89:a2:13:7d:5a:b7:c6:39:58:ba:26:
                    72:4b:ba:b7:a1:e2:cc:6d:10:9a:90:0e:9b:0c:da:
                    fd:04:45:f2:98:5f:7d:48:3c:03:4d:41:09:54:b6:
                    78:22:19:e8:64:ac:21:59:da:b5:53:0f:37:91:26:
                    ff:51
                Exponent: 65537 (0x10001)
        X509v3 extensions:
            X509v3 Basic Constraints: 
                CA:FALSE
            X509v3 Subject Key Identifier: 
                20:62:DD:A4:58:E9:33:A9:A4:D9:3B:E0:57:BF:8A:9B:49:0F:2C:A7
            X509v3 Authority Key Identifier: 
                keyid:87:CC:04:C3:67:CD:1E:84:BB:A9:1C:C1:46:87:AD:36:A4:5C:43:97
                DirName:/CN=team462-net
                serial:12:6C:B4:A5:E4:12:F8:3A:84:F3:E7:5F:9A:A4:67:2F:20:EA:85:91

            X509v3 Extended Key Usage: 
                TLS Web Client Authentication
            X509v3 Key Usage: 
                Digital Signature
    Signature Algorithm: sha256WithRSAEncryption
         2a:c0:52:3c:4f:03:29:4f:99:62:22:81:fd:61:75:50:18:ce:
         09:80:94:c1:9f:24:dc:d7:ee:99:d3:24:e8:2f:c6:c1:b8:16:
         a8:fa:7c:c5:32:5b:84:a2:07:f5:40:78:8c:dc:7f:80:fc:fd:
         7c:4d:c7:43:df:1a:f3:76:54:22:c5:f9:32:fa:66:2b:be:f9:
         fa:37:26:0a:1f:a8:50:45:95:d6:0f:d6:64:17:ec:d9:b4:66:
         c3:67:3a:a5:a9:dc:97:2e:57:57:10:79:fb:13:15:dc:00:3f:
         af:d6:79:c1:96:97:a7:f0:06:74:42:eb:15:f8:38:77:7a:71:
         5a:ef:88:70:f5:28:45:b0:70:a0:51:ca:0b:da:dd:c1:cf:c2:
         04:0b:3f:8a:d3:c9:4b:ef:b9:36:8b:49:d2:f0:05:ce:f2:57:
         0e:b9:2e:44:f7:0e:f0:95:ea:76:47:1d:65:99:16:5a:8a:e7:
         fc:fc:88:c6:2c:73:8d:b2:37:9d:53:8c:2e:fc:09:e0:f6:62:
         af:3d:2d:7e:48:d5:24:84:a5:64:5d:8b:99:6a:f7:a8:80:2d:
         07:cd:0f:93:c8:2c:43:a1:ee:49:97:56:c8:0b:68:f4:e3:e8:
         5b:88:63:72:23:ab:71:f3:c7:d1:c7:b4:f4:e6:67:87:4e:08:
         7f:24:16:2a
-----BEGIN CERTIFICATE-----
MIIDXTCCAkWgAwIBAgIRAL0A1PWLSoORMSNfvLC3XaAwDQYJKoZIhvcNAQELBQAw
FjEUMBIGA1UEAwwLdGVhbTQ2Mi1uZXQwHhcNMjEwOTEzMDI1NDI2WhcNMjQwODI4
MDI1NDI2WjAZMRcwFQYDVQQDDA50ZWFtNDYyLWNsaWVudDCCASIwDQYJKoZIhvcN
AQEBBQADggEPADCCAQoCggEBAO/kiDmY0FysB0N9syYCwAgNyEfYUlM2cZnT0lW9
d0El7DyTwmI2A+khgGAA9mrgj6MzxPtKvJjstS2P9e/NglO1zUIWBKN4ppGT9Pul
1aBAYO96JK2UhyTw4zRx2NvQh2i79uAr6En9cDseVhEerCyXTbnWEzh6UovE4EaQ
jWT4pG7IhQlcAMfpgKoAu/2UNEMW2jP7wBzNH4fiO+tWzmsz1Jn2ooGkJMTdTosn
74EleNmjTmBbaEhhtOTSkI+x2xyhSBaEhImiE31at8Y5WLomcku6t6HizG0QmpAO
mwza/QRF8phffUg8A01BCVS2eCIZ6GSsIVnatVMPN5Em/1ECAwEAAaOBojCBnzAJ
BgNVHRMEAjAAMB0GA1UdDgQWBBQgYt2kWOkzqaTZO+BXv4qbSQ8spzBRBgNVHSME
SjBIgBSHzATDZ80ehLupHMFGh602pFxDl6EapBgwFjEUMBIGA1UEAwwLdGVhbTQ2
Mi1uZXSCFBJstKXkEvg6hPPnX5qkZy8g6oWRMBMGA1UdJQQMMAoGCCsGAQUFBwMC
MAsGA1UdDwQEAwIHgDANBgkqhkiG9w0BAQsFAAOCAQEAKsBSPE8DKU+ZYiKB/WF1
UBjOCYCUwZ8k3NfumdMk6C/GwbgWqPp8xTJbhKIH9UB4jNx/gPz9fE3HQ98a83ZU
IsX5MvpmK775+jcmCh+oUEWV1g/WZBfs2bRmw2c6pancly5XVxB5+xMV3AA/r9Z5
wZaXp/AGdELrFfg4d3pxWu+IcPUoRbBwoFHKC9rdwc/CBAs/itPJS++5NotJ0vAF
zvJXDrkuRPcO8JXqdkcdZZkWWorn/PyIxixzjbI3nVOMLvwJ4PZirz0tfkjVJISl
ZF2LmWr3qIAtB80Pk8gsQ6HuSZdWyAto9OPoW4hjciOrcfPH0ce09OZnh04IfyQW
Kg==
-----END CERTIFICATE-----
