Certificate:
    Data:
        Version: 3 (0x2)
        Serial Number:
            26:ce:85:d0:f7:67:29:ca:96:d4:09:f9:82:6b:dd:48
        Signature Algorithm: sha256WithRSAEncryption
        Issuer: CN=team572-net
        Validity
            Not Before: Sep 13 03:59:10 2021 GMT
            Not After : Aug 28 03:59:10 2024 GMT
        Subject: CN=team572-client
        Subject Public Key Info:
            Public Key Algorithm: rsaEncryption
                RSA Public-Key: (2048 bit)
                Modulus:
                    00:da:0d:5d:09:0e:41:a7:1b:61:a0:b6:4d:bb:a2:
                    45:bd:94:95:ea:25:bf:86:07:37:87:8b:19:a5:33:
                    a3:30:22:c1:4c:72:06:e5:7d:90:9f:fe:32:13:28:
                    31:08:e0:97:e3:b3:88:39:38:3d:06:fd:d3:6c:a2:
                    72:75:27:b2:3f:e4:31:53:fa:80:78:00:95:4e:6f:
                    cc:a6:2e:0d:9a:ca:d9:4b:51:75:96:8f:77:ee:51:
                    ea:85:fe:24:49:ae:5d:3b:9a:d1:be:3b:04:61:24:
                    97:b6:30:fa:c1:71:53:5d:db:f0:86:7f:76:b3:59:
                    7a:e3:26:a1:db:37:8b:3a:53:6e:1b:c1:b4:79:6f:
                    4d:c8:e6:5a:51:0b:10:12:b4:74:1b:f2:f8:e3:36:
                    f5:c1:e1:61:98:df:ff:88:95:08:0f:2c:8a:ac:32:
                    29:c4:d3:12:99:10:ab:95:52:16:0a:69:62:2e:19:
                    da:3e:a4:02:dd:b1:ea:31:b2:36:b1:37:ee:b2:f3:
                    cc:cc:b8:20:f4:e3:e3:c4:0d:02:72:90:2c:fd:5c:
                    2f:d7:cd:b3:54:ce:2a:5b:89:0f:1f:17:f5:1a:21:
                    f3:81:0a:7d:71:27:64:41:bd:24:dd:d5:32:79:2a:
                    e5:95:e8:a4:65:cf:09:20:4f:b9:77:62:1a:92:d8:
                    ee:a5
                Exponent: 65537 (0x10001)
        X509v3 extensions:
            X509v3 Basic Constraints: 
                CA:FALSE
            X509v3 Subject Key Identifier: 
                12:FA:FC:14:48:B5:8D:1E:AB:BB:78:E3:BD:16:6A:3E:90:40:C5:D7
            X509v3 Authority Key Identifier: 
                keyid:27:45:95:FA:87:0B:07:77:1D:5F:00:76:84:0B:05:72:90:37:33:7E
                DirName:/CN=team572-net
                serial:31:26:21:FD:68:EA:73:B6:82:33:E4:35:F8:A8:6A:27:25:0E:B5:7D

            X509v3 Extended Key Usage: 
                TLS Web Client Authentication
            X509v3 Key Usage: 
                Digital Signature
    Signature Algorithm: sha256WithRSAEncryption
         a1:e7:53:54:f6:79:b1:98:4e:a9:8d:d8:80:af:2f:5e:68:d4:
         13:e2:8a:02:f9:fb:0e:e4:5d:58:b4:af:1e:e3:b9:11:22:80:
         63:16:63:f7:dc:9c:07:58:cb:fc:92:99:08:3f:b6:7b:9f:bd:
         f1:91:89:79:53:ec:44:b5:bf:47:9c:b8:4b:0c:a3:b5:ee:07:
         b9:34:25:86:67:dc:b2:fe:f1:8d:a8:10:1e:8e:8a:59:5b:8d:
         d2:1f:78:30:7d:3f:cd:b5:27:b6:a9:26:a1:fe:51:0e:af:a4:
         f7:f2:6f:a0:5e:45:7e:43:ca:b6:e2:bf:61:0a:01:5c:d6:32:
         4d:8d:ee:19:44:18:f9:6d:9d:f0:df:40:d4:3a:21:90:4b:49:
         91:5f:90:dc:27:f9:12:c3:e7:5d:bc:e9:5b:4f:24:72:04:0f:
         96:dd:1c:cb:24:33:81:7c:30:25:28:2c:e1:d0:03:4d:1f:0d:
         f0:50:0b:2d:35:9d:79:95:b8:28:40:ee:84:15:bf:9f:71:71:
         96:f0:90:00:42:c8:3a:2a:5a:4d:61:32:e1:52:36:f9:f7:e6:
         80:1b:8f:cc:39:6d:06:20:9e:52:b7:bc:5f:08:95:07:9d:01:
         c0:18:04:e3:21:dd:ed:92:33:94:a1:be:ea:f4:7c:52:2d:1d:
         b3:5c:09:5e
-----BEGIN CERTIFICATE-----
MIIDXDCCAkSgAwIBAgIQJs6F0PdnKcqW1An5gmvdSDANBgkqhkiG9w0BAQsFADAW
MRQwEgYDVQQDDAt0ZWFtNTcyLW5ldDAeFw0yMTA5MTMwMzU5MTBaFw0yNDA4Mjgw
MzU5MTBaMBkxFzAVBgNVBAMMDnRlYW01NzItY2xpZW50MIIBIjANBgkqhkiG9w0B
AQEFAAOCAQ8AMIIBCgKCAQEA2g1dCQ5BpxthoLZNu6JFvZSV6iW/hgc3h4sZpTOj
MCLBTHIG5X2Qn/4yEygxCOCX47OIOTg9Bv3TbKJydSeyP+QxU/qAeACVTm/Mpi4N
msrZS1F1lo937lHqhf4kSa5dO5rRvjsEYSSXtjD6wXFTXdvwhn92s1l64yah2zeL
OlNuG8G0eW9NyOZaUQsQErR0G/L44zb1weFhmN//iJUIDyyKrDIpxNMSmRCrlVIW
CmliLhnaPqQC3bHqMbI2sTfusvPMzLgg9OPjxA0CcpAs/Vwv182zVM4qW4kPHxf1
GiHzgQp9cSdkQb0k3dUyeSrlleikZc8JIE+5d2IaktjupQIDAQABo4GiMIGfMAkG
A1UdEwQCMAAwHQYDVR0OBBYEFBL6/BRItY0eq7t4470Waj6QQMXXMFEGA1UdIwRK
MEiAFCdFlfqHCwd3HV8AdoQLBXKQNzN+oRqkGDAWMRQwEgYDVQQDDAt0ZWFtNTcy
LW5ldIIUMSYh/Wjqc7aCM+Q1+KhqJyUOtX0wEwYDVR0lBAwwCgYIKwYBBQUHAwIw
CwYDVR0PBAQDAgeAMA0GCSqGSIb3DQEBCwUAA4IBAQCh51NU9nmxmE6pjdiAry9e
aNQT4ooC+fsO5F1YtK8e47kRIoBjFmP33JwHWMv8kpkIP7Z7n73xkYl5U+xEtb9H
nLhLDKO17ge5NCWGZ9yy/vGNqBAejopZW43SH3gwfT/NtSe2qSah/lEOr6T38m+g
XkV+Q8q24r9hCgFc1jJNje4ZRBj5bZ3w30DUOiGQS0mRX5DcJ/kSw+ddvOlbTyRy
BA+W3RzLJDOBfDAlKCzh0ANNHw3wUAstNZ15lbgoQO6EFb+fcXGW8JAAQsg6KlpN
YTLhUjb59+aAG4/MOW0GIJ5St7xfCJUHnQHAGATjId3tkjOUob7q9HxSLR2zXAle
-----END CERTIFICATE-----
