Certificate:
    Data:
        Version: 3 (0x2)
        Serial Number:
            c7:1c:56:b6:37:ac:d6:27:48:42:6c:50:42:32:73:27
        Signature Algorithm: sha256WithRSAEncryption
        Issuer: CN=team752-net
        Validity
            Not Before: Sep 13 05:56:31 2021 GMT
            Not After : Aug 28 05:56:31 2024 GMT
        Subject: CN=team752-client
        Subject Public Key Info:
            Public Key Algorithm: rsaEncryption
                RSA Public-Key: (2048 bit)
                Modulus:
                    00:eb:d3:2f:b4:82:59:6b:2c:8d:d0:fe:2d:47:9c:
                    d4:78:a3:ec:51:73:55:8f:b4:48:59:4b:f3:40:a1:
                    e9:2e:a8:03:6a:eb:79:21:1f:ab:48:65:a2:48:ce:
                    9b:92:9f:ce:e2:50:c5:98:a2:a6:b5:b2:58:e7:a0:
                    02:15:91:22:65:01:6f:e3:7b:bb:3d:b2:de:6c:d7:
                    28:89:24:52:01:18:ef:79:0b:3b:58:f6:11:56:bf:
                    92:83:1c:29:a3:3c:8f:3f:31:6e:b9:63:b2:f2:9b:
                    20:18:4d:6f:85:79:11:13:e4:93:38:0b:4a:f3:bd:
                    82:2e:22:41:30:b0:3a:5c:cc:cf:5d:a9:34:cb:40:
                    d9:7f:49:8d:ef:ba:67:71:9c:ae:7c:5b:3d:ed:9e:
                    14:5c:dd:7c:70:44:29:a8:96:d2:c3:a4:1c:47:46:
                    e3:a3:16:5a:38:76:b7:7b:66:a6:a6:4b:cd:91:c6:
                    f3:ee:2a:f5:0e:9f:6e:78:87:5a:15:15:86:c4:a7:
                    65:84:0f:06:d7:3f:e8:dd:d9:9a:a2:00:35:71:cc:
                    0c:a7:f1:73:a4:bc:20:31:6d:6e:de:db:90:e8:69:
                    61:77:b7:28:98:90:82:6f:8c:21:dc:bc:ff:65:07:
                    78:51:d1:a1:e6:a8:c9:b1:82:ad:4f:07:5c:0d:83:
                    27:65
                Exponent: 65537 (0x10001)
        X509v3 extensions:
            X509v3 Basic Constraints: 
                CA:FALSE
            X509v3 Subject Key Identifier: 
                B8:77:74:80:14:53:64:20:7E:51:1F:CF:63:88:20:F8:B4:BC:0A:B7
            X509v3 Authority Key Identifier: 
                keyid:E3:8D:FD:04:CB:D8:94:EE:AB:2A:1C:E3:29:E1:67:2B:BE:BD:0E:67
                DirName:/CN=team752-net
                serial:25:EE:83:A1:4A:8E:6F:95:EE:0C:1F:E6:AB:D3:E9:91:80:17:B2:AD

            X509v3 Extended Key Usage: 
                TLS Web Client Authentication
            X509v3 Key Usage: 
                Digital Signature
    Signature Algorithm: sha256WithRSAEncryption
         b5:d6:6d:b0:dc:d2:37:cf:27:66:fc:93:67:bf:ab:c3:3d:f4:
         cc:bc:20:b4:77:91:f4:5e:9e:dd:07:26:f8:30:d8:0b:49:9a:
         f0:74:3a:89:f1:eb:91:ce:21:dd:6e:a6:f5:54:e6:2f:7e:a5:
         af:47:89:27:71:67:71:2b:8a:1b:4c:d8:c3:6a:2f:15:63:42:
         87:5c:79:f6:a3:10:7c:23:e0:f9:3f:cb:3a:3b:56:d8:a5:03:
         7d:a1:79:72:a9:50:6d:09:00:0c:3a:0e:14:8f:d0:cf:3c:c7:
         92:b5:09:1d:b5:b8:85:4b:d5:e7:b1:5f:ee:dc:4d:40:2a:b6:
         34:67:c5:79:46:d7:42:c0:96:94:ac:b7:0e:10:c8:1a:4b:56:
         73:13:c7:d2:4d:0d:ec:ad:2f:94:c2:40:24:66:29:b5:f6:74:
         69:a9:3f:d8:0a:25:54:18:d3:d4:e9:ed:e7:b5:9d:0f:13:7b:
         b6:3f:d9:63:00:c7:45:f0:72:3f:3a:80:30:ba:51:05:45:87:
         d8:6e:c3:d2:b4:3b:fa:82:66:11:06:8c:12:f2:fd:b6:33:38:
         61:1e:f1:4c:a9:28:95:59:b8:f6:da:b8:f2:cb:83:9a:7d:0d:
         70:87:fc:5b:87:90:57:3f:24:40:f3:8a:ef:06:0c:27:db:54:
         ed:01:13:e2
-----BEGIN CERTIFICATE-----
MIIDXTCCAkWgAwIBAgIRAMccVrY3rNYnSEJsUEIycycwDQYJKoZIhvcNAQELBQAw
FjEUMBIGA1UEAwwLdGVhbTc1Mi1uZXQwHhcNMjEwOTEzMDU1NjMxWhcNMjQwODI4
MDU1NjMxWjAZMRcwFQYDVQQDDA50ZWFtNzUyLWNsaWVudDCCASIwDQYJKoZIhvcN
AQEBBQADggEPADCCAQoCggEBAOvTL7SCWWssjdD+LUec1Hij7FFzVY+0SFlL80Ch
6S6oA2rreSEfq0hlokjOm5KfzuJQxZiiprWyWOegAhWRImUBb+N7uz2y3mzXKIkk
UgEY73kLO1j2EVa/koMcKaM8jz8xbrljsvKbIBhNb4V5ERPkkzgLSvO9gi4iQTCw
OlzMz12pNMtA2X9Jje+6Z3GcrnxbPe2eFFzdfHBEKaiW0sOkHEdG46MWWjh2t3tm
pqZLzZHG8+4q9Q6fbniHWhUVhsSnZYQPBtc/6N3ZmqIANXHMDKfxc6S8IDFtbt7b
kOhpYXe3KJiQgm+MIdy8/2UHeFHRoeaoybGCrU8HXA2DJ2UCAwEAAaOBojCBnzAJ
BgNVHRMEAjAAMB0GA1UdDgQWBBS4d3SAFFNkIH5RH89jiCD4tLwKtzBRBgNVHSME
SjBIgBTjjf0Ey9iU7qsqHOMp4Wcrvr0OZ6EapBgwFjEUMBIGA1UEAwwLdGVhbTc1
Mi1uZXSCFCXug6FKjm+V7gwf5qvT6ZGAF7KtMBMGA1UdJQQMMAoGCCsGAQUFBwMC
MAsGA1UdDwQEAwIHgDANBgkqhkiG9w0BAQsFAAOCAQEAtdZtsNzSN88nZvyTZ7+r
wz30zLwgtHeR9F6e3Qcm+DDYC0ma8HQ6ifHrkc4h3W6m9VTmL36lr0eJJ3FncSuK
G0zYw2ovFWNCh1x59qMQfCPg+T/LOjtW2KUDfaF5cqlQbQkADDoOFI/QzzzHkrUJ
HbW4hUvV57Ff7txNQCq2NGfFeUbXQsCWlKy3DhDIGktWcxPH0k0N7K0vlMJAJGYp
tfZ0aak/2AolVBjT1Ont57WdDxN7tj/ZYwDHRfByPzqAMLpRBUWH2G7D0rQ7+oJm
EQaMEvL9tjM4YR7xTKkolVm49tq48suDmn0NcIf8W4eQVz8kQPOK7wYMJ9tU7QET
4g==
-----END CERTIFICATE-----
