Certificate:
    Data:
        Version: 3 (0x2)
        Serial Number:
            c0:c1:f7:3f:f1:a0:dd:fd:68:4c:8e:d4:c8:c1:4b:48
        Signature Algorithm: sha256WithRSAEncryption
        Issuer: CN=team667-net
        Validity
            Not Before: Sep 13 04:58:21 2021 GMT
            Not After : Aug 28 04:58:21 2024 GMT
        Subject: CN=team667-server
        Subject Public Key Info:
            Public Key Algorithm: rsaEncryption
                RSA Public-Key: (2048 bit)
                Modulus:
                    00:c3:ca:87:9d:2e:8e:06:9e:ed:23:0b:54:30:39:
                    ea:7f:84:96:32:42:1c:ac:39:98:73:45:42:a9:a6:
                    18:da:58:67:c3:d5:49:61:35:3d:f4:a8:0a:b4:20:
                    26:5a:fe:21:66:8c:c6:44:47:63:0f:a9:62:89:c3:
                    ca:a3:8b:1b:8f:eb:85:89:10:59:d6:40:14:c9:07:
                    66:fd:cf:ad:e8:8f:83:1d:16:71:c5:e5:24:72:dd:
                    cc:37:dd:72:84:96:ab:dd:22:e0:f5:ca:1e:9d:1e:
                    c3:21:6d:b6:51:83:9f:c5:6f:d8:9a:eb:2f:7c:53:
                    83:44:c8:fb:07:fa:45:b9:a6:e2:9f:a0:c1:c7:9c:
                    f0:1e:8e:4e:06:7f:b4:53:60:18:3b:fc:36:ff:8b:
                    7e:2e:26:e8:7c:56:16:30:ac:c2:28:bc:98:b7:c0:
                    55:57:bd:80:ad:0b:ae:50:0f:eb:1a:69:ef:ec:65:
                    53:fd:76:31:20:b2:0f:17:e1:e7:1d:4c:fa:a8:c9:
                    6c:f7:d3:ba:51:97:84:4a:4a:d0:12:b2:0f:2b:3c:
                    b2:a7:99:4e:c9:10:48:59:ae:75:41:f9:ae:dd:5b:
                    56:f4:72:de:b5:73:6f:96:d0:f0:61:ca:1f:0f:ff:
                    99:ba:29:84:7c:a5:a7:9a:7f:a9:f7:e3:9a:64:53:
                    cb:cb
                Exponent: 65537 (0x10001)
        X509v3 extensions:
            X509v3 Basic Constraints: 
                CA:FALSE
            X509v3 Subject Key Identifier: 
                96:F4:AB:D3:5A:81:B5:02:4C:C7:2F:58:EB:BB:A0:5C:C9:40:16:0B
            X509v3 Authority Key Identifier: 
                keyid:35:13:8D:AA:DB:DF:20:E2:7C:20:FF:9C:E7:E6:72:35:E5:12:AE:88
                DirName:/CN=team667-net
                serial:53:3C:B6:41:F9:53:9B:99:9E:23:EB:94:36:E5:11:54:D5:48:25:56

            X509v3 Extended Key Usage: 
                TLS Web Server Authentication
            X509v3 Key Usage: 
                Digital Signature, Key Encipherment
            X509v3 Subject Alternative Name: 
                DNS:team667-server
    Signature Algorithm: sha256WithRSAEncryption
         1a:ab:5d:d3:96:f6:e9:1e:79:19:47:37:f8:a6:41:42:2c:29:
         77:b6:15:9d:50:5d:2f:03:52:e2:e9:f5:75:ff:db:2e:1d:10:
         2b:ff:3e:15:2e:23:be:16:6a:95:23:f3:a0:e7:8f:d2:58:02:
         4a:9e:1a:0a:9e:3e:96:75:cb:fb:8b:0a:37:12:e3:89:97:7e:
         a9:29:7e:c7:3a:bc:0e:46:2d:48:0c:11:37:88:64:89:2e:25:
         51:db:37:f0:83:f7:af:8e:85:b9:c9:c6:82:27:88:c4:92:b0:
         25:67:fc:56:b3:41:34:9f:53:64:59:cb:15:04:fe:34:38:23:
         b6:18:b4:12:36:91:8d:bd:72:38:21:68:f7:cf:04:43:06:18:
         f1:13:de:fe:2d:35:b0:8e:35:48:18:64:d1:b7:99:4e:f4:0c:
         c9:54:bc:15:33:54:18:53:33:01:f9:ef:d3:73:bc:7a:aa:f7:
         4f:20:45:45:38:ec:bd:6b:20:25:6d:51:1a:2a:37:38:0c:0a:
         64:df:29:83:54:ff:41:3e:20:fe:db:ff:6d:a7:0e:de:ee:c5:
         be:c2:c0:b6:57:f3:77:a3:e3:5c:60:f5:2c:7d:42:3e:b7:52:
         a3:55:67:91:89:fc:56:f3:ec:56:ca:9e:db:7d:39:16:fd:43:
         8a:f1:47:e7
-----BEGIN CERTIFICATE-----
MIIDeDCCAmCgAwIBAgIRAMDB9z/xoN39aEyO1MjBS0gwDQYJKoZIhvcNAQELBQAw
FjEUMBIGA1UEAwwLdGVhbTY2Ny1uZXQwHhcNMjEwOTEzMDQ1ODIxWhcNMjQwODI4
MDQ1ODIxWjAZMRcwFQYDVQQDDA50ZWFtNjY3LXNlcnZlcjCCASIwDQYJKoZIhvcN
AQEBBQADggEPADCCAQoCggEBAMPKh50ujgae7SMLVDA56n+EljJCHKw5mHNFQqmm
GNpYZ8PVSWE1PfSoCrQgJlr+IWaMxkRHYw+pYonDyqOLG4/rhYkQWdZAFMkHZv3P
reiPgx0WccXlJHLdzDfdcoSWq90i4PXKHp0ewyFttlGDn8Vv2JrrL3xTg0TI+wf6
Rbmm4p+gwcec8B6OTgZ/tFNgGDv8Nv+Lfi4m6HxWFjCswii8mLfAVVe9gK0LrlAP
6xpp7+xlU/12MSCyDxfh5x1M+qjJbPfTulGXhEpK0BKyDys8sqeZTskQSFmudUH5
rt1bVvRy3rVzb5bQ8GHKHw//mbophHylp5p/qffjmmRTy8sCAwEAAaOBvTCBujAJ
BgNVHRMEAjAAMB0GA1UdDgQWBBSW9KvTWoG1AkzHL1jru6BcyUAWCzBRBgNVHSME
SjBIgBQ1E42q298g4nwg/5zn5nI15RKuiKEapBgwFjEUMBIGA1UEAwwLdGVhbTY2
Ny1uZXSCFFM8tkH5U5uZniPrlDblEVTVSCVWMBMGA1UdJQQMMAoGCCsGAQUFBwMB
MAsGA1UdDwQEAwIFoDAZBgNVHREEEjAQgg50ZWFtNjY3LXNlcnZlcjANBgkqhkiG
9w0BAQsFAAOCAQEAGqtd05b26R55GUc3+KZBQiwpd7YVnVBdLwNS4un1df/bLh0Q
K/8+FS4jvhZqlSPzoOeP0lgCSp4aCp4+lnXL+4sKNxLjiZd+qSl+xzq8DkYtSAwR
N4hkiS4lUds38IP3r46FucnGgieIxJKwJWf8VrNBNJ9TZFnLFQT+NDgjthi0EjaR
jb1yOCFo988EQwYY8RPe/i01sI41SBhk0beZTvQMyVS8FTNUGFMzAfnv03O8eqr3
TyBFRTjsvWsgJW1RGio3OAwKZN8pg1T/QT4g/tv/bacO3u7FvsLAtlfzd6PjXGD1
LH1CPrdSo1VnkYn8VvPsVsqe2305Fv1DivFH5w==
-----END CERTIFICATE-----
