Certificate:
    Data:
        Version: 3 (0x2)
        Serial Number:
            8a:7c:6a:e4:d7:9b:78:e1:5f:bf:3f:b9:10:21:c6:36
        Signature Algorithm: sha256WithRSAEncryption
        Issuer: CN=team405-net
        Validity
            Not Before: Sep 13 02:21:31 2021 GMT
            Not After : Aug 28 02:21:31 2024 GMT
        Subject: CN=team405-client
        Subject Public Key Info:
            Public Key Algorithm: rsaEncryption
                RSA Public-Key: (2048 bit)
                Modulus:
                    00:e6:4c:09:c2:8c:86:13:87:3f:f6:9c:6e:34:c9:
                    aa:3f:25:b0:24:3a:51:4b:7f:1c:51:a6:6a:41:b3:
                    d1:89:38:ca:8b:5a:d5:27:33:46:a4:4e:ef:0b:a5:
                    a2:f5:9c:16:c3:e7:69:e5:d8:cc:2d:90:aa:68:c2:
                    37:65:b5:76:4d:23:0f:5d:c6:5d:df:bb:d3:d4:86:
                    1b:2d:8e:b8:7a:6a:1b:20:65:97:0f:d2:c9:ec:c4:
                    fe:5f:cc:4a:87:79:a6:eb:ae:80:2b:72:c1:e6:5e:
                    50:76:65:06:1e:13:d2:bf:fd:33:97:23:4d:af:30:
                    b2:1a:f0:e2:d7:f8:ab:af:3d:ab:d3:23:fb:29:27:
                    df:ab:50:88:10:40:0d:ed:87:23:2c:52:4c:2e:f4:
                    10:56:f2:71:75:81:ec:4d:8d:d1:a9:e1:2a:f0:cb:
                    37:3c:b9:51:5c:a3:22:24:f6:eb:2a:84:de:bf:30:
                    1d:54:fd:a9:21:41:4b:1f:21:e8:5c:77:e8:ff:ec:
                    8d:6e:a5:e2:6b:d7:bc:aa:cd:cc:31:ef:bf:a0:f2:
                    1b:88:a0:8b:9d:0c:e0:73:c2:ae:9c:a6:17:f8:cd:
                    1b:a1:85:08:ab:58:85:9a:73:c2:21:6f:f7:94:75:
                    36:0e:54:b3:58:a5:81:d3:13:7d:8c:13:e3:22:b8:
                    ff:d7
                Exponent: 65537 (0x10001)
        X509v3 extensions:
            X509v3 Basic Constraints: 
                CA:FALSE
            X509v3 Subject Key Identifier: 
                FC:C2:AA:CB:90:06:2E:6C:E0:B1:04:A8:C9:82:08:7B:67:88:1E:B1
            X509v3 Authority Key Identifier: 
                keyid:D8:0A:62:A6:AF:7D:89:8A:3D:D2:21:21:B6:06:A5:C3:07:40:BE:C5
                DirName:/CN=team405-net
                serial:35:B9:58:DB:13:FE:43:3F:06:77:8F:AD:E5:09:EA:50:76:C8:10:47

            X509v3 Extended Key Usage: 
                TLS Web Client Authentication
            X509v3 Key Usage: 
                Digital Signature
    Signature Algorithm: sha256WithRSAEncryption
         66:42:d0:4c:a5:9a:b3:7f:f3:4a:20:59:73:d2:e4:e9:cc:48:
         9b:48:59:08:78:0f:f7:19:98:e2:fc:e9:0f:f5:ab:76:85:e1:
         83:db:c6:5e:35:d3:bc:3b:5e:a1:23:ce:38:28:c2:2c:8c:26:
         52:41:91:67:e3:ba:1c:c2:25:b2:23:ed:90:5d:b4:ca:ab:65:
         83:ae:36:ef:6f:96:a8:28:5d:9f:06:8a:c2:2f:c2:17:f4:ad:
         d4:09:ae:70:54:37:44:56:45:e2:32:4b:0d:10:81:a6:ab:51:
         ba:04:a8:da:27:1f:e3:fa:be:92:2a:3e:91:71:3b:41:96:ff:
         c3:87:62:6c:2f:35:2b:d0:16:5d:b5:89:9c:53:df:b7:b7:ec:
         cb:4a:5c:1c:0b:3c:bf:a0:8d:a1:80:8b:37:37:88:94:c8:77:
         cb:4b:3b:59:88:c9:20:a2:4f:2d:26:a9:10:4f:c6:63:0e:4c:
         2d:29:7c:74:f2:c8:06:3c:8b:d4:fc:dd:7f:e7:03:0e:b3:e1:
         e6:d2:d3:33:6c:a2:07:54:96:5a:18:71:7d:42:d3:11:de:ca:
         fe:02:44:2a:36:ae:19:95:d8:c8:f9:36:76:da:ed:c7:2f:81:
         64:6e:70:ef:53:7b:3c:3f:6f:8e:96:57:26:0f:cc:6e:be:20:
         d6:9d:29:25
-----BEGIN CERTIFICATE-----
MIIDXTCCAkWgAwIBAgIRAIp8auTXm3jhX78/uRAhxjYwDQYJKoZIhvcNAQELBQAw
FjEUMBIGA1UEAwwLdGVhbTQwNS1uZXQwHhcNMjEwOTEzMDIyMTMxWhcNMjQwODI4
MDIyMTMxWjAZMRcwFQYDVQQDDA50ZWFtNDA1LWNsaWVudDCCASIwDQYJKoZIhvcN
AQEBBQADggEPADCCAQoCggEBAOZMCcKMhhOHP/acbjTJqj8lsCQ6UUt/HFGmakGz
0Yk4yota1SczRqRO7wulovWcFsPnaeXYzC2QqmjCN2W1dk0jD13GXd+709SGGy2O
uHpqGyBllw/SyezE/l/MSod5puuugCtyweZeUHZlBh4T0r/9M5cjTa8wshrw4tf4
q689q9Mj+ykn36tQiBBADe2HIyxSTC70EFbycXWB7E2N0anhKvDLNzy5UVyjIiT2
6yqE3r8wHVT9qSFBSx8h6Fx36P/sjW6l4mvXvKrNzDHvv6DyG4igi50M4HPCrpym
F/jNG6GFCKtYhZpzwiFv95R1Ng5Us1ilgdMTfYwT4yK4/9cCAwEAAaOBojCBnzAJ
BgNVHRMEAjAAMB0GA1UdDgQWBBT8wqrLkAYubOCxBKjJggh7Z4gesTBRBgNVHSME
SjBIgBTYCmKmr32Jij3SISG2BqXDB0C+xaEapBgwFjEUMBIGA1UEAwwLdGVhbTQw
NS1uZXSCFDW5WNsT/kM/BnePreUJ6lB2yBBHMBMGA1UdJQQMMAoGCCsGAQUFBwMC
MAsGA1UdDwQEAwIHgDANBgkqhkiG9w0BAQsFAAOCAQEAZkLQTKWas3/zSiBZc9Lk
6cxIm0hZCHgP9xmY4vzpD/WrdoXhg9vGXjXTvDteoSPOOCjCLIwmUkGRZ+O6HMIl
siPtkF20yqtlg64272+WqChdnwaKwi/CF/St1AmucFQ3RFZF4jJLDRCBpqtRugSo
2icf4/q+kio+kXE7QZb/w4dibC81K9AWXbWJnFPft7fsy0pcHAs8v6CNoYCLNzeI
lMh3y0s7WYjJIKJPLSapEE/GYw5MLSl8dPLIBjyL1Pzdf+cDDrPh5tLTM2yiB1SW
WhhxfULTEd7K/gJEKjauGZXYyPk2dtrtxy+BZG5w71N7PD9vjpZXJg/Mbr4g1p0p
JQ==
-----END CERTIFICATE-----
