Certificate:
    Data:
        Version: 3 (0x2)
        Serial Number:
            56:7c:ca:97:64:f7:6d:87:97:60:29:89:9e:23:18:6a
        Signature Algorithm: sha256WithRSAEncryption
        Issuer: CN=team457-net
        Validity
            Not Before: Sep 13 02:45:14 2021 GMT
            Not After : Aug 28 02:45:14 2024 GMT
        Subject: CN=team457-server
        Subject Public Key Info:
            Public Key Algorithm: rsaEncryption
                RSA Public-Key: (2048 bit)
                Modulus:
                    00:c6:77:62:1d:c7:77:ce:fc:30:ed:45:ab:1b:7b:
                    8c:3f:28:ba:04:10:36:09:65:b6:44:18:7e:00:d0:
                    dd:bf:99:cb:11:f6:b5:37:5a:1b:36:9c:24:79:d1:
                    16:49:88:69:e9:41:02:56:75:cd:aa:01:4a:22:b0:
                    ef:9f:2f:59:8c:1d:a0:f4:ea:03:50:62:b2:0a:20:
                    97:d8:ee:96:5d:57:9a:8f:f8:50:fa:47:b9:0c:8b:
                    4b:1c:7d:ae:ff:ec:d2:29:49:0e:b7:d4:b0:e8:c4:
                    8c:ed:a0:8d:89:35:9d:b9:cb:63:31:dd:42:92:65:
                    06:d3:b4:0b:72:5f:72:d8:5c:3b:ad:b7:74:b5:af:
                    ac:73:05:0e:05:fb:dd:2d:fb:1d:a0:09:03:f4:36:
                    19:d4:f0:53:25:64:fe:93:a0:95:e8:a0:c1:19:9f:
                    c6:e8:aa:e4:3c:89:a0:b9:c3:26:d1:25:53:d1:d1:
                    1f:56:26:64:62:70:32:7b:d7:85:35:20:93:11:11:
                    2f:38:5a:0a:27:58:85:60:28:da:f8:7d:ff:95:4f:
                    ab:b3:dc:39:56:37:f4:a7:95:a1:0b:a2:9b:6a:24:
                    93:3e:4b:0c:15:fc:a4:1d:29:dc:75:dc:a7:ca:8f:
                    a2:6c:ae:64:53:49:1e:4a:7f:c4:5b:e0:f8:b7:23:
                    4f:e5
                Exponent: 65537 (0x10001)
        X509v3 extensions:
            X509v3 Basic Constraints: 
                CA:FALSE
            X509v3 Subject Key Identifier: 
                0D:EF:40:30:1C:47:08:D9:77:A0:DA:21:35:48:6A:4D:60:67:59:82
            X509v3 Authority Key Identifier: 
                keyid:0D:3E:CE:88:2B:C3:C9:60:E6:3D:E9:70:7B:EE:E9:02:7F:B9:E4:F2
                DirName:/CN=team457-net
                serial:54:1A:8A:21:8C:BD:76:8E:9A:36:2D:25:B7:EE:54:04:BD:27:F7:3A

            X509v3 Extended Key Usage: 
                TLS Web Server Authentication
            X509v3 Key Usage: 
                Digital Signature, Key Encipherment
            X509v3 Subject Alternative Name: 
                DNS:team457-server
    Signature Algorithm: sha256WithRSAEncryption
         0b:1c:02:00:80:4b:1a:d5:7a:b7:e9:b0:8f:7c:e6:8c:05:0b:
         41:cc:79:a6:6d:e9:26:5c:0a:24:bc:75:de:4f:91:b7:b5:a4:
         0f:3e:01:a3:f3:dc:5a:47:4b:c9:cc:39:a8:6e:73:20:aa:f7:
         30:f2:d8:cc:1b:ff:01:a5:67:52:96:5e:33:19:a2:ec:c3:a2:
         43:7d:e6:a5:95:65:65:65:b3:cc:0a:90:bc:62:5e:66:1a:8f:
         49:57:e9:1d:01:60:71:98:29:46:b9:7b:d1:ee:90:9a:28:89:
         36:35:61:3a:a5:06:85:b3:69:53:63:43:7c:9b:2d:49:ca:24:
         e5:68:a4:38:9d:8f:ee:11:2f:92:7d:ba:2f:19:53:cd:56:56:
         60:3e:40:2a:d3:47:92:89:3a:c0:f0:cb:0f:1a:5d:05:7f:9c:
         16:b2:c3:6c:05:9b:ee:a8:55:21:01:09:1c:47:67:3b:e0:f2:
         b2:b3:05:0f:4d:37:49:7c:41:d6:f5:a4:bc:8a:df:e7:f4:33:
         35:58:8e:68:94:11:00:a1:57:e3:09:cc:5a:12:b3:ce:fa:0b:
         ce:52:57:68:86:e7:e9:68:92:63:1b:07:e9:cb:9b:c7:e4:98:
         86:b2:ac:de:4d:5b:5d:3f:52:b9:7f:36:c8:38:49:31:e5:5b:
         f9:5e:0a:88
-----BEGIN CERTIFICATE-----
MIIDdzCCAl+gAwIBAgIQVnzKl2T3bYeXYCmJniMYajANBgkqhkiG9w0BAQsFADAW
MRQwEgYDVQQDDAt0ZWFtNDU3LW5ldDAeFw0yMTA5MTMwMjQ1MTRaFw0yNDA4Mjgw
MjQ1MTRaMBkxFzAVBgNVBAMMDnRlYW00NTctc2VydmVyMIIBIjANBgkqhkiG9w0B
AQEFAAOCAQ8AMIIBCgKCAQEAxndiHcd3zvww7UWrG3uMPyi6BBA2CWW2RBh+ANDd
v5nLEfa1N1obNpwkedEWSYhp6UECVnXNqgFKIrDvny9ZjB2g9OoDUGKyCiCX2O6W
XVeaj/hQ+ke5DItLHH2u/+zSKUkOt9Sw6MSM7aCNiTWductjMd1CkmUG07QLcl9y
2Fw7rbd0ta+scwUOBfvdLfsdoAkD9DYZ1PBTJWT+k6CV6KDBGZ/G6KrkPImgucMm
0SVT0dEfViZkYnAye9eFNSCTEREvOFoKJ1iFYCja+H3/lU+rs9w5Vjf0p5WhC6Kb
aiSTPksMFfykHSncddynyo+ibK5kU0keSn/EW+D4tyNP5QIDAQABo4G9MIG6MAkG
A1UdEwQCMAAwHQYDVR0OBBYEFA3vQDAcRwjZd6DaITVIak1gZ1mCMFEGA1UdIwRK
MEiAFA0+zogrw8lg5j3pcHvu6QJ/ueTyoRqkGDAWMRQwEgYDVQQDDAt0ZWFtNDU3
LW5ldIIUVBqKIYy9do6aNi0lt+5UBL0n9zowEwYDVR0lBAwwCgYIKwYBBQUHAwEw
CwYDVR0PBAQDAgWgMBkGA1UdEQQSMBCCDnRlYW00NTctc2VydmVyMA0GCSqGSIb3
DQEBCwUAA4IBAQALHAIAgEsa1Xq36bCPfOaMBQtBzHmmbekmXAokvHXeT5G3taQP
PgGj89xaR0vJzDmobnMgqvcw8tjMG/8BpWdSll4zGaLsw6JDfeallWVlZbPMCpC8
Yl5mGo9JV+kdAWBxmClGuXvR7pCaKIk2NWE6pQaFs2lTY0N8my1JyiTlaKQ4nY/u
ES+SfbovGVPNVlZgPkAq00eSiTrA8MsPGl0Ff5wWssNsBZvuqFUhAQkcR2c74PKy
swUPTTdJfEHW9aS8it/n9DM1WI5olBEAoVfjCcxaErPO+gvOUldohufpaJJjGwfp
y5vH5JiGsqzeTVtdP1K5fzbIOEkx5Vv5XgqI
-----END CERTIFICATE-----
