Certificate:
    Data:
        Version: 3 (0x2)
        Serial Number:
            5e:2f:c8:94:88:49:8f:c1:45:47:16:f7:9c:d8:68:28
        Signature Algorithm: sha256WithRSAEncryption
        Issuer: CN=team457-net
        Validity
            Not Before: Sep 13 02:45:14 2021 GMT
            Not After : Aug 28 02:45:14 2024 GMT
        Subject: CN=team457-client
        Subject Public Key Info:
            Public Key Algorithm: rsaEncryption
                RSA Public-Key: (2048 bit)
                Modulus:
                    00:99:e2:49:60:11:c3:0d:0b:f8:d7:b8:f9:25:5a:
                    d7:1a:ee:0b:c4:a8:3f:b0:8a:b5:9c:31:62:51:56:
                    5c:ff:12:d3:c6:48:d1:c5:ad:de:24:8d:d2:16:4e:
                    ed:7e:08:f1:47:cc:80:07:21:e0:27:c7:bf:0f:14:
                    d3:15:60:62:49:d3:d3:e1:bd:9e:4f:be:3a:85:8c:
                    18:eb:27:cc:cc:9c:fb:98:05:d4:a1:0f:de:d2:b7:
                    e2:eb:57:c2:d4:88:14:ba:27:27:16:84:92:cf:4f:
                    d9:b4:48:c4:06:3a:8f:39:37:6d:82:33:6c:77:19:
                    ea:36:fe:0c:bd:24:24:23:de:92:f0:db:ef:e0:6b:
                    b0:5b:ce:7b:92:95:37:e6:8c:ee:29:f1:47:f7:f2:
                    0e:b1:61:6b:d1:ff:16:fe:f0:df:ad:25:75:66:6d:
                    5c:49:89:d2:e1:f6:8c:1e:28:ff:7a:ea:df:91:47:
                    0e:c5:cf:ab:d6:c0:a5:f8:b0:d9:b6:f6:db:4e:25:
                    65:56:52:c9:f7:62:67:8f:d7:a0:51:fa:a1:19:b5:
                    67:f0:9f:40:8e:26:a3:df:61:e1:08:a1:83:12:80:
                    70:6e:cc:f8:46:6f:6b:22:e7:e5:db:cc:5a:bd:b4:
                    86:19:85:65:c9:61:da:7b:27:22:07:59:c6:3b:18:
                    c3:6b
                Exponent: 65537 (0x10001)
        X509v3 extensions:
            X509v3 Basic Constraints: 
                CA:FALSE
            X509v3 Subject Key Identifier: 
                D7:D8:86:44:F0:4E:9D:E0:41:56:DB:2A:1D:21:07:65:A1:C9:88:2F
            X509v3 Authority Key Identifier: 
                keyid:0D:3E:CE:88:2B:C3:C9:60:E6:3D:E9:70:7B:EE:E9:02:7F:B9:E4:F2
                DirName:/CN=team457-net
                serial:54:1A:8A:21:8C:BD:76:8E:9A:36:2D:25:B7:EE:54:04:BD:27:F7:3A

            X509v3 Extended Key Usage: 
                TLS Web Client Authentication
            X509v3 Key Usage: 
                Digital Signature
    Signature Algorithm: sha256WithRSAEncryption
         a4:e0:42:fb:a2:85:95:6e:28:60:7d:93:67:5d:8f:97:7d:8d:
         0a:62:6c:66:58:85:ee:a4:85:e9:66:f3:9c:34:20:b9:fe:99:
         80:ec:25:43:34:b0:4e:17:e5:d7:23:95:31:06:f3:53:70:3b:
         33:54:00:0f:94:a7:bb:2f:5f:f2:d9:7d:5e:57:b6:72:b1:d9:
         3c:d3:0b:6c:fe:9f:a3:5d:da:c7:47:a3:16:da:9f:df:06:a2:
         aa:7b:b9:2d:f9:3f:6a:00:ee:09:52:8c:af:fa:8b:3f:d7:50:
         6c:01:b6:91:c4:23:59:fa:26:e2:11:00:30:6f:7a:20:bd:f2:
         ab:8d:e7:8b:70:3b:59:36:ff:5a:d9:24:9a:5d:f2:0f:b1:53:
         c0:c6:32:d0:44:01:46:cb:e7:a2:e6:25:16:52:0b:e5:b9:7a:
         6a:0b:5c:9c:85:09:01:ae:3e:29:00:e5:d3:6f:d5:bd:1f:45:
         ff:16:8f:cf:4a:0b:06:63:32:90:4f:4d:07:13:ce:ea:d6:f5:
         0f:33:66:df:fb:f2:4e:62:78:9d:ee:d0:08:67:94:c6:d3:34:
         a4:84:a0:c1:57:45:d2:cb:e9:68:56:61:ff:4e:79:67:91:ad:
         3b:bb:95:c7:f2:0d:ea:fb:cd:64:e5:e0:f5:5e:e8:9c:6b:1b:
         71:67:0e:ec
-----BEGIN CERTIFICATE-----
MIIDXDCCAkSgAwIBAgIQXi/IlIhJj8FFRxb3nNhoKDANBgkqhkiG9w0BAQsFADAW
MRQwEgYDVQQDDAt0ZWFtNDU3LW5ldDAeFw0yMTA5MTMwMjQ1MTRaFw0yNDA4Mjgw
MjQ1MTRaMBkxFzAVBgNVBAMMDnRlYW00NTctY2xpZW50MIIBIjANBgkqhkiG9w0B
AQEFAAOCAQ8AMIIBCgKCAQEAmeJJYBHDDQv417j5JVrXGu4LxKg/sIq1nDFiUVZc
/xLTxkjRxa3eJI3SFk7tfgjxR8yAByHgJ8e/DxTTFWBiSdPT4b2eT746hYwY6yfM
zJz7mAXUoQ/e0rfi61fC1IgUuicnFoSSz0/ZtEjEBjqPOTdtgjNsdxnqNv4MvSQk
I96S8Nvv4GuwW857kpU35ozuKfFH9/IOsWFr0f8W/vDfrSV1Zm1cSYnS4faMHij/
eurfkUcOxc+r1sCl+LDZtvbbTiVlVlLJ92Jnj9egUfqhGbVn8J9Ajiaj32HhCKGD
EoBwbsz4Rm9rIufl28xavbSGGYVlyWHaeyciB1nGOxjDawIDAQABo4GiMIGfMAkG
A1UdEwQCMAAwHQYDVR0OBBYEFNfYhkTwTp3gQVbbKh0hB2WhyYgvMFEGA1UdIwRK
MEiAFA0+zogrw8lg5j3pcHvu6QJ/ueTyoRqkGDAWMRQwEgYDVQQDDAt0ZWFtNDU3
LW5ldIIUVBqKIYy9do6aNi0lt+5UBL0n9zowEwYDVR0lBAwwCgYIKwYBBQUHAwIw
CwYDVR0PBAQDAgeAMA0GCSqGSIb3DQEBCwUAA4IBAQCk4EL7ooWVbihgfZNnXY+X
fY0KYmxmWIXupIXpZvOcNCC5/pmA7CVDNLBOF+XXI5UxBvNTcDszVAAPlKe7L1/y
2X1eV7Zysdk80wts/p+jXdrHR6MW2p/fBqKqe7kt+T9qAO4JUoyv+os/11BsAbaR
xCNZ+ibiEQAwb3ogvfKrjeeLcDtZNv9a2SSaXfIPsVPAxjLQRAFGy+ei5iUWUgvl
uXpqC1ychQkBrj4pAOXTb9W9H0X/Fo/PSgsGYzKQT00HE87q1vUPM2bf+/JOYnid
7tAIZ5TG0zSkhKDBV0XSy+loVmH/Tnlnka07u5XH8g3q+81k5eD1XuicaxtxZw7s
-----END CERTIFICATE-----
