Certificate:
    Data:
        Version: 3 (0x2)
        Serial Number:
            cd:d6:9d:1b:a6:b2:9c:be:f0:b9:2c:dc:82:67:ec:fc
        Signature Algorithm: sha256WithRSAEncryption
        Issuer: CN=team426-net
        Validity
            Not Before: Sep 13 02:38:44 2021 GMT
            Not After : Aug 28 02:38:44 2024 GMT
        Subject: CN=team426-server
        Subject Public Key Info:
            Public Key Algorithm: rsaEncryption
                RSA Public-Key: (2048 bit)
                Modulus:
                    00:a4:fe:b4:8a:90:ec:be:20:4e:78:60:98:2a:76:
                    0c:8d:62:af:89:f6:1f:3c:de:1c:6a:85:18:14:61:
                    dd:e1:b5:55:20:2f:75:84:56:b9:6f:48:0d:aa:4f:
                    c4:b5:e2:a6:96:08:e0:1a:a6:0f:b8:25:89:b0:0a:
                    5a:d2:e2:cb:44:8f:3d:ec:e3:de:a8:2f:b8:47:f8:
                    c2:19:d5:16:cd:5d:e4:5f:e3:20:e4:53:f8:82:b9:
                    33:52:6f:fe:ee:9b:36:7d:55:e2:97:d4:23:cd:80:
                    78:04:2b:6b:f5:b3:bd:a6:73:3f:69:1d:b1:8d:78:
                    98:fd:c5:46:87:6a:8e:de:ea:3c:a8:b8:c9:09:69:
                    82:3c:f6:11:3c:2e:0c:c0:be:ec:a1:c4:01:33:7a:
                    e0:a7:44:ae:1e:33:ac:93:99:14:be:e1:9c:87:e9:
                    20:4f:30:13:a6:e9:bd:55:61:86:57:54:45:27:86:
                    7c:eb:27:e7:18:24:fb:87:52:d0:f5:2a:a0:9c:8b:
                    fc:b7:df:2e:87:ad:78:23:51:0d:5d:ce:12:f2:73:
                    4a:01:88:31:a0:a3:11:66:81:20:3d:fb:4b:4a:00:
                    16:b5:d3:56:00:a2:53:9e:96:ca:6e:fb:77:95:55:
                    67:de:ef:19:bd:a7:e5:1c:7c:b3:c1:18:1f:4a:5d:
                    7b:db
                Exponent: 65537 (0x10001)
        X509v3 extensions:
            X509v3 Basic Constraints: 
                CA:FALSE
            X509v3 Subject Key Identifier: 
                9F:C5:5C:55:FA:B1:13:E2:E3:BD:47:58:4D:AF:35:AA:EB:AE:56:6D
            X509v3 Authority Key Identifier: 
                keyid:19:79:41:2D:21:B0:32:CE:31:48:85:E4:1E:FB:8B:74:13:4A:1F:86
                DirName:/CN=team426-net
                serial:49:72:6C:5F:CE:B9:A4:04:05:F9:39:F1:77:C7:4A:AA:ED:D7:97:BA

            X509v3 Extended Key Usage: 
                TLS Web Server Authentication
            X509v3 Key Usage: 
                Digital Signature, Key Encipherment
            X509v3 Subject Alternative Name: 
                DNS:team426-server
    Signature Algorithm: sha256WithRSAEncryption
         79:ca:3f:89:c0:a4:52:ba:49:87:7a:9c:16:56:ca:94:ed:f7:
         1c:c5:9e:96:62:97:52:a0:3f:77:17:e2:c8:93:4d:9e:eb:b2:
         a8:d5:56:6d:d6:fa:e1:f9:08:58:45:3a:77:86:4a:4e:ca:6d:
         bf:d9:e0:bc:58:f1:97:51:cb:a2:42:9e:fc:5d:5d:d0:24:5d:
         65:e7:fa:c7:1d:76:b5:81:49:3c:57:63:4a:c4:93:4e:fa:2a:
         cd:8c:37:59:31:b2:a6:9b:33:67:b8:80:27:cf:bd:d4:95:2d:
         3a:b5:1d:4d:15:85:0a:e5:53:63:85:ca:2d:73:97:2e:bf:de:
         0a:30:ee:92:37:a5:e9:5e:2f:a3:3f:1b:88:cc:a3:19:36:ce:
         f4:5b:88:59:47:4d:c2:de:4b:b5:56:fb:e9:aa:cf:64:01:4a:
         c6:34:22:51:68:45:98:42:8f:5e:eb:86:5b:11:d4:e9:40:1f:
         1d:b9:d5:73:8d:be:a9:b3:0f:ae:45:ea:4a:5f:9e:75:d4:cf:
         4c:3e:99:4b:cf:41:9c:28:a3:10:3d:e5:8c:7a:ff:b7:43:a4:
         f1:6f:b9:ea:40:86:06:6e:f0:97:51:f3:37:b9:c8:6b:a2:51:
         3c:71:88:e0:be:0c:c4:32:af:00:35:53:78:36:c2:f6:35:73:
         04:e9:10:2b
-----BEGIN CERTIFICATE-----
MIIDeDCCAmCgAwIBAgIRAM3WnRumspy+8Lks3IJn7PwwDQYJKoZIhvcNAQELBQAw
FjEUMBIGA1UEAwwLdGVhbTQyNi1uZXQwHhcNMjEwOTEzMDIzODQ0WhcNMjQwODI4
MDIzODQ0WjAZMRcwFQYDVQQDDA50ZWFtNDI2LXNlcnZlcjCCASIwDQYJKoZIhvcN
AQEBBQADggEPADCCAQoCggEBAKT+tIqQ7L4gTnhgmCp2DI1ir4n2HzzeHGqFGBRh
3eG1VSAvdYRWuW9IDapPxLXippYI4BqmD7glibAKWtLiy0SPPezj3qgvuEf4whnV
Fs1d5F/jIORT+IK5M1Jv/u6bNn1V4pfUI82AeAQra/WzvaZzP2kdsY14mP3FRodq
jt7qPKi4yQlpgjz2ETwuDMC+7KHEATN64KdErh4zrJOZFL7hnIfpIE8wE6bpvVVh
hldURSeGfOsn5xgk+4dS0PUqoJyL/LffLoeteCNRDV3OEvJzSgGIMaCjEWaBID37
S0oAFrXTVgCiU56Wym77d5VVZ97vGb2n5Rx8s8EYH0pde9sCAwEAAaOBvTCBujAJ
BgNVHRMEAjAAMB0GA1UdDgQWBBSfxVxV+rET4uO9R1hNrzWq665WbTBRBgNVHSME
SjBIgBQZeUEtIbAyzjFIheQe+4t0E0ofhqEapBgwFjEUMBIGA1UEAwwLdGVhbTQy
Ni1uZXSCFElybF/OuaQEBfk58XfHSqrt15e6MBMGA1UdJQQMMAoGCCsGAQUFBwMB
MAsGA1UdDwQEAwIFoDAZBgNVHREEEjAQgg50ZWFtNDI2LXNlcnZlcjANBgkqhkiG
9w0BAQsFAAOCAQEAeco/icCkUrpJh3qcFlbKlO33HMWelmKXUqA/dxfiyJNNnuuy
qNVWbdb64fkIWEU6d4ZKTsptv9ngvFjxl1HLokKe/F1d0CRdZef6xx12tYFJPFdj
SsSTTvoqzYw3WTGyppszZ7iAJ8+91JUtOrUdTRWFCuVTY4XKLXOXLr/eCjDukjel
6V4voz8biMyjGTbO9FuIWUdNwt5LtVb76arPZAFKxjQiUWhFmEKPXuuGWxHU6UAf
HbnVc42+qbMPrkXqSl+eddTPTD6ZS89BnCijED3ljHr/t0Ok8W+56kCGBm7wl1Hz
N7nIa6JRPHGI4L4MxDKvADVTeDbC9jVzBOkQKw==
-----END CERTIFICATE-----
