Certificate:
    Data:
        Version: 3 (0x2)
        Serial Number:
            40:d3:52:04:66:bf:b0:84:12:96:52:dd:34:cb:42:6d
        Signature Algorithm: sha256WithRSAEncryption
        Issuer: CN=team566-net
        Validity
            Not Before: Sep 13 03:55:55 2021 GMT
            Not After : Aug 28 03:55:55 2024 GMT
        Subject: CN=team566-server
        Subject Public Key Info:
            Public Key Algorithm: rsaEncryption
                RSA Public-Key: (2048 bit)
                Modulus:
                    00:ac:dc:7b:a4:33:2b:6d:d3:98:e3:e2:02:e9:06:
                    f4:cd:80:92:ee:de:37:da:67:29:64:6a:f6:e0:14:
                    12:39:37:b5:13:e8:13:51:4b:19:f1:8a:b4:05:7e:
                    f2:39:d8:7e:cd:5f:28:12:b7:98:4b:05:ef:02:fa:
                    91:a2:b4:b6:7f:4e:fa:d8:4c:39:6b:55:da:e5:d0:
                    ff:12:ec:2d:e4:1b:4d:ad:5f:d2:fa:6c:9e:6a:0b:
                    64:e2:a7:36:f6:b3:99:26:68:a9:19:88:51:9a:d4:
                    30:98:6f:a4:24:9a:e3:9f:66:ab:72:98:12:0e:e4:
                    38:7b:b2:0e:b3:30:f0:0e:91:57:0d:1d:0b:ad:00:
                    08:46:43:24:3e:de:c4:71:60:8a:2d:da:3b:b9:0d:
                    9f:d4:4b:e0:64:12:88:35:ea:ec:ac:ba:f7:68:3a:
                    ce:40:21:cc:7c:4d:fe:e0:7a:2b:ca:73:90:53:3f:
                    25:90:a4:4b:58:58:15:7a:99:16:7c:65:5b:54:71:
                    42:bb:21:a8:42:ba:36:9c:08:39:9d:81:18:05:81:
                    e1:98:13:e3:8a:53:7d:9d:b3:41:4a:55:20:e0:86:
                    0c:0e:08:f3:fe:bc:d4:fa:4f:1f:92:95:a8:f5:66:
                    2b:ae:7e:d1:24:b6:d9:f5:40:c4:bd:96:b8:1b:c3:
                    6a:79
                Exponent: 65537 (0x10001)
        X509v3 extensions:
            X509v3 Basic Constraints: 
                CA:FALSE
            X509v3 Subject Key Identifier: 
                96:34:53:E3:10:40:7D:B1:F6:C1:82:7D:7B:0F:9B:CD:BE:FF:F9:A3
            X509v3 Authority Key Identifier: 
                keyid:C7:52:79:71:E7:3F:BF:58:1B:C4:13:50:B7:CD:74:29:2B:1B:CD:B7
                DirName:/CN=team566-net
                serial:4F:CF:43:19:02:BB:83:67:AC:4D:EE:CA:41:C9:D7:12:11:EC:0A:CB

            X509v3 Extended Key Usage: 
                TLS Web Server Authentication
            X509v3 Key Usage: 
                Digital Signature, Key Encipherment
            X509v3 Subject Alternative Name: 
                DNS:team566-server
    Signature Algorithm: sha256WithRSAEncryption
         23:15:65:ff:35:3c:d8:0e:39:72:e8:8c:86:63:45:44:32:dd:
         26:26:f2:96:55:4d:54:6b:47:d1:9b:15:74:5d:f7:d0:c3:56:
         ff:2c:5a:43:e1:bf:cb:14:e7:13:8b:3c:22:1b:ed:16:00:6c:
         0a:07:bc:b5:76:0a:d0:c0:f9:32:8d:73:15:99:d3:c8:05:cb:
         dc:43:90:55:fe:65:5f:dc:16:29:ec:d3:3b:ae:d7:c9:7d:d9:
         7f:d2:48:dd:c6:ef:8e:95:70:86:a8:37:5e:3a:56:89:a7:87:
         95:bc:4f:fe:82:76:9b:9d:dc:ef:60:33:5d:62:b4:f8:72:7d:
         14:40:50:16:89:8b:30:6e:22:34:69:08:52:e3:03:44:97:dd:
         ac:2b:e6:f2:a1:9c:f9:9b:a0:a0:f5:7a:2b:d3:2b:02:e3:61:
         89:9a:3e:9c:c1:ac:36:ac:66:6c:41:87:94:56:b7:34:45:93:
         37:e6:76:a2:c8:36:86:f8:7a:51:be:01:42:b5:11:08:1b:d7:
         d8:e5:f3:b1:98:4c:e5:37:a1:6b:83:f0:97:2f:76:4f:b0:c5:
         56:18:47:ac:86:5a:b7:61:15:20:16:01:34:b2:c7:e1:5f:08:
         98:52:04:d1:07:7a:30:69:a5:a5:23:14:a2:9b:29:1b:18:03:
         59:27:a1:a7
-----BEGIN CERTIFICATE-----
MIIDdzCCAl+gAwIBAgIQQNNSBGa/sIQSllLdNMtCbTANBgkqhkiG9w0BAQsFADAW
MRQwEgYDVQQDDAt0ZWFtNTY2LW5ldDAeFw0yMTA5MTMwMzU1NTVaFw0yNDA4Mjgw
MzU1NTVaMBkxFzAVBgNVBAMMDnRlYW01NjYtc2VydmVyMIIBIjANBgkqhkiG9w0B
AQEFAAOCAQ8AMIIBCgKCAQEArNx7pDMrbdOY4+IC6Qb0zYCS7t432mcpZGr24BQS
OTe1E+gTUUsZ8Yq0BX7yOdh+zV8oEreYSwXvAvqRorS2f0762Ew5a1Xa5dD/Euwt
5BtNrV/S+myeagtk4qc29rOZJmipGYhRmtQwmG+kJJrjn2arcpgSDuQ4e7IOszDw
DpFXDR0LrQAIRkMkPt7EcWCKLdo7uQ2f1EvgZBKINersrLr3aDrOQCHMfE3+4Hor
ynOQUz8lkKRLWFgVepkWfGVbVHFCuyGoQro2nAg5nYEYBYHhmBPjilN9nbNBSlUg
4IYMDgjz/rzU+k8fkpWo9WYrrn7RJLbZ9UDEvZa4G8NqeQIDAQABo4G9MIG6MAkG
A1UdEwQCMAAwHQYDVR0OBBYEFJY0U+MQQH2x9sGCfXsPm82+//mjMFEGA1UdIwRK
MEiAFMdSeXHnP79YG8QTULfNdCkrG823oRqkGDAWMRQwEgYDVQQDDAt0ZWFtNTY2
LW5ldIIUT89DGQK7g2esTe7KQcnXEhHsCsswEwYDVR0lBAwwCgYIKwYBBQUHAwEw
CwYDVR0PBAQDAgWgMBkGA1UdEQQSMBCCDnRlYW01NjYtc2VydmVyMA0GCSqGSIb3
DQEBCwUAA4IBAQAjFWX/NTzYDjly6IyGY0VEMt0mJvKWVU1Ua0fRmxV0XffQw1b/
LFpD4b/LFOcTizwiG+0WAGwKB7y1dgrQwPkyjXMVmdPIBcvcQ5BV/mVf3BYp7NM7
rtfJfdl/0kjdxu+OlXCGqDdeOlaJp4eVvE/+gnabndzvYDNdYrT4cn0UQFAWiYsw
biI0aQhS4wNEl92sK+byoZz5m6Cg9Xor0ysC42GJmj6cwaw2rGZsQYeUVrc0RZM3
5naiyDaG+HpRvgFCtREIG9fY5fOxmEzlN6Frg/CXL3ZPsMVWGEeshlq3YRUgFgE0
ssfhXwiYUgTRB3owaaWlIxSimykbGANZJ6Gn
-----END CERTIFICATE-----
