Certificate:
    Data:
        Version: 3 (0x2)
        Serial Number:
            ae:d6:27:74:24:92:75:20:e2:f1:07:dd:01:78:ca:05
        Signature Algorithm: sha256WithRSAEncryption
        Issuer: CN=team448-net
        Validity
            Not Before: Sep 13 02:41:07 2021 GMT
            Not After : Aug 28 02:41:07 2024 GMT
        Subject: CN=team448-server
        Subject Public Key Info:
            Public Key Algorithm: rsaEncryption
                RSA Public-Key: (2048 bit)
                Modulus:
                    00:ae:f9:c8:98:c0:df:07:24:81:eb:c8:8e:45:6c:
                    a1:84:b0:70:a4:47:e3:6f:d3:12:be:6a:62:a4:f7:
                    be:53:22:f5:a4:61:36:0f:a7:a2:71:db:67:5c:ee:
                    a6:f0:f3:3b:21:d5:bf:c0:3c:d4:14:28:a0:c7:97:
                    57:71:1c:9a:b7:42:46:35:94:37:4c:4e:d8:e1:ca:
                    d4:20:cc:22:a8:12:e1:2f:f0:4e:22:9f:ed:a1:39:
                    0a:06:fb:fe:d9:e7:64:86:7c:29:d3:be:45:a5:70:
                    40:a4:59:59:25:ac:21:d9:44:84:e8:97:a3:b3:7e:
                    89:16:b0:cd:0c:3b:5b:92:c6:da:9d:72:4f:92:56:
                    50:00:93:ea:0e:f4:7c:f1:3f:40:88:2d:ad:22:67:
                    9f:77:09:22:71:3b:88:1c:64:4c:31:41:8f:c7:52:
                    c8:e6:ac:79:c7:66:2e:1c:0e:95:1a:45:b8:6d:70:
                    6c:f7:ca:5f:cd:17:5d:3d:8a:e0:f4:36:2d:55:16:
                    46:66:e7:d6:29:e4:e4:63:31:c7:6c:3f:f2:13:82:
                    1e:4c:0d:49:60:7e:bb:c1:32:55:91:92:cc:b0:08:
                    b3:f3:33:63:a5:7d:bd:17:91:c9:3c:fb:3c:1c:5f:
                    64:3d:60:af:ba:f8:b1:6e:d5:39:8a:4a:c2:a2:27:
                    ef:07
                Exponent: 65537 (0x10001)
        X509v3 extensions:
            X509v3 Basic Constraints: 
                CA:FALSE
            X509v3 Subject Key Identifier: 
                E9:9B:C4:99:EF:9C:D1:D6:4A:F0:95:73:4A:83:2B:F2:95:FD:28:69
            X509v3 Authority Key Identifier: 
                keyid:EA:1F:DA:E8:C8:61:5F:46:4B:FC:D4:0E:24:A1:C3:73:7E:CF:6E:12
                DirName:/CN=team448-net
                serial:67:43:48:A2:91:42:47:5A:EC:79:E0:C6:CE:CF:C9:2C:28:D4:70:E2

            X509v3 Extended Key Usage: 
                TLS Web Server Authentication
            X509v3 Key Usage: 
                Digital Signature, Key Encipherment
            X509v3 Subject Alternative Name: 
                DNS:team448-server
    Signature Algorithm: sha256WithRSAEncryption
         1a:d4:e2:8b:52:4f:81:bd:f9:9d:26:37:bb:40:48:e9:eb:cd:
         08:75:b6:b6:d0:e7:3a:bb:7d:68:96:dc:44:9e:30:cb:f6:ae:
         e1:7a:4e:25:ad:8c:04:d2:f4:c2:d0:ea:99:9d:b1:a9:3f:04:
         3d:c7:07:3b:e7:1c:cf:78:43:31:1a:93:e0:33:3f:f0:fa:fa:
         25:49:61:2f:d7:73:75:52:36:ae:36:b1:a4:34:8b:13:94:b0:
         20:dc:d0:8a:a6:38:08:50:43:70:a4:6c:be:6a:ae:72:c8:c1:
         8e:26:ba:0d:98:71:97:51:2a:c1:97:e8:f5:a5:2b:0e:9f:33:
         49:64:63:20:1e:56:73:34:29:ae:54:cd:c2:e9:3c:33:53:0b:
         3b:32:8b:ca:8e:7e:35:b1:98:67:24:12:ed:27:e1:a1:31:c2:
         47:2b:26:b5:77:99:9f:94:76:17:2c:25:78:94:51:8d:8c:56:
         6e:ff:6f:2f:7d:52:16:d7:02:cd:d4:d9:0a:12:58:20:9c:40:
         2b:79:35:d0:15:5d:af:52:c8:65:a3:29:6b:56:7b:fa:0b:2f:
         20:f4:e1:28:96:45:61:e3:ab:7d:4c:24:75:ce:8a:48:e7:a3:
         c2:c4:a5:10:6c:cc:68:39:32:25:cf:d4:1b:08:25:f8:17:95:
         00:97:46:58
-----BEGIN CERTIFICATE-----
MIIDeDCCAmCgAwIBAgIRAK7WJ3QkknUg4vEH3QF4ygUwDQYJKoZIhvcNAQELBQAw
FjEUMBIGA1UEAwwLdGVhbTQ0OC1uZXQwHhcNMjEwOTEzMDI0MTA3WhcNMjQwODI4
MDI0MTA3WjAZMRcwFQYDVQQDDA50ZWFtNDQ4LXNlcnZlcjCCASIwDQYJKoZIhvcN
AQEBBQADggEPADCCAQoCggEBAK75yJjA3wckgevIjkVsoYSwcKRH42/TEr5qYqT3
vlMi9aRhNg+nonHbZ1zupvDzOyHVv8A81BQooMeXV3EcmrdCRjWUN0xO2OHK1CDM
IqgS4S/wTiKf7aE5Cgb7/tnnZIZ8KdO+RaVwQKRZWSWsIdlEhOiXo7N+iRawzQw7
W5LG2p1yT5JWUACT6g70fPE/QIgtrSJnn3cJInE7iBxkTDFBj8dSyOasecdmLhwO
lRpFuG1wbPfKX80XXT2K4PQ2LVUWRmbn1ink5GMxx2w/8hOCHkwNSWB+u8EyVZGS
zLAIs/MzY6V9vReRyTz7PBxfZD1gr7r4sW7VOYpKwqIn7wcCAwEAAaOBvTCBujAJ
BgNVHRMEAjAAMB0GA1UdDgQWBBTpm8SZ75zR1krwlXNKgyvylf0oaTBRBgNVHSME
SjBIgBTqH9royGFfRkv81A4kocNzfs9uEqEapBgwFjEUMBIGA1UEAwwLdGVhbTQ0
OC1uZXSCFGdDSKKRQkda7Hngxs7PySwo1HDiMBMGA1UdJQQMMAoGCCsGAQUFBwMB
MAsGA1UdDwQEAwIFoDAZBgNVHREEEjAQgg50ZWFtNDQ4LXNlcnZlcjANBgkqhkiG
9w0BAQsFAAOCAQEAGtTii1JPgb35nSY3u0BI6evNCHW2ttDnOrt9aJbcRJ4wy/au
4XpOJa2MBNL0wtDqmZ2xqT8EPccHO+ccz3hDMRqT4DM/8Pr6JUlhL9dzdVI2rjax
pDSLE5SwINzQiqY4CFBDcKRsvmqucsjBjia6DZhxl1EqwZfo9aUrDp8zSWRjIB5W
czQprlTNwuk8M1MLOzKLyo5+NbGYZyQS7SfhoTHCRysmtXeZn5R2FywleJRRjYxW
bv9vL31SFtcCzdTZChJYIJxAK3k10BVdr1LIZaMpa1Z7+gsvIPThKJZFYeOrfUwk
dc6KSOejwsSlEGzMaDkyJc/UGwgl+BeVAJdGWA==
-----END CERTIFICATE-----
