Certificate:
    Data:
        Version: 3 (0x2)
        Serial Number:
            9c:65:e3:4a:ef:4e:b7:b4:3a:9d:70:5c:b4:7c:63:8f
        Signature Algorithm: sha256WithRSAEncryption
        Issuer: CN=team303-net
        Validity
            Not Before: Sep 13 01:27:59 2021 GMT
            Not After : Aug 28 01:27:59 2024 GMT
        Subject: CN=team303-client
        Subject Public Key Info:
            Public Key Algorithm: rsaEncryption
                RSA Public-Key: (2048 bit)
                Modulus:
                    00:ae:88:92:95:d8:39:25:85:5d:be:55:9e:33:23:
                    6d:b7:f2:31:aa:a4:20:71:34:d8:94:3d:f9:fe:58:
                    4a:68:8e:eb:f3:ec:8c:5c:1f:29:b8:32:42:c5:ac:
                    d6:21:29:7a:7b:d7:5e:9f:27:5c:7f:e5:5a:ca:c5:
                    a8:c7:df:59:2b:44:36:31:76:76:26:ee:88:4b:c4:
                    4f:3e:93:99:1c:62:dc:86:0c:39:d9:a5:bc:20:6c:
                    9e:18:5b:81:66:eb:8e:e7:44:df:80:44:02:19:70:
                    a9:27:09:03:7c:82:b0:bd:b3:9a:ba:0f:1b:54:7c:
                    a3:de:ad:c0:4e:23:64:34:dc:ee:41:bf:61:e3:25:
                    50:20:52:ec:1d:92:4f:64:59:af:7b:48:5e:9b:21:
                    52:df:bf:24:9d:ba:88:cd:2f:bb:4d:12:ec:3f:bc:
                    59:34:b0:2d:d6:a3:e5:fc:48:3b:58:01:ab:39:b8:
                    9c:0c:92:12:2d:c5:bf:a4:af:e0:5f:69:14:d4:74:
                    93:16:05:5f:dc:a3:17:6e:e7:bc:e8:99:1a:1d:4b:
                    7e:b9:11:bd:9a:c8:ba:15:16:15:e2:c4:19:d8:27:
                    ac:c6:22:1a:cf:14:53:88:68:3a:71:39:a0:14:2f:
                    a3:ff:a5:9d:34:bf:38:46:d3:de:c3:5f:7a:e8:45:
                    62:87
                Exponent: 65537 (0x10001)
        X509v3 extensions:
            X509v3 Basic Constraints: 
                CA:FALSE
            X509v3 Subject Key Identifier: 
                94:09:85:A2:B9:3E:3E:3C:74:CB:A0:A8:85:A4:BC:57:97:25:0C:76
            X509v3 Authority Key Identifier: 
                keyid:81:EC:1F:E9:F6:FB:FD:F4:40:B2:CC:65:80:DA:F5:E3:1F:D7:90:8F
                DirName:/CN=team303-net
                serial:77:FE:AD:30:B1:79:B1:82:94:3C:A4:CE:78:34:D2:0E:4A:FB:32:85

            X509v3 Extended Key Usage: 
                TLS Web Client Authentication
            X509v3 Key Usage: 
                Digital Signature
    Signature Algorithm: sha256WithRSAEncryption
         45:0e:88:95:01:f3:f3:67:d4:37:16:22:1e:f6:4d:33:ba:68:
         42:9d:5a:96:fe:b3:52:df:41:2d:17:d2:d4:0f:b5:6a:ee:3f:
         13:11:f4:1c:28:9e:df:33:35:92:b5:0f:f2:84:ea:aa:46:44:
         34:4f:ec:44:98:e9:c7:c7:07:58:0e:ad:52:03:28:a6:e2:6c:
         5c:01:fb:2b:60:b9:c7:83:e6:da:1c:d6:af:49:1a:a7:fc:27:
         84:a1:36:e9:77:6e:18:9f:32:f2:48:b8:ed:da:26:dd:c4:df:
         94:b8:83:d4:88:c4:5f:f2:be:73:b0:ff:da:2a:1f:c8:39:56:
         20:05:60:3e:4c:f1:8d:42:a8:09:2f:de:7c:b0:a8:64:8d:09:
         be:a4:72:44:ab:98:33:84:2b:b4:01:55:0b:01:88:44:6c:87:
         3a:a3:44:c6:db:95:8d:fb:da:38:37:8e:92:98:71:84:af:f7:
         83:93:6a:18:b5:45:e7:bd:ee:99:36:69:17:94:dc:f7:24:25:
         1e:ea:55:e0:41:68:f7:9e:79:f0:77:cc:e8:18:b8:5d:07:42:
         1e:79:0d:74:bb:92:1f:09:2c:79:97:46:cc:83:70:d0:5a:59:
         f0:83:fe:1c:dd:f6:3a:60:46:e6:0b:5c:03:c9:52:93:0f:16:
         b4:70:f0:05
-----BEGIN CERTIFICATE-----
MIIDXTCCAkWgAwIBAgIRAJxl40rvTre0Op1wXLR8Y48wDQYJKoZIhvcNAQELBQAw
FjEUMBIGA1UEAwwLdGVhbTMwMy1uZXQwHhcNMjEwOTEzMDEyNzU5WhcNMjQwODI4
MDEyNzU5WjAZMRcwFQYDVQQDDA50ZWFtMzAzLWNsaWVudDCCASIwDQYJKoZIhvcN
AQEBBQADggEPADCCAQoCggEBAK6IkpXYOSWFXb5VnjMjbbfyMaqkIHE02JQ9+f5Y
SmiO6/PsjFwfKbgyQsWs1iEpenvXXp8nXH/lWsrFqMffWStENjF2dibuiEvETz6T
mRxi3IYMOdmlvCBsnhhbgWbrjudE34BEAhlwqScJA3yCsL2zmroPG1R8o96twE4j
ZDTc7kG/YeMlUCBS7B2ST2RZr3tIXpshUt+/JJ26iM0vu00S7D+8WTSwLdaj5fxI
O1gBqzm4nAySEi3Fv6Sv4F9pFNR0kxYFX9yjF27nvOiZGh1LfrkRvZrIuhUWFeLE
GdgnrMYiGs8UU4hoOnE5oBQvo/+lnTS/OEbT3sNfeuhFYocCAwEAAaOBojCBnzAJ
BgNVHRMEAjAAMB0GA1UdDgQWBBSUCYWiuT4+PHTLoKiFpLxXlyUMdjBRBgNVHSME
SjBIgBSB7B/p9vv99ECyzGWA2vXjH9eQj6EapBgwFjEUMBIGA1UEAwwLdGVhbTMw
My1uZXSCFHf+rTCxebGClDykzng00g5K+zKFMBMGA1UdJQQMMAoGCCsGAQUFBwMC
MAsGA1UdDwQEAwIHgDANBgkqhkiG9w0BAQsFAAOCAQEARQ6IlQHz82fUNxYiHvZN
M7poQp1alv6zUt9BLRfS1A+1au4/ExH0HCie3zM1krUP8oTqqkZENE/sRJjpx8cH
WA6tUgMopuJsXAH7K2C5x4Pm2hzWr0kap/wnhKE26XduGJ8y8ki47dom3cTflLiD
1IjEX/K+c7D/2iofyDlWIAVgPkzxjUKoCS/efLCoZI0JvqRyRKuYM4QrtAFVCwGI
RGyHOqNExtuVjfvaODeOkphxhK/3g5NqGLVF573umTZpF5Tc9yQlHupV4EFo9555
8HfM6Bi4XQdCHnkNdLuSHwkseZdGzINw0FpZ8IP+HN32OmBG5gtcA8lSkw8WtHDw
BQ==
-----END CERTIFICATE-----
