Certificate:
    Data:
        Version: 3 (0x2)
        Serial Number:
            0a:9a:c6:9c:14:b4:b0:4c:a7:3f:61:bb:bd:61:d1:9f
        Signature Algorithm: sha256WithRSAEncryption
        Issuer: CN=team73-net
        Validity
            Not Before: Sep 12 23:20:22 2021 GMT
            Not After : Aug 27 23:20:22 2024 GMT
        Subject: CN=team73-client
        Subject Public Key Info:
            Public Key Algorithm: rsaEncryption
                RSA Public-Key: (2048 bit)
                Modulus:
                    00:d2:f9:04:a4:28:ac:aa:11:f9:e6:75:2f:d5:db:
                    a9:ed:67:f3:a6:6e:5b:b8:ed:0a:b5:bd:ee:b6:23:
                    6b:dd:e5:11:1d:65:fb:a1:35:b4:a2:8c:e1:50:24:
                    d0:57:ee:5a:8b:86:ea:cd:ed:b7:f1:de:81:93:74:
                    d5:5c:10:d4:b7:f2:42:67:a9:5c:7e:33:72:1c:27:
                    57:7a:96:84:6b:d6:2d:4c:5e:f8:43:a6:0e:0a:9e:
                    fc:bc:ad:03:3e:f1:4a:5e:bd:c2:11:5f:b2:fc:d7:
                    6f:d1:56:da:de:13:54:b9:a9:fc:b4:51:bb:b7:06:
                    5e:0c:46:c7:4a:b0:d4:8b:1e:e3:08:55:34:bf:9e:
                    41:8e:21:45:4b:a2:79:be:98:4b:3e:81:61:81:a5:
                    f1:66:bd:c3:b8:f2:94:df:cf:98:bb:19:47:de:7f:
                    9a:bc:88:90:f0:22:be:3f:5c:4a:ec:e7:2b:74:17:
                    ed:b5:3d:2f:cf:70:17:bd:90:0f:b6:a4:7c:3a:9f:
                    b7:bf:c8:e2:2b:23:6d:70:24:a2:19:ad:02:5a:65:
                    41:70:ba:90:77:89:59:e6:97:b6:a9:5a:f6:1e:32:
                    93:f7:34:3b:ca:0f:99:7d:b7:b1:dc:1d:aa:26:90:
                    f9:79:77:c2:90:83:1c:d0:a2:df:9e:79:fe:cb:52:
                    58:6b
                Exponent: 65537 (0x10001)
        X509v3 extensions:
            X509v3 Basic Constraints: 
                CA:FALSE
            X509v3 Subject Key Identifier: 
                CE:D7:24:F4:7C:BC:21:66:15:AD:0D:3E:79:D0:4D:3A:18:13:F9:55
            X509v3 Authority Key Identifier: 
                keyid:97:89:44:DD:E6:2C:F4:37:50:FC:40:7C:EF:00:CF:2B:92:5D:BF:58
                DirName:/CN=team73-net
                serial:22:B6:A4:EB:3C:67:2A:E2:F2:9C:C5:3F:99:F5:34:98:62:B7:16:F9

            X509v3 Extended Key Usage: 
                TLS Web Client Authentication
            X509v3 Key Usage: 
                Digital Signature
    Signature Algorithm: sha256WithRSAEncryption
         a7:dd:8b:4f:c6:1f:02:03:5b:19:38:0e:42:ae:9b:dc:ff:80:
         89:c1:d5:bc:a9:90:12:b1:00:63:6b:91:b4:be:ca:06:9b:a5:
         79:ec:0d:f4:e4:5a:0a:6d:5d:a7:ed:13:14:62:8b:9d:5c:3f:
         f8:e2:5c:cc:0b:af:46:45:5a:1a:91:1b:83:37:10:2b:51:0c:
         cf:6e:6d:24:89:09:c5:33:bd:c0:63:ad:02:32:82:cb:ef:cd:
         47:ba:40:70:d8:a6:dd:57:4c:87:d3:9d:c9:4e:f8:55:df:26:
         64:33:ba:87:2e:b5:fb:b7:0a:d4:ea:8e:ca:26:74:bb:76:0f:
         e8:92:6c:ac:60:3b:54:8e:d0:79:2f:0f:85:39:0c:7e:cb:76:
         9a:ac:a1:b8:55:b7:45:32:a6:cc:4d:e6:37:f4:a0:5d:13:ed:
         ce:93:1c:6c:8d:5b:5b:f2:9a:eb:a0:ea:d7:3e:ec:e2:6f:79:
         44:4b:af:2a:18:1b:78:3f:f5:11:1b:20:41:90:23:93:10:3b:
         6b:a8:fe:2c:c9:14:89:6f:1b:d1:07:5e:e4:c5:e7:e5:7d:8a:
         b9:fd:c1:11:55:89:90:61:33:60:3f:e2:f2:c1:47:13:42:b6:
         bf:56:6d:03:c2:60:ba:73:8c:af:d9:dc:12:ad:c3:17:49:66:
         12:5e:6e:49
-----BEGIN CERTIFICATE-----
MIIDWTCCAkGgAwIBAgIQCprGnBS0sEynP2G7vWHRnzANBgkqhkiG9w0BAQsFADAV
MRMwEQYDVQQDDAp0ZWFtNzMtbmV0MB4XDTIxMDkxMjIzMjAyMloXDTI0MDgyNzIz
MjAyMlowGDEWMBQGA1UEAwwNdGVhbTczLWNsaWVudDCCASIwDQYJKoZIhvcNAQEB
BQADggEPADCCAQoCggEBANL5BKQorKoR+eZ1L9Xbqe1n86ZuW7jtCrW97rYja93l
ER1l+6E1tKKM4VAk0FfuWouG6s3tt/HegZN01VwQ1LfyQmepXH4zchwnV3qWhGvW
LUxe+EOmDgqe/LytAz7xSl69whFfsvzXb9FW2t4TVLmp/LRRu7cGXgxGx0qw1Ise
4whVNL+eQY4hRUuieb6YSz6BYYGl8Wa9w7jylN/PmLsZR95/mryIkPAivj9cSuzn
K3QX7bU9L89wF72QD7akfDqft7/I4isjbXAkohmtAlplQXC6kHeJWeaXtqla9h4y
k/c0O8oPmX23sdwdqiaQ+Xl3wpCDHNCi3555/stSWGsCAwEAAaOBoTCBnjAJBgNV
HRMEAjAAMB0GA1UdDgQWBBTO1yT0fLwhZhWtDT550E06GBP5VTBQBgNVHSMESTBH
gBSXiUTd5iz0N1D8QHzvAM8rkl2/WKEZpBcwFTETMBEGA1UEAwwKdGVhbTczLW5l
dIIUIrak6zxnKuLynMU/mfU0mGK3FvkwEwYDVR0lBAwwCgYIKwYBBQUHAwIwCwYD
VR0PBAQDAgeAMA0GCSqGSIb3DQEBCwUAA4IBAQCn3YtPxh8CA1sZOA5Crpvc/4CJ
wdW8qZASsQBja5G0vsoGm6V57A305FoKbV2n7RMUYoudXD/44lzMC69GRVoakRuD
NxArUQzPbm0kiQnFM73AY60CMoLL781HukBw2KbdV0yH053JTvhV3yZkM7qHLrX7
twrU6o7KJnS7dg/okmysYDtUjtB5Lw+FOQx+y3aarKG4VbdFMqbMTeY39KBdE+3O
kxxsjVtb8prroOrXPuzib3lES68qGBt4P/URGyBBkCOTEDtrqP4syRSJbxvRB17k
xeflfYq5/cERVYmQYTNgP+LywUcTQra/Vm0DwmC6c4yv2dwSrcMXSWYSXm5J
-----END CERTIFICATE-----
