Certificate:
    Data:
        Version: 3 (0x2)
        Serial Number:
            64:bf:c0:8f:80:a2:11:4d:e5:75:fc:63:56:a0:af:3e
        Signature Algorithm: sha256WithRSAEncryption
        Issuer: CN=team672-net
        Validity
            Not Before: Sep 13 04:33:20 2021 GMT
            Not After : Aug 28 04:33:20 2024 GMT
        Subject: CN=team672-server
        Subject Public Key Info:
            Public Key Algorithm: rsaEncryption
                RSA Public-Key: (2048 bit)
                Modulus:
                    00:c2:ed:a2:c5:a3:e3:70:34:e9:ef:0e:ff:6c:be:
                    17:cc:16:f5:8a:dd:19:bd:d2:42:7a:32:1c:8e:6b:
                    54:9f:81:07:d7:bd:45:5d:c0:9a:5a:62:30:01:7f:
                    d4:bb:64:9d:15:b9:f9:c8:ae:2a:0a:fa:ca:7f:63:
                    d8:3e:7e:fc:a3:85:71:9d:7a:54:89:b0:d3:c4:6e:
                    34:0b:fd:7b:38:78:e3:a9:f1:9a:12:f9:9a:e3:56:
                    72:26:ff:84:d1:29:17:8e:5a:82:9d:74:02:b5:ee:
                    70:1e:eb:51:68:4c:aa:14:ec:5b:57:ee:47:42:08:
                    68:33:e5:53:4a:02:1c:9d:3d:21:17:8c:e8:d7:97:
                    35:a3:7c:9d:74:25:2c:ac:be:e5:09:52:25:d5:b5:
                    e2:90:c0:f4:43:f2:30:4c:61:48:9a:82:4b:7d:34:
                    71:c7:85:ab:bc:4f:dd:85:fd:6d:32:29:05:ee:71:
                    bf:98:44:a8:e2:3a:57:95:b9:82:ad:15:4c:dc:60:
                    98:95:fb:bc:d1:31:9e:4b:f7:a7:d4:e9:03:10:39:
                    7b:37:91:af:b9:8d:48:94:91:24:88:b2:66:bd:b1:
                    f1:b6:32:76:64:86:5a:12:06:fe:6b:da:f3:83:1b:
                    e1:a3:cb:05:d6:2a:46:f8:7e:5f:f1:fa:15:f3:a0:
                    5f:4b
                Exponent: 65537 (0x10001)
        X509v3 extensions:
            X509v3 Basic Constraints: 
                CA:FALSE
            X509v3 Subject Key Identifier: 
                18:36:A5:A3:67:CC:D7:76:CF:C0:DD:3B:78:EA:01:47:4B:83:D5:2E
            X509v3 Authority Key Identifier: 
                keyid:07:29:29:4E:EF:6E:A9:0A:CB:70:B2:31:01:27:60:AE:DA:2B:A5:4A
                DirName:/CN=team672-net
                serial:3D:98:A1:9E:48:69:5A:3F:F9:E9:65:63:B0:D6:9D:BA:AD:2B:88:01

            X509v3 Extended Key Usage: 
                TLS Web Server Authentication
            X509v3 Key Usage: 
                Digital Signature, Key Encipherment
            X509v3 Subject Alternative Name: 
                DNS:team672-server
    Signature Algorithm: sha256WithRSAEncryption
         aa:d4:10:a9:cc:03:19:b9:04:4f:5c:fe:e1:cb:ad:0e:79:73:
         30:28:63:77:54:73:2f:1c:d3:e2:90:bd:dd:ce:e4:52:55:2b:
         dc:17:1f:7c:d5:54:74:90:b3:3a:62:d4:05:4a:e4:68:89:b0:
         c2:2c:61:6a:9a:d0:0c:6d:74:c3:e5:c0:cd:9c:28:b1:a8:5c:
         36:ea:4a:5a:de:65:d4:da:d9:08:11:a7:86:18:1b:3a:f7:52:
         63:18:0f:46:fd:1e:dc:e9:34:e7:2a:df:d1:68:57:3d:42:a7:
         4a:b3:2c:42:90:7f:6d:66:17:aa:b6:b4:d1:e8:b3:c8:7e:26:
         46:19:fc:91:d3:38:36:61:1f:13:8f:4b:de:9e:40:5c:28:c4:
         67:0c:d4:e2:ff:be:68:3a:5a:e4:37:68:b3:a4:5b:84:76:ae:
         e4:d4:95:af:d2:14:7d:0f:1e:cb:fe:c8:8d:8b:14:c8:42:c3:
         04:a5:ff:10:aa:19:ae:15:c3:88:71:81:a1:0e:55:62:68:a5:
         4c:64:64:0f:8e:f6:bc:fc:a4:a7:ed:b9:17:51:35:5f:56:41:
         89:22:fd:e3:cc:30:1c:ed:f6:0f:30:3b:ab:8c:1c:4a:b1:9d:
         46:ff:07:a4:db:c1:ab:97:7e:d3:69:85:ec:e7:2c:5e:75:94:
         f6:45:3c:91
-----BEGIN CERTIFICATE-----
MIIDdzCCAl+gAwIBAgIQZL/Aj4CiEU3ldfxjVqCvPjANBgkqhkiG9w0BAQsFADAW
MRQwEgYDVQQDDAt0ZWFtNjcyLW5ldDAeFw0yMTA5MTMwNDMzMjBaFw0yNDA4Mjgw
NDMzMjBaMBkxFzAVBgNVBAMMDnRlYW02NzItc2VydmVyMIIBIjANBgkqhkiG9w0B
AQEFAAOCAQ8AMIIBCgKCAQEAwu2ixaPjcDTp7w7/bL4XzBb1it0ZvdJCejIcjmtU
n4EH171FXcCaWmIwAX/Uu2SdFbn5yK4qCvrKf2PYPn78o4VxnXpUibDTxG40C/17
OHjjqfGaEvma41ZyJv+E0SkXjlqCnXQCte5wHutRaEyqFOxbV+5HQghoM+VTSgIc
nT0hF4zo15c1o3yddCUsrL7lCVIl1bXikMD0Q/IwTGFImoJLfTRxx4WrvE/dhf1t
MikF7nG/mESo4jpXlbmCrRVM3GCYlfu80TGeS/en1OkDEDl7N5GvuY1IlJEkiLJm
vbHxtjJ2ZIZaEgb+a9rzgxvho8sF1ipG+H5f8foV86BfSwIDAQABo4G9MIG6MAkG
A1UdEwQCMAAwHQYDVR0OBBYEFBg2paNnzNd2z8DdO3jqAUdLg9UuMFEGA1UdIwRK
MEiAFAcpKU7vbqkKy3CyMQEnYK7aK6VKoRqkGDAWMRQwEgYDVQQDDAt0ZWFtNjcy
LW5ldIIUPZihnkhpWj/56WVjsNaduq0riAEwEwYDVR0lBAwwCgYIKwYBBQUHAwEw
CwYDVR0PBAQDAgWgMBkGA1UdEQQSMBCCDnRlYW02NzItc2VydmVyMA0GCSqGSIb3
DQEBCwUAA4IBAQCq1BCpzAMZuQRPXP7hy60OeXMwKGN3VHMvHNPikL3dzuRSVSvc
Fx981VR0kLM6YtQFSuRoibDCLGFqmtAMbXTD5cDNnCixqFw26kpa3mXU2tkIEaeG
GBs691JjGA9G/R7c6TTnKt/RaFc9QqdKsyxCkH9tZheqtrTR6LPIfiZGGfyR0zg2
YR8Tj0venkBcKMRnDNTi/75oOlrkN2izpFuEdq7k1JWv0hR9Dx7L/siNixTIQsME
pf8QqhmuFcOIcYGhDlViaKVMZGQPjva8/KSn7bkXUTVfVkGJIv3jzDAc7fYPMDur
jBxKsZ1G/wek28Grl37TaYXs5yxedZT2RTyR
-----END CERTIFICATE-----
