Certificate:
    Data:
        Version: 3 (0x2)
        Serial Number:
            7f:4b:b0:eb:cf:1d:b1:eb:4b:ab:94:98:f8:8d:ae:38
        Signature Algorithm: sha256WithRSAEncryption
        Issuer: CN=team145-net
        Validity
            Not Before: Sep 13 00:01:59 2021 GMT
            Not After : Aug 28 00:01:59 2024 GMT
        Subject: CN=team145-server
        Subject Public Key Info:
            Public Key Algorithm: rsaEncryption
                RSA Public-Key: (2048 bit)
                Modulus:
                    00:bc:04:30:06:bb:00:d7:c4:ff:09:e8:8e:ab:d0:
                    ad:94:83:3f:31:60:21:13:f5:10:7b:77:0b:29:2e:
                    ba:a7:09:5a:b7:b4:c8:3d:a2:a4:d3:d9:15:c1:54:
                    74:6e:f6:c0:89:d1:c1:41:be:88:bc:e3:6c:e9:56:
                    8f:d9:52:34:91:10:ef:f5:4d:f3:2f:8d:38:aa:cd:
                    06:a6:92:19:75:e4:5e:b2:07:2c:70:9e:06:25:c9:
                    88:8a:ff:d3:bd:5e:23:ca:37:b2:e9:bf:73:f8:d7:
                    59:16:f8:8b:2b:fd:2a:0b:43:6e:90:a8:31:db:c2:
                    18:02:94:f3:f7:69:72:99:00:e8:99:f4:61:24:17:
                    c1:97:90:7a:70:96:29:bb:2f:dc:8d:79:0a:bc:49:
                    69:aa:71:bf:67:07:35:18:a9:b2:5a:2e:20:f8:d8:
                    a0:79:ac:79:a5:b3:39:be:4f:43:5f:1d:bc:57:cf:
                    29:51:fd:84:73:53:1a:4f:31:31:ea:83:b5:8f:72:
                    70:53:b6:03:c5:37:f3:33:c1:97:2f:fa:0a:0f:9c:
                    b1:9e:79:14:e3:79:2a:bf:22:2d:b9:8e:ab:f9:fc:
                    db:d4:7f:26:c7:a4:82:3b:c5:30:e2:a4:3a:02:45:
                    95:1e:e1:db:7a:6c:3e:53:01:56:da:a6:be:9f:df:
                    ab:3f
                Exponent: 65537 (0x10001)
        X509v3 extensions:
            X509v3 Basic Constraints: 
                CA:FALSE
            X509v3 Subject Key Identifier: 
                40:16:0C:E3:AA:52:B8:B7:6A:3C:5C:15:64:9E:80:C4:5C:42:B9:F3
            X509v3 Authority Key Identifier: 
                keyid:59:63:8B:95:02:C4:A6:37:50:46:56:C9:F9:4A:D5:DD:CF:84:35:78
                DirName:/CN=team145-net
                serial:2B:1D:2F:7A:40:96:7C:C3:80:4D:AC:52:51:71:58:5C:7F:39:80:5E

            X509v3 Extended Key Usage: 
                TLS Web Server Authentication
            X509v3 Key Usage: 
                Digital Signature, Key Encipherment
            X509v3 Subject Alternative Name: 
                DNS:team145-server
    Signature Algorithm: sha256WithRSAEncryption
         21:a2:a8:83:c2:34:59:2c:b2:78:73:51:28:5a:56:fc:47:89:
         36:6f:95:0a:c6:9a:07:45:f1:7f:a7:69:b1:8f:71:cd:85:aa:
         ed:9c:50:ca:e8:4e:2f:a4:1f:64:1c:85:5d:1c:29:1d:fe:c7:
         4d:fd:a1:db:b3:0b:24:74:ca:96:b6:5b:cf:44:bb:ec:cb:98:
         86:01:03:a1:10:c4:da:53:74:cc:be:bc:23:bb:d1:8b:f3:1d:
         67:55:8d:b7:dc:34:3c:0f:bb:6d:e3:cb:07:79:e9:e8:69:79:
         0a:0e:65:8e:02:bd:0f:57:c6:53:32:c6:e6:ad:04:fb:85:cf:
         82:9d:36:e5:85:3e:96:87:af:bd:27:d0:53:70:6b:b9:2f:61:
         d3:b8:81:1e:f0:05:65:2a:0f:ad:32:3c:d7:aa:9e:3d:2d:ae:
         c4:23:39:fe:88:55:55:70:2d:8b:4f:d1:10:60:98:d7:09:d9:
         ba:3b:54:7a:af:b5:31:a7:56:74:a8:ac:73:cd:7f:6f:47:cb:
         48:64:86:8d:9a:22:a8:36:66:10:c4:88:25:19:c8:bc:ce:37:
         e7:53:ee:d4:a2:cb:14:d7:87:3a:9d:08:ed:32:da:8c:ce:ee:
         d6:91:c2:54:a5:68:52:b2:a1:b6:e8:c5:8a:c5:54:b0:06:fc:
         e2:23:20:79
-----BEGIN CERTIFICATE-----
MIIDdzCCAl+gAwIBAgIQf0uw688dsetLq5SY+I2uODANBgkqhkiG9w0BAQsFADAW
MRQwEgYDVQQDDAt0ZWFtMTQ1LW5ldDAeFw0yMTA5MTMwMDAxNTlaFw0yNDA4Mjgw
MDAxNTlaMBkxFzAVBgNVBAMMDnRlYW0xNDUtc2VydmVyMIIBIjANBgkqhkiG9w0B
AQEFAAOCAQ8AMIIBCgKCAQEAvAQwBrsA18T/CeiOq9CtlIM/MWAhE/UQe3cLKS66
pwlat7TIPaKk09kVwVR0bvbAidHBQb6IvONs6VaP2VI0kRDv9U3zL404qs0GppIZ
deResgcscJ4GJcmIiv/TvV4jyjey6b9z+NdZFviLK/0qC0NukKgx28IYApTz92ly
mQDomfRhJBfBl5B6cJYpuy/cjXkKvElpqnG/Zwc1GKmyWi4g+Nigeax5pbM5vk9D
Xx28V88pUf2Ec1MaTzEx6oO1j3JwU7YDxTfzM8GXL/oKD5yxnnkU43kqvyItuY6r
+fzb1H8mx6SCO8Uw4qQ6AkWVHuHbemw+UwFW2qa+n9+rPwIDAQABo4G9MIG6MAkG
A1UdEwQCMAAwHQYDVR0OBBYEFEAWDOOqUri3ajxcFWSegMRcQrnzMFEGA1UdIwRK
MEiAFFlji5UCxKY3UEZWyflK1d3PhDV4oRqkGDAWMRQwEgYDVQQDDAt0ZWFtMTQ1
LW5ldIIUKx0vekCWfMOATaxSUXFYXH85gF4wEwYDVR0lBAwwCgYIKwYBBQUHAwEw
CwYDVR0PBAQDAgWgMBkGA1UdEQQSMBCCDnRlYW0xNDUtc2VydmVyMA0GCSqGSIb3
DQEBCwUAA4IBAQAhoqiDwjRZLLJ4c1EoWlb8R4k2b5UKxpoHRfF/p2mxj3HNhart
nFDK6E4vpB9kHIVdHCkd/sdN/aHbswskdMqWtlvPRLvsy5iGAQOhEMTaU3TMvrwj
u9GL8x1nVY233DQ8D7tt48sHeenoaXkKDmWOAr0PV8ZTMsbmrQT7hc+CnTblhT6W
h6+9J9BTcGu5L2HTuIEe8AVlKg+tMjzXqp49La7EIzn+iFVVcC2LT9EQYJjXCdm6
O1R6r7Uxp1Z0qKxzzX9vR8tIZIaNmiKoNmYQxIglGci8zjfnU+7UossU14c6nQjt
MtqMzu7WkcJUpWhSsqG26MWKxVSwBvziIyB5
-----END CERTIFICATE-----
