Certificate:
    Data:
        Version: 3 (0x2)
        Serial Number:
            52:d1:73:90:9a:fa:89:79:94:d5:4c:8c:a0:aa:10:02
        Signature Algorithm: sha256WithRSAEncryption
        Issuer: CN=team292-net
        Validity
            Not Before: Sep 13 01:20:12 2021 GMT
            Not After : Aug 28 01:20:12 2024 GMT
        Subject: CN=team292-server
        Subject Public Key Info:
            Public Key Algorithm: rsaEncryption
                RSA Public-Key: (2048 bit)
                Modulus:
                    00:c0:b7:8f:bb:ea:b9:8c:04:45:1c:55:b2:f0:b7:
                    3e:10:dc:4d:75:07:a6:8f:bd:c2:56:aa:3d:a4:4c:
                    47:9c:e3:b8:f8:80:04:46:b8:93:b4:2f:c7:ff:22:
                    0b:9a:c9:0a:21:81:b0:cf:5a:2b:77:6e:1e:33:eb:
                    13:d3:4e:c2:ca:1c:fc:b6:63:d8:b6:23:2f:84:2b:
                    b0:c9:2e:04:40:a2:39:c9:76:54:f0:8a:23:9f:b0:
                    75:87:b5:fe:d1:5f:26:c6:fa:3c:26:15:a7:3e:26:
                    d5:a3:5c:a9:eb:da:6b:84:95:24:c0:5a:0f:be:ec:
                    82:19:77:92:7b:d8:f6:f8:8f:f2:f6:9f:aa:02:f3:
                    c7:74:a7:7b:b5:3e:a4:0a:c9:3e:09:85:a0:98:1a:
                    cb:18:32:de:80:d2:06:01:32:97:f4:9b:b4:77:f8:
                    4d:67:9f:d0:d6:ea:b1:ed:73:bf:8e:95:a9:8f:7c:
                    b8:d9:12:bc:c0:b2:c5:46:58:87:41:60:bc:06:1d:
                    f6:10:7b:63:b1:93:d9:60:d7:3c:25:20:f8:77:d6:
                    81:65:3c:84:34:a1:a5:0a:33:73:a0:e4:22:e6:87:
                    7f:46:61:a1:b4:2b:df:62:5c:08:1e:43:e3:a0:71:
                    e1:91:97:32:34:90:59:50:ff:4a:45:e3:5d:aa:09:
                    a7:ad
                Exponent: 65537 (0x10001)
        X509v3 extensions:
            X509v3 Basic Constraints: 
                CA:FALSE
            X509v3 Subject Key Identifier: 
                34:CA:75:EC:76:E5:0F:33:70:5B:B2:15:08:B2:F4:5F:73:20:0C:4F
            X509v3 Authority Key Identifier: 
                keyid:DC:F7:3F:20:E9:AD:0E:54:69:45:99:85:8D:37:75:E1:8D:E6:E0:2C
                DirName:/CN=team292-net
                serial:54:C4:C3:E3:DA:C5:7F:DB:BE:8E:0C:9C:61:88:68:CD:4C:9C:BE:5B

            X509v3 Extended Key Usage: 
                TLS Web Server Authentication
            X509v3 Key Usage: 
                Digital Signature, Key Encipherment
            X509v3 Subject Alternative Name: 
                DNS:team292-server
    Signature Algorithm: sha256WithRSAEncryption
         73:e3:ca:d6:03:73:0f:be:3c:b4:5e:b2:57:9e:f3:a7:8e:85:
         ff:52:94:96:49:12:68:1d:86:e3:c0:09:16:18:7c:c2:8d:f7:
         76:96:8a:5a:b6:f5:b6:b9:47:6f:1f:22:12:61:dc:01:d9:98:
         ad:26:5a:5d:d2:6d:98:87:d6:73:47:fd:dc:41:c6:51:fc:e7:
         13:20:b2:38:ae:4e:a8:54:07:8a:00:35:df:7b:2c:24:3d:99:
         06:e6:d9:b3:d1:85:08:0c:5a:8c:1a:7e:08:02:64:58:ab:39:
         92:10:88:b2:85:bf:7a:49:b2:60:e5:fe:46:05:99:5d:b1:73:
         74:14:4f:bd:c3:8d:c4:c2:1c:fa:1a:c8:c0:51:42:42:0d:72:
         81:26:52:3f:cf:ce:f4:0c:54:d1:ce:8a:6e:72:1d:0f:78:da:
         51:95:08:8a:24:fc:b3:ff:c4:88:eb:0e:55:42:8b:55:83:ea:
         1d:87:13:6a:2a:56:8c:43:89:78:d7:51:a4:0a:cb:e2:47:e4:
         05:47:6a:d6:10:c9:bb:12:2d:85:25:2e:28:68:ba:c2:7f:03:
         be:59:8a:14:a7:ad:72:a8:78:15:bf:08:42:70:2b:ff:da:62:
         e4:4d:38:47:9a:14:5c:01:80:fb:f3:57:5e:97:ec:88:91:45:
         53:22:4a:b7
-----BEGIN CERTIFICATE-----
MIIDdzCCAl+gAwIBAgIQUtFzkJr6iXmU1UyMoKoQAjANBgkqhkiG9w0BAQsFADAW
MRQwEgYDVQQDDAt0ZWFtMjkyLW5ldDAeFw0yMTA5MTMwMTIwMTJaFw0yNDA4Mjgw
MTIwMTJaMBkxFzAVBgNVBAMMDnRlYW0yOTItc2VydmVyMIIBIjANBgkqhkiG9w0B
AQEFAAOCAQ8AMIIBCgKCAQEAwLePu+q5jARFHFWy8Lc+ENxNdQemj73CVqo9pExH
nOO4+IAERriTtC/H/yILmskKIYGwz1ord24eM+sT007Cyhz8tmPYtiMvhCuwyS4E
QKI5yXZU8Iojn7B1h7X+0V8mxvo8JhWnPibVo1yp69prhJUkwFoPvuyCGXeSe9j2
+I/y9p+qAvPHdKd7tT6kCsk+CYWgmBrLGDLegNIGATKX9Ju0d/hNZ5/Q1uqx7XO/
jpWpj3y42RK8wLLFRliHQWC8Bh32EHtjsZPZYNc8JSD4d9aBZTyENKGlCjNzoOQi
5od/RmGhtCvfYlwIHkPjoHHhkZcyNJBZUP9KReNdqgmnrQIDAQABo4G9MIG6MAkG
A1UdEwQCMAAwHQYDVR0OBBYEFDTKdex25Q8zcFuyFQiy9F9zIAxPMFEGA1UdIwRK
MEiAFNz3PyDprQ5UaUWZhY03deGN5uAsoRqkGDAWMRQwEgYDVQQDDAt0ZWFtMjky
LW5ldIIUVMTD49rFf9u+jgycYYhozUycvlswEwYDVR0lBAwwCgYIKwYBBQUHAwEw
CwYDVR0PBAQDAgWgMBkGA1UdEQQSMBCCDnRlYW0yOTItc2VydmVyMA0GCSqGSIb3
DQEBCwUAA4IBAQBz48rWA3MPvjy0XrJXnvOnjoX/UpSWSRJoHYbjwAkWGHzCjfd2
lopatvW2uUdvHyISYdwB2ZitJlpd0m2Yh9ZzR/3cQcZR/OcTILI4rk6oVAeKADXf
eywkPZkG5tmz0YUIDFqMGn4IAmRYqzmSEIiyhb96SbJg5f5GBZldsXN0FE+9w43E
whz6GsjAUUJCDXKBJlI/z870DFTRzopuch0PeNpRlQiKJPyz/8SI6w5VQotVg+od
hxNqKlaMQ4l411GkCsviR+QFR2rWEMm7Ei2FJS4oaLrCfwO+WYoUp61yqHgVvwhC
cCv/2mLkTThHmhRcAYD781del+yIkUVTIkq3
-----END CERTIFICATE-----
