Certificate:
    Data:
        Version: 3 (0x2)
        Serial Number:
            c8:e2:74:25:6b:3b:36:2b:be:f5:e7:1f:af:34:4e:99
        Signature Algorithm: sha256WithRSAEncryption
        Issuer: CN=team139-net
        Validity
            Not Before: Sep 12 23:59:24 2021 GMT
            Not After : Aug 27 23:59:24 2024 GMT
        Subject: CN=team139-server
        Subject Public Key Info:
            Public Key Algorithm: rsaEncryption
                RSA Public-Key: (2048 bit)
                Modulus:
                    00:d1:9a:f0:b7:32:2d:44:2d:59:79:5c:9b:e8:d0:
                    83:1b:47:ff:c9:91:d4:5c:e2:49:1e:ee:74:33:47:
                    5e:c0:68:cf:94:64:92:65:94:8d:51:03:b7:65:c0:
                    25:13:50:42:74:85:ef:74:1f:e0:8c:d0:35:ab:13:
                    99:90:0a:1d:25:3f:db:d6:e2:01:20:ec:81:40:b5:
                    83:56:65:9d:b2:7f:04:93:9a:a6:5a:8d:53:91:05:
                    ad:72:36:22:be:b5:9d:ff:c2:3e:6e:aa:8f:f8:2f:
                    e0:d4:39:08:c4:2c:02:dc:ce:a5:92:44:51:fa:74:
                    90:54:07:63:e7:8c:7d:a0:de:1a:bf:17:63:60:41:
                    29:06:1b:76:38:97:bd:7f:e2:0a:32:33:6e:01:8f:
                    d6:b4:d0:ac:34:4d:ac:3e:f2:d9:81:a8:79:5a:b5:
                    ce:a3:d1:7e:c8:f2:92:f9:9d:bd:3a:ce:ef:e3:a4:
                    72:f2:bf:15:8d:ce:f3:06:71:80:ee:56:3a:0e:4b:
                    55:99:0a:c5:68:25:e8:26:a3:7c:49:5b:83:32:f0:
                    f9:b4:84:f8:be:85:ee:46:21:a7:04:c8:03:ce:d9:
                    a2:2c:2b:35:73:ad:5a:87:f1:70:15:9d:7e:00:6b:
                    3f:0f:3c:b2:49:d2:f0:44:31:77:88:a0:05:19:4c:
                    6b:4d
                Exponent: 65537 (0x10001)
        X509v3 extensions:
            X509v3 Basic Constraints: 
                CA:FALSE
            X509v3 Subject Key Identifier: 
                44:8C:A5:25:BF:14:CC:2B:1C:61:DA:1F:C0:39:7E:85:F8:1C:2A:87
            X509v3 Authority Key Identifier: 
                keyid:B3:55:3A:DB:C1:1B:74:ED:2B:7F:D6:EE:E1:1D:33:DE:49:A8:69:C6
                DirName:/CN=team139-net
                serial:42:76:AA:40:B6:DB:F9:0F:33:BC:50:4C:C8:D7:99:F1:3F:35:F6:C1

            X509v3 Extended Key Usage: 
                TLS Web Server Authentication
            X509v3 Key Usage: 
                Digital Signature, Key Encipherment
            X509v3 Subject Alternative Name: 
                DNS:team139-server
    Signature Algorithm: sha256WithRSAEncryption
         34:a8:b2:47:92:7a:0e:20:40:fc:b2:c1:79:90:db:da:b6:c4:
         25:0b:33:4f:47:89:ef:93:a5:f7:4a:16:e3:25:63:fc:a4:4e:
         7f:92:91:0a:ec:9c:6e:ea:f0:29:13:04:84:4e:11:2a:29:7f:
         38:00:c9:75:ad:fd:0d:61:03:31:07:31:4a:41:2e:59:5f:3c:
         40:f7:77:b5:63:38:0f:90:96:13:b2:ed:3e:9c:a6:78:d3:70:
         21:14:3a:17:e0:a8:3a:ff:56:b1:29:62:25:76:d9:a3:5d:28:
         2f:7b:f2:0b:5f:90:0e:28:f2:7d:e6:67:87:9f:ad:6d:a8:32:
         f7:19:a1:aa:c2:5a:e4:0b:6a:2e:99:06:ec:5f:8b:18:3a:59:
         bf:91:19:85:54:b7:c8:a8:60:bf:35:ed:a3:a4:00:d4:bd:d4:
         ce:25:05:11:23:9f:24:20:7a:1c:12:fa:bf:07:a6:c8:59:17:
         aa:78:20:b9:8f:d5:4c:25:5d:05:bc:a2:b7:43:be:e7:43:fd:
         c1:41:53:53:3e:d9:2e:6e:87:da:45:59:4a:c3:4d:94:bb:ef:
         70:2a:47:02:db:15:ee:1e:25:cc:16:67:6e:d8:bc:0d:b7:50:
         60:60:c8:d5:2d:c0:51:e1:d9:76:ac:8c:4c:06:a2:bc:6a:7f:
         c4:53:61:c3
-----BEGIN CERTIFICATE-----
MIIDeDCCAmCgAwIBAgIRAMjidCVrOzYrvvXnH680TpkwDQYJKoZIhvcNAQELBQAw
FjEUMBIGA1UEAwwLdGVhbTEzOS1uZXQwHhcNMjEwOTEyMjM1OTI0WhcNMjQwODI3
MjM1OTI0WjAZMRcwFQYDVQQDDA50ZWFtMTM5LXNlcnZlcjCCASIwDQYJKoZIhvcN
AQEBBQADggEPADCCAQoCggEBANGa8LcyLUQtWXlcm+jQgxtH/8mR1FziSR7udDNH
XsBoz5RkkmWUjVEDt2XAJRNQQnSF73Qf4IzQNasTmZAKHSU/29biASDsgUC1g1Zl
nbJ/BJOaplqNU5EFrXI2Ir61nf/CPm6qj/gv4NQ5CMQsAtzOpZJEUfp0kFQHY+eM
faDeGr8XY2BBKQYbdjiXvX/iCjIzbgGP1rTQrDRNrD7y2YGoeVq1zqPRfsjykvmd
vTrO7+OkcvK/FY3O8wZxgO5WOg5LVZkKxWgl6CajfElbgzLw+bSE+L6F7kYhpwTI
A87ZoiwrNXOtWofxcBWdfgBrPw88sknS8EQxd4igBRlMa00CAwEAAaOBvTCBujAJ
BgNVHRMEAjAAMB0GA1UdDgQWBBREjKUlvxTMKxxh2h/AOX6F+BwqhzBRBgNVHSME
SjBIgBSzVTrbwRt07St/1u7hHTPeSahpxqEapBgwFjEUMBIGA1UEAwwLdGVhbTEz
OS1uZXSCFEJ2qkC22/kPM7xQTMjXmfE/NfbBMBMGA1UdJQQMMAoGCCsGAQUFBwMB
MAsGA1UdDwQEAwIFoDAZBgNVHREEEjAQgg50ZWFtMTM5LXNlcnZlcjANBgkqhkiG
9w0BAQsFAAOCAQEANKiyR5J6DiBA/LLBeZDb2rbEJQszT0eJ75Ol90oW4yVj/KRO
f5KRCuycburwKRMEhE4RKil/OADJda39DWEDMQcxSkEuWV88QPd3tWM4D5CWE7Lt
PpymeNNwIRQ6F+CoOv9WsSliJXbZo10oL3vyC1+QDijyfeZnh5+tbagy9xmhqsJa
5AtqLpkG7F+LGDpZv5EZhVS3yKhgvzXto6QA1L3UziUFESOfJCB6HBL6vwemyFkX
qngguY/VTCVdBbyit0O+50P9wUFTUz7ZLm6H2kVZSsNNlLvvcCpHAtsV7h4lzBZn
bti8DbdQYGDI1S3AUeHZdqyMTAaivGp/xFNhww==
-----END CERTIFICATE-----
