Certificate:
    Data:
        Version: 3 (0x2)
        Serial Number:
            c7:05:39:5f:dc:e9:e3:a2:b5:b6:14:43:7f:eb:54:3d
        Signature Algorithm: sha256WithRSAEncryption
        Issuer: CN=team748-net
        Validity
            Not Before: Sep 13 05:10:55 2021 GMT
            Not After : Aug 28 05:10:55 2024 GMT
        Subject: CN=team748-client
        Subject Public Key Info:
            Public Key Algorithm: rsaEncryption
                RSA Public-Key: (2048 bit)
                Modulus:
                    00:ba:b8:83:f1:98:a7:c4:4b:24:57:a3:6b:c6:25:
                    b1:23:45:4f:cf:60:d4:4d:4a:26:ee:77:8e:63:ef:
                    2a:1b:e6:3a:bd:c3:be:d1:60:d8:1e:01:63:f3:80:
                    2b:18:db:5b:11:54:f8:57:b5:49:d0:96:37:f0:25:
                    52:04:8e:1e:e3:bb:78:97:37:bb:36:0e:e7:eb:28:
                    9f:fb:b3:ed:9e:f1:bb:e3:92:10:97:8d:da:02:fe:
                    24:55:17:d1:28:a7:01:f9:b5:25:a9:ed:98:d7:bb:
                    df:bc:0d:08:8a:09:64:8d:83:71:2e:46:d4:c0:46:
                    42:b4:6a:e8:e4:3e:76:c3:28:24:5f:09:74:96:9d:
                    eb:7e:5f:40:19:23:4d:e7:81:f0:25:e3:59:ee:94:
                    0d:88:5b:89:af:81:6f:7d:06:bf:3a:c4:86:68:49:
                    63:dd:d2:9b:f0:0a:fd:2f:8b:64:32:b7:a1:58:c7:
                    a4:6e:78:c1:d7:cf:36:ae:a7:d9:28:99:e8:6b:14:
                    4b:da:ae:12:7d:92:d8:1a:bb:b7:e5:7a:d6:8d:98:
                    e6:23:8f:c2:99:3b:50:bf:31:b3:66:87:ce:f1:f4:
                    a8:1d:7e:0f:dc:7a:04:ec:af:71:59:75:9f:d1:19:
                    42:3c:08:fd:06:b9:09:d3:6d:93:ae:fc:3c:a3:77:
                    38:db
                Exponent: 65537 (0x10001)
        X509v3 extensions:
            X509v3 Basic Constraints: 
                CA:FALSE
            X509v3 Subject Key Identifier: 
                BA:11:86:7B:BC:F9:30:0A:0F:A3:88:61:DB:0A:F3:63:55:AF:DB:85
            X509v3 Authority Key Identifier: 
                keyid:7E:86:12:73:22:13:16:D2:15:59:4F:36:B3:BB:B0:7F:07:E9:5B:C5
                DirName:/CN=team748-net
                serial:48:5E:33:07:A8:1B:8D:42:67:F0:3F:94:E9:A8:76:E5:77:A4:C7:FD

            X509v3 Extended Key Usage: 
                TLS Web Client Authentication
            X509v3 Key Usage: 
                Digital Signature
    Signature Algorithm: sha256WithRSAEncryption
         8f:00:97:df:cc:7e:05:bf:7d:13:0d:ea:b0:3b:b2:57:35:46:
         de:21:8f:e2:a5:e5:31:cc:0a:b7:b1:12:46:a7:1e:8c:4c:e7:
         53:4a:78:60:e1:73:44:43:58:7c:d6:3f:d6:96:b8:0d:69:1f:
         a1:35:1b:6e:d4:af:54:23:72:42:7a:df:f5:c1:99:b2:84:fa:
         78:d6:8b:8f:e4:7b:9c:4e:f7:b8:a9:b0:4d:1a:40:92:73:b7:
         4f:87:76:bf:da:e1:fd:ae:06:45:9b:38:66:f0:34:0a:4c:06:
         71:3a:07:e9:0f:74:c9:02:ba:89:a4:cb:fa:d1:a2:16:38:8b:
         91:9e:15:8d:f9:80:1f:12:2c:8a:6b:7d:3c:02:e5:f4:44:7e:
         b6:d1:24:bb:a9:ca:53:0c:47:45:c2:ad:e0:40:5e:68:7f:47:
         52:6b:95:1a:b8:8a:d1:49:fc:a5:0b:07:7f:bb:41:81:e6:03:
         a5:8e:41:5a:4c:6f:56:da:a7:6b:da:0c:4e:86:d5:6f:fe:f7:
         86:78:88:54:10:0c:69:bc:b7:ed:ce:82:67:ab:37:fa:65:80:
         97:83:f6:ee:34:dc:2a:25:d7:88:54:2e:1b:46:a4:22:38:c8:
         ee:33:d7:c2:01:fa:d4:cc:5e:01:68:d6:41:4a:59:5d:34:cb:
         cf:95:93:d2
-----BEGIN CERTIFICATE-----
MIIDXTCCAkWgAwIBAgIRAMcFOV/c6eOitbYUQ3/rVD0wDQYJKoZIhvcNAQELBQAw
FjEUMBIGA1UEAwwLdGVhbTc0OC1uZXQwHhcNMjEwOTEzMDUxMDU1WhcNMjQwODI4
MDUxMDU1WjAZMRcwFQYDVQQDDA50ZWFtNzQ4LWNsaWVudDCCASIwDQYJKoZIhvcN
AQEBBQADggEPADCCAQoCggEBALq4g/GYp8RLJFeja8YlsSNFT89g1E1KJu53jmPv
KhvmOr3DvtFg2B4BY/OAKxjbWxFU+Fe1SdCWN/AlUgSOHuO7eJc3uzYO5+son/uz
7Z7xu+OSEJeN2gL+JFUX0SinAfm1JantmNe737wNCIoJZI2DcS5G1MBGQrRq6OQ+
dsMoJF8JdJad635fQBkjTeeB8CXjWe6UDYhbia+Bb30GvzrEhmhJY93Sm/AK/S+L
ZDK3oVjHpG54wdfPNq6n2SiZ6GsUS9quEn2S2Bq7t+V61o2Y5iOPwpk7UL8xs2aH
zvH0qB1+D9x6BOyvcVl1n9EZQjwI/Qa5CdNtk678PKN3ONsCAwEAAaOBojCBnzAJ
BgNVHRMEAjAAMB0GA1UdDgQWBBS6EYZ7vPkwCg+jiGHbCvNjVa/bhTBRBgNVHSME
SjBIgBR+hhJzIhMW0hVZTzazu7B/B+lbxaEapBgwFjEUMBIGA1UEAwwLdGVhbTc0
OC1uZXSCFEheMweoG41CZ/A/lOmoduV3pMf9MBMGA1UdJQQMMAoGCCsGAQUFBwMC
MAsGA1UdDwQEAwIHgDANBgkqhkiG9w0BAQsFAAOCAQEAjwCX38x+Bb99Ew3qsDuy
VzVG3iGP4qXlMcwKt7ESRqcejEznU0p4YOFzRENYfNY/1pa4DWkfoTUbbtSvVCNy
Qnrf9cGZsoT6eNaLj+R7nE73uKmwTRpAknO3T4d2v9rh/a4GRZs4ZvA0CkwGcToH
6Q90yQK6iaTL+tGiFjiLkZ4VjfmAHxIsimt9PALl9ER+ttEku6nKUwxHRcKt4EBe
aH9HUmuVGriK0Un8pQsHf7tBgeYDpY5BWkxvVtqna9oMTobVb/73hniIVBAMaby3
7c6CZ6s3+mWAl4P27jTcKiXXiFQuG0akIjjI7jPXwgH61MxeAWjWQUpZXTTLz5WT
0g==
-----END CERTIFICATE-----
