Certificate:
    Data:
        Version: 3 (0x2)
        Serial Number:
            12:24:07:19:65:ff:84:8b:53:ae:79:ce:ce:16:75:5a
        Signature Algorithm: sha256WithRSAEncryption
        Issuer: CN=team277-net
        Validity
            Not Before: Sep 13 01:18:23 2021 GMT
            Not After : Aug 28 01:18:23 2024 GMT
        Subject: CN=team277-client
        Subject Public Key Info:
            Public Key Algorithm: rsaEncryption
                RSA Public-Key: (2048 bit)
                Modulus:
                    00:e5:09:70:09:13:88:15:c6:5d:07:42:35:ef:be:
                    c1:64:8d:97:6a:63:64:dc:e4:e6:1f:17:36:08:79:
                    a2:b5:48:42:c9:ef:68:3f:a6:ae:dc:81:55:ee:1d:
                    98:62:3c:ea:41:c0:4e:31:59:42:fb:de:a9:dd:33:
                    79:d3:9b:4f:81:a6:19:6c:a4:81:c9:11:46:d0:ae:
                    05:8b:ac:69:9a:b7:a0:60:5e:25:7a:7b:7e:a6:73:
                    69:33:6f:ae:2d:44:62:bb:37:e5:f7:0f:81:98:2a:
                    61:14:48:bf:b4:59:0f:c1:6a:3b:dd:f7:4a:0c:fc:
                    ec:d5:93:95:fc:8a:e4:39:9d:69:34:94:47:ce:b6:
                    a3:b1:c6:74:73:9e:4b:bf:eb:6e:ab:fb:8f:d8:18:
                    ce:3f:33:a5:fd:b0:91:90:75:14:24:04:a1:2f:86:
                    fd:f5:2b:56:fa:94:27:68:eb:51:84:2a:ce:d3:cb:
                    18:7d:a1:ea:6f:7b:f3:1b:5f:e3:60:0a:b7:31:55:
                    d3:e6:be:a5:31:d7:27:06:f0:e6:fd:89:96:d5:24:
                    a0:eb:b7:18:1f:9b:d1:3e:6a:d1:ba:5e:15:36:84:
                    36:d5:f5:5e:fb:54:b3:6c:93:1c:2f:6d:5a:7b:37:
                    ba:1f:a1:1f:17:3f:5c:c6:4e:be:f7:91:6a:aa:00:
                    f4:01
                Exponent: 65537 (0x10001)
        X509v3 extensions:
            X509v3 Basic Constraints: 
                CA:FALSE
            X509v3 Subject Key Identifier: 
                89:E7:1D:C8:AE:E3:1E:E7:7A:7A:E1:72:4A:67:AC:CB:E4:AE:CD:75
            X509v3 Authority Key Identifier: 
                keyid:1A:86:7C:0F:CE:71:3D:E7:47:43:B8:F6:FE:6D:6F:0B:E5:14:05:2E
                DirName:/CN=team277-net
                serial:41:EB:18:0B:B8:D3:86:0E:4A:1B:22:59:4C:20:61:60:D7:47:0F:91

            X509v3 Extended Key Usage: 
                TLS Web Client Authentication
            X509v3 Key Usage: 
                Digital Signature
    Signature Algorithm: sha256WithRSAEncryption
         23:80:2e:0e:61:50:df:89:6a:36:e7:96:cc:9e:c4:22:05:7d:
         54:aa:78:70:8f:18:1f:a7:c6:bc:42:89:46:24:a2:09:2a:74:
         fb:64:48:d1:77:5d:79:31:7a:32:cc:15:84:e4:00:18:d5:ba:
         93:c3:4e:71:f9:bd:ed:cd:c8:f9:00:9e:97:9d:40:73:28:63:
         25:07:04:ec:b7:b9:c1:74:0c:5d:9f:87:72:23:eb:9c:0d:2b:
         c9:77:cf:bf:88:25:cd:e1:15:2c:2c:dc:4c:82:66:10:71:a0:
         84:2a:7f:53:08:29:47:25:ca:ac:2b:87:e3:43:71:59:82:1d:
         e7:1a:2c:eb:7a:9b:d3:02:21:c3:d5:4b:51:ce:82:a3:75:bf:
         fe:43:97:ee:30:f6:13:e4:5e:29:70:fe:06:b7:25:7a:39:5a:
         2e:df:3f:ed:db:d1:f0:bf:de:e8:3a:f5:0c:d8:05:6a:cf:ad:
         ad:6e:c1:97:e7:37:77:cf:5b:0a:2f:53:b9:c3:bd:76:eb:c5:
         1f:88:b9:e9:ca:e8:3d:f0:13:57:82:c7:fc:c1:d9:c6:e5:fe:
         3c:69:ae:6b:0f:ca:c3:f5:75:bf:c6:6b:2e:e8:27:45:d2:0e:
         b6:6e:12:bd:f2:2b:9c:fd:5e:f9:17:ac:20:e3:ae:46:cf:a5:
         63:9c:5e:21
-----BEGIN CERTIFICATE-----
MIIDXDCCAkSgAwIBAgIQEiQHGWX/hItTrnnOzhZ1WjANBgkqhkiG9w0BAQsFADAW
MRQwEgYDVQQDDAt0ZWFtMjc3LW5ldDAeFw0yMTA5MTMwMTE4MjNaFw0yNDA4Mjgw
MTE4MjNaMBkxFzAVBgNVBAMMDnRlYW0yNzctY2xpZW50MIIBIjANBgkqhkiG9w0B
AQEFAAOCAQ8AMIIBCgKCAQEA5QlwCROIFcZdB0I1777BZI2XamNk3OTmHxc2CHmi
tUhCye9oP6au3IFV7h2YYjzqQcBOMVlC+96p3TN505tPgaYZbKSByRFG0K4Fi6xp
mregYF4lent+pnNpM2+uLURiuzfl9w+BmCphFEi/tFkPwWo73fdKDPzs1ZOV/Irk
OZ1pNJRHzrajscZ0c55Lv+tuq/uP2BjOPzOl/bCRkHUUJAShL4b99StW+pQnaOtR
hCrO08sYfaHqb3vzG1/jYAq3MVXT5r6lMdcnBvDm/YmW1SSg67cYH5vRPmrRul4V
NoQ21fVe+1SzbJMcL21aeze6H6EfFz9cxk6+95FqqgD0AQIDAQABo4GiMIGfMAkG
A1UdEwQCMAAwHQYDVR0OBBYEFInnHciu4x7nenrhckpnrMvkrs11MFEGA1UdIwRK
MEiAFBqGfA/OcT3nR0O49v5tbwvlFAUuoRqkGDAWMRQwEgYDVQQDDAt0ZWFtMjc3
LW5ldIIUQesYC7jThg5KGyJZTCBhYNdHD5EwEwYDVR0lBAwwCgYIKwYBBQUHAwIw
CwYDVR0PBAQDAgeAMA0GCSqGSIb3DQEBCwUAA4IBAQAjgC4OYVDfiWo255bMnsQi
BX1Uqnhwjxgfp8a8QolGJKIJKnT7ZEjRd115MXoyzBWE5AAY1bqTw05x+b3tzcj5
AJ6XnUBzKGMlBwTst7nBdAxdn4dyI+ucDSvJd8+/iCXN4RUsLNxMgmYQcaCEKn9T
CClHJcqsK4fjQ3FZgh3nGizrepvTAiHD1UtRzoKjdb/+Q5fuMPYT5F4pcP4GtyV6
OVou3z/t29Hwv97oOvUM2AVqz62tbsGX5zd3z1sKL1O5w71268UfiLnpyug98BNX
gsf8wdnG5f48aa5rD8rD9XW/xmsu6CdF0g62bhK98iuc/V75F6wg465Gz6VjnF4h
-----END CERTIFICATE-----
