Certificate:
    Data:
        Version: 3 (0x2)
        Serial Number:
            29:56:07:b0:2d:6c:76:bb:8e:58:f1:57:67:59:93:ea
        Signature Algorithm: sha256WithRSAEncryption
        Issuer: CN=team767-net
        Validity
            Not Before: Sep 13 06:05:09 2021 GMT
            Not After : Aug 28 06:05:09 2024 GMT
        Subject: CN=team767-server
        Subject Public Key Info:
            Public Key Algorithm: rsaEncryption
                RSA Public-Key: (2048 bit)
                Modulus:
                    00:cb:c9:e3:ff:12:99:e1:06:59:61:7f:8e:b5:70:
                    24:a1:8c:42:3b:84:12:6c:94:7d:9b:ff:f1:58:ad:
                    3d:bf:1b:60:0a:c6:5f:2e:fb:73:60:71:89:5a:bd:
                    cb:3f:c1:c2:85:a1:65:9b:56:66:f1:59:12:17:24:
                    48:84:b1:91:c8:15:2e:5c:45:b1:db:80:3e:fa:27:
                    21:de:88:dc:5c:ca:0f:1c:a3:4e:a4:ec:cc:e7:5b:
                    10:71:93:f0:44:96:5e:00:9c:4a:83:66:0a:5b:f6:
                    20:cf:12:94:97:b8:ea:d2:ed:c1:7f:de:5d:ae:36:
                    65:d8:bc:b5:a3:7a:ff:4e:09:87:74:80:2f:99:e3:
                    c5:2a:59:6c:4b:27:77:59:e1:30:14:10:92:58:2d:
                    6f:54:82:66:d5:8a:ae:59:2b:24:32:0e:90:a4:fd:
                    de:3b:1c:5f:3d:3b:41:3c:24:7a:cc:20:9d:b9:09:
                    03:0b:0b:96:e6:75:02:2a:40:5f:e2:a6:49:17:1a:
                    59:fa:c9:45:d8:8e:ea:92:8e:17:a3:20:01:5c:a2:
                    ba:7e:f2:ec:54:41:ec:ec:21:b8:22:2d:b3:5b:a5:
                    f6:37:a5:00:ef:5d:76:d8:24:03:0b:22:0e:41:e0:
                    a3:c4:db:f4:fb:12:12:4f:51:01:bf:5b:c9:70:80:
                    2d:4d
                Exponent: 65537 (0x10001)
        X509v3 extensions:
            X509v3 Basic Constraints: 
                CA:FALSE
            X509v3 Subject Key Identifier: 
                24:2C:61:7C:93:CA:EE:59:01:8F:72:9C:15:64:F5:17:8C:8A:5C:C5
            X509v3 Authority Key Identifier: 
                keyid:53:DA:D9:59:18:62:81:C7:CB:8F:86:D2:31:CC:B4:BB:BA:34:E1:20
                DirName:/CN=team767-net
                serial:6A:F8:45:27:75:D5:5A:79:CB:97:82:AD:49:92:F3:33:89:8F:69:3B

            X509v3 Extended Key Usage: 
                TLS Web Server Authentication
            X509v3 Key Usage: 
                Digital Signature, Key Encipherment
            X509v3 Subject Alternative Name: 
                DNS:team767-server
    Signature Algorithm: sha256WithRSAEncryption
         b0:3a:d9:56:46:fc:24:ce:10:a3:b7:82:d9:9e:38:01:49:58:
         af:20:52:47:d9:03:e7:e7:d3:d7:6a:49:3e:30:48:2f:47:c8:
         87:7a:e7:c9:dd:80:c2:3c:ba:75:55:c4:e3:f7:09:39:85:7c:
         dd:e3:92:df:8c:8f:3b:38:49:c8:33:f6:c7:73:24:d3:a8:db:
         9a:53:08:a7:b0:c5:9f:09:a3:e9:ae:a1:22:ff:5f:8c:01:9c:
         b2:73:20:02:82:c9:8a:3e:1c:c9:ad:03:b6:29:23:7d:57:a3:
         ad:f9:2c:09:f1:48:e2:2a:b0:e0:20:4b:c1:2e:55:47:b5:1c:
         be:27:eb:1a:bc:36:c9:31:dd:05:7f:17:4a:77:86:25:24:4b:
         03:39:b1:3b:98:69:0f:c9:f1:26:1e:4f:e5:12:77:34:81:cc:
         66:79:8a:8c:96:94:53:1b:5d:e7:22:c1:e5:97:73:0a:f4:1b:
         b6:15:1c:99:85:7e:b4:2e:22:32:1b:81:03:9e:9b:da:89:e2:
         fa:1f:eb:4f:ed:92:48:ee:96:10:7a:28:53:46:a9:e1:1a:41:
         91:aa:d2:83:1f:9b:e9:20:b8:fc:f0:9c:fd:9e:8a:f2:84:a2:
         f9:e1:7f:00:3f:d6:b1:a6:70:ba:da:c6:72:f5:a2:03:85:c9:
         0b:93:76:2a
-----BEGIN CERTIFICATE-----
MIIDdzCCAl+gAwIBAgIQKVYHsC1sdruOWPFXZ1mT6jANBgkqhkiG9w0BAQsFADAW
MRQwEgYDVQQDDAt0ZWFtNzY3LW5ldDAeFw0yMTA5MTMwNjA1MDlaFw0yNDA4Mjgw
NjA1MDlaMBkxFzAVBgNVBAMMDnRlYW03Njctc2VydmVyMIIBIjANBgkqhkiG9w0B
AQEFAAOCAQ8AMIIBCgKCAQEAy8nj/xKZ4QZZYX+OtXAkoYxCO4QSbJR9m//xWK09
vxtgCsZfLvtzYHGJWr3LP8HChaFlm1Zm8VkSFyRIhLGRyBUuXEWx24A++ich3ojc
XMoPHKNOpOzM51sQcZPwRJZeAJxKg2YKW/YgzxKUl7jq0u3Bf95drjZl2Ly1o3r/
TgmHdIAvmePFKllsSyd3WeEwFBCSWC1vVIJm1YquWSskMg6QpP3eOxxfPTtBPCR6
zCCduQkDCwuW5nUCKkBf4qZJFxpZ+slF2I7qko4XoyABXKK6fvLsVEHs7CG4Ii2z
W6X2N6UA71122CQDCyIOQeCjxNv0+xIST1EBv1vJcIAtTQIDAQABo4G9MIG6MAkG
A1UdEwQCMAAwHQYDVR0OBBYEFCQsYXyTyu5ZAY9ynBVk9ReMilzFMFEGA1UdIwRK
MEiAFFPa2VkYYoHHy4+G0jHMtLu6NOEgoRqkGDAWMRQwEgYDVQQDDAt0ZWFtNzY3
LW5ldIIUavhFJ3XVWnnLl4KtSZLzM4mPaTswEwYDVR0lBAwwCgYIKwYBBQUHAwEw
CwYDVR0PBAQDAgWgMBkGA1UdEQQSMBCCDnRlYW03Njctc2VydmVyMA0GCSqGSIb3
DQEBCwUAA4IBAQCwOtlWRvwkzhCjt4LZnjgBSVivIFJH2QPn59PXakk+MEgvR8iH
eufJ3YDCPLp1VcTj9wk5hXzd45LfjI87OEnIM/bHcyTTqNuaUwinsMWfCaPprqEi
/1+MAZyycyACgsmKPhzJrQO2KSN9V6Ot+SwJ8UjiKrDgIEvBLlVHtRy+J+savDbJ
Md0FfxdKd4YlJEsDObE7mGkPyfEmHk/lEnc0gcxmeYqMlpRTG13nIsHll3MK9Bu2
FRyZhX60LiIyG4EDnpvaieL6H+tP7ZJI7pYQeihTRqnhGkGRqtKDH5vpILj88Jz9
noryhKL54X8AP9axpnC62sZy9aIDhckLk3Yq
-----END CERTIFICATE-----
