Certificate:
    Data:
        Version: 3 (0x2)
        Serial Number:
            28:b7:56:93:8f:e7:db:ed:00:7c:8a:f7:3e:0c:7f:2e
        Signature Algorithm: sha256WithRSAEncryption
        Issuer: CN=team57-net
        Validity
            Not Before: Sep 12 23:14:37 2021 GMT
            Not After : Aug 27 23:14:37 2024 GMT
        Subject: CN=team57-client
        Subject Public Key Info:
            Public Key Algorithm: rsaEncryption
                RSA Public-Key: (2048 bit)
                Modulus:
                    00:a6:f4:74:41:8a:a2:b5:93:89:01:35:7c:bf:8f:
                    99:fe:14:80:42:37:40:35:f8:9f:57:a1:40:85:26:
                    f3:cb:eb:ba:ab:6f:a2:dd:bd:01:85:65:e6:6d:a2:
                    6a:b7:6b:12:03:50:81:bb:5c:df:ee:06:9a:43:f9:
                    0e:b2:7e:e2:ce:d0:1a:8d:58:03:0b:0e:49:02:ec:
                    cb:a6:a9:f7:92:2d:92:a8:41:e2:3a:07:c5:c7:b8:
                    c4:fb:4f:b9:dc:86:07:10:45:6c:b2:21:06:c9:13:
                    37:06:b1:b2:85:b4:6e:19:4a:34:c4:9f:3d:42:ab:
                    9e:cd:23:45:39:76:c8:31:67:77:c3:31:91:17:65:
                    2f:ba:ba:cf:c2:10:99:59:ac:cd:b5:7f:d1:3f:7f:
                    a9:36:2e:21:46:41:d6:61:56:6b:f2:1f:85:7d:cf:
                    9a:1e:91:c5:82:7b:a4:bc:28:f5:f9:03:a0:e1:52:
                    c9:c0:45:42:af:40:a1:97:df:3f:ec:07:80:97:17:
                    07:18:09:84:ca:72:ca:02:23:7e:ca:c1:a3:b6:36:
                    84:f6:58:69:90:c4:5c:d6:ae:cd:53:1e:2c:24:b1:
                    9b:a2:95:3e:9c:de:c3:42:81:56:33:f3:ce:70:c7:
                    ef:41:23:df:f0:0f:b2:7b:8c:a9:18:a7:3a:fc:b3:
                    6b:f1
                Exponent: 65537 (0x10001)
        X509v3 extensions:
            X509v3 Basic Constraints: 
                CA:FALSE
            X509v3 Subject Key Identifier: 
                88:9D:88:01:E1:FF:16:DE:76:53:6D:E7:F5:48:3A:6E:35:0E:8D:55
            X509v3 Authority Key Identifier: 
                keyid:DB:30:4E:C2:4F:DF:3B:16:9E:78:82:D7:26:7E:0C:BD:3A:EF:85:9C
                DirName:/CN=team57-net
                serial:52:97:AA:00:55:4B:60:61:E9:D0:DB:EB:35:04:3E:ED:29:A4:E8:5A

            X509v3 Extended Key Usage: 
                TLS Web Client Authentication
            X509v3 Key Usage: 
                Digital Signature
    Signature Algorithm: sha256WithRSAEncryption
         4c:d7:4f:80:02:7a:1c:9e:a2:6a:67:c5:ae:3a:a0:09:09:1a:
         81:7b:6f:43:6c:9d:62:38:9a:7e:ce:ee:2a:3a:8a:af:9d:93:
         c1:dc:62:de:d4:13:e4:26:9d:ab:de:a6:39:e8:77:db:71:09:
         a2:99:78:03:e8:62:c5:27:68:ff:aa:ad:f7:36:5c:e7:1d:a6:
         fe:71:45:97:cd:1c:c3:bf:e6:9c:56:04:41:0c:91:c1:29:8d:
         ce:73:88:9a:67:8f:fe:80:d4:66:77:07:19:84:6e:a8:25:a9:
         79:fc:23:24:a6:63:51:2a:5d:bf:2c:cd:98:33:e0:c2:63:3c:
         2f:a8:47:f5:99:31:67:e1:18:7c:8a:91:67:b4:16:f2:11:48:
         77:16:1a:29:60:79:2a:76:73:8d:a8:b3:bf:24:50:57:0f:0d:
         9a:f3:15:c0:36:53:c8:a2:46:67:ae:92:93:63:23:f5:4f:53:
         cd:49:1d:15:95:02:a7:f2:ae:f0:85:43:34:a7:ee:16:fe:f5:
         05:54:2f:cf:22:00:e6:01:62:85:12:0b:db:23:32:1b:6b:9f:
         dd:0f:ca:8e:d3:f0:c9:ec:07:93:f7:44:4c:ae:9c:0a:57:9e:
         4b:47:69:6f:1b:9a:cd:24:a6:ab:7c:15:86:07:80:5f:b7:8f:
         96:88:7a:ff
-----BEGIN CERTIFICATE-----
MIIDWTCCAkGgAwIBAgIQKLdWk4/n2+0AfIr3Pgx/LjANBgkqhkiG9w0BAQsFADAV
MRMwEQYDVQQDDAp0ZWFtNTctbmV0MB4XDTIxMDkxMjIzMTQzN1oXDTI0MDgyNzIz
MTQzN1owGDEWMBQGA1UEAwwNdGVhbTU3LWNsaWVudDCCASIwDQYJKoZIhvcNAQEB
BQADggEPADCCAQoCggEBAKb0dEGKorWTiQE1fL+Pmf4UgEI3QDX4n1ehQIUm88vr
uqtvot29AYVl5m2iardrEgNQgbtc3+4GmkP5DrJ+4s7QGo1YAwsOSQLsy6ap95It
kqhB4joHxce4xPtPudyGBxBFbLIhBskTNwaxsoW0bhlKNMSfPUKrns0jRTl2yDFn
d8MxkRdlL7q6z8IQmVmszbV/0T9/qTYuIUZB1mFWa/IfhX3Pmh6RxYJ7pLwo9fkD
oOFSycBFQq9AoZffP+wHgJcXBxgJhMpyygIjfsrBo7Y2hPZYaZDEXNauzVMeLCSx
m6KVPpzew0KBVjPzznDH70Ej3/APsnuMqRinOvyza/ECAwEAAaOBoTCBnjAJBgNV
HRMEAjAAMB0GA1UdDgQWBBSInYgB4f8W3nZTbef1SDpuNQ6NVTBQBgNVHSMESTBH
gBTbME7CT987Fp54gtcmfgy9Ou+FnKEZpBcwFTETMBEGA1UEAwwKdGVhbTU3LW5l
dIIUUpeqAFVLYGHp0NvrNQQ+7Smk6FowEwYDVR0lBAwwCgYIKwYBBQUHAwIwCwYD
VR0PBAQDAgeAMA0GCSqGSIb3DQEBCwUAA4IBAQBM10+AAnocnqJqZ8WuOqAJCRqB
e29DbJ1iOJp+zu4qOoqvnZPB3GLe1BPkJp2r3qY56HfbcQmimXgD6GLFJ2j/qq33
NlznHab+cUWXzRzDv+acVgRBDJHBKY3Oc4iaZ4/+gNRmdwcZhG6oJal5/CMkpmNR
Kl2/LM2YM+DCYzwvqEf1mTFn4Rh8ipFntBbyEUh3FhopYHkqdnONqLO/JFBXDw2a
8xXANlPIokZnrpKTYyP1T1PNSR0VlQKn8q7whUM0p+4W/vUFVC/PIgDmAWKFEgvb
IzIba5/dD8qO0/DJ7AeT90RMrpwKV55LR2lvG5rNJKarfBWGB4Bft4+WiHr/
-----END CERTIFICATE-----
