Certificate:
    Data:
        Version: 3 (0x2)
        Serial Number:
            68:7f:6c:a6:7e:7c:63:3e:bf:2e:82:45:7b:00:57:fc
        Signature Algorithm: sha256WithRSAEncryption
        Issuer: CN=team57-net
        Validity
            Not Before: Sep 12 23:14:37 2021 GMT
            Not After : Aug 27 23:14:37 2024 GMT
        Subject: CN=team57-server
        Subject Public Key Info:
            Public Key Algorithm: rsaEncryption
                RSA Public-Key: (2048 bit)
                Modulus:
                    00:cf:88:9c:5a:bf:3f:6b:e7:9f:f7:a3:20:6a:8a:
                    16:f1:80:32:c0:5f:1e:27:d0:b9:69:f6:e3:0e:24:
                    92:d0:6b:e0:1b:44:4d:66:29:8e:d1:6d:80:3e:24:
                    e7:48:96:7b:32:b5:78:b4:f2:e1:da:6b:a8:b1:fd:
                    fc:43:d8:35:9a:ea:9f:63:50:78:92:e3:1e:ec:d8:
                    db:86:78:83:58:b9:4e:0c:f3:0c:94:cd:7e:56:46:
                    cd:f6:4a:cc:fd:bb:bf:84:2e:64:06:2a:c7:d0:e8:
                    6a:21:e1:1a:cb:37:fe:43:e4:8a:76:ec:69:b9:f8:
                    12:2f:fb:bf:84:0d:c1:6d:32:f0:e7:71:03:08:c4:
                    13:0e:a1:fc:6a:f1:59:50:b9:06:f1:38:b6:c3:aa:
                    a5:51:dd:e2:68:0a:04:d7:0f:e9:24:99:d2:2a:68:
                    84:d1:55:0f:ec:c3:88:94:93:9a:3f:bb:a1:bf:7d:
                    5c:4d:21:9a:0a:3c:98:c2:f1:7f:58:dc:7b:d3:53:
                    09:9c:0c:5f:9a:7b:0b:6f:0b:c2:1a:df:44:39:2e:
                    4f:8c:4d:ff:af:00:1e:3b:5b:c8:d1:e2:61:ac:89:
                    42:17:34:2d:1c:9c:67:5c:d1:77:12:6c:ae:8c:a6:
                    5b:40:80:73:b5:4a:3a:ae:91:76:2c:2a:42:ed:2a:
                    f4:79
                Exponent: 65537 (0x10001)
        X509v3 extensions:
            X509v3 Basic Constraints: 
                CA:FALSE
            X509v3 Subject Key Identifier: 
                F2:6C:CB:4F:F9:52:21:48:41:D5:25:F3:F9:A6:9D:4D:C3:63:87:9E
            X509v3 Authority Key Identifier: 
                keyid:DB:30:4E:C2:4F:DF:3B:16:9E:78:82:D7:26:7E:0C:BD:3A:EF:85:9C
                DirName:/CN=team57-net
                serial:52:97:AA:00:55:4B:60:61:E9:D0:DB:EB:35:04:3E:ED:29:A4:E8:5A

            X509v3 Extended Key Usage: 
                TLS Web Server Authentication
            X509v3 Key Usage: 
                Digital Signature, Key Encipherment
            X509v3 Subject Alternative Name: 
                DNS:team57-server
    Signature Algorithm: sha256WithRSAEncryption
         43:ff:fd:84:56:83:e0:cf:21:00:e6:06:85:55:b0:c7:09:db:
         f1:d6:bd:ce:c8:78:d2:35:11:05:62:f4:af:fb:36:1b:30:94:
         b9:bb:db:fd:0d:cd:44:f0:1c:72:58:53:16:2e:a2:e3:66:e4:
         82:10:3d:f5:17:ee:29:27:9b:1f:49:b8:35:9e:cf:f9:41:37:
         d9:6a:06:5b:2f:a4:3d:a0:5e:5d:4d:d0:84:99:75:2e:38:f9:
         d6:31:f1:1d:60:4d:60:25:96:13:41:c3:bf:c7:93:f5:1c:a2:
         46:12:f9:71:06:63:8a:2d:3c:8a:a2:6f:60:b5:73:f4:e6:41:
         54:71:3d:d5:ed:a4:02:b4:73:17:fa:7c:ac:7f:d5:ca:8d:43:
         ba:74:e8:06:79:b1:43:e0:3a:a8:d3:f2:0a:a3:56:ea:b3:b4:
         cc:f4:ea:4a:9d:cb:6a:ef:6c:be:8f:da:2f:94:af:3e:41:d8:
         68:2f:52:7d:0a:15:80:e8:67:4c:58:34:ce:d8:2b:3d:85:b2:
         9e:a5:09:8f:de:b1:5e:d4:75:01:e2:9f:76:b7:ad:a0:16:0c:
         45:b9:fc:c9:95:2f:86:a0:9d:ae:30:7b:3a:15:fb:c7:ce:ad:
         68:a5:be:86:c8:b2:84:87:45:16:32:f5:b7:58:df:d9:0d:ba:
         7e:ef:8f:f8
-----BEGIN CERTIFICATE-----
MIIDczCCAlugAwIBAgIQaH9spn58Yz6/LoJFewBX/DANBgkqhkiG9w0BAQsFADAV
MRMwEQYDVQQDDAp0ZWFtNTctbmV0MB4XDTIxMDkxMjIzMTQzN1oXDTI0MDgyNzIz
MTQzN1owGDEWMBQGA1UEAwwNdGVhbTU3LXNlcnZlcjCCASIwDQYJKoZIhvcNAQEB
BQADggEPADCCAQoCggEBAM+InFq/P2vnn/ejIGqKFvGAMsBfHifQuWn24w4kktBr
4BtETWYpjtFtgD4k50iWezK1eLTy4dprqLH9/EPYNZrqn2NQeJLjHuzY24Z4g1i5
TgzzDJTNflZGzfZKzP27v4QuZAYqx9DoaiHhGss3/kPkinbsabn4Ei/7v4QNwW0y
8OdxAwjEEw6h/GrxWVC5BvE4tsOqpVHd4mgKBNcP6SSZ0ipohNFVD+zDiJSTmj+7
ob99XE0hmgo8mMLxf1jce9NTCZwMX5p7C28LwhrfRDkuT4xN/68AHjtbyNHiYayJ
Qhc0LRycZ1zRdxJsroymW0CAc7VKOq6RdiwqQu0q9HkCAwEAAaOBuzCBuDAJBgNV
HRMEAjAAMB0GA1UdDgQWBBTybMtP+VIhSEHVJfP5pp1Nw2OHnjBQBgNVHSMESTBH
gBTbME7CT987Fp54gtcmfgy9Ou+FnKEZpBcwFTETMBEGA1UEAwwKdGVhbTU3LW5l
dIIUUpeqAFVLYGHp0NvrNQQ+7Smk6FowEwYDVR0lBAwwCgYIKwYBBQUHAwEwCwYD
VR0PBAQDAgWgMBgGA1UdEQQRMA+CDXRlYW01Ny1zZXJ2ZXIwDQYJKoZIhvcNAQEL
BQADggEBAEP//YRWg+DPIQDmBoVVsMcJ2/HWvc7IeNI1EQVi9K/7NhswlLm72/0N
zUTwHHJYUxYuouNm5IIQPfUX7iknmx9JuDWez/lBN9lqBlsvpD2gXl1N0ISZdS44
+dYx8R1gTWAllhNBw7/Hk/UcokYS+XEGY4otPIqib2C1c/TmQVRxPdXtpAK0cxf6
fKx/1cqNQ7p06AZ5sUPgOqjT8gqjVuqztMz06kqdy2rvbL6P2i+Urz5B2GgvUn0K
FYDoZ0xYNM7YKz2Fsp6lCY/esV7UdQHin3a3raAWDEW5/MmVL4agna4wezoV+8fO
rWilvobIsoSHRRYy9bdY39kNun7vj/g=
-----END CERTIFICATE-----
