Certificate:
    Data:
        Version: 3 (0x2)
        Serial Number:
            65:c1:61:d2:81:97:b3:a9:10:10:66:5a:ec:5a:de:ca
        Signature Algorithm: sha256WithRSAEncryption
        Issuer: CN=team618-net
        Validity
            Not Before: Sep 13 04:31:23 2021 GMT
            Not After : Aug 28 04:31:23 2024 GMT
        Subject: CN=team618-client
        Subject Public Key Info:
            Public Key Algorithm: rsaEncryption
                RSA Public-Key: (2048 bit)
                Modulus:
                    00:a2:86:fd:04:f7:6f:6b:1e:b3:b5:5d:50:8c:07:
                    23:cd:49:b0:c0:8a:01:8b:ba:33:63:88:ec:a4:fe:
                    ab:9f:44:cc:5a:92:7e:e3:a4:7c:ea:f2:19:b8:16:
                    bd:90:85:06:a8:52:8a:df:c6:59:f3:1a:e0:6f:8b:
                    87:6c:2e:3a:e7:9b:d5:8a:93:c9:c1:91:71:ab:0c:
                    9c:1c:3b:10:53:c7:10:58:36:91:1a:ea:b6:1c:ed:
                    02:b2:0d:d3:37:4d:53:d2:08:0e:a9:0e:aa:85:21:
                    d8:66:55:90:33:e2:f1:e6:38:2a:73:f2:87:5f:55:
                    f5:79:2d:e9:af:96:f1:72:b3:bf:76:2c:ab:da:0a:
                    53:b2:1e:26:0d:3a:b6:b4:61:de:92:65:c0:6c:56:
                    1e:3b:06:c6:9e:93:c5:c6:e7:43:af:aa:c3:fe:7f:
                    90:8e:36:0d:b1:08:14:d2:fb:0f:64:6c:73:c7:02:
                    41:34:8e:bf:1b:50:56:70:cf:9b:3a:98:33:1a:53:
                    38:2d:af:ca:1e:8d:9d:5c:e2:c9:88:50:43:e3:81:
                    e9:ca:d3:e8:29:8d:d6:0b:0c:9f:72:54:71:a2:d7:
                    45:be:eb:ca:b4:0f:f9:af:34:88:ed:2b:a4:ea:93:
                    0d:fb:e1:0b:6c:cb:fa:7d:06:ff:b8:44:6d:e7:ca:
                    43:93
                Exponent: 65537 (0x10001)
        X509v3 extensions:
            X509v3 Basic Constraints: 
                CA:FALSE
            X509v3 Subject Key Identifier: 
                43:E4:6C:C8:04:6F:A8:CF:45:5A:12:92:7B:31:86:9D:BE:8C:99:BB
            X509v3 Authority Key Identifier: 
                keyid:E2:0E:0C:A9:D8:9A:35:B7:A8:E3:70:2F:A2:E7:9A:43:8C:35:07:55
                DirName:/CN=team618-net
                serial:26:8B:20:4B:B5:24:DC:1E:12:1E:63:DC:56:34:02:47:4C:D3:B5:35

            X509v3 Extended Key Usage: 
                TLS Web Client Authentication
            X509v3 Key Usage: 
                Digital Signature
    Signature Algorithm: sha256WithRSAEncryption
         8d:7a:8e:01:89:c5:02:81:e5:af:d1:f3:c0:86:4f:79:79:65:
         6f:58:56:87:70:95:d7:19:10:56:af:57:13:d6:57:e3:95:ed:
         93:e2:a1:00:3d:c8:c6:48:98:66:55:2c:b6:aa:2b:df:82:d3:
         2b:34:8e:bd:cc:1d:67:e9:b1:b9:3e:0e:8f:d3:96:0b:cc:c4:
         ad:66:bd:2c:c4:2f:5a:30:2b:1d:84:94:d7:97:37:fe:8a:39:
         bf:e6:bd:b1:f2:20:47:37:d7:68:91:ee:0e:8f:5b:5b:23:79:
         fb:47:5b:a7:a9:52:fc:01:f4:27:28:38:53:2d:44:6d:d9:2a:
         5a:f7:1b:d1:dd:18:ef:cd:7c:f5:f7:ef:67:15:13:a5:39:1a:
         5f:fe:ba:46:2d:a7:61:f8:c4:e5:4b:db:74:50:62:bd:af:9a:
         9e:a3:cb:25:61:d8:c7:f4:60:d2:48:d3:22:e1:18:e1:67:5e:
         28:db:5b:eb:ce:4b:47:71:9c:1c:76:49:45:74:84:c8:b1:6b:
         a3:7d:f6:2f:31:e7:06:1f:9e:e1:c2:22:9d:bc:3d:15:03:32:
         38:a7:2f:fa:1a:ea:28:b8:fc:eb:ae:1f:ce:1f:d2:25:c8:fd:
         b2:fa:31:23:95:06:01:fb:4e:de:f2:b8:92:e0:08:76:14:e7:
         de:ad:f4:d9
-----BEGIN CERTIFICATE-----
MIIDXDCCAkSgAwIBAgIQZcFh0oGXs6kQEGZa7FreyjANBgkqhkiG9w0BAQsFADAW
MRQwEgYDVQQDDAt0ZWFtNjE4LW5ldDAeFw0yMTA5MTMwNDMxMjNaFw0yNDA4Mjgw
NDMxMjNaMBkxFzAVBgNVBAMMDnRlYW02MTgtY2xpZW50MIIBIjANBgkqhkiG9w0B
AQEFAAOCAQ8AMIIBCgKCAQEAoob9BPdvax6ztV1QjAcjzUmwwIoBi7ozY4jspP6r
n0TMWpJ+46R86vIZuBa9kIUGqFKK38ZZ8xrgb4uHbC4655vVipPJwZFxqwycHDsQ
U8cQWDaRGuq2HO0Csg3TN01T0ggOqQ6qhSHYZlWQM+Lx5jgqc/KHX1X1eS3pr5bx
crO/diyr2gpTsh4mDTq2tGHekmXAbFYeOwbGnpPFxudDr6rD/n+QjjYNsQgU0vsP
ZGxzxwJBNI6/G1BWcM+bOpgzGlM4La/KHo2dXOLJiFBD44HpytPoKY3WCwyfclRx
otdFvuvKtA/5rzSI7Suk6pMN++ELbMv6fQb/uERt58pDkwIDAQABo4GiMIGfMAkG
A1UdEwQCMAAwHQYDVR0OBBYEFEPkbMgEb6jPRVoSknsxhp2+jJm7MFEGA1UdIwRK
MEiAFOIODKnYmjW3qONwL6LnmkOMNQdVoRqkGDAWMRQwEgYDVQQDDAt0ZWFtNjE4
LW5ldIIUJosgS7Uk3B4SHmPcVjQCR0zTtTUwEwYDVR0lBAwwCgYIKwYBBQUHAwIw
CwYDVR0PBAQDAgeAMA0GCSqGSIb3DQEBCwUAA4IBAQCNeo4BicUCgeWv0fPAhk95
eWVvWFaHcJXXGRBWr1cT1lfjle2T4qEAPcjGSJhmVSy2qivfgtMrNI69zB1n6bG5
Pg6P05YLzMStZr0sxC9aMCsdhJTXlzf+ijm/5r2x8iBHN9doke4Oj1tbI3n7R1un
qVL8AfQnKDhTLURt2Spa9xvR3RjvzXz19+9nFROlORpf/rpGLadh+MTlS9t0UGK9
r5qeo8slYdjH9GDSSNMi4RjhZ14o21vrzktHcZwcdklFdITIsWujffYvMecGH57h
wiKdvD0VAzI4py/6GuoouPzrrh/OH9IlyP2y+jEjlQYB+07e8riS4Ah2FOferfTZ
-----END CERTIFICATE-----
