Certificate:
    Data:
        Version: 3 (0x2)
        Serial Number:
            09:ff:a3:d4:09:da:49:a5:32:8a:9c:41:29:75:6b:6f
        Signature Algorithm: sha256WithRSAEncryption
        Issuer: CN=team89-net
        Validity
            Not Before: Sep 12 23:29:49 2021 GMT
            Not After : Aug 27 23:29:49 2024 GMT
        Subject: CN=team89-client
        Subject Public Key Info:
            Public Key Algorithm: rsaEncryption
                RSA Public-Key: (2048 bit)
                Modulus:
                    00:c1:77:85:c1:3f:71:0f:4a:0f:53:33:42:6f:40:
                    87:8d:1a:03:d3:74:6c:8b:b7:0e:16:c3:07:8d:53:
                    88:af:52:4c:b9:fb:f8:ff:0f:60:57:d5:45:78:43:
                    44:73:a5:cd:49:b5:74:dd:0f:73:75:57:59:5e:f2:
                    a6:dc:44:75:64:64:94:cc:46:67:ff:5e:c5:26:40:
                    b7:b3:a3:14:8e:47:13:7a:09:48:0b:4d:0f:e2:25:
                    42:7b:d8:13:a6:37:b6:e4:0a:d3:62:f9:7c:db:79:
                    f3:36:6c:e8:75:c1:6a:cd:24:72:3a:0a:e4:4a:b0:
                    db:88:a7:2d:be:0d:b1:39:74:c1:aa:a3:ee:0c:07:
                    29:4c:b9:5a:0b:ed:9d:a3:af:8a:6c:70:27:b1:d7:
                    bf:01:4a:95:e0:b3:d6:0e:3c:46:e9:37:f3:59:86:
                    8a:78:0d:dc:7b:27:5c:a0:e1:71:0e:da:93:c0:26:
                    bc:e5:e3:bb:43:ef:bf:3a:7d:90:13:48:79:4c:4b:
                    b0:cb:9e:35:fc:f6:e7:5d:73:da:e2:18:0b:a7:26:
                    c0:87:31:38:12:ec:bc:b0:71:79:8e:b3:71:68:7f:
                    56:c6:21:4b:69:1d:b3:51:ff:da:4f:17:9c:db:f9:
                    56:af:e5:df:7b:44:ad:3f:dd:7d:46:88:fe:7f:32:
                    87:b9
                Exponent: 65537 (0x10001)
        X509v3 extensions:
            X509v3 Basic Constraints: 
                CA:FALSE
            X509v3 Subject Key Identifier: 
                36:C9:41:A4:CF:33:5C:AC:5C:BA:5E:1A:39:2E:B8:69:20:F0:25:07
            X509v3 Authority Key Identifier: 
                keyid:DE:B6:B4:E6:C3:FC:98:67:B3:0E:C7:FD:E9:D9:A2:3C:55:70:4D:51
                DirName:/CN=team89-net
                serial:4D:BA:36:57:FD:C5:95:D0:AF:60:AD:11:7E:C6:55:DD:DD:0E:CA:EF

            X509v3 Extended Key Usage: 
                TLS Web Client Authentication
            X509v3 Key Usage: 
                Digital Signature
    Signature Algorithm: sha256WithRSAEncryption
         59:5c:aa:12:e0:2e:e8:ca:bc:61:71:f1:02:5b:c8:53:18:bb:
         06:f3:f2:df:ce:a6:f5:e1:4c:ce:db:ea:35:21:29:b8:f1:95:
         f5:28:1f:fb:8d:38:7d:f8:0b:45:81:1b:c3:e9:6c:b0:be:8c:
         47:6c:2c:4e:d5:47:07:36:66:29:8f:b8:f3:2e:49:e5:45:33:
         3b:21:a1:21:9a:6c:69:f8:30:89:4c:63:e4:d6:99:5e:99:a6:
         78:af:56:67:58:92:df:12:96:52:50:64:da:a5:08:75:a9:cb:
         39:d3:d6:a7:1c:cc:9c:b2:a5:61:41:7b:51:f1:08:65:6f:85:
         61:de:ff:c7:76:a7:7f:34:26:8b:c6:6a:e7:36:5c:bf:70:f7:
         cd:1d:e2:e4:fe:34:1a:7e:45:dc:3d:2d:3f:d2:99:ad:38:ef:
         cd:29:41:d4:0d:51:a0:ff:21:be:79:e8:f3:15:fa:28:0f:53:
         b8:b5:10:b0:6a:d0:48:28:b8:d2:a1:6e:15:64:6a:3b:9d:c6:
         fa:8c:97:3a:ac:9a:fe:26:15:8f:e5:cc:d5:6d:c5:cf:b2:64:
         32:2c:a7:d9:9d:f2:c9:2e:47:8e:18:f9:c3:69:11:86:63:46:
         38:08:53:fc:f1:f2:a4:08:35:55:14:29:03:9e:e7:d3:d4:7d:
         b4:54:2b:97
-----BEGIN CERTIFICATE-----
MIIDWTCCAkGgAwIBAgIQCf+j1AnaSaUyipxBKXVrbzANBgkqhkiG9w0BAQsFADAV
MRMwEQYDVQQDDAp0ZWFtODktbmV0MB4XDTIxMDkxMjIzMjk0OVoXDTI0MDgyNzIz
Mjk0OVowGDEWMBQGA1UEAwwNdGVhbTg5LWNsaWVudDCCASIwDQYJKoZIhvcNAQEB
BQADggEPADCCAQoCggEBAMF3hcE/cQ9KD1MzQm9Ah40aA9N0bIu3DhbDB41TiK9S
TLn7+P8PYFfVRXhDRHOlzUm1dN0Pc3VXWV7yptxEdWRklMxGZ/9exSZAt7OjFI5H
E3oJSAtND+IlQnvYE6Y3tuQK02L5fNt58zZs6HXBas0kcjoK5Eqw24inLb4NsTl0
waqj7gwHKUy5WgvtnaOvimxwJ7HXvwFKleCz1g48Ruk381mGingN3HsnXKDhcQ7a
k8AmvOXju0Pvvzp9kBNIeUxLsMueNfz2511z2uIYC6cmwIcxOBLsvLBxeY6zcWh/
VsYhS2kds1H/2k8XnNv5Vq/l33tErT/dfUaI/n8yh7kCAwEAAaOBoTCBnjAJBgNV
HRMEAjAAMB0GA1UdDgQWBBQ2yUGkzzNcrFy6Xho5LrhpIPAlBzBQBgNVHSMESTBH
gBTetrTmw/yYZ7MOx/3p2aI8VXBNUaEZpBcwFTETMBEGA1UEAwwKdGVhbTg5LW5l
dIIUTbo2V/3FldCvYK0RfsZV3d0Oyu8wEwYDVR0lBAwwCgYIKwYBBQUHAwIwCwYD
VR0PBAQDAgeAMA0GCSqGSIb3DQEBCwUAA4IBAQBZXKoS4C7oyrxhcfECW8hTGLsG
8/Lfzqb14UzO2+o1ISm48ZX1KB/7jTh9+AtFgRvD6WywvoxHbCxO1UcHNmYpj7jz
LknlRTM7IaEhmmxp+DCJTGPk1plemaZ4r1ZnWJLfEpZSUGTapQh1qcs509anHMyc
sqVhQXtR8Qhlb4Vh3v/Hdqd/NCaLxmrnNly/cPfNHeLk/jQafkXcPS0/0pmtOO/N
KUHUDVGg/yG+eejzFfooD1O4tRCwatBIKLjSoW4VZGo7ncb6jJc6rJr+JhWP5czV
bcXPsmQyLKfZnfLJLkeOGPnDaRGGY0Y4CFP88fKkCDVVFCkDnufT1H20VCuX
-----END CERTIFICATE-----
