Certificate:
    Data:
        Version: 3 (0x2)
        Serial Number:
            ca:e4:03:38:4e:4b:13:f7:24:73:42:9f:ff:7a:60:a0
        Signature Algorithm: sha256WithRSAEncryption
        Issuer: CN=team89-net
        Validity
            Not Before: Sep 12 23:29:49 2021 GMT
            Not After : Aug 27 23:29:49 2024 GMT
        Subject: CN=team89-server
        Subject Public Key Info:
            Public Key Algorithm: rsaEncryption
                RSA Public-Key: (2048 bit)
                Modulus:
                    00:b2:0b:68:f9:13:3a:c0:61:60:18:4b:9b:72:f8:
                    ac:b8:13:80:7d:02:ff:02:9b:76:a0:53:a4:3f:fc:
                    39:24:53:fa:90:f4:cb:d2:18:22:3c:6d:2b:eb:1d:
                    7d:e0:8f:a2:ae:2f:af:45:b7:15:88:e0:0e:e1:8c:
                    45:63:a5:90:56:36:16:84:d6:36:95:ab:a3:ad:c3:
                    ef:f9:67:4f:d9:13:69:88:49:a2:19:bd:8e:f7:f0:
                    35:87:1b:17:d1:dc:f3:0d:63:cb:e6:aa:57:8e:74:
                    55:88:d3:f2:e0:8d:90:08:b8:7c:26:da:9b:50:a5:
                    15:87:9d:6f:99:2d:0c:12:43:0a:96:20:33:48:1e:
                    af:bc:a3:84:22:62:89:89:a0:fd:3f:1b:ba:39:70:
                    08:14:72:cb:25:7b:50:e1:a0:10:1d:c3:61:ed:85:
                    7d:7e:2c:d8:2d:51:36:49:d8:c5:15:5b:65:f3:f6:
                    8e:3e:42:7b:44:9f:b5:d1:7c:42:42:57:ea:09:b8:
                    b3:42:13:fe:eb:3e:91:32:00:a9:b2:05:ef:97:18:
                    a3:6e:fc:b9:1f:64:7e:10:a4:2d:13:7b:ad:a0:99:
                    b4:6e:1b:31:7a:09:69:23:c9:ea:ec:a5:e5:99:e7:
                    82:f7:38:cd:d8:2c:c8:c4:a8:05:d0:8d:8d:5b:0b:
                    35:25
                Exponent: 65537 (0x10001)
        X509v3 extensions:
            X509v3 Basic Constraints: 
                CA:FALSE
            X509v3 Subject Key Identifier: 
                C5:56:3D:9F:B2:5F:49:83:78:2B:9A:39:C5:E4:EE:BB:D5:3F:CB:69
            X509v3 Authority Key Identifier: 
                keyid:DE:B6:B4:E6:C3:FC:98:67:B3:0E:C7:FD:E9:D9:A2:3C:55:70:4D:51
                DirName:/CN=team89-net
                serial:4D:BA:36:57:FD:C5:95:D0:AF:60:AD:11:7E:C6:55:DD:DD:0E:CA:EF

            X509v3 Extended Key Usage: 
                TLS Web Server Authentication
            X509v3 Key Usage: 
                Digital Signature, Key Encipherment
            X509v3 Subject Alternative Name: 
                DNS:team89-server
    Signature Algorithm: sha256WithRSAEncryption
         a3:c6:3e:0f:fc:0d:6b:40:62:44:67:3e:9b:cc:4a:62:26:51:
         ec:6b:d3:ea:33:21:bb:5c:1b:24:58:de:c2:f6:c2:82:31:42:
         e1:00:be:32:17:89:14:78:23:36:e0:bf:70:a3:c4:41:95:3f:
         84:83:95:c7:6e:97:f7:8c:56:12:dc:e7:d4:88:9e:72:5a:d2:
         ad:bc:f8:c8:3e:6e:9c:73:5f:5c:02:50:67:4c:3c:f9:15:26:
         aa:3f:f3:03:15:c3:a6:6d:10:34:bc:4a:ad:1a:74:22:31:2e:
         41:41:19:9f:c7:71:31:9e:71:eb:ba:17:21:d2:5d:72:55:33:
         cc:f0:91:a0:64:a4:46:40:59:dd:fc:8c:e9:57:33:2d:b7:a2:
         9c:15:1c:12:4c:55:05:ca:1c:95:f6:cc:d2:9a:21:b9:0c:60:
         af:33:29:70:79:c3:87:d3:5b:c3:da:aa:f3:c4:8f:14:dd:58:
         b0:31:0a:b1:85:d9:27:81:5c:b1:8c:b2:72:b0:10:d3:bf:2e:
         e3:5e:45:07:e9:7b:b2:39:18:fa:3b:85:bd:55:c5:b1:c3:21:
         9d:98:79:b2:02:0a:03:71:3f:d0:27:cc:87:7a:fe:16:f3:a5:
         53:47:9c:60:76:c2:24:e1:12:7d:d0:84:65:4f:63:92:d5:6e:
         58:c8:73:7c
-----BEGIN CERTIFICATE-----
MIIDdDCCAlygAwIBAgIRAMrkAzhOSxP3JHNCn/96YKAwDQYJKoZIhvcNAQELBQAw
FTETMBEGA1UEAwwKdGVhbTg5LW5ldDAeFw0yMTA5MTIyMzI5NDlaFw0yNDA4Mjcy
MzI5NDlaMBgxFjAUBgNVBAMMDXRlYW04OS1zZXJ2ZXIwggEiMA0GCSqGSIb3DQEB
AQUAA4IBDwAwggEKAoIBAQCyC2j5EzrAYWAYS5ty+Ky4E4B9Av8Cm3agU6Q//Dkk
U/qQ9MvSGCI8bSvrHX3gj6KuL69FtxWI4A7hjEVjpZBWNhaE1jaVq6Otw+/5Z0/Z
E2mISaIZvY738DWHGxfR3PMNY8vmqleOdFWI0/LgjZAIuHwm2ptQpRWHnW+ZLQwS
QwqWIDNIHq+8o4QiYomJoP0/G7o5cAgUcssle1DhoBAdw2HthX1+LNgtUTZJ2MUV
W2Xz9o4+QntEn7XRfEJCV+oJuLNCE/7rPpEyAKmyBe+XGKNu/LkfZH4QpC0Te62g
mbRuGzF6CWkjyerspeWZ54L3OM3YLMjEqAXQjY1bCzUlAgMBAAGjgbswgbgwCQYD
VR0TBAIwADAdBgNVHQ4EFgQUxVY9n7JfSYN4K5o5xeTuu9U/y2kwUAYDVR0jBEkw
R4AU3ra05sP8mGezDsf96dmiPFVwTVGhGaQXMBUxEzARBgNVBAMMCnRlYW04OS1u
ZXSCFE26Nlf9xZXQr2CtEX7GVd3dDsrvMBMGA1UdJQQMMAoGCCsGAQUFBwMBMAsG
A1UdDwQEAwIFoDAYBgNVHREEETAPgg10ZWFtODktc2VydmVyMA0GCSqGSIb3DQEB
CwUAA4IBAQCjxj4P/A1rQGJEZz6bzEpiJlHsa9PqMyG7XBskWN7C9sKCMULhAL4y
F4kUeCM24L9wo8RBlT+Eg5XHbpf3jFYS3OfUiJ5yWtKtvPjIPm6cc19cAlBnTDz5
FSaqP/MDFcOmbRA0vEqtGnQiMS5BQRmfx3ExnnHruhch0l1yVTPM8JGgZKRGQFnd
/IzpVzMtt6KcFRwSTFUFyhyV9szSmiG5DGCvMylwecOH01vD2qrzxI8U3ViwMQqx
hdkngVyxjLJysBDTvy7jXkUH6XuyORj6O4W9VcWxwyGdmHmyAgoDcT/QJ8yHev4W
86VTR5xgdsIk4RJ90IRlT2OS1W5YyHN8
-----END CERTIFICATE-----
