Certificate:
    Data:
        Version: 3 (0x2)
        Serial Number:
            ae:ee:aa:eb:c5:2b:c7:52:b9:75:4a:98:ce:cb:f3:71
        Signature Algorithm: sha256WithRSAEncryption
        Issuer: CN=team213-net
        Validity
            Not Before: Sep 13 00:43:53 2021 GMT
            Not After : Aug 28 00:43:53 2024 GMT
        Subject: CN=team213-client
        Subject Public Key Info:
            Public Key Algorithm: rsaEncryption
                RSA Public-Key: (2048 bit)
                Modulus:
                    00:c7:39:22:b2:01:88:d7:f5:53:3d:02:cf:02:49:
                    f3:d2:9a:04:18:20:e5:a5:87:65:34:10:45:e6:95:
                    0b:29:11:4f:25:93:11:c7:40:3e:c4:9b:07:7d:61:
                    af:da:4d:1f:3d:52:fe:e8:a4:45:b1:bd:2a:fb:fc:
                    15:4a:3e:70:a7:67:46:78:59:ed:11:9d:4d:9a:46:
                    0a:74:44:de:77:e5:8d:be:29:89:3c:19:4a:da:60:
                    7f:67:c9:fa:cc:f4:17:93:6c:4d:a5:bd:36:60:53:
                    b8:0b:3c:3f:2a:9e:80:8a:a3:5b:97:f4:22:5d:2e:
                    54:b0:22:a2:f0:57:79:30:35:67:48:8e:7f:08:56:
                    e9:20:d7:e2:78:88:c3:dd:8d:f8:f3:bd:81:a4:75:
                    31:2d:ee:bb:10:38:40:9e:19:96:b8:b5:91:b7:d9:
                    c0:ae:98:18:7d:33:d7:fe:4c:bf:00:ca:82:b9:5a:
                    a3:3c:95:05:3c:7c:db:d8:8d:6a:c2:0b:5a:63:8f:
                    6a:7e:ea:49:c5:dc:5f:72:a8:a7:d3:5d:33:40:e2:
                    a3:ce:57:2f:f1:06:64:8a:a3:14:77:48:49:a1:02:
                    24:c0:f1:f7:34:21:18:eb:9f:4d:e1:8e:0b:b5:3e:
                    1d:d6:bd:07:09:4b:bb:34:39:71:7a:75:03:08:ec:
                    49:67
                Exponent: 65537 (0x10001)
        X509v3 extensions:
            X509v3 Basic Constraints: 
                CA:FALSE
            X509v3 Subject Key Identifier: 
                EC:99:53:FB:8D:28:14:31:E1:C4:8E:CA:B5:32:56:4F:79:4C:18:31
            X509v3 Authority Key Identifier: 
                keyid:93:BB:97:9C:15:F1:37:1C:8C:C2:6D:D0:CB:D8:C7:E4:87:69:B8:C9
                DirName:/CN=team213-net
                serial:5A:4F:33:2F:F6:DA:8B:1A:BA:AC:0B:D0:F5:38:56:50:F1:D8:8B:38

            X509v3 Extended Key Usage: 
                TLS Web Client Authentication
            X509v3 Key Usage: 
                Digital Signature
    Signature Algorithm: sha256WithRSAEncryption
         56:ff:8c:bf:72:cc:1c:36:1e:bc:67:1f:0a:d6:a7:ee:1f:5d:
         eb:c6:56:03:b2:c0:a4:db:32:1f:f9:9c:35:f1:ec:5a:bb:32:
         1b:6d:dc:0c:b7:ed:36:15:36:f6:48:e6:b6:9c:88:d8:01:00:
         3c:93:ad:49:37:4d:d6:3f:90:d5:64:31:ea:7b:3c:a8:54:59:
         33:e2:0d:e9:02:7c:24:33:2e:aa:40:41:da:e7:39:41:26:45:
         5c:9c:7b:62:ea:fb:4d:e4:85:c5:e1:cc:cc:12:11:03:3d:43:
         44:df:4f:76:16:dc:01:22:e2:2d:f1:db:87:18:3d:40:48:f7:
         e7:94:9d:6b:d9:42:6b:4e:9a:cb:95:45:e6:b3:ad:4e:79:61:
         2f:3a:9f:69:89:ef:3f:c7:c8:55:f6:0d:c3:21:f3:6a:18:01:
         5a:4d:c3:fd:2a:7e:03:6c:eb:8f:fc:3e:e0:9c:ec:74:fe:c1:
         60:8a:67:88:f6:c0:aa:bd:8a:c7:0f:93:3d:4a:34:b0:ee:50:
         8e:84:91:99:8d:13:08:de:8f:66:46:ed:46:49:ff:df:6e:6b:
         cb:99:23:3c:42:27:31:fd:fd:de:66:3a:f6:f3:cb:9d:77:e2:
         92:4e:bc:dc:42:dc:06:b3:1b:98:38:94:a7:6c:57:a5:a5:6d:
         9e:de:f2:b1
-----BEGIN CERTIFICATE-----
MIIDXTCCAkWgAwIBAgIRAK7uquvFK8dSuXVKmM7L83EwDQYJKoZIhvcNAQELBQAw
FjEUMBIGA1UEAwwLdGVhbTIxMy1uZXQwHhcNMjEwOTEzMDA0MzUzWhcNMjQwODI4
MDA0MzUzWjAZMRcwFQYDVQQDDA50ZWFtMjEzLWNsaWVudDCCASIwDQYJKoZIhvcN
AQEBBQADggEPADCCAQoCggEBAMc5IrIBiNf1Uz0CzwJJ89KaBBgg5aWHZTQQReaV
CykRTyWTEcdAPsSbB31hr9pNHz1S/uikRbG9Kvv8FUo+cKdnRnhZ7RGdTZpGCnRE
3nfljb4piTwZStpgf2fJ+sz0F5NsTaW9NmBTuAs8PyqegIqjW5f0Il0uVLAiovBX
eTA1Z0iOfwhW6SDX4niIw92N+PO9gaR1MS3uuxA4QJ4Zlri1kbfZwK6YGH0z1/5M
vwDKgrlaozyVBTx829iNasILWmOPan7qScXcX3Kop9NdM0Dio85XL/EGZIqjFHdI
SaECJMDx9zQhGOufTeGOC7U+Hda9BwlLuzQ5cXp1AwjsSWcCAwEAAaOBojCBnzAJ
BgNVHRMEAjAAMB0GA1UdDgQWBBTsmVP7jSgUMeHEjsq1MlZPeUwYMTBRBgNVHSME
SjBIgBSTu5ecFfE3HIzCbdDL2Mfkh2m4yaEapBgwFjEUMBIGA1UEAwwLdGVhbTIx
My1uZXSCFFpPMy/22osauqwL0PU4VlDx2Is4MBMGA1UdJQQMMAoGCCsGAQUFBwMC
MAsGA1UdDwQEAwIHgDANBgkqhkiG9w0BAQsFAAOCAQEAVv+Mv3LMHDYevGcfCtan
7h9d68ZWA7LApNsyH/mcNfHsWrsyG23cDLftNhU29kjmtpyI2AEAPJOtSTdN1j+Q
1WQx6ns8qFRZM+IN6QJ8JDMuqkBB2uc5QSZFXJx7Yur7TeSFxeHMzBIRAz1DRN9P
dhbcASLiLfHbhxg9QEj355Sda9lCa06ay5VF5rOtTnlhLzqfaYnvP8fIVfYNwyHz
ahgBWk3D/Sp+A2zrj/w+4JzsdP7BYIpniPbAqr2Kxw+TPUo0sO5QjoSRmY0TCN6P
ZkbtRkn/325ry5kjPEInMf393mY69vPLnXfikk683ELcBrMbmDiUp2xXpaVtnt7y
sQ==
-----END CERTIFICATE-----
