Certificate:
    Data:
        Version: 3 (0x2)
        Serial Number:
            fb:75:a2:7b:52:1f:43:aa:8b:d1:13:b7:3d:b0:61:9f
        Signature Algorithm: sha256WithRSAEncryption
        Issuer: CN=team590-net
        Validity
            Not Before: Sep 13 03:56:59 2021 GMT
            Not After : Aug 28 03:56:59 2024 GMT
        Subject: CN=team590-server
        Subject Public Key Info:
            Public Key Algorithm: rsaEncryption
                RSA Public-Key: (2048 bit)
                Modulus:
                    00:ae:04:5e:93:19:28:95:12:ff:49:b0:a1:d7:07:
                    05:8f:ae:96:23:57:9a:26:25:ef:7e:84:62:fd:d4:
                    57:99:f6:a4:a1:d4:27:e0:d2:65:b1:4d:4f:9b:05:
                    1c:09:2c:40:6f:88:3d:f6:16:a0:64:43:49:9d:91:
                    17:ff:d4:fe:64:9f:ed:78:10:70:38:a4:0a:81:70:
                    76:fc:3c:2f:e1:65:cb:57:0a:90:26:69:f5:56:f0:
                    2c:35:4e:70:c3:2a:75:ae:84:e1:6a:eb:6c:38:85:
                    a3:54:91:81:d5:d1:ea:cc:d1:5a:ca:2c:e3:36:a2:
                    d2:bf:be:c7:ff:2f:6f:17:60:39:df:ae:ce:2a:82:
                    b3:81:17:9a:f0:86:63:85:35:03:81:a0:02:74:26:
                    eb:3c:b6:16:f7:be:e6:b0:aa:fa:95:fd:40:13:84:
                    94:13:a5:0e:42:e2:64:74:30:a5:98:5b:8b:56:a8:
                    30:33:ba:7f:21:4d:4f:f4:0b:68:e7:1b:88:5f:ce:
                    66:bd:00:b6:cc:aa:ff:88:e2:c1:4a:02:79:48:92:
                    2d:99:c9:c1:da:9e:67:11:ee:a9:ca:95:28:d9:3c:
                    36:8b:a4:dc:10:41:d1:31:76:38:01:59:3a:f2:7d:
                    41:27:dd:95:f8:9b:0e:ab:26:7a:ce:f8:d8:2f:52:
                    fd:3f
                Exponent: 65537 (0x10001)
        X509v3 extensions:
            X509v3 Basic Constraints: 
                CA:FALSE
            X509v3 Subject Key Identifier: 
                A5:74:4D:EF:4B:81:53:19:09:41:64:B2:CF:48:D8:A9:56:7E:73:93
            X509v3 Authority Key Identifier: 
                keyid:91:3D:95:E5:AE:0F:C9:87:D3:CF:CA:5E:4B:06:14:0C:13:0B:49:77
                DirName:/CN=team590-net
                serial:3B:0C:BB:34:8E:4C:31:81:58:B3:9E:57:BA:A1:52:B2:65:B3:B5:12

            X509v3 Extended Key Usage: 
                TLS Web Server Authentication
            X509v3 Key Usage: 
                Digital Signature, Key Encipherment
            X509v3 Subject Alternative Name: 
                DNS:team590-server
    Signature Algorithm: sha256WithRSAEncryption
         7d:60:c9:aa:1e:fe:d0:28:1a:36:93:75:8c:12:b6:ed:b3:89:
         fa:03:c5:63:74:ef:5c:39:7d:81:36:51:44:1c:de:f7:fd:4a:
         20:18:8b:9b:d5:52:1e:aa:9a:41:ac:5a:53:50:af:1f:8e:20:
         0d:14:3f:39:69:29:f6:3a:37:46:fa:a8:41:31:3b:63:07:fb:
         d2:06:e7:d6:45:f2:c0:02:dd:2c:13:76:70:5b:01:fe:93:b3:
         9b:52:da:3e:83:09:12:a9:2f:4d:6a:08:7e:41:76:96:30:cc:
         c9:de:98:0f:20:d6:f5:cc:64:56:74:31:8e:5c:98:39:71:a1:
         88:03:55:7f:de:27:2f:34:17:94:76:20:34:1c:67:91:2e:7d:
         da:f9:83:71:35:9b:37:be:05:74:c8:9d:0c:a1:e8:38:c0:3f:
         21:6c:92:65:00:e9:0d:10:e6:6d:73:69:79:ac:2c:94:9a:39:
         48:35:e8:16:97:3c:7c:ec:d9:61:4a:71:6c:37:44:16:e9:ab:
         ca:e9:a0:75:b2:e8:cd:9e:11:be:ba:7d:b6:8b:2c:3d:8e:b3:
         bc:6c:60:8a:ad:38:90:68:b1:1c:29:b7:33:73:09:7e:d8:78:
         72:44:51:91:ea:ab:e0:01:c8:e9:31:e3:3f:04:59:a7:14:28:
         a8:c2:a2:c8
-----BEGIN CERTIFICATE-----
MIIDeDCCAmCgAwIBAgIRAPt1ontSH0Oqi9ETtz2wYZ8wDQYJKoZIhvcNAQELBQAw
FjEUMBIGA1UEAwwLdGVhbTU5MC1uZXQwHhcNMjEwOTEzMDM1NjU5WhcNMjQwODI4
MDM1NjU5WjAZMRcwFQYDVQQDDA50ZWFtNTkwLXNlcnZlcjCCASIwDQYJKoZIhvcN
AQEBBQADggEPADCCAQoCggEBAK4EXpMZKJUS/0mwodcHBY+uliNXmiYl736EYv3U
V5n2pKHUJ+DSZbFNT5sFHAksQG+IPfYWoGRDSZ2RF//U/mSf7XgQcDikCoFwdvw8
L+Fly1cKkCZp9VbwLDVOcMMqda6E4WrrbDiFo1SRgdXR6szRWsos4zai0r++x/8v
bxdgOd+uziqCs4EXmvCGY4U1A4GgAnQm6zy2Fve+5rCq+pX9QBOElBOlDkLiZHQw
pZhbi1aoMDO6fyFNT/QLaOcbiF/OZr0Atsyq/4jiwUoCeUiSLZnJwdqeZxHuqcqV
KNk8Nouk3BBB0TF2OAFZOvJ9QSfdlfibDqsmes742C9S/T8CAwEAAaOBvTCBujAJ
BgNVHRMEAjAAMB0GA1UdDgQWBBSldE3vS4FTGQlBZLLPSNipVn5zkzBRBgNVHSME
SjBIgBSRPZXlrg/Jh9PPyl5LBhQMEwtJd6EapBgwFjEUMBIGA1UEAwwLdGVhbTU5
MC1uZXSCFDsMuzSOTDGBWLOeV7qhUrJls7USMBMGA1UdJQQMMAoGCCsGAQUFBwMB
MAsGA1UdDwQEAwIFoDAZBgNVHREEEjAQgg50ZWFtNTkwLXNlcnZlcjANBgkqhkiG
9w0BAQsFAAOCAQEAfWDJqh7+0CgaNpN1jBK27bOJ+gPFY3TvXDl9gTZRRBze9/1K
IBiLm9VSHqqaQaxaU1CvH44gDRQ/OWkp9jo3RvqoQTE7Ywf70gbn1kXywALdLBN2
cFsB/pOzm1LaPoMJEqkvTWoIfkF2ljDMyd6YDyDW9cxkVnQxjlyYOXGhiANVf94n
LzQXlHYgNBxnkS592vmDcTWbN74FdMidDKHoOMA/IWySZQDpDRDmbXNpeawslJo5
SDXoFpc8fOzZYUpxbDdEFumryumgdbLozZ4Rvrp9tossPY6zvGxgiq04kGixHCm3
M3MJfth4ckRRkeqr4AHI6THjPwRZpxQoqMKiyA==
-----END CERTIFICATE-----
