Certificate:
    Data:
        Version: 3 (0x2)
        Serial Number:
            35:29:d7:0d:bc:d1:1b:ac:75:20:14:b6:19:de:69:b0
        Signature Algorithm: sha256WithRSAEncryption
        Issuer: CN=team302-net
        Validity
            Not Before: Sep 13 01:27:41 2021 GMT
            Not After : Aug 28 01:27:41 2024 GMT
        Subject: CN=team302-client
        Subject Public Key Info:
            Public Key Algorithm: rsaEncryption
                RSA Public-Key: (2048 bit)
                Modulus:
                    00:a1:2a:f3:e4:d6:63:8c:a9:aa:89:80:cb:90:d8:
                    02:ae:33:bf:52:c3:da:b9:61:d4:55:04:81:7a:f9:
                    a6:2c:68:c9:db:fb:8e:c6:9c:a6:3b:e8:46:d9:80:
                    fd:79:37:19:29:52:a8:04:9d:5c:6a:c9:09:64:d8:
                    6c:05:01:44:1c:99:7b:d4:98:01:19:d0:f9:1b:44:
                    d5:f3:25:78:20:09:a1:57:20:1d:6b:0b:53:3a:f5:
                    79:de:45:53:e6:7f:62:a7:a0:9d:74:28:1c:0a:c6:
                    3d:a9:6a:b0:89:f6:41:48:8f:15:e0:f8:42:02:b0:
                    1d:27:4f:f6:5e:d3:7b:09:11:e8:f7:28:78:d3:94:
                    42:71:4b:ea:c3:19:44:70:7c:e1:e8:ee:c2:9d:24:
                    41:ad:f7:08:5a:a5:80:7e:bf:00:9f:83:2b:43:4d:
                    2e:08:75:1b:12:ca:c1:6b:4c:97:5a:93:ad:b5:de:
                    a0:c2:8b:0e:80:99:bf:9d:51:3e:e7:27:2e:4d:87:
                    1d:70:c8:4a:57:a6:0f:fc:76:16:99:4e:ea:45:68:
                    5d:e8:5b:5c:84:09:d6:5a:36:e7:06:8c:71:55:10:
                    e2:42:bd:25:28:a6:7a:6e:9a:24:a8:29:70:f4:8e:
                    bf:5a:72:2b:f9:df:df:50:f7:72:d9:fc:31:b6:9a:
                    32:07
                Exponent: 65537 (0x10001)
        X509v3 extensions:
            X509v3 Basic Constraints: 
                CA:FALSE
            X509v3 Subject Key Identifier: 
                EE:D9:74:F6:21:72:7E:5A:20:EC:88:5E:DC:FD:D8:94:22:81:57:E8
            X509v3 Authority Key Identifier: 
                keyid:2E:D3:7E:B9:FB:9D:AC:1E:66:55:F4:91:0E:31:C6:EF:0C:27:6C:17
                DirName:/CN=team302-net
                serial:1C:73:DB:D9:DA:FA:68:5E:8C:5F:2D:21:8F:16:0B:92:26:62:21:A3

            X509v3 Extended Key Usage: 
                TLS Web Client Authentication
            X509v3 Key Usage: 
                Digital Signature
    Signature Algorithm: sha256WithRSAEncryption
         12:3a:fc:20:c1:c0:50:ca:63:cc:c5:a3:b9:8c:0f:2c:18:d0:
         e9:94:2c:47:c2:43:59:a6:6e:2a:f0:28:8f:c3:ac:79:9e:df:
         41:99:31:fe:5a:cf:87:98:a9:2d:10:04:8f:93:b8:27:61:61:
         62:45:5d:49:0a:37:42:0b:83:0a:68:6f:9b:1a:7b:7e:18:ea:
         20:2b:37:e6:02:cc:ef:b9:fa:4a:fc:79:84:ff:5c:3c:d0:b6:
         70:95:b6:36:bc:1f:e1:9d:b3:22:41:57:2a:9c:cf:5b:3b:95:
         26:c9:c6:be:44:fe:d4:3f:46:50:8e:fc:7b:e3:8b:b5:9d:f2:
         12:ec:a1:42:7c:39:6f:dc:c1:b5:18:67:04:08:64:d6:09:22:
         49:39:8e:19:58:1c:db:63:84:42:6d:44:0b:93:45:9d:d2:9b:
         aa:27:0f:62:a3:e1:73:d4:27:bc:88:73:bc:a5:ea:2a:c7:5b:
         b8:44:a2:3d:71:9b:c2:ab:b7:93:b2:ea:4b:e1:fc:89:17:49:
         f8:82:cb:61:ad:38:f6:1b:9e:e8:5f:1c:49:96:4e:a5:ca:78:
         a9:5f:c9:c7:e0:49:c5:2f:ca:7c:cc:15:9b:1f:b3:a2:77:39:
         ad:27:b9:cd:ab:e5:50:c8:89:b0:6c:b2:72:c4:fa:11:2f:24:
         96:16:43:c1
-----BEGIN CERTIFICATE-----
MIIDXDCCAkSgAwIBAgIQNSnXDbzRG6x1IBS2Gd5psDANBgkqhkiG9w0BAQsFADAW
MRQwEgYDVQQDDAt0ZWFtMzAyLW5ldDAeFw0yMTA5MTMwMTI3NDFaFw0yNDA4Mjgw
MTI3NDFaMBkxFzAVBgNVBAMMDnRlYW0zMDItY2xpZW50MIIBIjANBgkqhkiG9w0B
AQEFAAOCAQ8AMIIBCgKCAQEAoSrz5NZjjKmqiYDLkNgCrjO/UsPauWHUVQSBevmm
LGjJ2/uOxpymO+hG2YD9eTcZKVKoBJ1caskJZNhsBQFEHJl71JgBGdD5G0TV8yV4
IAmhVyAdawtTOvV53kVT5n9ip6CddCgcCsY9qWqwifZBSI8V4PhCArAdJ0/2XtN7
CRHo9yh405RCcUvqwxlEcHzh6O7CnSRBrfcIWqWAfr8An4MrQ00uCHUbEsrBa0yX
WpOttd6gwosOgJm/nVE+5ycuTYcdcMhKV6YP/HYWmU7qRWhd6FtchAnWWjbnBoxx
VRDiQr0lKKZ6bpokqClw9I6/WnIr+d/fUPdy2fwxtpoyBwIDAQABo4GiMIGfMAkG
A1UdEwQCMAAwHQYDVR0OBBYEFO7ZdPYhcn5aIOyIXtz92JQigVfoMFEGA1UdIwRK
MEiAFC7Tfrn7naweZlX0kQ4xxu8MJ2wXoRqkGDAWMRQwEgYDVQQDDAt0ZWFtMzAy
LW5ldIIUHHPb2dr6aF6MXy0hjxYLkiZiIaMwEwYDVR0lBAwwCgYIKwYBBQUHAwIw
CwYDVR0PBAQDAgeAMA0GCSqGSIb3DQEBCwUAA4IBAQASOvwgwcBQymPMxaO5jA8s
GNDplCxHwkNZpm4q8CiPw6x5nt9BmTH+Ws+HmKktEASPk7gnYWFiRV1JCjdCC4MK
aG+bGnt+GOogKzfmAszvufpK/HmE/1w80LZwlbY2vB/hnbMiQVcqnM9bO5Umyca+
RP7UP0ZQjvx744u1nfIS7KFCfDlv3MG1GGcECGTWCSJJOY4ZWBzbY4RCbUQLk0Wd
0puqJw9io+Fz1Ce8iHO8peoqx1u4RKI9cZvCq7eTsupL4fyJF0n4gsthrTj2G57o
XxxJlk6lynipX8nH4EnFL8p8zBWbH7OidzmtJ7nNq+VQyImwbLJyxPoRLySWFkPB
-----END CERTIFICATE-----
