Certificate:
    Data:
        Version: 3 (0x2)
        Serial Number:
            92:b5:0b:c5:e6:de:75:b5:07:b2:16:03:09:09:5d:b8
        Signature Algorithm: sha256WithRSAEncryption
        Issuer: CN=team182-net
        Validity
            Not Before: Sep 13 00:30:15 2021 GMT
            Not After : Aug 28 00:30:15 2024 GMT
        Subject: CN=team182-client
        Subject Public Key Info:
            Public Key Algorithm: rsaEncryption
                RSA Public-Key: (2048 bit)
                Modulus:
                    00:e4:00:ed:8a:0e:1d:ce:b1:9d:09:79:27:a3:be:
                    b2:a0:d3:70:3f:36:2a:06:c8:98:b8:0d:d4:05:91:
                    d1:82:8c:a0:5b:72:96:88:6d:61:91:67:27:a3:95:
                    17:67:be:18:89:1a:cb:fe:c7:dd:84:e9:4d:46:fe:
                    bf:cb:f3:16:68:b4:1e:d6:cc:10:cb:06:99:d7:e3:
                    5e:a6:0d:f0:90:51:fd:68:7b:24:5f:2f:a9:73:78:
                    1b:f0:09:e5:08:77:ab:b3:64:e2:be:e8:d1:40:58:
                    c9:24:a9:78:81:f9:16:e8:5a:f2:3d:01:74:27:a4:
                    d5:1c:19:16:0c:05:2b:00:0c:7c:3b:fd:86:10:da:
                    8a:77:18:a0:1f:f2:ea:d7:50:74:59:3b:51:37:f7:
                    79:3b:87:f8:f0:c7:01:d5:4b:31:20:e6:ea:2a:64:
                    63:18:70:fc:74:d0:ed:98:20:45:16:65:81:23:70:
                    58:88:6a:f8:1a:ca:fd:1d:bc:23:72:58:15:83:b3:
                    a4:59:ad:bf:4d:c5:fc:e3:01:86:8d:03:e1:49:4f:
                    26:14:61:10:e9:b9:3e:a9:77:d4:d7:65:d7:d8:d4:
                    0a:e0:82:8c:02:b1:40:00:d8:5b:18:23:89:14:03:
                    2e:cd:cd:16:3e:e6:6d:dc:0c:18:52:34:07:d2:97:
                    5f:21
                Exponent: 65537 (0x10001)
        X509v3 extensions:
            X509v3 Basic Constraints: 
                CA:FALSE
            X509v3 Subject Key Identifier: 
                A4:15:A5:A5:26:35:AA:01:F4:0E:9C:F0:A3:BA:C4:25:FC:F4:B4:73
            X509v3 Authority Key Identifier: 
                keyid:4C:14:95:C0:1D:72:89:21:76:DC:7B:9B:BB:3E:D0:DC:E6:13:AC:7F
                DirName:/CN=team182-net
                serial:45:2D:34:24:A2:B4:C5:C4:7F:F5:6B:7A:C3:11:31:AE:12:BD:93:4E

            X509v3 Extended Key Usage: 
                TLS Web Client Authentication
            X509v3 Key Usage: 
                Digital Signature
    Signature Algorithm: sha256WithRSAEncryption
         70:50:ed:1d:a8:f4:d8:6d:09:92:3b:05:2b:a8:02:09:c4:a0:
         56:f0:55:55:0d:db:b8:88:a9:10:39:25:54:98:52:c8:2a:fb:
         26:b3:e0:03:4d:31:47:a5:16:02:fc:b4:64:9c:aa:41:de:cc:
         3a:58:6a:98:86:99:04:26:79:56:21:05:cf:7f:58:81:b4:0a:
         15:42:f9:17:0a:59:ca:96:7f:1d:11:83:0c:31:76:a2:be:e2:
         18:0d:24:0a:1c:77:a3:e9:1b:a6:eb:a3:4d:4d:23:b1:9d:fb:
         6c:ae:65:aa:b8:57:76:7f:80:c8:bf:6e:55:9e:4a:ef:c9:d2:
         5d:2f:b6:90:d3:55:40:ed:4a:4b:f0:cb:c4:49:a8:9e:22:9d:
         19:36:87:19:b0:de:4d:15:5c:51:9b:38:3a:b8:80:47:8f:55:
         7c:0f:5a:37:e7:09:dd:90:ea:80:a7:2d:4b:29:cf:67:fd:57:
         46:6e:8d:0d:cf:7e:1c:23:b0:04:6e:29:9a:5d:a7:f1:28:d4:
         18:5b:b3:70:be:ac:90:08:5a:fe:0d:8f:15:86:4d:0f:a4:a9:
         2c:b9:28:4b:23:fa:a0:1c:29:cf:9d:70:43:77:a1:18:2e:42:
         c0:e4:a4:24:57:ab:99:e8:af:1a:b5:24:ec:b5:c8:60:a5:f8:
         25:70:3f:2c
-----BEGIN CERTIFICATE-----
MIIDXTCCAkWgAwIBAgIRAJK1C8Xm3nW1B7IWAwkJXbgwDQYJKoZIhvcNAQELBQAw
FjEUMBIGA1UEAwwLdGVhbTE4Mi1uZXQwHhcNMjEwOTEzMDAzMDE1WhcNMjQwODI4
MDAzMDE1WjAZMRcwFQYDVQQDDA50ZWFtMTgyLWNsaWVudDCCASIwDQYJKoZIhvcN
AQEBBQADggEPADCCAQoCggEBAOQA7YoOHc6xnQl5J6O+sqDTcD82KgbImLgN1AWR
0YKMoFtylohtYZFnJ6OVF2e+GIkay/7H3YTpTUb+v8vzFmi0HtbMEMsGmdfjXqYN
8JBR/Wh7JF8vqXN4G/AJ5Qh3q7Nk4r7o0UBYySSpeIH5Fuha8j0BdCek1RwZFgwF
KwAMfDv9hhDaincYoB/y6tdQdFk7UTf3eTuH+PDHAdVLMSDm6ipkYxhw/HTQ7Zgg
RRZlgSNwWIhq+BrK/R28I3JYFYOzpFmtv03F/OMBho0D4UlPJhRhEOm5Pql31Ndl
19jUCuCCjAKxQADYWxgjiRQDLs3NFj7mbdwMGFI0B9KXXyECAwEAAaOBojCBnzAJ
BgNVHRMEAjAAMB0GA1UdDgQWBBSkFaWlJjWqAfQOnPCjusQl/PS0czBRBgNVHSME
SjBIgBRMFJXAHXKJIXbce5u7PtDc5hOsf6EapBgwFjEUMBIGA1UEAwwLdGVhbTE4
Mi1uZXSCFEUtNCSitMXEf/VresMRMa4SvZNOMBMGA1UdJQQMMAoGCCsGAQUFBwMC
MAsGA1UdDwQEAwIHgDANBgkqhkiG9w0BAQsFAAOCAQEAcFDtHaj02G0JkjsFK6gC
CcSgVvBVVQ3buIipEDklVJhSyCr7JrPgA00xR6UWAvy0ZJyqQd7MOlhqmIaZBCZ5
ViEFz39YgbQKFUL5FwpZypZ/HRGDDDF2or7iGA0kChx3o+kbpuujTU0jsZ37bK5l
qrhXdn+AyL9uVZ5K78nSXS+2kNNVQO1KS/DLxEmoniKdGTaHGbDeTRVcUZs4OriA
R49VfA9aN+cJ3ZDqgKctSynPZ/1XRm6NDc9+HCOwBG4pml2n8SjUGFuzcL6skAha
/g2PFYZND6SpLLkoSyP6oBwpz51wQ3ehGC5CwOSkJFermeivGrUk7LXIYKX4JXA/
LA==
-----END CERTIFICATE-----
