Certificate:
    Data:
        Version: 3 (0x2)
        Serial Number:
            6d:f8:b4:b8:2e:72:90:a2:3b:d5:e5:73:92:ff:eb:74
        Signature Algorithm: sha256WithRSAEncryption
        Issuer: CN=team255-net
        Validity
            Not Before: Sep 13 00:54:46 2021 GMT
            Not After : Aug 28 00:54:46 2024 GMT
        Subject: CN=team255-server
        Subject Public Key Info:
            Public Key Algorithm: rsaEncryption
                RSA Public-Key: (2048 bit)
                Modulus:
                    00:92:86:26:20:52:f6:93:c0:ab:d8:47:eb:55:08:
                    8c:20:47:62:3e:2b:b5:70:08:c1:6a:b3:a7:4d:6a:
                    ef:23:10:db:da:96:87:96:12:1b:5d:0d:7e:4e:47:
                    57:7e:a3:bd:41:9c:e7:9d:53:47:d7:e8:ed:69:f8:
                    7b:18:ea:96:87:dc:bc:5d:df:c2:6f:e3:77:57:08:
                    2b:0a:56:e0:02:4f:fc:bd:da:46:cd:33:8f:7c:ac:
                    10:6c:c8:77:a2:9d:10:da:51:a1:ed:76:f7:0b:27:
                    14:5d:81:85:39:fe:7e:0b:5b:1b:c0:eb:f3:c1:a8:
                    fa:a8:a9:4e:d3:81:cc:fc:42:78:9c:c8:68:10:fd:
                    a5:72:31:56:1b:bf:ef:67:df:d0:c6:97:e4:18:05:
                    04:a5:17:8b:79:e4:5a:94:1b:2d:ac:0e:b3:1b:66:
                    70:4d:69:c4:6d:6c:a8:55:09:35:fc:91:78:c1:e4:
                    cf:ec:a6:dd:0e:85:95:69:e8:12:d4:d9:32:73:9c:
                    68:85:f4:fb:8d:82:82:e0:62:94:23:bb:d5:d6:c1:
                    c1:77:0b:81:c8:49:ff:43:e3:d0:bc:c0:04:d5:5d:
                    9e:97:33:ec:11:2f:48:5d:41:3e:a8:05:1b:c2:c9:
                    9a:46:de:c3:e6:42:95:1c:d3:58:49:a4:df:a7:44:
                    78:af
                Exponent: 65537 (0x10001)
        X509v3 extensions:
            X509v3 Basic Constraints: 
                CA:FALSE
            X509v3 Subject Key Identifier: 
                B8:E4:DD:79:F6:1D:4A:25:B1:D3:EC:17:94:BC:F0:EE:54:35:BF:83
            X509v3 Authority Key Identifier: 
                keyid:8E:B9:EC:24:27:49:8C:64:B1:7F:D3:95:77:F2:59:3B:A1:93:1F:35
                DirName:/CN=team255-net
                serial:2E:4B:2F:FA:69:3C:46:40:B2:EA:F6:4B:0F:74:D6:C7:64:A0:04:F9

            X509v3 Extended Key Usage: 
                TLS Web Server Authentication
            X509v3 Key Usage: 
                Digital Signature, Key Encipherment
            X509v3 Subject Alternative Name: 
                DNS:team255-server
    Signature Algorithm: sha256WithRSAEncryption
         15:67:86:2b:95:fa:38:65:75:70:7b:0e:46:57:28:97:26:dd:
         85:fb:24:c7:6e:65:88:e8:1e:47:b9:4e:1b:c1:d7:97:19:35:
         b6:61:83:8a:d7:9a:30:59:d0:d1:d2:bb:db:bb:06:6a:d9:a2:
         28:82:49:06:89:34:e3:b0:64:b5:cc:cb:f7:d6:0f:3a:24:90:
         bc:e5:6f:41:98:ad:9a:c3:2b:19:58:1b:be:af:af:e3:57:95:
         50:30:33:31:f8:24:02:0e:fe:ef:11:45:fc:88:28:b7:88:07:
         ff:a7:06:fe:d3:0f:fc:59:e8:5d:18:0d:2c:56:e4:e6:d4:f2:
         c3:d1:e2:66:bc:29:1a:6f:54:f5:e3:e9:d9:0d:08:f3:7e:f4:
         2c:8c:67:0a:e3:01:a0:e5:bd:24:eb:f1:86:eb:4e:32:ce:8b:
         27:93:33:16:df:b0:c2:46:cc:97:87:e5:09:60:99:ac:7c:73:
         90:67:1a:f4:30:53:d1:1e:41:db:16:f6:72:bc:1c:e4:f7:fc:
         dc:ce:f6:ad:d7:52:cd:e7:ff:7b:c8:08:bf:e6:eb:ab:64:3b:
         85:76:74:21:61:3c:80:bf:f8:52:bb:2d:42:06:6e:9c:56:e9:
         f0:f8:51:37:22:94:74:20:ab:5a:4f:96:c6:8c:ba:e1:15:2f:
         e2:70:79:08
-----BEGIN CERTIFICATE-----
MIIDdzCCAl+gAwIBAgIQbfi0uC5ykKI71eVzkv/rdDANBgkqhkiG9w0BAQsFADAW
MRQwEgYDVQQDDAt0ZWFtMjU1LW5ldDAeFw0yMTA5MTMwMDU0NDZaFw0yNDA4Mjgw
MDU0NDZaMBkxFzAVBgNVBAMMDnRlYW0yNTUtc2VydmVyMIIBIjANBgkqhkiG9w0B
AQEFAAOCAQ8AMIIBCgKCAQEAkoYmIFL2k8Cr2EfrVQiMIEdiPiu1cAjBarOnTWrv
IxDb2paHlhIbXQ1+TkdXfqO9QZznnVNH1+jtafh7GOqWh9y8Xd/Cb+N3VwgrClbg
Ak/8vdpGzTOPfKwQbMh3op0Q2lGh7Xb3CycUXYGFOf5+C1sbwOvzwaj6qKlO04HM
/EJ4nMhoEP2lcjFWG7/vZ9/QxpfkGAUEpReLeeRalBstrA6zG2ZwTWnEbWyoVQk1
/JF4weTP7KbdDoWVaegS1Nkyc5xohfT7jYKC4GKUI7vV1sHBdwuByEn/Q+PQvMAE
1V2elzPsES9IXUE+qAUbwsmaRt7D5kKVHNNYSaTfp0R4rwIDAQABo4G9MIG6MAkG
A1UdEwQCMAAwHQYDVR0OBBYEFLjk3Xn2HUolsdPsF5S88O5UNb+DMFEGA1UdIwRK
MEiAFI657CQnSYxksX/TlXfyWTuhkx81oRqkGDAWMRQwEgYDVQQDDAt0ZWFtMjU1
LW5ldIIULksv+mk8RkCy6vZLD3TWx2SgBPkwEwYDVR0lBAwwCgYIKwYBBQUHAwEw
CwYDVR0PBAQDAgWgMBkGA1UdEQQSMBCCDnRlYW0yNTUtc2VydmVyMA0GCSqGSIb3
DQEBCwUAA4IBAQAVZ4Yrlfo4ZXVwew5GVyiXJt2F+yTHbmWI6B5HuU4bwdeXGTW2
YYOK15owWdDR0rvbuwZq2aIogkkGiTTjsGS1zMv31g86JJC85W9BmK2awysZWBu+
r6/jV5VQMDMx+CQCDv7vEUX8iCi3iAf/pwb+0w/8WehdGA0sVuTm1PLD0eJmvCka
b1T14+nZDQjzfvQsjGcK4wGg5b0k6/GG604yzosnkzMW37DCRsyXh+UJYJmsfHOQ
Zxr0MFPRHkHbFvZyvBzk9/zczvat11LN5/97yAi/5uurZDuFdnQhYTyAv/hSuy1C
Bm6cVunw+FE3IpR0IKtaT5bGjLrhFS/icHkI
-----END CERTIFICATE-----
