Certificate:
    Data:
        Version: 3 (0x2)
        Serial Number:
            53:e5:57:47:a2:fc:18:e3:94:47:7a:23:00:25:91:28
        Signature Algorithm: sha256WithRSAEncryption
        Issuer: CN=team525-net
        Validity
            Not Before: Sep 13 03:17:46 2021 GMT
            Not After : Aug 28 03:17:46 2024 GMT
        Subject: CN=team525-server
        Subject Public Key Info:
            Public Key Algorithm: rsaEncryption
                RSA Public-Key: (2048 bit)
                Modulus:
                    00:b3:b0:a0:1f:8d:b5:f2:6e:11:ec:44:46:72:48:
                    7f:4f:91:06:ec:3d:0c:25:82:1d:a3:02:b6:29:ba:
                    70:4e:c0:bd:94:d8:86:3d:2c:e0:9f:b5:3c:04:cf:
                    f4:f5:38:f7:2c:37:ce:b6:bd:b3:2a:c2:1b:ab:fe:
                    2d:9a:ef:0b:41:57:b0:2d:f0:73:08:39:11:98:f6:
                    c8:87:25:02:d4:07:7f:89:04:45:81:fb:25:f2:7d:
                    2b:84:6c:d6:22:78:40:fa:1f:4c:ca:6f:d0:df:21:
                    12:91:c2:dd:c9:f7:7e:52:e2:1d:8d:fc:c8:79:2e:
                    eb:a8:71:79:af:cf:2c:85:60:5d:b3:e2:44:41:af:
                    74:c0:5d:dd:24:95:4e:db:18:9f:6e:92:4b:46:89:
                    14:4f:dd:64:ac:7f:d7:77:5d:9b:7f:42:b3:75:0c:
                    3c:63:35:f5:34:ec:62:e7:61:79:21:2d:38:6e:60:
                    fb:0b:96:88:ff:d2:7b:f2:8b:22:b4:69:c8:dc:5e:
                    fa:73:ea:0c:e8:25:51:b9:2a:1c:34:24:2b:a6:6e:
                    3e:64:18:6d:c9:72:07:fa:3c:b0:16:b8:95:ac:74:
                    08:45:0e:3d:76:ad:d6:bf:22:32:98:25:ee:70:8c:
                    47:ae:33:80:b3:d2:92:56:36:1a:c8:34:c4:0f:11:
                    5c:2f
                Exponent: 65537 (0x10001)
        X509v3 extensions:
            X509v3 Basic Constraints: 
                CA:FALSE
            X509v3 Subject Key Identifier: 
                3E:B2:5C:A8:F9:BD:94:70:A3:97:20:B2:24:39:77:3D:44:74:7E:6D
            X509v3 Authority Key Identifier: 
                keyid:E0:95:2B:FE:D7:32:0B:B5:E1:3F:57:7A:2A:87:F4:A1:C3:55:28:C7
                DirName:/CN=team525-net
                serial:3D:EE:76:90:A6:D8:15:CD:5C:F7:72:17:BB:BF:52:E8:DE:BD:DB:58

            X509v3 Extended Key Usage: 
                TLS Web Server Authentication
            X509v3 Key Usage: 
                Digital Signature, Key Encipherment
            X509v3 Subject Alternative Name: 
                DNS:team525-server
    Signature Algorithm: sha256WithRSAEncryption
         7c:cc:60:4f:b1:4f:4e:ac:75:b5:ac:79:b0:c9:3e:dc:a0:0d:
         33:f7:ae:51:4e:10:e9:85:03:3d:91:cf:2e:2f:d9:b0:67:94:
         fa:f2:3c:92:7f:aa:c6:5a:d7:e8:0e:5f:bc:71:5a:6e:2b:c9:
         63:f5:1c:fe:5a:28:76:60:42:dd:7a:ea:80:b8:49:12:57:a8:
         2a:97:40:9b:ba:2c:62:21:10:e0:eb:02:8e:cc:ce:19:ac:d9:
         6f:4e:b3:b6:e8:97:2d:de:f0:50:b7:ff:26:48:a5:9e:f1:3b:
         fe:bb:54:dc:19:ba:65:d7:a9:3d:01:9c:87:59:4b:a5:a3:1d:
         81:93:de:10:5a:a2:1b:48:f6:72:45:83:05:46:42:ab:28:b3:
         9c:e5:d9:0e:82:c8:76:62:d5:bf:10:b1:1d:08:32:d5:8e:10:
         37:f1:50:85:7f:2d:7d:5e:39:f9:73:24:71:2e:79:d0:3b:6e:
         d1:a2:7a:e7:58:06:cd:9e:e8:97:d9:ce:b7:0f:e7:d8:ea:72:
         4a:8b:1b:93:61:b3:02:f4:62:27:a5:90:af:51:1a:17:63:e0:
         72:e2:0e:29:98:f1:3e:55:e8:58:c8:6c:3b:a6:c2:8e:cd:a4:
         17:b4:dd:b1:57:12:14:4a:59:09:65:df:af:d1:f8:f8:bd:41:
         27:d7:e6:5d
-----BEGIN CERTIFICATE-----
MIIDdzCCAl+gAwIBAgIQU+VXR6L8GOOUR3ojACWRKDANBgkqhkiG9w0BAQsFADAW
MRQwEgYDVQQDDAt0ZWFtNTI1LW5ldDAeFw0yMTA5MTMwMzE3NDZaFw0yNDA4Mjgw
MzE3NDZaMBkxFzAVBgNVBAMMDnRlYW01MjUtc2VydmVyMIIBIjANBgkqhkiG9w0B
AQEFAAOCAQ8AMIIBCgKCAQEAs7CgH4218m4R7ERGckh/T5EG7D0MJYIdowK2Kbpw
TsC9lNiGPSzgn7U8BM/09Tj3LDfOtr2zKsIbq/4tmu8LQVewLfBzCDkRmPbIhyUC
1Ad/iQRFgfsl8n0rhGzWInhA+h9Mym/Q3yESkcLdyfd+UuIdjfzIeS7rqHF5r88s
hWBds+JEQa90wF3dJJVO2xifbpJLRokUT91krH/Xd12bf0KzdQw8YzX1NOxi52F5
IS04bmD7C5aI/9J78ositGnI3F76c+oM6CVRuSocNCQrpm4+ZBhtyXIH+jywFriV
rHQIRQ49dq3WvyIymCXucIxHrjOAs9KSVjYayDTEDxFcLwIDAQABo4G9MIG6MAkG
A1UdEwQCMAAwHQYDVR0OBBYEFD6yXKj5vZRwo5cgsiQ5dz1EdH5tMFEGA1UdIwRK
MEiAFOCVK/7XMgu14T9XeiqH9KHDVSjHoRqkGDAWMRQwEgYDVQQDDAt0ZWFtNTI1
LW5ldIIUPe52kKbYFc1c93IXu79S6N6921gwEwYDVR0lBAwwCgYIKwYBBQUHAwEw
CwYDVR0PBAQDAgWgMBkGA1UdEQQSMBCCDnRlYW01MjUtc2VydmVyMA0GCSqGSIb3
DQEBCwUAA4IBAQB8zGBPsU9OrHW1rHmwyT7coA0z965RThDphQM9kc8uL9mwZ5T6
8jySf6rGWtfoDl+8cVpuK8lj9Rz+Wih2YELdeuqAuEkSV6gql0CbuixiIRDg6wKO
zM4ZrNlvTrO26Jct3vBQt/8mSKWe8Tv+u1TcGbpl16k9AZyHWUulox2Bk94QWqIb
SPZyRYMFRkKrKLOc5dkOgsh2YtW/ELEdCDLVjhA38VCFfy19Xjn5cyRxLnnQO27R
onrnWAbNnuiX2c63D+fY6nJKixuTYbMC9GInpZCvURoXY+By4g4pmPE+VehYyGw7
psKOzaQXtN2xVxIUSlkJZd+v0fj4vUEn1+Zd
-----END CERTIFICATE-----
