Certificate:
    Data:
        Version: 3 (0x2)
        Serial Number:
            9c:28:9f:e0:9d:43:3f:90:74:bc:12:4c:2a:46:70:2d
        Signature Algorithm: sha256WithRSAEncryption
        Issuer: CN=team425-net
        Validity
            Not Before: Sep 13 02:37:04 2021 GMT
            Not After : Aug 28 02:37:04 2024 GMT
        Subject: CN=team425-client
        Subject Public Key Info:
            Public Key Algorithm: rsaEncryption
                RSA Public-Key: (2048 bit)
                Modulus:
                    00:c2:ac:76:f1:57:cc:7f:fa:3c:a2:f5:93:ef:b7:
                    62:58:31:9f:dd:25:e2:31:1b:63:ee:76:d1:a1:7b:
                    f2:4b:9d:f0:ff:be:4d:7c:c5:a7:f7:16:33:05:1e:
                    ba:37:63:58:40:9f:08:10:e6:ee:54:27:99:ec:d1:
                    f5:4a:46:41:49:89:45:65:3c:64:60:45:97:00:01:
                    d3:cf:2c:c7:fb:8b:26:e0:77:89:8d:2d:81:f9:5d:
                    ac:70:e3:a4:e9:bf:ef:39:fc:92:57:45:18:0e:08:
                    95:f8:d5:3e:0b:c2:a3:28:f7:66:06:bb:46:55:dc:
                    6b:89:ed:b9:b2:f0:ad:7e:c8:16:29:b7:78:01:41:
                    cb:87:33:7a:71:40:68:83:67:bb:0d:22:f7:34:6f:
                    79:ae:1d:47:1b:d1:a8:f9:bc:f7:74:b1:19:a3:91:
                    eb:af:23:9b:6e:23:b0:0e:f9:05:1f:76:07:ce:8c:
                    98:d8:b4:02:99:33:d2:14:7b:a3:f0:4e:3e:6b:53:
                    0b:68:ba:81:aa:19:2d:d7:1c:87:1e:1f:fb:d6:ee:
                    65:bf:fd:32:6b:76:50:53:c7:d7:4e:6d:85:dd:2d:
                    c4:12:e0:5e:2e:58:e7:ec:11:41:c9:a2:45:32:b2:
                    0d:a1:ab:72:c3:ab:ec:1d:a1:b1:a3:7d:e2:82:e4:
                    40:fb
                Exponent: 65537 (0x10001)
        X509v3 extensions:
            X509v3 Basic Constraints: 
                CA:FALSE
            X509v3 Subject Key Identifier: 
                90:02:AD:50:D6:BE:21:BF:AE:C7:11:D5:A0:6E:6F:D4:33:69:58:6B
            X509v3 Authority Key Identifier: 
                keyid:C0:37:7D:B9:F1:98:E3:7C:04:E1:AE:EC:5B:B1:0C:4E:C9:2D:DB:94
                DirName:/CN=team425-net
                serial:4A:33:B7:3F:F2:C8:3E:CA:9C:43:F7:3E:8A:08:BB:C1:9C:ED:ED:D5

            X509v3 Extended Key Usage: 
                TLS Web Client Authentication
            X509v3 Key Usage: 
                Digital Signature
    Signature Algorithm: sha256WithRSAEncryption
         14:2b:a9:f1:14:84:37:e6:1c:bf:73:17:d7:c0:11:3d:d2:42:
         75:b2:aa:0e:f7:ea:d7:fc:0f:e1:ff:f9:43:7f:83:8d:a9:f5:
         c2:47:c8:e4:c1:e0:34:58:78:cc:e2:ce:50:51:ae:54:3c:ca:
         b0:4b:72:49:6f:2d:59:5a:23:15:89:ca:8f:2e:2f:e9:35:3c:
         d3:c9:d7:d6:7c:de:e5:8e:65:d8:b7:7b:3d:6b:38:71:48:6f:
         08:43:68:82:46:d8:7c:9f:1a:1e:34:48:1b:e6:c9:bd:73:b4:
         ab:15:01:cf:aa:e6:28:62:d6:46:ef:a1:47:35:3b:7b:94:f1:
         ff:b4:23:bf:84:52:4d:c7:1e:47:19:5c:6d:04:57:7a:36:14:
         40:91:37:36:54:5b:61:8c:54:1b:4a:b0:f8:c0:9c:2d:66:20:
         88:21:58:b6:8a:12:da:67:30:09:c3:34:e1:53:4b:28:d5:03:
         c8:5a:c1:72:e2:ba:85:e3:0b:01:69:8a:89:df:7f:8a:39:ac:
         c3:ec:78:24:b3:6d:28:3e:71:ca:08:57:46:15:ab:ae:3f:74:
         37:4d:23:9b:64:36:ad:59:2a:d8:ca:87:a3:ec:61:ce:1e:e9:
         9c:56:2e:d8:bf:ba:86:43:12:9e:65:fb:e5:88:e3:5b:52:18:
         ea:52:77:5a
-----BEGIN CERTIFICATE-----
MIIDXTCCAkWgAwIBAgIRAJwon+CdQz+QdLwSTCpGcC0wDQYJKoZIhvcNAQELBQAw
FjEUMBIGA1UEAwwLdGVhbTQyNS1uZXQwHhcNMjEwOTEzMDIzNzA0WhcNMjQwODI4
MDIzNzA0WjAZMRcwFQYDVQQDDA50ZWFtNDI1LWNsaWVudDCCASIwDQYJKoZIhvcN
AQEBBQADggEPADCCAQoCggEBAMKsdvFXzH/6PKL1k++3Ylgxn90l4jEbY+520aF7
8kud8P++TXzFp/cWMwUeujdjWECfCBDm7lQnmezR9UpGQUmJRWU8ZGBFlwAB088s
x/uLJuB3iY0tgfldrHDjpOm/7zn8kldFGA4IlfjVPgvCoyj3Zga7RlXca4ntubLw
rX7IFim3eAFBy4czenFAaINnuw0i9zRvea4dRxvRqPm893SxGaOR668jm24jsA75
BR92B86MmNi0Apkz0hR7o/BOPmtTC2i6gaoZLdcchx4f+9buZb/9Mmt2UFPH105t
hd0txBLgXi5Y5+wRQcmiRTKyDaGrcsOr7B2hsaN94oLkQPsCAwEAAaOBojCBnzAJ
BgNVHRMEAjAAMB0GA1UdDgQWBBSQAq1Q1r4hv67HEdWgbm/UM2lYazBRBgNVHSME
SjBIgBTAN3258ZjjfAThruxbsQxOyS3blKEapBgwFjEUMBIGA1UEAwwLdGVhbTQy
NS1uZXSCFEoztz/yyD7KnEP3PooIu8Gc7e3VMBMGA1UdJQQMMAoGCCsGAQUFBwMC
MAsGA1UdDwQEAwIHgDANBgkqhkiG9w0BAQsFAAOCAQEAFCup8RSEN+Ycv3MX18AR
PdJCdbKqDvfq1/wP4f/5Q3+Djan1wkfI5MHgNFh4zOLOUFGuVDzKsEtySW8tWVoj
FYnKjy4v6TU808nX1nze5Y5l2Ld7PWs4cUhvCENogkbYfJ8aHjRIG+bJvXO0qxUB
z6rmKGLWRu+hRzU7e5Tx/7Qjv4RSTcceRxlcbQRXejYUQJE3NlRbYYxUG0qw+MCc
LWYgiCFYtooS2mcwCcM04VNLKNUDyFrBcuK6heMLAWmKid9/ijmsw+x4JLNtKD5x
yghXRhWrrj90N00jm2Q2rVkq2MqHo+xhzh7pnFYu2L+6hkMSnmX75YjjW1IY6lJ3
Wg==
-----END CERTIFICATE-----
