Certificate:
    Data:
        Version: 3 (0x2)
        Serial Number:
            5b:23:55:d0:54:a4:64:c1:7a:14:05:2a:20:a5:57:91
        Signature Algorithm: sha256WithRSAEncryption
        Issuer: CN=team256-net
        Validity
            Not Before: Sep 13 00:55:02 2021 GMT
            Not After : Aug 28 00:55:02 2024 GMT
        Subject: CN=team256-client
        Subject Public Key Info:
            Public Key Algorithm: rsaEncryption
                RSA Public-Key: (2048 bit)
                Modulus:
                    00:c5:90:e8:9a:80:9b:46:b5:31:a3:45:65:22:d9:
                    25:44:a7:59:ba:c5:b2:c0:6b:58:a5:0c:8a:f0:9a:
                    b1:6c:8f:f8:c5:83:46:aa:3e:d6:7b:94:cb:51:48:
                    b9:2b:74:7c:45:40:69:4c:f5:69:fa:87:f3:7c:45:
                    57:4e:a5:51:02:99:b3:dc:77:75:b0:c4:55:cc:84:
                    71:db:2f:d5:c7:1d:7a:ac:a6:46:96:74:71:a3:1b:
                    e6:91:52:b6:c1:93:59:6b:48:ed:bd:41:41:3c:40:
                    cd:ad:3d:e0:da:69:e4:72:28:97:f1:2d:1e:29:f6:
                    4c:e7:e4:de:44:ae:9d:0b:e0:34:15:a6:f2:8f:58:
                    78:65:67:0e:60:ab:25:da:9d:15:bb:ca:73:cd:51:
                    de:81:d2:f0:19:99:21:80:d2:26:88:f8:ff:a0:65:
                    b3:a2:db:fe:20:4d:9e:5a:30:7d:33:69:74:13:0e:
                    3f:9a:d2:91:3a:47:5e:69:5b:c9:e9:0e:59:b3:53:
                    f9:dc:f3:6d:0b:cc:b9:d1:21:6e:09:fa:9c:3f:61:
                    12:e4:db:a1:f8:1a:5c:5a:c5:d5:65:39:48:f8:0a:
                    89:39:8c:18:98:17:df:14:bb:e9:14:75:5f:b5:57:
                    0a:d6:70:c2:43:db:79:b0:db:67:50:d3:77:f1:55:
                    ce:45
                Exponent: 65537 (0x10001)
        X509v3 extensions:
            X509v3 Basic Constraints: 
                CA:FALSE
            X509v3 Subject Key Identifier: 
                F9:CD:6B:5F:75:94:96:5A:AF:B9:61:F0:07:87:FC:F7:E6:20:96:4B
            X509v3 Authority Key Identifier: 
                keyid:38:8F:2C:4A:81:92:63:98:0D:9B:06:AB:2D:86:44:6E:C1:60:FD:2A
                DirName:/CN=team256-net
                serial:5D:38:9F:FD:A4:91:B3:2B:05:72:AF:A8:A9:46:5D:84:E0:4C:1A:A9

            X509v3 Extended Key Usage: 
                TLS Web Client Authentication
            X509v3 Key Usage: 
                Digital Signature
    Signature Algorithm: sha256WithRSAEncryption
         b9:0e:84:e7:24:bd:96:80:9e:e2:88:83:6e:4f:60:ee:08:5f:
         a2:b8:0a:64:09:d9:ec:28:b4:a9:af:73:ae:af:22:a5:d9:0d:
         fa:3b:63:c4:03:1a:3d:93:fc:7b:c7:05:2d:8c:06:52:14:e0:
         f5:d3:84:08:aa:ce:68:e3:e9:e1:91:39:42:77:c8:55:f8:8f:
         57:df:8b:c3:df:15:77:4c:f1:31:cd:0a:ec:4a:38:1f:03:51:
         a0:d2:f5:90:88:c4:08:57:66:b6:c9:61:af:5c:27:21:84:04:
         95:3f:06:93:12:2d:66:2a:89:9c:ce:1c:c1:5e:40:73:54:e9:
         e0:69:ab:eb:7a:8f:53:c2:17:31:0c:a4:97:08:aa:8b:36:8f:
         68:db:65:89:81:78:aa:7e:05:bb:db:3b:10:e1:e1:c1:71:a7:
         ba:5a:d3:15:cb:c2:4b:e8:b5:c9:bd:3c:cd:c5:7e:27:26:64:
         d7:e5:31:aa:13:be:37:aa:e4:8e:c9:e5:b6:1d:f0:4a:50:33:
         d1:81:69:ed:b3:08:b8:ef:b3:c0:37:72:ba:6b:9d:f8:c0:22:
         93:18:ff:2f:f8:37:6f:8f:33:b6:88:fe:61:9c:88:88:c6:04:
         4c:ff:91:15:3c:c6:42:ef:e5:04:b1:37:6b:4f:84:11:a0:8c:
         17:c1:99:f9
-----BEGIN CERTIFICATE-----
MIIDXDCCAkSgAwIBAgIQWyNV0FSkZMF6FAUqIKVXkTANBgkqhkiG9w0BAQsFADAW
MRQwEgYDVQQDDAt0ZWFtMjU2LW5ldDAeFw0yMTA5MTMwMDU1MDJaFw0yNDA4Mjgw
MDU1MDJaMBkxFzAVBgNVBAMMDnRlYW0yNTYtY2xpZW50MIIBIjANBgkqhkiG9w0B
AQEFAAOCAQ8AMIIBCgKCAQEAxZDomoCbRrUxo0VlItklRKdZusWywGtYpQyK8Jqx
bI/4xYNGqj7We5TLUUi5K3R8RUBpTPVp+ofzfEVXTqVRApmz3Hd1sMRVzIRx2y/V
xx16rKZGlnRxoxvmkVK2wZNZa0jtvUFBPEDNrT3g2mnkciiX8S0eKfZM5+TeRK6d
C+A0Fabyj1h4ZWcOYKsl2p0Vu8pzzVHegdLwGZkhgNImiPj/oGWzotv+IE2eWjB9
M2l0Ew4/mtKROkdeaVvJ6Q5Zs1P53PNtC8y50SFuCfqcP2ES5Nuh+BpcWsXVZTlI
+AqJOYwYmBffFLvpFHVftVcK1nDCQ9t5sNtnUNN38VXORQIDAQABo4GiMIGfMAkG
A1UdEwQCMAAwHQYDVR0OBBYEFPnNa191lJZar7lh8AeH/PfmIJZLMFEGA1UdIwRK
MEiAFDiPLEqBkmOYDZsGqy2GRG7BYP0qoRqkGDAWMRQwEgYDVQQDDAt0ZWFtMjU2
LW5ldIIUXTif/aSRsysFcq+oqUZdhOBMGqkwEwYDVR0lBAwwCgYIKwYBBQUHAwIw
CwYDVR0PBAQDAgeAMA0GCSqGSIb3DQEBCwUAA4IBAQC5DoTnJL2WgJ7iiINuT2Du
CF+iuApkCdnsKLSpr3OuryKl2Q36O2PEAxo9k/x7xwUtjAZSFOD104QIqs5o4+nh
kTlCd8hV+I9X34vD3xV3TPExzQrsSjgfA1Gg0vWQiMQIV2a2yWGvXCchhASVPwaT
Ei1mKomczhzBXkBzVOngaavreo9TwhcxDKSXCKqLNo9o22WJgXiqfgW72zsQ4eHB
cae6WtMVy8JL6LXJvTzNxX4nJmTX5TGqE743quSOyeW2HfBKUDPRgWntswi477PA
N3K6a534wCKTGP8v+DdvjzO2iP5hnIiIxgRM/5EVPMZC7+UEsTdrT4QRoIwXwZn5
-----END CERTIFICATE-----
