Certificate:
    Data:
        Version: 3 (0x2)
        Serial Number:
            c0:e6:75:da:6c:64:3e:02:0f:68:a0:50:2b:6d:e7:10
        Signature Algorithm: sha256WithRSAEncryption
        Issuer: CN=team738-net
        Validity
            Not Before: Sep 13 05:05:27 2021 GMT
            Not After : Aug 28 05:05:27 2024 GMT
        Subject: CN=team738-server
        Subject Public Key Info:
            Public Key Algorithm: rsaEncryption
                RSA Public-Key: (2048 bit)
                Modulus:
                    00:c4:c3:15:3a:b2:4f:c7:69:cd:92:3b:df:79:b8:
                    a0:16:98:d7:36:93:23:6a:4f:18:f3:5a:70:a3:6c:
                    53:73:8f:b9:3d:1a:d3:8d:19:6f:3c:86:d6:52:9c:
                    ea:24:5f:6e:59:a0:f9:77:e3:f0:f9:26:1d:16:77:
                    06:c4:ea:36:f4:4d:b2:bd:ba:02:c6:c0:b2:6a:c8:
                    cd:e8:72:8c:9d:8c:99:a5:f9:1e:f2:a9:91:db:5f:
                    1d:b8:89:ca:37:ec:99:43:e7:21:00:e6:d0:79:f9:
                    fa:af:3d:cf:b7:e2:69:4c:55:30:88:95:25:bc:15:
                    6b:80:9c:65:7e:2e:5e:8c:b5:19:1c:bf:33:7c:63:
                    b0:c9:60:da:8c:09:99:bc:a3:3e:c3:d2:b7:34:98:
                    3e:52:d8:bc:10:b3:a0:af:1e:43:d5:ad:86:0b:2d:
                    68:b3:74:34:10:b5:01:3f:25:43:8a:3c:3e:e5:e8:
                    b1:8c:b5:0f:b2:f6:06:68:33:c9:c6:e2:6f:bd:34:
                    4c:5f:c2:6b:c9:90:d1:e9:dc:c4:0a:c7:28:8d:cc:
                    fc:13:20:74:30:12:3e:e2:53:8a:be:13:af:63:c3:
                    95:44:ba:9e:70:ab:0c:23:23:40:2e:85:00:65:a3:
                    cf:3b:bb:3b:2f:d7:b2:01:41:fa:d2:a6:68:f1:1e:
                    b4:fd
                Exponent: 65537 (0x10001)
        X509v3 extensions:
            X509v3 Basic Constraints: 
                CA:FALSE
            X509v3 Subject Key Identifier: 
                1C:03:15:E0:66:90:CE:22:9B:31:43:4C:80:3C:45:E9:0E:B7:DC:B2
            X509v3 Authority Key Identifier: 
                keyid:46:30:30:7E:90:89:A4:8A:6D:B4:D1:12:84:36:3A:41:F3:6C:9F:D0
                DirName:/CN=team738-net
                serial:71:98:4F:38:B7:D8:B9:AB:50:AA:F5:2B:F4:1B:BB:F6:B8:EF:DD:75

            X509v3 Extended Key Usage: 
                TLS Web Server Authentication
            X509v3 Key Usage: 
                Digital Signature, Key Encipherment
            X509v3 Subject Alternative Name: 
                DNS:team738-server
    Signature Algorithm: sha256WithRSAEncryption
         94:d6:70:d7:5c:e9:1e:ce:03:51:4d:d1:0e:84:7c:12:6a:ae:
         c6:39:0d:ef:8f:5d:51:29:65:f3:6c:b5:7f:44:89:e6:ba:fd:
         b1:b5:d0:97:40:e4:a2:fc:26:e1:f0:a1:10:7b:48:13:26:8a:
         60:8f:5e:55:6d:06:b8:ae:6e:3c:42:7d:da:4d:1e:25:ab:59:
         1f:a6:87:5d:41:57:a3:0c:6f:66:0f:bd:d3:48:27:e0:f9:10:
         17:aa:b6:93:e1:69:f4:63:35:ed:e6:63:1f:42:be:07:7d:42:
         c4:31:6f:64:e0:4a:b1:71:f6:3c:3a:36:8e:be:ec:3a:3c:72:
         b9:4a:47:3f:72:52:c9:92:5e:db:a3:59:bd:d5:f3:ee:2c:0e:
         f6:0f:7b:1b:d2:a3:fa:3e:17:bf:56:af:3b:6b:38:47:2a:03:
         78:3b:b4:6e:f4:9e:b2:ec:7f:ef:51:ef:08:15:ef:eb:6d:ec:
         10:a7:e9:27:5b:7a:0d:de:41:1b:ee:5f:30:80:46:21:52:36:
         96:cd:19:12:c2:83:b4:63:81:ae:9c:4d:4e:24:0b:7d:b4:92:
         ab:05:83:8f:54:59:42:cb:ef:be:19:65:e7:c4:ee:3b:99:22:
         87:7b:96:09:4f:69:6a:a1:88:97:2c:39:cc:e0:ef:da:6a:93:
         1f:b0:74:61
-----BEGIN CERTIFICATE-----
MIIDeDCCAmCgAwIBAgIRAMDmddpsZD4CD2igUCtt5xAwDQYJKoZIhvcNAQELBQAw
FjEUMBIGA1UEAwwLdGVhbTczOC1uZXQwHhcNMjEwOTEzMDUwNTI3WhcNMjQwODI4
MDUwNTI3WjAZMRcwFQYDVQQDDA50ZWFtNzM4LXNlcnZlcjCCASIwDQYJKoZIhvcN
AQEBBQADggEPADCCAQoCggEBAMTDFTqyT8dpzZI733m4oBaY1zaTI2pPGPNacKNs
U3OPuT0a040ZbzyG1lKc6iRfblmg+Xfj8PkmHRZ3BsTqNvRNsr26AsbAsmrIzehy
jJ2MmaX5HvKpkdtfHbiJyjfsmUPnIQDm0Hn5+q89z7fiaUxVMIiVJbwVa4CcZX4u
Xoy1GRy/M3xjsMlg2owJmbyjPsPStzSYPlLYvBCzoK8eQ9WthgstaLN0NBC1AT8l
Q4o8PuXosYy1D7L2Bmgzycbib700TF/Ca8mQ0encxArHKI3M/BMgdDASPuJTir4T
r2PDlUS6nnCrDCMjQC6FAGWjzzu7Oy/XsgFB+tKmaPEetP0CAwEAAaOBvTCBujAJ
BgNVHRMEAjAAMB0GA1UdDgQWBBQcAxXgZpDOIpsxQ0yAPEXpDrfcsjBRBgNVHSME
SjBIgBRGMDB+kImkim200RKENjpB82yf0KEapBgwFjEUMBIGA1UEAwwLdGVhbTcz
OC1uZXSCFHGYTzi32LmrUKr1K/Qbu/a47911MBMGA1UdJQQMMAoGCCsGAQUFBwMB
MAsGA1UdDwQEAwIFoDAZBgNVHREEEjAQgg50ZWFtNzM4LXNlcnZlcjANBgkqhkiG
9w0BAQsFAAOCAQEAlNZw11zpHs4DUU3RDoR8EmquxjkN749dUSll82y1f0SJ5rr9
sbXQl0Dkovwm4fChEHtIEyaKYI9eVW0GuK5uPEJ92k0eJatZH6aHXUFXowxvZg+9
00gn4PkQF6q2k+Fp9GM17eZjH0K+B31CxDFvZOBKsXH2PDo2jr7sOjxyuUpHP3JS
yZJe26NZvdXz7iwO9g97G9Kj+j4Xv1avO2s4RyoDeDu0bvSesux/71HvCBXv623s
EKfpJ1t6Dd5BG+5fMIBGIVI2ls0ZEsKDtGOBrpxNTiQLfbSSqwWDj1RZQsvvvhll
58TuO5kih3uWCU9paqGIlyw5zODv2mqTH7B0YQ==
-----END CERTIFICATE-----
