Certificate:
    Data:
        Version: 3 (0x2)
        Serial Number:
            c7:b0:d9:b0:1d:fc:ce:44:e6:58:22:42:73:2f:99:6c
        Signature Algorithm: sha256WithRSAEncryption
        Issuer: CN=team110-net
        Validity
            Not Before: Sep 12 23:44:27 2021 GMT
            Not After : Aug 27 23:44:27 2024 GMT
        Subject: CN=team110-server
        Subject Public Key Info:
            Public Key Algorithm: rsaEncryption
                RSA Public-Key: (2048 bit)
                Modulus:
                    00:c8:9f:99:15:0b:81:f2:2d:92:4c:cb:7f:e8:6f:
                    3f:12:b7:67:ef:77:b8:16:7f:17:8c:2a:96:7a:2d:
                    21:dc:be:60:88:b4:2a:e7:bd:7a:39:63:ec:80:cc:
                    c8:85:19:8e:67:32:38:5c:b4:2d:37:1d:85:33:c3:
                    4c:82:b5:41:f5:20:68:20:24:73:aa:98:c7:24:38:
                    3d:00:99:41:21:76:d3:96:fe:7a:49:17:44:8b:a5:
                    c5:ba:69:46:9e:92:9d:39:94:13:11:25:0a:ce:9b:
                    df:6c:fe:b2:ea:04:69:96:f9:1a:02:ae:dd:f8:23:
                    4e:a0:c2:c6:99:46:73:7f:23:18:60:3c:89:9e:ec:
                    82:38:dd:e6:04:48:25:28:cf:c0:d1:a1:5d:31:b2:
                    8e:4c:fd:f8:5b:90:4b:4a:aa:2a:0e:a8:56:80:a2:
                    7a:ea:ae:6e:da:2e:fd:5c:e1:47:c7:f0:7e:40:94:
                    85:c9:da:f4:ad:51:ed:01:a6:ea:33:ee:36:e9:ff:
                    12:05:c4:6e:6d:9a:13:32:3f:f4:d9:1f:67:c6:8c:
                    19:f8:cf:1b:a7:05:ce:bc:71:08:67:3b:6c:a0:85:
                    e1:f9:9c:e9:2d:50:4b:a9:e6:c7:1e:1b:71:3a:41:
                    59:44:c4:82:c9:95:9b:15:8f:31:56:92:f7:19:b9:
                    d7:43
                Exponent: 65537 (0x10001)
        X509v3 extensions:
            X509v3 Basic Constraints: 
                CA:FALSE
            X509v3 Subject Key Identifier: 
                99:DD:92:78:4A:24:10:E3:D3:57:25:D5:59:76:15:4C:A2:A5:8F:89
            X509v3 Authority Key Identifier: 
                keyid:4E:53:47:B9:7F:31:83:69:18:33:BF:AF:22:37:92:D1:1D:85:65:AD
                DirName:/CN=team110-net
                serial:3F:72:10:38:8D:20:4D:92:E9:2C:C6:1C:12:BB:86:18:21:6C:85:23

            X509v3 Extended Key Usage: 
                TLS Web Server Authentication
            X509v3 Key Usage: 
                Digital Signature, Key Encipherment
            X509v3 Subject Alternative Name: 
                DNS:team110-server
    Signature Algorithm: sha256WithRSAEncryption
         20:66:e1:d2:a9:d4:cd:11:1f:32:fc:9b:b1:bb:c5:61:b6:a9:
         b7:e4:07:ec:be:22:a9:56:a6:2f:25:0a:c4:19:28:c0:5b:25:
         f5:71:75:10:0c:18:b3:e4:9f:9b:75:b3:03:99:9d:4b:8a:26:
         01:17:4a:a8:68:7b:f1:65:59:82:d7:2c:29:e0:e6:34:5f:83:
         1d:50:db:65:f5:56:91:4f:8a:36:f7:95:5e:4b:42:97:96:b4:
         34:07:ed:a4:c6:2d:12:35:2a:88:2e:d8:a6:8e:2a:39:54:35:
         87:87:a3:ac:f8:15:8b:95:0b:bd:64:9c:54:0a:8c:d2:58:0b:
         6c:a9:44:3d:df:9c:ea:8b:5f:dd:44:44:2b:47:84:7c:32:6a:
         57:24:96:d7:ad:d2:13:f7:27:68:08:d0:21:0e:7f:54:c7:ea:
         0d:89:01:a5:39:ef:9f:3c:e8:15:f4:5b:4d:29:e8:9d:d0:ec:
         a0:c4:46:3c:50:50:5f:b0:a7:43:c2:db:e6:69:06:40:dd:29:
         03:c5:aa:cc:46:d2:d7:e0:0c:b0:40:c9:88:f6:39:8e:9f:32:
         88:f3:74:e1:32:a8:81:d6:26:78:e7:0a:e4:34:c5:e1:39:82:
         d7:06:f4:8c:f6:5f:7c:9c:33:10:4f:45:5c:f5:f4:8b:10:f3:
         f7:d5:c9:0f
-----BEGIN CERTIFICATE-----
MIIDeDCCAmCgAwIBAgIRAMew2bAd/M5E5lgiQnMvmWwwDQYJKoZIhvcNAQELBQAw
FjEUMBIGA1UEAwwLdGVhbTExMC1uZXQwHhcNMjEwOTEyMjM0NDI3WhcNMjQwODI3
MjM0NDI3WjAZMRcwFQYDVQQDDA50ZWFtMTEwLXNlcnZlcjCCASIwDQYJKoZIhvcN
AQEBBQADggEPADCCAQoCggEBAMifmRULgfItkkzLf+hvPxK3Z+93uBZ/F4wqlnot
Idy+YIi0Kue9ejlj7IDMyIUZjmcyOFy0LTcdhTPDTIK1QfUgaCAkc6qYxyQ4PQCZ
QSF205b+ekkXRIulxbppRp6SnTmUExElCs6b32z+suoEaZb5GgKu3fgjTqDCxplG
c38jGGA8iZ7sgjjd5gRIJSjPwNGhXTGyjkz9+FuQS0qqKg6oVoCieuqubtou/Vzh
R8fwfkCUhcna9K1R7QGm6jPuNun/EgXEbm2aEzI/9NkfZ8aMGfjPG6cFzrxxCGc7
bKCF4fmc6S1QS6nmxx4bcTpBWUTEgsmVmxWPMVaS9xm510MCAwEAAaOBvTCBujAJ
BgNVHRMEAjAAMB0GA1UdDgQWBBSZ3ZJ4SiQQ49NXJdVZdhVMoqWPiTBRBgNVHSME
SjBIgBROU0e5fzGDaRgzv68iN5LRHYVlraEapBgwFjEUMBIGA1UEAwwLdGVhbTEx
MC1uZXSCFD9yEDiNIE2S6SzGHBK7hhghbIUjMBMGA1UdJQQMMAoGCCsGAQUFBwMB
MAsGA1UdDwQEAwIFoDAZBgNVHREEEjAQgg50ZWFtMTEwLXNlcnZlcjANBgkqhkiG
9w0BAQsFAAOCAQEAIGbh0qnUzREfMvybsbvFYbapt+QH7L4iqVamLyUKxBkowFsl
9XF1EAwYs+Sfm3WzA5mdS4omARdKqGh78WVZgtcsKeDmNF+DHVDbZfVWkU+KNveV
XktCl5a0NAftpMYtEjUqiC7Ypo4qOVQ1h4ejrPgVi5ULvWScVAqM0lgLbKlEPd+c
6otf3UREK0eEfDJqVySW163SE/cnaAjQIQ5/VMfqDYkBpTnvnzzoFfRbTSnondDs
oMRGPFBQX7CnQ8Lb5mkGQN0pA8WqzEbS1+AMsEDJiPY5jp8yiPN04TKogdYmeOcK
5DTF4TmC1wb0jPZffJwzEE9FXPX0ixDz99XJDw==
-----END CERTIFICATE-----
