Certificate:
    Data:
        Version: 3 (0x2)
        Serial Number:
            4f:c8:a2:4f:ec:c7:ae:50:ff:83:47:32:d8:e3:41:48
        Signature Algorithm: sha256WithRSAEncryption
        Issuer: CN=team726-net
        Validity
            Not Before: Sep 13 05:36:49 2021 GMT
            Not After : Aug 28 05:36:49 2024 GMT
        Subject: CN=team726-server
        Subject Public Key Info:
            Public Key Algorithm: rsaEncryption
                RSA Public-Key: (2048 bit)
                Modulus:
                    00:c8:96:6e:4d:db:3b:c9:6f:02:30:32:78:79:2e:
                    e2:f9:36:d7:2b:41:ed:19:ac:c1:b0:18:91:56:10:
                    e7:68:00:05:8b:17:ef:93:85:19:40:f9:56:88:21:
                    7a:5f:53:00:28:7d:73:53:8e:30:82:c6:e7:78:57:
                    a1:f4:5b:53:ff:63:68:30:fb:9a:6c:f4:3a:44:d7:
                    43:a3:3b:54:c4:c2:e9:f3:f8:a9:49:1e:46:ff:be:
                    3d:d0:58:05:c8:8b:6c:ab:73:e7:23:78:fa:17:b7:
                    43:c9:47:2c:db:5e:e6:6f:af:80:0a:ee:eb:00:91:
                    ce:48:79:7f:38:20:12:ba:4d:f5:9f:ab:36:c5:68:
                    09:dd:98:c8:df:c5:34:7a:e9:37:11:f3:b8:87:d5:
                    b0:07:ce:d7:57:84:24:b9:4d:fa:95:6f:9d:c2:75:
                    5a:74:2d:10:f1:14:96:85:5a:b4:12:ee:3d:bf:ee:
                    88:a8:1d:f6:77:17:3f:b4:53:3a:36:ab:11:bf:32:
                    6a:ad:d5:2a:07:d3:fd:b7:11:e4:86:8a:13:ea:02:
                    01:6a:13:32:e0:1c:06:9a:ef:02:fc:14:ec:aa:df:
                    38:87:84:bc:41:73:b6:9c:67:40:0a:38:6a:ed:ff:
                    ad:6c:a6:8d:7b:99:7f:90:19:61:51:fe:95:d8:75:
                    8a:c3
                Exponent: 65537 (0x10001)
        X509v3 extensions:
            X509v3 Basic Constraints: 
                CA:FALSE
            X509v3 Subject Key Identifier: 
                D1:9C:03:76:FD:DC:22:89:1D:91:16:B2:74:F9:FE:25:31:5F:9E:AF
            X509v3 Authority Key Identifier: 
                keyid:DB:6E:F1:E2:1B:53:0C:65:53:84:6E:C3:66:5A:97:2E:FB:71:CC:75
                DirName:/CN=team726-net
                serial:32:AA:1A:F3:05:9D:2A:98:62:DA:12:E2:53:B4:FB:10:77:29:D4:4E

            X509v3 Extended Key Usage: 
                TLS Web Server Authentication
            X509v3 Key Usage: 
                Digital Signature, Key Encipherment
            X509v3 Subject Alternative Name: 
                DNS:team726-server
    Signature Algorithm: sha256WithRSAEncryption
         4d:9b:a8:67:f7:96:3a:9e:07:7b:a5:f5:18:31:69:eb:3e:60:
         c5:15:6d:e3:18:98:3c:14:bd:4e:02:78:bb:c7:72:45:52:c6:
         8c:3f:22:37:57:9d:a1:f3:22:88:10:42:2e:46:44:c9:88:d0:
         ce:8a:dc:e2:7e:bc:d5:84:97:33:a6:65:8e:13:1e:43:9c:9b:
         ab:b4:6e:eb:84:0e:f2:1a:2e:12:2a:11:7e:57:10:68:5f:24:
         40:4b:87:f6:2e:aa:e1:0d:54:d9:4e:f0:ad:b4:73:11:42:80:
         b0:d7:65:a3:6f:6b:f1:e6:14:f2:02:8c:29:d5:99:8c:60:c7:
         3d:42:89:68:fb:98:2b:a2:88:6a:e0:d2:1b:1b:9a:f2:2c:1f:
         61:85:2a:b4:59:b2:39:4c:25:49:16:46:88:cc:56:18:91:fd:
         da:af:d9:34:e5:80:00:93:00:61:e8:83:85:be:9d:8b:04:e8:
         d1:69:01:16:d6:7f:27:91:06:8c:5e:46:7d:6f:44:10:ad:5c:
         5e:01:27:b0:1a:02:2d:de:7a:69:02:b7:3b:bb:da:dc:27:00:
         27:80:22:36:66:75:73:f9:bc:d8:bd:fd:4f:b8:05:a2:38:bf:
         2d:a8:3e:36:4a:8f:a6:7b:16:49:63:1b:ba:4a:fa:23:16:be:
         ef:85:a4:9c
-----BEGIN CERTIFICATE-----
MIIDdzCCAl+gAwIBAgIQT8iiT+zHrlD/g0cy2ONBSDANBgkqhkiG9w0BAQsFADAW
MRQwEgYDVQQDDAt0ZWFtNzI2LW5ldDAeFw0yMTA5MTMwNTM2NDlaFw0yNDA4Mjgw
NTM2NDlaMBkxFzAVBgNVBAMMDnRlYW03MjYtc2VydmVyMIIBIjANBgkqhkiG9w0B
AQEFAAOCAQ8AMIIBCgKCAQEAyJZuTds7yW8CMDJ4eS7i+TbXK0HtGazBsBiRVhDn
aAAFixfvk4UZQPlWiCF6X1MAKH1zU44wgsbneFeh9FtT/2NoMPuabPQ6RNdDoztU
xMLp8/ipSR5G/7490FgFyItsq3PnI3j6F7dDyUcs217mb6+ACu7rAJHOSHl/OCAS
uk31n6s2xWgJ3ZjI38U0euk3EfO4h9WwB87XV4QkuU36lW+dwnVadC0Q8RSWhVq0
Eu49v+6IqB32dxc/tFM6NqsRvzJqrdUqB9P9txHkhooT6gIBahMy4BwGmu8C/BTs
qt84h4S8QXO2nGdACjhq7f+tbKaNe5l/kBlhUf6V2HWKwwIDAQABo4G9MIG6MAkG
A1UdEwQCMAAwHQYDVR0OBBYEFNGcA3b93CKJHZEWsnT5/iUxX56vMFEGA1UdIwRK
MEiAFNtu8eIbUwxlU4Ruw2Zaly77ccx1oRqkGDAWMRQwEgYDVQQDDAt0ZWFtNzI2
LW5ldIIUMqoa8wWdKphi2hLiU7T7EHcp1E4wEwYDVR0lBAwwCgYIKwYBBQUHAwEw
CwYDVR0PBAQDAgWgMBkGA1UdEQQSMBCCDnRlYW03MjYtc2VydmVyMA0GCSqGSIb3
DQEBCwUAA4IBAQBNm6hn95Y6ngd7pfUYMWnrPmDFFW3jGJg8FL1OAni7x3JFUsaM
PyI3V52h8yKIEEIuRkTJiNDOitzifrzVhJczpmWOEx5DnJurtG7rhA7yGi4SKhF+
VxBoXyRAS4f2LqrhDVTZTvCttHMRQoCw12Wjb2vx5hTyAowp1ZmMYMc9Qolo+5gr
oohq4NIbG5ryLB9hhSq0WbI5TCVJFkaIzFYYkf3ar9k05YAAkwBh6IOFvp2LBOjR
aQEW1n8nkQaMXkZ9b0QQrVxeASewGgIt3nppArc7u9rcJwAngCI2ZnVz+bzYvf1P
uAWiOL8tqD42So+mexZJYxu6SvojFr7vhaSc
-----END CERTIFICATE-----
