Certificate:
    Data:
        Version: 3 (0x2)
        Serial Number:
            47:1f:cf:17:e5:fb:f3:6b:b6:1f:36:8d:15:91:19:d5
        Signature Algorithm: sha256WithRSAEncryption
        Issuer: CN=team650-net
        Validity
            Not Before: Sep 13 04:24:15 2021 GMT
            Not After : Aug 28 04:24:15 2024 GMT
        Subject: CN=team650-server
        Subject Public Key Info:
            Public Key Algorithm: rsaEncryption
                RSA Public-Key: (2048 bit)
                Modulus:
                    00:b4:ef:c2:71:46:47:6e:3a:68:1f:d1:a3:61:93:
                    a3:3f:e6:be:24:ac:f8:c2:b5:d2:98:9f:fa:de:81:
                    e4:57:27:56:c3:76:4d:63:50:cb:6a:a8:75:aa:9d:
                    91:93:ab:bc:88:df:e5:b2:9e:13:8a:b9:5e:ee:b8:
                    c8:77:20:5a:14:51:10:dd:fc:82:f0:e1:a2:5b:ac:
                    3d:8c:db:ab:48:60:17:ef:13:b2:f8:01:eb:4b:3e:
                    fb:c1:9b:18:15:f4:c9:3d:16:96:30:a6:0e:26:d9:
                    89:bf:c6:07:0c:67:84:15:7d:67:80:74:24:d5:d7:
                    78:5f:4b:89:de:03:c4:5d:55:20:72:d7:e3:e7:5f:
                    4c:35:bb:33:d1:a4:4a:29:2a:ec:fa:34:9b:0c:d3:
                    34:b0:49:7c:7e:78:87:e6:64:55:66:eb:19:2a:09:
                    a1:59:29:42:38:e4:30:b2:1b:88:40:b5:ea:9e:a7:
                    7e:52:dd:07:b3:9c:30:20:ff:98:b4:8a:44:41:a3:
                    b9:05:e4:f8:8f:25:00:76:8b:8b:c4:52:7e:10:c3:
                    cf:63:4f:c3:4c:ce:8f:f4:3f:f0:2c:e6:8c:1f:ad:
                    d1:9d:87:60:11:85:05:cd:ae:97:98:18:ed:4c:5d:
                    fd:a9:a2:85:ab:77:ea:83:45:a3:a5:85:21:25:ad:
                    6b:ad
                Exponent: 65537 (0x10001)
        X509v3 extensions:
            X509v3 Basic Constraints: 
                CA:FALSE
            X509v3 Subject Key Identifier: 
                4D:CB:84:D3:ED:42:1C:15:7D:E9:6B:48:E3:C9:33:DB:A0:64:0B:35
            X509v3 Authority Key Identifier: 
                keyid:7B:7B:CC:01:4E:F8:A1:0B:E9:68:AA:28:88:0C:E6:57:9B:B8:C1:06
                DirName:/CN=team650-net
                serial:73:BF:89:62:94:08:BA:96:10:8B:39:CC:AA:B1:17:59:95:DB:6E:D4

            X509v3 Extended Key Usage: 
                TLS Web Server Authentication
            X509v3 Key Usage: 
                Digital Signature, Key Encipherment
            X509v3 Subject Alternative Name: 
                DNS:team650-server
    Signature Algorithm: sha256WithRSAEncryption
         a2:65:c7:4a:18:a8:22:2b:14:c8:c0:1c:b2:f7:ff:a3:d3:3e:
         84:b1:c5:84:86:af:f9:22:70:9c:98:b9:84:32:51:92:e4:25:
         76:39:b8:8a:d1:1b:24:97:67:7c:e8:23:ef:96:68:28:60:fc:
         ef:99:8a:9d:ce:22:ba:a9:cd:a4:9a:0e:ee:ff:06:81:09:25:
         e7:de:6a:2c:72:11:93:69:e3:6e:92:81:06:f2:5b:2b:c3:f3:
         d3:75:58:35:b3:3f:3b:51:51:11:80:3f:cb:1f:81:9f:a8:7b:
         f8:3c:3d:35:c9:6f:30:a0:1e:41:08:fb:7b:56:10:34:3a:2d:
         f6:a8:b3:6e:e1:be:10:0d:c9:c4:cd:ad:ae:f0:43:01:25:31:
         4a:69:d4:b6:b1:74:3c:63:3c:29:6c:b0:c1:ab:b8:dc:25:0c:
         8c:5d:e9:e1:a1:3c:a5:e5:49:d0:c5:24:54:bf:43:89:c3:60:
         9b:b5:ec:1d:83:f3:f2:3f:f8:fc:dd:49:ae:22:81:45:a8:a1:
         d4:fb:ed:a9:0e:43:df:a3:5e:08:ec:4a:27:f0:19:8a:1d:40:
         d7:ae:f3:c6:40:03:ca:41:a7:a2:cc:78:53:77:64:ba:f6:9d:
         98:f4:c2:d2:e1:1c:12:d9:a1:d7:96:87:8a:f3:ec:7a:3a:16:
         78:ca:24:bb
-----BEGIN CERTIFICATE-----
MIIDdzCCAl+gAwIBAgIQRx/PF+X782u2HzaNFZEZ1TANBgkqhkiG9w0BAQsFADAW
MRQwEgYDVQQDDAt0ZWFtNjUwLW5ldDAeFw0yMTA5MTMwNDI0MTVaFw0yNDA4Mjgw
NDI0MTVaMBkxFzAVBgNVBAMMDnRlYW02NTAtc2VydmVyMIIBIjANBgkqhkiG9w0B
AQEFAAOCAQ8AMIIBCgKCAQEAtO/CcUZHbjpoH9GjYZOjP+a+JKz4wrXSmJ/63oHk
VydWw3ZNY1DLaqh1qp2Rk6u8iN/lsp4Tirle7rjIdyBaFFEQ3fyC8OGiW6w9jNur
SGAX7xOy+AHrSz77wZsYFfTJPRaWMKYOJtmJv8YHDGeEFX1ngHQk1dd4X0uJ3gPE
XVUgctfj519MNbsz0aRKKSrs+jSbDNM0sEl8fniH5mRVZusZKgmhWSlCOOQwshuI
QLXqnqd+Ut0Hs5wwIP+YtIpEQaO5BeT4jyUAdouLxFJ+EMPPY0/DTM6P9D/wLOaM
H63RnYdgEYUFza6XmBjtTF39qaKFq3fqg0WjpYUhJa1rrQIDAQABo4G9MIG6MAkG
A1UdEwQCMAAwHQYDVR0OBBYEFE3LhNPtQhwVfelrSOPJM9ugZAs1MFEGA1UdIwRK
MEiAFHt7zAFO+KEL6WiqKIgM5lebuMEGoRqkGDAWMRQwEgYDVQQDDAt0ZWFtNjUw
LW5ldIIUc7+JYpQIupYQiznMqrEXWZXbbtQwEwYDVR0lBAwwCgYIKwYBBQUHAwEw
CwYDVR0PBAQDAgWgMBkGA1UdEQQSMBCCDnRlYW02NTAtc2VydmVyMA0GCSqGSIb3
DQEBCwUAA4IBAQCiZcdKGKgiKxTIwByy9/+j0z6EscWEhq/5InCcmLmEMlGS5CV2
ObiK0Rskl2d86CPvlmgoYPzvmYqdziK6qc2kmg7u/waBCSXn3moschGTaeNukoEG
8lsrw/PTdVg1sz87UVERgD/LH4GfqHv4PD01yW8woB5BCPt7VhA0Oi32qLNu4b4Q
DcnEza2u8EMBJTFKadS2sXQ8YzwpbLDBq7jcJQyMXenhoTyl5UnQxSRUv0OJw2Cb
tewdg/PyP/j83UmuIoFFqKHU++2pDkPfo14I7Eon8BmKHUDXrvPGQAPKQaeizHhT
d2S69p2Y9MLS4RwS2aHXloeK8+x6OhZ4yiS7
-----END CERTIFICATE-----
