Certificate:
    Data:
        Version: 3 (0x2)
        Serial Number:
            8c:a4:c0:52:6e:b1:ee:28:ee:e4:22:9a:9e:db:04:4a
        Signature Algorithm: sha256WithRSAEncryption
        Issuer: CN=team38-net
        Validity
            Not Before: Sep 12 23:03:56 2021 GMT
            Not After : Aug 27 23:03:56 2024 GMT
        Subject: CN=team38-server
        Subject Public Key Info:
            Public Key Algorithm: rsaEncryption
                RSA Public-Key: (2048 bit)
                Modulus:
                    00:c8:4b:6b:db:9b:7f:2b:65:26:d8:a9:5c:27:73:
                    3a:f1:cf:03:9d:a8:25:b7:bb:54:25:98:79:1f:49:
                    0b:b5:0e:83:c5:9e:93:32:ca:c8:23:94:81:d0:f7:
                    e9:4f:f2:c6:28:e0:46:13:b9:36:80:ea:e5:62:9a:
                    60:be:4e:6b:8f:47:33:03:01:5b:62:cd:e4:94:42:
                    db:a8:a3:28:8a:bf:fc:c0:2c:22:f7:c4:72:b9:b4:
                    5d:2b:3e:12:51:b9:8b:21:3b:3c:be:f8:d0:35:05:
                    a0:a1:5a:93:a8:31:ac:7d:29:ab:02:66:12:e9:48:
                    dc:4a:ca:5d:8c:d8:44:ed:e7:54:53:a8:e3:8c:04:
                    14:51:4d:59:84:33:1f:9c:da:ac:a7:4a:86:4e:fd:
                    b6:e8:60:5a:10:5b:bc:f2:a3:62:89:9d:08:86:0f:
                    bf:60:0d:69:ff:a6:f0:5d:41:f4:29:fd:11:bf:49:
                    e4:07:08:62:46:42:9e:82:34:be:4f:56:4b:2c:82:
                    67:89:2d:b9:83:b3:ff:e9:c2:64:a3:2d:aa:ef:39:
                    06:9b:fc:bc:d7:20:07:7e:4f:e3:5b:a9:f1:ff:d8:
                    60:80:cf:5a:9e:99:46:05:8d:80:3a:e6:bc:91:c3:
                    02:21:65:dc:95:c3:a3:15:cc:f2:44:3f:f1:c4:14:
                    85:c7
                Exponent: 65537 (0x10001)
        X509v3 extensions:
            X509v3 Basic Constraints: 
                CA:FALSE
            X509v3 Subject Key Identifier: 
                F4:91:8D:6A:35:2E:8C:51:90:DB:F9:EB:8D:43:01:9E:46:8A:E0:BB
            X509v3 Authority Key Identifier: 
                keyid:3E:DD:CA:8C:AC:DD:D0:C6:C5:56:4B:22:CC:AD:1F:04:AF:39:1A:01
                DirName:/CN=team38-net
                serial:34:CD:42:FF:D3:67:CE:CB:F3:75:BC:3B:11:DA:DD:6A:20:CB:86:50

            X509v3 Extended Key Usage: 
                TLS Web Server Authentication
            X509v3 Key Usage: 
                Digital Signature, Key Encipherment
            X509v3 Subject Alternative Name: 
                DNS:team38-server
    Signature Algorithm: sha256WithRSAEncryption
         3a:93:d7:20:c8:d1:ea:7b:8b:19:b8:c6:97:53:b8:f5:0e:15:
         a7:21:d0:4d:53:1d:bc:d5:88:12:1a:a3:84:76:12:a6:79:6c:
         93:11:5f:31:b7:d0:96:47:44:ab:e4:3b:3e:db:5d:a3:50:bc:
         6d:56:56:68:31:40:7f:f6:bd:c1:1b:5a:07:c8:0f:45:c7:80:
         6b:e5:d0:84:d4:6a:77:da:02:01:55:f8:1a:49:dc:1f:bd:5d:
         46:d2:37:2f:12:10:3f:ec:3b:90:9f:7d:e8:8b:37:bd:f5:f2:
         71:95:32:a6:10:4b:e8:52:33:21:ce:58:42:51:1b:0c:8f:0d:
         dc:b3:60:d2:6c:d6:a7:f2:5e:46:a0:22:fe:6a:f8:75:7f:88:
         1c:bb:e9:22:6c:46:76:68:68:fe:f3:84:9a:46:87:71:e7:99:
         e9:5f:d8:dd:06:c5:cf:0e:92:b9:1e:0d:c5:a9:d5:1a:ae:e4:
         47:fd:2f:01:e1:de:fb:9d:46:74:f1:7d:e3:7b:62:30:8a:4d:
         10:56:97:75:c5:52:23:37:0f:96:85:79:bf:c5:ce:ed:3c:df:
         cc:fe:28:a9:08:89:99:cc:59:ff:1f:b9:18:89:4b:14:af:f4:
         b5:41:18:9a:dc:bb:66:01:3a:68:64:8f:40:02:09:5e:c4:93:
         13:0f:48:a4
-----BEGIN CERTIFICATE-----
MIIDdDCCAlygAwIBAgIRAIykwFJuse4o7uQimp7bBEowDQYJKoZIhvcNAQELBQAw
FTETMBEGA1UEAwwKdGVhbTM4LW5ldDAeFw0yMTA5MTIyMzAzNTZaFw0yNDA4Mjcy
MzAzNTZaMBgxFjAUBgNVBAMMDXRlYW0zOC1zZXJ2ZXIwggEiMA0GCSqGSIb3DQEB
AQUAA4IBDwAwggEKAoIBAQDIS2vbm38rZSbYqVwnczrxzwOdqCW3u1QlmHkfSQu1
DoPFnpMyysgjlIHQ9+lP8sYo4EYTuTaA6uVimmC+TmuPRzMDAVtizeSUQtuooyiK
v/zALCL3xHK5tF0rPhJRuYshOzy++NA1BaChWpOoMax9KasCZhLpSNxKyl2M2ETt
51RTqOOMBBRRTVmEMx+c2qynSoZO/bboYFoQW7zyo2KJnQiGD79gDWn/pvBdQfQp
/RG/SeQHCGJGQp6CNL5PVkssgmeJLbmDs//pwmSjLarvOQab/LzXIAd+T+NbqfH/
2GCAz1qemUYFjYA65ryRwwIhZdyVw6MVzPJEP/HEFIXHAgMBAAGjgbswgbgwCQYD
VR0TBAIwADAdBgNVHQ4EFgQU9JGNajUujFGQ2/nrjUMBnkaK4LswUAYDVR0jBEkw
R4AUPt3KjKzd0MbFVksizK0fBK85GgGhGaQXMBUxEzARBgNVBAMMCnRlYW0zOC1u
ZXSCFDTNQv/TZ87L83W8OxHa3Wogy4ZQMBMGA1UdJQQMMAoGCCsGAQUFBwMBMAsG
A1UdDwQEAwIFoDAYBgNVHREEETAPgg10ZWFtMzgtc2VydmVyMA0GCSqGSIb3DQEB
CwUAA4IBAQA6k9cgyNHqe4sZuMaXU7j1DhWnIdBNUx281YgSGqOEdhKmeWyTEV8x
t9CWR0Sr5Ds+212jULxtVlZoMUB/9r3BG1oHyA9Fx4Br5dCE1Gp32gIBVfgaSdwf
vV1G0jcvEhA/7DuQn33oize99fJxlTKmEEvoUjMhzlhCURsMjw3cs2DSbNan8l5G
oCL+avh1f4gcu+kibEZ2aGj+84SaRodx55npX9jdBsXPDpK5Hg3FqdUaruRH/S8B
4d77nUZ08X3je2Iwik0QVpd1xVIjNw+WhXm/xc7tPN/M/iipCImZzFn/H7kYiUsU
r/S1QRia3LtmATpoZI9AAglexJMTD0ik
-----END CERTIFICATE-----
