Certificate:
    Data:
        Version: 3 (0x2)
        Serial Number:
            c6:62:29:ae:e3:d9:d7:da:7d:f3:00:92:01:f0:48:c4
        Signature Algorithm: sha256WithRSAEncryption
        Issuer: CN=team243-net
        Validity
            Not Before: Sep 13 00:46:14 2021 GMT
            Not After : Aug 28 00:46:14 2024 GMT
        Subject: CN=team243-client
        Subject Public Key Info:
            Public Key Algorithm: rsaEncryption
                RSA Public-Key: (2048 bit)
                Modulus:
                    00:d8:d5:11:7e:67:3f:90:fc:41:b7:d6:9b:a1:3d:
                    ef:19:0a:11:38:60:3d:5c:5c:1a:7a:fb:8c:ae:05:
                    5c:54:de:00:72:cb:6a:0d:8c:54:da:6b:66:bb:46:
                    4c:a2:11:c0:dc:fb:66:33:bb:4e:1a:f3:64:62:79:
                    44:b5:8b:98:89:33:d7:65:fa:25:df:41:75:68:81:
                    54:05:0c:7f:ad:8d:1b:1d:6e:45:71:bf:80:30:a2:
                    de:3d:24:70:34:66:82:bb:bd:c6:3e:10:94:2d:d6:
                    48:70:53:dc:f0:e4:bf:79:19:e1:aa:15:83:b1:b9:
                    f3:ea:a0:5d:8e:96:d9:fe:26:bf:74:13:8a:27:81:
                    fc:ea:e9:3e:25:92:40:14:a1:28:60:2b:06:83:7e:
                    8b:a1:fc:bc:0a:68:65:2c:0d:8f:13:69:6a:92:56:
                    8a:8d:0c:21:e2:ce:26:f0:48:6a:a1:66:39:d8:16:
                    3d:0d:0a:4d:5a:45:83:ee:dd:23:c9:40:6b:54:67:
                    8b:1c:03:d0:1a:1a:b3:3f:83:86:c3:40:b2:09:63:
                    65:1d:86:3f:5e:fc:70:23:18:ca:61:09:71:d9:ab:
                    b6:1b:1e:bd:f8:38:ae:42:1f:e0:87:cb:d0:78:e5:
                    6d:71:e4:ce:94:99:be:24:7c:58:c8:73:8b:09:a2:
                    97:57
                Exponent: 65537 (0x10001)
        X509v3 extensions:
            X509v3 Basic Constraints: 
                CA:FALSE
            X509v3 Subject Key Identifier: 
                86:5D:ED:B4:0E:E1:76:92:5A:45:84:4F:9B:8D:7D:51:9B:89:55:B0
            X509v3 Authority Key Identifier: 
                keyid:66:BE:4B:8E:CC:7F:1B:19:7E:DE:E2:DE:81:FD:04:16:F0:33:CB:E6
                DirName:/CN=team243-net
                serial:0E:21:0E:05:E8:2B:29:FC:17:FC:96:27:03:24:5B:F0:B6:B5:33:E0

            X509v3 Extended Key Usage: 
                TLS Web Client Authentication
            X509v3 Key Usage: 
                Digital Signature
    Signature Algorithm: sha256WithRSAEncryption
         4d:f6:04:56:f2:13:0c:f4:58:61:8d:a5:5a:21:cf:c0:0e:ba:
         12:f6:8d:46:c5:2c:3b:59:b0:2c:a3:b8:21:53:b2:54:32:f0:
         ab:6a:f6:9f:0c:1d:00:77:4f:84:90:20:43:72:b5:b9:9c:49:
         f0:21:8a:cc:2c:42:26:9d:5d:7c:33:ec:db:0d:9c:fa:72:01:
         6f:47:c5:a1:55:c8:75:38:0f:20:ca:65:0d:82:df:52:2b:0e:
         ab:5c:bf:fd:a1:d2:7c:fa:3a:3c:3d:a5:30:62:0d:5e:a8:50:
         c2:dd:4b:1e:df:e0:cc:d5:75:46:c2:0d:59:2d:07:9e:e0:a1:
         0a:57:c9:94:76:ff:50:58:da:a8:17:df:39:40:26:6b:a2:7c:
         f1:19:b1:16:63:ff:2b:65:ac:c2:41:14:41:6b:b0:29:97:b6:
         b3:c4:60:3c:44:03:38:4a:6b:bb:07:ad:06:f5:0f:35:1d:18:
         02:5c:52:21:2d:99:33:05:84:a5:8f:1f:c4:65:37:e8:7f:f7:
         0f:f1:9f:7e:06:33:94:9a:09:a7:87:c2:00:e5:4d:3a:97:8a:
         e9:9e:a8:80:3c:04:fc:49:c7:5b:da:85:21:94:88:92:c4:c9:
         07:3d:86:51:65:ce:26:d1:22:67:25:ff:b3:a6:31:01:37:2d:
         96:4e:12:f5
-----BEGIN CERTIFICATE-----
MIIDXTCCAkWgAwIBAgIRAMZiKa7j2dfaffMAkgHwSMQwDQYJKoZIhvcNAQELBQAw
FjEUMBIGA1UEAwwLdGVhbTI0My1uZXQwHhcNMjEwOTEzMDA0NjE0WhcNMjQwODI4
MDA0NjE0WjAZMRcwFQYDVQQDDA50ZWFtMjQzLWNsaWVudDCCASIwDQYJKoZIhvcN
AQEBBQADggEPADCCAQoCggEBANjVEX5nP5D8QbfWm6E97xkKEThgPVxcGnr7jK4F
XFTeAHLLag2MVNprZrtGTKIRwNz7ZjO7ThrzZGJ5RLWLmIkz12X6Jd9BdWiBVAUM
f62NGx1uRXG/gDCi3j0kcDRmgru9xj4QlC3WSHBT3PDkv3kZ4aoVg7G58+qgXY6W
2f4mv3QTiieB/OrpPiWSQBShKGArBoN+i6H8vApoZSwNjxNpapJWio0MIeLOJvBI
aqFmOdgWPQ0KTVpFg+7dI8lAa1RnixwD0Boasz+DhsNAsgljZR2GP178cCMYymEJ
cdmrthsevfg4rkIf4IfL0HjlbXHkzpSZviR8WMhziwmil1cCAwEAAaOBojCBnzAJ
BgNVHRMEAjAAMB0GA1UdDgQWBBSGXe20DuF2klpFhE+bjX1Rm4lVsDBRBgNVHSME
SjBIgBRmvkuOzH8bGX7e4t6B/QQW8DPL5qEapBgwFjEUMBIGA1UEAwwLdGVhbTI0
My1uZXSCFA4hDgXoKyn8F/yWJwMkW/C2tTPgMBMGA1UdJQQMMAoGCCsGAQUFBwMC
MAsGA1UdDwQEAwIHgDANBgkqhkiG9w0BAQsFAAOCAQEATfYEVvITDPRYYY2lWiHP
wA66EvaNRsUsO1mwLKO4IVOyVDLwq2r2nwwdAHdPhJAgQ3K1uZxJ8CGKzCxCJp1d
fDPs2w2c+nIBb0fFoVXIdTgPIMplDYLfUisOq1y//aHSfPo6PD2lMGINXqhQwt1L
Ht/gzNV1RsINWS0HnuChClfJlHb/UFjaqBffOUAma6J88RmxFmP/K2WswkEUQWuw
KZe2s8RgPEQDOEpruwetBvUPNR0YAlxSIS2ZMwWEpY8fxGU36H/3D/GffgYzlJoJ
p4fCAOVNOpeK6Z6ogDwE/EnHW9qFIZSIksTJBz2GUWXOJtEiZyX/s6YxATctlk4S
9Q==
-----END CERTIFICATE-----
