Certificate:
    Data:
        Version: 3 (0x2)
        Serial Number:
            24:c2:02:4e:96:1d:a3:69:33:81:a1:14:80:21:bf:05
        Signature Algorithm: sha256WithRSAEncryption
        Issuer: CN=team257-net
        Validity
            Not Before: Sep 13 00:55:27 2021 GMT
            Not After : Aug 28 00:55:27 2024 GMT
        Subject: CN=team257-server
        Subject Public Key Info:
            Public Key Algorithm: rsaEncryption
                RSA Public-Key: (2048 bit)
                Modulus:
                    00:e4:7e:3f:6a:74:ce:a8:58:e5:ca:e6:de:6c:a7:
                    13:9d:f4:75:82:6e:75:d8:92:f3:e1:9d:45:fc:f4:
                    8d:16:e3:3c:41:ea:73:b2:f3:c5:e9:d3:a5:b6:16:
                    86:10:d3:6a:2f:da:af:0d:24:80:8b:06:0d:5f:96:
                    e0:c4:36:79:ac:53:a8:a5:31:6e:ab:f3:95:a0:2d:
                    7c:05:0b:42:c0:a9:f5:56:95:87:8d:18:90:8a:ad:
                    93:44:81:e0:fc:63:0d:47:75:20:11:c2:c3:a0:2d:
                    db:0c:7e:ab:37:b1:8b:f4:2b:e5:a2:17:38:c9:55:
                    a4:95:eb:d9:2d:6d:88:3d:f4:13:0c:a7:7a:f6:a3:
                    32:56:b0:9a:d0:d7:78:90:bf:fb:4f:bc:b8:7e:c9:
                    a2:b6:68:15:94:ff:ba:46:4f:8f:1f:2c:bc:31:64:
                    3c:0a:19:b5:f8:fc:50:80:ba:7f:98:c0:f2:35:a9:
                    92:88:a6:dd:0a:2f:d2:60:84:64:5c:10:58:a1:b0:
                    2c:9e:18:44:d8:c9:6a:58:ed:3f:73:b8:86:94:e4:
                    3e:79:bb:55:05:d8:ba:82:dc:da:38:92:f3:e6:4d:
                    9e:7c:02:f2:14:dd:3e:f3:7a:74:24:b8:c7:29:02:
                    06:44:1a:77:2f:47:a5:5b:37:3d:37:59:f4:28:1c:
                    7e:6b
                Exponent: 65537 (0x10001)
        X509v3 extensions:
            X509v3 Basic Constraints: 
                CA:FALSE
            X509v3 Subject Key Identifier: 
                B3:73:63:12:E9:BF:26:31:94:DA:91:6A:1D:27:2E:3D:EE:C9:65:AC
            X509v3 Authority Key Identifier: 
                keyid:46:59:9E:56:47:BD:96:D8:46:06:57:BD:F8:39:DA:46:A8:B4:49:B2
                DirName:/CN=team257-net
                serial:65:9B:98:4A:EE:93:0B:E5:EB:EE:0B:49:A8:0F:44:23:6F:23:9A:6D

            X509v3 Extended Key Usage: 
                TLS Web Server Authentication
            X509v3 Key Usage: 
                Digital Signature, Key Encipherment
            X509v3 Subject Alternative Name: 
                DNS:team257-server
    Signature Algorithm: sha256WithRSAEncryption
         c7:d7:aa:50:b8:52:e3:22:71:ed:c8:91:99:ae:54:46:8a:02:
         75:5c:ee:a8:03:4e:80:d8:4e:29:57:23:0f:20:f4:d4:6b:69:
         a1:1a:6d:57:13:a3:ab:ae:0b:e7:05:ab:72:52:80:97:b1:3d:
         0b:1d:85:0d:3f:cc:6f:40:a2:c0:d0:22:ad:f1:bc:d4:11:22:
         8d:99:ce:43:e7:93:6f:15:fb:be:d7:62:72:ea:fc:3c:26:08:
         72:dc:eb:04:03:35:01:d5:33:eb:47:96:2d:0d:c8:a8:25:d4:
         57:c6:96:e5:23:07:18:ff:10:8e:c8:ae:d9:97:f7:26:6a:cb:
         4b:12:d8:07:6b:00:33:4f:eb:5a:d5:30:80:d5:8f:87:67:b2:
         f3:2b:a2:ff:d7:67:16:b0:9f:6e:15:69:ce:e6:43:24:ca:92:
         05:89:74:9f:fa:69:67:3c:4f:48:71:bd:0c:83:9b:6a:90:52:
         2d:35:b7:dc:87:c5:d0:bb:41:41:4d:7a:43:b4:8a:0f:8a:49:
         dd:0c:77:e6:2b:61:4e:fb:55:aa:c5:5f:e4:01:0a:17:10:96:
         a9:7a:99:4c:92:7a:c0:61:87:90:6d:51:af:9d:07:35:2a:0e:
         35:bc:aa:4a:5e:af:aa:4d:31:0b:18:61:45:fc:f5:d0:a3:89:
         3b:47:25:5e
-----BEGIN CERTIFICATE-----
MIIDdzCCAl+gAwIBAgIQJMICTpYdo2kzgaEUgCG/BTANBgkqhkiG9w0BAQsFADAW
MRQwEgYDVQQDDAt0ZWFtMjU3LW5ldDAeFw0yMTA5MTMwMDU1MjdaFw0yNDA4Mjgw
MDU1MjdaMBkxFzAVBgNVBAMMDnRlYW0yNTctc2VydmVyMIIBIjANBgkqhkiG9w0B
AQEFAAOCAQ8AMIIBCgKCAQEA5H4/anTOqFjlyubebKcTnfR1gm512JLz4Z1F/PSN
FuM8QepzsvPF6dOlthaGENNqL9qvDSSAiwYNX5bgxDZ5rFOopTFuq/OVoC18BQtC
wKn1VpWHjRiQiq2TRIHg/GMNR3UgEcLDoC3bDH6rN7GL9Cvlohc4yVWklevZLW2I
PfQTDKd69qMyVrCa0Nd4kL/7T7y4fsmitmgVlP+6Rk+PHyy8MWQ8Chm1+PxQgLp/
mMDyNamSiKbdCi/SYIRkXBBYobAsnhhE2MlqWO0/c7iGlOQ+ebtVBdi6gtzaOJLz
5k2efALyFN0+83p0JLjHKQIGRBp3L0elWzc9N1n0KBx+awIDAQABo4G9MIG6MAkG
A1UdEwQCMAAwHQYDVR0OBBYEFLNzYxLpvyYxlNqRah0nLj3uyWWsMFEGA1UdIwRK
MEiAFEZZnlZHvZbYRgZXvfg52kaotEmyoRqkGDAWMRQwEgYDVQQDDAt0ZWFtMjU3
LW5ldIIUZZuYSu6TC+Xr7gtJqA9EI28jmm0wEwYDVR0lBAwwCgYIKwYBBQUHAwEw
CwYDVR0PBAQDAgWgMBkGA1UdEQQSMBCCDnRlYW0yNTctc2VydmVyMA0GCSqGSIb3
DQEBCwUAA4IBAQDH16pQuFLjInHtyJGZrlRGigJ1XO6oA06A2E4pVyMPIPTUa2mh
Gm1XE6OrrgvnBatyUoCXsT0LHYUNP8xvQKLA0CKt8bzUESKNmc5D55NvFfu+12Jy
6vw8Jghy3OsEAzUB1TPrR5YtDcioJdRXxpblIwcY/xCOyK7Zl/cmastLEtgHawAz
T+ta1TCA1Y+HZ7LzK6L/12cWsJ9uFWnO5kMkypIFiXSf+mlnPE9Icb0Mg5tqkFIt
Nbfch8XQu0FBTXpDtIoPikndDHfmK2FO+1WqxV/kAQoXEJapeplMknrAYYeQbVGv
nQc1Kg41vKpKXq+qTTELGGFF/PXQo4k7RyVe
-----END CERTIFICATE-----
