Certificate:
    Data:
        Version: 3 (0x2)
        Serial Number:
            1f:03:20:ef:33:96:78:b5:cc:5e:84:7c:1d:b2:71:1c
        Signature Algorithm: sha256WithRSAEncryption
        Issuer: CN=team76-net
        Validity
            Not Before: Sep 12 23:22:18 2021 GMT
            Not After : Aug 27 23:22:18 2024 GMT
        Subject: CN=team76-client
        Subject Public Key Info:
            Public Key Algorithm: rsaEncryption
                RSA Public-Key: (2048 bit)
                Modulus:
                    00:a7:32:7b:76:de:86:f1:de:5a:e6:4a:de:0e:bd:
                    02:eb:f2:37:37:52:dd:41:67:db:b2:39:22:bb:78:
                    63:a6:8c:bc:89:17:3d:8f:22:32:60:ac:ed:07:6c:
                    39:e1:8c:e5:2b:14:e6:48:fd:0f:33:0a:2c:f0:d1:
                    ab:67:83:7c:64:81:b4:c8:db:6b:8b:c0:49:b5:68:
                    4c:28:5c:e3:69:e3:3c:f7:db:38:5f:ba:df:df:c6:
                    97:b0:45:d4:67:27:12:4a:dd:ed:fa:96:70:d4:cd:
                    2e:e1:44:1b:16:3d:0b:57:21:61:f1:f9:ec:24:5c:
                    06:91:84:01:dd:62:b8:23:3d:c5:99:3e:3e:30:d2:
                    ce:23:c5:52:da:a7:c0:43:76:68:49:0d:51:a1:f6:
                    bb:1b:f0:de:68:5c:b2:c5:56:a9:89:fe:4c:f8:4b:
                    21:15:ac:08:dc:e8:5b:70:6b:53:61:bf:4c:04:60:
                    ec:eb:4a:75:b4:27:cd:19:83:59:8e:11:72:96:bb:
                    64:a3:ff:26:8d:6c:83:a3:c4:53:7f:55:9c:91:7e:
                    7f:3b:31:2c:09:19:23:08:b3:a3:5a:65:d6:7b:82:
                    b2:76:4e:13:9c:f3:7f:51:54:85:4b:65:5c:e1:7d:
                    6f:9e:64:55:3e:18:df:32:8f:8b:31:13:e6:f7:61:
                    78:a9
                Exponent: 65537 (0x10001)
        X509v3 extensions:
            X509v3 Basic Constraints: 
                CA:FALSE
            X509v3 Subject Key Identifier: 
                69:5F:43:13:A8:92:8B:5E:5A:05:25:8B:FA:80:99:50:EB:37:E6:BB
            X509v3 Authority Key Identifier: 
                keyid:BC:AA:5B:F8:A3:DE:85:24:E9:17:60:FD:D9:6D:3A:F1:09:B6:4F:A4
                DirName:/CN=team76-net
                serial:10:F1:58:EA:F3:45:2A:43:59:67:61:72:55:E3:C9:89:07:1D:48:6D

            X509v3 Extended Key Usage: 
                TLS Web Client Authentication
            X509v3 Key Usage: 
                Digital Signature
    Signature Algorithm: sha256WithRSAEncryption
         a7:de:7d:07:78:e5:aa:8d:8e:07:75:28:29:9f:db:ec:94:ad:
         cd:5c:01:f3:fd:8b:eb:1f:ec:3e:80:40:5b:cb:c0:fa:a3:8d:
         7a:6d:d4:9a:e5:22:29:2f:5c:41:f1:43:e4:07:a1:72:1c:c5:
         a1:97:c5:cc:a8:4f:49:04:94:38:b3:31:24:35:ce:f1:9b:bf:
         05:dc:6f:32:b6:ab:6d:62:70:b5:c6:63:eb:5b:a2:47:ba:2c:
         9e:6d:34:b7:c8:63:0d:41:ad:aa:2d:05:83:02:ad:3d:cd:94:
         f1:2d:9d:3f:de:19:35:92:82:55:31:3e:e5:9f:34:c7:63:bc:
         94:3f:26:e7:ab:0b:4e:9f:b6:7a:81:c3:fe:2b:37:8c:46:f3:
         0b:76:bc:a4:f4:60:df:1f:28:c6:e1:d2:47:13:60:6a:65:fb:
         76:c0:4f:19:bb:c1:42:6d:98:47:98:3f:b7:3b:1f:cf:cd:b1:
         54:18:08:0e:b6:47:13:7e:f8:5e:9a:05:3c:40:e5:ea:cb:bd:
         43:31:f8:b0:ec:2a:36:14:74:64:01:0e:9d:e5:ec:02:fc:4b:
         99:33:22:e1:3e:b6:fa:a8:95:10:f9:35:49:33:b7:16:c9:f2:
         f6:90:a5:b4:f8:91:6b:fb:7c:dc:fd:e0:6e:df:76:83:a4:aa:
         e7:49:97:6f
-----BEGIN CERTIFICATE-----
MIIDWTCCAkGgAwIBAgIQHwMg7zOWeLXMXoR8HbJxHDANBgkqhkiG9w0BAQsFADAV
MRMwEQYDVQQDDAp0ZWFtNzYtbmV0MB4XDTIxMDkxMjIzMjIxOFoXDTI0MDgyNzIz
MjIxOFowGDEWMBQGA1UEAwwNdGVhbTc2LWNsaWVudDCCASIwDQYJKoZIhvcNAQEB
BQADggEPADCCAQoCggEBAKcye3behvHeWuZK3g69AuvyNzdS3UFn27I5Irt4Y6aM
vIkXPY8iMmCs7QdsOeGM5SsU5kj9DzMKLPDRq2eDfGSBtMjba4vASbVoTChc42nj
PPfbOF+639/Gl7BF1GcnEkrd7fqWcNTNLuFEGxY9C1chYfH57CRcBpGEAd1iuCM9
xZk+PjDSziPFUtqnwEN2aEkNUaH2uxvw3mhcssVWqYn+TPhLIRWsCNzoW3BrU2G/
TARg7OtKdbQnzRmDWY4Rcpa7ZKP/Jo1sg6PEU39VnJF+fzsxLAkZIwizo1pl1nuC
snZOE5zzf1FUhUtlXOF9b55kVT4Y3zKPizET5vdheKkCAwEAAaOBoTCBnjAJBgNV
HRMEAjAAMB0GA1UdDgQWBBRpX0MTqJKLXloFJYv6gJlQ6zfmuzBQBgNVHSMESTBH
gBS8qlv4o96FJOkXYP3ZbTrxCbZPpKEZpBcwFTETMBEGA1UEAwwKdGVhbTc2LW5l
dIIUEPFY6vNFKkNZZ2FyVePJiQcdSG0wEwYDVR0lBAwwCgYIKwYBBQUHAwIwCwYD
VR0PBAQDAgeAMA0GCSqGSIb3DQEBCwUAA4IBAQCn3n0HeOWqjY4HdSgpn9vslK3N
XAHz/YvrH+w+gEBby8D6o416bdSa5SIpL1xB8UPkB6FyHMWhl8XMqE9JBJQ4szEk
Nc7xm78F3G8ytqttYnC1xmPrW6JHuiyebTS3yGMNQa2qLQWDAq09zZTxLZ0/3hk1
koJVMT7lnzTHY7yUPybnqwtOn7Z6gcP+KzeMRvMLdryk9GDfHyjG4dJHE2BqZft2
wE8Zu8FCbZhHmD+3Ox/PzbFUGAgOtkcTfvhemgU8QOXqy71DMfiw7Co2FHRkAQ6d
5ewC/EuZMyLhPrb6qJUQ+TVJM7cWyfL2kKW0+JFr+3zc/eBu33aDpKrnSZdv
-----END CERTIFICATE-----
