Certificate:
    Data:
        Version: 3 (0x2)
        Serial Number:
            f3:cf:aa:5b:c5:c8:9c:f5:ee:d1:07:8b:e8:10:66:1e
        Signature Algorithm: sha256WithRSAEncryption
        Issuer: CN=team76-net
        Validity
            Not Before: Sep 12 23:22:19 2021 GMT
            Not After : Aug 27 23:22:19 2024 GMT
        Subject: CN=team76-server
        Subject Public Key Info:
            Public Key Algorithm: rsaEncryption
                RSA Public-Key: (2048 bit)
                Modulus:
                    00:cb:de:19:cc:ee:b4:e4:da:bf:ac:ca:f0:14:69:
                    b5:63:10:24:6a:b5:be:23:2e:f7:4f:25:81:3a:b5:
                    dd:4e:1a:49:4d:f2:8d:69:c0:23:3a:36:63:1e:42:
                    b6:47:7c:dd:38:be:86:62:26:df:4a:ae:c8:d5:f4:
                    ee:88:75:8e:25:0d:80:89:53:cc:79:35:2e:46:ee:
                    d4:e9:d8:eb:d2:e6:62:45:2d:6b:f9:ce:9f:3f:00:
                    8a:2a:62:05:52:0e:a8:8c:12:12:56:60:a1:69:49:
                    24:e9:97:32:a8:0f:a8:c6:be:3f:04:ea:ae:45:c6:
                    03:66:83:b1:32:65:85:f4:9a:d0:25:a8:50:5e:7a:
                    a2:89:be:f0:22:41:fd:07:d1:57:43:06:fa:0b:27:
                    fd:1b:68:4f:68:66:62:4a:92:8d:a0:7e:dc:f4:d0:
                    2b:28:62:e7:0e:d4:63:f7:a3:b9:88:b3:cb:1f:d6:
                    6e:b4:67:ad:3f:03:c7:76:8b:20:45:7b:cb:d3:79:
                    8c:c0:f5:6a:52:7c:8c:eb:42:28:19:3c:93:d7:77:
                    10:ed:e2:bb:1d:4d:b2:4d:61:78:e7:3d:63:2d:09:
                    7c:98:88:b4:3f:6f:13:81:b0:a5:30:c8:a9:e4:dd:
                    36:0f:fd:98:4b:fb:5d:cc:a6:39:15:57:82:a9:8d:
                    f6:79
                Exponent: 65537 (0x10001)
        X509v3 extensions:
            X509v3 Basic Constraints: 
                CA:FALSE
            X509v3 Subject Key Identifier: 
                49:82:19:27:54:B0:B3:F1:E1:41:BA:C3:29:E0:15:7E:1C:FC:12:FD
            X509v3 Authority Key Identifier: 
                keyid:BC:AA:5B:F8:A3:DE:85:24:E9:17:60:FD:D9:6D:3A:F1:09:B6:4F:A4
                DirName:/CN=team76-net
                serial:10:F1:58:EA:F3:45:2A:43:59:67:61:72:55:E3:C9:89:07:1D:48:6D

            X509v3 Extended Key Usage: 
                TLS Web Server Authentication
            X509v3 Key Usage: 
                Digital Signature, Key Encipherment
            X509v3 Subject Alternative Name: 
                DNS:team76-server
    Signature Algorithm: sha256WithRSAEncryption
         b1:25:8c:b8:d2:95:6c:16:ff:2f:d5:07:18:fb:54:a3:92:31:
         93:d9:ea:8a:36:db:3f:cb:bd:7a:14:26:5c:44:2a:b3:e7:b4:
         c2:b4:c7:7e:0d:18:f0:a1:3e:2b:76:61:9c:b1:d5:27:3e:f2:
         40:7e:31:57:5d:2b:f0:1d:48:12:13:92:47:86:1b:d6:bc:67:
         69:1f:0f:60:59:a3:60:aa:fa:27:c9:08:07:7b:af:01:4a:bd:
         fc:9e:52:e5:04:46:e2:7b:60:23:00:7b:c7:0a:ac:1e:7d:b7:
         e9:7a:4e:b4:74:50:fd:ce:79:53:c2:32:02:71:28:4b:ce:16:
         f0:94:f9:82:77:aa:27:c6:d7:45:dc:6d:83:ec:9b:13:74:85:
         17:71:b9:71:5f:32:4b:41:a2:48:f0:6c:a7:85:5d:a0:17:0f:
         84:dc:60:07:c4:f8:f7:27:07:a7:63:25:a5:0b:81:6d:a7:3a:
         10:c1:41:50:6d:fd:f6:95:63:af:ef:c2:56:73:03:e9:b3:ff:
         aa:d6:38:ee:b6:80:9e:35:33:54:0e:14:9c:20:96:ba:c0:ca:
         26:2a:8e:b9:78:18:9a:bd:f5:97:03:e3:e4:91:0d:ce:8c:be:
         56:26:0c:2d:a7:71:4f:94:3d:1c:9f:7c:7b:55:35:eb:4d:31:
         aa:b0:87:3a
-----BEGIN CERTIFICATE-----
MIIDdDCCAlygAwIBAgIRAPPPqlvFyJz17tEHi+gQZh4wDQYJKoZIhvcNAQELBQAw
FTETMBEGA1UEAwwKdGVhbTc2LW5ldDAeFw0yMTA5MTIyMzIyMTlaFw0yNDA4Mjcy
MzIyMTlaMBgxFjAUBgNVBAMMDXRlYW03Ni1zZXJ2ZXIwggEiMA0GCSqGSIb3DQEB
AQUAA4IBDwAwggEKAoIBAQDL3hnM7rTk2r+syvAUabVjECRqtb4jLvdPJYE6td1O
GklN8o1pwCM6NmMeQrZHfN04voZiJt9KrsjV9O6IdY4lDYCJU8x5NS5G7tTp2OvS
5mJFLWv5zp8/AIoqYgVSDqiMEhJWYKFpSSTplzKoD6jGvj8E6q5FxgNmg7EyZYX0
mtAlqFBeeqKJvvAiQf0H0VdDBvoLJ/0baE9oZmJKko2gftz00CsoYucO1GP3o7mI
s8sf1m60Z60/A8d2iyBFe8vTeYzA9WpSfIzrQigZPJPXdxDt4rsdTbJNYXjnPWMt
CXyYiLQ/bxOBsKUwyKnk3TYP/ZhL+13MpjkVV4KpjfZ5AgMBAAGjgbswgbgwCQYD
VR0TBAIwADAdBgNVHQ4EFgQUSYIZJ1Sws/HhQbrDKeAVfhz8Ev0wUAYDVR0jBEkw
R4AUvKpb+KPehSTpF2D92W068Qm2T6ShGaQXMBUxEzARBgNVBAMMCnRlYW03Ni1u
ZXSCFBDxWOrzRSpDWWdhclXjyYkHHUhtMBMGA1UdJQQMMAoGCCsGAQUFBwMBMAsG
A1UdDwQEAwIFoDAYBgNVHREEETAPgg10ZWFtNzYtc2VydmVyMA0GCSqGSIb3DQEB
CwUAA4IBAQCxJYy40pVsFv8v1QcY+1SjkjGT2eqKNts/y716FCZcRCqz57TCtMd+
DRjwoT4rdmGcsdUnPvJAfjFXXSvwHUgSE5JHhhvWvGdpHw9gWaNgqvonyQgHe68B
Sr38nlLlBEbie2AjAHvHCqwefbfpek60dFD9znlTwjICcShLzhbwlPmCd6onxtdF
3G2D7JsTdIUXcblxXzJLQaJI8GynhV2gFw+E3GAHxPj3JwenYyWlC4FtpzoQwUFQ
bf32lWOv78JWcwPps/+q1jjutoCeNTNUDhScIJa6wMomKo65eBiavfWXA+PkkQ3O
jL5WJgwtp3FPlD0cn3x7VTXrTTGqsIc6
-----END CERTIFICATE-----
