Certificate:
    Data:
        Version: 3 (0x2)
        Serial Number:
            73:e0:25:5e:86:8c:8e:77:f2:00:f1:7d:62:6a:46:a3
        Signature Algorithm: sha256WithRSAEncryption
        Issuer: CN=team483-net
        Validity
            Not Before: Sep 13 03:06:58 2021 GMT
            Not After : Aug 28 03:06:58 2024 GMT
        Subject: CN=team483-client
        Subject Public Key Info:
            Public Key Algorithm: rsaEncryption
                RSA Public-Key: (2048 bit)
                Modulus:
                    00:c8:b1:37:e1:33:0d:67:b3:3a:dd:50:b9:4f:4f:
                    77:36:8d:45:90:ce:8a:25:de:40:04:2f:0c:dc:57:
                    c2:fe:9a:bf:52:27:8f:85:20:ec:d4:c9:14:0b:43:
                    cc:ab:f8:b8:78:e0:f6:ce:5c:83:3b:7f:8e:22:f6:
                    23:46:9a:a1:7b:3a:c9:34:78:7c:5b:f1:23:18:9f:
                    1d:f3:6c:10:05:8f:52:f6:4c:10:72:5a:96:dd:5e:
                    ef:27:dc:cb:69:55:5f:66:39:a7:bd:c4:11:3e:00:
                    ca:67:d0:60:d8:64:d0:60:c7:b9:26:42:85:86:50:
                    2e:51:3d:d1:49:44:00:49:28:3c:c4:16:b3:45:d0:
                    f7:97:ca:46:b7:ff:c5:6d:6f:dd:34:c1:66:ac:a9:
                    b5:57:70:21:e7:99:ad:06:f2:0a:70:8a:ad:cd:35:
                    37:20:56:0f:10:29:4a:22:0c:84:27:1e:1f:ef:3c:
                    ec:5d:76:01:02:59:d3:83:72:21:c1:ce:b1:99:25:
                    bb:a1:37:29:40:8a:61:0b:07:b3:ae:80:4d:7f:5e:
                    51:28:dc:44:09:ed:e1:0a:af:12:43:e9:67:f4:07:
                    6b:25:98:f8:5d:51:11:b4:c3:cc:51:24:59:69:01:
                    46:de:06:62:63:ef:0b:f0:77:94:f7:50:f5:96:e3:
                    bb:63
                Exponent: 65537 (0x10001)
        X509v3 extensions:
            X509v3 Basic Constraints: 
                CA:FALSE
            X509v3 Subject Key Identifier: 
                B9:F5:6E:AB:4A:72:6D:D1:60:1C:1F:DA:40:45:87:93:9F:8E:60:2E
            X509v3 Authority Key Identifier: 
                keyid:74:79:7F:D7:0F:03:CA:18:07:F4:07:EE:6E:87:8F:48:B2:FD:A0:0D
                DirName:/CN=team483-net
                serial:4D:A7:35:31:AF:3D:42:B1:34:CC:AD:C7:BE:BB:0B:63:47:70:C0:2F

            X509v3 Extended Key Usage: 
                TLS Web Client Authentication
            X509v3 Key Usage: 
                Digital Signature
    Signature Algorithm: sha256WithRSAEncryption
         87:93:ef:74:43:88:43:37:2a:08:a1:15:fb:86:6c:eb:3c:3a:
         95:d8:35:fa:ee:aa:ab:27:7c:2b:44:e0:e0:f9:85:8b:9c:12:
         f1:d2:b8:45:61:9a:55:e4:f1:c8:ac:7e:fc:d2:5d:f7:1f:30:
         71:54:1f:b2:ae:ac:24:9b:a5:5b:60:39:6a:1b:f4:fe:84:e2:
         e5:64:97:e9:b8:9e:b6:b6:b6:48:34:e0:17:e1:d0:f2:42:a9:
         f4:c3:5f:ad:5f:a4:8d:6c:a9:74:41:b6:51:5b:c8:ff:86:39:
         b6:c4:a4:cb:80:db:32:eb:c0:f4:8c:4c:59:19:07:f9:9d:ca:
         0a:cb:9e:8a:d1:2b:8f:f3:83:79:8c:fc:64:cb:22:3c:4f:77:
         0e:80:c4:c5:f7:8f:70:47:cb:64:9c:3c:45:84:1b:fc:e3:2d:
         c5:d7:9f:42:33:bb:46:b0:aa:be:06:9e:40:ea:a6:38:1d:f8:
         4e:03:34:95:9c:e7:66:71:fb:87:ba:78:a2:f4:af:e1:61:98:
         21:53:8e:88:d2:f2:14:13:a9:b6:cc:91:cd:86:66:fb:99:1d:
         61:a0:86:5d:96:d7:74:48:81:d3:27:51:63:3f:1d:9d:a1:5f:
         6e:57:da:7c:7b:1b:9d:c2:bb:9f:be:79:9c:78:8e:94:a0:56:
         d9:84:ff:c6
-----BEGIN CERTIFICATE-----
MIIDXDCCAkSgAwIBAgIQc+AlXoaMjnfyAPF9YmpGozANBgkqhkiG9w0BAQsFADAW
MRQwEgYDVQQDDAt0ZWFtNDgzLW5ldDAeFw0yMTA5MTMwMzA2NThaFw0yNDA4Mjgw
MzA2NThaMBkxFzAVBgNVBAMMDnRlYW00ODMtY2xpZW50MIIBIjANBgkqhkiG9w0B
AQEFAAOCAQ8AMIIBCgKCAQEAyLE34TMNZ7M63VC5T093No1FkM6KJd5ABC8M3FfC
/pq/UiePhSDs1MkUC0PMq/i4eOD2zlyDO3+OIvYjRpqhezrJNHh8W/EjGJ8d82wQ
BY9S9kwQclqW3V7vJ9zLaVVfZjmnvcQRPgDKZ9Bg2GTQYMe5JkKFhlAuUT3RSUQA
SSg8xBazRdD3l8pGt//FbW/dNMFmrKm1V3Ah55mtBvIKcIqtzTU3IFYPEClKIgyE
Jx4f7zzsXXYBAlnTg3Ihwc6xmSW7oTcpQIphCwezroBNf15RKNxECe3hCq8SQ+ln
9AdrJZj4XVERtMPMUSRZaQFG3gZiY+8L8HeU91D1luO7YwIDAQABo4GiMIGfMAkG
A1UdEwQCMAAwHQYDVR0OBBYEFLn1bqtKcm3RYBwf2kBFh5OfjmAuMFEGA1UdIwRK
MEiAFHR5f9cPA8oYB/QH7m6Hj0iy/aANoRqkGDAWMRQwEgYDVQQDDAt0ZWFtNDgz
LW5ldIIUTac1Ma89QrE0zK3HvrsLY0dwwC8wEwYDVR0lBAwwCgYIKwYBBQUHAwIw
CwYDVR0PBAQDAgeAMA0GCSqGSIb3DQEBCwUAA4IBAQCHk+90Q4hDNyoIoRX7hmzr
PDqV2DX67qqrJ3wrRODg+YWLnBLx0rhFYZpV5PHIrH780l33HzBxVB+yrqwkm6Vb
YDlqG/T+hOLlZJfpuJ62trZINOAX4dDyQqn0w1+tX6SNbKl0QbZRW8j/hjm2xKTL
gNsy68D0jExZGQf5ncoKy56K0SuP84N5jPxkyyI8T3cOgMTF949wR8tknDxFhBv8
4y3F159CM7tGsKq+Bp5A6qY4HfhOAzSVnOdmcfuHunii9K/hYZghU46I0vIUE6m2
zJHNhmb7mR1hoIZdltd0SIHTJ1FjPx2doV9uV9p8exudwrufvnmceI6UoFbZhP/G
-----END CERTIFICATE-----
