Certificate:
    Data:
        Version: 3 (0x2)
        Serial Number:
            b3:9f:a2:d7:a7:48:58:cf:eb:ff:00:2e:4f:f0:84:c4
        Signature Algorithm: sha256WithRSAEncryption
        Issuer: CN=team483-net
        Validity
            Not Before: Sep 13 03:06:59 2021 GMT
            Not After : Aug 28 03:06:59 2024 GMT
        Subject: CN=team483-server
        Subject Public Key Info:
            Public Key Algorithm: rsaEncryption
                RSA Public-Key: (2048 bit)
                Modulus:
                    00:d6:f7:a6:18:e1:fc:8d:fb:2a:ff:fd:c5:6f:82:
                    66:fb:73:8c:aa:54:cc:6f:53:a4:a4:26:d7:2c:d0:
                    a7:6c:54:5a:5a:53:05:12:a5:e9:3e:7c:97:6a:3a:
                    aa:ae:2d:77:12:e2:98:96:de:9f:06:8a:b8:c9:a5:
                    fa:06:40:3d:41:c8:d9:27:72:2b:d6:93:87:a2:29:
                    dc:64:32:c5:54:9d:20:77:aa:7f:56:b0:49:bc:f8:
                    c8:81:5d:44:68:a7:67:33:46:a1:1b:d0:79:4e:f1:
                    90:99:f8:86:9b:d6:87:3b:8b:13:6f:09:ec:3d:56:
                    8e:6c:b0:9a:d1:fc:3f:fc:57:c1:bb:c0:72:24:86:
                    16:0b:f6:72:20:27:fe:3b:ef:d8:8b:66:89:dd:1d:
                    ab:a3:b9:30:e8:e5:d6:24:26:70:c5:08:4e:36:46:
                    8f:a9:a4:2e:51:51:67:8e:db:22:86:9e:2c:09:38:
                    77:54:6f:ac:ab:b3:fa:41:73:d6:43:aa:ca:cd:c8:
                    79:bf:68:16:2d:a6:3c:23:61:9a:41:31:20:3f:7b:
                    46:a1:32:06:22:16:97:d9:cf:63:30:c8:e2:f5:67:
                    ca:b0:40:8f:9a:9b:d8:b0:c1:83:7c:60:d4:0e:25:
                    fa:e1:7f:e0:16:78:9b:81:75:56:75:7f:7f:d4:fc:
                    1c:11
                Exponent: 65537 (0x10001)
        X509v3 extensions:
            X509v3 Basic Constraints: 
                CA:FALSE
            X509v3 Subject Key Identifier: 
                4F:82:AA:FC:99:77:74:68:CE:D4:38:12:95:56:AA:1E:04:1F:25:F2
            X509v3 Authority Key Identifier: 
                keyid:74:79:7F:D7:0F:03:CA:18:07:F4:07:EE:6E:87:8F:48:B2:FD:A0:0D
                DirName:/CN=team483-net
                serial:4D:A7:35:31:AF:3D:42:B1:34:CC:AD:C7:BE:BB:0B:63:47:70:C0:2F

            X509v3 Extended Key Usage: 
                TLS Web Server Authentication
            X509v3 Key Usage: 
                Digital Signature, Key Encipherment
            X509v3 Subject Alternative Name: 
                DNS:team483-server
    Signature Algorithm: sha256WithRSAEncryption
         8a:4a:c7:c5:38:ed:93:cc:6c:81:c9:5f:54:c3:e6:c2:c5:69:
         db:7a:ce:42:6b:e8:ba:ed:21:55:e9:14:d7:11:d7:ec:30:f3:
         2d:46:2f:f3:dd:4c:46:9b:e5:90:b0:b5:e6:00:5d:fd:68:a4:
         32:ca:9f:31:d7:84:34:b0:73:40:c7:4a:2e:2a:ee:2d:9a:1a:
         2e:1c:29:0a:b4:24:5a:4e:3d:8d:06:ee:67:a4:de:85:9e:3c:
         e6:e0:fa:b9:06:ee:94:8c:99:7e:6e:e8:42:33:3e:5e:f9:08:
         81:87:c2:99:50:1c:69:4e:b7:4c:bc:29:89:ee:86:c0:01:f4:
         b3:21:64:38:9b:c2:60:c1:3e:5f:e9:8c:e9:96:9a:74:6f:91:
         f5:84:91:c9:fd:c9:6a:c5:55:49:f3:9a:c5:35:88:70:81:7a:
         98:40:aa:f8:87:fc:e0:0e:c2:d0:bb:9f:cb:5e:3f:4f:c4:6b:
         7b:2e:98:2d:52:e6:fe:6a:22:75:3e:f9:c2:da:3a:f9:68:6a:
         2f:95:35:17:b7:8f:95:95:cf:21:21:19:56:d3:7c:0b:d6:84:
         f1:ac:f3:18:e4:40:34:80:72:b7:ba:22:71:3e:16:90:f4:4f:
         eb:76:d0:d9:63:0a:57:60:d2:e1:b1:82:77:03:e0:e8:0e:33:
         4d:a4:1f:20
-----BEGIN CERTIFICATE-----
MIIDeDCCAmCgAwIBAgIRALOfotenSFjP6/8ALk/whMQwDQYJKoZIhvcNAQELBQAw
FjEUMBIGA1UEAwwLdGVhbTQ4My1uZXQwHhcNMjEwOTEzMDMwNjU5WhcNMjQwODI4
MDMwNjU5WjAZMRcwFQYDVQQDDA50ZWFtNDgzLXNlcnZlcjCCASIwDQYJKoZIhvcN
AQEBBQADggEPADCCAQoCggEBANb3phjh/I37Kv/9xW+CZvtzjKpUzG9TpKQm1yzQ
p2xUWlpTBRKl6T58l2o6qq4tdxLimJbenwaKuMml+gZAPUHI2SdyK9aTh6Ip3GQy
xVSdIHeqf1awSbz4yIFdRGinZzNGoRvQeU7xkJn4hpvWhzuLE28J7D1WjmywmtH8
P/xXwbvAciSGFgv2ciAn/jvv2Itmid0dq6O5MOjl1iQmcMUITjZGj6mkLlFRZ47b
IoaeLAk4d1RvrKuz+kFz1kOqys3Ieb9oFi2mPCNhmkExID97RqEyBiIWl9nPYzDI
4vVnyrBAj5qb2LDBg3xg1A4l+uF/4BZ4m4F1VnV/f9T8HBECAwEAAaOBvTCBujAJ
BgNVHRMEAjAAMB0GA1UdDgQWBBRPgqr8mXd0aM7UOBKVVqoeBB8l8jBRBgNVHSME
SjBIgBR0eX/XDwPKGAf0B+5uh49Isv2gDaEapBgwFjEUMBIGA1UEAwwLdGVhbTQ4
My1uZXSCFE2nNTGvPUKxNMytx767C2NHcMAvMBMGA1UdJQQMMAoGCCsGAQUFBwMB
MAsGA1UdDwQEAwIFoDAZBgNVHREEEjAQgg50ZWFtNDgzLXNlcnZlcjANBgkqhkiG
9w0BAQsFAAOCAQEAikrHxTjtk8xsgclfVMPmwsVp23rOQmvouu0hVekU1xHX7DDz
LUYv891MRpvlkLC15gBd/WikMsqfMdeENLBzQMdKLiruLZoaLhwpCrQkWk49jQbu
Z6TehZ485uD6uQbulIyZfm7oQjM+XvkIgYfCmVAcaU63TLwpie6GwAH0syFkOJvC
YME+X+mM6ZaadG+R9YSRyf3JasVVSfOaxTWIcIF6mECq+If84A7C0Lufy14/T8Rr
ey6YLVLm/moidT75wto6+WhqL5U1F7ePlZXPISEZVtN8C9aE8azzGORANIByt7oi
cT4WkPRP63bQ2WMKV2DS4bGCdwPg6A4zTaQfIA==
-----END CERTIFICATE-----
