Certificate:
    Data:
        Version: 3 (0x2)
        Serial Number:
            db:68:ae:bc:de:25:22:62:74:ce:cd:b7:d8:ce:c0:bf
        Signature Algorithm: sha256WithRSAEncryption
        Issuer: CN=team362-net
        Validity
            Not Before: Sep 13 02:01:35 2021 GMT
            Not After : Aug 28 02:01:35 2024 GMT
        Subject: CN=team362-client
        Subject Public Key Info:
            Public Key Algorithm: rsaEncryption
                RSA Public-Key: (2048 bit)
                Modulus:
                    00:a8:0f:65:fa:36:f8:1e:27:ad:37:e7:1f:5f:35:
                    70:37:d3:6f:c4:a9:48:e9:91:db:f8:f8:83:ac:2c:
                    d2:8b:5a:83:74:23:13:e5:06:93:e0:bc:b1:1d:f6:
                    a5:07:32:dd:18:3f:4b:b0:bd:80:2d:4c:4c:65:89:
                    96:a5:e1:c8:19:ce:c5:1a:61:44:43:73:2e:23:08:
                    ce:5f:3b:11:69:a3:09:a1:31:df:de:1b:77:7c:3a:
                    73:84:a6:37:ad:6d:a9:11:c8:fb:d0:9a:92:d9:f5:
                    dd:37:dd:32:ac:a5:1a:e8:ce:82:58:bc:0a:0a:42:
                    ef:2e:11:91:24:db:af:f8:4b:ce:9d:11:76:d9:65:
                    a9:59:98:82:f6:c9:97:86:0e:e0:84:2e:d7:9f:d5:
                    46:48:70:e2:a6:ba:cc:69:a3:ea:94:7c:97:fc:90:
                    39:c2:d8:97:56:47:9e:3b:67:07:00:88:52:56:c1:
                    07:bb:07:07:4b:58:7c:24:04:6b:17:ce:8a:11:9a:
                    f8:9a:ed:bb:07:bb:3d:7d:16:fb:90:94:9a:78:b7:
                    1a:1f:1d:d5:5a:4b:4f:36:81:01:6a:ea:f4:08:93:
                    29:ab:5e:1d:27:a8:d4:3b:6f:46:2a:11:42:ab:d1:
                    7f:57:72:3b:83:23:62:bf:33:8f:00:29:7b:7f:fa:
                    28:b1
                Exponent: 65537 (0x10001)
        X509v3 extensions:
            X509v3 Basic Constraints: 
                CA:FALSE
            X509v3 Subject Key Identifier: 
                BC:7A:51:48:67:12:33:84:DB:22:D8:DD:92:8A:55:D1:60:02:A7:09
            X509v3 Authority Key Identifier: 
                keyid:E4:08:86:85:C9:79:7F:C2:92:3C:8C:4B:53:34:71:F8:3A:CE:4E:90
                DirName:/CN=team362-net
                serial:49:61:DD:0F:8A:7D:68:77:94:1A:A4:F3:C7:D7:54:F6:0B:E5:66:47

            X509v3 Extended Key Usage: 
                TLS Web Client Authentication
            X509v3 Key Usage: 
                Digital Signature
    Signature Algorithm: sha256WithRSAEncryption
         13:18:61:e8:55:f8:92:0f:ab:ff:0c:8e:11:66:b1:57:d6:80:
         63:e4:b6:ce:0a:34:05:5a:8a:7c:4e:87:a8:09:24:51:18:0b:
         f1:7c:1b:83:e6:0a:57:d2:68:c0:ec:6f:93:cf:cc:c4:b5:a5:
         51:61:55:b8:7c:18:d1:c2:d3:1e:e9:ee:8f:2e:11:8a:81:87:
         45:23:fd:0c:d4:54:e2:52:13:ef:0b:e4:70:01:be:a7:d8:06:
         a0:2e:a5:b5:1b:13:3b:55:cf:d5:11:59:d2:50:05:c8:a8:08:
         76:f1:8e:c5:b1:3c:f2:f2:a4:a5:c2:1a:53:de:3b:18:0d:b9:
         e3:95:89:e5:83:6b:ce:31:1d:ac:a5:89:d8:c3:56:a8:e3:4a:
         fc:3b:8b:30:b9:ef:b0:46:19:52:0f:b6:fd:40:79:42:3a:96:
         cb:ab:8d:08:c2:7c:49:47:43:c7:fd:e2:de:f3:71:9d:b2:03:
         b2:28:b0:94:b2:21:e9:a4:15:ca:cd:88:e3:ff:2a:29:ce:24:
         cd:86:45:c8:a2:47:22:8a:3e:20:fa:ba:d0:ad:e3:ef:42:54:
         34:74:39:3f:f7:4b:27:c0:b4:5b:7f:c7:4d:73:78:41:30:9e:
         fc:97:b7:11:7f:8c:d3:21:30:98:18:be:1f:07:2e:a3:2d:a9:
         c3:3f:82:c3
-----BEGIN CERTIFICATE-----
MIIDXTCCAkWgAwIBAgIRANtorrzeJSJidM7Nt9jOwL8wDQYJKoZIhvcNAQELBQAw
FjEUMBIGA1UEAwwLdGVhbTM2Mi1uZXQwHhcNMjEwOTEzMDIwMTM1WhcNMjQwODI4
MDIwMTM1WjAZMRcwFQYDVQQDDA50ZWFtMzYyLWNsaWVudDCCASIwDQYJKoZIhvcN
AQEBBQADggEPADCCAQoCggEBAKgPZfo2+B4nrTfnH181cDfTb8SpSOmR2/j4g6ws
0otag3QjE+UGk+C8sR32pQcy3Rg/S7C9gC1MTGWJlqXhyBnOxRphRENzLiMIzl87
EWmjCaEx394bd3w6c4SmN61tqRHI+9Caktn13TfdMqylGujOgli8CgpC7y4RkSTb
r/hLzp0RdtllqVmYgvbJl4YO4IQu15/VRkhw4qa6zGmj6pR8l/yQOcLYl1ZHnjtn
BwCIUlbBB7sHB0tYfCQEaxfOihGa+Jrtuwe7PX0W+5CUmni3Gh8d1VpLTzaBAWrq
9AiTKateHSeo1DtvRioRQqvRf1dyO4MjYr8zjwApe3/6KLECAwEAAaOBojCBnzAJ
BgNVHRMEAjAAMB0GA1UdDgQWBBS8elFIZxIzhNsi2N2SilXRYAKnCTBRBgNVHSME
SjBIgBTkCIaFyXl/wpI8jEtTNHH4Os5OkKEapBgwFjEUMBIGA1UEAwwLdGVhbTM2
Mi1uZXSCFElh3Q+KfWh3lBqk88fXVPYL5WZHMBMGA1UdJQQMMAoGCCsGAQUFBwMC
MAsGA1UdDwQEAwIHgDANBgkqhkiG9w0BAQsFAAOCAQEAExhh6FX4kg+r/wyOEWax
V9aAY+S2zgo0BVqKfE6HqAkkURgL8Xwbg+YKV9JowOxvk8/MxLWlUWFVuHwY0cLT
Hunujy4RioGHRSP9DNRU4lIT7wvkcAG+p9gGoC6ltRsTO1XP1RFZ0lAFyKgIdvGO
xbE88vKkpcIaU947GA2545WJ5YNrzjEdrKWJ2MNWqONK/DuLMLnvsEYZUg+2/UB5
QjqWy6uNCMJ8SUdDx/3i3vNxnbIDsiiwlLIh6aQVys2I4/8qKc4kzYZFyKJHIoo+
IPq60K3j70JUNHQ5P/dLJ8C0W3/HTXN4QTCe/Je3EX+M0yEwmBi+Hwcuoy2pwz+C
ww==
-----END CERTIFICATE-----
