Certificate:
    Data:
        Version: 3 (0x2)
        Serial Number:
            97:fe:d9:be:ba:43:a8:f6:72:67:a2:18:b5:10:97:86
        Signature Algorithm: sha256WithRSAEncryption
        Issuer: CN=team599-net
        Validity
            Not Before: Sep 13 04:15:34 2021 GMT
            Not After : Aug 28 04:15:34 2024 GMT
        Subject: CN=team599-server
        Subject Public Key Info:
            Public Key Algorithm: rsaEncryption
                RSA Public-Key: (2048 bit)
                Modulus:
                    00:ba:bf:34:ab:38:05:1d:ed:86:43:59:b0:a5:1a:
                    ff:28:1d:14:fa:42:98:9f:16:de:c9:a7:cd:0e:d1:
                    1c:f7:d1:82:e7:aa:ed:1b:68:66:a2:a5:c7:75:35:
                    3f:54:0f:6d:4a:31:22:fc:dd:9e:30:aa:0b:a8:8e:
                    db:7b:88:4f:b8:a7:d5:e8:87:a9:0c:f9:06:42:3c:
                    40:8f:3d:fe:72:c7:8f:bb:32:77:41:27:41:c7:28:
                    66:24:95:ba:ef:68:2d:a4:1a:6f:4b:cf:2b:54:fe:
                    41:e4:08:9a:71:29:7e:d2:37:fc:77:51:19:f6:12:
                    67:ae:a9:27:26:b0:c2:35:3b:5c:0c:9b:88:b6:be:
                    48:3e:ad:a4:a5:5d:c4:67:bf:5f:97:7c:48:e5:c2:
                    bb:4b:80:ae:f3:6c:0f:6f:c5:0a:04:92:92:de:11:
                    a7:83:a9:ab:30:05:f3:f2:a5:86:ec:86:06:fb:d8:
                    b6:49:7c:01:ed:02:21:a5:f5:a7:aa:92:4e:e9:fd:
                    63:2c:6a:01:e4:73:04:45:84:a4:2a:87:59:39:6a:
                    5a:20:42:64:09:11:07:96:79:d3:b3:b8:04:5a:29:
                    86:62:9d:cb:3c:a2:e5:c3:3f:5e:6c:48:e6:ba:c7:
                    af:9a:b8:44:3e:80:72:c4:b0:d2:b1:5d:9c:0e:20:
                    ba:d1
                Exponent: 65537 (0x10001)
        X509v3 extensions:
            X509v3 Basic Constraints: 
                CA:FALSE
            X509v3 Subject Key Identifier: 
                24:1E:C6:5A:73:94:05:B8:E6:7D:3B:30:F3:5D:94:3C:50:65:E2:C1
            X509v3 Authority Key Identifier: 
                keyid:01:F9:FC:4C:07:8A:73:0A:B0:4E:1C:10:90:EB:FA:0E:B2:44:B0:0F
                DirName:/CN=team599-net
                serial:44:F2:ED:D3:C3:0D:BF:6D:63:B7:A5:3F:4C:7A:0F:2B:E5:D6:93:C3

            X509v3 Extended Key Usage: 
                TLS Web Server Authentication
            X509v3 Key Usage: 
                Digital Signature, Key Encipherment
            X509v3 Subject Alternative Name: 
                DNS:team599-server
    Signature Algorithm: sha256WithRSAEncryption
         43:84:22:9b:67:ad:6a:0f:35:f2:ac:21:71:b2:c0:72:e9:2b:
         01:b9:c6:bb:3d:49:b7:e9:5e:80:1f:ad:1b:93:92:dd:48:85:
         b8:61:9b:e7:1d:0f:35:80:94:3e:24:f9:25:c2:b6:9e:42:dc:
         c2:7e:17:d1:7a:aa:06:33:fb:f9:11:89:50:fb:d2:8a:4a:d9:
         70:01:ea:f7:df:86:20:5f:d3:ec:04:ca:aa:9b:ef:7b:bf:7a:
         4a:80:92:80:7f:d2:1b:b1:3c:57:dc:b1:8e:1d:2b:e3:e3:7f:
         ae:a5:68:1f:08:26:c1:2d:c9:a6:ea:0c:b9:cf:57:c1:33:1a:
         40:7f:2e:91:3e:11:32:f2:ee:44:c5:53:74:8e:f6:2b:11:b1:
         77:4a:26:3c:be:fc:9e:01:c4:7a:6f:b5:54:7c:a0:65:56:1b:
         16:ad:c7:a1:77:fc:ad:06:5e:f5:d0:37:d6:c2:58:f0:6c:e7:
         e8:85:1a:b7:3e:67:c3:16:55:c9:13:2b:45:0f:cf:4b:0d:5f:
         c4:a3:44:ad:65:b1:ed:3f:52:67:cd:34:29:1b:67:27:a5:45:
         d0:1a:3f:43:a6:f3:d3:b6:37:cb:b8:45:62:96:cf:f9:47:d1:
         8a:f9:73:0c:03:fc:35:a2:a9:b1:99:32:32:50:79:33:03:9c:
         57:31:82:9f
-----BEGIN CERTIFICATE-----
MIIDeDCCAmCgAwIBAgIRAJf+2b66Q6j2cmeiGLUQl4YwDQYJKoZIhvcNAQELBQAw
FjEUMBIGA1UEAwwLdGVhbTU5OS1uZXQwHhcNMjEwOTEzMDQxNTM0WhcNMjQwODI4
MDQxNTM0WjAZMRcwFQYDVQQDDA50ZWFtNTk5LXNlcnZlcjCCASIwDQYJKoZIhvcN
AQEBBQADggEPADCCAQoCggEBALq/NKs4BR3thkNZsKUa/ygdFPpCmJ8W3smnzQ7R
HPfRgueq7RtoZqKlx3U1P1QPbUoxIvzdnjCqC6iO23uIT7in1eiHqQz5BkI8QI89
/nLHj7syd0EnQccoZiSVuu9oLaQab0vPK1T+QeQImnEpftI3/HdRGfYSZ66pJyaw
wjU7XAybiLa+SD6tpKVdxGe/X5d8SOXCu0uArvNsD2/FCgSSkt4Rp4OpqzAF8/Kl
huyGBvvYtkl8Ae0CIaX1p6qSTun9YyxqAeRzBEWEpCqHWTlqWiBCZAkRB5Z507O4
BFophmKdyzyi5cM/XmxI5rrHr5q4RD6AcsSw0rFdnA4gutECAwEAAaOBvTCBujAJ
BgNVHRMEAjAAMB0GA1UdDgQWBBQkHsZac5QFuOZ9OzDzXZQ8UGXiwTBRBgNVHSME
SjBIgBQB+fxMB4pzCrBOHBCQ6/oOskSwD6EapBgwFjEUMBIGA1UEAwwLdGVhbTU5
OS1uZXSCFETy7dPDDb9tY7elP0x6Dyvl1pPDMBMGA1UdJQQMMAoGCCsGAQUFBwMB
MAsGA1UdDwQEAwIFoDAZBgNVHREEEjAQgg50ZWFtNTk5LXNlcnZlcjANBgkqhkiG
9w0BAQsFAAOCAQEAQ4Qim2etag818qwhcbLAcukrAbnGuz1Jt+legB+tG5OS3UiF
uGGb5x0PNYCUPiT5JcK2nkLcwn4X0XqqBjP7+RGJUPvSikrZcAHq99+GIF/T7ATK
qpvve796SoCSgH/SG7E8V9yxjh0r4+N/rqVoHwgmwS3JpuoMuc9XwTMaQH8ukT4R
MvLuRMVTdI72KxGxd0omPL78ngHEem+1VHygZVYbFq3HoXf8rQZe9dA31sJY8Gzn
6IUatz5nwxZVyRMrRQ/PSw1fxKNErWWx7T9SZ800KRtnJ6VF0Bo/Q6bz07Y3y7hF
YpbP+UfRivlzDAP8NaKpsZkyMlB5MwOcVzGCnw==
-----END CERTIFICATE-----
