Certificate:
    Data:
        Version: 3 (0x2)
        Serial Number:
            b0:dd:7b:f1:68:2f:a3:36:3b:e4:a9:18:4a:0c:c2:b4
        Signature Algorithm: sha256WithRSAEncryption
        Issuer: CN=team735-net
        Validity
            Not Before: Sep 13 05:04:57 2021 GMT
            Not After : Aug 28 05:04:57 2024 GMT
        Subject: CN=team735-server
        Subject Public Key Info:
            Public Key Algorithm: rsaEncryption
                RSA Public-Key: (2048 bit)
                Modulus:
                    00:b3:5b:06:b8:c7:d9:b6:6f:ed:99:22:9f:57:6a:
                    87:24:bb:1b:e8:95:09:81:bf:1f:3e:f7:f4:a5:04:
                    04:84:d6:5c:76:86:cf:8b:39:74:59:f3:98:53:eb:
                    77:8f:20:33:58:8e:ec:07:b4:a6:52:5f:99:88:59:
                    92:67:5b:02:ee:05:32:ea:33:17:db:b7:c3:4d:f5:
                    43:eb:62:a6:03:02:eb:b6:5a:ba:79:79:08:82:30:
                    fb:df:b9:47:9e:a3:99:26:d5:db:07:38:65:9a:fb:
                    01:89:48:f9:45:a1:e3:e0:79:18:f8:46:d9:63:bb:
                    78:45:4a:01:03:b8:7e:b9:a2:c8:61:cf:83:c8:f6:
                    7d:a5:b8:34:9f:c8:6f:4a:1a:29:3a:8c:8f:23:07:
                    45:d8:32:71:15:df:ba:bf:e8:e1:19:15:72:de:45:
                    a2:72:9f:f0:bd:4e:f4:ba:a2:94:5e:31:72:a0:fa:
                    43:96:13:02:b7:ef:96:63:80:11:f8:af:da:24:2f:
                    fa:0e:91:d5:07:5e:1b:28:21:3c:13:f9:a4:fe:71:
                    2f:93:9c:a9:cd:2c:cb:4f:a6:f2:68:57:a0:2b:38:
                    7a:19:76:01:78:15:16:fe:d2:0b:26:07:72:69:da:
                    29:ad:03:03:1f:00:fe:b0:d5:01:0c:01:51:fd:fe:
                    12:9f
                Exponent: 65537 (0x10001)
        X509v3 extensions:
            X509v3 Basic Constraints: 
                CA:FALSE
            X509v3 Subject Key Identifier: 
                F3:8A:1B:F6:84:BE:F1:00:48:B8:9C:EB:EA:53:4F:BB:2C:8A:EB:29
            X509v3 Authority Key Identifier: 
                keyid:BA:A5:9F:B4:BD:14:4D:EE:64:91:36:AF:10:51:D4:59:E8:AA:91:E4
                DirName:/CN=team735-net
                serial:27:18:1B:6A:C6:B6:43:EC:67:F1:C0:BD:69:E1:33:18:C8:AF:2A:AA

            X509v3 Extended Key Usage: 
                TLS Web Server Authentication
            X509v3 Key Usage: 
                Digital Signature, Key Encipherment
            X509v3 Subject Alternative Name: 
                DNS:team735-server
    Signature Algorithm: sha256WithRSAEncryption
         b7:75:fd:00:38:0d:40:89:97:77:6b:c1:37:c8:2d:a7:91:1c:
         8a:a0:6e:65:06:20:d2:bd:45:5b:b4:01:1a:b7:c0:cb:90:d0:
         30:b9:c0:40:dc:a5:94:ff:15:15:e9:8c:0d:73:1e:ff:74:f8:
         74:54:2a:d8:52:18:06:e7:f6:3d:3e:2e:a1:59:fe:d8:6e:21:
         bb:3c:b9:c4:52:8d:27:59:41:20:85:7e:41:3b:e7:47:77:1b:
         9c:93:45:52:41:14:b4:4e:b6:87:78:55:f8:c1:80:99:43:26:
         77:4c:c8:8a:0c:1f:8a:32:7d:cd:8c:11:3f:51:9f:fe:c2:aa:
         e6:4b:a7:c7:1b:19:b5:35:f4:9b:f1:fe:c8:23:6a:1e:28:83:
         05:43:5d:88:a5:34:4c:cf:52:1c:03:85:42:3a:62:4a:23:17:
         be:a6:51:84:33:6c:b1:8b:a3:ab:a5:76:59:b0:c4:e9:12:04:
         fa:8d:29:18:86:a9:ce:15:c4:c7:75:66:e3:de:8d:d0:c6:c7:
         41:05:48:f2:41:84:e9:ff:2c:d5:0a:4f:26:8f:64:7b:ec:00:
         78:d7:f9:e8:ee:50:2c:6f:fe:44:49:75:3b:d4:87:c1:48:4d:
         10:b6:8a:39:f7:f5:64:80:09:79:48:e3:50:0e:5a:e1:01:b4:
         bf:44:30:59
-----BEGIN CERTIFICATE-----
MIIDeDCCAmCgAwIBAgIRALDde/FoL6M2O+SpGEoMwrQwDQYJKoZIhvcNAQELBQAw
FjEUMBIGA1UEAwwLdGVhbTczNS1uZXQwHhcNMjEwOTEzMDUwNDU3WhcNMjQwODI4
MDUwNDU3WjAZMRcwFQYDVQQDDA50ZWFtNzM1LXNlcnZlcjCCASIwDQYJKoZIhvcN
AQEBBQADggEPADCCAQoCggEBALNbBrjH2bZv7Zkin1dqhyS7G+iVCYG/Hz739KUE
BITWXHaGz4s5dFnzmFPrd48gM1iO7Ae0plJfmYhZkmdbAu4FMuozF9u3w031Q+ti
pgMC67Zaunl5CIIw+9+5R56jmSbV2wc4ZZr7AYlI+UWh4+B5GPhG2WO7eEVKAQO4
frmiyGHPg8j2faW4NJ/Ib0oaKTqMjyMHRdgycRXfur/o4RkVct5FonKf8L1O9Lqi
lF4xcqD6Q5YTArfvlmOAEfiv2iQv+g6R1QdeGyghPBP5pP5xL5Ocqc0sy0+m8mhX
oCs4ehl2AXgVFv7SCyYHcmnaKa0DAx8A/rDVAQwBUf3+Ep8CAwEAAaOBvTCBujAJ
BgNVHRMEAjAAMB0GA1UdDgQWBBTzihv2hL7xAEi4nOvqU0+7LIrrKTBRBgNVHSME
SjBIgBS6pZ+0vRRN7mSRNq8QUdRZ6KqR5KEapBgwFjEUMBIGA1UEAwwLdGVhbTcz
NS1uZXSCFCcYG2rGtkPsZ/HAvWnhMxjIryqqMBMGA1UdJQQMMAoGCCsGAQUFBwMB
MAsGA1UdDwQEAwIFoDAZBgNVHREEEjAQgg50ZWFtNzM1LXNlcnZlcjANBgkqhkiG
9w0BAQsFAAOCAQEAt3X9ADgNQImXd2vBN8gtp5EciqBuZQYg0r1FW7QBGrfAy5DQ
MLnAQNyllP8VFemMDXMe/3T4dFQq2FIYBuf2PT4uoVn+2G4huzy5xFKNJ1lBIIV+
QTvnR3cbnJNFUkEUtE62h3hV+MGAmUMmd0zIigwfijJ9zYwRP1Gf/sKq5kunxxsZ
tTX0m/H+yCNqHiiDBUNdiKU0TM9SHAOFQjpiSiMXvqZRhDNssYujq6V2WbDE6RIE
+o0pGIapzhXEx3Vm496N0MbHQQVI8kGE6f8s1QpPJo9ke+wAeNf56O5QLG/+REl1
O9SHwUhNELaKOff1ZIAJeUjjUA5a4QG0v0QwWQ==
-----END CERTIFICATE-----
