Certificate:
    Data:
        Version: 3 (0x2)
        Serial Number:
            1b:b4:db:e1:a0:34:5b:76:43:83:19:85:da:f5:7c:5d
        Signature Algorithm: sha256WithRSAEncryption
        Issuer: CN=team560-net
        Validity
            Not Before: Sep 13 03:36:53 2021 GMT
            Not After : Aug 28 03:36:53 2024 GMT
        Subject: CN=team560-server
        Subject Public Key Info:
            Public Key Algorithm: rsaEncryption
                RSA Public-Key: (2048 bit)
                Modulus:
                    00:bc:77:ae:14:fc:00:ed:07:8b:1e:92:6c:ef:ab:
                    ac:43:3b:89:fe:65:0c:08:c3:2b:5b:f9:cc:d7:32:
                    95:43:70:c5:e3:85:d5:d6:e1:fe:f3:7e:1e:f9:29:
                    8e:1f:4c:b2:7e:59:34:fd:1c:ad:45:81:30:d2:fc:
                    45:04:d3:3d:b6:af:0e:53:65:89:d3:7e:55:c2:b8:
                    00:9f:81:7d:fc:df:2f:f0:1e:ad:31:45:45:64:d3:
                    34:21:56:03:14:7b:1c:8e:98:9f:b1:21:c1:35:9f:
                    35:cf:ce:9f:a4:14:9b:3a:63:42:15:9d:71:72:fd:
                    f6:93:a4:0a:99:54:e3:1f:7c:29:18:da:f3:a9:ab:
                    f9:88:af:01:61:f9:b2:1e:dd:4a:41:04:ee:fd:12:
                    ba:df:87:40:55:72:5a:46:c0:c7:26:a2:1c:98:fc:
                    6c:df:3c:58:a9:96:32:0b:a4:06:8f:13:6b:ae:58:
                    e7:11:fc:21:33:1d:97:38:6f:4b:e4:01:ae:0e:ff:
                    07:b2:80:3f:42:ce:cc:ee:c2:93:e3:0f:4b:38:29:
                    0f:bc:da:74:23:69:f5:7a:26:04:30:d3:03:1a:46:
                    40:a4:b4:55:2d:1a:fd:75:e6:52:55:8a:77:db:e8:
                    21:43:73:45:70:02:d0:89:cd:37:82:75:ec:28:a2:
                    d9:13
                Exponent: 65537 (0x10001)
        X509v3 extensions:
            X509v3 Basic Constraints: 
                CA:FALSE
            X509v3 Subject Key Identifier: 
                F2:40:3C:A5:72:11:6E:74:7B:9A:D8:F5:F5:71:33:9C:DE:03:00:58
            X509v3 Authority Key Identifier: 
                keyid:E7:68:16:1F:63:77:C1:85:4D:22:2A:85:A0:51:01:D2:C2:67:12:6B
                DirName:/CN=team560-net
                serial:11:EC:51:C4:94:4A:2D:D0:5D:BD:0C:18:4A:96:17:F1:67:06:EF:D5

            X509v3 Extended Key Usage: 
                TLS Web Server Authentication
            X509v3 Key Usage: 
                Digital Signature, Key Encipherment
            X509v3 Subject Alternative Name: 
                DNS:team560-server
    Signature Algorithm: sha256WithRSAEncryption
         10:cd:a5:3e:8d:36:7b:f5:fa:55:f6:a6:14:f0:0d:25:4e:64:
         be:53:45:fe:91:82:7e:99:ca:a3:e5:15:92:37:03:f9:f4:57:
         c1:8a:1a:32:ea:5c:2e:2a:81:51:01:9f:44:ef:03:12:fc:e4:
         00:37:aa:c6:92:1a:66:12:29:9b:81:a1:4f:ab:8e:bc:d4:ea:
         0c:63:9b:a1:a9:ef:f1:87:3b:4c:94:f0:55:a5:3a:bf:67:2d:
         ee:97:47:f9:95:dc:26:dd:1b:9e:26:fd:77:db:60:e9:f3:28:
         6b:af:24:b4:44:7f:36:27:6f:60:43:b3:49:c5:34:e1:1a:94:
         26:99:70:50:9f:40:08:03:55:c2:54:ca:bb:08:2a:7d:8d:a2:
         ab:db:88:ee:1d:5e:42:c2:fa:d8:cc:11:f3:f9:62:fc:e4:ae:
         9d:dd:34:b8:47:c1:e5:6c:8f:51:03:74:2e:dc:43:57:c3:57:
         b2:e1:bb:29:9c:1f:8f:9e:c8:f9:c9:03:1f:63:7f:f2:0f:c0:
         82:b1:44:ff:8c:87:32:85:6a:b5:b3:75:5a:a6:4a:59:51:2b:
         d5:14:df:62:ec:3a:65:56:73:92:f1:52:5e:63:7b:50:4b:07:
         0b:27:4f:a4:c7:f3:d1:f0:bb:85:c3:5f:38:2b:92:43:0d:ba:
         12:78:56:ad
-----BEGIN CERTIFICATE-----
MIIDdzCCAl+gAwIBAgIQG7Tb4aA0W3ZDgxmF2vV8XTANBgkqhkiG9w0BAQsFADAW
MRQwEgYDVQQDDAt0ZWFtNTYwLW5ldDAeFw0yMTA5MTMwMzM2NTNaFw0yNDA4Mjgw
MzM2NTNaMBkxFzAVBgNVBAMMDnRlYW01NjAtc2VydmVyMIIBIjANBgkqhkiG9w0B
AQEFAAOCAQ8AMIIBCgKCAQEAvHeuFPwA7QeLHpJs76usQzuJ/mUMCMMrW/nM1zKV
Q3DF44XV1uH+834e+SmOH0yyflk0/RytRYEw0vxFBNM9tq8OU2WJ035VwrgAn4F9
/N8v8B6tMUVFZNM0IVYDFHscjpifsSHBNZ81z86fpBSbOmNCFZ1xcv32k6QKmVTj
H3wpGNrzqav5iK8BYfmyHt1KQQTu/RK634dAVXJaRsDHJqIcmPxs3zxYqZYyC6QG
jxNrrljnEfwhMx2XOG9L5AGuDv8HsoA/Qs7M7sKT4w9LOCkPvNp0I2n1eiYEMNMD
GkZApLRVLRr9deZSVYp32+ghQ3NFcALQic03gnXsKKLZEwIDAQABo4G9MIG6MAkG
A1UdEwQCMAAwHQYDVR0OBBYEFPJAPKVyEW50e5rY9fVxM5zeAwBYMFEGA1UdIwRK
MEiAFOdoFh9jd8GFTSIqhaBRAdLCZxJroRqkGDAWMRQwEgYDVQQDDAt0ZWFtNTYw
LW5ldIIUEexRxJRKLdBdvQwYSpYX8WcG79UwEwYDVR0lBAwwCgYIKwYBBQUHAwEw
CwYDVR0PBAQDAgWgMBkGA1UdEQQSMBCCDnRlYW01NjAtc2VydmVyMA0GCSqGSIb3
DQEBCwUAA4IBAQAQzaU+jTZ79fpV9qYU8A0lTmS+U0X+kYJ+mcqj5RWSNwP59FfB
ihoy6lwuKoFRAZ9E7wMS/OQAN6rGkhpmEimbgaFPq4681OoMY5uhqe/xhztMlPBV
pTq/Zy3ul0f5ldwm3RueJv1322Dp8yhrryS0RH82J29gQ7NJxTThGpQmmXBQn0AI
A1XCVMq7CCp9jaKr24juHV5CwvrYzBHz+WL85K6d3TS4R8HlbI9RA3Qu3ENXw1ey
4bspnB+Pnsj5yQMfY3/yD8CCsUT/jIcyhWq1s3VapkpZUSvVFN9i7DplVnOS8VJe
Y3tQSwcLJ0+kx/PR8LuFw184K5JDDboSeFat
-----END CERTIFICATE-----
