Certificate:
    Data:
        Version: 3 (0x2)
        Serial Number:
            1e:ac:29:05:f9:a9:aa:23:97:fd:10:5a:c9:47:b0
        Signature Algorithm: sha256WithRSAEncryption
        Issuer: CN=team560-net
        Validity
            Not Before: Sep 13 03:36:52 2021 GMT
            Not After : Aug 28 03:36:52 2024 GMT
        Subject: CN=team560-client
        Subject Public Key Info:
            Public Key Algorithm: rsaEncryption
                RSA Public-Key: (2048 bit)
                Modulus:
                    00:e5:a1:23:01:fc:61:ae:35:f8:c6:18:72:d7:c5:
                    c8:4c:d7:3c:d9:9e:31:c0:1a:a7:ed:e1:a5:d1:fd:
                    01:d1:af:35:38:7a:bf:9c:ba:cd:0a:64:df:fc:ef:
                    7f:10:87:41:e4:75:d1:41:b3:d0:24:eb:d3:0a:3d:
                    8f:61:cb:37:21:08:1c:51:a6:65:39:21:2c:9f:64:
                    ca:20:6e:40:5f:68:bd:dc:08:4e:f9:30:c0:3a:16:
                    58:98:27:33:67:29:b6:68:75:e2:bb:0a:e5:1b:4c:
                    35:c6:63:cd:4e:37:03:d4:13:f4:b5:c7:d5:d2:77:
                    5a:a6:37:2a:c5:be:c1:f2:68:39:59:b6:3f:e8:a3:
                    f0:d8:3e:bf:69:77:13:46:36:b1:49:4e:97:09:84:
                    16:31:2f:73:6a:52:0f:73:b6:64:07:66:65:f2:66:
                    f9:9f:7b:1d:b1:eb:7e:31:01:cd:32:ed:a5:b1:bf:
                    db:10:fe:9c:fb:a5:16:53:36:f6:1d:81:96:5e:d4:
                    2c:9e:4b:5f:ed:fe:bc:3a:d0:59:aa:8a:b7:4c:bd:
                    dd:d9:86:7d:b7:78:27:b8:ac:bb:91:50:5a:a0:23:
                    40:5c:b8:fe:b1:69:73:77:01:69:ff:42:91:d1:d5:
                    60:d1:2d:a7:55:ba:08:38:f9:e9:87:a6:a5:e8:25:
                    99:83
                Exponent: 65537 (0x10001)
        X509v3 extensions:
            X509v3 Basic Constraints: 
                CA:FALSE
            X509v3 Subject Key Identifier: 
                68:D1:4C:4B:34:5B:72:FC:58:F4:3E:C4:E5:C1:91:14:7B:F9:9A:27
            X509v3 Authority Key Identifier: 
                keyid:E7:68:16:1F:63:77:C1:85:4D:22:2A:85:A0:51:01:D2:C2:67:12:6B
                DirName:/CN=team560-net
                serial:11:EC:51:C4:94:4A:2D:D0:5D:BD:0C:18:4A:96:17:F1:67:06:EF:D5

            X509v3 Extended Key Usage: 
                TLS Web Client Authentication
            X509v3 Key Usage: 
                Digital Signature
    Signature Algorithm: sha256WithRSAEncryption
         16:69:24:d9:aa:c7:ea:2f:3f:24:76:83:0c:85:7f:35:77:28:
         cf:0d:9d:06:22:26:bf:66:13:01:83:d4:66:f4:52:66:b1:c4:
         41:5e:3d:ca:54:5c:a0:d1:2a:27:c8:9f:a6:10:6c:66:d3:74:
         28:73:f3:b9:53:35:0d:8e:68:e1:87:c6:1f:35:8c:62:c3:78:
         ae:df:ce:80:de:90:f2:03:3f:9a:a9:d1:dc:5d:8e:0d:58:c3:
         d2:3b:e6:5a:08:51:19:56:cd:33:bc:ac:de:56:fc:5e:ce:1b:
         8e:89:99:21:e7:02:38:3e:06:02:ab:26:39:6a:5e:d0:af:40:
         36:3b:66:25:b7:ff:a7:ad:5f:27:e5:87:71:38:2d:46:b4:8a:
         85:32:b9:a1:d7:d4:00:59:44:2c:37:6e:02:80:fe:a7:f8:5a:
         75:8d:eb:e3:ec:08:38:dd:cb:8b:d4:9c:69:71:62:1f:84:29:
         85:a3:4f:27:19:ad:00:e0:32:4a:8f:64:58:e1:b9:ba:fb:1b:
         3b:38:ba:04:9b:c6:58:e3:fd:da:dd:35:e3:6e:ab:10:e9:15:
         3f:21:c5:eb:ec:10:f3:d5:26:48:fc:41:f3:38:12:af:0b:e7:
         9f:19:78:91:d1:62:25:9e:25:04:bb:08:3f:12:4f:a3:78:8e:
         dd:db:20:96
-----BEGIN CERTIFICATE-----
MIIDWzCCAkOgAwIBAgIPHqwpBfmpqiOX/RBayUewMA0GCSqGSIb3DQEBCwUAMBYx
FDASBgNVBAMMC3RlYW01NjAtbmV0MB4XDTIxMDkxMzAzMzY1MloXDTI0MDgyODAz
MzY1MlowGTEXMBUGA1UEAwwOdGVhbTU2MC1jbGllbnQwggEiMA0GCSqGSIb3DQEB
AQUAA4IBDwAwggEKAoIBAQDloSMB/GGuNfjGGHLXxchM1zzZnjHAGqft4aXR/QHR
rzU4er+cus0KZN/8738Qh0HkddFBs9Ak69MKPY9hyzchCBxRpmU5ISyfZMogbkBf
aL3cCE75MMA6FliYJzNnKbZodeK7CuUbTDXGY81ONwPUE/S1x9XSd1qmNyrFvsHy
aDlZtj/oo/DYPr9pdxNGNrFJTpcJhBYxL3NqUg9ztmQHZmXyZvmfex2x634xAc0y
7aWxv9sQ/pz7pRZTNvYdgZZe1CyeS1/t/rw60FmqirdMvd3Zhn23eCe4rLuRUFqg
I0BcuP6xaXN3AWn/QpHR1WDRLadVugg4+emHpqXoJZmDAgMBAAGjgaIwgZ8wCQYD
VR0TBAIwADAdBgNVHQ4EFgQUaNFMSzRbcvxY9D7E5cGRFHv5micwUQYDVR0jBEow
SIAU52gWH2N3wYVNIiqFoFEB0sJnEmuhGqQYMBYxFDASBgNVBAMMC3RlYW01NjAt
bmV0ghQR7FHElEot0F29DBhKlhfxZwbv1TATBgNVHSUEDDAKBggrBgEFBQcDAjAL
BgNVHQ8EBAMCB4AwDQYJKoZIhvcNAQELBQADggEBABZpJNmqx+ovPyR2gwyFfzV3
KM8NnQYiJr9mEwGD1Gb0UmaxxEFePcpUXKDRKifIn6YQbGbTdChz87lTNQ2OaOGH
xh81jGLDeK7fzoDekPIDP5qp0dxdjg1Yw9I75loIURlWzTO8rN5W/F7OG46JmSHn
Ajg+BgKrJjlqXtCvQDY7ZiW3/6etXyflh3E4LUa0ioUyuaHX1ABZRCw3bgKA/qf4
WnWN6+PsCDjdy4vUnGlxYh+EKYWjTycZrQDgMkqPZFjhubr7Gzs4ugSbxljj/drd
NeNuqxDpFT8hxevsEPPVJkj8QfM4Eq8L558ZeJHRYiWeJQS7CD8ST6N4jt3bIJY=
-----END CERTIFICATE-----
