Certificate:
    Data:
        Version: 3 (0x2)
        Serial Number:
            fb:3a:46:63:f4:60:df:12:0c:35:3e:5b:fc:13:42:b8
        Signature Algorithm: sha256WithRSAEncryption
        Issuer: CN=team292-net
        Validity
            Not Before: Sep 13 01:23:34 2021 GMT
            Not After : Aug 28 01:23:34 2024 GMT
        Subject: CN=team292-server
        Subject Public Key Info:
            Public Key Algorithm: rsaEncryption
                RSA Public-Key: (2048 bit)
                Modulus:
                    00:a4:f0:2d:67:f8:37:6a:44:04:9b:93:92:d1:0f:
                    cc:78:d8:96:61:f1:f8:58:d5:a7:36:25:dd:dc:83:
                    4e:f5:7b:f2:30:5d:ac:29:de:e4:d5:56:77:1d:cb:
                    8c:c3:6a:22:7a:17:0b:0c:89:4b:05:b0:4a:f4:be:
                    d7:1b:89:81:6f:7e:28:b3:b8:e1:f2:39:98:91:a8:
                    92:5c:9c:bc:6f:ac:7c:3d:59:3f:40:83:a1:df:fe:
                    d6:cf:9e:42:00:00:66:1e:56:02:f2:3b:31:2b:57:
                    05:89:59:fd:0c:38:2a:64:7a:38:d6:d6:bb:5d:18:
                    df:62:e5:4c:b6:c5:25:2b:6e:41:e3:67:92:be:08:
                    e1:29:14:ba:3b:9c:1c:95:87:7b:50:ec:2b:24:02:
                    85:8e:6a:7d:f0:16:81:64:84:5a:b1:fb:6c:73:9a:
                    18:25:73:74:74:c7:40:3d:06:ac:1a:58:5b:c7:30:
                    0e:60:d3:1a:a4:0a:2e:f8:e2:4c:e0:b2:45:0d:0c:
                    cd:19:a3:d7:cc:1f:31:c0:2e:b8:b6:b3:76:4c:2a:
                    8c:f8:e0:02:6a:e5:0b:af:4b:a6:6a:96:cf:dd:f0:
                    08:91:74:ec:cc:bf:34:91:bd:83:77:f0:ba:b8:46:
                    fb:46:1d:49:d4:10:ec:f5:58:de:3b:21:16:de:19:
                    93:17
                Exponent: 65537 (0x10001)
        X509v3 extensions:
            X509v3 Basic Constraints: 
                CA:FALSE
            X509v3 Subject Key Identifier: 
                44:65:85:84:76:E7:55:AD:EF:08:B2:A0:57:D0:CD:B7:B0:1B:FF:03
            X509v3 Authority Key Identifier: 
                keyid:01:D3:5F:4C:23:4B:B1:EC:F1:C5:F7:88:A4:AD:62:15:01:F5:12:38
                DirName:/CN=team292-net
                serial:54:A3:D5:AE:70:16:BB:A7:F6:6E:C2:5B:C7:9F:B1:0D:E2:81:A6:81

            X509v3 Extended Key Usage: 
                TLS Web Server Authentication
            X509v3 Key Usage: 
                Digital Signature, Key Encipherment
            X509v3 Subject Alternative Name: 
                DNS:team292-server
    Signature Algorithm: sha256WithRSAEncryption
         a8:26:3f:2d:77:1d:4b:95:56:3c:7f:a4:12:dd:46:64:bd:1c:
         59:b9:53:bb:6c:b3:aa:80:ba:cf:60:50:42:1e:f6:a3:f6:ba:
         18:d8:c3:17:34:34:92:a0:86:75:96:0a:47:29:cf:d5:05:be:
         f1:98:40:b1:18:67:68:84:f4:67:b2:83:7c:50:07:39:87:8b:
         5c:ef:62:32:3f:5a:8e:20:0b:60:ce:c4:f1:98:0b:f4:47:a3:
         76:d8:34:17:e5:4b:37:20:f6:1a:e1:c9:01:57:cc:6f:7d:4d:
         35:7e:52:4a:d4:b1:70:94:4a:87:9a:52:a8:de:ec:83:24:46:
         16:b7:25:49:bb:c1:d8:eb:be:ef:0f:2e:c8:d3:46:24:2f:0f:
         56:22:18:d1:61:56:37:61:54:43:45:49:af:06:b3:0f:03:4d:
         d7:eb:95:57:dd:0e:e8:f2:da:b3:48:f3:c5:ab:ef:61:1f:c0:
         a4:d9:4c:8b:fd:c4:f8:29:06:f1:a9:a3:f6:d3:98:f4:4e:76:
         36:d2:ef:e7:62:ce:cf:8b:e1:1f:7c:32:03:54:34:6d:e5:e2:
         9a:f2:ca:07:43:cc:27:96:cc:73:1d:70:22:9f:dd:17:d0:e3:
         a7:cb:b5:35:b3:a5:54:74:a3:8a:ad:7a:6f:cb:04:85:86:2a:
         7b:86:a6:26
-----BEGIN CERTIFICATE-----
MIIDeDCCAmCgAwIBAgIRAPs6RmP0YN8SDDU+W/wTQrgwDQYJKoZIhvcNAQELBQAw
FjEUMBIGA1UEAwwLdGVhbTI5Mi1uZXQwHhcNMjEwOTEzMDEyMzM0WhcNMjQwODI4
MDEyMzM0WjAZMRcwFQYDVQQDDA50ZWFtMjkyLXNlcnZlcjCCASIwDQYJKoZIhvcN
AQEBBQADggEPADCCAQoCggEBAKTwLWf4N2pEBJuTktEPzHjYlmHx+FjVpzYl3dyD
TvV78jBdrCne5NVWdx3LjMNqInoXCwyJSwWwSvS+1xuJgW9+KLO44fI5mJGoklyc
vG+sfD1ZP0CDod/+1s+eQgAAZh5WAvI7MStXBYlZ/Qw4KmR6ONbWu10Y32LlTLbF
JStuQeNnkr4I4SkUujucHJWHe1DsKyQChY5qffAWgWSEWrH7bHOaGCVzdHTHQD0G
rBpYW8cwDmDTGqQKLvjiTOCyRQ0MzRmj18wfMcAuuLazdkwqjPjgAmrlC69LpmqW
z93wCJF07My/NJG9g3fwurhG+0YdSdQQ7PVY3jshFt4ZkxcCAwEAAaOBvTCBujAJ
BgNVHRMEAjAAMB0GA1UdDgQWBBREZYWEdudVre8IsqBX0M23sBv/AzBRBgNVHSME
SjBIgBQB019MI0ux7PHF94ikrWIVAfUSOKEapBgwFjEUMBIGA1UEAwwLdGVhbTI5
Mi1uZXSCFFSj1a5wFrun9m7CW8efsQ3igaaBMBMGA1UdJQQMMAoGCCsGAQUFBwMB
MAsGA1UdDwQEAwIFoDAZBgNVHREEEjAQgg50ZWFtMjkyLXNlcnZlcjANBgkqhkiG
9w0BAQsFAAOCAQEAqCY/LXcdS5VWPH+kEt1GZL0cWblTu2yzqoC6z2BQQh72o/a6
GNjDFzQ0kqCGdZYKRynP1QW+8ZhAsRhnaIT0Z7KDfFAHOYeLXO9iMj9ajiALYM7E
8ZgL9Eejdtg0F+VLNyD2GuHJAVfMb31NNX5SStSxcJRKh5pSqN7sgyRGFrclSbvB
2Ou+7w8uyNNGJC8PViIY0WFWN2FUQ0VJrwazDwNN1+uVV90O6PLas0jzxavvYR/A
pNlMi/3E+CkG8amj9tOY9E52NtLv52LOz4vhH3wyA1Q0beXimvLKB0PMJ5bMcx1w
Ip/dF9Djp8u1NbOlVHSjiq16b8sEhYYqe4amJg==
-----END CERTIFICATE-----
