Certificate:
    Data:
        Version: 3 (0x2)
        Serial Number:
            f2:61:b5:db:d1:83:e8:62:36:3a:96:02:58:f3:74:6a
        Signature Algorithm: sha256WithRSAEncryption
        Issuer: CN=team516-net
        Validity
            Not Before: Sep 13 03:26:46 2021 GMT
            Not After : Aug 28 03:26:46 2024 GMT
        Subject: CN=team516-server
        Subject Public Key Info:
            Public Key Algorithm: rsaEncryption
                RSA Public-Key: (2048 bit)
                Modulus:
                    00:d8:6a:0d:5d:fe:d8:69:79:14:73:b3:14:fc:ef:
                    2d:dc:dc:69:d4:f8:1e:2d:2d:32:ee:ea:d0:1c:41:
                    a4:f6:87:e9:2d:87:9b:ef:00:44:86:6a:31:98:0e:
                    03:0d:b5:e6:e1:11:c4:ea:2a:e9:b7:9e:e5:b5:b0:
                    ea:b2:d8:6b:be:5a:98:b8:4e:aa:c7:66:7f:36:86:
                    e5:90:7f:b5:40:77:1d:a0:cd:bc:9d:6e:f5:43:14:
                    6c:88:d3:36:97:46:83:e7:8f:8c:43:5b:6e:b0:82:
                    bf:f5:0c:6f:62:00:8e:9d:fa:5f:a3:21:c2:be:aa:
                    a4:82:c2:de:cd:79:7a:f9:cb:f1:2b:c2:1a:ad:ce:
                    57:48:91:8c:85:4a:f4:fe:7c:12:7a:8c:fb:ab:1b:
                    27:da:85:c5:8b:4b:36:3e:59:ba:e2:43:0f:50:7b:
                    e3:2b:9b:6c:eb:98:2e:c4:ae:45:3f:80:76:e9:c6:
                    27:8f:1f:20:e2:15:d5:93:a6:39:05:ef:df:a0:0c:
                    b0:ef:1c:bd:2c:e7:dd:85:3e:a5:36:44:80:1b:a2:
                    fc:91:29:0c:0c:5b:4d:e3:89:f7:1b:52:ab:9c:36:
                    e4:25:90:f0:07:32:d6:67:1c:3d:66:2f:cb:00:2d:
                    2b:12:32:9d:c4:2a:74:00:12:ac:8d:d2:3d:85:84:
                    3f:0f
                Exponent: 65537 (0x10001)
        X509v3 extensions:
            X509v3 Basic Constraints: 
                CA:FALSE
            X509v3 Subject Key Identifier: 
                1B:77:48:85:73:EB:3D:D2:CD:73:A5:63:40:74:28:E9:EF:F9:19:F5
            X509v3 Authority Key Identifier: 
                keyid:68:39:5A:1D:C9:66:4F:AD:F9:3E:6F:E4:6B:0A:8A:D6:2E:76:3F:9F
                DirName:/CN=team516-net
                serial:0B:2C:CA:AF:72:39:43:E3:3D:6A:2D:29:25:DF:1E:94:E0:6B:96:A3

            X509v3 Extended Key Usage: 
                TLS Web Server Authentication
            X509v3 Key Usage: 
                Digital Signature, Key Encipherment
            X509v3 Subject Alternative Name: 
                DNS:team516-server
    Signature Algorithm: sha256WithRSAEncryption
         85:bb:80:84:8c:53:e0:09:61:f5:f1:a2:6f:56:b9:13:37:70:
         74:01:c5:32:ff:89:b9:e2:db:82:49:f2:05:57:ac:92:aa:04:
         5b:89:77:93:a3:50:77:48:4f:94:df:a3:85:2f:0c:ce:e3:27:
         01:e5:0e:a6:c6:78:28:2a:e1:35:ca:1a:f0:16:1a:6c:0a:db:
         ae:e5:c2:08:0e:25:c2:6c:aa:b2:b6:ca:b7:0b:35:f5:c8:aa:
         80:07:69:39:8b:b5:b6:e0:70:e3:ac:fd:6d:3f:f5:c2:db:5a:
         31:c4:22:1f:3e:3a:dc:f5:38:60:2b:37:63:ca:84:07:20:af:
         35:9c:24:9f:fd:57:18:cd:ed:3e:bd:d9:f8:88:5f:66:40:1b:
         08:1e:76:30:73:88:0a:8e:35:28:65:13:7b:9c:eb:78:e8:7e:
         f2:bb:83:fa:fd:9f:5c:a3:cd:6a:19:cc:0e:5c:8a:29:85:4c:
         94:d8:4e:97:11:ae:69:41:6f:d1:be:08:fb:97:58:43:0a:d4:
         92:ba:e5:19:d9:54:66:98:bd:c5:56:dd:ec:f3:97:91:03:f6:
         c7:1d:be:bc:77:15:b3:51:c5:fc:cf:d3:74:a2:41:39:51:55:
         4e:e7:cd:19:b2:0d:4a:61:38:5c:27:2e:05:97:35:84:99:9e:
         bd:4a:93:84
-----BEGIN CERTIFICATE-----
MIIDeDCCAmCgAwIBAgIRAPJhtdvRg+hiNjqWAljzdGowDQYJKoZIhvcNAQELBQAw
FjEUMBIGA1UEAwwLdGVhbTUxNi1uZXQwHhcNMjEwOTEzMDMyNjQ2WhcNMjQwODI4
MDMyNjQ2WjAZMRcwFQYDVQQDDA50ZWFtNTE2LXNlcnZlcjCCASIwDQYJKoZIhvcN
AQEBBQADggEPADCCAQoCggEBANhqDV3+2Gl5FHOzFPzvLdzcadT4Hi0tMu7q0BxB
pPaH6S2Hm+8ARIZqMZgOAw215uERxOoq6bee5bWw6rLYa75amLhOqsdmfzaG5ZB/
tUB3HaDNvJ1u9UMUbIjTNpdGg+ePjENbbrCCv/UMb2IAjp36X6Mhwr6qpILC3s15
evnL8SvCGq3OV0iRjIVK9P58EnqM+6sbJ9qFxYtLNj5ZuuJDD1B74yubbOuYLsSu
RT+AdunGJ48fIOIV1ZOmOQXv36AMsO8cvSzn3YU+pTZEgBui/JEpDAxbTeOJ9xtS
q5w25CWQ8Acy1mccPWYvywAtKxIyncQqdAASrI3SPYWEPw8CAwEAAaOBvTCBujAJ
BgNVHRMEAjAAMB0GA1UdDgQWBBQbd0iFc+s90s1zpWNAdCjp7/kZ9TBRBgNVHSME
SjBIgBRoOVodyWZPrfk+b+RrCorWLnY/n6EapBgwFjEUMBIGA1UEAwwLdGVhbTUx
Ni1uZXSCFAssyq9yOUPjPWotKSXfHpTga5ajMBMGA1UdJQQMMAoGCCsGAQUFBwMB
MAsGA1UdDwQEAwIFoDAZBgNVHREEEjAQgg50ZWFtNTE2LXNlcnZlcjANBgkqhkiG
9w0BAQsFAAOCAQEAhbuAhIxT4Alh9fGib1a5EzdwdAHFMv+JueLbgknyBVeskqoE
W4l3k6NQd0hPlN+jhS8MzuMnAeUOpsZ4KCrhNcoa8BYabArbruXCCA4lwmyqsrbK
tws19ciqgAdpOYu1tuBw46z9bT/1wttaMcQiHz463PU4YCs3Y8qEByCvNZwkn/1X
GM3tPr3Z+IhfZkAbCB52MHOICo41KGUTe5zreOh+8ruD+v2fXKPNahnMDlyKKYVM
lNhOlxGuaUFv0b4I+5dYQwrUkrrlGdlUZpi9xVbd7POXkQP2xx2+vHcVs1HF/M/T
dKJBOVFVTufNGbINSmE4XCcuBZc1hJmevUqThA==
-----END CERTIFICATE-----
