Certificate:
    Data:
        Version: 3 (0x2)
        Serial Number:
            30:c5:81:b5:ba:af:87:ba:8b:0b:0a:7d:fb:fa:4e:64
        Signature Algorithm: sha256WithRSAEncryption
        Issuer: CN=team376-net
        Validity
            Not Before: Sep 13 02:10:05 2021 GMT
            Not After : Aug 28 02:10:05 2024 GMT
        Subject: CN=team376-server
        Subject Public Key Info:
            Public Key Algorithm: rsaEncryption
                RSA Public-Key: (2048 bit)
                Modulus:
                    00:e3:f2:c8:97:48:93:9e:3e:cb:34:1f:7e:75:23:
                    09:10:c3:b9:67:3e:37:36:09:93:53:37:35:d3:75:
                    4b:4e:b3:d4:34:e5:9a:c6:ad:d1:cb:ff:a8:7a:48:
                    90:a7:6b:9c:fc:f2:29:69:76:74:71:bd:73:59:f8:
                    87:08:35:6f:09:56:d8:55:2b:9d:5d:7f:b4:03:17:
                    cb:b2:5d:db:70:b1:73:cc:d7:ff:a2:ce:00:33:51:
                    0f:02:f1:d0:99:d0:b4:3f:b7:b1:0a:36:62:30:b7:
                    d1:1d:22:fa:b7:e4:5f:6e:ba:e4:3f:2f:b9:f4:aa:
                    e2:a9:2f:17:a3:a7:44:03:88:40:97:5c:3f:35:36:
                    56:6a:e4:ea:6b:8f:2b:89:c5:f1:a4:6c:92:aa:f1:
                    37:c2:ac:db:55:51:a0:5c:75:a7:d5:1a:c9:b7:31:
                    79:13:6d:d2:02:e9:c6:2f:19:f6:0b:30:6e:22:5f:
                    36:4d:e6:43:27:1a:79:4c:17:c6:c0:da:36:df:d3:
                    e7:21:8a:d6:fe:36:81:50:13:7f:7d:0d:e5:33:d1:
                    02:93:58:c5:59:b8:1f:86:e9:c1:ab:4f:f8:89:3b:
                    97:df:18:f4:8c:20:bc:7b:d4:41:6b:28:f4:7b:55:
                    17:db:df:8c:8b:0b:9c:c7:36:bd:fc:ba:ac:7b:6c:
                    71:19
                Exponent: 65537 (0x10001)
        X509v3 extensions:
            X509v3 Basic Constraints: 
                CA:FALSE
            X509v3 Subject Key Identifier: 
                22:39:7B:B3:AF:AA:59:11:F6:36:26:54:19:EE:F1:31:BD:6D:7A:92
            X509v3 Authority Key Identifier: 
                keyid:A9:3C:90:2D:9E:93:F9:5F:3C:A6:0B:B7:0D:D0:68:67:61:9A:40:D1
                DirName:/CN=team376-net
                serial:67:60:D0:81:FE:D6:E0:68:7B:CE:A0:7C:73:1F:8B:75:7E:C1:5D:94

            X509v3 Extended Key Usage: 
                TLS Web Server Authentication
            X509v3 Key Usage: 
                Digital Signature, Key Encipherment
            X509v3 Subject Alternative Name: 
                DNS:team376-server
    Signature Algorithm: sha256WithRSAEncryption
         8f:84:31:0e:3a:de:ee:a3:07:fb:20:f4:e7:2a:c8:dd:e8:9b:
         eb:72:3a:4d:f1:a0:8d:5a:3f:92:b1:90:b0:cd:00:9b:73:5d:
         76:32:ff:88:98:5a:55:e9:e2:3e:4b:a1:9d:32:fa:ba:7a:ff:
         7d:58:4f:88:b5:e1:42:f2:4c:74:08:fc:12:fd:69:99:69:29:
         7b:1c:85:7d:af:a7:b0:23:6a:9d:26:57:5d:0b:4f:03:74:cc:
         b3:b8:3a:3d:4c:ab:cc:e6:20:5a:0e:e8:96:07:5a:3f:96:ea:
         eb:c5:42:2a:34:3c:47:9a:91:dd:63:2c:0e:8b:5c:2e:f0:27:
         a3:46:21:58:40:67:62:67:8b:f1:40:a3:2f:73:ba:61:a0:6c:
         3a:e2:8c:dc:3e:d8:d4:5b:a8:29:fa:d3:b3:7a:c3:c8:75:df:
         93:1b:b9:8e:9e:96:97:36:52:75:2c:d6:56:82:54:8a:68:cb:
         fe:b6:48:89:85:41:51:aa:fd:48:11:eb:b0:5d:26:14:04:56:
         fb:d0:d0:7c:91:ad:7c:2c:82:98:02:dc:a3:17:fc:c1:e7:b3:
         18:31:41:d7:87:8f:f9:14:21:0d:71:c5:0b:23:7e:4a:34:ff:
         7a:b4:b5:83:84:20:c6:9c:48:7d:fe:a5:be:58:21:6c:28:2b:
         9b:10:b0:db
-----BEGIN CERTIFICATE-----
MIIDdzCCAl+gAwIBAgIQMMWBtbqvh7qLCwp9+/pOZDANBgkqhkiG9w0BAQsFADAW
MRQwEgYDVQQDDAt0ZWFtMzc2LW5ldDAeFw0yMTA5MTMwMjEwMDVaFw0yNDA4Mjgw
MjEwMDVaMBkxFzAVBgNVBAMMDnRlYW0zNzYtc2VydmVyMIIBIjANBgkqhkiG9w0B
AQEFAAOCAQ8AMIIBCgKCAQEA4/LIl0iTnj7LNB9+dSMJEMO5Zz43NgmTUzc103VL
TrPUNOWaxq3Ry/+oekiQp2uc/PIpaXZ0cb1zWfiHCDVvCVbYVSudXX+0AxfLsl3b
cLFzzNf/os4AM1EPAvHQmdC0P7exCjZiMLfRHSL6t+RfbrrkPy+59KriqS8Xo6dE
A4hAl1w/NTZWauTqa48ricXxpGySqvE3wqzbVVGgXHWn1RrJtzF5E23SAunGLxn2
CzBuIl82TeZDJxp5TBfGwNo239PnIYrW/jaBUBN/fQ3lM9ECk1jFWbgfhunBq0/4
iTuX3xj0jCC8e9RBayj0e1UX29+Miwucxza9/Lqse2xxGQIDAQABo4G9MIG6MAkG
A1UdEwQCMAAwHQYDVR0OBBYEFCI5e7OvqlkR9jYmVBnu8TG9bXqSMFEGA1UdIwRK
MEiAFKk8kC2ek/lfPKYLtw3QaGdhmkDRoRqkGDAWMRQwEgYDVQQDDAt0ZWFtMzc2
LW5ldIIUZ2DQgf7W4Gh7zqB8cx+LdX7BXZQwEwYDVR0lBAwwCgYIKwYBBQUHAwEw
CwYDVR0PBAQDAgWgMBkGA1UdEQQSMBCCDnRlYW0zNzYtc2VydmVyMA0GCSqGSIb3
DQEBCwUAA4IBAQCPhDEOOt7uowf7IPTnKsjd6JvrcjpN8aCNWj+SsZCwzQCbc112
Mv+ImFpV6eI+S6GdMvq6ev99WE+IteFC8kx0CPwS/WmZaSl7HIV9r6ewI2qdJldd
C08DdMyzuDo9TKvM5iBaDuiWB1o/lurrxUIqNDxHmpHdYywOi1wu8CejRiFYQGdi
Z4vxQKMvc7phoGw64ozcPtjUW6gp+tOzesPIdd+TG7mOnpaXNlJ1LNZWglSKaMv+
tkiJhUFRqv1IEeuwXSYUBFb70NB8ka18LIKYAtyjF/zB57MYMUHXh4/5FCENccUL
I35KNP96tLWDhCDGnEh9/qW+WCFsKCubELDb
-----END CERTIFICATE-----
