Certificate:
    Data:
        Version: 3 (0x2)
        Serial Number:
            d3:09:d5:a2:91:aa:67:46:86:94:30:b2:7c:ed:8e:3f
        Signature Algorithm: sha256WithRSAEncryption
        Issuer: CN=team376-net
        Validity
            Not Before: Sep 13 02:10:05 2021 GMT
            Not After : Aug 28 02:10:05 2024 GMT
        Subject: CN=team376-client
        Subject Public Key Info:
            Public Key Algorithm: rsaEncryption
                RSA Public-Key: (2048 bit)
                Modulus:
                    00:af:99:cc:09:74:25:2a:16:03:3c:3a:5f:8c:ed:
                    47:fd:44:4c:3d:43:81:af:a4:bc:93:7d:00:1a:02:
                    ad:b2:70:90:93:8d:35:a8:02:bc:a4:c9:1c:9a:ab:
                    a6:18:a2:8c:73:d9:86:27:bb:84:46:13:77:a3:10:
                    e8:02:01:74:e8:ee:37:c6:f5:ea:01:23:db:e1:a5:
                    65:c1:2c:2c:af:7d:02:80:b3:95:54:0b:c0:a4:0e:
                    c0:1c:c6:7c:3a:8e:32:5e:af:98:0e:3f:38:20:1b:
                    32:63:3b:66:ba:0a:19:a1:41:97:c7:80:eb:7c:79:
                    b5:b6:3b:4c:26:b0:98:a4:05:27:98:16:ca:a7:e0:
                    8a:68:ad:24:b9:f0:fd:a7:ff:50:e9:33:d8:c2:5a:
                    ca:2a:39:97:98:cb:cc:1c:2f:c1:5b:fe:42:5b:c1:
                    b5:73:c3:55:89:be:d6:20:90:ed:19:0a:15:a8:0e:
                    63:32:61:9a:b4:ca:da:35:82:c8:15:3c:18:30:8d:
                    f2:8e:85:8c:8c:34:0c:90:99:8c:9d:58:ef:fe:00:
                    7e:70:25:a0:05:9f:e6:14:6c:86:b9:48:55:b7:bb:
                    45:15:95:bd:ea:29:bc:64:51:af:5b:c9:37:65:a0:
                    6a:54:70:31:bd:f2:ed:59:34:1c:ab:a4:74:cd:86:
                    64:a1
                Exponent: 65537 (0x10001)
        X509v3 extensions:
            X509v3 Basic Constraints: 
                CA:FALSE
            X509v3 Subject Key Identifier: 
                33:5E:E1:F0:BD:40:AE:65:30:8E:19:EA:67:ED:3B:28:8E:E7:F7:7A
            X509v3 Authority Key Identifier: 
                keyid:A9:3C:90:2D:9E:93:F9:5F:3C:A6:0B:B7:0D:D0:68:67:61:9A:40:D1
                DirName:/CN=team376-net
                serial:67:60:D0:81:FE:D6:E0:68:7B:CE:A0:7C:73:1F:8B:75:7E:C1:5D:94

            X509v3 Extended Key Usage: 
                TLS Web Client Authentication
            X509v3 Key Usage: 
                Digital Signature
    Signature Algorithm: sha256WithRSAEncryption
         5f:50:a1:4c:e0:0c:12:de:66:29:46:68:12:16:c1:a8:b7:82:
         4e:0f:0c:5a:3b:79:62:b5:16:b5:9b:e6:20:ab:36:8d:d7:46:
         8b:06:5f:33:18:cd:61:02:da:a3:ee:c8:53:f9:17:b2:a2:0b:
         94:56:cb:49:e0:24:41:16:34:6c:95:d0:dc:05:de:cf:f5:bb:
         c1:70:86:c4:c7:72:99:fa:91:12:ab:56:76:b0:89:3c:0d:42:
         60:66:90:5a:22:57:1e:23:2f:9b:1e:77:a3:58:7d:b4:a7:5f:
         06:be:de:12:5b:b8:20:83:ae:e7:02:d9:c2:28:3c:2b:d9:7c:
         2f:8b:4e:81:a7:a7:1d:be:b7:ea:96:c6:bd:d5:f5:c5:67:66:
         da:0d:57:fc:81:52:ed:ce:0e:eb:8c:21:cf:3a:93:b9:13:8a:
         49:3c:91:36:2a:4b:e5:80:be:4a:a5:36:44:6f:e2:08:55:6b:
         7a:d9:d7:66:fe:f9:16:9f:56:f0:9c:1d:02:34:07:fd:d6:77:
         cc:e3:94:7c:f7:74:73:f5:4c:ec:84:9f:2a:54:a0:b7:35:4e:
         86:de:36:0b:0c:cb:e3:fc:a0:54:c9:c5:3a:10:62:26:26:e1:
         cb:5c:81:62:5a:5e:29:58:92:fe:d2:42:27:38:f6:66:56:f1:
         5e:61:c5:7d
-----BEGIN CERTIFICATE-----
MIIDXTCCAkWgAwIBAgIRANMJ1aKRqmdGhpQwsnztjj8wDQYJKoZIhvcNAQELBQAw
FjEUMBIGA1UEAwwLdGVhbTM3Ni1uZXQwHhcNMjEwOTEzMDIxMDA1WhcNMjQwODI4
MDIxMDA1WjAZMRcwFQYDVQQDDA50ZWFtMzc2LWNsaWVudDCCASIwDQYJKoZIhvcN
AQEBBQADggEPADCCAQoCggEBAK+ZzAl0JSoWAzw6X4ztR/1ETD1Dga+kvJN9ABoC
rbJwkJONNagCvKTJHJqrphiijHPZhie7hEYTd6MQ6AIBdOjuN8b16gEj2+GlZcEs
LK99AoCzlVQLwKQOwBzGfDqOMl6vmA4/OCAbMmM7ZroKGaFBl8eA63x5tbY7TCaw
mKQFJ5gWyqfgimitJLnw/af/UOkz2MJayio5l5jLzBwvwVv+QlvBtXPDVYm+1iCQ
7RkKFagOYzJhmrTK2jWCyBU8GDCN8o6FjIw0DJCZjJ1Y7/4AfnAloAWf5hRshrlI
Vbe7RRWVveopvGRRr1vJN2WgalRwMb3y7Vk0HKukdM2GZKECAwEAAaOBojCBnzAJ
BgNVHRMEAjAAMB0GA1UdDgQWBBQzXuHwvUCuZTCOGepn7Tsojuf3ejBRBgNVHSME
SjBIgBSpPJAtnpP5XzymC7cN0GhnYZpA0aEapBgwFjEUMBIGA1UEAwwLdGVhbTM3
Ni1uZXSCFGdg0IH+1uBoe86gfHMfi3V+wV2UMBMGA1UdJQQMMAoGCCsGAQUFBwMC
MAsGA1UdDwQEAwIHgDANBgkqhkiG9w0BAQsFAAOCAQEAX1ChTOAMEt5mKUZoEhbB
qLeCTg8MWjt5YrUWtZvmIKs2jddGiwZfMxjNYQLao+7IU/kXsqILlFbLSeAkQRY0
bJXQ3AXez/W7wXCGxMdymfqREqtWdrCJPA1CYGaQWiJXHiMvmx53o1h9tKdfBr7e
Elu4IIOu5wLZwig8K9l8L4tOgaenHb636pbGvdX1xWdm2g1X/IFS7c4O64whzzqT
uROKSTyRNipL5YC+SqU2RG/iCFVretnXZv75Fp9W8JwdAjQH/dZ3zOOUfPd0c/VM
7ISfKlSgtzVOht42CwzL4/ygVMnFOhBiJibhy1yBYlpeKViS/tJCJzj2ZlbxXmHF
fQ==
-----END CERTIFICATE-----
