Certificate:
    Data:
        Version: 3 (0x2)
        Serial Number:
            dd:fc:64:d3:03:cd:0f:00:52:da:84:ab:d5:11:fa:7f
        Signature Algorithm: sha256WithRSAEncryption
        Issuer: CN=team656-net
        Validity
            Not Before: Sep 13 04:25:46 2021 GMT
            Not After : Aug 28 04:25:46 2024 GMT
        Subject: CN=team656-server
        Subject Public Key Info:
            Public Key Algorithm: rsaEncryption
                RSA Public-Key: (2048 bit)
                Modulus:
                    00:9b:e4:9b:c3:59:1e:51:1b:fa:44:3c:8b:cc:fc:
                    b7:90:c8:45:5b:c5:f2:d2:7d:6d:f7:56:60:ee:bc:
                    39:f4:fe:06:ef:58:79:f3:5c:2f:bc:19:53:6c:0b:
                    29:ee:43:ee:41:52:37:8b:f2:a8:1f:4b:bd:3a:1f:
                    09:b2:a8:22:08:4e:f8:20:ef:7c:c7:8c:bb:66:63:
                    26:81:cf:c4:04:eb:51:1e:fa:25:02:bf:4a:e4:01:
                    59:7c:9e:13:44:f5:1b:a0:11:6c:dd:8c:59:e4:87:
                    cc:63:08:3d:df:a0:ce:92:8a:09:08:6e:f4:8e:69:
                    0a:77:cc:12:b2:f5:7c:94:f5:24:4b:b0:2f:6a:32:
                    b4:9d:46:c2:a1:37:96:d0:4a:68:2f:62:b3:b8:11:
                    ad:e3:f6:56:ce:e5:56:7c:a0:a5:87:9f:0a:69:b8:
                    8a:ea:c4:d1:f0:f9:61:a7:9b:c7:db:5f:65:49:a0:
                    b8:4b:30:f9:02:50:70:2e:cb:45:ee:ee:80:ae:c4:
                    95:d5:d4:02:29:07:79:8c:8a:64:53:92:c2:3d:b5:
                    03:37:e6:30:93:4d:39:54:2c:d5:da:bf:43:11:26:
                    a0:26:53:40:d3:03:82:2e:b0:c6:79:37:35:d4:85:
                    d1:27:dc:fd:56:95:ee:8d:42:44:7a:5c:dc:7e:f4:
                    b2:79
                Exponent: 65537 (0x10001)
        X509v3 extensions:
            X509v3 Basic Constraints: 
                CA:FALSE
            X509v3 Subject Key Identifier: 
                71:31:B2:8C:8A:F1:BD:D7:A5:EA:3C:58:37:21:F5:F6:DE:B6:DC:C6
            X509v3 Authority Key Identifier: 
                keyid:6F:F7:59:44:C9:64:01:57:8E:3E:D6:A0:61:0F:69:F7:9D:46:53:18
                DirName:/CN=team656-net
                serial:21:9B:C1:C7:2A:26:50:12:43:7B:0D:6D:87:21:38:D0:84:1E:99:7C

            X509v3 Extended Key Usage: 
                TLS Web Server Authentication
            X509v3 Key Usage: 
                Digital Signature, Key Encipherment
            X509v3 Subject Alternative Name: 
                DNS:team656-server
    Signature Algorithm: sha256WithRSAEncryption
         88:c5:e8:a3:48:b7:d6:77:df:7c:b6:40:0d:f5:53:e5:6b:b7:
         14:c0:29:8a:56:b9:65:6d:6f:a3:19:59:cd:a1:d9:9a:7b:9b:
         b0:2a:2a:a0:1c:b5:23:b4:c5:84:82:e3:4c:3d:60:4f:d1:e7:
         93:cc:50:e9:b4:77:d5:f1:0d:a1:56:d3:67:35:f4:f3:d8:71:
         00:2e:be:01:6e:65:a3:5a:cf:b9:8f:c2:d4:52:a1:63:5e:5e:
         81:39:ab:ca:be:0c:99:98:92:6c:31:6b:41:d0:25:a4:e3:1e:
         a1:a6:b5:3f:6c:46:eb:9e:fc:3c:c1:c5:51:65:70:44:de:0d:
         0e:7a:7b:37:a8:98:1a:6f:6d:8c:b2:66:b6:ee:ea:b0:52:1d:
         5b:02:0a:b0:58:4b:0f:00:ec:35:22:06:0d:70:74:74:5b:5d:
         ab:c4:7b:28:77:22:9c:d1:cd:31:d9:79:a0:a1:9f:4d:15:93:
         b5:92:80:91:08:38:49:7b:34:dc:cd:12:75:90:f2:8a:0a:0c:
         4f:5d:32:d0:71:59:71:85:0d:38:23:b3:36:6d:ef:0a:9a:55:
         c5:d9:a1:9a:18:8e:81:15:0f:db:a8:92:9f:cd:20:bc:ec:14:
         09:53:e1:a5:61:c4:c4:48:5a:51:9f:c5:cc:4c:d0:d2:b9:9d:
         63:41:06:1b
-----BEGIN CERTIFICATE-----
MIIDeDCCAmCgAwIBAgIRAN38ZNMDzQ8AUtqEq9UR+n8wDQYJKoZIhvcNAQELBQAw
FjEUMBIGA1UEAwwLdGVhbTY1Ni1uZXQwHhcNMjEwOTEzMDQyNTQ2WhcNMjQwODI4
MDQyNTQ2WjAZMRcwFQYDVQQDDA50ZWFtNjU2LXNlcnZlcjCCASIwDQYJKoZIhvcN
AQEBBQADggEPADCCAQoCggEBAJvkm8NZHlEb+kQ8i8z8t5DIRVvF8tJ9bfdWYO68
OfT+Bu9YefNcL7wZU2wLKe5D7kFSN4vyqB9LvTofCbKoIghO+CDvfMeMu2ZjJoHP
xATrUR76JQK/SuQBWXyeE0T1G6ARbN2MWeSHzGMIPd+gzpKKCQhu9I5pCnfMErL1
fJT1JEuwL2oytJ1GwqE3ltBKaC9is7gRreP2Vs7lVnygpYefCmm4iurE0fD5Yaeb
x9tfZUmguEsw+QJQcC7LRe7ugK7EldXUAikHeYyKZFOSwj21AzfmMJNNOVQs1dq/
QxEmoCZTQNMDgi6wxnk3NdSF0Sfc/VaV7o1CRHpc3H70snkCAwEAAaOBvTCBujAJ
BgNVHRMEAjAAMB0GA1UdDgQWBBRxMbKMivG916XqPFg3IfX23rbcxjBRBgNVHSME
SjBIgBRv91lEyWQBV44+1qBhD2n3nUZTGKEapBgwFjEUMBIGA1UEAwwLdGVhbTY1
Ni1uZXSCFCGbwccqJlASQ3sNbYchONCEHpl8MBMGA1UdJQQMMAoGCCsGAQUFBwMB
MAsGA1UdDwQEAwIFoDAZBgNVHREEEjAQgg50ZWFtNjU2LXNlcnZlcjANBgkqhkiG
9w0BAQsFAAOCAQEAiMXoo0i31nfffLZADfVT5Wu3FMApila5ZW1voxlZzaHZmnub
sCoqoBy1I7TFhILjTD1gT9Hnk8xQ6bR31fENoVbTZzX089hxAC6+AW5lo1rPuY/C
1FKhY15egTmryr4MmZiSbDFrQdAlpOMeoaa1P2xG6578PMHFUWVwRN4NDnp7N6iY
Gm9tjLJmtu7qsFIdWwIKsFhLDwDsNSIGDXB0dFtdq8R7KHcinNHNMdl5oKGfTRWT
tZKAkQg4SXs03M0SdZDyigoMT10y0HFZcYUNOCOzNm3vCppVxdmhmhiOgRUP26iS
n80gvOwUCVPhpWHExEhaUZ/FzEzQ0rmdY0EGGw==
-----END CERTIFICATE-----
