Certificate:
    Data:
        Version: 3 (0x2)
        Serial Number:
            63:0a:7e:31:b4:10:08:e2:bd:f5:cf:f5:f8:f2:d3:51
        Signature Algorithm: sha256WithRSAEncryption
        Issuer: CN=team693-net
        Validity
            Not Before: Sep 13 05:16:57 2021 GMT
            Not After : Aug 28 05:16:57 2024 GMT
        Subject: CN=team693-client
        Subject Public Key Info:
            Public Key Algorithm: rsaEncryption
                RSA Public-Key: (2048 bit)
                Modulus:
                    00:f6:cf:96:e7:93:1b:6f:4b:b5:56:17:08:1f:fe:
                    d3:f2:99:86:1e:ea:6e:0b:2f:ff:5e:e3:1a:c7:98:
                    fa:fc:f1:19:2c:f9:c9:65:fb:49:e4:46:59:ed:04:
                    46:05:54:25:2b:7a:05:f6:93:09:58:00:65:39:fd:
                    a3:6b:86:46:c3:3f:2d:23:2f:a6:95:de:9e:32:6c:
                    16:39:f7:b5:a2:c4:95:89:1a:9c:cf:65:14:69:df:
                    71:40:80:d0:76:01:91:cc:22:8a:ec:62:4d:f7:f1:
                    0c:4c:6e:33:9a:4e:eb:b8:44:0f:33:75:8d:90:4a:
                    d3:3e:8d:70:9b:0a:4f:f7:65:3d:fb:94:d5:a8:bd:
                    a3:50:a7:40:a3:c1:02:92:42:6c:d6:23:43:4e:9d:
                    54:b3:55:42:5a:19:5e:e1:40:d0:d6:90:e8:23:2f:
                    e1:83:7f:df:ec:2e:80:e8:ef:e8:f1:f0:34:14:f3:
                    c8:e2:b8:6f:da:8d:2f:9c:2a:43:50:4c:01:b4:c6:
                    5e:2d:d7:e3:2f:bc:3d:73:30:ac:45:02:93:ac:29:
                    09:a3:ee:08:7e:ca:00:e8:67:1b:69:cc:ed:a7:50:
                    15:46:32:f7:cc:7b:2d:69:e8:78:61:63:9d:ea:38:
                    e0:d6:c2:b8:97:a2:ec:10:7b:78:19:d6:36:3c:eb:
                    37:0f
                Exponent: 65537 (0x10001)
        X509v3 extensions:
            X509v3 Basic Constraints: 
                CA:FALSE
            X509v3 Subject Key Identifier: 
                7B:15:67:0C:B1:4B:52:91:6C:E5:74:1F:79:D5:3C:71:CA:F2:B8:04
            X509v3 Authority Key Identifier: 
                keyid:3B:A3:87:B7:CF:93:0E:D4:B8:01:D9:3A:79:74:63:21:6E:E7:AA:63
                DirName:/CN=team693-net
                serial:04:80:11:52:5C:D0:76:8B:7C:0B:4A:72:A3:A1:98:31:FD:FC:82:BB

            X509v3 Extended Key Usage: 
                TLS Web Client Authentication
            X509v3 Key Usage: 
                Digital Signature
    Signature Algorithm: sha256WithRSAEncryption
         4e:5e:86:74:13:49:bf:fb:c4:7c:30:43:b1:6b:77:8a:35:ac:
         6a:37:6b:f8:9c:f6:cc:f4:94:5a:8b:eb:4d:98:9a:10:aa:0c:
         36:e7:a0:e9:dc:13:f4:6c:cf:b7:97:2b:69:6b:4a:95:05:ee:
         d5:e5:a1:57:6d:67:5d:80:e1:4a:e9:e5:f2:c2:a2:f6:ca:24:
         9e:44:45:4b:35:d8:d5:5d:4b:b9:c6:3b:b6:11:97:87:01:fb:
         31:97:99:e5:a0:8d:98:a8:4b:67:0a:a9:69:4f:5e:fa:b1:65:
         f2:36:9c:8d:3c:c9:40:ac:a1:eb:41:dc:0b:2b:22:c0:7e:fb:
         70:ea:af:8f:2a:20:c0:26:ec:20:1d:49:df:25:63:1e:65:6d:
         d8:12:15:b3:92:1b:a3:04:8e:ca:e0:c6:36:96:59:26:ae:e9:
         c5:65:ec:37:17:4b:3f:6d:c7:36:09:5f:df:31:b1:45:c2:d5:
         18:1a:eb:7e:66:11:d2:51:1a:d0:28:2b:b7:80:6a:c6:b5:9c:
         6d:2b:19:9f:36:d4:53:be:37:1b:3b:6e:05:50:14:da:5d:05:
         16:b7:7d:4a:f8:58:e4:61:23:e9:02:39:04:09:59:3e:22:03:
         b0:b2:1d:95:4d:26:4b:35:b7:96:8c:b4:bd:69:da:b1:8e:ca:
         09:fb:89:da
-----BEGIN CERTIFICATE-----
MIIDXDCCAkSgAwIBAgIQYwp+MbQQCOK99c/1+PLTUTANBgkqhkiG9w0BAQsFADAW
MRQwEgYDVQQDDAt0ZWFtNjkzLW5ldDAeFw0yMTA5MTMwNTE2NTdaFw0yNDA4Mjgw
NTE2NTdaMBkxFzAVBgNVBAMMDnRlYW02OTMtY2xpZW50MIIBIjANBgkqhkiG9w0B
AQEFAAOCAQ8AMIIBCgKCAQEA9s+W55Mbb0u1VhcIH/7T8pmGHupuCy//XuMax5j6
/PEZLPnJZftJ5EZZ7QRGBVQlK3oF9pMJWABlOf2ja4ZGwz8tIy+mld6eMmwWOfe1
osSViRqcz2UUad9xQIDQdgGRzCKK7GJN9/EMTG4zmk7ruEQPM3WNkErTPo1wmwpP
92U9+5TVqL2jUKdAo8ECkkJs1iNDTp1Us1VCWhle4UDQ1pDoIy/hg3/f7C6A6O/o
8fA0FPPI4rhv2o0vnCpDUEwBtMZeLdfjL7w9czCsRQKTrCkJo+4IfsoA6Gcbaczt
p1AVRjL3zHstaeh4YWOd6jjg1sK4l6LsEHt4GdY2POs3DwIDAQABo4GiMIGfMAkG
A1UdEwQCMAAwHQYDVR0OBBYEFHsVZwyxS1KRbOV0H3nVPHHK8rgEMFEGA1UdIwRK
MEiAFDujh7fPkw7UuAHZOnl0YyFu56pjoRqkGDAWMRQwEgYDVQQDDAt0ZWFtNjkz
LW5ldIIUBIARUlzQdot8C0pyo6GYMf38grswEwYDVR0lBAwwCgYIKwYBBQUHAwIw
CwYDVR0PBAQDAgeAMA0GCSqGSIb3DQEBCwUAA4IBAQBOXoZ0E0m/+8R8MEOxa3eK
NaxqN2v4nPbM9JRai+tNmJoQqgw256Dp3BP0bM+3lytpa0qVBe7V5aFXbWddgOFK
6eXywqL2yiSeREVLNdjVXUu5xju2EZeHAfsxl5nloI2YqEtnCqlpT176sWXyNpyN
PMlArKHrQdwLKyLAfvtw6q+PKiDAJuwgHUnfJWMeZW3YEhWzkhujBI7K4MY2llkm
runFZew3F0s/bcc2CV/fMbFFwtUYGut+ZhHSURrQKCu3gGrGtZxtKxmfNtRTvjcb
O24FUBTaXQUWt31K+FjkYSPpAjkECVk+IgOwsh2VTSZLNbeWjLS9adqxjsoJ+4na
-----END CERTIFICATE-----
