Certificate:
    Data:
        Version: 3 (0x2)
        Serial Number:
            bb:45:80:61:0f:de:e4:44:70:13:c2:7a:d9:15:85:1e
        Signature Algorithm: sha256WithRSAEncryption
        Issuer: CN=team48-net
        Validity
            Not Before: Sep 12 23:07:50 2021 GMT
            Not After : Aug 27 23:07:50 2024 GMT
        Subject: CN=team48-client
        Subject Public Key Info:
            Public Key Algorithm: rsaEncryption
                RSA Public-Key: (2048 bit)
                Modulus:
                    00:bd:c2:eb:03:52:ce:93:2b:c4:06:2e:25:d7:62:
                    4d:80:ac:10:d4:03:9e:bf:23:9c:e0:c8:ea:ee:f4:
                    0b:9e:f9:8e:04:f7:f7:4e:89:7c:4e:69:d5:a9:4c:
                    f5:23:95:1a:6d:e3:bf:0d:e2:0d:45:2d:03:48:4c:
                    d3:49:25:2b:d7:4c:5d:3f:86:99:50:d4:48:9f:8d:
                    ab:41:1d:e8:4c:af:95:4f:92:52:7f:20:d8:bf:35:
                    b0:0c:1f:16:43:4a:94:c0:f5:28:63:0d:15:af:82:
                    62:1c:5f:cf:db:ac:1d:f3:40:4f:ee:36:c2:a9:03:
                    e3:42:40:84:e9:73:90:3a:82:81:da:a4:30:6d:50:
                    1f:04:b7:e2:fe:ef:94:22:31:05:45:d1:45:39:37:
                    bd:42:fb:d9:95:fa:6e:3f:af:e2:5a:ab:a0:55:d7:
                    9a:e4:73:ef:a4:e1:c6:2d:88:5a:26:7e:44:2a:5b:
                    2e:3c:81:f8:8b:29:3d:13:dd:4d:f5:87:0b:06:eb:
                    7f:53:9d:6d:15:9c:cd:eb:b6:16:10:1d:07:74:d4:
                    60:0a:21:3a:e3:66:6e:6d:83:25:fc:59:31:2a:fd:
                    53:1e:f7:9e:b1:fa:82:1f:b9:d4:df:11:5d:93:45:
                    87:a8:85:e7:18:7c:93:af:60:55:b1:ad:6b:b6:54:
                    f1:0d
                Exponent: 65537 (0x10001)
        X509v3 extensions:
            X509v3 Basic Constraints: 
                CA:FALSE
            X509v3 Subject Key Identifier: 
                20:7A:4B:A2:79:4E:D0:41:62:93:C3:E2:09:94:3C:1E:E1:59:7E:E9
            X509v3 Authority Key Identifier: 
                keyid:99:11:FF:88:AE:35:8A:21:2C:81:C9:06:AD:87:E4:CA:66:C5:C9:6B
                DirName:/CN=team48-net
                serial:16:E9:5F:71:18:2C:25:E0:68:D0:F3:B7:D4:82:E4:7A:70:31:32:65

            X509v3 Extended Key Usage: 
                TLS Web Client Authentication
            X509v3 Key Usage: 
                Digital Signature
    Signature Algorithm: sha256WithRSAEncryption
         0d:af:3a:4c:3e:ad:89:6e:24:89:d3:5b:d5:dd:6e:70:ea:34:
         f9:bd:20:ba:7c:71:98:32:a5:bb:b0:bf:b4:49:1f:af:c1:15:
         8f:31:c1:17:3a:48:67:47:8b:52:6e:e2:d8:3c:bd:79:ae:3a:
         e4:9c:71:47:61:08:30:8c:f7:94:5d:0c:4f:3d:51:1b:1e:e0:
         d2:2e:c5:6e:3a:36:e7:47:f0:c6:de:ef:ac:7d:b1:b5:7a:35:
         e2:c6:3e:20:2b:2b:23:77:11:7c:1b:9d:09:d7:c6:11:d4:79:
         62:0f:88:ba:2f:1e:98:81:b3:f8:b7:17:2c:49:2e:e3:e8:20:
         8b:fd:38:e5:c1:54:83:60:11:f7:43:a2:ca:4f:0c:42:5b:06:
         48:91:e5:2a:3b:1d:be:ba:3d:1a:39:22:8c:ca:de:30:b5:a3:
         d6:18:b3:15:a1:d7:de:be:c4:cf:1e:ed:55:ba:51:92:ca:f1:
         f3:d0:9a:0a:e8:04:25:3c:c3:5b:27:fe:48:c8:24:ad:5e:6c:
         72:10:14:69:28:ef:ae:26:ca:c6:8e:97:96:c2:3c:8c:65:c7:
         eb:30:4e:5c:bc:da:1c:f7:0d:f3:14:62:d0:79:ba:63:1c:15:
         0e:9b:45:81:0c:52:63:55:a4:ed:77:0b:69:c0:b5:3f:dd:65:
         79:19:b9:b8
-----BEGIN CERTIFICATE-----
MIIDWjCCAkKgAwIBAgIRALtFgGEP3uREcBPCetkVhR4wDQYJKoZIhvcNAQELBQAw
FTETMBEGA1UEAwwKdGVhbTQ4LW5ldDAeFw0yMTA5MTIyMzA3NTBaFw0yNDA4Mjcy
MzA3NTBaMBgxFjAUBgNVBAMMDXRlYW00OC1jbGllbnQwggEiMA0GCSqGSIb3DQEB
AQUAA4IBDwAwggEKAoIBAQC9wusDUs6TK8QGLiXXYk2ArBDUA56/I5zgyOru9Aue
+Y4E9/dOiXxOadWpTPUjlRpt478N4g1FLQNITNNJJSvXTF0/hplQ1EifjatBHehM
r5VPklJ/INi/NbAMHxZDSpTA9ShjDRWvgmIcX8/brB3zQE/uNsKpA+NCQITpc5A6
goHapDBtUB8Et+L+75QiMQVF0UU5N71C+9mV+m4/r+Jaq6BV15rkc++k4cYtiFom
fkQqWy48gfiLKT0T3U31hwsG639TnW0VnM3rthYQHQd01GAKITrjZm5tgyX8WTEq
/VMe956x+oIfudTfEV2TRYeohecYfJOvYFWxrWu2VPENAgMBAAGjgaEwgZ4wCQYD
VR0TBAIwADAdBgNVHQ4EFgQUIHpLonlO0EFik8PiCZQ8HuFZfukwUAYDVR0jBEkw
R4AUmRH/iK41iiEsgckGrYfkymbFyWuhGaQXMBUxEzARBgNVBAMMCnRlYW00OC1u
ZXSCFBbpX3EYLCXgaNDzt9SC5HpwMTJlMBMGA1UdJQQMMAoGCCsGAQUFBwMCMAsG
A1UdDwQEAwIHgDANBgkqhkiG9w0BAQsFAAOCAQEADa86TD6tiW4kidNb1d1ucOo0
+b0gunxxmDKlu7C/tEkfr8EVjzHBFzpIZ0eLUm7i2Dy9ea465JxxR2EIMIz3lF0M
Tz1RGx7g0i7Fbjo250fwxt7vrH2xtXo14sY+ICsrI3cRfBudCdfGEdR5Yg+Iui8e
mIGz+LcXLEku4+ggi/045cFUg2AR90Oiyk8MQlsGSJHlKjsdvro9GjkijMreMLWj
1hizFaHX3r7Ezx7tVbpRksrx89CaCugEJTzDWyf+SMgkrV5schAUaSjvribKxo6X
lsI8jGXH6zBOXLzaHPcN8xRi0Hm6YxwVDptFgQxSY1Wk7XcLacC1P91leRm5uA==
-----END CERTIFICATE-----
