Certificate:
    Data:
        Version: 3 (0x2)
        Serial Number:
            0b:9c:df:fd:24:36:21:0c:be:f8:35:82:66:c1:9c:91
        Signature Algorithm: sha256WithRSAEncryption
        Issuer: CN=team489-net
        Validity
            Not Before: Sep 13 03:10:24 2021 GMT
            Not After : Aug 28 03:10:24 2024 GMT
        Subject: CN=team489-server
        Subject Public Key Info:
            Public Key Algorithm: rsaEncryption
                RSA Public-Key: (2048 bit)
                Modulus:
                    00:aa:f9:11:10:92:b0:fa:82:f8:e1:1f:0a:a8:b2:
                    fb:a9:0b:be:04:13:95:d3:6c:06:2b:40:24:b2:03:
                    49:72:50:57:87:ed:91:db:f2:18:44:e8:e6:ec:bb:
                    a0:2e:d4:a8:fb:bd:a0:45:57:d9:d5:c4:b5:8f:90:
                    0f:17:06:01:ce:83:52:cf:60:3c:f8:b5:85:2a:8d:
                    3b:5a:96:3f:d5:e8:cb:71:f3:3b:bd:01:56:30:e4:
                    89:6d:24:62:5c:84:cb:e7:12:ee:9b:53:b8:65:8e:
                    be:8b:92:75:06:32:dd:54:f6:e2:31:00:87:c0:c8:
                    e3:a0:44:1f:70:0a:a1:86:01:d6:5b:d9:15:9b:1b:
                    70:53:71:0c:56:65:fb:4a:da:6b:62:7a:61:67:ad:
                    dd:04:d1:72:e4:1f:8a:83:41:b5:39:db:5f:21:77:
                    8c:4c:f4:cc:df:31:2c:3e:31:e5:7b:f5:50:ef:ed:
                    87:2b:6b:5a:86:bc:1d:a2:c7:94:01:92:09:a4:32:
                    29:da:b4:22:35:81:fc:9f:fa:56:04:a8:96:83:26:
                    28:15:a5:da:62:78:a9:63:a1:96:eb:6e:0c:6c:e7:
                    29:13:40:33:c8:28:50:8a:bf:e3:50:22:73:39:e8:
                    6d:40:de:43:e5:96:a2:40:ab:8f:b5:d3:42:42:0d:
                    bd:17
                Exponent: 65537 (0x10001)
        X509v3 extensions:
            X509v3 Basic Constraints: 
                CA:FALSE
            X509v3 Subject Key Identifier: 
                E7:BA:8C:CC:47:20:49:34:7A:DA:99:A2:35:D2:3D:4E:92:BE:02:70
            X509v3 Authority Key Identifier: 
                keyid:E2:25:0A:98:30:58:2B:F1:84:84:85:F9:D1:FE:8A:0D:C5:EE:02:23
                DirName:/CN=team489-net
                serial:78:8E:32:BF:48:4F:14:A9:FF:4E:F1:D1:5A:B4:97:DE:E8:1A:EF:6C

            X509v3 Extended Key Usage: 
                TLS Web Server Authentication
            X509v3 Key Usage: 
                Digital Signature, Key Encipherment
            X509v3 Subject Alternative Name: 
                DNS:team489-server
    Signature Algorithm: sha256WithRSAEncryption
         9d:19:48:0b:6d:49:03:34:7e:07:60:7b:88:a6:2f:59:48:ab:
         91:84:7b:d4:b8:87:5d:15:98:32:52:18:5d:02:d5:68:c0:ec:
         f6:27:a7:d1:da:36:ff:f4:a5:ac:22:8b:47:6b:6a:4d:c3:cb:
         0d:94:cd:c1:c4:da:68:cb:d7:28:16:94:ca:11:58:a8:e9:a3:
         b3:1b:ce:81:43:77:18:0d:59:82:dd:6b:e3:db:a9:4e:69:62:
         29:05:65:3b:be:21:47:d5:5f:52:04:d8:3b:c6:52:9c:58:9b:
         d9:d9:62:e0:a2:d4:07:ca:81:be:9c:92:d0:d0:0b:99:e4:11:
         ec:c7:52:ae:4b:c6:4f:16:1a:ce:be:87:82:64:30:ae:db:82:
         c1:87:77:df:a4:dc:7a:c3:15:1b:41:1e:8b:64:58:57:44:b1:
         91:d6:7a:c4:21:ca:08:52:41:02:97:24:dc:c0:a9:18:c4:f8:
         cd:27:d9:ae:af:9d:27:9f:aa:98:6d:28:c0:59:33:66:4c:77:
         3c:f9:ba:d0:5e:e6:3f:32:79:ca:b0:4e:4f:5f:0c:c1:d1:7b:
         aa:d4:5f:af:ed:15:c9:03:24:a7:96:f1:01:d0:0e:45:22:62:
         99:7e:2e:21:5b:cb:c8:3e:d4:c9:f2:cd:ce:be:8b:e7:98:c4:
         df:c9:2a:b0
-----BEGIN CERTIFICATE-----
MIIDdzCCAl+gAwIBAgIQC5zf/SQ2IQy++DWCZsGckTANBgkqhkiG9w0BAQsFADAW
MRQwEgYDVQQDDAt0ZWFtNDg5LW5ldDAeFw0yMTA5MTMwMzEwMjRaFw0yNDA4Mjgw
MzEwMjRaMBkxFzAVBgNVBAMMDnRlYW00ODktc2VydmVyMIIBIjANBgkqhkiG9w0B
AQEFAAOCAQ8AMIIBCgKCAQEAqvkREJKw+oL44R8KqLL7qQu+BBOV02wGK0AksgNJ
clBXh+2R2/IYROjm7LugLtSo+72gRVfZ1cS1j5APFwYBzoNSz2A8+LWFKo07WpY/
1ejLcfM7vQFWMOSJbSRiXITL5xLum1O4ZY6+i5J1BjLdVPbiMQCHwMjjoEQfcAqh
hgHWW9kVmxtwU3EMVmX7StprYnphZ63dBNFy5B+Kg0G1OdtfIXeMTPTM3zEsPjHl
e/VQ7+2HK2tahrwdoseUAZIJpDIp2rQiNYH8n/pWBKiWgyYoFaXaYnipY6GW624M
bOcpE0AzyChQir/jUCJzOehtQN5D5ZaiQKuPtdNCQg29FwIDAQABo4G9MIG6MAkG
A1UdEwQCMAAwHQYDVR0OBBYEFOe6jMxHIEk0etqZojXSPU6SvgJwMFEGA1UdIwRK
MEiAFOIlCpgwWCvxhISF+dH+ig3F7gIjoRqkGDAWMRQwEgYDVQQDDAt0ZWFtNDg5
LW5ldIIUeI4yv0hPFKn/TvHRWrSX3uga72wwEwYDVR0lBAwwCgYIKwYBBQUHAwEw
CwYDVR0PBAQDAgWgMBkGA1UdEQQSMBCCDnRlYW00ODktc2VydmVyMA0GCSqGSIb3
DQEBCwUAA4IBAQCdGUgLbUkDNH4HYHuIpi9ZSKuRhHvUuIddFZgyUhhdAtVowOz2
J6fR2jb/9KWsIotHa2pNw8sNlM3BxNpoy9coFpTKEVio6aOzG86BQ3cYDVmC3Wvj
26lOaWIpBWU7viFH1V9SBNg7xlKcWJvZ2WLgotQHyoG+nJLQ0AuZ5BHsx1KuS8ZP
FhrOvoeCZDCu24LBh3ffpNx6wxUbQR6LZFhXRLGR1nrEIcoIUkEClyTcwKkYxPjN
J9mur50nn6qYbSjAWTNmTHc8+brQXuY/MnnKsE5PXwzB0Xuq1F+v7RXJAySnlvEB
0A5FImKZfi4hW8vIPtTJ8s3OvovnmMTfySqw
-----END CERTIFICATE-----
