Certificate:
    Data:
        Version: 3 (0x2)
        Serial Number:
            83:0d:b8:b6:0d:de:10:94:4d:52:b6:aa:fa:0d:c2:f2
        Signature Algorithm: sha256WithRSAEncryption
        Issuer: CN=team157-net
        Validity
            Not Before: Sep 13 00:19:27 2021 GMT
            Not After : Aug 28 00:19:27 2024 GMT
        Subject: CN=team157-server
        Subject Public Key Info:
            Public Key Algorithm: rsaEncryption
                RSA Public-Key: (2048 bit)
                Modulus:
                    00:c4:7e:11:b2:6e:9a:aa:8b:06:51:e8:9e:65:81:
                    a9:93:69:cc:f1:2f:73:01:8d:eb:95:3e:59:02:05:
                    6f:25:15:c6:8b:8c:3e:3e:9f:e7:7d:78:ad:c7:55:
                    35:08:7b:d7:d2:fb:0c:97:60:93:1e:57:cc:2e:df:
                    de:fb:e4:28:d7:2e:61:dd:38:8f:33:2d:4c:a7:c4:
                    af:a5:e3:33:d4:0c:b4:d3:14:21:b4:b1:31:18:c1:
                    56:ce:f6:1f:76:8f:73:e2:ff:19:b2:f2:62:21:23:
                    05:7a:d8:e1:78:7f:b5:c6:2d:74:7b:3b:11:c2:d2:
                    60:fa:4f:ad:9f:f0:c5:45:43:e2:2c:c0:44:83:93:
                    f3:39:97:7f:80:d8:53:d8:09:fb:e7:ff:2a:13:da:
                    1b:4b:a4:26:35:26:c7:f3:69:1c:fb:bc:97:06:1f:
                    de:79:d2:ff:ca:5d:1b:40:cb:33:2f:ef:3b:74:34:
                    10:c1:f1:51:aa:43:7a:c2:95:84:bb:15:e3:31:ab:
                    fe:bd:d6:33:45:c0:90:ab:41:c0:8f:a5:e8:41:52:
                    a2:d9:0f:e5:43:8e:3e:bd:97:25:9f:49:e0:3b:6f:
                    e1:eb:fc:b1:3c:73:2a:49:3a:4e:f2:08:e6:02:da:
                    be:25:b3:25:a1:e0:42:ed:cc:30:22:f2:a4:c6:b6:
                    3d:83
                Exponent: 65537 (0x10001)
        X509v3 extensions:
            X509v3 Basic Constraints: 
                CA:FALSE
            X509v3 Subject Key Identifier: 
                6B:D2:CA:65:E6:51:FB:00:44:3F:BB:5C:08:05:19:99:73:FB:86:91
            X509v3 Authority Key Identifier: 
                keyid:46:9A:30:F3:7C:7A:60:71:A3:D2:47:B0:95:BE:F4:9F:B7:D5:F1:A3
                DirName:/CN=team157-net
                serial:53:23:44:4C:8B:C5:17:F7:BF:78:0E:45:45:DB:CF:CB:AF:E5:6A:58

            X509v3 Extended Key Usage: 
                TLS Web Server Authentication
            X509v3 Key Usage: 
                Digital Signature, Key Encipherment
            X509v3 Subject Alternative Name: 
                DNS:team157-server
    Signature Algorithm: sha256WithRSAEncryption
         42:53:d0:bd:20:a2:76:19:c7:07:23:41:50:37:8d:4e:00:84:
         42:75:9a:db:3d:85:d6:b9:0c:0c:9a:3b:1e:dd:3e:51:69:c9:
         d4:9d:4a:a3:b0:af:b8:dd:cf:6f:c3:95:07:72:50:0e:45:a3:
         b4:5a:74:2f:6e:08:6b:42:15:7a:c7:78:d4:69:6e:e9:c7:3b:
         65:ff:ef:ef:b4:20:97:82:cb:8e:55:5f:ce:f8:00:22:c4:4c:
         61:6f:5a:71:a9:8d:f3:54:61:12:6a:57:a1:a3:c9:01:13:f9:
         04:66:c6:81:f6:85:c3:3e:7f:f3:64:4a:b0:0e:dc:aa:59:77:
         e3:7a:e3:bc:c2:06:a5:fd:12:be:95:62:7d:46:9a:31:d9:ab:
         08:fd:ca:47:21:73:8f:00:51:86:d2:e2:6f:0a:22:0f:f6:10:
         0c:69:1c:60:27:38:3b:0f:30:10:38:50:06:24:97:7c:e7:8f:
         54:f7:78:4e:4a:75:28:d5:eb:a7:3c:7f:d0:2b:f4:e7:e8:86:
         db:2d:49:3c:41:10:3e:8f:52:0c:8e:cf:b6:e6:78:cb:b8:cd:
         cf:79:ca:7f:ed:bd:3c:3d:60:ed:cb:38:aa:a7:e5:8c:a4:3d:
         f7:7d:a4:a2:5f:15:fb:77:f3:51:a7:e5:c1:7c:87:90:cb:dc:
         20:1d:c2:07
-----BEGIN CERTIFICATE-----
MIIDeDCCAmCgAwIBAgIRAIMNuLYN3hCUTVK2qvoNwvIwDQYJKoZIhvcNAQELBQAw
FjEUMBIGA1UEAwwLdGVhbTE1Ny1uZXQwHhcNMjEwOTEzMDAxOTI3WhcNMjQwODI4
MDAxOTI3WjAZMRcwFQYDVQQDDA50ZWFtMTU3LXNlcnZlcjCCASIwDQYJKoZIhvcN
AQEBBQADggEPADCCAQoCggEBAMR+EbJumqqLBlHonmWBqZNpzPEvcwGN65U+WQIF
byUVxouMPj6f5314rcdVNQh719L7DJdgkx5XzC7f3vvkKNcuYd04jzMtTKfEr6Xj
M9QMtNMUIbSxMRjBVs72H3aPc+L/GbLyYiEjBXrY4Xh/tcYtdHs7EcLSYPpPrZ/w
xUVD4izARIOT8zmXf4DYU9gJ++f/KhPaG0ukJjUmx/NpHPu8lwYf3nnS/8pdG0DL
My/vO3Q0EMHxUapDesKVhLsV4zGr/r3WM0XAkKtBwI+l6EFSotkP5UOOPr2XJZ9J
4Dtv4ev8sTxzKkk6TvII5gLaviWzJaHgQu3MMCLypMa2PYMCAwEAAaOBvTCBujAJ
BgNVHRMEAjAAMB0GA1UdDgQWBBRr0spl5lH7AEQ/u1wIBRmZc/uGkTBRBgNVHSME
SjBIgBRGmjDzfHpgcaPSR7CVvvSft9Xxo6EapBgwFjEUMBIGA1UEAwwLdGVhbTE1
Ny1uZXSCFFMjREyLxRf3v3gORUXbz8uv5WpYMBMGA1UdJQQMMAoGCCsGAQUFBwMB
MAsGA1UdDwQEAwIFoDAZBgNVHREEEjAQgg50ZWFtMTU3LXNlcnZlcjANBgkqhkiG
9w0BAQsFAAOCAQEAQlPQvSCidhnHByNBUDeNTgCEQnWa2z2F1rkMDJo7Ht0+UWnJ
1J1Ko7CvuN3Pb8OVB3JQDkWjtFp0L24Ia0IVesd41Glu6cc7Zf/v77Qgl4LLjlVf
zvgAIsRMYW9acamN81RhEmpXoaPJARP5BGbGgfaFwz5/82RKsA7cqll343rjvMIG
pf0SvpVifUaaMdmrCP3KRyFzjwBRhtLibwoiD/YQDGkcYCc4Ow8wEDhQBiSXfOeP
VPd4Tkp1KNXrpzx/0Cv05+iG2y1JPEEQPo9SDI7PtuZ4y7jNz3nKf+29PD1g7cs4
qqfljKQ9932kol8V+3fzUaflwXyHkMvcIB3CBw==
-----END CERTIFICATE-----
