Certificate:
    Data:
        Version: 3 (0x2)
        Serial Number:
            a3:e0:7e:21:38:e5:e6:ac:eb:55:a5:c3:0d:f1:86:b1
        Signature Algorithm: sha256WithRSAEncryption
        Issuer: CN=team157-net
        Validity
            Not Before: Sep 13 00:19:27 2021 GMT
            Not After : Aug 28 00:19:27 2024 GMT
        Subject: CN=team157-client
        Subject Public Key Info:
            Public Key Algorithm: rsaEncryption
                RSA Public-Key: (2048 bit)
                Modulus:
                    00:bf:28:cd:d6:92:4e:97:61:9f:a0:31:e1:9f:b5:
                    60:f4:e5:3a:a2:63:40:f0:e8:b3:c6:78:51:e2:c6:
                    fa:8f:8f:d6:cd:2c:8d:f9:ae:8f:50:25:8c:80:a2:
                    7d:1a:1d:5c:53:e8:78:08:9e:4c:10:99:b6:66:85:
                    65:a4:04:ff:c8:10:67:0e:47:f4:c6:22:ee:e0:05:
                    eb:1e:20:6e:26:3e:71:1d:b0:95:cf:a1:e0:12:d3:
                    ec:97:1e:39:f4:b0:1e:e4:55:ff:fe:93:4c:cf:f7:
                    6e:ed:97:4b:35:a9:b7:91:87:5e:01:1b:be:0d:e1:
                    a3:bf:c2:34:df:f0:24:b6:fd:10:0c:17:08:48:e4:
                    f4:5e:77:99:3a:a0:56:11:33:3a:d5:bf:1d:c2:1e:
                    63:ce:db:21:30:33:90:c2:75:f2:78:07:29:59:a2:
                    76:15:d3:3f:16:68:b6:94:91:f3:fb:55:9e:3c:76:
                    bf:d5:07:51:f0:b3:49:52:59:e2:61:62:4f:f8:71:
                    90:18:82:65:01:7b:5d:fc:d2:e3:8d:3f:0d:33:b4:
                    75:d0:76:2a:a9:d4:c3:06:8b:a9:4e:39:ba:b2:86:
                    99:ce:f1:f1:04:89:d9:48:df:50:55:4b:47:ad:57:
                    7c:92:68:8f:4b:b0:c9:ba:2d:84:db:d2:95:e3:56:
                    5a:61
                Exponent: 65537 (0x10001)
        X509v3 extensions:
            X509v3 Basic Constraints: 
                CA:FALSE
            X509v3 Subject Key Identifier: 
                94:2E:B8:E7:6C:A0:9F:63:13:CE:3F:8E:48:8A:CB:0F:90:06:D0:98
            X509v3 Authority Key Identifier: 
                keyid:46:9A:30:F3:7C:7A:60:71:A3:D2:47:B0:95:BE:F4:9F:B7:D5:F1:A3
                DirName:/CN=team157-net
                serial:53:23:44:4C:8B:C5:17:F7:BF:78:0E:45:45:DB:CF:CB:AF:E5:6A:58

            X509v3 Extended Key Usage: 
                TLS Web Client Authentication
            X509v3 Key Usage: 
                Digital Signature
    Signature Algorithm: sha256WithRSAEncryption
         3d:76:93:92:a9:4e:4b:98:7b:d0:8e:23:30:4a:7d:28:cc:1a:
         b6:1d:2d:44:f8:54:77:2f:7c:04:1e:cf:f7:1a:f1:1a:a1:3d:
         bc:13:6f:a3:ac:dd:70:fe:a6:ef:9c:57:9e:2a:14:e6:76:06:
         1b:dc:83:83:0e:a5:53:7c:df:f8:c7:ad:81:56:06:46:cb:6b:
         df:1c:cc:41:4b:22:46:1a:6b:d2:2f:62:05:e8:9b:5d:08:a8:
         94:05:0f:e0:62:58:e1:f8:56:86:a2:d2:5e:3b:26:fe:38:e6:
         85:e0:ec:05:7c:de:1d:31:9e:6e:d8:c4:7a:94:ce:8b:4e:b6:
         3e:33:78:ec:ab:0f:b5:ed:85:49:e7:16:0f:f4:8b:18:54:7e:
         c9:bf:6d:2e:9a:a6:db:ff:2d:9d:31:c4:d1:99:3d:3f:ca:04:
         34:bc:95:98:fc:a2:03:49:5b:cb:d9:d0:34:41:cd:9a:81:45:
         60:7f:b1:e5:47:f8:a4:b8:d8:0a:ae:d3:93:d9:1e:96:a9:5c:
         f4:67:ed:54:8d:9b:4d:87:ea:e4:a9:2d:ee:94:c2:78:b2:01:
         14:ef:b3:95:9c:2c:3b:58:fb:04:19:b9:03:0e:14:71:93:41:
         b5:73:80:d4:89:00:32:51:3e:a2:db:57:1a:b7:ca:b9:78:12:
         b1:6d:81:90
-----BEGIN CERTIFICATE-----
MIIDXTCCAkWgAwIBAgIRAKPgfiE45eas61Wlww3xhrEwDQYJKoZIhvcNAQELBQAw
FjEUMBIGA1UEAwwLdGVhbTE1Ny1uZXQwHhcNMjEwOTEzMDAxOTI3WhcNMjQwODI4
MDAxOTI3WjAZMRcwFQYDVQQDDA50ZWFtMTU3LWNsaWVudDCCASIwDQYJKoZIhvcN
AQEBBQADggEPADCCAQoCggEBAL8ozdaSTpdhn6Ax4Z+1YPTlOqJjQPDos8Z4UeLG
+o+P1s0sjfmuj1AljICifRodXFPoeAieTBCZtmaFZaQE/8gQZw5H9MYi7uAF6x4g
biY+cR2wlc+h4BLT7JceOfSwHuRV//6TTM/3bu2XSzWpt5GHXgEbvg3ho7/CNN/w
JLb9EAwXCEjk9F53mTqgVhEzOtW/HcIeY87bITAzkMJ18ngHKVmidhXTPxZotpSR
8/tVnjx2v9UHUfCzSVJZ4mFiT/hxkBiCZQF7XfzS440/DTO0ddB2KqnUwwaLqU45
urKGmc7x8QSJ2UjfUFVLR61XfJJoj0uwybothNvSleNWWmECAwEAAaOBojCBnzAJ
BgNVHRMEAjAAMB0GA1UdDgQWBBSULrjnbKCfYxPOP45IissPkAbQmDBRBgNVHSME
SjBIgBRGmjDzfHpgcaPSR7CVvvSft9Xxo6EapBgwFjEUMBIGA1UEAwwLdGVhbTE1
Ny1uZXSCFFMjREyLxRf3v3gORUXbz8uv5WpYMBMGA1UdJQQMMAoGCCsGAQUFBwMC
MAsGA1UdDwQEAwIHgDANBgkqhkiG9w0BAQsFAAOCAQEAPXaTkqlOS5h70I4jMEp9
KMwath0tRPhUdy98BB7P9xrxGqE9vBNvo6zdcP6m75xXnioU5nYGG9yDgw6lU3zf
+MetgVYGRstr3xzMQUsiRhpr0i9iBeibXQiolAUP4GJY4fhWhqLSXjsm/jjmheDs
BXzeHTGebtjEepTOi062PjN47KsPte2FSecWD/SLGFR+yb9tLpqm2/8tnTHE0Zk9
P8oENLyVmPyiA0lby9nQNEHNmoFFYH+x5Uf4pLjYCq7Tk9kelqlc9GftVI2bTYfq
5Kkt7pTCeLIBFO+zlZwsO1j7BBm5Aw4UcZNBtXOA1IkAMlE+ottXGrfKuXgSsW2B
kA==
-----END CERTIFICATE-----
