Certificate:
    Data:
        Version: 3 (0x2)
        Serial Number:
            d0:e9:b1:c3:de:11:a4:32:21:97:1e:01:56:44:04:45
        Signature Algorithm: sha256WithRSAEncryption
        Issuer: CN=team422-net
        Validity
            Not Before: Sep 13 02:35:40 2021 GMT
            Not After : Aug 28 02:35:40 2024 GMT
        Subject: CN=team422-client
        Subject Public Key Info:
            Public Key Algorithm: rsaEncryption
                RSA Public-Key: (2048 bit)
                Modulus:
                    00:f6:e8:db:1f:ae:7a:d9:f9:b4:b0:40:4e:e8:56:
                    eb:0f:7a:2c:af:07:5d:03:84:16:60:d1:24:55:ae:
                    6f:8c:16:ba:56:5b:2b:ea:5b:d0:c7:42:bc:1e:cb:
                    df:2c:1e:4f:da:27:46:d9:34:a6:c7:1b:41:c0:44:
                    03:38:b2:a1:5a:3d:0d:e9:35:ea:ca:e0:43:4c:48:
                    2c:38:df:db:7d:2e:86:3b:47:de:5b:dc:45:34:1b:
                    7a:6c:fa:5c:47:e8:eb:db:94:3c:ab:8f:54:ea:72:
                    18:c0:63:d5:99:f4:26:47:0c:6f:c0:c0:6b:e5:3a:
                    3e:c3:9c:cf:28:91:fa:09:bd:00:12:a6:7c:25:58:
                    43:cd:ae:8b:85:8d:bd:22:65:59:fb:37:ab:d8:81:
                    fb:d3:83:fb:b8:8b:3f:3f:14:19:90:45:a6:87:10:
                    9b:76:ef:2a:8e:cf:4b:f5:54:73:4b:f4:47:36:af:
                    2e:b0:b6:95:cd:14:28:a8:c9:13:91:02:00:2f:27:
                    af:2f:3a:79:89:db:cf:5d:97:11:79:9c:7b:5e:43:
                    b2:97:44:ee:81:35:47:96:7b:14:29:b0:f6:1e:30:
                    d7:5d:94:1c:b1:1d:a6:5b:f9:70:e4:ee:87:9d:01:
                    19:39:6e:aa:fa:6e:d2:ee:2f:89:c2:bf:be:d2:38:
                    91:01
                Exponent: 65537 (0x10001)
        X509v3 extensions:
            X509v3 Basic Constraints: 
                CA:FALSE
            X509v3 Subject Key Identifier: 
                FA:B8:06:8D:BE:90:D5:3F:94:FA:97:7B:45:96:29:59:B0:56:A1:35
            X509v3 Authority Key Identifier: 
                keyid:C0:13:39:4B:9D:13:AE:CE:E8:81:D3:D2:A1:D9:98:24:ED:2F:66:18
                DirName:/CN=team422-net
                serial:36:7E:EB:C4:18:E8:85:C8:F4:E3:38:08:A9:26:E5:99:CA:E9:50:76

            X509v3 Extended Key Usage: 
                TLS Web Client Authentication
            X509v3 Key Usage: 
                Digital Signature
    Signature Algorithm: sha256WithRSAEncryption
         b3:8b:40:2c:3f:a9:7b:bb:07:fd:b8:8e:3f:01:17:99:e6:c8:
         fe:f5:bb:30:d8:f2:59:72:13:a9:a1:88:a0:c4:f7:7e:27:a9:
         43:75:41:8e:93:9c:18:20:36:3b:3b:a5:09:90:0c:5d:0c:94:
         2e:dd:60:db:d0:57:3f:57:28:ac:97:51:65:f0:48:6e:cf:6b:
         3d:4c:b8:34:06:ab:b4:05:38:b0:20:d4:8a:9a:35:7a:6c:0d:
         9f:e4:b2:e4:69:40:41:0c:47:59:fa:62:aa:67:41:f9:8a:20:
         8b:74:12:ef:96:8c:11:38:8c:5f:aa:48:d0:dd:33:c0:7b:d6:
         38:fc:34:d6:58:20:08:5a:a2:ae:c7:7d:45:a0:88:92:33:a7:
         a8:6f:2d:60:46:64:24:20:70:1f:33:e7:63:b0:f5:55:2f:52:
         71:27:8c:65:25:76:e4:ae:2a:6a:d9:d0:3f:6e:61:ca:ac:74:
         bd:f2:55:29:e2:2d:83:be:9b:7b:55:1f:4e:fd:4b:ce:6f:d5:
         b4:2e:9d:e5:e5:7b:9f:29:1d:c4:0e:34:90:29:8d:84:bd:67:
         ad:75:e3:4e:b2:f2:ce:7b:7f:ee:3c:5a:5f:93:d9:34:ed:b6:
         58:7b:a9:b6:dd:a0:64:9d:bb:80:59:8a:7c:74:ea:11:ea:84:
         d0:87:16:73
-----BEGIN CERTIFICATE-----
MIIDXTCCAkWgAwIBAgIRANDpscPeEaQyIZceAVZEBEUwDQYJKoZIhvcNAQELBQAw
FjEUMBIGA1UEAwwLdGVhbTQyMi1uZXQwHhcNMjEwOTEzMDIzNTQwWhcNMjQwODI4
MDIzNTQwWjAZMRcwFQYDVQQDDA50ZWFtNDIyLWNsaWVudDCCASIwDQYJKoZIhvcN
AQEBBQADggEPADCCAQoCggEBAPbo2x+uetn5tLBATuhW6w96LK8HXQOEFmDRJFWu
b4wWulZbK+pb0MdCvB7L3yweT9onRtk0pscbQcBEAziyoVo9Dek16srgQ0xILDjf
230uhjtH3lvcRTQbemz6XEfo69uUPKuPVOpyGMBj1Zn0JkcMb8DAa+U6PsOczyiR
+gm9ABKmfCVYQ82ui4WNvSJlWfs3q9iB+9OD+7iLPz8UGZBFpocQm3bvKo7PS/VU
c0v0RzavLrC2lc0UKKjJE5ECAC8nry86eYnbz12XEXmce15DspdE7oE1R5Z7FCmw
9h4w112UHLEdplv5cOTuh50BGTluqvpu0u4vicK/vtI4kQECAwEAAaOBojCBnzAJ
BgNVHRMEAjAAMB0GA1UdDgQWBBT6uAaNvpDVP5T6l3tFlilZsFahNTBRBgNVHSME
SjBIgBTAEzlLnROuzuiB09Kh2Zgk7S9mGKEapBgwFjEUMBIGA1UEAwwLdGVhbTQy
Mi1uZXSCFDZ+68QY6IXI9OM4CKkm5ZnK6VB2MBMGA1UdJQQMMAoGCCsGAQUFBwMC
MAsGA1UdDwQEAwIHgDANBgkqhkiG9w0BAQsFAAOCAQEAs4tALD+pe7sH/biOPwEX
mebI/vW7MNjyWXITqaGIoMT3fiepQ3VBjpOcGCA2OzulCZAMXQyULt1g29BXP1co
rJdRZfBIbs9rPUy4NAartAU4sCDUipo1emwNn+Sy5GlAQQxHWfpiqmdB+Yogi3QS
75aMETiMX6pI0N0zwHvWOPw01lggCFqirsd9RaCIkjOnqG8tYEZkJCBwHzPnY7D1
VS9ScSeMZSV25K4qatnQP25hyqx0vfJVKeItg76be1UfTv1Lzm/VtC6d5eV7nykd
xA40kCmNhL1nrXXjTrLyznt/7jxaX5PZNO22WHuptt2gZJ27gFmKfHTqEeqE0IcW
cw==
-----END CERTIFICATE-----
