Certificate:
    Data:
        Version: 3 (0x2)
        Serial Number:
            a2:41:be:0f:89:3e:f8:fb:ac:07:7d:ed:6a:e1:4c:82
        Signature Algorithm: sha256WithRSAEncryption
        Issuer: CN=team587-net
        Validity
            Not Before: Sep 13 03:54:10 2021 GMT
            Not After : Aug 28 03:54:10 2024 GMT
        Subject: CN=team587-client
        Subject Public Key Info:
            Public Key Algorithm: rsaEncryption
                RSA Public-Key: (2048 bit)
                Modulus:
                    00:c3:a1:54:45:b5:dc:89:1b:37:3c:3c:c9:34:8b:
                    2d:66:e6:4e:d3:3a:ea:5c:4c:e3:12:9b:e9:11:d5:
                    89:05:23:2f:7f:8d:53:30:84:7a:63:f2:86:97:bc:
                    a4:ef:96:a7:c6:79:b5:6d:71:86:29:3c:53:fa:e4:
                    83:97:28:4f:5a:a1:06:62:d4:da:3e:e3:85:5e:de:
                    04:11:39:69:88:87:48:c3:ec:39:09:8e:e1:c6:8d:
                    17:c5:45:a4:ff:24:8f:5a:e8:f6:80:f2:71:a8:97:
                    42:64:fb:bb:4e:44:26:d9:ad:43:5e:cd:98:d0:87:
                    4d:51:81:02:cd:2b:e6:dc:7b:76:66:c5:f0:ce:19:
                    be:16:1d:c2:8f:6b:8c:69:62:96:f4:7d:e3:34:40:
                    d9:f3:8e:9b:73:0b:f5:83:bd:cc:8c:03:6a:27:03:
                    4a:e7:2c:56:7e:9d:59:c9:32:58:0c:91:ff:6c:6d:
                    d7:26:9b:0a:8b:05:00:c4:4e:00:48:79:4a:98:2a:
                    d6:4d:98:0a:a7:f1:8f:17:f8:48:22:fb:5a:f5:1b:
                    84:a8:32:5e:b1:52:b5:57:a9:59:36:a6:ee:3f:99:
                    1f:7d:52:ff:ab:98:dd:ab:0c:ec:c3:c0:70:bc:0c:
                    7e:b4:0a:7b:1f:bb:43:ee:a7:97:9d:78:da:cb:8d:
                    4d:99
                Exponent: 65537 (0x10001)
        X509v3 extensions:
            X509v3 Basic Constraints: 
                CA:FALSE
            X509v3 Subject Key Identifier: 
                11:B5:F0:60:33:01:06:0D:48:6C:4F:DF:54:6A:60:17:21:18:AC:9A
            X509v3 Authority Key Identifier: 
                keyid:2A:66:52:86:E1:30:5A:59:E7:99:AF:47:BD:45:B6:3D:88:8B:B1:CA
                DirName:/CN=team587-net
                serial:4A:F0:62:6C:8C:7C:C6:17:19:4F:B7:07:3A:11:B9:A8:85:66:B7:ED

            X509v3 Extended Key Usage: 
                TLS Web Client Authentication
            X509v3 Key Usage: 
                Digital Signature
    Signature Algorithm: sha256WithRSAEncryption
         36:fd:25:e8:72:91:02:70:24:7c:b7:a8:0d:d0:2e:8f:d4:15:
         fd:3d:bf:44:d1:78:02:92:66:ab:96:1f:4a:c3:76:1e:de:59:
         f2:98:fc:ec:5a:28:95:57:aa:ba:df:53:ab:a3:21:51:d3:9d:
         f3:08:65:e8:07:73:2b:5a:43:2c:5e:81:f7:a6:3e:0d:63:b6:
         77:c7:6f:59:07:f3:e7:79:c7:a9:89:59:6a:0b:5b:c7:11:fa:
         a3:71:9f:2f:81:45:89:40:f8:d8:45:45:c4:51:31:37:e4:7d:
         86:a1:95:50:f8:93:c2:ab:1a:bb:19:92:6e:45:98:80:85:9a:
         80:c1:6e:e0:ea:bb:a6:12:9a:a4:b4:6f:03:02:9a:8e:06:a6:
         a2:02:26:d5:e8:7b:3b:07:f4:ed:13:e1:a1:5f:52:49:68:bb:
         5c:90:1f:34:28:96:7c:71:f9:38:26:81:cf:e1:4f:d8:39:2e:
         e4:b8:0b:fa:38:91:8b:ff:7a:a4:d4:58:07:72:a2:3f:90:92:
         b3:2e:56:27:f1:09:b8:51:b3:15:41:db:42:4b:3d:83:20:97:
         6d:67:3f:77:6c:c9:bc:3e:b1:82:e4:64:39:61:bb:6a:00:47:
         87:c0:31:8b:af:0b:dc:08:8d:51:84:95:6b:f1:b9:37:f5:37:
         12:1d:cc:72
-----BEGIN CERTIFICATE-----
MIIDXTCCAkWgAwIBAgIRAKJBvg+JPvj7rAd97WrhTIIwDQYJKoZIhvcNAQELBQAw
FjEUMBIGA1UEAwwLdGVhbTU4Ny1uZXQwHhcNMjEwOTEzMDM1NDEwWhcNMjQwODI4
MDM1NDEwWjAZMRcwFQYDVQQDDA50ZWFtNTg3LWNsaWVudDCCASIwDQYJKoZIhvcN
AQEBBQADggEPADCCAQoCggEBAMOhVEW13IkbNzw8yTSLLWbmTtM66lxM4xKb6RHV
iQUjL3+NUzCEemPyhpe8pO+Wp8Z5tW1xhik8U/rkg5coT1qhBmLU2j7jhV7eBBE5
aYiHSMPsOQmO4caNF8VFpP8kj1ro9oDycaiXQmT7u05EJtmtQ17NmNCHTVGBAs0r
5tx7dmbF8M4ZvhYdwo9rjGlilvR94zRA2fOOm3ML9YO9zIwDaicDSucsVn6dWcky
WAyR/2xt1yabCosFAMROAEh5Spgq1k2YCqfxjxf4SCL7WvUbhKgyXrFStVepWTam
7j+ZH31S/6uY3asM7MPAcLwMfrQKex+7Q+6nl5142suNTZkCAwEAAaOBojCBnzAJ
BgNVHRMEAjAAMB0GA1UdDgQWBBQRtfBgMwEGDUhsT99UamAXIRismjBRBgNVHSME
SjBIgBQqZlKG4TBaWeeZr0e9RbY9iIuxyqEapBgwFjEUMBIGA1UEAwwLdGVhbTU4
Ny1uZXSCFErwYmyMfMYXGU+3BzoRuaiFZrftMBMGA1UdJQQMMAoGCCsGAQUFBwMC
MAsGA1UdDwQEAwIHgDANBgkqhkiG9w0BAQsFAAOCAQEANv0l6HKRAnAkfLeoDdAu
j9QV/T2/RNF4ApJmq5YfSsN2Ht5Z8pj87FoolVequt9Tq6MhUdOd8whl6AdzK1pD
LF6B96Y+DWO2d8dvWQfz53nHqYlZagtbxxH6o3GfL4FFiUD42EVFxFExN+R9hqGV
UPiTwqsauxmSbkWYgIWagMFu4Oq7phKapLRvAwKajgamogIm1eh7Owf07RPhoV9S
SWi7XJAfNCiWfHH5OCaBz+FP2Dku5LgL+jiRi/96pNRYB3KiP5CSsy5WJ/EJuFGz
FUHbQks9gyCXbWc/d2zJvD6xguRkOWG7agBHh8Axi68L3AiNUYSVa/G5N/U3Eh3M
cg==
-----END CERTIFICATE-----
