Certificate:
    Data:
        Version: 3 (0x2)
        Serial Number:
            9e:2f:8a:a3:77:83:5a:c2:b5:e8:db:54:a2:92:94:b7
        Signature Algorithm: sha256WithRSAEncryption
        Issuer: CN=team633-net
        Validity
            Not Before: Sep 13 04:40:38 2021 GMT
            Not After : Aug 28 04:40:38 2024 GMT
        Subject: CN=team633-client
        Subject Public Key Info:
            Public Key Algorithm: rsaEncryption
                RSA Public-Key: (2048 bit)
                Modulus:
                    00:d3:d4:6c:aa:10:4e:12:f9:a2:1d:f0:2b:b1:59:
                    ea:12:46:47:ed:68:44:87:5a:0a:6c:3e:21:7b:f9:
                    20:be:9f:d3:ff:e2:51:70:4a:59:51:79:b7:f4:34:
                    64:30:a8:d6:e8:47:1d:b8:4d:13:a5:fd:cf:98:e9:
                    ad:80:4d:70:df:60:87:25:2f:c3:76:fb:70:c3:77:
                    64:16:02:87:bb:02:ee:bb:2a:37:34:d2:4a:75:25:
                    9f:6a:2e:b3:f9:e3:18:2a:0e:86:f2:33:ee:3d:64:
                    ce:a5:40:16:f6:fc:a6:8f:72:d3:72:0a:a8:53:37:
                    76:b4:aa:3f:a9:96:b8:56:37:1f:c4:2f:3c:cf:3d:
                    77:1a:f5:a2:8a:9a:f5:a3:32:e8:66:08:04:31:10:
                    d5:49:6a:fe:2b:5f:f6:a3:b7:7a:cd:1f:1b:f4:a6:
                    b2:c2:75:ee:69:f2:66:b5:b7:14:d9:98:e1:13:ea:
                    c4:12:a3:1e:f5:40:1f:74:df:65:b9:bb:8c:9e:76:
                    8c:24:64:d0:fe:41:ca:73:ed:da:99:8c:c4:2b:5e:
                    64:69:97:b4:34:6e:44:58:fe:fe:62:de:97:9d:d1:
                    25:7f:fa:90:2b:1e:40:09:18:32:7c:d2:b9:ab:26:
                    ae:32:4d:85:49:1c:c9:3a:fa:a9:e2:f1:90:45:75:
                    7d:c7
                Exponent: 65537 (0x10001)
        X509v3 extensions:
            X509v3 Basic Constraints: 
                CA:FALSE
            X509v3 Subject Key Identifier: 
                85:2F:D9:E2:A2:9C:68:3C:7A:3C:71:76:1E:9D:50:F3:7A:7A:B0:8D
            X509v3 Authority Key Identifier: 
                keyid:FC:30:FF:54:BB:CE:48:84:3C:51:9A:D6:C1:63:44:99:CD:F1:76:CA
                DirName:/CN=team633-net
                serial:50:75:21:1C:98:5E:61:4A:4B:64:6D:61:35:33:99:CA:98:8B:59:F2

            X509v3 Extended Key Usage: 
                TLS Web Client Authentication
            X509v3 Key Usage: 
                Digital Signature
    Signature Algorithm: sha256WithRSAEncryption
         0f:3c:ee:f4:70:80:18:84:40:ea:82:9e:c7:c2:9d:72:29:83:
         9d:e1:e1:d4:f1:c9:d6:cd:f8:cf:93:36:c5:b6:17:4d:df:45:
         53:1d:c6:25:b6:f6:43:6f:10:83:14:01:b5:fd:f7:21:47:af:
         2d:50:bd:a7:49:d6:6a:43:8b:74:db:67:15:58:4d:26:fc:96:
         30:bc:3f:7a:d3:86:78:79:29:82:64:e9:20:34:67:e0:74:04:
         da:a4:05:91:91:22:66:01:71:8f:d5:30:8b:7c:da:76:28:cd:
         fb:97:28:26:5f:50:e2:6f:c2:c7:c4:3f:42:ce:bf:fc:eb:2a:
         95:4b:3f:40:1e:61:e3:10:d5:86:9e:50:b0:bd:37:72:28:05:
         59:80:8c:f0:95:e2:e6:9c:f4:4a:c4:f2:0c:46:51:d8:d7:f9:
         b4:b0:03:73:9d:86:73:64:fe:88:6b:be:64:98:be:82:d9:e7:
         b1:98:67:7c:f1:af:df:f7:69:87:bd:d0:45:90:94:65:4a:da:
         8b:dd:40:63:4e:2d:18:e0:14:32:06:6f:58:6e:a5:09:08:e8:
         05:da:06:0b:19:d4:4d:54:34:d8:9a:73:aa:1d:77:04:eb:17:
         29:d0:05:1b:cc:b4:dc:35:a1:a1:3d:77:ee:d7:f7:23:4f:6e:
         c1:67:95:67
-----BEGIN CERTIFICATE-----
MIIDXTCCAkWgAwIBAgIRAJ4viqN3g1rCtejbVKKSlLcwDQYJKoZIhvcNAQELBQAw
FjEUMBIGA1UEAwwLdGVhbTYzMy1uZXQwHhcNMjEwOTEzMDQ0MDM4WhcNMjQwODI4
MDQ0MDM4WjAZMRcwFQYDVQQDDA50ZWFtNjMzLWNsaWVudDCCASIwDQYJKoZIhvcN
AQEBBQADggEPADCCAQoCggEBANPUbKoQThL5oh3wK7FZ6hJGR+1oRIdaCmw+IXv5
IL6f0//iUXBKWVF5t/Q0ZDCo1uhHHbhNE6X9z5jprYBNcN9ghyUvw3b7cMN3ZBYC
h7sC7rsqNzTSSnUln2ous/njGCoOhvIz7j1kzqVAFvb8po9y03IKqFM3drSqP6mW
uFY3H8QvPM89dxr1ooqa9aMy6GYIBDEQ1Ulq/itf9qO3es0fG/SmssJ17mnyZrW3
FNmY4RPqxBKjHvVAH3TfZbm7jJ52jCRk0P5BynPt2pmMxCteZGmXtDRuRFj+/mLe
l53RJX/6kCseQAkYMnzSuasmrjJNhUkcyTr6qeLxkEV1fccCAwEAAaOBojCBnzAJ
BgNVHRMEAjAAMB0GA1UdDgQWBBSFL9niopxoPHo8cXYenVDzenqwjTBRBgNVHSME
SjBIgBT8MP9Uu85IhDxRmtbBY0SZzfF2yqEapBgwFjEUMBIGA1UEAwwLdGVhbTYz
My1uZXSCFFB1IRyYXmFKS2RtYTUzmcqYi1nyMBMGA1UdJQQMMAoGCCsGAQUFBwMC
MAsGA1UdDwQEAwIHgDANBgkqhkiG9w0BAQsFAAOCAQEADzzu9HCAGIRA6oKex8Kd
cimDneHh1PHJ1s34z5M2xbYXTd9FUx3GJbb2Q28QgxQBtf33IUevLVC9p0nWakOL
dNtnFVhNJvyWMLw/etOGeHkpgmTpIDRn4HQE2qQFkZEiZgFxj9Uwi3zadijN+5co
Jl9Q4m/Cx8Q/Qs6//OsqlUs/QB5h4xDVhp5QsL03cigFWYCM8JXi5pz0SsTyDEZR
2Nf5tLADc52Gc2T+iGu+ZJi+gtnnsZhnfPGv3/dph73QRZCUZUrai91AY04tGOAU
MgZvWG6lCQjoBdoGCxnUTVQ02Jpzqh13BOsXKdAFG8y03DWhoT137tf3I09uwWeV
Zw==
-----END CERTIFICATE-----
