Certificate:
    Data:
        Version: 3 (0x2)
        Serial Number:
            3f:75:5d:a0:d9:0d:7c:37:a4:58:89:6c:cc:8f:48:ef
        Signature Algorithm: sha256WithRSAEncryption
        Issuer: CN=team570-net
        Validity
            Not Before: Sep 13 03:57:46 2021 GMT
            Not After : Aug 28 03:57:46 2024 GMT
        Subject: CN=team570-server
        Subject Public Key Info:
            Public Key Algorithm: rsaEncryption
                RSA Public-Key: (2048 bit)
                Modulus:
                    00:d0:ae:be:39:7e:5a:41:5d:bf:a3:ae:a1:61:ec:
                    e4:f8:55:7f:b2:f5:24:15:22:19:6a:6c:0d:14:33:
                    cf:ba:c7:b2:46:1a:36:a3:33:31:3b:1f:19:ce:67:
                    b8:2f:a6:fe:38:a9:0b:e9:04:c4:f4:3b:50:e6:65:
                    0e:03:3a:70:90:32:35:3b:3b:ef:b0:49:52:8e:06:
                    d5:a6:18:e3:38:4e:bd:81:01:95:e5:33:43:24:69:
                    cd:6a:f3:aa:df:31:3a:da:a0:e7:dc:1e:da:91:78:
                    4f:5a:72:54:f6:ff:a7:67:12:dc:0a:da:65:8b:53:
                    dd:a2:13:ad:9c:70:45:dd:04:4c:ea:ea:f2:98:3c:
                    c2:58:fc:83:00:f2:39:d9:bc:cd:cf:7f:f1:0f:20:
                    da:09:74:05:56:9d:57:da:6e:c1:c8:15:8c:43:fc:
                    9d:d7:df:ac:2a:13:0b:dc:b3:17:e2:e0:b6:85:24:
                    4e:82:27:ab:21:0a:40:7b:c4:d3:86:e8:a9:b2:db:
                    64:d7:f7:6d:b8:40:d5:4a:b7:38:d2:87:84:9a:94:
                    46:7e:07:90:94:8e:f3:b8:45:d4:85:7d:6d:2b:c3:
                    e0:95:97:8e:75:12:b5:34:f4:a8:0f:c0:43:4a:15:
                    e3:aa:c4:79:a4:85:19:d0:14:1e:a0:2e:76:98:47:
                    55:d1
                Exponent: 65537 (0x10001)
        X509v3 extensions:
            X509v3 Basic Constraints: 
                CA:FALSE
            X509v3 Subject Key Identifier: 
                B4:7B:39:A0:A1:4E:6F:BC:48:A1:77:67:F4:3E:39:A5:D8:53:F0:6F
            X509v3 Authority Key Identifier: 
                keyid:D0:43:AB:B1:6C:85:F6:A1:16:D1:3F:09:79:E0:0F:91:BC:47:EC:0C
                DirName:/CN=team570-net
                serial:48:E0:F2:79:A2:11:22:8C:E5:7D:7E:55:23:F4:E5:C5:5C:11:22:6D

            X509v3 Extended Key Usage: 
                TLS Web Server Authentication
            X509v3 Key Usage: 
                Digital Signature, Key Encipherment
            X509v3 Subject Alternative Name: 
                DNS:team570-server
    Signature Algorithm: sha256WithRSAEncryption
         dc:54:04:ca:fb:69:5a:cf:bb:85:d8:12:ca:5f:ed:71:3d:94:
         e6:8a:bf:f2:d2:48:e5:78:fc:bc:cc:ae:c1:12:0c:55:e3:d4:
         fb:90:ec:4a:93:9b:d1:1f:b3:97:31:95:6b:e5:bb:36:29:8e:
         a0:5c:da:d8:40:59:07:99:ab:f2:10:20:8b:5e:62:ac:fe:f6:
         9d:e5:27:fd:26:17:f2:b8:b7:81:18:c0:c5:ec:6c:29:3a:30:
         4b:f9:03:66:8e:13:e1:a3:a5:55:92:90:25:3e:ed:a6:2b:3b:
         1e:32:58:d8:09:66:dd:28:32:74:a0:ff:b5:f8:78:a9:bd:6f:
         92:c7:5b:2c:34:96:6d:99:20:c9:3a:93:34:a4:ed:ce:5e:b4:
         7d:d2:e1:69:e0:07:d9:3a:ee:a0:22:58:58:05:22:f4:75:eb:
         42:fd:75:34:b3:bf:6d:f5:78:5f:87:7b:d9:89:b2:95:28:6f:
         aa:01:f2:c2:7a:d4:61:da:8a:ef:ab:dc:93:bb:1a:b8:36:99:
         63:85:2c:a1:d0:e0:77:59:7f:0f:5f:c1:a6:60:d8:86:56:6c:
         a0:43:d8:5f:87:97:5c:16:92:74:a5:3e:f8:6c:96:3a:75:73:
         30:a9:cf:5d:4c:ed:49:f5:79:da:91:ff:c9:c3:1d:a3:70:2a:
         98:0c:0e:09
-----BEGIN CERTIFICATE-----
MIIDdzCCAl+gAwIBAgIQP3VdoNkNfDekWIlszI9I7zANBgkqhkiG9w0BAQsFADAW
MRQwEgYDVQQDDAt0ZWFtNTcwLW5ldDAeFw0yMTA5MTMwMzU3NDZaFw0yNDA4Mjgw
MzU3NDZaMBkxFzAVBgNVBAMMDnRlYW01NzAtc2VydmVyMIIBIjANBgkqhkiG9w0B
AQEFAAOCAQ8AMIIBCgKCAQEA0K6+OX5aQV2/o66hYezk+FV/svUkFSIZamwNFDPP
useyRho2ozMxOx8Zzme4L6b+OKkL6QTE9DtQ5mUOAzpwkDI1OzvvsElSjgbVphjj
OE69gQGV5TNDJGnNavOq3zE62qDn3B7akXhPWnJU9v+nZxLcCtpli1PdohOtnHBF
3QRM6urymDzCWPyDAPI52bzNz3/xDyDaCXQFVp1X2m7ByBWMQ/yd19+sKhML3LMX
4uC2hSROgierIQpAe8TThuipsttk1/dtuEDVSrc40oeEmpRGfgeQlI7zuEXUhX1t
K8PglZeOdRK1NPSoD8BDShXjqsR5pIUZ0BQeoC52mEdV0QIDAQABo4G9MIG6MAkG
A1UdEwQCMAAwHQYDVR0OBBYEFLR7OaChTm+8SKF3Z/Q+OaXYU/BvMFEGA1UdIwRK
MEiAFNBDq7FshfahFtE/CXngD5G8R+wMoRqkGDAWMRQwEgYDVQQDDAt0ZWFtNTcw
LW5ldIIUSODyeaIRIozlfX5VI/TlxVwRIm0wEwYDVR0lBAwwCgYIKwYBBQUHAwEw
CwYDVR0PBAQDAgWgMBkGA1UdEQQSMBCCDnRlYW01NzAtc2VydmVyMA0GCSqGSIb3
DQEBCwUAA4IBAQDcVATK+2laz7uF2BLKX+1xPZTmir/y0kjlePy8zK7BEgxV49T7
kOxKk5vRH7OXMZVr5bs2KY6gXNrYQFkHmavyECCLXmKs/vad5Sf9JhfyuLeBGMDF
7GwpOjBL+QNmjhPho6VVkpAlPu2mKzseMljYCWbdKDJ0oP+1+HipvW+Sx1ssNJZt
mSDJOpM0pO3OXrR90uFp4AfZOu6gIlhYBSL0detC/XU0s79t9Xhfh3vZibKVKG+q
AfLCetRh2orvq9yTuxq4NpljhSyh0OB3WX8PX8GmYNiGVmygQ9hfh5dcFpJ0pT74
bJY6dXMwqc9dTO1J9Xnakf/Jwx2jcCqYDA4J
-----END CERTIFICATE-----
