Certificate:
    Data:
        Version: 3 (0x2)
        Serial Number:
            dc:37:8e:ea:0b:65:4a:2f:bf:8c:ca:d9:93:39:81:96
        Signature Algorithm: sha256WithRSAEncryption
        Issuer: CN=team570-net
        Validity
            Not Before: Sep 13 03:57:45 2021 GMT
            Not After : Aug 28 03:57:45 2024 GMT
        Subject: CN=team570-client
        Subject Public Key Info:
            Public Key Algorithm: rsaEncryption
                RSA Public-Key: (2048 bit)
                Modulus:
                    00:b1:d0:dc:c3:22:e6:93:47:dc:c3:80:dd:07:83:
                    29:79:5e:ff:09:7f:ac:2a:33:65:33:50:f9:13:b9:
                    25:0d:32:9a:6d:70:06:49:92:36:00:05:1c:0d:a9:
                    b6:0b:3c:58:0a:85:a6:1f:74:f4:c0:c1:9f:6e:e6:
                    52:64:d9:1b:8f:9f:17:13:44:13:87:75:0c:ea:35:
                    c7:17:07:c2:0c:52:a8:8d:3c:78:53:97:6b:0e:83:
                    f7:2a:d9:cd:2e:b1:2f:ed:2d:73:6c:d1:1e:83:54:
                    fb:3e:f0:c6:25:b1:92:ce:14:d0:08:a9:e4:50:28:
                    18:e4:10:b9:9a:6f:94:99:9d:12:92:da:04:25:f0:
                    c6:f6:10:b9:59:2d:55:7e:0d:34:87:71:7c:b5:87:
                    4a:e3:ae:d9:4a:cf:bb:94:3c:8c:45:c1:e6:72:de:
                    ac:10:e8:61:7c:c3:63:2c:f7:a2:52:d1:e9:31:71:
                    36:7e:9a:f8:da:d2:5d:73:01:2a:cc:2f:67:01:f1:
                    9e:8b:d4:70:35:3b:8c:63:17:eb:70:6e:84:0e:13:
                    f5:5e:5d:5a:22:98:34:8a:2e:79:0c:32:46:48:21:
                    fb:e3:3a:b2:13:db:c6:db:7b:cc:a9:50:1f:15:bd:
                    76:31:58:a2:48:30:88:72:5c:ff:b9:19:23:8e:94:
                    3e:11
                Exponent: 65537 (0x10001)
        X509v3 extensions:
            X509v3 Basic Constraints: 
                CA:FALSE
            X509v3 Subject Key Identifier: 
                10:51:BC:8E:DE:96:E3:58:C5:B4:B7:E9:E4:71:00:FC:23:A0:D6:E2
            X509v3 Authority Key Identifier: 
                keyid:D0:43:AB:B1:6C:85:F6:A1:16:D1:3F:09:79:E0:0F:91:BC:47:EC:0C
                DirName:/CN=team570-net
                serial:48:E0:F2:79:A2:11:22:8C:E5:7D:7E:55:23:F4:E5:C5:5C:11:22:6D

            X509v3 Extended Key Usage: 
                TLS Web Client Authentication
            X509v3 Key Usage: 
                Digital Signature
    Signature Algorithm: sha256WithRSAEncryption
         04:8f:f0:fc:be:4e:ff:23:ff:6d:63:44:1e:47:02:a6:e2:bd:
         7f:b3:38:a5:29:8d:24:4e:40:77:4e:e7:0d:cd:c4:4e:2a:d3:
         92:0a:33:b5:c7:36:e9:c4:6c:62:6f:b3:ab:84:b6:58:67:56:
         8c:27:9c:b4:fb:f4:6a:98:1b:ad:d7:57:8e:0d:10:40:75:2b:
         da:19:b4:d6:cf:14:c2:17:50:87:0a:08:48:55:df:19:57:1d:
         f7:47:15:cc:e3:c5:c3:ec:8f:ff:c7:e7:e7:f7:05:bd:61:c7:
         f4:1e:08:78:03:25:ee:98:a0:c2:3c:ec:62:55:36:cc:bb:89:
         d1:f6:96:45:cc:c8:b9:29:d9:a1:b3:1c:09:90:90:93:1f:fc:
         d3:eb:1a:e8:b1:0e:49:ca:8e:2b:3e:12:55:7c:26:f1:37:70:
         2e:bd:cd:3d:ef:01:c2:9f:22:3a:c0:fb:90:34:90:7c:02:97:
         ab:c2:87:32:a5:57:c3:48:3c:7e:1e:14:c3:e8:7e:f4:b1:89:
         63:1b:1a:5f:2a:9d:c3:f4:4d:d9:7d:59:1d:25:47:56:42:40:
         64:08:f2:2f:0d:8c:21:05:67:0c:77:de:09:82:ca:2e:17:55:
         1a:b1:12:7c:09:3d:0c:a3:89:7d:1d:85:57:11:7f:6e:79:4f:
         e0:34:0f:1d
-----BEGIN CERTIFICATE-----
MIIDXTCCAkWgAwIBAgIRANw3juoLZUovv4zK2ZM5gZYwDQYJKoZIhvcNAQELBQAw
FjEUMBIGA1UEAwwLdGVhbTU3MC1uZXQwHhcNMjEwOTEzMDM1NzQ1WhcNMjQwODI4
MDM1NzQ1WjAZMRcwFQYDVQQDDA50ZWFtNTcwLWNsaWVudDCCASIwDQYJKoZIhvcN
AQEBBQADggEPADCCAQoCggEBALHQ3MMi5pNH3MOA3QeDKXle/wl/rCozZTNQ+RO5
JQ0ymm1wBkmSNgAFHA2ptgs8WAqFph909MDBn27mUmTZG4+fFxNEE4d1DOo1xxcH
wgxSqI08eFOXaw6D9yrZzS6xL+0tc2zRHoNU+z7wxiWxks4U0Aip5FAoGOQQuZpv
lJmdEpLaBCXwxvYQuVktVX4NNIdxfLWHSuOu2UrPu5Q8jEXB5nLerBDoYXzDYyz3
olLR6TFxNn6a+NrSXXMBKswvZwHxnovUcDU7jGMX63BuhA4T9V5dWiKYNIoueQwy
Rkgh++M6shPbxtt7zKlQHxW9djFYokgwiHJc/7kZI46UPhECAwEAAaOBojCBnzAJ
BgNVHRMEAjAAMB0GA1UdDgQWBBQQUbyO3pbjWMW0t+nkcQD8I6DW4jBRBgNVHSME
SjBIgBTQQ6uxbIX2oRbRPwl54A+RvEfsDKEapBgwFjEUMBIGA1UEAwwLdGVhbTU3
MC1uZXSCFEjg8nmiESKM5X1+VSP05cVcESJtMBMGA1UdJQQMMAoGCCsGAQUFBwMC
MAsGA1UdDwQEAwIHgDANBgkqhkiG9w0BAQsFAAOCAQEABI/w/L5O/yP/bWNEHkcC
puK9f7M4pSmNJE5Ad07nDc3ETirTkgoztcc26cRsYm+zq4S2WGdWjCectPv0apgb
rddXjg0QQHUr2hm01s8UwhdQhwoISFXfGVcd90cVzOPFw+yP/8fn5/cFvWHH9B4I
eAMl7pigwjzsYlU2zLuJ0faWRczIuSnZobMcCZCQkx/80+sa6LEOScqOKz4SVXwm
8TdwLr3NPe8Bwp8iOsD7kDSQfAKXq8KHMqVXw0g8fh4Uw+h+9LGJYxsaXyqdw/RN
2X1ZHSVHVkJAZAjyLw2MIQVnDHfeCYLKLhdVGrESfAk9DKOJfR2FVxF/bnlP4DQP
HQ==
-----END CERTIFICATE-----
