Certificate:
    Data:
        Version: 3 (0x2)
        Serial Number:
            8c:f2:06:56:42:eb:1c:79:6a:3e:00:29:5e:28:19:48
        Signature Algorithm: sha256WithRSAEncryption
        Issuer: CN=team112-net
        Validity
            Not Before: Sep 12 23:46:20 2021 GMT
            Not After : Aug 27 23:46:20 2024 GMT
        Subject: CN=team112-client
        Subject Public Key Info:
            Public Key Algorithm: rsaEncryption
                RSA Public-Key: (2048 bit)
                Modulus:
                    00:bc:50:0e:e1:69:14:f5:58:ab:96:38:e8:a6:09:
                    18:d6:7b:07:fe:8d:ee:7f:5a:13:3d:72:45:29:83:
                    94:44:8a:39:a3:ac:1f:98:09:c1:a0:51:27:56:6e:
                    13:f7:aa:aa:fc:16:ed:56:3a:da:4d:1f:25:76:53:
                    b4:92:07:5e:5d:26:a8:df:fd:ec:46:60:90:63:c7:
                    94:f8:1c:8a:55:75:ea:4d:97:1e:99:ae:7b:58:63:
                    26:fc:40:81:61:09:99:cd:48:bc:34:f2:51:03:80:
                    53:a3:52:a5:1a:93:03:d6:4f:2a:61:6b:ec:e9:cb:
                    b3:d2:da:08:af:1a:80:2d:af:1a:c1:92:2d:12:49:
                    f4:ad:88:8c:72:f6:53:fc:3b:82:37:73:2d:d2:3a:
                    c6:45:26:4a:11:52:dd:48:99:70:44:30:ff:82:2c:
                    18:c9:29:07:07:a5:aa:e9:5a:b9:f3:04:77:c7:a2:
                    49:16:46:75:03:98:22:a3:21:d1:77:cd:79:8e:1c:
                    4a:18:6b:b9:54:01:76:04:be:4a:b4:cc:30:9d:7b:
                    26:fb:08:64:c3:4c:ed:52:a8:e3:e1:7c:83:8e:5d:
                    6b:11:be:a4:34:5e:4c:b4:51:86:e2:8c:79:d4:d2:
                    20:94:76:7f:1b:aa:54:a7:fc:da:10:64:1a:12:a3:
                    77:43
                Exponent: 65537 (0x10001)
        X509v3 extensions:
            X509v3 Basic Constraints: 
                CA:FALSE
            X509v3 Subject Key Identifier: 
                40:A9:98:B2:B7:65:B3:7A:3A:92:55:EC:94:B9:97:02:EB:5B:65:A4
            X509v3 Authority Key Identifier: 
                keyid:A1:EC:0E:48:36:46:DE:E1:1B:81:5F:08:0C:EE:DC:7E:DA:59:B6:62
                DirName:/CN=team112-net
                serial:20:08:0A:1A:53:79:3B:97:93:04:13:32:14:6B:CD:C4:AE:30:18:DD

            X509v3 Extended Key Usage: 
                TLS Web Client Authentication
            X509v3 Key Usage: 
                Digital Signature
    Signature Algorithm: sha256WithRSAEncryption
         16:2d:78:10:72:1e:ef:ef:36:df:3e:ab:35:e9:e0:39:a8:ce:
         94:b4:6a:9b:b9:d8:65:da:4e:71:03:ac:28:a1:15:d1:39:79:
         7a:36:81:62:a1:3c:af:a3:b2:87:b7:71:85:e8:a1:b9:07:79:
         5f:e1:76:42:de:94:3f:65:b0:1a:d0:58:d1:a9:5f:2a:f1:66:
         8f:4e:74:93:a1:0f:b9:d7:da:24:2d:d0:8d:8d:80:61:ca:10:
         86:00:1d:82:4e:d8:5d:ec:da:da:a7:4e:04:45:8b:42:e9:f4:
         68:6f:18:62:48:19:74:66:37:f3:89:3a:e9:e4:f5:69:0d:75:
         1e:19:48:81:5f:1a:43:58:d5:3c:76:1c:ad:8f:31:8f:98:f9:
         cb:dc:24:02:2f:1e:08:db:5b:3d:a5:59:9a:6b:21:cf:d1:cd:
         f3:4a:ed:9c:49:a0:34:bc:bf:9c:51:cf:8c:01:73:20:c7:20:
         3b:02:d4:d0:bd:4c:ac:f4:ae:de:54:c1:e7:d8:6b:38:3c:17:
         5a:1f:9c:a0:fa:0d:c3:66:65:80:66:4e:b5:ab:27:d6:80:de:
         20:fc:2c:1e:96:ce:60:c9:38:5a:9a:dc:24:bf:09:bf:c9:6f:
         dd:42:c6:f0:30:0a:07:94:5a:a7:f3:91:8c:bd:72:65:9b:f6:
         f1:97:4e:56
-----BEGIN CERTIFICATE-----
MIIDXTCCAkWgAwIBAgIRAIzyBlZC6xx5aj4AKV4oGUgwDQYJKoZIhvcNAQELBQAw
FjEUMBIGA1UEAwwLdGVhbTExMi1uZXQwHhcNMjEwOTEyMjM0NjIwWhcNMjQwODI3
MjM0NjIwWjAZMRcwFQYDVQQDDA50ZWFtMTEyLWNsaWVudDCCASIwDQYJKoZIhvcN
AQEBBQADggEPADCCAQoCggEBALxQDuFpFPVYq5Y46KYJGNZ7B/6N7n9aEz1yRSmD
lESKOaOsH5gJwaBRJ1ZuE/eqqvwW7VY62k0fJXZTtJIHXl0mqN/97EZgkGPHlPgc
ilV16k2XHpmue1hjJvxAgWEJmc1IvDTyUQOAU6NSpRqTA9ZPKmFr7OnLs9LaCK8a
gC2vGsGSLRJJ9K2IjHL2U/w7gjdzLdI6xkUmShFS3UiZcEQw/4IsGMkpBwelqula
ufMEd8eiSRZGdQOYIqMh0XfNeY4cShhruVQBdgS+SrTMMJ17JvsIZMNM7VKo4+F8
g45daxG+pDReTLRRhuKMedTSIJR2fxuqVKf82hBkGhKjd0MCAwEAAaOBojCBnzAJ
BgNVHRMEAjAAMB0GA1UdDgQWBBRAqZiyt2WzejqSVeyUuZcC61tlpDBRBgNVHSME
SjBIgBSh7A5INkbe4RuBXwgM7tx+2lm2YqEapBgwFjEUMBIGA1UEAwwLdGVhbTEx
Mi1uZXSCFCAIChpTeTuXkwQTMhRrzcSuMBjdMBMGA1UdJQQMMAoGCCsGAQUFBwMC
MAsGA1UdDwQEAwIHgDANBgkqhkiG9w0BAQsFAAOCAQEAFi14EHIe7+823z6rNeng
OajOlLRqm7nYZdpOcQOsKKEV0Tl5ejaBYqE8r6Oyh7dxheihuQd5X+F2Qt6UP2Ww
GtBY0alfKvFmj050k6EPudfaJC3QjY2AYcoQhgAdgk7YXeza2qdOBEWLQun0aG8Y
YkgZdGY384k66eT1aQ11HhlIgV8aQ1jVPHYcrY8xj5j5y9wkAi8eCNtbPaVZmmsh
z9HN80rtnEmgNLy/nFHPjAFzIMcgOwLU0L1MrPSu3lTB59hrODwXWh+coPoNw2Zl
gGZOtasn1oDeIPwsHpbOYMk4WprcJL8Jv8lv3ULG8DAKB5Rap/ORjL1yZZv28ZdO
Vg==
-----END CERTIFICATE-----
