Certificate:
    Data:
        Version: 3 (0x2)
        Serial Number:
            22:2b:9b:ea:91:28:bf:7a:92:ad:fb:1c:20:23:28:6b
        Signature Algorithm: sha256WithRSAEncryption
        Issuer: CN=team582-net
        Validity
            Not Before: Sep 13 03:51:17 2021 GMT
            Not After : Aug 28 03:51:17 2024 GMT
        Subject: CN=team582-server
        Subject Public Key Info:
            Public Key Algorithm: rsaEncryption
                RSA Public-Key: (2048 bit)
                Modulus:
                    00:b0:f5:41:4c:a9:b2:e0:18:d8:b9:0f:61:65:f0:
                    31:22:8a:42:ec:b1:79:53:91:19:6e:d1:a9:a9:be:
                    ef:86:f8:5b:50:ff:22:07:31:42:a3:a0:5c:dd:c9:
                    72:3f:97:ad:4e:e4:5c:02:79:31:c2:41:f7:0a:ee:
                    fc:7f:0b:07:4f:cc:6a:dc:3e:ad:84:1a:17:d0:27:
                    3f:eb:73:d2:83:10:5c:d7:17:fb:7e:e1:c3:eb:56:
                    03:66:d9:7e:2a:a1:62:97:18:e2:0a:0e:bc:f4:0a:
                    cf:ec:7d:b9:3b:ce:16:9f:e7:0b:25:ef:95:d4:04:
                    35:06:fb:35:11:b7:ce:3d:18:22:55:06:c5:52:ef:
                    5d:fc:18:c9:c4:05:30:49:ec:cd:ca:e6:5e:ea:3e:
                    67:15:0c:ea:cd:0e:5a:87:de:5e:d3:dc:64:42:3e:
                    15:4b:96:23:dd:aa:89:8a:f9:26:a7:99:a3:fc:f8:
                    f2:d9:06:17:92:b3:8b:c9:a1:93:f7:73:b5:d9:f0:
                    b4:27:37:ae:7f:7c:b8:fc:c7:83:0a:cf:13:ab:90:
                    eb:50:46:be:86:0f:db:1c:92:04:08:f5:c0:87:6f:
                    44:f2:c4:80:0e:ba:02:66:5c:2c:29:67:73:0c:22:
                    ca:4f:2e:45:07:66:44:cc:50:66:1a:6b:61:88:e0:
                    e3:6b
                Exponent: 65537 (0x10001)
        X509v3 extensions:
            X509v3 Basic Constraints: 
                CA:FALSE
            X509v3 Subject Key Identifier: 
                DD:98:8B:05:99:3D:50:1C:23:0E:EE:CD:58:98:BE:21:55:D1:CA:75
            X509v3 Authority Key Identifier: 
                keyid:4D:11:5D:26:8E:91:A5:4A:A9:CF:83:B6:F5:CE:36:59:97:56:01:3D
                DirName:/CN=team582-net
                serial:0F:6D:83:22:B9:F8:89:A1:2E:5E:4A:8D:68:96:EA:1A:EB:F6:7B:A0

            X509v3 Extended Key Usage: 
                TLS Web Server Authentication
            X509v3 Key Usage: 
                Digital Signature, Key Encipherment
            X509v3 Subject Alternative Name: 
                DNS:team582-server
    Signature Algorithm: sha256WithRSAEncryption
         7b:23:5d:f5:68:a0:c5:05:dc:1d:85:75:a5:ee:7e:6b:0f:06:
         1a:62:d4:0a:11:d6:1e:a0:d2:8d:97:82:d7:0e:56:3d:b5:4f:
         32:90:b5:78:2a:78:20:be:7b:b2:c7:4a:53:67:e1:40:15:f9:
         d9:bf:36:da:cd:ca:30:ef:62:01:82:a4:4a:55:bd:35:a0:10:
         7c:03:ff:ca:76:6c:4f:de:80:21:ad:5d:4f:90:c7:50:12:22:
         0b:5b:4d:93:d5:95:8c:9d:51:78:c8:2c:21:f4:34:7a:22:40:
         50:a4:6e:6a:cf:52:16:1f:a4:4e:00:4b:da:c5:6e:89:60:9a:
         dc:20:4f:06:8a:61:df:cf:a2:8d:39:00:57:e5:76:bc:8e:61:
         b1:8c:e9:07:38:f2:de:f4:8f:5c:3c:dc:a0:c4:6c:c3:5d:79:
         86:26:29:72:ae:2a:71:f2:d6:40:a6:23:b8:11:3c:85:11:a4:
         72:0f:de:34:67:12:a5:c0:43:03:39:0c:66:cb:86:2f:aa:c6:
         e4:04:f1:b3:cf:22:b8:65:f9:a8:51:9c:a2:1a:f0:40:51:0e:
         55:f6:13:0e:5e:00:40:56:81:93:4e:2b:13:4b:09:f8:bf:fb:
         f5:3a:d8:b8:67:fd:ab:f0:f4:f1:21:f1:8e:ba:1d:38:7a:75:
         07:9f:e5:29
-----BEGIN CERTIFICATE-----
MIIDdzCCAl+gAwIBAgIQIiub6pEov3qSrfscICMoazANBgkqhkiG9w0BAQsFADAW
MRQwEgYDVQQDDAt0ZWFtNTgyLW5ldDAeFw0yMTA5MTMwMzUxMTdaFw0yNDA4Mjgw
MzUxMTdaMBkxFzAVBgNVBAMMDnRlYW01ODItc2VydmVyMIIBIjANBgkqhkiG9w0B
AQEFAAOCAQ8AMIIBCgKCAQEAsPVBTKmy4BjYuQ9hZfAxIopC7LF5U5EZbtGpqb7v
hvhbUP8iBzFCo6Bc3clyP5etTuRcAnkxwkH3Cu78fwsHT8xq3D6thBoX0Cc/63PS
gxBc1xf7fuHD61YDZtl+KqFilxjiCg689ArP7H25O84Wn+cLJe+V1AQ1Bvs1EbfO
PRgiVQbFUu9d/BjJxAUwSezNyuZe6j5nFQzqzQ5ah95e09xkQj4VS5Yj3aqJivkm
p5mj/Pjy2QYXkrOLyaGT93O12fC0Jzeuf3y4/MeDCs8Tq5DrUEa+hg/bHJIECPXA
h29E8sSADroCZlwsKWdzDCLKTy5FB2ZEzFBmGmthiODjawIDAQABo4G9MIG6MAkG
A1UdEwQCMAAwHQYDVR0OBBYEFN2YiwWZPVAcIw7uzViYviFV0cp1MFEGA1UdIwRK
MEiAFE0RXSaOkaVKqc+DtvXONlmXVgE9oRqkGDAWMRQwEgYDVQQDDAt0ZWFtNTgy
LW5ldIIUD22DIrn4iaEuXkqNaJbqGuv2e6AwEwYDVR0lBAwwCgYIKwYBBQUHAwEw
CwYDVR0PBAQDAgWgMBkGA1UdEQQSMBCCDnRlYW01ODItc2VydmVyMA0GCSqGSIb3
DQEBCwUAA4IBAQB7I131aKDFBdwdhXWl7n5rDwYaYtQKEdYeoNKNl4LXDlY9tU8y
kLV4Knggvnuyx0pTZ+FAFfnZvzbazcow72IBgqRKVb01oBB8A//KdmxP3oAhrV1P
kMdQEiILW02T1ZWMnVF4yCwh9DR6IkBQpG5qz1IWH6ROAEvaxW6JYJrcIE8GimHf
z6KNOQBX5Xa8jmGxjOkHOPLe9I9cPNygxGzDXXmGJilyripx8tZApiO4ETyFEaRy
D940ZxKlwEMDOQxmy4YvqsbkBPGzzyK4ZfmoUZyiGvBAUQ5V9hMOXgBAVoGTTisT
Swn4v/v1Oti4Z/2r8PTxIfGOuh04enUHn+Up
-----END CERTIFICATE-----
