Certificate:
    Data:
        Version: 3 (0x2)
        Serial Number:
            4c:84:d0:83:e9:99:a2:2e:b8:6d:01:ca:78:c8:df:d9
        Signature Algorithm: sha256WithRSAEncryption
        Issuer: CN=team582-net
        Validity
            Not Before: Sep 13 03:51:17 2021 GMT
            Not After : Aug 28 03:51:17 2024 GMT
        Subject: CN=team582-client
        Subject Public Key Info:
            Public Key Algorithm: rsaEncryption
                RSA Public-Key: (2048 bit)
                Modulus:
                    00:cf:b4:da:15:19:bd:cf:90:ae:04:cb:49:f5:37:
                    57:b4:94:65:3a:bc:25:27:96:d6:ae:d1:8c:27:9c:
                    20:7c:e6:7d:fd:c4:d3:bf:88:d4:cd:02:1a:3b:32:
                    dd:4b:c1:bd:d1:f7:71:65:91:d7:7a:fb:c0:ef:40:
                    41:98:80:9c:68:ec:25:64:b8:04:5a:80:77:79:20:
                    0a:67:96:1e:dc:e2:5b:60:c9:d2:a1:cd:9a:e0:0f:
                    56:7a:f3:2f:72:39:72:f1:9a:04:cc:6f:54:16:12:
                    37:86:61:61:f1:5a:c2:f8:e1:5b:3b:a3:d5:93:c3:
                    02:d4:66:7b:3d:b4:4c:8c:7f:1e:88:15:2a:d4:6e:
                    d6:d4:8b:61:47:de:bb:94:ef:b9:e1:8a:ca:4e:e4:
                    52:18:1b:85:68:41:05:55:fc:f9:f5:77:54:32:25:
                    d8:d2:0c:5a:f3:6f:0d:20:75:ff:3f:54:6e:b0:22:
                    cd:2d:6f:e7:f6:93:ca:aa:48:ff:8f:4c:86:8b:82:
                    40:dd:38:c1:a3:84:c2:51:72:9c:90:cd:e1:23:80:
                    bc:df:a7:f1:93:61:a7:7a:75:59:72:02:0c:a2:61:
                    fb:16:8f:53:23:ac:2a:04:90:f2:86:77:02:53:ca:
                    44:89:4c:93:4d:d8:66:d0:a2:22:82:77:61:e8:88:
                    b0:9b
                Exponent: 65537 (0x10001)
        X509v3 extensions:
            X509v3 Basic Constraints: 
                CA:FALSE
            X509v3 Subject Key Identifier: 
                57:22:B5:7C:F9:58:D9:27:84:20:07:BD:8A:78:87:6D:E2:3D:DD:9E
            X509v3 Authority Key Identifier: 
                keyid:4D:11:5D:26:8E:91:A5:4A:A9:CF:83:B6:F5:CE:36:59:97:56:01:3D
                DirName:/CN=team582-net
                serial:0F:6D:83:22:B9:F8:89:A1:2E:5E:4A:8D:68:96:EA:1A:EB:F6:7B:A0

            X509v3 Extended Key Usage: 
                TLS Web Client Authentication
            X509v3 Key Usage: 
                Digital Signature
    Signature Algorithm: sha256WithRSAEncryption
         23:b5:68:cf:4e:2f:60:59:f2:02:07:38:81:b7:46:77:c9:37:
         fc:ec:18:a9:95:f9:85:88:ff:eb:37:a4:2a:9b:a0:f4:e6:99:
         32:82:fb:7c:2a:1c:8d:d1:04:c3:67:5c:83:cf:3e:2d:69:17:
         ca:8c:2d:b8:da:88:c8:11:7c:13:70:22:8c:63:a7:70:0e:01:
         a2:cf:9b:b2:a9:0b:b6:83:cc:d3:43:b7:ea:4d:fd:a8:64:6f:
         89:0e:75:36:19:8b:32:4d:0d:13:f6:2c:a0:ec:6f:dd:dd:bc:
         80:08:33:e9:6c:90:25:82:ab:0c:6e:3a:40:3b:1d:a6:3e:76:
         45:4b:9c:27:5a:04:6f:86:a6:9e:67:ea:97:18:56:70:2b:74:
         24:0b:bf:db:c3:ec:49:4d:c9:fe:f4:9f:3a:25:cd:1a:19:85:
         28:67:57:f9:8b:49:3b:66:29:ce:3b:2f:28:a8:1b:79:06:e5:
         c0:9e:0a:6d:b2:a3:57:ed:0a:40:03:29:28:e0:e3:36:ed:26:
         2e:6b:ba:14:b4:9d:ff:c2:68:8c:58:33:37:85:dc:fd:92:5f:
         2d:63:c6:2d:c0:57:71:e1:77:f8:9b:c5:78:ed:7d:17:2b:df:
         7e:db:81:c5:82:41:6f:0d:70:2a:fc:5f:7c:39:1a:0a:16:d8:
         28:e7:61:a9
-----BEGIN CERTIFICATE-----
MIIDXDCCAkSgAwIBAgIQTITQg+mZoi64bQHKeMjf2TANBgkqhkiG9w0BAQsFADAW
MRQwEgYDVQQDDAt0ZWFtNTgyLW5ldDAeFw0yMTA5MTMwMzUxMTdaFw0yNDA4Mjgw
MzUxMTdaMBkxFzAVBgNVBAMMDnRlYW01ODItY2xpZW50MIIBIjANBgkqhkiG9w0B
AQEFAAOCAQ8AMIIBCgKCAQEAz7TaFRm9z5CuBMtJ9TdXtJRlOrwlJ5bWrtGMJ5wg
fOZ9/cTTv4jUzQIaOzLdS8G90fdxZZHXevvA70BBmICcaOwlZLgEWoB3eSAKZ5Ye
3OJbYMnSoc2a4A9WevMvcjly8ZoEzG9UFhI3hmFh8VrC+OFbO6PVk8MC1GZ7PbRM
jH8eiBUq1G7W1IthR967lO+54YrKTuRSGBuFaEEFVfz59XdUMiXY0gxa828NIHX/
P1RusCLNLW/n9pPKqkj/j0yGi4JA3TjBo4TCUXKckM3hI4C836fxk2GnenVZcgIM
omH7Fo9TI6wqBJDyhncCU8pEiUyTTdhm0KIigndh6IiwmwIDAQABo4GiMIGfMAkG
A1UdEwQCMAAwHQYDVR0OBBYEFFcitXz5WNknhCAHvYp4h23iPd2eMFEGA1UdIwRK
MEiAFE0RXSaOkaVKqc+DtvXONlmXVgE9oRqkGDAWMRQwEgYDVQQDDAt0ZWFtNTgy
LW5ldIIUD22DIrn4iaEuXkqNaJbqGuv2e6AwEwYDVR0lBAwwCgYIKwYBBQUHAwIw
CwYDVR0PBAQDAgeAMA0GCSqGSIb3DQEBCwUAA4IBAQAjtWjPTi9gWfICBziBt0Z3
yTf87BiplfmFiP/rN6Qqm6D05pkygvt8KhyN0QTDZ1yDzz4taRfKjC242ojIEXwT
cCKMY6dwDgGiz5uyqQu2g8zTQ7fqTf2oZG+JDnU2GYsyTQ0T9iyg7G/d3byACDPp
bJAlgqsMbjpAOx2mPnZFS5wnWgRvhqaeZ+qXGFZwK3QkC7/bw+xJTcn+9J86Jc0a
GYUoZ1f5i0k7ZinOOy8oqBt5BuXAngptsqNX7QpAAyko4OM27SYua7oUtJ3/wmiM
WDM3hdz9kl8tY8YtwFdx4Xf4m8V47X0XK99+24HFgkFvDXAq/F98ORoKFtgo52Gp
-----END CERTIFICATE-----
