Certificate:
    Data:
        Version: 3 (0x2)
        Serial Number:
            ed:e9:92:0c:64:55:fc:ff:f3:57:3a:d7:7f:7d:98:e2
        Signature Algorithm: sha256WithRSAEncryption
        Issuer: CN=team70-net
        Validity
            Not Before: Sep 12 23:19:07 2021 GMT
            Not After : Aug 27 23:19:07 2024 GMT
        Subject: CN=team70-client
        Subject Public Key Info:
            Public Key Algorithm: rsaEncryption
                RSA Public-Key: (2048 bit)
                Modulus:
                    00:b5:fc:ca:98:21:42:a8:07:dd:c7:2d:a8:4d:96:
                    a8:ff:3a:98:b2:7f:38:d4:e7:c0:8c:9f:70:2f:13:
                    81:17:f7:ab:02:fa:f4:a9:40:8d:cb:f4:93:c3:8c:
                    e3:db:9b:d7:cc:3f:ee:21:1e:22:a5:c5:b6:3a:44:
                    0e:bd:8e:92:e3:d4:5a:8e:0d:66:e9:ea:9f:94:b9:
                    1c:36:bb:0b:ea:31:66:57:dc:f7:5f:e6:52:4e:22:
                    1a:ba:2a:f4:30:86:4e:28:d9:56:35:a8:ac:a4:1b:
                    c3:e1:28:ed:5f:32:91:e8:a6:ec:72:c9:e4:2f:c1:
                    9a:64:52:02:53:fd:11:d6:82:ba:7a:21:30:e2:b3:
                    46:75:b7:f8:78:de:ae:a2:fd:f0:6a:e6:35:12:45:
                    22:eb:10:83:51:95:d5:57:10:2b:50:92:5b:07:f6:
                    8b:71:fd:d3:22:2e:f5:6b:87:3b:ee:08:af:a9:89:
                    77:8c:af:76:da:7a:ea:38:de:8d:c9:a8:80:d1:a4:
                    b6:fe:19:68:45:32:6b:9e:a3:ca:b2:06:0f:a6:88:
                    4b:e8:f2:34:ea:18:27:92:84:1e:1a:30:20:6d:da:
                    3e:4a:09:5c:5b:50:bd:27:60:91:24:a9:f6:3a:5c:
                    7b:d0:2d:f9:92:6a:09:b2:28:9d:f2:79:39:a4:87:
                    02:ef
                Exponent: 65537 (0x10001)
        X509v3 extensions:
            X509v3 Basic Constraints: 
                CA:FALSE
            X509v3 Subject Key Identifier: 
                22:03:A9:AE:51:55:DE:0D:85:1A:2F:0B:13:5F:E0:00:25:77:0A:E6
            X509v3 Authority Key Identifier: 
                keyid:B0:44:66:A6:69:CA:EE:09:E9:49:BA:4C:4B:E5:65:23:58:42:65:13
                DirName:/CN=team70-net
                serial:61:75:6C:CC:2B:A8:E6:2C:FD:41:19:39:E2:4F:AE:EC:9E:C7:49:8C

            X509v3 Extended Key Usage: 
                TLS Web Client Authentication
            X509v3 Key Usage: 
                Digital Signature
    Signature Algorithm: sha256WithRSAEncryption
         18:60:b9:09:8b:e0:a1:4f:59:7d:73:89:aa:e2:b5:16:45:39:
         f5:23:2b:3c:fa:29:b4:1d:84:c0:76:67:bf:24:3f:aa:04:3b:
         9d:26:03:b3:a5:57:ec:94:30:2e:d9:65:cd:e1:99:a7:50:66:
         b7:f8:6d:e5:4f:26:28:40:a0:a3:5d:ed:c9:21:01:80:ac:55:
         b4:04:b6:00:96:f0:5f:18:d4:bb:fc:65:45:af:f1:59:74:c9:
         d8:fa:f0:dc:bf:ed:27:f3:c1:3d:54:15:01:7a:22:96:20:7c:
         0a:4e:e9:66:a1:78:92:28:18:0c:85:5c:3d:a3:5f:04:50:5d:
         61:0b:31:0e:0d:61:36:0d:66:37:e3:4c:05:31:30:8f:63:28:
         65:c4:63:64:35:57:fa:a1:22:cd:db:68:7c:42:98:35:98:db:
         ec:cf:18:6c:2f:a3:86:97:af:e8:b0:71:54:4e:e2:e0:5d:3d:
         32:62:c3:c3:8e:c1:95:3e:9d:d3:9b:91:85:aa:29:6b:9a:c3:
         e7:4f:02:1c:53:a1:9e:32:b2:b4:13:15:72:be:e9:13:8f:18:
         24:3d:71:98:4d:8c:19:f8:81:11:a4:e8:b9:ef:eb:ea:f7:dd:
         67:b4:0c:9d:97:a9:80:48:e3:75:fb:29:97:54:58:dd:92:d0:
         a8:33:fa:0d
-----BEGIN CERTIFICATE-----
MIIDWjCCAkKgAwIBAgIRAO3pkgxkVfz/81c61399mOIwDQYJKoZIhvcNAQELBQAw
FTETMBEGA1UEAwwKdGVhbTcwLW5ldDAeFw0yMTA5MTIyMzE5MDdaFw0yNDA4Mjcy
MzE5MDdaMBgxFjAUBgNVBAMMDXRlYW03MC1jbGllbnQwggEiMA0GCSqGSIb3DQEB
AQUAA4IBDwAwggEKAoIBAQC1/MqYIUKoB93HLahNlqj/OpiyfzjU58CMn3AvE4EX
96sC+vSpQI3L9JPDjOPbm9fMP+4hHiKlxbY6RA69jpLj1FqODWbp6p+UuRw2uwvq
MWZX3Pdf5lJOIhq6KvQwhk4o2VY1qKykG8PhKO1fMpHopuxyyeQvwZpkUgJT/RHW
grp6ITDis0Z1t/h43q6i/fBq5jUSRSLrEINRldVXECtQklsH9otx/dMiLvVrhzvu
CK+piXeMr3baeuo43o3JqIDRpLb+GWhFMmueo8qyBg+miEvo8jTqGCeShB4aMCBt
2j5KCVxbUL0nYJEkqfY6XHvQLfmSagmyKJ3yeTmkhwLvAgMBAAGjgaEwgZ4wCQYD
VR0TBAIwADAdBgNVHQ4EFgQUIgOprlFV3g2FGi8LE1/gACV3CuYwUAYDVR0jBEkw
R4AUsERmpmnK7gnpSbpMS+VlI1hCZROhGaQXMBUxEzARBgNVBAMMCnRlYW03MC1u
ZXSCFGF1bMwrqOYs/UEZOeJPruyex0mMMBMGA1UdJQQMMAoGCCsGAQUFBwMCMAsG
A1UdDwQEAwIHgDANBgkqhkiG9w0BAQsFAAOCAQEAGGC5CYvgoU9ZfXOJquK1FkU5
9SMrPPoptB2EwHZnvyQ/qgQ7nSYDs6VX7JQwLtllzeGZp1Bmt/ht5U8mKECgo13t
ySEBgKxVtAS2AJbwXxjUu/xlRa/xWXTJ2Prw3L/tJ/PBPVQVAXoiliB8Ck7pZqF4
kigYDIVcPaNfBFBdYQsxDg1hNg1mN+NMBTEwj2MoZcRjZDVX+qEizdtofEKYNZjb
7M8YbC+jhpev6LBxVE7i4F09MmLDw47BlT6d05uRhaopa5rD508CHFOhnjKytBMV
cr7pE48YJD1xmE2MGfiBEaToue/r6vfdZ7QMnZepgEjjdfspl1RY3ZLQqDP6DQ==
-----END CERTIFICATE-----
