Certificate:
    Data:
        Version: 3 (0x2)
        Serial Number:
            c1:95:ff:d1:13:8e:e7:03:c1:82:0c:49:b9:03:18:6d
        Signature Algorithm: sha256WithRSAEncryption
        Issuer: CN=team185-net
        Validity
            Not Before: Sep 13 00:23:35 2021 GMT
            Not After : Aug 28 00:23:35 2024 GMT
        Subject: CN=team185-server
        Subject Public Key Info:
            Public Key Algorithm: rsaEncryption
                RSA Public-Key: (2048 bit)
                Modulus:
                    00:cb:0c:e4:26:a0:5d:54:64:20:04:6e:6b:96:d9:
                    3b:26:36:34:8e:f2:94:6d:05:10:1b:e6:66:e5:cc:
                    e0:1a:b0:3c:49:51:1c:4b:28:b6:01:00:60:2e:21:
                    8c:04:84:de:d1:c7:88:8c:7f:04:de:08:d5:41:fc:
                    29:aa:94:d4:cf:09:56:ff:e5:6b:01:7d:c0:ed:de:
                    b4:b5:d5:9b:2b:b5:12:75:48:02:36:c3:14:5a:05:
                    a6:53:b0:90:06:d4:0f:eb:27:f9:bd:56:39:62:c9:
                    6c:f5:41:a7:ae:1c:70:c2:68:79:4d:79:b8:a8:92:
                    7c:43:61:a6:a2:f3:89:08:3b:d9:25:4b:f5:6a:c7:
                    d4:45:97:a9:24:97:d2:f3:bf:f8:19:19:36:7b:3c:
                    f9:0d:4a:79:f6:2a:02:23:ca:4e:de:9c:a8:2c:fe:
                    88:3c:84:5f:68:da:79:de:c9:0e:2d:06:d0:2b:02:
                    08:a8:be:12:69:76:21:a1:27:6c:d4:0e:b9:e5:20:
                    90:08:fe:2c:7f:8d:03:fe:e3:6e:91:85:85:38:0a:
                    1e:90:73:d3:c9:79:41:c5:75:08:f5:d1:21:d2:61:
                    54:66:63:74:4f:77:8e:3d:0d:f0:77:d8:45:5f:27:
                    7e:ba:c2:e7:f1:6e:02:af:82:08:ae:4c:9c:07:41:
                    0d:b3
                Exponent: 65537 (0x10001)
        X509v3 extensions:
            X509v3 Basic Constraints: 
                CA:FALSE
            X509v3 Subject Key Identifier: 
                45:3C:DC:6A:69:3C:95:EB:80:E0:02:D0:84:3D:E1:70:04:97:B0:38
            X509v3 Authority Key Identifier: 
                keyid:71:25:4C:5D:13:9F:FD:50:61:37:97:C8:A5:A9:97:D8:6C:B2:92:14
                DirName:/CN=team185-net
                serial:4A:95:F8:8B:37:6A:1A:B0:1A:E5:26:AA:6B:12:FF:6F:0F:D0:08:92

            X509v3 Extended Key Usage: 
                TLS Web Server Authentication
            X509v3 Key Usage: 
                Digital Signature, Key Encipherment
            X509v3 Subject Alternative Name: 
                DNS:team185-server
    Signature Algorithm: sha256WithRSAEncryption
         45:81:f2:50:65:07:98:f5:46:5a:d5:57:a0:dd:df:75:0c:39:
         03:08:1c:1f:30:a6:a0:7a:55:98:cc:2a:a6:c2:eb:ff:e6:90:
         4d:6c:e7:0f:93:bc:ca:6c:89:1f:35:e7:55:9c:0f:9f:bd:fc:
         a6:cd:f5:0f:bc:a6:7d:30:df:bd:be:cb:1f:ce:2d:81:7c:74:
         f3:2d:3c:33:16:41:bf:45:ac:8b:8d:10:68:3c:14:a8:16:b8:
         2b:27:4c:6c:51:91:b6:9b:e2:54:3f:38:21:ce:60:74:6e:42:
         f2:97:db:f0:21:58:9e:b9:0d:a5:5f:94:a4:6a:2a:01:d3:7e:
         20:a9:d1:6c:9a:7d:f9:de:93:31:b1:da:95:2a:16:4b:c5:8c:
         66:e0:93:37:54:04:b9:86:03:70:d7:9a:08:e3:6b:3a:c1:a0:
         b0:55:02:3d:b7:3a:9b:3d:3d:8a:d7:3a:dc:d8:49:65:48:35:
         f6:a3:42:96:cd:9f:95:f4:3d:a7:d9:68:a6:0a:54:25:99:b4:
         33:ce:d9:26:c3:62:96:c8:4a:54:30:00:f8:cb:2d:99:1d:b7:
         0f:73:36:e2:18:7d:6f:b6:9c:bf:de:02:4e:81:3a:7f:18:f7:
         3e:fc:77:64:0e:1f:e1:3c:62:7f:42:7f:92:d9:96:3e:ff:21:
         7e:b6:d8:f6
-----BEGIN CERTIFICATE-----
MIIDeDCCAmCgAwIBAgIRAMGV/9ETjucDwYIMSbkDGG0wDQYJKoZIhvcNAQELBQAw
FjEUMBIGA1UEAwwLdGVhbTE4NS1uZXQwHhcNMjEwOTEzMDAyMzM1WhcNMjQwODI4
MDAyMzM1WjAZMRcwFQYDVQQDDA50ZWFtMTg1LXNlcnZlcjCCASIwDQYJKoZIhvcN
AQEBBQADggEPADCCAQoCggEBAMsM5CagXVRkIARua5bZOyY2NI7ylG0FEBvmZuXM
4BqwPElRHEsotgEAYC4hjASE3tHHiIx/BN4I1UH8KaqU1M8JVv/lawF9wO3etLXV
myu1EnVIAjbDFFoFplOwkAbUD+sn+b1WOWLJbPVBp64ccMJoeU15uKiSfENhpqLz
iQg72SVL9WrH1EWXqSSX0vO/+BkZNns8+Q1KefYqAiPKTt6cqCz+iDyEX2jaed7J
Di0G0CsCCKi+Eml2IaEnbNQOueUgkAj+LH+NA/7jbpGFhTgKHpBz08l5QcV1CPXR
IdJhVGZjdE93jj0N8HfYRV8nfrrC5/FuAq+CCK5MnAdBDbMCAwEAAaOBvTCBujAJ
BgNVHRMEAjAAMB0GA1UdDgQWBBRFPNxqaTyV64DgAtCEPeFwBJewODBRBgNVHSME
SjBIgBRxJUxdE5/9UGE3l8ilqZfYbLKSFKEapBgwFjEUMBIGA1UEAwwLdGVhbTE4
NS1uZXSCFEqV+Is3ahqwGuUmqmsS/28P0AiSMBMGA1UdJQQMMAoGCCsGAQUFBwMB
MAsGA1UdDwQEAwIFoDAZBgNVHREEEjAQgg50ZWFtMTg1LXNlcnZlcjANBgkqhkiG
9w0BAQsFAAOCAQEARYHyUGUHmPVGWtVXoN3fdQw5AwgcHzCmoHpVmMwqpsLr/+aQ
TWznD5O8ymyJHzXnVZwPn738ps31D7ymfTDfvb7LH84tgXx08y08MxZBv0Wsi40Q
aDwUqBa4KydMbFGRtpviVD84Ic5gdG5C8pfb8CFYnrkNpV+UpGoqAdN+IKnRbJp9
+d6TMbHalSoWS8WMZuCTN1QEuYYDcNeaCONrOsGgsFUCPbc6mz09itc63NhJZUg1
9qNCls2flfQ9p9lopgpUJZm0M87ZJsNilshKVDAA+MstmR23D3M24hh9b7acv94C
ToE6fxj3Pvx3ZA4f4Txif0J/ktmWPv8hfrbY9g==
-----END CERTIFICATE-----
