Certificate:
    Data:
        Version: 3 (0x2)
        Serial Number:
            1f:ba:27:0c:68:0e:be:c6:88:c6:8f:fc:85:e6:61:2b
        Signature Algorithm: sha256WithRSAEncryption
        Issuer: CN=team544-net
        Validity
            Not Before: Sep 13 03:45:10 2021 GMT
            Not After : Aug 28 03:45:10 2024 GMT
        Subject: CN=team544-client
        Subject Public Key Info:
            Public Key Algorithm: rsaEncryption
                RSA Public-Key: (2048 bit)
                Modulus:
                    00:cc:6b:e9:de:68:42:51:38:33:56:47:83:5a:83:
                    7d:ac:e6:e3:0b:6f:36:50:d4:d5:5c:05:08:52:7b:
                    71:f5:b6:06:9c:a4:e5:c3:81:fc:34:be:bb:8a:d8:
                    1a:5c:89:0d:98:88:78:ab:c8:7e:06:2d:a5:10:0b:
                    e4:5d:8c:17:23:b5:25:a1:f5:61:0c:59:d8:b1:b1:
                    7f:e8:22:58:5b:20:fb:56:62:f0:82:ce:07:b1:05:
                    01:cd:25:4a:ff:12:f0:50:c9:89:3a:3b:50:8f:ef:
                    5a:7d:e6:c7:3d:dd:45:47:73:9b:e9:ce:c8:3f:60:
                    94:b8:1d:c5:98:95:54:93:6e:19:d1:ed:34:70:df:
                    05:6a:b0:a8:12:78:86:3a:ed:2e:a2:b6:4c:fb:39:
                    ab:3b:6c:9e:e3:51:a9:9b:ae:02:08:48:09:f4:09:
                    5b:a8:28:86:4a:c9:dd:87:d5:d3:67:6b:42:ce:8a:
                    4d:7e:9e:a1:e5:ad:82:2f:a7:d8:0e:55:9e:b6:3d:
                    0b:eb:6d:df:d5:03:c5:d1:c8:00:14:74:39:0e:7f:
                    01:84:62:da:f1:e3:dc:71:52:bc:e7:2a:28:b4:2c:
                    8c:d7:85:3b:30:3d:3b:94:09:50:0f:f1:4c:ba:d0:
                    2f:b6:83:ea:f0:43:56:18:35:69:c3:99:89:97:cb:
                    17:11
                Exponent: 65537 (0x10001)
        X509v3 extensions:
            X509v3 Basic Constraints: 
                CA:FALSE
            X509v3 Subject Key Identifier: 
                97:8B:39:9A:15:AA:71:29:A9:13:C4:C6:66:59:7F:C7:56:03:BF:13
            X509v3 Authority Key Identifier: 
                keyid:C3:89:82:96:87:3D:06:08:9A:6E:80:7A:2B:44:C6:F8:62:59:17:DD
                DirName:/CN=team544-net
                serial:47:FD:CA:8C:6A:55:DF:03:6E:4A:74:F0:5F:54:15:25:62:E2:CF:AB

            X509v3 Extended Key Usage: 
                TLS Web Client Authentication
            X509v3 Key Usage: 
                Digital Signature
    Signature Algorithm: sha256WithRSAEncryption
         59:21:b0:8b:2b:3b:75:4f:63:a5:11:e1:ce:1d:34:ee:62:2e:
         a1:25:88:a4:56:09:c2:0e:17:93:12:31:bd:bc:42:28:97:a1:
         06:b2:34:ac:f2:18:e4:c9:da:2f:a9:b0:58:c6:27:65:1e:6b:
         83:a8:53:83:51:7a:63:59:21:bc:78:cf:41:fa:0d:70:39:eb:
         12:c7:57:d8:be:45:1e:3d:cc:3a:60:9c:e8:f1:22:57:49:7d:
         15:de:cb:c8:62:7e:e3:79:95:77:40:66:69:bb:0f:2b:87:47:
         28:75:a6:94:e6:99:3e:45:ec:55:db:e8:cf:1a:70:02:40:55:
         90:f2:96:78:65:43:2c:a1:94:5e:b0:4e:35:8c:05:d7:ba:d1:
         db:7d:f5:b3:85:5a:d7:2f:41:5c:ea:8a:f5:81:af:28:f3:5d:
         39:87:8d:f4:2c:fb:f0:fe:a9:98:18:60:fb:1d:11:e6:72:0a:
         dc:4c:e1:a6:ee:68:d7:66:f6:e4:80:1a:62:6a:5f:bc:24:74:
         c7:76:37:de:0f:41:eb:51:b5:f7:4a:05:b0:8a:8b:ca:e9:10:
         85:b7:cf:44:60:20:12:d2:0e:93:ab:22:37:7e:f0:e1:07:39:
         b6:74:cc:1c:0b:64:82:4b:9c:6b:6c:99:71:59:ac:68:91:2c:
         4c:72:98:d7
-----BEGIN CERTIFICATE-----
MIIDXDCCAkSgAwIBAgIQH7onDGgOvsaIxo/8heZhKzANBgkqhkiG9w0BAQsFADAW
MRQwEgYDVQQDDAt0ZWFtNTQ0LW5ldDAeFw0yMTA5MTMwMzQ1MTBaFw0yNDA4Mjgw
MzQ1MTBaMBkxFzAVBgNVBAMMDnRlYW01NDQtY2xpZW50MIIBIjANBgkqhkiG9w0B
AQEFAAOCAQ8AMIIBCgKCAQEAzGvp3mhCUTgzVkeDWoN9rObjC282UNTVXAUIUntx
9bYGnKTlw4H8NL67itgaXIkNmIh4q8h+Bi2lEAvkXYwXI7UlofVhDFnYsbF/6CJY
WyD7VmLwgs4HsQUBzSVK/xLwUMmJOjtQj+9afebHPd1FR3Ob6c7IP2CUuB3FmJVU
k24Z0e00cN8FarCoEniGOu0uorZM+zmrO2ye41Gpm64CCEgJ9AlbqCiGSsndh9XT
Z2tCzopNfp6h5a2CL6fYDlWetj0L623f1QPF0cgAFHQ5Dn8BhGLa8ePccVK85yoo
tCyM14U7MD07lAlQD/FMutAvtoPq8ENWGDVpw5mJl8sXEQIDAQABo4GiMIGfMAkG
A1UdEwQCMAAwHQYDVR0OBBYEFJeLOZoVqnEpqRPExmZZf8dWA78TMFEGA1UdIwRK
MEiAFMOJgpaHPQYImm6AeitExvhiWRfdoRqkGDAWMRQwEgYDVQQDDAt0ZWFtNTQ0
LW5ldIIUR/3KjGpV3wNuSnTwX1QVJWLiz6swEwYDVR0lBAwwCgYIKwYBBQUHAwIw
CwYDVR0PBAQDAgeAMA0GCSqGSIb3DQEBCwUAA4IBAQBZIbCLKzt1T2OlEeHOHTTu
Yi6hJYikVgnCDheTEjG9vEIol6EGsjSs8hjkydovqbBYxidlHmuDqFODUXpjWSG8
eM9B+g1wOesSx1fYvkUePcw6YJzo8SJXSX0V3svIYn7jeZV3QGZpuw8rh0codaaU
5pk+RexV2+jPGnACQFWQ8pZ4ZUMsoZResE41jAXXutHbffWzhVrXL0Fc6or1ga8o
8105h430LPvw/qmYGGD7HRHmcgrcTOGm7mjXZvbkgBpial+8JHTHdjfeD0HrUbX3
SgWwiovK6RCFt89EYCAS0g6TqyI3fvDhBzm2dMwcC2SCS5xrbJlxWaxokSxMcpjX
-----END CERTIFICATE-----
