Certificate:
    Data:
        Version: 3 (0x2)
        Serial Number:
            52:a9:9e:af:0f:f9:63:ff:e3:e8:fe:ac:cd:41:3a:c6
        Signature Algorithm: sha256WithRSAEncryption
        Issuer: CN=team544-net
        Validity
            Not Before: Sep 13 03:45:10 2021 GMT
            Not After : Aug 28 03:45:10 2024 GMT
        Subject: CN=team544-server
        Subject Public Key Info:
            Public Key Algorithm: rsaEncryption
                RSA Public-Key: (2048 bit)
                Modulus:
                    00:d4:70:32:de:23:c8:40:75:21:6d:6d:c4:50:89:
                    81:32:5e:dc:83:f1:2a:69:2c:b5:7a:f7:b9:ab:b8:
                    3c:34:22:bf:dc:ba:ef:cd:a6:01:74:8b:99:57:31:
                    a7:17:54:84:15:71:93:2f:23:bd:6d:fb:d1:c0:68:
                    82:e8:00:99:10:31:f8:09:ec:12:17:53:06:a2:c5:
                    69:ad:f6:28:8c:5f:41:d4:ad:31:d4:8a:7e:0b:c0:
                    05:4e:96:cb:d6:8e:44:69:8d:cf:71:b0:51:7f:ec:
                    37:53:f3:ef:82:0b:0c:c1:eb:d5:4e:28:96:97:52:
                    fe:76:20:96:9f:02:7f:11:8e:d5:ea:1b:a4:9c:d5:
                    70:00:93:f1:e4:b5:05:58:4d:90:c6:e9:ba:16:27:
                    48:af:de:f6:ad:2d:f5:5e:f7:4c:55:55:51:21:be:
                    60:f9:d9:54:3d:65:f0:df:fa:5b:9f:b4:61:d6:63:
                    60:a6:d0:aa:46:d4:67:1e:64:85:63:7d:7c:e8:a0:
                    0e:c8:19:ee:43:8b:f2:46:ac:32:92:e4:d1:25:1b:
                    ec:61:9e:7f:dc:62:00:58:47:cb:36:81:c2:23:af:
                    1a:ba:73:25:42:89:5b:aa:29:28:ad:ee:76:bf:9c:
                    ea:e0:94:99:e1:e4:61:e1:c3:2c:30:50:ae:b4:76:
                    bf:73
                Exponent: 65537 (0x10001)
        X509v3 extensions:
            X509v3 Basic Constraints: 
                CA:FALSE
            X509v3 Subject Key Identifier: 
                2A:9D:EA:62:B4:E8:B6:84:8E:1F:34:48:94:8E:70:06:7E:28:8A:81
            X509v3 Authority Key Identifier: 
                keyid:C3:89:82:96:87:3D:06:08:9A:6E:80:7A:2B:44:C6:F8:62:59:17:DD
                DirName:/CN=team544-net
                serial:47:FD:CA:8C:6A:55:DF:03:6E:4A:74:F0:5F:54:15:25:62:E2:CF:AB

            X509v3 Extended Key Usage: 
                TLS Web Server Authentication
            X509v3 Key Usage: 
                Digital Signature, Key Encipherment
            X509v3 Subject Alternative Name: 
                DNS:team544-server
    Signature Algorithm: sha256WithRSAEncryption
         6a:2d:dd:82:a3:1e:9c:92:f5:13:26:4d:f4:2e:69:3b:7f:db:
         b1:98:3e:19:ca:2d:a8:49:d6:66:a4:24:d3:cd:6e:4b:5c:c3:
         ac:9c:db:1f:e5:23:46:18:54:64:93:fb:9f:8e:24:b5:5f:8c:
         84:87:95:b7:f7:93:d9:43:5a:6f:79:1c:29:9d:bf:6f:ae:72:
         b2:f4:1b:77:ee:c8:e1:4f:ac:18:08:b9:3c:07:25:e4:bf:12:
         4b:3c:85:da:f1:db:b6:f4:88:23:78:a7:ae:26:7f:54:ca:d7:
         34:99:ec:f6:25:1a:84:c6:d1:e1:84:cc:40:20:7e:18:ab:65:
         3e:64:a1:c3:8a:b4:51:11:f1:ff:e8:6c:77:5a:34:db:84:80:
         38:74:04:2b:9e:03:ab:fe:3a:7f:5e:b5:0a:12:9e:d9:3e:e1:
         d0:6a:92:a6:bb:25:12:77:96:b3:78:96:bd:55:32:f6:6a:ba:
         ff:27:ad:06:4f:fb:da:97:66:83:09:22:ff:8c:ea:6b:57:60:
         b4:22:f7:71:2c:78:ce:64:4a:68:f4:60:7a:e5:1c:22:68:7f:
         e4:8c:22:6a:87:5d:06:d8:df:ff:2c:07:d7:51:fb:e0:42:fd:
         61:08:3c:a9:b0:33:e5:e7:8e:9a:9a:15:12:f0:9f:2e:eb:a6:
         da:93:e5:19
-----BEGIN CERTIFICATE-----
MIIDdzCCAl+gAwIBAgIQUqmerw/5Y//j6P6szUE6xjANBgkqhkiG9w0BAQsFADAW
MRQwEgYDVQQDDAt0ZWFtNTQ0LW5ldDAeFw0yMTA5MTMwMzQ1MTBaFw0yNDA4Mjgw
MzQ1MTBaMBkxFzAVBgNVBAMMDnRlYW01NDQtc2VydmVyMIIBIjANBgkqhkiG9w0B
AQEFAAOCAQ8AMIIBCgKCAQEA1HAy3iPIQHUhbW3EUImBMl7cg/EqaSy1eve5q7g8
NCK/3LrvzaYBdIuZVzGnF1SEFXGTLyO9bfvRwGiC6ACZEDH4CewSF1MGosVprfYo
jF9B1K0x1Ip+C8AFTpbL1o5EaY3PcbBRf+w3U/PvggsMwevVTiiWl1L+diCWnwJ/
EY7V6huknNVwAJPx5LUFWE2Qxum6FidIr972rS31XvdMVVVRIb5g+dlUPWXw3/pb
n7Rh1mNgptCqRtRnHmSFY3186KAOyBnuQ4vyRqwykuTRJRvsYZ5/3GIAWEfLNoHC
I68aunMlQolbqikore52v5zq4JSZ4eRh4cMsMFCutHa/cwIDAQABo4G9MIG6MAkG
A1UdEwQCMAAwHQYDVR0OBBYEFCqd6mK06LaEjh80SJSOcAZ+KIqBMFEGA1UdIwRK
MEiAFMOJgpaHPQYImm6AeitExvhiWRfdoRqkGDAWMRQwEgYDVQQDDAt0ZWFtNTQ0
LW5ldIIUR/3KjGpV3wNuSnTwX1QVJWLiz6swEwYDVR0lBAwwCgYIKwYBBQUHAwEw
CwYDVR0PBAQDAgWgMBkGA1UdEQQSMBCCDnRlYW01NDQtc2VydmVyMA0GCSqGSIb3
DQEBCwUAA4IBAQBqLd2Cox6ckvUTJk30Lmk7f9uxmD4Zyi2oSdZmpCTTzW5LXMOs
nNsf5SNGGFRkk/ufjiS1X4yEh5W395PZQ1pveRwpnb9vrnKy9Bt37sjhT6wYCLk8
ByXkvxJLPIXa8du29IgjeKeuJn9Uytc0mez2JRqExtHhhMxAIH4Yq2U+ZKHDirRR
EfH/6Gx3WjTbhIA4dAQrngOr/jp/XrUKEp7ZPuHQapKmuyUSd5azeJa9VTL2arr/
J60GT/val2aDCSL/jOprV2C0IvdxLHjOZEpo9GB65RwiaH/kjCJqh10G2N//LAfX
UfvgQv1hCDypsDPl546amhUS8J8u66bak+UZ
-----END CERTIFICATE-----
