Certificate:
    Data:
        Version: 3 (0x2)
        Serial Number:
            3a:9c:5f:10:eb:75:66:b2:97:20:53:86:db:35:57:24
        Signature Algorithm: sha256WithRSAEncryption
        Issuer: CN=team430-net
        Validity
            Not Before: Sep 13 02:41:11 2021 GMT
            Not After : Aug 28 02:41:11 2024 GMT
        Subject: CN=team430-client
        Subject Public Key Info:
            Public Key Algorithm: rsaEncryption
                RSA Public-Key: (2048 bit)
                Modulus:
                    00:a3:d1:ef:c6:1f:3a:36:52:4b:17:79:58:3d:a3:
                    42:70:0d:9f:7d:51:ce:69:79:84:8a:fb:e9:33:f1:
                    df:b4:50:0b:fb:f0:f1:1a:92:16:34:66:dc:3a:69:
                    12:e0:6d:68:37:ad:35:c4:d8:c6:ce:0a:94:66:d0:
                    6d:fc:2f:cf:77:db:3c:2d:39:e1:17:88:a5:5b:fd:
                    03:02:43:b9:a9:44:51:7c:37:6d:44:3b:a3:37:cc:
                    97:80:78:95:1b:34:73:b7:f4:d3:ab:10:66:c1:88:
                    7b:9f:d3:ff:8e:9d:8f:a1:fc:96:74:5c:60:8a:30:
                    58:0c:79:7f:a2:fc:4e:8b:5e:a9:60:0e:06:bd:cb:
                    5c:d9:26:1c:4c:5f:fb:81:62:f0:3e:a5:2d:bd:bd:
                    47:b8:0c:d5:63:73:be:68:a6:c1:e8:2d:fa:e8:d6:
                    90:a5:cb:f6:94:95:e1:82:70:30:67:39:64:10:a6:
                    66:7b:70:99:ad:f1:7b:73:10:fe:98:f9:83:8c:00:
                    48:18:c0:6f:47:da:e6:61:08:bb:18:b6:7d:fb:77:
                    39:9a:cc:5b:5a:d0:67:61:37:ff:53:52:11:ac:cd:
                    fd:a2:1b:97:74:cb:16:99:2c:25:79:bd:ae:16:61:
                    5d:71:11:ec:9c:31:bf:f5:c0:21:53:75:2b:78:f1:
                    97:9d
                Exponent: 65537 (0x10001)
        X509v3 extensions:
            X509v3 Basic Constraints: 
                CA:FALSE
            X509v3 Subject Key Identifier: 
                FC:6C:5C:0E:6F:31:C4:92:BC:E1:E4:0F:F0:31:BE:42:0A:87:16:F6
            X509v3 Authority Key Identifier: 
                keyid:C6:5C:7B:02:31:08:B2:F9:FD:55:1F:15:A6:DE:DC:7F:27:55:86:14
                DirName:/CN=team430-net
                serial:3C:B8:91:C0:8F:CA:BE:A1:BB:4E:B9:A1:2D:6F:AD:5D:2E:7A:7A:AD

            X509v3 Extended Key Usage: 
                TLS Web Client Authentication
            X509v3 Key Usage: 
                Digital Signature
    Signature Algorithm: sha256WithRSAEncryption
         49:4c:c3:8b:d9:11:b9:ce:64:8d:ab:f3:79:d4:3d:ba:0b:f1:
         b0:bc:cf:21:30:dc:52:4d:a7:b8:15:be:1e:fa:41:6f:a1:ef:
         6f:84:a3:2e:84:5b:9f:49:05:c9:8b:bc:82:fb:a4:a5:35:9b:
         28:27:e9:2a:90:b4:a8:aa:61:15:10:48:1a:08:05:b6:67:ff:
         e4:68:c8:29:ec:7c:ae:76:0b:1d:ef:d3:63:6a:c4:4c:fd:a3:
         09:03:76:69:76:10:18:fc:d9:43:8b:19:df:1d:12:97:14:67:
         42:d1:80:b2:b5:94:75:08:25:ae:e7:86:15:1f:1b:3b:28:7f:
         26:26:24:69:da:f0:f3:ad:ba:fe:8a:80:c4:cb:08:84:ba:57:
         97:62:4c:2c:fa:68:58:42:b4:aa:22:ae:cb:95:fd:05:fd:51:
         5e:11:00:8a:a6:47:5e:c3:36:64:9c:38:51:13:44:40:0a:6b:
         e0:65:fc:f1:b8:64:f1:10:ef:90:81:a9:2a:f7:2e:99:f7:f8:
         ee:30:8f:cd:ae:26:f8:1c:e8:f1:42:7c:fb:fc:d8:d0:fd:84:
         db:e4:26:90:4d:c4:db:69:67:1f:87:f4:fb:46:ed:fa:fe:b9:
         2d:08:f2:65:10:e0:b3:9b:10:16:c2:ad:3f:b5:52:3e:4b:cb:
         93:a7:a9:fa
-----BEGIN CERTIFICATE-----
MIIDXDCCAkSgAwIBAgIQOpxfEOt1ZrKXIFOG2zVXJDANBgkqhkiG9w0BAQsFADAW
MRQwEgYDVQQDDAt0ZWFtNDMwLW5ldDAeFw0yMTA5MTMwMjQxMTFaFw0yNDA4Mjgw
MjQxMTFaMBkxFzAVBgNVBAMMDnRlYW00MzAtY2xpZW50MIIBIjANBgkqhkiG9w0B
AQEFAAOCAQ8AMIIBCgKCAQEAo9Hvxh86NlJLF3lYPaNCcA2ffVHOaXmEivvpM/Hf
tFAL+/DxGpIWNGbcOmkS4G1oN601xNjGzgqUZtBt/C/Pd9s8LTnhF4ilW/0DAkO5
qURRfDdtRDujN8yXgHiVGzRzt/TTqxBmwYh7n9P/jp2PofyWdFxgijBYDHl/ovxO
i16pYA4Gvctc2SYcTF/7gWLwPqUtvb1HuAzVY3O+aKbB6C366NaQpcv2lJXhgnAw
ZzlkEKZme3CZrfF7cxD+mPmDjABIGMBvR9rmYQi7GLZ9+3c5msxbWtBnYTf/U1IR
rM39ohuXdMsWmSwleb2uFmFdcRHsnDG/9cAhU3UrePGXnQIDAQABo4GiMIGfMAkG
A1UdEwQCMAAwHQYDVR0OBBYEFPxsXA5vMcSSvOHkD/AxvkIKhxb2MFEGA1UdIwRK
MEiAFMZcewIxCLL5/VUfFabe3H8nVYYUoRqkGDAWMRQwEgYDVQQDDAt0ZWFtNDMw
LW5ldIIUPLiRwI/KvqG7TrmhLW+tXS56eq0wEwYDVR0lBAwwCgYIKwYBBQUHAwIw
CwYDVR0PBAQDAgeAMA0GCSqGSIb3DQEBCwUAA4IBAQBJTMOL2RG5zmSNq/N51D26
C/GwvM8hMNxSTae4Fb4e+kFvoe9vhKMuhFufSQXJi7yC+6SlNZsoJ+kqkLSoqmEV
EEgaCAW2Z//kaMgp7Hyudgsd79NjasRM/aMJA3ZpdhAY/NlDixnfHRKXFGdC0YCy
tZR1CCWu54YVHxs7KH8mJiRp2vDzrbr+ioDEywiEuleXYkws+mhYQrSqIq7Llf0F
/VFeEQCKpkdewzZknDhRE0RACmvgZfzxuGTxEO+Qgakq9y6Z9/juMI/Nrib4HOjx
Qnz7/NjQ/YTb5CaQTcTbaWcfh/T7Ru36/rktCPJlEOCzmxAWwq0/tVI+S8uTp6n6
-----END CERTIFICATE-----
