Certificate:
    Data:
        Version: 3 (0x2)
        Serial Number:
            26:fa:a8:9a:eb:41:9f:d7:e2:30:59:39:32:0f:93:e6
        Signature Algorithm: sha256WithRSAEncryption
        Issuer: CN=team94-net
        Validity
            Not Before: Sep 12 23:34:01 2021 GMT
            Not After : Aug 27 23:34:01 2024 GMT
        Subject: CN=team94-server
        Subject Public Key Info:
            Public Key Algorithm: rsaEncryption
                RSA Public-Key: (2048 bit)
                Modulus:
                    00:d8:83:ff:e6:a1:fc:31:f8:c4:71:fc:aa:35:83:
                    63:06:05:a5:1b:52:8b:e2:7e:23:d3:2a:43:46:65:
                    b5:5f:c9:e8:c4:a4:6b:cc:ed:f3:d6:e0:22:40:1c:
                    60:90:49:ab:df:fd:52:da:e2:57:0c:5a:ed:9c:22:
                    9a:c9:82:d4:93:d2:f2:0d:e5:63:3e:63:54:35:a1:
                    ea:bf:de:4d:64:6a:d1:79:2d:70:89:f3:bc:98:13:
                    d5:45:d6:70:51:30:c4:fb:a7:da:d3:2d:60:aa:a2:
                    77:97:15:59:be:1e:11:4c:6f:98:77:63:54:0a:33:
                    f5:a0:6f:3e:56:c4:b1:e1:63:e3:a6:1c:42:80:05:
                    52:fc:dc:88:9b:1b:01:d1:83:55:c2:e1:51:a1:09:
                    e7:83:1f:20:fe:3e:e5:ec:d2:f9:ab:ec:af:28:05:
                    37:1d:20:20:94:33:60:41:57:8b:2c:26:51:c9:72:
                    43:e4:9e:99:3e:1b:a9:93:15:d3:5d:f3:37:89:47:
                    28:1a:2f:6f:2e:12:b8:06:80:99:fa:cc:04:c6:78:
                    83:cd:ee:45:3c:5e:80:2a:d2:4c:b1:ee:f8:23:f3:
                    d3:bf:fd:4a:a4:0b:38:8e:d7:19:2e:55:a5:e1:db:
                    aa:5a:1c:14:6b:6e:f0:64:ee:18:1c:f0:97:49:78:
                    99:8f
                Exponent: 65537 (0x10001)
        X509v3 extensions:
            X509v3 Basic Constraints: 
                CA:FALSE
            X509v3 Subject Key Identifier: 
                33:95:8D:7F:73:66:26:7B:4E:44:D1:55:5E:1E:2C:3E:BB:DC:63:24
            X509v3 Authority Key Identifier: 
                keyid:DE:95:C4:A8:A5:9A:B6:45:81:24:A8:BA:F0:A7:F0:05:80:4C:26:2C
                DirName:/CN=team94-net
                serial:55:7B:74:C3:FC:B9:6E:63:37:C6:21:66:0E:2C:18:15:F0:CF:A3:AD

            X509v3 Extended Key Usage: 
                TLS Web Server Authentication
            X509v3 Key Usage: 
                Digital Signature, Key Encipherment
            X509v3 Subject Alternative Name: 
                DNS:team94-server
    Signature Algorithm: sha256WithRSAEncryption
         a4:a6:17:0e:73:97:fa:7c:85:65:ae:bf:ab:58:7f:d5:72:63:
         75:25:66:89:1d:8e:db:b3:42:84:af:76:8c:b0:9d:fb:25:32:
         a7:98:32:9f:8e:39:e4:a9:9b:a0:ef:07:aa:b5:bb:c7:ae:95:
         50:4d:3b:88:f1:23:b8:8a:d0:fc:73:df:43:91:8f:c6:b6:13:
         84:9b:8c:a4:6a:57:48:81:05:4b:d2:9b:c7:69:1d:b7:fb:20:
         36:66:31:5a:83:a4:1c:a6:cd:b3:50:3d:75:40:46:43:a0:cf:
         e8:eb:86:0e:6f:66:e2:a8:69:f4:9d:95:88:70:7e:b0:1b:eb:
         88:0a:38:dd:7f:66:a8:85:5d:38:ca:9d:05:bf:9e:a9:64:70:
         07:50:bb:86:69:4c:1d:10:cd:d6:3c:98:a1:b9:7f:96:ae:1d:
         54:47:e7:98:37:25:fd:2e:5a:f7:81:9e:20:05:39:03:cd:4c:
         db:bd:f8:23:e3:07:f9:b7:02:82:60:94:34:09:24:58:24:ff:
         52:2c:59:a1:aa:5d:17:d2:1e:9f:24:fc:c3:4f:6c:0d:d7:ea:
         e1:3f:2f:c8:e6:8c:d3:65:fa:5a:d6:41:fd:1f:1f:a0:a3:99:
         78:9d:7e:57:3a:08:55:8e:b5:be:40:ac:93:84:8a:ca:f2:ed:
         7f:b1:6d:4a
-----BEGIN CERTIFICATE-----
MIIDczCCAlugAwIBAgIQJvqomutBn9fiMFk5Mg+T5jANBgkqhkiG9w0BAQsFADAV
MRMwEQYDVQQDDAp0ZWFtOTQtbmV0MB4XDTIxMDkxMjIzMzQwMVoXDTI0MDgyNzIz
MzQwMVowGDEWMBQGA1UEAwwNdGVhbTk0LXNlcnZlcjCCASIwDQYJKoZIhvcNAQEB
BQADggEPADCCAQoCggEBANiD/+ah/DH4xHH8qjWDYwYFpRtSi+J+I9MqQ0ZltV/J
6MSka8zt89bgIkAcYJBJq9/9UtriVwxa7ZwimsmC1JPS8g3lYz5jVDWh6r/eTWRq
0XktcInzvJgT1UXWcFEwxPun2tMtYKqid5cVWb4eEUxvmHdjVAoz9aBvPlbEseFj
46YcQoAFUvzciJsbAdGDVcLhUaEJ54MfIP4+5ezS+avsrygFNx0gIJQzYEFXiywm
UclyQ+SemT4bqZMV013zN4lHKBovby4SuAaAmfrMBMZ4g83uRTxegCrSTLHu+CPz
07/9SqQLOI7XGS5VpeHbqlocFGtu8GTuGBzwl0l4mY8CAwEAAaOBuzCBuDAJBgNV
HRMEAjAAMB0GA1UdDgQWBBQzlY1/c2Yme05E0VVeHiw+u9xjJDBQBgNVHSMESTBH
gBTelcSopZq2RYEkqLrwp/AFgEwmLKEZpBcwFTETMBEGA1UEAwwKdGVhbTk0LW5l
dIIUVXt0w/y5bmM3xiFmDiwYFfDPo60wEwYDVR0lBAwwCgYIKwYBBQUHAwEwCwYD
VR0PBAQDAgWgMBgGA1UdEQQRMA+CDXRlYW05NC1zZXJ2ZXIwDQYJKoZIhvcNAQEL
BQADggEBAKSmFw5zl/p8hWWuv6tYf9VyY3UlZokdjtuzQoSvdoywnfslMqeYMp+O
OeSpm6DvB6q1u8eulVBNO4jxI7iK0Pxz30ORj8a2E4SbjKRqV0iBBUvSm8dpHbf7
IDZmMVqDpBymzbNQPXVARkOgz+jrhg5vZuKoafSdlYhwfrAb64gKON1/ZqiFXTjK
nQW/nqlkcAdQu4ZpTB0QzdY8mKG5f5auHVRH55g3Jf0uWveBniAFOQPNTNu9+CPj
B/m3AoJglDQJJFgk/1IsWaGqXRfSHp8k/MNPbA3X6uE/L8jmjNNl+lrWQf0fH6Cj
mXidflc6CFWOtb5ArJOEisry7X+xbUo=
-----END CERTIFICATE-----
