Certificate:
    Data:
        Version: 3 (0x2)
        Serial Number:
            17:d3:53:2a:fb:5d:4b:62:86:dd:31:bc:2b:ab:83:88
        Signature Algorithm: sha256WithRSAEncryption
        Issuer: CN=team711-net
        Validity
            Not Before: Sep 13 04:54:11 2021 GMT
            Not After : Aug 28 04:54:11 2024 GMT
        Subject: CN=team711-server
        Subject Public Key Info:
            Public Key Algorithm: rsaEncryption
                RSA Public-Key: (2048 bit)
                Modulus:
                    00:d8:d8:c8:cb:b4:bf:5f:70:50:9a:8a:af:b8:a0:
                    02:01:36:cc:bd:80:72:23:55:10:61:f9:26:03:bd:
                    40:c0:8b:c9:fe:f7:84:37:65:cb:44:20:88:d9:00:
                    cb:c4:63:f6:08:08:6d:ce:e4:77:f1:61:21:bb:9f:
                    d5:5c:9d:12:f8:d2:8b:99:79:df:98:ad:7f:fc:7f:
                    e5:e8:ca:16:12:0a:07:47:88:2e:80:30:b2:f9:a9:
                    a5:4e:e9:d4:2e:19:6e:b6:14:ed:b3:17:f3:ef:1e:
                    26:1d:44:bd:2f:4b:5c:2f:00:48:96:eb:2f:b9:21:
                    97:a9:54:b1:6f:c9:03:6a:c3:86:c6:10:6c:a3:2e:
                    54:94:86:aa:fc:e9:08:ce:ad:2d:23:f0:fe:7c:f4:
                    b7:87:d2:25:9c:35:b6:7b:de:69:c0:4d:e9:a9:75:
                    58:00:e3:42:f4:40:1d:21:9c:d9:58:b1:c9:8d:0c:
                    9f:28:57:d3:48:34:ac:d7:1d:0a:3c:2c:df:ad:17:
                    90:4a:dc:ba:29:ac:7d:22:f3:ba:df:e8:24:c6:5a:
                    c7:af:88:f9:6e:bd:2e:db:86:67:7a:82:52:d7:69:
                    30:83:86:73:61:07:95:09:ec:0b:c5:93:8b:ed:ff:
                    0f:1e:1d:6b:48:d9:87:71:c9:41:df:a7:8a:df:57:
                    df:dd
                Exponent: 65537 (0x10001)
        X509v3 extensions:
            X509v3 Basic Constraints: 
                CA:FALSE
            X509v3 Subject Key Identifier: 
                2B:77:68:A3:F8:52:69:65:F8:85:38:31:17:39:05:DC:7C:7A:17:68
            X509v3 Authority Key Identifier: 
                keyid:6D:97:D4:53:C4:C3:8F:21:8B:32:C2:17:6D:A7:14:0A:FD:B4:47:CF
                DirName:/CN=team711-net
                serial:5A:D1:D8:FF:04:DB:8B:4B:AE:A3:D2:B9:12:A9:FA:40:B3:C9:90:AB

            X509v3 Extended Key Usage: 
                TLS Web Server Authentication
            X509v3 Key Usage: 
                Digital Signature, Key Encipherment
            X509v3 Subject Alternative Name: 
                DNS:team711-server
    Signature Algorithm: sha256WithRSAEncryption
         ad:95:29:db:d0:99:29:8b:8b:09:70:d1:62:65:ce:cc:e7:c4:
         42:c8:18:22:00:ab:24:20:fb:35:e3:56:9a:99:f7:aa:ec:41:
         f9:e8:73:87:ec:b5:03:f6:67:93:99:cc:ad:df:2d:b8:68:ec:
         07:97:1c:c4:44:f0:34:7a:63:36:5d:0b:d8:73:d4:d9:21:77:
         70:83:33:41:68:47:e0:ff:12:f3:52:79:01:f9:dc:82:4e:a4:
         95:99:6d:e9:d8:db:da:f1:2b:fc:1e:0a:fe:e6:49:9c:91:66:
         66:f9:bb:da:4f:cc:93:04:27:05:8d:0c:92:ec:67:da:92:1e:
         1b:e4:02:e7:08:65:ce:10:57:a5:7e:70:02:7a:0a:1e:dd:83:
         81:a1:b0:10:ee:b4:cb:8f:72:d5:9c:19:40:62:f4:1b:bd:47:
         52:07:75:39:e1:2a:93:0f:dc:ac:97:6b:76:92:45:36:95:0c:
         5d:6c:1c:fd:14:81:fa:e2:f7:36:05:3d:ee:15:86:96:b4:d9:
         e5:07:3b:06:08:a8:9d:b4:c8:cf:6c:e0:43:ad:7e:ce:f6:17:
         54:42:35:86:b5:41:3a:59:9f:0c:ae:04:81:38:dd:1c:72:e7:
         82:23:e8:66:50:da:a5:6a:f6:41:30:25:f5:40:4b:88:70:ea:
         a6:a8:3f:16
-----BEGIN CERTIFICATE-----
MIIDdzCCAl+gAwIBAgIQF9NTKvtdS2KG3TG8K6uDiDANBgkqhkiG9w0BAQsFADAW
MRQwEgYDVQQDDAt0ZWFtNzExLW5ldDAeFw0yMTA5MTMwNDU0MTFaFw0yNDA4Mjgw
NDU0MTFaMBkxFzAVBgNVBAMMDnRlYW03MTEtc2VydmVyMIIBIjANBgkqhkiG9w0B
AQEFAAOCAQ8AMIIBCgKCAQEA2NjIy7S/X3BQmoqvuKACATbMvYByI1UQYfkmA71A
wIvJ/veEN2XLRCCI2QDLxGP2CAhtzuR38WEhu5/VXJ0S+NKLmXnfmK1//H/l6MoW
EgoHR4gugDCy+amlTunULhluthTtsxfz7x4mHUS9L0tcLwBIlusvuSGXqVSxb8kD
asOGxhBsoy5UlIaq/OkIzq0tI/D+fPS3h9IlnDW2e95pwE3pqXVYAONC9EAdIZzZ
WLHJjQyfKFfTSDSs1x0KPCzfrReQSty6Kax9IvO63+gkxlrHr4j5br0u24ZneoJS
12kwg4ZzYQeVCewLxZOL7f8PHh1rSNmHcclB36eK31ff3QIDAQABo4G9MIG6MAkG
A1UdEwQCMAAwHQYDVR0OBBYEFCt3aKP4Umll+IU4MRc5Bdx8ehdoMFEGA1UdIwRK
MEiAFG2X1FPEw48hizLCF22nFAr9tEfPoRqkGDAWMRQwEgYDVQQDDAt0ZWFtNzEx
LW5ldIIUWtHY/wTbi0uuo9K5Eqn6QLPJkKswEwYDVR0lBAwwCgYIKwYBBQUHAwEw
CwYDVR0PBAQDAgWgMBkGA1UdEQQSMBCCDnRlYW03MTEtc2VydmVyMA0GCSqGSIb3
DQEBCwUAA4IBAQCtlSnb0Jkpi4sJcNFiZc7M58RCyBgiAKskIPs141aamfeq7EH5
6HOH7LUD9meTmcyt3y24aOwHlxzERPA0emM2XQvYc9TZIXdwgzNBaEfg/xLzUnkB
+dyCTqSVmW3p2Nva8Sv8Hgr+5kmckWZm+bvaT8yTBCcFjQyS7Gfakh4b5ALnCGXO
EFelfnACegoe3YOBobAQ7rTLj3LVnBlAYvQbvUdSB3U54SqTD9ysl2t2kkU2lQxd
bBz9FIH64vc2BT3uFYaWtNnlBzsGCKidtMjPbOBDrX7O9hdUQjWGtUE6WZ8MrgSB
ON0ccueCI+hmUNqlavZBMCX1QEuIcOqmqD8W
-----END CERTIFICATE-----
