Certificate:
    Data:
        Version: 3 (0x2)
        Serial Number:
            4a:37:28:af:33:20:28:87:37:f0:27:06:0e:cf:13:47
        Signature Algorithm: sha256WithRSAEncryption
        Issuer: CN=team232-net
        Validity
            Not Before: Sep 13 00:54:14 2021 GMT
            Not After : Aug 28 00:54:14 2024 GMT
        Subject: CN=team232-client
        Subject Public Key Info:
            Public Key Algorithm: rsaEncryption
                RSA Public-Key: (2048 bit)
                Modulus:
                    00:c5:6f:97:c3:a6:00:17:1c:47:0e:2b:c4:1d:49:
                    d1:3b:78:1d:b9:0b:01:a0:22:d1:eb:47:41:16:c0:
                    42:36:3f:75:71:0c:9a:34:f8:46:2d:48:9a:9f:f3:
                    56:c5:96:be:1d:ee:bd:1e:f2:62:1d:d3:3d:d0:c3:
                    59:00:15:89:40:c1:6c:c3:f6:4b:b4:1f:7f:29:88:
                    01:fc:6b:08:d7:fd:a0:8e:41:8b:5e:94:ae:2b:4a:
                    c8:e9:99:dd:d9:8f:71:ed:38:3b:a9:84:b2:0f:46:
                    22:af:8d:63:65:c9:78:85:cd:b2:39:e5:c6:29:85:
                    b8:00:6d:c1:d9:74:a4:64:84:1b:a6:5d:e2:e2:48:
                    34:82:c6:f1:e0:a0:e4:80:23:9a:48:1c:a8:6d:60:
                    f0:65:bf:bd:76:46:6e:a7:58:f2:74:db:15:d5:ee:
                    76:83:5c:10:b6:1e:79:73:31:3f:32:b7:f2:66:4c:
                    26:9b:5d:dc:e6:f9:7b:9e:8d:03:94:9e:85:98:0e:
                    47:c7:c1:3f:2d:8e:63:8f:a2:07:1c:89:e6:f0:ee:
                    21:fa:59:7f:0f:86:b5:b6:f7:cd:89:ea:f5:07:0f:
                    58:a7:c4:50:32:d1:e7:53:03:ea:5b:6b:ef:2b:8a:
                    5e:0f:af:cd:05:d0:af:be:5c:02:65:0c:09:b9:39:
                    b8:f3
                Exponent: 65537 (0x10001)
        X509v3 extensions:
            X509v3 Basic Constraints: 
                CA:FALSE
            X509v3 Subject Key Identifier: 
                EA:7F:B2:BB:A6:40:A8:20:CE:78:38:14:D7:30:60:81:E4:66:A0:7B
            X509v3 Authority Key Identifier: 
                keyid:E4:2B:B9:68:6A:5C:4E:D9:8D:C1:5B:54:5C:E2:27:5C:96:BB:3D:8E
                DirName:/CN=team232-net
                serial:25:0B:25:3A:6A:7C:E8:81:FD:3A:E2:70:CB:AB:9A:7F:6C:AD:1D:07

            X509v3 Extended Key Usage: 
                TLS Web Client Authentication
            X509v3 Key Usage: 
                Digital Signature
    Signature Algorithm: sha256WithRSAEncryption
         a7:b4:6b:d8:40:19:0d:95:45:6b:80:ab:d0:e7:31:b2:7a:80:
         a2:a8:1c:af:55:5d:34:5a:30:96:7c:13:70:41:56:89:1d:67:
         2d:c3:56:70:dc:02:ba:4e:68:a7:b3:f5:d4:80:8d:9d:52:a0:
         0e:94:f7:6c:5a:25:16:2f:70:2c:05:59:59:2b:36:28:18:24:
         d3:c4:81:f7:c9:e7:81:1a:98:d4:e4:c8:e1:d6:4b:61:b2:f3:
         09:aa:6c:c3:29:a9:36:70:08:d4:ea:44:d3:d3:3c:64:92:ce:
         87:8e:b5:78:e2:9b:e4:d3:63:fc:ca:97:e6:18:48:6c:f4:29:
         8c:34:e7:0f:e6:4f:18:d5:a1:42:b8:50:c6:ca:8b:6d:be:33:
         48:22:51:30:ee:25:56:31:15:a0:f0:4e:b8:44:84:33:50:d0:
         ae:f5:0d:3b:a4:af:9a:73:a1:68:c6:79:9d:14:7c:4d:9d:0e:
         c0:9c:ef:7d:68:b4:8e:e9:e4:46:3f:08:29:3b:ff:8b:e1:1f:
         8c:a1:8f:04:8f:ba:36:75:33:94:48:09:c9:f2:3f:5f:39:14:
         5f:8f:a8:7b:b0:4a:5b:cd:f9:c8:70:51:27:2e:53:75:0f:95:
         13:c4:28:cf:38:a3:c9:26:33:c7:0e:64:32:35:a4:fc:56:ea:
         a2:cb:28:eb
-----BEGIN CERTIFICATE-----
MIIDXDCCAkSgAwIBAgIQSjcorzMgKIc38CcGDs8TRzANBgkqhkiG9w0BAQsFADAW
MRQwEgYDVQQDDAt0ZWFtMjMyLW5ldDAeFw0yMTA5MTMwMDU0MTRaFw0yNDA4Mjgw
MDU0MTRaMBkxFzAVBgNVBAMMDnRlYW0yMzItY2xpZW50MIIBIjANBgkqhkiG9w0B
AQEFAAOCAQ8AMIIBCgKCAQEAxW+Xw6YAFxxHDivEHUnRO3gduQsBoCLR60dBFsBC
Nj91cQyaNPhGLUian/NWxZa+He69HvJiHdM90MNZABWJQMFsw/ZLtB9/KYgB/GsI
1/2gjkGLXpSuK0rI6Znd2Y9x7Tg7qYSyD0Yir41jZcl4hc2yOeXGKYW4AG3B2XSk
ZIQbpl3i4kg0gsbx4KDkgCOaSByobWDwZb+9dkZup1jydNsV1e52g1wQth55czE/
MrfyZkwmm13c5vl7no0DlJ6FmA5Hx8E/LY5jj6IHHInm8O4h+ll/D4a1tvfNier1
Bw9Yp8RQMtHnUwPqW2vvK4peD6/NBdCvvlwCZQwJuTm48wIDAQABo4GiMIGfMAkG
A1UdEwQCMAAwHQYDVR0OBBYEFOp/srumQKggzng4FNcwYIHkZqB7MFEGA1UdIwRK
MEiAFOQruWhqXE7ZjcFbVFziJ1yWuz2OoRqkGDAWMRQwEgYDVQQDDAt0ZWFtMjMy
LW5ldIIUJQslOmp86IH9OuJwy6uaf2ytHQcwEwYDVR0lBAwwCgYIKwYBBQUHAwIw
CwYDVR0PBAQDAgeAMA0GCSqGSIb3DQEBCwUAA4IBAQCntGvYQBkNlUVrgKvQ5zGy
eoCiqByvVV00WjCWfBNwQVaJHWctw1Zw3AK6Tmins/XUgI2dUqAOlPdsWiUWL3As
BVlZKzYoGCTTxIH3yeeBGpjU5Mjh1kthsvMJqmzDKak2cAjU6kTT0zxkks6HjrV4
4pvk02P8ypfmGEhs9CmMNOcP5k8Y1aFCuFDGyottvjNIIlEw7iVWMRWg8E64RIQz
UNCu9Q07pK+ac6FoxnmdFHxNnQ7AnO99aLSO6eRGPwgpO/+L4R+MoY8Ej7o2dTOU
SAnJ8j9fORRfj6h7sEpbzfnIcFEnLlN1D5UTxCjPOKPJJjPHDmQyNaT8Vuqiyyjr
-----END CERTIFICATE-----
