Certificate:
    Data:
        Version: 3 (0x2)
        Serial Number:
            5e:f5:2d:37:76:e1:74:a4:ff:77:3c:e5:8f:06:73:e9
        Signature Algorithm: sha256WithRSAEncryption
        Issuer: CN=team232-net
        Validity
            Not Before: Sep 13 00:54:14 2021 GMT
            Not After : Aug 28 00:54:14 2024 GMT
        Subject: CN=team232-server
        Subject Public Key Info:
            Public Key Algorithm: rsaEncryption
                RSA Public-Key: (2048 bit)
                Modulus:
                    00:dd:f2:46:be:2e:8d:f1:2e:12:9a:20:bb:7a:3d:
                    f7:a3:4f:ee:a6:b4:f4:3c:b0:6e:18:ed:e3:7e:9b:
                    86:e5:8f:48:3e:39:2f:0d:14:0c:c4:3d:40:28:a9:
                    dc:63:35:4e:24:e5:d7:7c:97:bc:5a:86:72:d8:58:
                    d8:6f:d3:dc:f5:46:47:e9:2c:e0:e9:48:07:58:73:
                    15:26:ec:06:33:d1:87:85:27:44:a3:ba:4d:3e:a5:
                    86:62:62:80:36:29:c2:12:61:e4:eb:f9:45:5d:ba:
                    69:1e:d8:3c:34:2d:ae:20:b3:24:69:6d:bc:a4:64:
                    d4:3e:8d:e5:54:01:34:7e:4b:f8:44:8b:72:94:68:
                    40:ed:49:6f:40:26:58:fd:02:60:6d:84:28:ee:52:
                    13:ef:67:12:94:1b:36:af:b3:26:c3:c8:a6:d6:e7:
                    45:b8:d6:6a:e3:e2:8e:14:a7:ef:6b:1d:02:ae:7b:
                    54:a5:70:13:4f:16:db:6c:50:17:f9:1d:c0:b7:ff:
                    99:37:55:2f:2a:63:37:4e:5f:ae:a3:40:fc:b2:02:
                    29:14:e6:b1:39:3d:84:f2:81:d4:e7:bb:53:ef:e2:
                    ea:03:cf:49:4a:41:5a:0f:7f:41:67:70:48:e9:d8:
                    d8:cf:fb:b0:26:7f:c9:d3:be:97:a2:a8:e5:51:5d:
                    62:45
                Exponent: 65537 (0x10001)
        X509v3 extensions:
            X509v3 Basic Constraints: 
                CA:FALSE
            X509v3 Subject Key Identifier: 
                10:BE:05:F6:70:C5:AA:82:3F:3C:49:F6:18:3F:2A:8C:8F:72:71:04
            X509v3 Authority Key Identifier: 
                keyid:E4:2B:B9:68:6A:5C:4E:D9:8D:C1:5B:54:5C:E2:27:5C:96:BB:3D:8E
                DirName:/CN=team232-net
                serial:25:0B:25:3A:6A:7C:E8:81:FD:3A:E2:70:CB:AB:9A:7F:6C:AD:1D:07

            X509v3 Extended Key Usage: 
                TLS Web Server Authentication
            X509v3 Key Usage: 
                Digital Signature, Key Encipherment
            X509v3 Subject Alternative Name: 
                DNS:team232-server
    Signature Algorithm: sha256WithRSAEncryption
         23:89:22:35:89:2a:63:8b:d7:16:02:22:27:d7:51:bb:ad:ad:
         b1:97:b4:ac:95:be:50:b6:fa:77:c2:76:0f:51:4d:78:ac:7e:
         94:4e:b8:8d:67:7e:39:a7:ad:3e:2e:4e:68:f6:8a:bd:75:57:
         f1:1a:67:a4:9d:fa:2a:f9:f5:6d:66:fe:b6:4b:12:7d:c7:04:
         15:01:ba:41:b1:11:34:9c:83:28:5c:4d:e2:ae:cc:e9:36:99:
         2c:ab:eb:94:ac:67:ec:c3:0a:cf:d5:c7:c1:30:50:9e:0d:ae:
         d0:e3:73:5e:e2:91:f9:d2:f8:4c:ee:7f:5f:6d:02:e0:44:39:
         b9:98:f1:25:a5:a6:9d:3b:a5:d7:a1:b7:85:aa:27:17:e2:46:
         ec:83:ca:44:2e:9e:83:94:6d:46:e1:e3:84:ad:63:7d:46:80:
         98:9f:fe:22:ef:4e:56:5d:7d:11:92:3b:db:3a:ba:a9:5f:79:
         9b:62:c0:b2:9b:9b:bc:fb:6c:07:fc:f9:c1:76:35:e7:82:8b:
         3b:c8:b2:36:5d:42:56:91:7e:28:d5:f1:9a:58:d4:50:c0:2e:
         25:33:73:76:69:0d:45:9f:a7:16:df:43:4b:27:9b:fa:2d:31:
         0a:d6:4d:e0:f2:09:e3:20:9a:8b:a4:f3:6f:cf:9a:d2:38:8e:
         31:05:b6:d0
-----BEGIN CERTIFICATE-----
MIIDdzCCAl+gAwIBAgIQXvUtN3bhdKT/dzzljwZz6TANBgkqhkiG9w0BAQsFADAW
MRQwEgYDVQQDDAt0ZWFtMjMyLW5ldDAeFw0yMTA5MTMwMDU0MTRaFw0yNDA4Mjgw
MDU0MTRaMBkxFzAVBgNVBAMMDnRlYW0yMzItc2VydmVyMIIBIjANBgkqhkiG9w0B
AQEFAAOCAQ8AMIIBCgKCAQEA3fJGvi6N8S4SmiC7ej33o0/uprT0PLBuGO3jfpuG
5Y9IPjkvDRQMxD1AKKncYzVOJOXXfJe8WoZy2FjYb9Pc9UZH6Szg6UgHWHMVJuwG
M9GHhSdEo7pNPqWGYmKANinCEmHk6/lFXbppHtg8NC2uILMkaW28pGTUPo3lVAE0
fkv4RItylGhA7UlvQCZY/QJgbYQo7lIT72cSlBs2r7Mmw8im1udFuNZq4+KOFKfv
ax0CrntUpXATTxbbbFAX+R3At/+ZN1UvKmM3Tl+uo0D8sgIpFOaxOT2E8oHU57tT
7+LqA89JSkFaD39BZ3BI6djYz/uwJn/J076XoqjlUV1iRQIDAQABo4G9MIG6MAkG
A1UdEwQCMAAwHQYDVR0OBBYEFBC+BfZwxaqCPzxJ9hg/KoyPcnEEMFEGA1UdIwRK
MEiAFOQruWhqXE7ZjcFbVFziJ1yWuz2OoRqkGDAWMRQwEgYDVQQDDAt0ZWFtMjMy
LW5ldIIUJQslOmp86IH9OuJwy6uaf2ytHQcwEwYDVR0lBAwwCgYIKwYBBQUHAwEw
CwYDVR0PBAQDAgWgMBkGA1UdEQQSMBCCDnRlYW0yMzItc2VydmVyMA0GCSqGSIb3
DQEBCwUAA4IBAQAjiSI1iSpji9cWAiIn11G7ra2xl7Sslb5Qtvp3wnYPUU14rH6U
TriNZ345p60+Lk5o9oq9dVfxGmeknfoq+fVtZv62SxJ9xwQVAbpBsRE0nIMoXE3i
rszpNpksq+uUrGfswwrP1cfBMFCeDa7Q43Ne4pH50vhM7n9fbQLgRDm5mPElpaad
O6XXobeFqicX4kbsg8pELp6DlG1G4eOErWN9RoCYn/4i705WXX0RkjvbOrqpX3mb
YsCym5u8+2wH/PnBdjXngos7yLI2XUJWkX4o1fGaWNRQwC4lM3N2aQ1Fn6cW30NL
J5v6LTEK1k3g8gnjIJqLpPNvz5rSOI4xBbbQ
-----END CERTIFICATE-----
