Certificate:
    Data:
        Version: 3 (0x2)
        Serial Number:
            5f:a4:62:11:68:ff:2f:ac:8b:ad:46:7b:6e:8e:d0:bd
        Signature Algorithm: sha256WithRSAEncryption
        Issuer: CN=team181-net
        Validity
            Not Before: Sep 13 00:20:58 2021 GMT
            Not After : Aug 28 00:20:58 2024 GMT
        Subject: CN=team181-server
        Subject Public Key Info:
            Public Key Algorithm: rsaEncryption
                RSA Public-Key: (2048 bit)
                Modulus:
                    00:a8:f4:0d:54:8e:36:18:44:4c:f7:ed:05:a8:77:
                    e0:b5:fc:a8:e6:26:10:a6:ac:30:98:26:fd:7d:db:
                    60:df:b8:65:71:bd:ad:32:2e:33:39:b1:bb:01:96:
                    c5:a0:6d:ab:ea:de:3a:65:b9:a8:34:30:e9:9e:d9:
                    00:de:3e:f9:3d:85:7f:21:84:28:25:40:ba:98:03:
                    bd:ed:ff:0d:e2:e3:90:a5:49:c9:3e:7d:c5:82:68:
                    1a:e1:6f:97:83:02:1d:c4:40:c8:65:63:18:b5:09:
                    ea:07:08:e8:ec:19:fb:a0:c4:8b:20:8a:37:df:75:
                    6a:f7:58:20:68:5c:c3:eb:d3:09:ca:b9:b7:e5:89:
                    0b:ef:1f:51:fd:7a:ab:7f:6d:e5:70:92:3e:21:21:
                    e3:64:ed:80:a1:f0:6f:59:2a:5a:33:3e:5e:0c:29:
                    90:15:73:91:61:15:f5:fe:f7:e2:06:49:bb:53:65:
                    3a:19:56:75:92:67:f4:ad:5d:2d:58:90:bb:ba:f9:
                    ec:5d:f3:70:54:33:c8:3c:ed:b9:43:2c:1b:1c:a8:
                    89:44:9b:0b:55:7d:7b:58:d4:71:52:15:f2:e6:68:
                    a1:11:e1:5f:f1:e9:29:91:a9:8d:d8:29:06:cc:40:
                    d5:f5:5b:99:5c:4d:49:ea:c3:7a:ff:a3:c5:0f:ca:
                    ab:63
                Exponent: 65537 (0x10001)
        X509v3 extensions:
            X509v3 Basic Constraints: 
                CA:FALSE
            X509v3 Subject Key Identifier: 
                1C:EE:59:7D:5D:D5:A8:ED:AC:DD:48:38:91:11:F9:D5:CF:D5:81:A9
            X509v3 Authority Key Identifier: 
                keyid:04:AE:16:3B:F0:89:A7:53:3D:37:6F:7E:83:5C:BF:59:EF:01:9A:0F
                DirName:/CN=team181-net
                serial:5E:47:DD:13:FA:17:75:A8:2D:EC:A6:6C:EB:85:6E:01:99:DF:05:0C

            X509v3 Extended Key Usage: 
                TLS Web Server Authentication
            X509v3 Key Usage: 
                Digital Signature, Key Encipherment
            X509v3 Subject Alternative Name: 
                DNS:team181-server
    Signature Algorithm: sha256WithRSAEncryption
         c3:3b:97:8a:d7:ee:48:72:30:17:bf:20:a5:d9:1a:cf:c8:48:
         09:b0:74:c1:06:78:39:e7:80:5d:c7:b8:cb:fd:ad:d5:57:85:
         1d:7e:1f:35:5d:9d:68:aa:55:06:15:92:fd:f3:3e:6a:6c:15:
         1b:4c:90:e3:1d:c7:27:51:d5:ae:e8:d5:7f:89:18:ed:c5:55:
         17:ed:c5:96:7d:f9:18:a1:64:57:d3:7a:92:c5:42:d1:60:c1:
         25:6d:fb:f7:e8:f7:a6:f5:78:47:d0:3b:aa:08:b7:af:86:28:
         da:82:a2:25:43:40:67:90:9f:1c:80:00:98:07:e7:26:ce:c5:
         90:ab:05:1e:7b:b9:e4:d9:fe:6d:73:c5:a0:63:50:03:3b:c9:
         7c:14:76:11:9f:4d:7d:ba:6b:27:7e:8e:4b:f6:77:e0:cc:18:
         e2:b9:3c:2e:e2:fd:dd:d7:70:31:98:0e:75:9c:17:92:8c:07:
         1f:17:15:4f:9b:a9:3d:85:73:7c:8b:4e:38:40:e6:d2:f9:e1:
         71:2b:f0:70:8e:79:eb:5e:83:2b:7e:5b:dc:80:b5:77:81:19:
         84:f6:e8:4a:d8:ae:e3:e6:bc:fd:a5:49:c2:f2:0f:22:29:73:
         ba:0f:44:01:5e:60:bb:dc:44:1a:4d:df:7c:db:a7:d3:db:32:
         91:a8:6b:28
-----BEGIN CERTIFICATE-----
MIIDdzCCAl+gAwIBAgIQX6RiEWj/L6yLrUZ7bo7QvTANBgkqhkiG9w0BAQsFADAW
MRQwEgYDVQQDDAt0ZWFtMTgxLW5ldDAeFw0yMTA5MTMwMDIwNThaFw0yNDA4Mjgw
MDIwNThaMBkxFzAVBgNVBAMMDnRlYW0xODEtc2VydmVyMIIBIjANBgkqhkiG9w0B
AQEFAAOCAQ8AMIIBCgKCAQEAqPQNVI42GERM9+0FqHfgtfyo5iYQpqwwmCb9fdtg
37hlcb2tMi4zObG7AZbFoG2r6t46ZbmoNDDpntkA3j75PYV/IYQoJUC6mAO97f8N
4uOQpUnJPn3Fgmga4W+XgwIdxEDIZWMYtQnqBwjo7Bn7oMSLIIo333Vq91ggaFzD
69MJyrm35YkL7x9R/Xqrf23lcJI+ISHjZO2AofBvWSpaMz5eDCmQFXORYRX1/vfi
Bkm7U2U6GVZ1kmf0rV0tWJC7uvnsXfNwVDPIPO25QywbHKiJRJsLVX17WNRxUhXy
5mihEeFf8ekpkamN2CkGzEDV9VuZXE1J6sN6/6PFD8qrYwIDAQABo4G9MIG6MAkG
A1UdEwQCMAAwHQYDVR0OBBYEFBzuWX1d1ajtrN1IOJER+dXP1YGpMFEGA1UdIwRK
MEiAFASuFjvwiadTPTdvfoNcv1nvAZoPoRqkGDAWMRQwEgYDVQQDDAt0ZWFtMTgx
LW5ldIIUXkfdE/oXdagt7KZs64VuAZnfBQwwEwYDVR0lBAwwCgYIKwYBBQUHAwEw
CwYDVR0PBAQDAgWgMBkGA1UdEQQSMBCCDnRlYW0xODEtc2VydmVyMA0GCSqGSIb3
DQEBCwUAA4IBAQDDO5eK1+5IcjAXvyCl2RrPyEgJsHTBBng554Bdx7jL/a3VV4Ud
fh81XZ1oqlUGFZL98z5qbBUbTJDjHccnUdWu6NV/iRjtxVUX7cWWffkYoWRX03qS
xULRYMElbfv36Pem9XhH0DuqCLevhijagqIlQ0BnkJ8cgACYB+cmzsWQqwUee7nk
2f5tc8WgY1ADO8l8FHYRn019umsnfo5L9nfgzBjiuTwu4v3d13AxmA51nBeSjAcf
FxVPm6k9hXN8i044QObS+eFxK/BwjnnrXoMrflvcgLV3gRmE9uhK2K7j5rz9pUnC
8g8iKXO6D0QBXmC73EQaTd9826fT2zKRqGso
-----END CERTIFICATE-----
