Certificate:
    Data:
        Version: 3 (0x2)
        Serial Number:
            34:c3:95:e6:55:42:4f:28:65:35:ab:ba:06:8d:0c:82
        Signature Algorithm: sha256WithRSAEncryption
        Issuer: CN=team490-net
        Validity
            Not Before: Sep 13 03:10:53 2021 GMT
            Not After : Aug 28 03:10:53 2024 GMT
        Subject: CN=team490-client
        Subject Public Key Info:
            Public Key Algorithm: rsaEncryption
                RSA Public-Key: (2048 bit)
                Modulus:
                    00:b7:3c:b7:73:e7:31:fc:3c:0b:9c:c6:0d:47:ee:
                    3a:d1:1b:0b:00:5b:6c:2b:18:d6:48:f0:b2:71:1d:
                    74:4e:f4:ad:bc:19:df:73:8d:62:a1:5f:00:7e:c4:
                    fe:57:a4:bb:40:d7:81:f1:52:46:04:65:f6:df:07:
                    03:c7:00:62:4a:8a:4d:62:17:7a:11:35:29:ee:26:
                    3d:69:48:ab:78:c2:14:f9:14:81:7a:b5:39:e0:d4:
                    37:da:c1:14:14:33:fc:7e:e1:84:d5:3d:b3:24:f2:
                    65:98:7b:60:69:46:07:5c:a8:55:ea:08:2d:f2:66:
                    bc:6c:5e:68:86:43:4b:8b:29:42:6e:d0:23:10:95:
                    2c:73:77:a0:03:bb:3f:37:bc:29:b4:0a:30:ad:99:
                    bd:d1:9b:4d:fb:b9:9b:5e:3d:a1:00:28:71:37:e2:
                    ca:af:b1:e0:6a:2d:75:06:18:0c:dc:ba:4a:08:1a:
                    60:1b:16:d3:60:db:52:10:13:fc:f0:72:62:05:d4:
                    cc:6f:d4:e2:84:46:ae:32:c2:69:27:76:a0:44:1f:
                    d0:a9:46:72:27:e9:2c:19:dd:10:31:6f:25:6e:dd:
                    be:5e:bf:f3:c5:1e:28:de:49:f5:9c:55:16:0a:4d:
                    41:d6:b5:ed:85:4e:c9:50:b8:f7:b3:db:6f:d5:3b:
                    13:1f
                Exponent: 65537 (0x10001)
        X509v3 extensions:
            X509v3 Basic Constraints: 
                CA:FALSE
            X509v3 Subject Key Identifier: 
                B6:09:74:0A:0E:66:6B:48:55:D2:98:3D:ED:36:1F:FD:D6:D5:D4:14
            X509v3 Authority Key Identifier: 
                keyid:F2:65:B8:94:17:1E:C5:8D:54:86:0E:B3:C9:1B:F6:1F:19:13:4F:D7
                DirName:/CN=team490-net
                serial:4F:B6:C4:1C:8C:80:23:CD:F3:49:BB:F4:5C:7A:A9:C7:A6:4E:9A:C4

            X509v3 Extended Key Usage: 
                TLS Web Client Authentication
            X509v3 Key Usage: 
                Digital Signature
    Signature Algorithm: sha256WithRSAEncryption
         9a:43:62:13:8d:1a:e9:53:dd:ab:dd:ee:aa:2d:31:c7:bb:45:
         ba:6c:c5:45:52:e9:de:91:c3:51:b8:0a:97:b6:15:58:c7:75:
         4f:e9:d2:75:76:23:20:b4:56:0c:4c:22:59:30:9a:a3:24:02:
         e4:c0:34:a6:56:5e:fa:ef:64:15:c4:c6:85:7d:58:1f:47:d0:
         7d:e4:e3:c8:40:f5:c7:60:06:20:c1:e7:86:72:f8:ff:d2:8b:
         a0:15:1f:5e:c1:f7:a0:21:38:f4:6b:91:ce:eb:be:c8:20:95:
         75:82:fb:42:42:a9:65:6e:f2:81:11:d2:82:d9:e2:03:dc:e3:
         6f:62:a8:5a:58:a9:03:8c:e0:dd:d5:7d:ac:f3:33:13:9a:b3:
         f7:68:87:3e:68:8e:a4:e8:8d:91:26:c8:8c:dc:8b:dc:2c:3a:
         30:7b:4d:e5:97:4b:15:9f:f6:f3:99:37:f9:a0:99:67:fd:16:
         e8:f2:2c:95:7c:1a:a4:ab:e1:16:35:a0:4d:ab:e4:cf:3b:a7:
         ba:3e:1b:1f:05:98:df:04:6d:f8:a1:45:30:7e:75:91:14:25:
         e3:ab:f8:91:fc:56:88:95:83:92:42:09:1c:b8:5e:e7:d0:fb:
         24:9e:71:68:53:e9:2f:87:1e:83:2c:66:41:2b:c7:da:1e:2d:
         e8:6e:a4:c9
-----BEGIN CERTIFICATE-----
MIIDXDCCAkSgAwIBAgIQNMOV5lVCTyhlNau6Bo0MgjANBgkqhkiG9w0BAQsFADAW
MRQwEgYDVQQDDAt0ZWFtNDkwLW5ldDAeFw0yMTA5MTMwMzEwNTNaFw0yNDA4Mjgw
MzEwNTNaMBkxFzAVBgNVBAMMDnRlYW00OTAtY2xpZW50MIIBIjANBgkqhkiG9w0B
AQEFAAOCAQ8AMIIBCgKCAQEAtzy3c+cx/DwLnMYNR+460RsLAFtsKxjWSPCycR10
TvStvBnfc41ioV8AfsT+V6S7QNeB8VJGBGX23wcDxwBiSopNYhd6ETUp7iY9aUir
eMIU+RSBerU54NQ32sEUFDP8fuGE1T2zJPJlmHtgaUYHXKhV6ggt8ma8bF5ohkNL
iylCbtAjEJUsc3egA7s/N7wptAowrZm90ZtN+7mbXj2hAChxN+LKr7Hgai11BhgM
3LpKCBpgGxbTYNtSEBP88HJiBdTMb9TihEauMsJpJ3agRB/QqUZyJ+ksGd0QMW8l
bt2+Xr/zxR4o3kn1nFUWCk1B1rXthU7JULj3s9tv1TsTHwIDAQABo4GiMIGfMAkG
A1UdEwQCMAAwHQYDVR0OBBYEFLYJdAoOZmtIVdKYPe02H/3W1dQUMFEGA1UdIwRK
MEiAFPJluJQXHsWNVIYOs8kb9h8ZE0/XoRqkGDAWMRQwEgYDVQQDDAt0ZWFtNDkw
LW5ldIIUT7bEHIyAI83zSbv0XHqpx6ZOmsQwEwYDVR0lBAwwCgYIKwYBBQUHAwIw
CwYDVR0PBAQDAgeAMA0GCSqGSIb3DQEBCwUAA4IBAQCaQ2ITjRrpU92r3e6qLTHH
u0W6bMVFUunekcNRuAqXthVYx3VP6dJ1diMgtFYMTCJZMJqjJALkwDSmVl7672QV
xMaFfVgfR9B95OPIQPXHYAYgweeGcvj/0ougFR9ewfegITj0a5HO677IIJV1gvtC
QqllbvKBEdKC2eID3ONvYqhaWKkDjODd1X2s8zMTmrP3aIc+aI6k6I2RJsiM3Ivc
LDowe03ll0sVn/bzmTf5oJln/Rbo8iyVfBqkq+EWNaBNq+TPO6e6PhsfBZjfBG34
oUUwfnWRFCXjq/iR/FaIlYOSQgkcuF7n0PsknnFoU+kvhx6DLGZBK8faHi3obqTJ
-----END CERTIFICATE-----
