Certificate:
    Data:
        Version: 3 (0x2)
        Serial Number:
            62:bd:fb:e5:22:ae:84:dd:da:94:2d:a7:a6:3a:1f:da
        Signature Algorithm: sha256WithRSAEncryption
        Issuer: CN=team176-net
        Validity
            Not Before: Sep 13 00:19:41 2021 GMT
            Not After : Aug 28 00:19:41 2024 GMT
        Subject: CN=team176-server
        Subject Public Key Info:
            Public Key Algorithm: rsaEncryption
                RSA Public-Key: (2048 bit)
                Modulus:
                    00:c8:2c:fd:2c:c3:a2:c2:53:27:c1:5b:5d:e8:88:
                    21:23:29:bb:5e:89:a4:d4:de:63:51:d9:43:bc:c6:
                    ce:6f:a1:db:d5:0c:ad:e6:2f:a5:f7:ef:b9:1d:a9:
                    86:c9:de:c2:88:0e:d8:45:fb:13:8b:c2:d1:30:36:
                    45:8a:f8:63:13:ec:be:8f:ac:e0:1f:65:35:da:43:
                    71:62:d7:7c:d9:57:8c:c6:de:55:c2:31:0d:61:c6:
                    a6:57:f3:a1:4e:f6:e8:ff:d2:eb:dc:e8:d3:7d:a7:
                    ee:b1:34:fd:78:1d:29:56:24:69:cd:bf:68:e1:d5:
                    0f:d3:bd:7a:91:f2:44:0b:c9:a2:9e:82:56:7a:9c:
                    7b:83:9f:33:df:c2:58:2b:6d:05:fd:15:11:39:21:
                    bc:7c:c0:dd:1d:57:c6:ac:de:af:3a:96:e3:f0:94:
                    b0:6b:0b:d3:9c:08:a5:82:45:59:6c:35:20:1b:85:
                    a9:d9:b0:cb:8b:c8:1e:b6:20:f9:1a:49:29:a7:42:
                    d5:70:4e:62:b1:3c:ae:a9:61:8b:6f:a0:41:82:1a:
                    69:c0:eb:9d:43:d4:ef:89:4f:f0:e5:8a:c0:76:20:
                    9d:6c:20:0a:4d:e0:0a:d7:fe:6a:18:ae:16:41:87:
                    dc:e7:92:02:41:d4:3b:eb:c5:a3:d6:27:d9:9b:e5:
                    3c:21
                Exponent: 65537 (0x10001)
        X509v3 extensions:
            X509v3 Basic Constraints: 
                CA:FALSE
            X509v3 Subject Key Identifier: 
                C7:F5:7B:8A:E2:F9:80:A4:AA:DF:AE:B6:D1:20:AB:06:1F:CA:96:64
            X509v3 Authority Key Identifier: 
                keyid:D3:6C:D6:11:BC:DE:16:F5:74:28:C1:00:08:75:0C:9F:95:C6:FC:AE
                DirName:/CN=team176-net
                serial:4C:B5:3C:E6:20:BC:15:12:CD:67:68:21:33:6C:BA:BF:91:51:51:30

            X509v3 Extended Key Usage: 
                TLS Web Server Authentication
            X509v3 Key Usage: 
                Digital Signature, Key Encipherment
            X509v3 Subject Alternative Name: 
                DNS:team176-server
    Signature Algorithm: sha256WithRSAEncryption
         a1:57:77:09:45:31:b2:bd:76:bb:2b:9b:58:f9:aa:5e:82:f1:
         f3:e9:58:15:60:15:68:67:11:13:6b:39:85:c9:33:b4:22:65:
         e2:77:06:af:ea:8b:1f:07:78:af:89:73:8b:a6:ac:47:d2:53:
         76:f1:2d:5e:75:4b:ee:b3:45:19:c3:94:15:94:6d:c1:df:01:
         2f:31:29:84:93:ac:6b:72:a0:3b:21:27:92:14:cc:44:07:ca:
         a9:8d:c8:92:45:98:38:02:f3:82:2a:95:2c:53:58:2e:a2:fb:
         fe:aa:f6:80:1c:d9:b3:e7:d8:e6:c2:c3:43:3c:f1:06:aa:45:
         05:dd:06:91:e3:05:ef:a4:fa:27:04:6e:d0:29:f3:06:a3:30:
         50:21:d7:cd:a9:5e:16:b6:61:6d:d4:84:28:1d:f1:12:65:0d:
         50:3d:b0:db:64:02:8e:7b:ac:a1:5e:91:05:32:ff:00:85:d8:
         84:6f:87:85:e6:c6:d4:7f:2f:c6:59:41:5e:7f:13:0a:a5:38:
         71:f0:99:11:f0:ce:fb:00:40:19:ae:3d:13:4e:c8:3f:ba:7d:
         91:4b:f8:6f:3c:c3:46:fe:59:c3:c7:df:b5:67:9d:54:d2:91:
         8b:20:09:06:4d:b4:39:61:d4:d2:2a:a1:d8:8b:7b:9e:81:5f:
         40:45:e2:ce
-----BEGIN CERTIFICATE-----
MIIDdzCCAl+gAwIBAgIQYr375SKuhN3alC2npjof2jANBgkqhkiG9w0BAQsFADAW
MRQwEgYDVQQDDAt0ZWFtMTc2LW5ldDAeFw0yMTA5MTMwMDE5NDFaFw0yNDA4Mjgw
MDE5NDFaMBkxFzAVBgNVBAMMDnRlYW0xNzYtc2VydmVyMIIBIjANBgkqhkiG9w0B
AQEFAAOCAQ8AMIIBCgKCAQEAyCz9LMOiwlMnwVtd6IghIym7Xomk1N5jUdlDvMbO
b6Hb1Qyt5i+l9++5HamGyd7CiA7YRfsTi8LRMDZFivhjE+y+j6zgH2U12kNxYtd8
2VeMxt5VwjENYcamV/OhTvbo/9Lr3OjTfafusTT9eB0pViRpzb9o4dUP0716kfJE
C8minoJWepx7g58z38JYK20F/RUROSG8fMDdHVfGrN6vOpbj8JSwawvTnAilgkVZ
bDUgG4Wp2bDLi8getiD5Gkkpp0LVcE5isTyuqWGLb6BBghppwOudQ9TviU/w5YrA
diCdbCAKTeAK1/5qGK4WQYfc55ICQdQ768Wj1ifZm+U8IQIDAQABo4G9MIG6MAkG
A1UdEwQCMAAwHQYDVR0OBBYEFMf1e4ri+YCkqt+uttEgqwYfypZkMFEGA1UdIwRK
MEiAFNNs1hG83hb1dCjBAAh1DJ+VxvyuoRqkGDAWMRQwEgYDVQQDDAt0ZWFtMTc2
LW5ldIIUTLU85iC8FRLNZ2ghM2y6v5FRUTAwEwYDVR0lBAwwCgYIKwYBBQUHAwEw
CwYDVR0PBAQDAgWgMBkGA1UdEQQSMBCCDnRlYW0xNzYtc2VydmVyMA0GCSqGSIb3
DQEBCwUAA4IBAQChV3cJRTGyvXa7K5tY+apegvHz6VgVYBVoZxETazmFyTO0ImXi
dwav6osfB3iviXOLpqxH0lN28S1edUvus0UZw5QVlG3B3wEvMSmEk6xrcqA7ISeS
FMxEB8qpjciSRZg4AvOCKpUsU1guovv+qvaAHNmz59jmwsNDPPEGqkUF3QaR4wXv
pPonBG7QKfMGozBQIdfNqV4WtmFt1IQoHfESZQ1QPbDbZAKOe6yhXpEFMv8AhdiE
b4eF5sbUfy/GWUFefxMKpThx8JkR8M77AEAZrj0TTsg/un2RS/hvPMNG/lnDx9+1
Z51U0pGLIAkGTbQ5YdTSKqHYi3uegV9AReLO
-----END CERTIFICATE-----
