Certificate:
    Data:
        Version: 3 (0x2)
        Serial Number:
            0e:68:67:6e:ae:4e:1c:b2:09:ed:1b:c6:fd:76:7a:75
        Signature Algorithm: sha256WithRSAEncryption
        Issuer: CN=team168-net
        Validity
            Not Before: Sep 13 00:13:02 2021 GMT
            Not After : Aug 28 00:13:02 2024 GMT
        Subject: CN=team168-server
        Subject Public Key Info:
            Public Key Algorithm: rsaEncryption
                RSA Public-Key: (2048 bit)
                Modulus:
                    00:be:8a:8e:39:23:15:f0:65:7e:ac:ab:39:a4:c0:
                    d7:10:fe:23:8c:e2:cc:a4:ca:dd:65:74:52:cb:24:
                    32:06:6d:36:c9:ee:79:b6:29:60:2d:20:06:eb:58:
                    2a:b8:dd:0a:af:8d:41:67:8e:d7:5d:a3:01:80:e3:
                    4d:cc:57:05:0d:e0:1d:16:c5:fe:68:cc:64:62:37:
                    ad:f9:0c:65:f2:20:5a:ce:3f:ed:37:44:63:db:d2:
                    40:e3:c0:18:73:24:b4:b4:f9:98:16:f0:e1:51:0b:
                    89:67:87:5d:47:b4:1a:2e:13:e9:67:d0:b8:71:59:
                    8e:8c:26:ea:18:6a:aa:12:5b:10:3e:6a:47:4c:e9:
                    ce:e4:f4:54:ea:0f:3e:8d:80:b2:43:55:35:ec:3e:
                    e0:d9:47:33:d6:f2:b1:a8:2e:81:08:4d:69:d7:a1:
                    c7:6e:e4:a7:4c:56:46:e6:c7:66:47:4d:60:6a:19:
                    c3:06:5e:26:a4:15:19:85:b6:b9:fc:68:6c:4c:fa:
                    29:6c:e1:de:ac:59:f4:b7:25:57:d0:de:f8:c1:5b:
                    fe:3c:84:45:01:e8:ca:f0:ff:7c:8e:db:b5:df:b5:
                    8e:9d:fc:1d:c5:d2:c5:5f:47:09:98:04:39:96:98:
                    5c:c2:35:1e:f2:d5:b0:f1:89:41:57:1b:90:1f:96:
                    ed:15
                Exponent: 65537 (0x10001)
        X509v3 extensions:
            X509v3 Basic Constraints: 
                CA:FALSE
            X509v3 Subject Key Identifier: 
                61:4E:B3:44:E5:D2:FE:28:5E:98:35:02:CD:06:6E:6A:D9:53:4B:36
            X509v3 Authority Key Identifier: 
                keyid:45:A5:3E:94:40:F2:FE:4B:4C:63:6A:0F:B9:58:DA:9B:70:94:2B:A8
                DirName:/CN=team168-net
                serial:64:10:DA:8B:F4:44:36:F2:0D:22:7F:89:5F:E6:2B:E6:92:8F:DB:2F

            X509v3 Extended Key Usage: 
                TLS Web Server Authentication
            X509v3 Key Usage: 
                Digital Signature, Key Encipherment
            X509v3 Subject Alternative Name: 
                DNS:team168-server
    Signature Algorithm: sha256WithRSAEncryption
         b4:e0:be:3d:28:7c:bf:e7:fa:35:7b:28:87:6b:82:79:b6:81:
         fb:37:c6:6e:6e:12:5e:93:4d:7f:a8:a3:e2:ff:fb:9a:a4:95:
         d7:89:80:d2:54:97:28:7a:89:50:ff:c0:aa:fd:1a:e0:03:ff:
         cb:53:8c:3e:4e:38:eb:dd:8c:29:d4:15:fb:15:03:88:d1:3f:
         31:17:a7:62:98:b6:81:f2:ec:26:45:46:88:4a:ef:56:d7:c5:
         60:16:9e:fe:b5:b8:1e:af:6e:33:f5:ce:3e:fd:7f:f3:92:45:
         47:83:c6:b1:86:3e:60:9c:b0:b3:58:82:f8:2b:c8:39:e5:84:
         e7:24:62:6b:ad:5d:60:f6:f2:7c:f3:23:be:02:30:a8:bb:b8:
         42:6f:10:f1:3d:d7:da:af:1f:c0:3e:89:2b:94:ee:fb:73:9f:
         3e:50:c9:16:0f:54:f0:b8:c1:5a:10:cd:68:12:89:34:17:1c:
         02:01:f5:bd:f0:4f:8f:b7:e7:69:ef:42:86:7a:7a:12:4f:1b:
         bb:86:32:7f:57:d5:66:db:fa:18:d9:44:2d:f8:03:4a:7e:d0:
         12:48:79:59:d2:4b:1b:79:ea:d2:9c:d0:c2:6e:69:0c:25:6d:
         b5:75:7c:d4:fa:30:21:b2:f8:2f:12:e1:66:82:70:d2:68:bf:
         6a:69:1b:e6
-----BEGIN CERTIFICATE-----
MIIDdzCCAl+gAwIBAgIQDmhnbq5OHLIJ7RvG/XZ6dTANBgkqhkiG9w0BAQsFADAW
MRQwEgYDVQQDDAt0ZWFtMTY4LW5ldDAeFw0yMTA5MTMwMDEzMDJaFw0yNDA4Mjgw
MDEzMDJaMBkxFzAVBgNVBAMMDnRlYW0xNjgtc2VydmVyMIIBIjANBgkqhkiG9w0B
AQEFAAOCAQ8AMIIBCgKCAQEAvoqOOSMV8GV+rKs5pMDXEP4jjOLMpMrdZXRSyyQy
Bm02ye55tilgLSAG61gquN0Kr41BZ47XXaMBgONNzFcFDeAdFsX+aMxkYjet+Qxl
8iBazj/tN0Rj29JA48AYcyS0tPmYFvDhUQuJZ4ddR7QaLhPpZ9C4cVmOjCbqGGqq
ElsQPmpHTOnO5PRU6g8+jYCyQ1U17D7g2Ucz1vKxqC6BCE1p16HHbuSnTFZG5sdm
R01gahnDBl4mpBUZhba5/GhsTPopbOHerFn0tyVX0N74wVv+PIRFAejK8P98jtu1
37WOnfwdxdLFX0cJmAQ5lphcwjUe8tWw8YlBVxuQH5btFQIDAQABo4G9MIG6MAkG
A1UdEwQCMAAwHQYDVR0OBBYEFGFOs0Tl0v4oXpg1As0GbmrZU0s2MFEGA1UdIwRK
MEiAFEWlPpRA8v5LTGNqD7lY2ptwlCuooRqkGDAWMRQwEgYDVQQDDAt0ZWFtMTY4
LW5ldIIUZBDai/RENvINIn+JX+Yr5pKP2y8wEwYDVR0lBAwwCgYIKwYBBQUHAwEw
CwYDVR0PBAQDAgWgMBkGA1UdEQQSMBCCDnRlYW0xNjgtc2VydmVyMA0GCSqGSIb3
DQEBCwUAA4IBAQC04L49KHy/5/o1eyiHa4J5toH7N8ZubhJek01/qKPi//uapJXX
iYDSVJcoeolQ/8Cq/RrgA//LU4w+Tjjr3Ywp1BX7FQOI0T8xF6dimLaB8uwmRUaI
Su9W18VgFp7+tbger24z9c4+/X/zkkVHg8axhj5gnLCzWIL4K8g55YTnJGJrrV1g
9vJ88yO+AjCou7hCbxDxPdfarx/APokrlO77c58+UMkWD1TwuMFaEM1oEok0FxwC
AfW98E+Pt+dp70KGenoSTxu7hjJ/V9Vm2/oY2UQt+ANKftASSHlZ0ksbeerSnNDC
bmkMJW21dXzU+jAhsvgvEuFmgnDSaL9qaRvm
-----END CERTIFICATE-----
