Certificate:
    Data:
        Version: 3 (0x2)
        Serial Number:
            7c:44:6b:ee:fc:ee:a8:9c:b0:e3:75:01:a8:0a:55:94
        Signature Algorithm: sha256WithRSAEncryption
        Issuer: CN=team515-net
        Validity
            Not Before: Sep 13 03:26:32 2021 GMT
            Not After : Aug 28 03:26:32 2024 GMT
        Subject: CN=team515-server
        Subject Public Key Info:
            Public Key Algorithm: rsaEncryption
                RSA Public-Key: (2048 bit)
                Modulus:
                    00:bc:b5:bc:8e:b6:f3:1c:ce:6d:ea:0e:66:08:fa:
                    60:86:92:7f:23:da:1f:65:46:2e:a5:38:c5:d3:bb:
                    2c:95:b9:a9:ea:95:b7:4d:5f:a5:db:f7:dd:3f:6b:
                    1f:1b:27:72:af:ca:4d:62:9d:71:25:27:99:a2:a7:
                    4f:40:54:18:e6:c6:fd:45:e6:82:fe:4c:5f:58:ac:
                    9d:8e:84:62:a3:1b:f7:ae:10:6a:bb:04:b0:f0:e1:
                    bb:45:b2:b3:f8:84:6c:11:c2:ee:92:02:a3:7b:f8:
                    29:b7:0a:72:5f:bb:5a:06:a9:98:73:cb:f5:81:2d:
                    af:74:8b:5d:e8:c7:c9:4f:cc:60:b4:6a:91:c2:6e:
                    6d:95:d8:fa:db:42:14:2a:24:33:0b:9e:d4:8f:29:
                    c5:c5:ca:0a:05:0d:93:ed:f9:58:96:86:f1:a3:94:
                    fd:08:e0:de:91:b0:ad:f2:4b:31:0a:6e:07:8e:0e:
                    bd:20:57:9a:58:b7:66:68:3a:43:d4:63:07:f6:79:
                    6b:b8:94:c0:0d:70:12:6a:0b:da:e6:85:38:9d:7d:
                    33:c1:e5:4a:b3:71:4c:e9:64:40:d4:fb:9a:50:cc:
                    7d:d5:80:3b:0b:2a:25:48:5e:79:19:d1:d7:1f:52:
                    d7:09:3a:8b:55:ab:79:20:40:d9:0c:b7:d3:b0:0f:
                    1a:e3
                Exponent: 65537 (0x10001)
        X509v3 extensions:
            X509v3 Basic Constraints: 
                CA:FALSE
            X509v3 Subject Key Identifier: 
                AF:01:28:D2:4E:65:81:2D:8A:9F:BD:88:78:8E:AF:A6:FE:ED:93:8D
            X509v3 Authority Key Identifier: 
                keyid:9E:F8:02:DA:11:67:94:96:6F:B6:49:0F:68:4C:B9:C0:AF:30:9C:8B
                DirName:/CN=team515-net
                serial:08:BE:81:62:9D:CE:DC:87:13:BD:FC:80:25:80:5C:30:F8:B9:EE:D0

            X509v3 Extended Key Usage: 
                TLS Web Server Authentication
            X509v3 Key Usage: 
                Digital Signature, Key Encipherment
            X509v3 Subject Alternative Name: 
                DNS:team515-server
    Signature Algorithm: sha256WithRSAEncryption
         5e:bb:97:e7:57:86:ef:d5:62:00:32:aa:f9:39:8a:a6:73:7f:
         be:1a:ed:63:80:ca:63:f3:2a:56:52:12:7a:05:f9:b0:40:3f:
         0c:e5:4a:6d:8b:5c:af:1a:7d:14:f6:3c:d3:eb:55:c6:8e:9f:
         71:82:6e:95:fc:2e:1c:41:b8:ed:b7:2e:ad:c9:54:6e:68:02:
         6e:ea:a1:bc:27:d5:67:07:73:72:e2:9c:82:0e:86:70:4d:9a:
         8e:0a:94:90:5b:bf:4e:e2:2b:76:6c:e3:8f:7f:c5:13:61:93:
         18:92:e9:89:f9:3a:ea:9d:36:84:23:0d:b1:7f:31:01:41:f2:
         2f:7b:ec:da:f3:f5:d1:a8:8b:e6:fa:af:1e:71:17:5c:c5:e4:
         e9:1c:d4:84:f4:c8:79:c9:b5:11:cd:62:7d:96:e3:d5:54:b2:
         16:23:ac:b4:9c:a5:bf:c9:b7:82:fc:0b:b6:72:22:d8:12:0e:
         cb:25:94:6a:00:7d:d9:e9:c7:b3:0c:b7:34:46:4b:e2:50:6f:
         2a:24:ee:13:7c:c2:41:3b:12:6f:0f:4c:a2:0d:48:ac:48:8c:
         28:64:3e:70:17:c8:d9:f0:6a:a8:62:f6:bd:fa:37:f0:2c:55:
         6b:28:4b:56:07:8b:cf:99:4f:84:49:4c:d9:63:3c:76:d8:08:
         5a:e2:8a:30
-----BEGIN CERTIFICATE-----
MIIDdzCCAl+gAwIBAgIQfERr7vzuqJyw43UBqApVlDANBgkqhkiG9w0BAQsFADAW
MRQwEgYDVQQDDAt0ZWFtNTE1LW5ldDAeFw0yMTA5MTMwMzI2MzJaFw0yNDA4Mjgw
MzI2MzJaMBkxFzAVBgNVBAMMDnRlYW01MTUtc2VydmVyMIIBIjANBgkqhkiG9w0B
AQEFAAOCAQ8AMIIBCgKCAQEAvLW8jrbzHM5t6g5mCPpghpJ/I9ofZUYupTjF07ss
lbmp6pW3TV+l2/fdP2sfGydyr8pNYp1xJSeZoqdPQFQY5sb9ReaC/kxfWKydjoRi
oxv3rhBquwSw8OG7RbKz+IRsEcLukgKje/gptwpyX7taBqmYc8v1gS2vdItd6MfJ
T8xgtGqRwm5tldj620IUKiQzC57UjynFxcoKBQ2T7flYlobxo5T9CODekbCt8ksx
Cm4Hjg69IFeaWLdmaDpD1GMH9nlruJTADXASagva5oU4nX0zweVKs3FM6WRA1Pua
UMx91YA7CyolSF55GdHXH1LXCTqLVat5IEDZDLfTsA8a4wIDAQABo4G9MIG6MAkG
A1UdEwQCMAAwHQYDVR0OBBYEFK8BKNJOZYEtip+9iHiOr6b+7ZONMFEGA1UdIwRK
MEiAFJ74AtoRZ5SWb7ZJD2hMucCvMJyLoRqkGDAWMRQwEgYDVQQDDAt0ZWFtNTE1
LW5ldIIUCL6BYp3O3IcTvfyAJYBcMPi57tAwEwYDVR0lBAwwCgYIKwYBBQUHAwEw
CwYDVR0PBAQDAgWgMBkGA1UdEQQSMBCCDnRlYW01MTUtc2VydmVyMA0GCSqGSIb3
DQEBCwUAA4IBAQBeu5fnV4bv1WIAMqr5OYqmc3++Gu1jgMpj8ypWUhJ6BfmwQD8M
5Upti1yvGn0U9jzT61XGjp9xgm6V/C4cQbjtty6tyVRuaAJu6qG8J9VnB3Ny4pyC
DoZwTZqOCpSQW79O4it2bOOPf8UTYZMYkumJ+TrqnTaEIw2xfzEBQfIve+za8/XR
qIvm+q8ecRdcxeTpHNSE9Mh5ybURzWJ9luPVVLIWI6y0nKW/ybeC/Au2ciLYEg7L
JZRqAH3Z6cezDLc0RkviUG8qJO4TfMJBOxJvD0yiDUisSIwoZD5wF8jZ8GqoYva9
+jfwLFVrKEtWB4vPmU+ESUzZYzx22Aha4oow
-----END CERTIFICATE-----
