Certificate:
    Data:
        Version: 3 (0x2)
        Serial Number:
            33:63:e0:0f:9b:39:e8:80:91:cc:15:86:6e:ca:86:e5
        Signature Algorithm: sha256WithRSAEncryption
        Issuer: CN=team503-net
        Validity
            Not Before: Sep 13 03:20:33 2021 GMT
            Not After : Aug 28 03:20:33 2024 GMT
        Subject: CN=team503-client
        Subject Public Key Info:
            Public Key Algorithm: rsaEncryption
                RSA Public-Key: (2048 bit)
                Modulus:
                    00:d0:59:01:7b:6e:2e:fd:24:fe:48:df:5d:3a:4a:
                    64:0d:61:ed:4b:87:c0:70:a4:cd:b2:2a:97:34:8c:
                    15:a1:a6:5b:af:af:d8:a3:ba:1f:3d:f8:20:a5:5e:
                    32:b1:5b:94:58:03:e6:75:5b:d3:80:2b:82:2e:f2:
                    f4:d0:bb:ad:72:ef:2e:20:be:94:4a:2c:9d:2e:8e:
                    33:75:43:c0:03:c8:cf:ab:9c:7e:f1:1e:0a:e0:d0:
                    8c:d5:fe:53:6a:5f:71:35:4a:ec:57:22:2f:99:13:
                    82:ee:34:5a:50:a4:5f:31:05:91:32:f2:91:42:da:
                    2a:66:cb:3c:98:aa:e2:d1:dc:01:11:96:07:2c:68:
                    34:31:bf:5d:a2:79:37:5b:4e:69:83:49:3a:6d:8d:
                    ef:ff:59:47:09:46:4d:c7:4d:f7:73:4a:d5:ae:da:
                    82:34:65:56:b4:b6:b0:a3:cd:fa:61:a4:d2:c0:ed:
                    44:9a:aa:51:20:cd:e9:b0:6a:8b:4c:97:d0:38:4f:
                    f4:10:18:27:66:50:90:d9:2d:4e:6e:e6:e1:15:54:
                    a3:4b:29:69:0d:ee:b6:36:bd:42:88:f6:cb:4f:f6:
                    9f:df:9e:6e:7d:7b:a4:82:28:88:c4:21:aa:4c:b0:
                    2c:c7:98:9c:f0:a5:61:d8:47:cd:f2:d4:03:40:92:
                    08:a1
                Exponent: 65537 (0x10001)
        X509v3 extensions:
            X509v3 Basic Constraints: 
                CA:FALSE
            X509v3 Subject Key Identifier: 
                DA:83:D6:43:0A:78:47:B3:46:64:DA:5C:61:4F:79:8A:33:35:3D:2E
            X509v3 Authority Key Identifier: 
                keyid:3F:CE:0A:32:B1:5A:49:A4:DD:AD:00:91:20:2B:12:2E:E0:B8:7A:95
                DirName:/CN=team503-net
                serial:72:F6:71:5F:E7:7A:A4:A1:C0:3E:EB:DD:E8:B2:02:39:C8:B7:BA:46

            X509v3 Extended Key Usage: 
                TLS Web Client Authentication
            X509v3 Key Usage: 
                Digital Signature
    Signature Algorithm: sha256WithRSAEncryption
         12:96:24:fb:34:d8:46:43:a0:1c:96:21:32:89:23:ee:ef:9f:
         94:2e:04:54:db:0d:61:df:83:13:c0:8d:64:4e:40:78:bd:8b:
         08:e9:18:48:b7:e2:09:ff:d5:9f:66:34:38:f4:af:18:8e:ac:
         f6:50:e0:1a:c4:98:8c:ac:16:0a:98:00:c4:b5:b2:8c:99:28:
         4c:c6:36:6a:77:8b:28:04:97:ef:9c:91:fd:0a:d0:24:33:5e:
         b9:19:63:49:57:09:a6:f8:72:0b:aa:d3:19:31:7f:ec:3a:be:
         a0:eb:a7:17:9e:8d:ef:97:ac:d3:38:71:15:7b:87:d5:ad:c0:
         9f:d0:37:d4:78:55:7b:fc:40:48:54:37:c0:76:01:3b:c6:97:
         bb:f1:34:b1:70:fc:43:fd:a8:f9:4f:84:f6:1d:93:fc:48:1f:
         f8:65:cf:e8:93:29:f8:22:2d:dc:3a:9e:6c:c0:1b:03:21:86:
         d9:b8:90:2d:1a:c8:9a:9f:1b:6e:7a:97:c3:46:3f:b5:9a:0f:
         b5:8b:fe:4a:91:94:8c:e2:55:a0:3c:9c:2f:d4:cd:15:9c:ad:
         7a:3e:42:2d:de:d8:d8:23:2d:91:32:d8:f2:87:95:b0:9b:84:
         31:50:ee:b0:22:c7:66:a7:46:8f:7f:09:66:b2:d0:d2:3a:6a:
         ad:60:db:51
-----BEGIN CERTIFICATE-----
MIIDXDCCAkSgAwIBAgIQM2PgD5s56ICRzBWGbsqG5TANBgkqhkiG9w0BAQsFADAW
MRQwEgYDVQQDDAt0ZWFtNTAzLW5ldDAeFw0yMTA5MTMwMzIwMzNaFw0yNDA4Mjgw
MzIwMzNaMBkxFzAVBgNVBAMMDnRlYW01MDMtY2xpZW50MIIBIjANBgkqhkiG9w0B
AQEFAAOCAQ8AMIIBCgKCAQEA0FkBe24u/ST+SN9dOkpkDWHtS4fAcKTNsiqXNIwV
oaZbr6/Yo7ofPfggpV4ysVuUWAPmdVvTgCuCLvL00Lutcu8uIL6USiydLo4zdUPA
A8jPq5x+8R4K4NCM1f5Tal9xNUrsVyIvmROC7jRaUKRfMQWRMvKRQtoqZss8mKri
0dwBEZYHLGg0Mb9donk3W05pg0k6bY3v/1lHCUZNx033c0rVrtqCNGVWtLawo836
YaTSwO1EmqpRIM3psGqLTJfQOE/0EBgnZlCQ2S1ObubhFVSjSylpDe62Nr1CiPbL
T/af355ufXukgiiIxCGqTLAsx5ic8KVh2EfN8tQDQJIIoQIDAQABo4GiMIGfMAkG
A1UdEwQCMAAwHQYDVR0OBBYEFNqD1kMKeEezRmTaXGFPeYozNT0uMFEGA1UdIwRK
MEiAFD/OCjKxWkmk3a0AkSArEi7guHqVoRqkGDAWMRQwEgYDVQQDDAt0ZWFtNTAz
LW5ldIIUcvZxX+d6pKHAPuvd6LICOci3ukYwEwYDVR0lBAwwCgYIKwYBBQUHAwIw
CwYDVR0PBAQDAgeAMA0GCSqGSIb3DQEBCwUAA4IBAQASliT7NNhGQ6AcliEyiSPu
75+ULgRU2w1h34MTwI1kTkB4vYsI6RhIt+IJ/9WfZjQ49K8Yjqz2UOAaxJiMrBYK
mADEtbKMmShMxjZqd4soBJfvnJH9CtAkM165GWNJVwmm+HILqtMZMX/sOr6g66cX
no3vl6zTOHEVe4fVrcCf0DfUeFV7/EBIVDfAdgE7xpe78TSxcPxD/aj5T4T2HZP8
SB/4Zc/okyn4Ii3cOp5swBsDIYbZuJAtGsianxtuepfDRj+1mg+1i/5KkZSM4lWg
PJwv1M0VnK16PkIt3tjYIy2RMtjyh5Wwm4QxUO6wIsdmp0aPfwlmstDSOmqtYNtR
-----END CERTIFICATE-----
