Certificate:
    Data:
        Version: 3 (0x2)
        Serial Number:
            31:07:09:36:6d:22:6f:f3:cd:b0:1f:53:b8:17:80:f8
        Signature Algorithm: sha256WithRSAEncryption
        Issuer: CN=team305-net
        Validity
            Not Before: Sep 13 01:29:10 2021 GMT
            Not After : Aug 28 01:29:10 2024 GMT
        Subject: CN=team305-client
        Subject Public Key Info:
            Public Key Algorithm: rsaEncryption
                RSA Public-Key: (2048 bit)
                Modulus:
                    00:ba:2b:9b:15:74:c3:b9:17:39:97:b9:c4:89:7c:
                    f6:46:53:20:b5:a1:ce:bf:3d:c6:86:a4:ce:29:6c:
                    ef:69:33:ee:31:9b:8d:69:65:6b:09:5a:5b:d9:15:
                    c2:23:36:76:01:f1:35:09:d2:06:ba:c2:35:fd:c7:
                    19:13:0a:cb:70:12:e4:4d:22:90:c1:14:08:01:9c:
                    6a:8f:a0:e8:26:82:b6:6a:8a:7d:fa:fb:cc:ef:94:
                    9e:36:4b:2e:b5:1c:92:fb:7e:ea:e7:a2:fc:5f:ec:
                    ae:f0:5d:16:db:16:1a:dc:4f:1d:f9:c1:e4:a2:98:
                    5b:64:f4:68:f9:80:aa:6f:8a:c9:d1:b8:9d:71:a5:
                    07:17:36:f5:04:1f:8a:64:f8:60:15:12:52:dc:8c:
                    5e:c6:23:43:11:e4:d4:a1:0f:45:8c:a1:7c:10:ed:
                    9c:e2:75:d7:44:a5:50:e7:ec:b2:c2:07:b7:b3:23:
                    ff:19:e2:42:a0:67:62:72:66:c8:81:b2:a1:bc:40:
                    91:c9:ad:34:76:8a:91:d4:ee:bb:6e:41:5a:ff:89:
                    29:08:ab:d9:a3:03:0f:b7:03:e5:71:5e:30:6b:99:
                    b5:32:48:72:25:d9:4a:03:7d:d6:3e:75:5b:8b:86:
                    bc:86:b2:57:82:aa:9e:7d:8c:23:2d:e9:b2:33:06:
                    98:3b
                Exponent: 65537 (0x10001)
        X509v3 extensions:
            X509v3 Basic Constraints: 
                CA:FALSE
            X509v3 Subject Key Identifier: 
                F8:A4:0F:78:2F:B3:17:64:20:0D:C0:6C:6C:DB:83:DE:88:73:48:47
            X509v3 Authority Key Identifier: 
                keyid:D1:B1:B8:DB:8E:CF:D8:02:1B:9E:B6:EF:FC:D7:43:4E:D2:F3:7A:D8
                DirName:/CN=team305-net
                serial:50:1A:29:81:D2:E8:0B:A0:AF:8B:9F:64:F5:31:21:49:FE:AB:87:D7

            X509v3 Extended Key Usage: 
                TLS Web Client Authentication
            X509v3 Key Usage: 
                Digital Signature
    Signature Algorithm: sha256WithRSAEncryption
         33:99:6a:6c:8d:45:e6:31:56:a8:26:b3:d7:3a:79:a6:60:6c:
         78:26:d1:85:cf:e0:2d:d9:1c:61:7d:58:cc:46:97:ea:d2:de:
         5a:86:e0:b3:72:86:8e:8d:1a:91:e8:30:1a:3e:c9:28:67:b3:
         37:3c:ce:d0:41:61:4e:12:0d:2f:17:86:02:70:61:90:9e:4c:
         ad:fa:10:50:a3:78:e3:e2:b6:51:2c:44:a8:39:2e:46:55:fc:
         20:f7:34:fd:4f:1a:b2:13:2b:b8:3c:1c:25:c4:3c:09:e4:ee:
         26:fe:e0:83:fe:36:bb:47:7a:7b:c0:06:d0:b3:51:51:30:aa:
         91:71:31:1b:a4:84:64:dc:3b:d6:1e:ea:69:c2:87:97:f3:19:
         b7:80:1b:34:74:22:8e:e6:f5:c8:7c:2f:ec:c7:7c:6e:9e:ff:
         d4:f9:c6:73:14:40:9e:27:ca:8a:48:55:dd:89:7a:b5:ae:66:
         7d:a7:ff:12:b8:03:be:ff:e0:0d:80:ee:5e:c9:93:2e:3a:17:
         80:4a:a2:d1:fc:a0:f1:ee:99:8e:6e:23:5d:ee:c2:f2:4e:25:
         88:b7:55:0c:89:12:62:83:85:e7:c0:90:75:95:dc:76:0c:c5:
         eb:f8:fe:e8:33:fe:a9:8c:3a:f7:d4:95:17:8f:41:4b:5c:69:
         ae:d0:01:83
-----BEGIN CERTIFICATE-----
MIIDXDCCAkSgAwIBAgIQMQcJNm0ib/PNsB9TuBeA+DANBgkqhkiG9w0BAQsFADAW
MRQwEgYDVQQDDAt0ZWFtMzA1LW5ldDAeFw0yMTA5MTMwMTI5MTBaFw0yNDA4Mjgw
MTI5MTBaMBkxFzAVBgNVBAMMDnRlYW0zMDUtY2xpZW50MIIBIjANBgkqhkiG9w0B
AQEFAAOCAQ8AMIIBCgKCAQEAuiubFXTDuRc5l7nEiXz2RlMgtaHOvz3GhqTOKWzv
aTPuMZuNaWVrCVpb2RXCIzZ2AfE1CdIGusI1/ccZEwrLcBLkTSKQwRQIAZxqj6Do
JoK2aop9+vvM75SeNksutRyS+37q56L8X+yu8F0W2xYa3E8d+cHkophbZPRo+YCq
b4rJ0bidcaUHFzb1BB+KZPhgFRJS3IxexiNDEeTUoQ9FjKF8EO2c4nXXRKVQ5+yy
wge3syP/GeJCoGdicmbIgbKhvECRya00doqR1O67bkFa/4kpCKvZowMPtwPlcV4w
a5m1MkhyJdlKA33WPnVbi4a8hrJXgqqefYwjLemyMwaYOwIDAQABo4GiMIGfMAkG
A1UdEwQCMAAwHQYDVR0OBBYEFPikD3gvsxdkIA3AbGzbg96Ic0hHMFEGA1UdIwRK
MEiAFNGxuNuOz9gCG5627/zXQ07S83rYoRqkGDAWMRQwEgYDVQQDDAt0ZWFtMzA1
LW5ldIIUUBopgdLoC6Cvi59k9TEhSf6rh9cwEwYDVR0lBAwwCgYIKwYBBQUHAwIw
CwYDVR0PBAQDAgeAMA0GCSqGSIb3DQEBCwUAA4IBAQAzmWpsjUXmMVaoJrPXOnmm
YGx4JtGFz+At2RxhfVjMRpfq0t5ahuCzcoaOjRqR6DAaPskoZ7M3PM7QQWFOEg0v
F4YCcGGQnkyt+hBQo3jj4rZRLESoOS5GVfwg9zT9TxqyEyu4PBwlxDwJ5O4m/uCD
/ja7R3p7wAbQs1FRMKqRcTEbpIRk3DvWHuppwoeX8xm3gBs0dCKO5vXIfC/sx3xu
nv/U+cZzFECeJ8qKSFXdiXq1rmZ9p/8SuAO+/+ANgO5eyZMuOheASqLR/KDx7pmO
biNd7sLyTiWIt1UMiRJig4XnwJB1ldx2DMXr+P7oM/6pjDr31JUXj0FLXGmu0AGD
-----END CERTIFICATE-----
