Certificate:
    Data:
        Version: 3 (0x2)
        Serial Number:
            77:58:5d:65:a0:ce:ed:d2:8c:aa:53:f6:a7:46:1a:e7
        Signature Algorithm: sha256WithRSAEncryption
        Issuer: CN=team305-net
        Validity
            Not Before: Sep 13 01:29:10 2021 GMT
            Not After : Aug 28 01:29:10 2024 GMT
        Subject: CN=team305-server
        Subject Public Key Info:
            Public Key Algorithm: rsaEncryption
                RSA Public-Key: (2048 bit)
                Modulus:
                    00:b1:42:02:7a:e4:59:bd:ce:66:51:f3:62:cc:a4:
                    f4:a4:df:27:92:c7:93:53:a5:51:b3:46:db:06:0c:
                    c6:46:7b:2c:f0:21:a2:7e:56:2d:c4:af:4d:be:2c:
                    1f:77:df:92:e5:da:40:ec:53:25:f1:c5:57:93:9f:
                    45:5a:67:04:0f:01:99:aa:fb:25:64:87:49:1b:50:
                    d7:b3:37:22:44:91:49:81:86:ed:08:de:ff:e1:f2:
                    45:bf:1d:4c:bc:ab:9c:59:77:b0:e8:e8:f0:a2:f1:
                    0c:e2:89:3e:d5:a0:ad:c4:35:80:f9:61:62:0e:67:
                    7f:e0:31:cf:90:5b:65:cd:d7:f0:6b:12:5b:32:cd:
                    9a:fd:55:fd:87:90:0e:db:46:94:90:82:92:4a:19:
                    14:d1:78:56:7a:32:41:ed:8c:7e:39:96:87:b3:25:
                    f3:0a:29:c5:ac:41:44:e3:70:44:1c:26:3b:77:13:
                    82:69:ea:87:b4:be:99:87:ec:2b:aa:82:e3:52:89:
                    9e:08:95:ce:cd:f5:d4:87:3a:ff:d2:3c:10:1a:b6:
                    8b:dd:2b:76:b5:53:14:bb:80:04:4c:80:f6:80:3a:
                    b8:98:24:9d:28:5e:55:9d:c8:8b:68:da:e9:e5:4e:
                    ea:12:f0:78:72:49:49:c9:15:3e:89:5e:4a:8a:6b:
                    43:f5
                Exponent: 65537 (0x10001)
        X509v3 extensions:
            X509v3 Basic Constraints: 
                CA:FALSE
            X509v3 Subject Key Identifier: 
                91:2F:94:3E:75:63:10:68:02:2F:9F:05:AE:7E:9A:75:F1:DD:B0:93
            X509v3 Authority Key Identifier: 
                keyid:D1:B1:B8:DB:8E:CF:D8:02:1B:9E:B6:EF:FC:D7:43:4E:D2:F3:7A:D8
                DirName:/CN=team305-net
                serial:50:1A:29:81:D2:E8:0B:A0:AF:8B:9F:64:F5:31:21:49:FE:AB:87:D7

            X509v3 Extended Key Usage: 
                TLS Web Server Authentication
            X509v3 Key Usage: 
                Digital Signature, Key Encipherment
            X509v3 Subject Alternative Name: 
                DNS:team305-server
    Signature Algorithm: sha256WithRSAEncryption
         99:3d:ed:90:da:ad:82:a2:f5:80:7a:58:d4:82:19:ea:ff:7a:
         08:b8:77:e7:f1:11:e3:0d:1d:a0:eb:af:4a:13:5d:43:77:87:
         36:60:33:4b:84:aa:92:c7:21:c6:95:1c:38:eb:de:9c:7e:26:
         bc:1b:ae:e8:90:b1:e3:19:f8:98:9b:99:36:50:71:72:66:b5:
         d2:1f:4a:de:85:38:1d:23:02:5b:fb:81:4c:cf:3b:da:67:0a:
         a2:64:8d:c8:c8:81:49:d4:68:a2:15:39:ab:3d:ea:44:8a:24:
         e7:01:19:e2:88:47:26:0b:38:21:ca:84:7f:43:e9:f1:8f:b9:
         d2:85:42:02:d1:0d:ab:4b:e5:7d:46:ef:5f:5f:eb:8f:5f:6d:
         fe:55:05:c6:8c:ce:a5:bc:05:97:73:78:c6:cb:88:45:dc:43:
         ec:b3:4f:24:16:34:64:f7:43:ad:b6:af:90:ae:d3:8b:1a:55:
         68:7a:3f:3f:90:89:2d:1c:20:d0:39:ef:e5:3c:09:3c:12:fb:
         52:29:9c:2e:83:43:31:b6:ad:a3:99:97:ff:07:fc:fe:23:70:
         4e:f4:e5:d7:21:46:7c:05:bf:46:db:56:20:53:e5:c9:4c:e6:
         93:d3:6e:1c:b4:ce:b4:d6:b1:9e:8a:6f:c9:c5:d1:bf:09:da:
         19:c1:c6:89
-----BEGIN CERTIFICATE-----
MIIDdzCCAl+gAwIBAgIQd1hdZaDO7dKMqlP2p0Ya5zANBgkqhkiG9w0BAQsFADAW
MRQwEgYDVQQDDAt0ZWFtMzA1LW5ldDAeFw0yMTA5MTMwMTI5MTBaFw0yNDA4Mjgw
MTI5MTBaMBkxFzAVBgNVBAMMDnRlYW0zMDUtc2VydmVyMIIBIjANBgkqhkiG9w0B
AQEFAAOCAQ8AMIIBCgKCAQEAsUICeuRZvc5mUfNizKT0pN8nkseTU6VRs0bbBgzG
Rnss8CGiflYtxK9Nviwfd9+S5dpA7FMl8cVXk59FWmcEDwGZqvslZIdJG1DXszci
RJFJgYbtCN7/4fJFvx1MvKucWXew6OjwovEM4ok+1aCtxDWA+WFiDmd/4DHPkFtl
zdfwaxJbMs2a/VX9h5AO20aUkIKSShkU0XhWejJB7Yx+OZaHsyXzCinFrEFE43BE
HCY7dxOCaeqHtL6Zh+wrqoLjUomeCJXOzfXUhzr/0jwQGraL3St2tVMUu4AETID2
gDq4mCSdKF5VnciLaNrp5U7qEvB4cklJyRU+iV5KimtD9QIDAQABo4G9MIG6MAkG
A1UdEwQCMAAwHQYDVR0OBBYEFJEvlD51YxBoAi+fBa5+mnXx3bCTMFEGA1UdIwRK
MEiAFNGxuNuOz9gCG5627/zXQ07S83rYoRqkGDAWMRQwEgYDVQQDDAt0ZWFtMzA1
LW5ldIIUUBopgdLoC6Cvi59k9TEhSf6rh9cwEwYDVR0lBAwwCgYIKwYBBQUHAwEw
CwYDVR0PBAQDAgWgMBkGA1UdEQQSMBCCDnRlYW0zMDUtc2VydmVyMA0GCSqGSIb3
DQEBCwUAA4IBAQCZPe2Q2q2CovWAeljUghnq/3oIuHfn8RHjDR2g669KE11Dd4c2
YDNLhKqSxyHGlRw4696cfia8G67okLHjGfiYm5k2UHFyZrXSH0rehTgdIwJb+4FM
zzvaZwqiZI3IyIFJ1GiiFTmrPepEiiTnARniiEcmCzghyoR/Q+nxj7nShUIC0Q2r
S+V9Ru9fX+uPX23+VQXGjM6lvAWXc3jGy4hF3EPss08kFjRk90Ottq+QrtOLGlVo
ej8/kIktHCDQOe/lPAk8EvtSKZwug0Mxtq2jmZf/B/z+I3BO9OXXIUZ8Bb9G21Yg
U+XJTOaT024ctM601rGeim/JxdG/CdoZwcaJ
-----END CERTIFICATE-----
