Certificate:
    Data:
        Version: 3 (0x2)
        Serial Number:
            5d:f4:15:f5:25:db:fb:12:b2:57:23:78:e9:c6:7f:fe
        Signature Algorithm: sha256WithRSAEncryption
        Issuer: CN=team727-net
        Validity
            Not Before: Sep 13 05:00:49 2021 GMT
            Not After : Aug 28 05:00:49 2024 GMT
        Subject: CN=team727-client
        Subject Public Key Info:
            Public Key Algorithm: rsaEncryption
                RSA Public-Key: (2048 bit)
                Modulus:
                    00:c7:1b:1e:e8:a2:67:21:43:2f:de:91:b0:28:8a:
                    58:ed:c5:44:23:1f:6d:b6:6b:00:10:6a:01:7c:36:
                    69:c4:48:93:6b:26:70:60:0b:74:02:09:ab:88:34:
                    df:cd:23:cd:c0:da:e2:3d:e2:04:e6:3c:33:9a:22:
                    c2:9e:f4:fe:a9:64:a7:8c:d0:a6:cf:fd:4c:d9:d4:
                    60:f5:5a:64:9d:9e:9e:3e:05:1b:4a:bc:cb:25:f5:
                    4d:69:e5:5a:26:4c:01:6e:52:4e:71:f7:93:bd:44:
                    f3:95:a0:d6:c4:77:ac:77:1b:8f:dd:72:5a:3c:f4:
                    d9:41:ea:48:78:7a:27:3b:0e:93:12:1a:59:90:9a:
                    ba:8a:de:c5:b7:50:77:44:0e:74:ef:50:c3:84:37:
                    76:bd:45:58:ef:7f:35:0f:03:ad:8d:0f:e9:52:7d:
                    0d:d6:e6:21:26:d9:78:5f:53:df:14:89:b0:c7:d4:
                    0a:38:e1:2d:9b:c8:d0:b0:c7:cf:0b:ac:ac:b7:d3:
                    30:2b:59:69:53:34:55:17:1d:d0:66:f0:8a:53:76:
                    54:8e:93:1e:88:44:b1:ad:77:e5:6d:d1:41:18:01:
                    c1:b1:cf:38:f4:68:d2:ca:57:d5:35:a5:da:02:77:
                    3c:10:15:e5:af:ae:f7:52:30:ac:9b:55:28:04:3e:
                    ce:27
                Exponent: 65537 (0x10001)
        X509v3 extensions:
            X509v3 Basic Constraints: 
                CA:FALSE
            X509v3 Subject Key Identifier: 
                C3:AF:D4:C7:10:F3:C3:FD:1C:BD:DB:23:62:A7:C4:BE:71:A7:77:6D
            X509v3 Authority Key Identifier: 
                keyid:8E:39:C2:EB:8B:F0:A4:1F:D6:88:77:05:4B:FD:31:D4:D5:01:0C:01
                DirName:/CN=team727-net
                serial:5F:A9:FA:EB:E9:E1:3D:ED:A8:3E:FC:8C:DE:26:FD:71:BF:4D:6E:56

            X509v3 Extended Key Usage: 
                TLS Web Client Authentication
            X509v3 Key Usage: 
                Digital Signature
    Signature Algorithm: sha256WithRSAEncryption
         16:27:95:85:44:fd:f6:4a:52:c6:53:2a:46:8e:6f:dc:c5:16:
         bf:31:1e:6a:01:b2:cd:16:f1:19:53:9e:27:e3:60:20:77:68:
         a8:94:1c:00:96:95:95:3e:c4:13:2b:77:f4:e4:20:e1:d3:7c:
         61:e8:f3:88:88:10:82:e6:56:7b:62:13:ad:a0:b9:cc:75:ae:
         8b:69:fc:54:a7:aa:89:79:28:66:51:c9:66:82:2c:dd:c1:59:
         e2:e4:0b:c3:66:f9:98:d1:d1:75:7d:85:02:95:56:b9:95:99:
         1d:0b:83:49:d8:f9:22:7d:6e:37:e6:be:c3:78:6f:57:21:f1:
         47:35:10:46:84:9c:8e:d4:a7:05:d7:cd:41:de:1b:6a:63:5b:
         6a:70:d4:ca:9f:2c:74:13:4c:17:29:19:c2:36:77:79:76:14:
         bf:24:e2:79:3f:bc:f2:5a:a5:b4:c4:78:0a:92:23:e8:a0:a2:
         c3:18:7b:b4:ca:a1:8a:c3:fe:68:d7:32:94:e2:ee:df:37:46:
         c3:37:6d:ac:b7:9e:00:4b:f0:0a:f5:6a:4b:ae:31:02:25:69:
         40:c2:09:8b:f9:e3:ac:61:13:e5:f2:1d:1c:62:23:c5:a5:01:
         be:09:5a:19:2d:9b:de:5b:6f:0d:e6:dd:e6:40:78:08:e4:fd:
         58:96:5b:f5
-----BEGIN CERTIFICATE-----
MIIDXDCCAkSgAwIBAgIQXfQV9SXb+xKyVyN46cZ//jANBgkqhkiG9w0BAQsFADAW
MRQwEgYDVQQDDAt0ZWFtNzI3LW5ldDAeFw0yMTA5MTMwNTAwNDlaFw0yNDA4Mjgw
NTAwNDlaMBkxFzAVBgNVBAMMDnRlYW03MjctY2xpZW50MIIBIjANBgkqhkiG9w0B
AQEFAAOCAQ8AMIIBCgKCAQEAxxse6KJnIUMv3pGwKIpY7cVEIx9ttmsAEGoBfDZp
xEiTayZwYAt0AgmriDTfzSPNwNriPeIE5jwzmiLCnvT+qWSnjNCmz/1M2dRg9Vpk
nZ6ePgUbSrzLJfVNaeVaJkwBblJOcfeTvUTzlaDWxHesdxuP3XJaPPTZQepIeHon
Ow6TEhpZkJq6it7Ft1B3RA5071DDhDd2vUVY7381DwOtjQ/pUn0N1uYhJtl4X1Pf
FImwx9QKOOEtm8jQsMfPC6yst9MwK1lpUzRVFx3QZvCKU3ZUjpMeiESxrXflbdFB
GAHBsc849GjSylfVNaXaAnc8EBXlr673UjCsm1UoBD7OJwIDAQABo4GiMIGfMAkG
A1UdEwQCMAAwHQYDVR0OBBYEFMOv1McQ88P9HL3bI2KnxL5xp3dtMFEGA1UdIwRK
MEiAFI45wuuL8KQf1oh3BUv9MdTVAQwBoRqkGDAWMRQwEgYDVQQDDAt0ZWFtNzI3
LW5ldIIUX6n66+nhPe2oPvyM3ib9cb9NblYwEwYDVR0lBAwwCgYIKwYBBQUHAwIw
CwYDVR0PBAQDAgeAMA0GCSqGSIb3DQEBCwUAA4IBAQAWJ5WFRP32SlLGUypGjm/c
xRa/MR5qAbLNFvEZU54n42Agd2iolBwAlpWVPsQTK3f05CDh03xh6POIiBCC5lZ7
YhOtoLnMda6LafxUp6qJeShmUclmgizdwVni5AvDZvmY0dF1fYUClVa5lZkdC4NJ
2PkifW435r7DeG9XIfFHNRBGhJyO1KcF181B3htqY1tqcNTKnyx0E0wXKRnCNnd5
dhS/JOJ5P7zyWqW0xHgKkiPooKLDGHu0yqGKw/5o1zKU4u7fN0bDN22st54AS/AK
9WpLrjECJWlAwgmL+eOsYRPl8h0cYiPFpQG+CVoZLZveW28N5t3mQHgI5P1Yllv1
-----END CERTIFICATE-----
