Certificate:
    Data:
        Version: 3 (0x2)
        Serial Number:
            1f:ec:fd:dc:07:7c:96:a3:8c:69:15:66:ba:ae:f1:78
        Signature Algorithm: sha256WithRSAEncryption
        Issuer: CN=team281-net
        Validity
            Not Before: Sep 13 01:20:33 2021 GMT
            Not After : Aug 28 01:20:33 2024 GMT
        Subject: CN=team281-client
        Subject Public Key Info:
            Public Key Algorithm: rsaEncryption
                RSA Public-Key: (2048 bit)
                Modulus:
                    00:b1:81:de:14:fa:26:44:a6:7e:9e:51:d4:b8:5d:
                    c7:9a:d1:47:5c:23:1e:a8:9a:39:e0:6f:46:22:69:
                    c7:dc:5d:d2:6d:83:0c:55:fb:4a:40:3c:93:3d:53:
                    fc:17:bc:5b:86:b5:7a:52:f8:9a:ce:90:b4:e3:e3:
                    a8:b4:dc:ee:eb:15:93:d3:3a:36:f9:c8:22:8f:a3:
                    e8:4a:a8:d7:3d:e8:5c:01:24:e1:07:10:f9:aa:72:
                    ed:7a:67:57:34:a7:8d:7a:6c:3b:fb:94:11:9c:35:
                    c0:33:00:35:55:a4:e6:11:a7:b5:45:03:4d:55:c1:
                    98:56:43:6d:dd:35:7a:eb:aa:4a:4d:c3:05:6b:e1:
                    37:09:b3:c7:d2:f7:79:96:bb:38:93:3d:2b:3e:be:
                    98:88:7b:60:9c:d7:27:d1:2a:a6:a3:31:cf:e5:40:
                    c6:ad:b2:43:f1:e8:34:6e:c2:cc:a8:40:8b:cd:46:
                    e0:e8:ca:b7:97:08:2b:26:d3:4f:4d:19:fb:e0:fb:
                    99:cc:e9:e2:50:e9:92:16:5f:b5:49:36:41:d3:b5:
                    0f:ae:8c:dd:6a:99:ad:f7:94:e5:fe:6b:38:5e:08:
                    7e:8a:bf:35:76:40:17:7d:96:8f:2c:e0:f1:14:c9:
                    0f:b9:54:98:18:72:4e:b0:92:6b:08:35:0c:48:9c:
                    d5:ab
                Exponent: 65537 (0x10001)
        X509v3 extensions:
            X509v3 Basic Constraints: 
                CA:FALSE
            X509v3 Subject Key Identifier: 
                28:0C:28:91:7A:15:73:6A:80:8B:41:78:4E:A7:3B:9F:6B:41:79:A1
            X509v3 Authority Key Identifier: 
                keyid:C2:6C:10:1B:0D:FC:CA:1C:15:1B:BE:A3:0C:58:F6:FC:16:16:37:25
                DirName:/CN=team281-net
                serial:08:1F:63:B1:65:35:A5:6E:3A:C2:A5:F7:CF:70:39:4B:40:3D:15:8B

            X509v3 Extended Key Usage: 
                TLS Web Client Authentication
            X509v3 Key Usage: 
                Digital Signature
    Signature Algorithm: sha256WithRSAEncryption
         10:55:c1:cf:49:de:54:9a:2b:2a:ad:27:38:97:80:47:c3:2b:
         38:47:3e:ba:1f:57:1f:f2:b2:7e:90:de:c5:92:32:eb:ce:a9:
         07:a7:c0:d1:b7:5a:a9:d2:42:9e:5a:6b:4f:a6:19:55:96:80:
         81:07:4a:93:69:ca:83:88:fd:08:1f:c8:e4:99:00:8a:ba:db:
         d2:3c:ec:d1:b0:5d:97:80:9b:71:7f:0a:bc:05:b8:88:2c:a2:
         a3:ba:e6:35:65:ee:c1:00:18:be:f2:77:a3:5b:6f:00:d0:99:
         22:45:36:af:48:ac:7f:55:3a:1c:ab:24:43:2b:da:e6:cd:ea:
         b3:08:84:4f:bb:ed:73:6e:17:d1:6e:74:f3:c9:48:2c:78:6e:
         0d:bc:ab:36:03:75:e3:57:b7:b3:4e:1a:5d:f9:c7:53:b3:48:
         b8:e8:ad:6a:64:e5:ca:61:ea:6d:8d:d6:fc:b7:8e:3a:42:59:
         30:eb:bf:9a:a9:1c:bb:46:a7:01:6f:19:fe:db:2f:51:90:31:
         79:2e:ac:56:f7:ca:b2:79:8c:04:c1:b1:64:de:b0:4d:8b:d4:
         fb:c6:80:95:1b:a3:2c:b4:bb:fa:2e:8f:32:62:0c:5e:3c:19:
         a6:ca:85:06:cf:8e:ac:73:9b:7c:0e:78:5b:46:34:e5:e2:4a:
         9c:5f:6d:32
-----BEGIN CERTIFICATE-----
MIIDXDCCAkSgAwIBAgIQH+z93Ad8lqOMaRVmuq7xeDANBgkqhkiG9w0BAQsFADAW
MRQwEgYDVQQDDAt0ZWFtMjgxLW5ldDAeFw0yMTA5MTMwMTIwMzNaFw0yNDA4Mjgw
MTIwMzNaMBkxFzAVBgNVBAMMDnRlYW0yODEtY2xpZW50MIIBIjANBgkqhkiG9w0B
AQEFAAOCAQ8AMIIBCgKCAQEAsYHeFPomRKZ+nlHUuF3HmtFHXCMeqJo54G9GImnH
3F3SbYMMVftKQDyTPVP8F7xbhrV6UviazpC04+OotNzu6xWT0zo2+cgij6PoSqjX
PehcASThBxD5qnLtemdXNKeNemw7+5QRnDXAMwA1VaTmEae1RQNNVcGYVkNt3TV6
66pKTcMFa+E3CbPH0vd5lrs4kz0rPr6YiHtgnNcn0SqmozHP5UDGrbJD8eg0bsLM
qECLzUbg6Mq3lwgrJtNPTRn74PuZzOniUOmSFl+1STZB07UProzdapmt95Tl/ms4
Xgh+ir81dkAXfZaPLODxFMkPuVSYGHJOsJJrCDUMSJzVqwIDAQABo4GiMIGfMAkG
A1UdEwQCMAAwHQYDVR0OBBYEFCgMKJF6FXNqgItBeE6nO59rQXmhMFEGA1UdIwRK
MEiAFMJsEBsN/MocFRu+owxY9vwWFjcloRqkGDAWMRQwEgYDVQQDDAt0ZWFtMjgx
LW5ldIIUCB9jsWU1pW46wqX3z3A5S0A9FYswEwYDVR0lBAwwCgYIKwYBBQUHAwIw
CwYDVR0PBAQDAgeAMA0GCSqGSIb3DQEBCwUAA4IBAQAQVcHPSd5UmisqrSc4l4BH
wys4Rz66H1cf8rJ+kN7FkjLrzqkHp8DRt1qp0kKeWmtPphlVloCBB0qTacqDiP0I
H8jkmQCKutvSPOzRsF2XgJtxfwq8BbiILKKjuuY1Ze7BABi+8nejW28A0JkiRTav
SKx/VTocqyRDK9rmzeqzCIRPu+1zbhfRbnTzyUgseG4NvKs2A3XjV7ezThpd+cdT
s0i46K1qZOXKYeptjdb8t446Qlkw67+aqRy7RqcBbxn+2y9RkDF5LqxW98qyeYwE
wbFk3rBNi9T7xoCVG6MstLv6Lo8yYgxePBmmyoUGz46sc5t8DnhbRjTl4kqcX20y
-----END CERTIFICATE-----
