Certificate:
    Data:
        Version: 3 (0x2)
        Serial Number:
            8e:e2:03:df:60:dd:cc:be:be:42:a0:72:f6:1e:31:e3
        Signature Algorithm: sha256WithRSAEncryption
        Issuer: CN=team580-net
        Validity
            Not Before: Sep 13 03:47:04 2021 GMT
            Not After : Aug 28 03:47:04 2024 GMT
        Subject: CN=team580-client
        Subject Public Key Info:
            Public Key Algorithm: rsaEncryption
                RSA Public-Key: (2048 bit)
                Modulus:
                    00:da:30:80:6c:dc:f7:cb:9a:73:cf:e8:8f:17:da:
                    82:35:86:c0:4f:6d:d1:45:af:0f:7b:b5:e2:0b:c8:
                    7f:f3:7e:64:01:ed:97:f9:16:2d:14:36:c4:56:02:
                    64:6d:aa:cb:08:e2:77:77:29:53:fa:96:2f:86:c9:
                    9e:66:b2:59:83:2c:b4:1c:63:85:68:10:7f:41:59:
                    5d:58:4f:82:68:f4:30:b5:d2:80:b8:db:70:f4:c1:
                    fa:96:74:c8:e0:3b:3a:f2:cb:3d:4f:0b:0c:3e:b8:
                    a9:44:47:35:7a:6a:cf:b5:54:9f:ed:3b:4c:e0:a5:
                    d6:da:c5:d1:b9:fe:0f:e1:ee:e6:6d:ed:5c:2f:22:
                    c8:f5:1d:0d:f6:04:58:e6:7a:fe:96:d9:8c:4b:ff:
                    2d:ec:a4:0f:7d:bb:e9:ed:30:e2:d0:6a:06:73:36:
                    53:d0:92:25:a7:b9:27:a5:46:06:91:3f:84:c7:7e:
                    eb:71:eb:4b:6c:d2:e4:d0:d1:e9:7a:68:67:65:4f:
                    ef:f8:1e:6d:f3:15:be:c5:22:fa:62:fe:48:57:ee:
                    ff:da:55:e5:7d:a1:ce:45:df:e9:b0:d6:57:e4:2e:
                    1f:73:46:dc:90:c5:82:f1:68:e9:80:b0:58:3b:81:
                    8c:c8:72:2d:bf:b8:4b:74:1b:47:eb:4d:59:99:91:
                    dd:63
                Exponent: 65537 (0x10001)
        X509v3 extensions:
            X509v3 Basic Constraints: 
                CA:FALSE
            X509v3 Subject Key Identifier: 
                C4:2A:41:E1:3B:2A:A2:A0:B3:E9:B6:9D:49:6B:24:AF:7E:5D:D4:55
            X509v3 Authority Key Identifier: 
                keyid:24:32:35:BF:42:8B:AA:76:F8:37:6A:0A:D8:74:04:A9:CD:07:AC:2F
                DirName:/CN=team580-net
                serial:1B:62:1B:12:E3:13:EB:1E:DC:42:8E:35:FE:EF:03:28:9C:E8:9C:72

            X509v3 Extended Key Usage: 
                TLS Web Client Authentication
            X509v3 Key Usage: 
                Digital Signature
    Signature Algorithm: sha256WithRSAEncryption
         57:64:96:89:5a:a3:c6:49:fb:9f:75:b8:ff:54:c6:f8:4a:3c:
         44:c5:d4:58:d0:e8:85:f3:86:31:28:00:3e:2e:20:98:b7:90:
         ea:5b:c0:5e:74:c1:b7:5f:5d:3e:b5:b1:73:16:49:a7:a2:c4:
         8e:c3:56:e9:8a:79:1e:1a:a2:80:96:3e:44:9e:41:47:e0:07:
         5d:2e:24:28:3f:ea:ad:b7:ee:e7:03:6f:e9:c7:fc:60:c8:32:
         a5:e4:77:6f:08:59:b4:aa:af:ee:9c:15:41:23:8b:95:33:6c:
         a2:f5:03:ac:75:67:f4:e0:05:01:c3:4c:dc:c4:f7:3f:4a:25:
         23:24:e1:63:1a:c9:11:c4:c2:55:13:86:98:2d:bd:96:f4:f8:
         83:93:00:f8:0b:0a:73:d2:5e:9e:61:6d:91:ea:65:a6:da:99:
         70:92:9d:ed:ce:16:e5:cb:0d:0d:df:15:b1:48:b3:4e:26:7d:
         9d:92:95:0a:b7:9f:33:2d:23:19:2b:83:d1:df:3d:03:a7:52:
         a7:f7:61:a4:39:79:5b:4e:85:8e:74:0a:63:88:45:2a:b0:f9:
         fc:35:9b:f9:2d:79:d0:90:22:78:f5:e5:3f:0c:90:d1:99:9c:
         38:cc:e4:21:4d:14:44:74:2b:ed:4c:38:84:dd:dc:d4:0a:e7:
         01:70:73:2c
-----BEGIN CERTIFICATE-----
MIIDXTCCAkWgAwIBAgIRAI7iA99g3cy+vkKgcvYeMeMwDQYJKoZIhvcNAQELBQAw
FjEUMBIGA1UEAwwLdGVhbTU4MC1uZXQwHhcNMjEwOTEzMDM0NzA0WhcNMjQwODI4
MDM0NzA0WjAZMRcwFQYDVQQDDA50ZWFtNTgwLWNsaWVudDCCASIwDQYJKoZIhvcN
AQEBBQADggEPADCCAQoCggEBANowgGzc98uac8/ojxfagjWGwE9t0UWvD3u14gvI
f/N+ZAHtl/kWLRQ2xFYCZG2qywjid3cpU/qWL4bJnmayWYMstBxjhWgQf0FZXVhP
gmj0MLXSgLjbcPTB+pZ0yOA7OvLLPU8LDD64qURHNXpqz7VUn+07TOCl1trF0bn+
D+Hu5m3tXC8iyPUdDfYEWOZ6/pbZjEv/LeykD3276e0w4tBqBnM2U9CSJae5J6VG
BpE/hMd+63HrS2zS5NDR6XpoZ2VP7/gebfMVvsUi+mL+SFfu/9pV5X2hzkXf6bDW
V+QuH3NG3JDFgvFo6YCwWDuBjMhyLb+4S3QbR+tNWZmR3WMCAwEAAaOBojCBnzAJ
BgNVHRMEAjAAMB0GA1UdDgQWBBTEKkHhOyqioLPptp1JaySvfl3UVTBRBgNVHSME
SjBIgBQkMjW/Qouqdvg3agrYdASpzQesL6EapBgwFjEUMBIGA1UEAwwLdGVhbTU4
MC1uZXSCFBtiGxLjE+se3EKONf7vAyic6JxyMBMGA1UdJQQMMAoGCCsGAQUFBwMC
MAsGA1UdDwQEAwIHgDANBgkqhkiG9w0BAQsFAAOCAQEAV2SWiVqjxkn7n3W4/1TG
+Eo8RMXUWNDohfOGMSgAPi4gmLeQ6lvAXnTBt19dPrWxcxZJp6LEjsNW6Yp5Hhqi
gJY+RJ5BR+AHXS4kKD/qrbfu5wNv6cf8YMgypeR3bwhZtKqv7pwVQSOLlTNsovUD
rHVn9OAFAcNM3MT3P0olIyThYxrJEcTCVROGmC29lvT4g5MA+AsKc9JenmFtkepl
ptqZcJKd7c4W5csNDd8VsUizTiZ9nZKVCrefMy0jGSuD0d89A6dSp/dhpDl5W06F
jnQKY4hFKrD5/DWb+S150JAiePXlPwyQ0ZmcOMzkIU0URHQr7Uw4hN3c1ArnAXBz
LA==
-----END CERTIFICATE-----
