Certificate:
    Data:
        Version: 3 (0x2)
        Serial Number:
            f2:16:1c:cc:1f:f8:8f:75:9e:1e:4b:53:3d:3e:11:b5
        Signature Algorithm: sha256WithRSAEncryption
        Issuer: CN=team295-net
        Validity
            Not Before: Sep 13 01:24:52 2021 GMT
            Not After : Aug 28 01:24:52 2024 GMT
        Subject: CN=team295-server
        Subject Public Key Info:
            Public Key Algorithm: rsaEncryption
                RSA Public-Key: (2048 bit)
                Modulus:
                    00:d3:76:9d:ea:dd:25:8d:0f:7a:cd:bd:b4:25:bf:
                    9f:71:93:b5:dc:68:82:fb:a6:95:d1:04:e4:97:22:
                    28:8f:56:bd:6c:71:5e:9c:b5:47:e6:78:d8:1f:bf:
                    e8:a5:d1:e2:00:3d:dc:8f:f0:09:31:ab:4b:85:22:
                    b7:17:f9:e0:3f:79:b9:09:a9:0b:f1:23:db:28:24:
                    a4:84:ef:55:c1:0d:f1:ae:6a:37:0d:e9:ac:9e:ec:
                    83:a8:ad:ca:90:dc:b3:f7:28:b0:4b:fc:88:23:e0:
                    6c:92:82:71:ec:05:22:b0:69:24:ef:8b:b5:a0:28:
                    09:ca:e2:ac:00:a3:ae:72:fb:25:a2:91:65:08:df:
                    fd:36:e2:94:dd:a0:0c:5f:e6:3f:30:46:3a:bc:b1:
                    a7:04:f1:fd:f6:ea:e2:cb:e0:de:ea:ab:a2:37:9f:
                    aa:6e:1f:87:0a:2b:9b:39:50:b7:dd:39:72:a0:4d:
                    b8:fa:e7:b3:02:22:9a:80:35:3a:ed:d2:ce:3b:2c:
                    1b:90:12:3f:be:8e:c0:bd:e0:ec:58:9d:fc:d1:47:
                    72:c4:b5:ad:17:58:63:53:53:e0:7b:25:90:ea:9a:
                    16:77:cb:e6:ae:ab:3b:1b:20:be:0e:b1:6f:01:27:
                    27:ab:6c:6e:24:72:ed:66:6b:55:7d:9b:da:50:b3:
                    69:a9
                Exponent: 65537 (0x10001)
        X509v3 extensions:
            X509v3 Basic Constraints: 
                CA:FALSE
            X509v3 Subject Key Identifier: 
                68:55:8D:1F:72:32:2B:CB:C2:34:15:74:6F:1C:B3:27:B6:68:9B:95
            X509v3 Authority Key Identifier: 
                keyid:C7:36:87:E6:A4:22:AA:36:0D:68:74:3A:16:76:7A:50:58:F0:3F:E8
                DirName:/CN=team295-net
                serial:0C:97:EB:EC:81:7F:E0:12:DD:7D:40:F1:4B:E0:26:18:9A:5D:A1:E6

            X509v3 Extended Key Usage: 
                TLS Web Server Authentication
            X509v3 Key Usage: 
                Digital Signature, Key Encipherment
            X509v3 Subject Alternative Name: 
                DNS:team295-server
    Signature Algorithm: sha256WithRSAEncryption
         0f:38:2b:02:8f:f2:c7:58:d7:d1:ca:9e:b9:b3:ff:1d:79:86:
         5d:60:4c:30:9a:23:69:8d:43:3c:2e:41:0b:37:75:d6:7f:2c:
         81:78:f7:39:a2:0d:dc:f6:bf:a9:ac:c9:f4:3d:7b:67:a0:77:
         31:91:34:3b:41:c4:4d:90:ea:08:c5:8c:03:8d:c4:10:d9:b1:
         eb:78:01:35:52:a3:4b:ae:9a:5d:2a:ee:96:70:a0:6a:b7:00:
         a9:73:63:48:9d:5c:51:1a:75:36:65:50:ec:c1:50:c1:c3:c1:
         40:93:6f:a5:f7:d6:7e:18:87:20:59:21:c7:9b:f9:46:ac:2c:
         08:4a:c8:3e:31:c2:bb:d5:68:2a:2e:0f:5a:8d:6d:f1:8b:0f:
         6e:33:c2:93:64:e8:91:66:cc:ab:60:2d:4b:55:5a:3a:75:c2:
         7b:7a:57:14:48:14:bb:e4:fa:7b:60:ec:e4:3f:5f:45:9b:e2:
         a7:b4:dc:c9:1a:9a:5d:6f:aa:4b:47:7d:04:1b:58:3c:2d:5c:
         e2:8c:a2:05:d7:25:3a:d9:9b:c6:2c:ea:b4:ec:af:76:fa:78:
         9a:8d:3f:fa:47:d8:b2:b0:b0:09:9f:8b:c8:fc:86:f8:35:07:
         1c:7c:f0:42:c1:90:d7:71:08:cf:b0:42:0f:f1:38:d3:0d:7d:
         47:7b:0f:95
-----BEGIN CERTIFICATE-----
MIIDeDCCAmCgAwIBAgIRAPIWHMwf+I91nh5LUz0+EbUwDQYJKoZIhvcNAQELBQAw
FjEUMBIGA1UEAwwLdGVhbTI5NS1uZXQwHhcNMjEwOTEzMDEyNDUyWhcNMjQwODI4
MDEyNDUyWjAZMRcwFQYDVQQDDA50ZWFtMjk1LXNlcnZlcjCCASIwDQYJKoZIhvcN
AQEBBQADggEPADCCAQoCggEBANN2nerdJY0Pes29tCW/n3GTtdxogvumldEE5Jci
KI9WvWxxXpy1R+Z42B+/6KXR4gA93I/wCTGrS4Uitxf54D95uQmpC/Ej2ygkpITv
VcEN8a5qNw3prJ7sg6itypDcs/cosEv8iCPgbJKCcewFIrBpJO+LtaAoCcrirACj
rnL7JaKRZQjf/TbilN2gDF/mPzBGOryxpwTx/fbq4svg3uqrojefqm4fhwormzlQ
t905cqBNuPrnswIimoA1Ou3SzjssG5ASP76OwL3g7Fid/NFHcsS1rRdYY1NT4Hsl
kOqaFnfL5q6rOxsgvg6xbwEnJ6tsbiRy7WZrVX2b2lCzaakCAwEAAaOBvTCBujAJ
BgNVHRMEAjAAMB0GA1UdDgQWBBRoVY0fcjIry8I0FXRvHLMntmiblTBRBgNVHSME
SjBIgBTHNofmpCKqNg1odDoWdnpQWPA/6KEapBgwFjEUMBIGA1UEAwwLdGVhbTI5
NS1uZXSCFAyX6+yBf+AS3X1A8UvgJhiaXaHmMBMGA1UdJQQMMAoGCCsGAQUFBwMB
MAsGA1UdDwQEAwIFoDAZBgNVHREEEjAQgg50ZWFtMjk1LXNlcnZlcjANBgkqhkiG
9w0BAQsFAAOCAQEADzgrAo/yx1jX0cqeubP/HXmGXWBMMJojaY1DPC5BCzd11n8s
gXj3OaIN3Pa/qazJ9D17Z6B3MZE0O0HETZDqCMWMA43EENmx63gBNVKjS66aXSru
lnCgarcAqXNjSJ1cURp1NmVQ7MFQwcPBQJNvpffWfhiHIFkhx5v5RqwsCErIPjHC
u9VoKi4PWo1t8YsPbjPCk2TokWbMq2AtS1VaOnXCe3pXFEgUu+T6e2Ds5D9fRZvi
p7TcyRqaXW+qS0d9BBtYPC1c4oyiBdclOtmbxizqtOyvdvp4mo0/+kfYsrCwCZ+L
yPyG+DUHHHzwQsGQ13EIz7BCD/E40w19R3sPlQ==
-----END CERTIFICATE-----
