Certificate:
    Data:
        Version: 3 (0x2)
        Serial Number:
            f9:7c:4b:4a:7e:a8:1b:57:ca:30:61:80:7f:57:9d:58
        Signature Algorithm: sha256WithRSAEncryption
        Issuer: CN=team295-net
        Validity
            Not Before: Sep 13 01:24:52 2021 GMT
            Not After : Aug 28 01:24:52 2024 GMT
        Subject: CN=team295-client
        Subject Public Key Info:
            Public Key Algorithm: rsaEncryption
                RSA Public-Key: (2048 bit)
                Modulus:
                    00:c6:9b:95:4c:cd:02:15:90:00:6a:8f:1f:31:25:
                    96:7e:75:69:b4:82:26:62:92:6f:e8:f0:5b:ef:93:
                    1e:fb:37:6f:1c:12:67:86:f4:33:c8:50:2d:dc:6f:
                    bb:50:8d:b7:b5:7c:c3:da:7e:2b:bb:46:d9:c8:9c:
                    d8:4c:dc:83:c9:7a:cb:7c:83:78:02:a6:82:2a:70:
                    aa:57:d3:b3:29:b5:af:14:83:e1:d7:f7:0d:2c:82:
                    af:3b:6d:b8:9f:9b:00:67:73:1d:10:08:eb:82:2e:
                    df:c6:14:a5:29:8f:82:ed:f3:b1:87:27:bb:43:2d:
                    55:97:11:0b:cf:07:6c:e8:2a:e7:2b:3e:d0:de:9d:
                    c6:d1:2c:8a:85:4b:d3:ec:08:ba:e5:60:a9:5e:65:
                    06:3b:00:3a:a4:81:df:95:e1:c7:48:a0:7e:88:11:
                    22:42:64:eb:b1:5b:03:0b:df:01:f2:62:fd:c5:47:
                    f8:05:c7:f4:aa:90:59:d3:fa:b7:c9:4e:85:4c:64:
                    a1:ba:e1:ed:e8:22:ff:e9:94:32:f4:ac:2d:98:07:
                    5f:cb:47:10:78:11:27:de:24:42:b8:45:6c:34:c3:
                    72:4c:86:4f:56:9a:1c:c1:3b:41:2c:5b:eb:71:31:
                    5f:5c:bb:23:82:ca:7b:19:fc:2b:37:23:6e:f6:8a:
                    31:97
                Exponent: 65537 (0x10001)
        X509v3 extensions:
            X509v3 Basic Constraints: 
                CA:FALSE
            X509v3 Subject Key Identifier: 
                CA:ED:FF:8A:42:BE:3E:5B:3B:95:1F:57:38:C2:37:81:9E:E7:8F:B8
            X509v3 Authority Key Identifier: 
                keyid:C7:36:87:E6:A4:22:AA:36:0D:68:74:3A:16:76:7A:50:58:F0:3F:E8
                DirName:/CN=team295-net
                serial:0C:97:EB:EC:81:7F:E0:12:DD:7D:40:F1:4B:E0:26:18:9A:5D:A1:E6

            X509v3 Extended Key Usage: 
                TLS Web Client Authentication
            X509v3 Key Usage: 
                Digital Signature
    Signature Algorithm: sha256WithRSAEncryption
         4d:00:74:0d:4c:7e:7b:93:fe:4b:92:f8:ca:21:53:33:37:fc:
         31:b5:89:46:83:32:be:8f:c2:6e:78:ea:c7:6d:09:ea:ad:dc:
         2b:cd:67:2d:dc:fe:50:fd:ba:50:db:df:ea:37:1a:46:86:c9:
         e2:7b:0c:53:0e:a8:ab:db:d3:a5:10:b4:aa:5e:e0:d9:75:17:
         84:92:21:66:e6:92:67:76:00:b2:94:86:36:50:76:3e:3d:c3:
         96:fc:12:12:ea:71:70:57:49:58:05:78:bb:15:d3:74:42:e8:
         cb:02:9f:58:34:55:26:27:2c:21:3d:9b:0c:b1:88:91:ee:c4:
         0f:a4:a2:e3:57:91:d9:cf:a6:b3:c4:d0:70:3e:68:53:7a:8b:
         6d:28:9a:db:59:51:ff:9c:fe:d4:15:0a:89:8b:36:28:03:25:
         77:06:27:97:d9:24:d4:42:a8:f0:85:4e:0a:9e:ac:fc:b5:9f:
         36:07:5e:5b:92:76:5f:1b:c8:86:3a:02:8b:de:4a:16:01:b5:
         06:e2:9e:2c:42:cb:be:99:b2:f4:f5:bb:04:d1:5e:c0:97:6e:
         d5:46:52:ea:3d:12:76:b5:9c:09:c1:ec:41:93:b4:55:43:2d:
         06:d4:8a:ac:51:bf:60:d5:c1:75:f1:58:5f:ae:49:a0:64:f9:
         3a:b4:f1:77
-----BEGIN CERTIFICATE-----
MIIDXTCCAkWgAwIBAgIRAPl8S0p+qBtXyjBhgH9XnVgwDQYJKoZIhvcNAQELBQAw
FjEUMBIGA1UEAwwLdGVhbTI5NS1uZXQwHhcNMjEwOTEzMDEyNDUyWhcNMjQwODI4
MDEyNDUyWjAZMRcwFQYDVQQDDA50ZWFtMjk1LWNsaWVudDCCASIwDQYJKoZIhvcN
AQEBBQADggEPADCCAQoCggEBAMablUzNAhWQAGqPHzElln51abSCJmKSb+jwW++T
Hvs3bxwSZ4b0M8hQLdxvu1CNt7V8w9p+K7tG2cic2Ezcg8l6y3yDeAKmgipwqlfT
sym1rxSD4df3DSyCrzttuJ+bAGdzHRAI64Iu38YUpSmPgu3zsYcnu0MtVZcRC88H
bOgq5ys+0N6dxtEsioVL0+wIuuVgqV5lBjsAOqSB35Xhx0igfogRIkJk67FbAwvf
AfJi/cVH+AXH9KqQWdP6t8lOhUxkobrh7egi/+mUMvSsLZgHX8tHEHgRJ94kQrhF
bDTDckyGT1aaHME7QSxb63ExX1y7I4LKexn8KzcjbvaKMZcCAwEAAaOBojCBnzAJ
BgNVHRMEAjAAMB0GA1UdDgQWBBTK7f+KQr4+WzuVH1c4wjeBnuePuDBRBgNVHSME
SjBIgBTHNofmpCKqNg1odDoWdnpQWPA/6KEapBgwFjEUMBIGA1UEAwwLdGVhbTI5
NS1uZXSCFAyX6+yBf+AS3X1A8UvgJhiaXaHmMBMGA1UdJQQMMAoGCCsGAQUFBwMC
MAsGA1UdDwQEAwIHgDANBgkqhkiG9w0BAQsFAAOCAQEATQB0DUx+e5P+S5L4yiFT
Mzf8MbWJRoMyvo/Cbnjqx20J6q3cK81nLdz+UP26UNvf6jcaRobJ4nsMUw6oq9vT
pRC0ql7g2XUXhJIhZuaSZ3YAspSGNlB2Pj3DlvwSEupxcFdJWAV4uxXTdELoywKf
WDRVJicsIT2bDLGIke7ED6Si41eR2c+ms8TQcD5oU3qLbSia21lR/5z+1BUKiYs2
KAMldwYnl9kk1EKo8IVOCp6s/LWfNgdeW5J2XxvIhjoCi95KFgG1BuKeLELLvpmy
9PW7BNFewJdu1UZS6j0SdrWcCcHsQZO0VUMtBtSKrFG/YNXBdfFYX65JoGT5OrTx
dw==
-----END CERTIFICATE-----
