Certificate:
    Data:
        Version: 3 (0x2)
        Serial Number:
            41:d3:60:1f:2a:de:3f:19:c2:92:c5:09:8b:42:16:d2
        Signature Algorithm: sha256WithRSAEncryption
        Issuer: CN=team761-net
        Validity
            Not Before: Sep 13 06:01:29 2021 GMT
            Not After : Aug 28 06:01:29 2024 GMT
        Subject: CN=team761-server
        Subject Public Key Info:
            Public Key Algorithm: rsaEncryption
                RSA Public-Key: (2048 bit)
                Modulus:
                    00:b2:28:0e:95:30:10:67:b4:44:ac:d0:61:62:95:
                    52:e7:42:6b:83:33:7b:45:d3:5a:89:c7:9b:5e:ff:
                    43:11:5b:76:9d:1f:c2:e0:65:f9:4c:00:5b:ac:73:
                    98:6d:9f:aa:ee:b4:18:d5:35:11:47:d4:dc:59:bc:
                    c6:1d:c2:bb:21:1a:20:ee:0b:a5:0f:b9:c6:57:e3:
                    92:f4:03:b7:9d:5e:e3:d9:e5:a5:5f:7c:3f:64:c9:
                    77:2a:67:05:44:97:5e:23:d8:a0:4e:03:13:e6:ea:
                    ed:ec:25:c9:45:e7:fa:b7:3a:fb:18:55:6b:c1:36:
                    c4:ae:8e:d8:b9:44:e7:8e:9a:03:d3:8a:a0:21:81:
                    ff:bb:cf:cb:71:ab:1c:ed:1e:ae:07:5a:89:a7:7a:
                    10:11:44:6f:61:82:8d:33:49:56:69:98:88:46:c3:
                    2f:af:70:f8:cf:07:bd:10:a6:90:bd:11:33:af:a1:
                    46:eb:17:7b:78:77:fc:83:69:68:7d:24:12:82:e7:
                    c3:35:4f:01:bc:c3:35:5f:42:f5:fe:f2:19:1d:29:
                    62:e9:a8:89:02:01:7d:73:3e:d3:65:5f:47:29:66:
                    a5:a5:37:90:85:23:d7:7b:4b:c5:a7:ef:bd:13:2f:
                    74:8c:a2:14:35:07:70:2c:3f:3a:4c:b4:5d:de:d3:
                    e1:13
                Exponent: 65537 (0x10001)
        X509v3 extensions:
            X509v3 Basic Constraints: 
                CA:FALSE
            X509v3 Subject Key Identifier: 
                B4:0A:E1:11:B9:B7:12:12:B2:2C:64:C2:98:31:AC:1E:0C:8A:10:F0
            X509v3 Authority Key Identifier: 
                keyid:15:D5:3F:5A:ED:2A:25:84:B6:1F:CF:94:3E:4E:18:C6:3F:A3:C1:28
                DirName:/CN=team761-net
                serial:6F:F3:67:A1:23:8E:83:EC:5D:B6:39:26:C3:7B:EC:86:CD:3D:38:96

            X509v3 Extended Key Usage: 
                TLS Web Server Authentication
            X509v3 Key Usage: 
                Digital Signature, Key Encipherment
            X509v3 Subject Alternative Name: 
                DNS:team761-server
    Signature Algorithm: sha256WithRSAEncryption
         a1:55:5e:7c:8f:95:77:11:af:d5:84:e6:77:dd:7a:2f:d7:27:
         81:c7:f6:e1:fe:3e:20:01:cf:cd:fe:b9:74:31:d1:e6:f2:d6:
         9e:0a:90:ad:09:b5:4e:6c:90:26:0e:3e:c9:de:6a:c3:a6:5e:
         d4:c4:8a:10:7d:13:1a:22:a9:21:50:75:d9:a7:e7:5f:7b:77:
         de:8f:d5:8b:00:92:fd:7d:47:1f:fa:4d:c2:0a:cd:0e:4b:c6:
         99:88:00:26:e0:87:34:51:4a:72:d2:c4:28:19:7d:5f:bb:8b:
         ea:6f:53:2b:ae:a7:55:bf:1a:f3:d6:98:fd:51:5f:7c:c2:2a:
         7f:65:96:28:de:5a:04:2e:99:2d:33:50:f5:b0:44:cd:2d:cc:
         22:a1:1f:e2:f2:38:e3:a7:a9:31:3d:67:43:38:0c:ba:ab:01:
         80:68:ae:6c:82:35:57:98:f8:ad:4c:57:16:df:f6:84:4c:83:
         e8:59:01:31:6b:25:bf:8f:68:77:03:9f:13:f8:3e:8e:50:12:
         2c:ba:1b:35:1b:8d:0c:67:71:33:e8:f1:07:02:89:55:d9:90:
         c0:0d:94:b0:ab:a3:6a:78:06:d9:f9:30:02:e5:64:de:b3:ae:
         33:e9:47:e2:a0:bd:6d:db:c8:2d:d5:2b:d8:6a:21:12:c7:5f:
         44:aa:7e:51
-----BEGIN CERTIFICATE-----
MIIDdzCCAl+gAwIBAgIQQdNgHyrePxnCksUJi0IW0jANBgkqhkiG9w0BAQsFADAW
MRQwEgYDVQQDDAt0ZWFtNzYxLW5ldDAeFw0yMTA5MTMwNjAxMjlaFw0yNDA4Mjgw
NjAxMjlaMBkxFzAVBgNVBAMMDnRlYW03NjEtc2VydmVyMIIBIjANBgkqhkiG9w0B
AQEFAAOCAQ8AMIIBCgKCAQEAsigOlTAQZ7RErNBhYpVS50JrgzN7RdNaicebXv9D
EVt2nR/C4GX5TABbrHOYbZ+q7rQY1TURR9TcWbzGHcK7IRog7gulD7nGV+OS9AO3
nV7j2eWlX3w/ZMl3KmcFRJdeI9igTgMT5urt7CXJRef6tzr7GFVrwTbEro7YuUTn
jpoD04qgIYH/u8/Lcasc7R6uB1qJp3oQEURvYYKNM0lWaZiIRsMvr3D4zwe9EKaQ
vREzr6FG6xd7eHf8g2lofSQSgufDNU8BvMM1X0L1/vIZHSli6aiJAgF9cz7TZV9H
KWalpTeQhSPXe0vFp++9Ey90jKIUNQdwLD86TLRd3tPhEwIDAQABo4G9MIG6MAkG
A1UdEwQCMAAwHQYDVR0OBBYEFLQK4RG5txISsixkwpgxrB4MihDwMFEGA1UdIwRK
MEiAFBXVP1rtKiWEth/PlD5OGMY/o8EooRqkGDAWMRQwEgYDVQQDDAt0ZWFtNzYx
LW5ldIIUb/NnoSOOg+xdtjkmw3vshs09OJYwEwYDVR0lBAwwCgYIKwYBBQUHAwEw
CwYDVR0PBAQDAgWgMBkGA1UdEQQSMBCCDnRlYW03NjEtc2VydmVyMA0GCSqGSIb3
DQEBCwUAA4IBAQChVV58j5V3Ea/VhOZ33Xov1yeBx/bh/j4gAc/N/rl0MdHm8tae
CpCtCbVObJAmDj7J3mrDpl7UxIoQfRMaIqkhUHXZp+dfe3fej9WLAJL9fUcf+k3C
Cs0OS8aZiAAm4Ic0UUpy0sQoGX1fu4vqb1MrrqdVvxrz1pj9UV98wip/ZZYo3loE
LpktM1D1sETNLcwioR/i8jjjp6kxPWdDOAy6qwGAaK5sgjVXmPitTFcW3/aETIPo
WQExayW/j2h3A58T+D6OUBIsuhs1G40MZ3Ez6PEHAolV2ZDADZSwq6NqeAbZ+TAC
5WTes64z6UfioL1t28gt1SvYaiESx19Eqn5R
-----END CERTIFICATE-----
