Certificate:
    Data:
        Version: 3 (0x2)
        Serial Number:
            1b:c2:0c:91:46:2c:7a:c0:14:8b:8b:d6:2e:d1:75:52
        Signature Algorithm: sha256WithRSAEncryption
        Issuer: CN=team703-net
        Validity
            Not Before: Sep 13 05:24:02 2021 GMT
            Not After : Aug 28 05:24:02 2024 GMT
        Subject: CN=team703-client
        Subject Public Key Info:
            Public Key Algorithm: rsaEncryption
                RSA Public-Key: (2048 bit)
                Modulus:
                    00:d5:e5:8d:12:2c:20:ee:28:d6:66:aa:37:21:75:
                    cd:40:9b:77:e4:e7:76:73:39:af:58:a8:9c:f6:c9:
                    76:35:7a:51:59:95:a3:ea:4f:32:c5:28:45:cf:fc:
                    0b:37:a7:b9:6a:50:61:b0:92:f4:3c:d5:a0:fd:29:
                    bb:ba:09:2e:73:75:1b:2c:40:79:2c:d8:db:0f:02:
                    de:65:77:79:d5:52:16:6a:45:2a:64:5e:f7:59:ae:
                    02:ec:07:e7:ff:be:bb:0c:56:00:4c:d0:bd:1f:b2:
                    c3:77:b2:99:b2:bb:52:7a:58:88:88:39:3a:a9:2d:
                    9f:71:c8:b8:6f:4a:6e:0d:4b:82:70:a7:f8:6e:f3:
                    af:47:7b:4b:9d:8f:e2:5b:3d:27:ce:2e:3f:5a:82:
                    e0:d3:ca:5e:15:04:c6:23:13:93:b1:ab:8c:a1:aa:
                    fa:66:af:ca:3a:39:cb:2e:7a:91:25:cb:77:69:2a:
                    75:92:6d:67:9b:fd:af:e6:38:05:b2:3d:88:3f:4f:
                    96:9f:8d:6f:51:aa:23:40:3b:ff:c6:05:60:19:47:
                    73:c5:30:d8:fd:66:ea:82:eb:b5:06:a5:0a:71:a9:
                    4a:b9:27:3a:66:94:4e:fd:79:40:e1:64:35:09:fd:
                    ee:37:89:11:be:9b:95:27:bb:1f:ba:45:71:43:13:
                    7d:c7
                Exponent: 65537 (0x10001)
        X509v3 extensions:
            X509v3 Basic Constraints: 
                CA:FALSE
            X509v3 Subject Key Identifier: 
                25:A8:F7:6E:AD:FA:77:D0:5B:57:69:3A:75:D4:31:A1:AC:2F:74:15
            X509v3 Authority Key Identifier: 
                keyid:0A:25:19:D7:E3:78:F5:C8:95:E1:A1:F1:37:69:69:F4:53:5D:22:67
                DirName:/CN=team703-net
                serial:76:A9:0A:CE:12:86:E7:4B:BE:64:26:DB:C6:FF:E3:28:14:D8:54:B3

            X509v3 Extended Key Usage: 
                TLS Web Client Authentication
            X509v3 Key Usage: 
                Digital Signature
    Signature Algorithm: sha256WithRSAEncryption
         61:fb:52:0e:35:a9:cf:db:6f:2a:5f:9f:ac:9c:52:54:a6:77:
         7e:d9:bd:fd:8f:22:61:b1:5c:0b:5a:d3:7e:c5:a7:ea:65:5c:
         b3:ac:46:41:29:a7:f5:98:4d:81:fe:48:d2:8e:f8:16:3b:84:
         c5:1e:99:10:77:1a:10:45:bc:4b:03:c3:d9:2b:9b:4a:a3:d3:
         84:82:b1:83:b1:01:b4:d7:7f:d1:cc:32:ae:9e:5e:fd:81:99:
         04:e8:0f:bf:16:ee:f5:8e:92:6e:ce:f5:a3:0e:d3:e1:8b:7d:
         ae:b2:57:c4:18:3a:77:42:5d:56:89:fd:c6:13:c0:17:30:3a:
         bd:6f:b9:d3:fd:67:4f:a3:47:88:a7:05:ed:ec:56:d8:45:50:
         49:90:0f:cb:d2:2b:57:e8:f0:c4:1a:ee:8f:f0:c8:9c:9a:e1:
         c8:45:90:37:4a:c0:0c:7c:39:35:15:ec:33:23:a8:cf:ca:94:
         0e:56:68:e4:39:6e:4b:75:ac:f5:99:4b:5a:67:79:b4:8f:f2:
         03:24:65:bb:e4:06:33:cb:16:7b:bf:99:cc:a7:cb:26:0e:d5:
         fc:9b:f4:f9:f2:64:b1:ea:da:05:76:b0:85:61:0c:0d:95:a3:
         a6:d3:cc:7c:c6:2f:b0:ba:ea:fd:5b:e7:00:20:f9:f7:b8:53:
         93:5b:b8:4d
-----BEGIN CERTIFICATE-----
MIIDXDCCAkSgAwIBAgIQG8IMkUYsesAUi4vWLtF1UjANBgkqhkiG9w0BAQsFADAW
MRQwEgYDVQQDDAt0ZWFtNzAzLW5ldDAeFw0yMTA5MTMwNTI0MDJaFw0yNDA4Mjgw
NTI0MDJaMBkxFzAVBgNVBAMMDnRlYW03MDMtY2xpZW50MIIBIjANBgkqhkiG9w0B
AQEFAAOCAQ8AMIIBCgKCAQEA1eWNEiwg7ijWZqo3IXXNQJt35Od2czmvWKic9sl2
NXpRWZWj6k8yxShFz/wLN6e5alBhsJL0PNWg/Sm7ugkuc3UbLEB5LNjbDwLeZXd5
1VIWakUqZF73Wa4C7Afn/767DFYATNC9H7LDd7KZsrtSeliIiDk6qS2fcci4b0pu
DUuCcKf4bvOvR3tLnY/iWz0nzi4/WoLg08peFQTGIxOTsauMoar6Zq/KOjnLLnqR
Jct3aSp1km1nm/2v5jgFsj2IP0+Wn41vUaojQDv/xgVgGUdzxTDY/Wbqguu1BqUK
calKuSc6ZpRO/XlA4WQ1Cf3uN4kRvpuVJ7sfukVxQxN9xwIDAQABo4GiMIGfMAkG
A1UdEwQCMAAwHQYDVR0OBBYEFCWo926t+nfQW1dpOnXUMaGsL3QVMFEGA1UdIwRK
MEiAFAolGdfjePXIleGh8TdpafRTXSJnoRqkGDAWMRQwEgYDVQQDDAt0ZWFtNzAz
LW5ldIIUdqkKzhKG50u+ZCbbxv/jKBTYVLMwEwYDVR0lBAwwCgYIKwYBBQUHAwIw
CwYDVR0PBAQDAgeAMA0GCSqGSIb3DQEBCwUAA4IBAQBh+1IONanP228qX5+snFJU
pnd+2b39jyJhsVwLWtN+xafqZVyzrEZBKaf1mE2B/kjSjvgWO4TFHpkQdxoQRbxL
A8PZK5tKo9OEgrGDsQG013/RzDKunl79gZkE6A+/Fu71jpJuzvWjDtPhi32uslfE
GDp3Ql1Wif3GE8AXMDq9b7nT/WdPo0eIpwXt7FbYRVBJkA/L0itX6PDEGu6P8Mic
muHIRZA3SsAMfDk1FewzI6jPypQOVmjkOW5Ldaz1mUtaZ3m0j/IDJGW75AYzyxZ7
v5nMp8smDtX8m/T58mSx6toFdrCFYQwNlaOm08x8xi+wuur9W+cAIPn3uFOTW7hN
-----END CERTIFICATE-----
