Certificate:
    Data:
        Version: 3 (0x2)
        Serial Number:
            6d:31:76:06:c9:fc:dd:df:cb:f0:3d:18:3f:d0:98:de
        Signature Algorithm: sha256WithRSAEncryption
        Issuer: CN=team285-net
        Validity
            Not Before: Sep 13 01:16:09 2021 GMT
            Not After : Aug 28 01:16:09 2024 GMT
        Subject: CN=team285-client
        Subject Public Key Info:
            Public Key Algorithm: rsaEncryption
                RSA Public-Key: (2048 bit)
                Modulus:
                    00:c5:e6:11:28:bd:97:a7:6f:19:4c:e9:ef:31:1e:
                    a4:78:7d:4c:86:44:02:e2:ff:ac:ca:54:b9:0b:2d:
                    eb:cd:ef:4e:7d:e0:ed:92:0d:ea:a5:58:ac:d9:67:
                    c3:22:67:36:8e:d5:61:84:69:19:d7:e1:e0:ee:a1:
                    47:0b:80:3d:41:c5:19:22:82:fd:6f:83:35:5d:5b:
                    f1:54:23:02:8a:b5:5e:5b:74:77:10:52:99:dd:b8:
                    41:82:69:de:eb:41:46:7e:21:3b:20:2d:2d:23:8f:
                    5c:39:74:55:c7:5b:ec:00:a3:7d:05:91:6b:71:af:
                    ae:f3:21:0d:fd:da:f4:ff:8d:e9:8b:0b:cf:0d:ad:
                    81:0e:03:85:87:8e:c8:d9:e3:1c:1b:ac:59:ce:cd:
                    21:e2:01:7d:e2:01:18:8c:0d:69:7e:ab:24:d2:3c:
                    b7:38:be:72:18:cb:7e:54:b0:e0:8e:70:4b:5b:95:
                    f5:9f:90:84:ef:d2:a9:35:e9:a8:8a:f9:9b:37:ba:
                    78:75:c9:ee:b9:21:14:6d:16:5e:04:29:7e:e9:df:
                    33:7d:dd:f9:8e:76:8a:cc:83:31:85:0d:f5:9f:4b:
                    76:c8:20:2d:59:6e:ab:f4:d5:f6:30:00:90:de:f7:
                    1f:27:72:4d:1b:e4:43:17:1e:2c:84:12:3c:f4:0e:
                    48:37
                Exponent: 65537 (0x10001)
        X509v3 extensions:
            X509v3 Basic Constraints: 
                CA:FALSE
            X509v3 Subject Key Identifier: 
                C7:FC:C6:8F:75:CA:EE:13:15:00:A7:6C:AE:1A:15:61:C7:7E:6A:E4
            X509v3 Authority Key Identifier: 
                keyid:DE:72:61:A0:74:63:45:A2:2E:56:94:92:F0:C4:DB:5B:A8:5C:DB:2D
                DirName:/CN=team285-net
                serial:2C:DE:39:B8:0A:FE:F2:40:A9:97:1E:80:03:A9:66:32:9D:E6:A2:AE

            X509v3 Extended Key Usage: 
                TLS Web Client Authentication
            X509v3 Key Usage: 
                Digital Signature
    Signature Algorithm: sha256WithRSAEncryption
         0c:7b:aa:f0:6f:d4:94:1a:fb:f9:00:cf:cc:bd:42:77:8c:de:
         6d:26:88:f0:3f:49:9a:22:da:9e:1d:83:e8:40:f0:c6:fb:c9:
         a1:cc:a4:3a:b2:48:cb:3e:83:44:aa:b0:a6:b3:8b:1f:e4:c3:
         f3:bf:26:ec:f8:b0:e2:50:ba:38:96:9d:6a:a2:c1:12:04:cb:
         34:99:06:02:42:cb:12:4c:29:dc:6c:4f:d4:0e:32:6d:21:ec:
         9d:59:7b:1f:dd:89:ee:96:c8:02:55:db:ea:f9:67:87:4c:f1:
         15:aa:20:ab:37:e2:24:b0:8f:f9:a0:b1:ec:68:17:d4:a5:77:
         b8:07:8e:6f:1c:cf:0c:9c:19:1c:ac:d2:07:02:47:77:b6:69:
         66:9e:9f:39:5d:7f:40:03:ee:7c:f8:79:fa:96:f3:50:f6:d0:
         5a:c9:20:a8:b6:66:3b:be:ed:6b:59:31:fd:65:1f:3f:62:da:
         be:52:8f:1a:72:4b:5b:35:4f:ef:3b:d2:52:09:1c:b5:ec:14:
         07:f2:ed:91:aa:3e:f8:38:bb:aa:a6:55:8a:59:ca:31:ea:b5:
         6d:0b:bf:2a:8f:25:6b:d9:02:b2:53:30:8c:33:b6:89:7e:12:
         c1:cd:52:4d:29:ab:d6:3e:84:02:73:86:29:80:0c:55:23:29:
         bd:e4:88:18
-----BEGIN CERTIFICATE-----
MIIDXDCCAkSgAwIBAgIQbTF2Bsn83d/L8D0YP9CY3jANBgkqhkiG9w0BAQsFADAW
MRQwEgYDVQQDDAt0ZWFtMjg1LW5ldDAeFw0yMTA5MTMwMTE2MDlaFw0yNDA4Mjgw
MTE2MDlaMBkxFzAVBgNVBAMMDnRlYW0yODUtY2xpZW50MIIBIjANBgkqhkiG9w0B
AQEFAAOCAQ8AMIIBCgKCAQEAxeYRKL2Xp28ZTOnvMR6keH1MhkQC4v+sylS5Cy3r
ze9OfeDtkg3qpVis2WfDImc2jtVhhGkZ1+Hg7qFHC4A9QcUZIoL9b4M1XVvxVCMC
irVeW3R3EFKZ3bhBgmne60FGfiE7IC0tI49cOXRVx1vsAKN9BZFrca+u8yEN/dr0
/43piwvPDa2BDgOFh47I2eMcG6xZzs0h4gF94gEYjA1pfqsk0jy3OL5yGMt+VLDg
jnBLW5X1n5CE79KpNemoivmbN7p4dcnuuSEUbRZeBCl+6d8zfd35jnaKzIMxhQ31
n0t2yCAtWW6r9NX2MACQ3vcfJ3JNG+RDFx4shBI89A5INwIDAQABo4GiMIGfMAkG
A1UdEwQCMAAwHQYDVR0OBBYEFMf8xo91yu4TFQCnbK4aFWHHfmrkMFEGA1UdIwRK
MEiAFN5yYaB0Y0WiLlaUkvDE21uoXNstoRqkGDAWMRQwEgYDVQQDDAt0ZWFtMjg1
LW5ldIIULN45uAr+8kCplx6AA6lmMp3moq4wEwYDVR0lBAwwCgYIKwYBBQUHAwIw
CwYDVR0PBAQDAgeAMA0GCSqGSIb3DQEBCwUAA4IBAQAMe6rwb9SUGvv5AM/MvUJ3
jN5tJojwP0maItqeHYPoQPDG+8mhzKQ6skjLPoNEqrCms4sf5MPzvybs+LDiULo4
lp1qosESBMs0mQYCQssSTCncbE/UDjJtIeydWXsf3YnulsgCVdvq+WeHTPEVqiCr
N+IksI/5oLHsaBfUpXe4B45vHM8MnBkcrNIHAkd3tmlmnp85XX9AA+58+Hn6lvNQ
9tBaySCotmY7vu1rWTH9ZR8/Ytq+Uo8acktbNU/vO9JSCRy17BQH8u2Rqj74OLuq
plWKWcox6rVtC78qjyVr2QKyUzCMM7aJfhLBzVJNKavWPoQCc4YpgAxVIym95IgY
-----END CERTIFICATE-----
