Certificate:
    Data:
        Version: 3 (0x2)
        Serial Number:
            88:a2:d7:04:5e:60:55:45:0a:8b:27:27:18:a7:fc:bc
        Signature Algorithm: sha256WithRSAEncryption
        Issuer: CN=team54-net
        Validity
            Not Before: Sep 12 23:11:50 2021 GMT
            Not After : Aug 27 23:11:50 2024 GMT
        Subject: CN=team54-server
        Subject Public Key Info:
            Public Key Algorithm: rsaEncryption
                RSA Public-Key: (2048 bit)
                Modulus:
                    00:c0:fc:07:62:b1:fd:46:96:76:79:91:c0:b2:a5:
                    3c:91:03:a6:69:7b:71:84:a8:74:60:4f:f4:3d:09:
                    a6:4a:23:49:31:06:16:b6:20:00:b4:4b:c7:63:70:
                    42:b1:f6:83:b0:16:d7:67:a3:76:48:2e:be:bb:e7:
                    4a:38:5a:6b:11:5d:9a:0f:15:cc:4d:16:fa:65:21:
                    75:d5:50:51:9e:70:4c:33:4e:e6:fc:18:fb:8a:7e:
                    9c:4a:55:48:e5:cf:69:90:0d:68:14:30:da:bd:c6:
                    d6:f4:9b:b6:44:5a:3b:ea:ab:fc:3f:48:76:27:fa:
                    f6:61:e5:13:5c:0e:13:86:4a:ad:32:cf:da:af:c1:
                    c3:b7:a2:0d:d5:fa:85:75:5d:cd:06:98:ca:1f:8b:
                    8c:e2:a4:f7:19:09:ce:6b:e7:db:bf:5c:38:18:81:
                    65:7a:83:68:c8:72:e4:95:c4:f0:8d:f4:f9:59:b8:
                    91:96:55:f2:9e:3f:45:c1:e0:a5:29:fe:33:fe:c5:
                    5a:4c:f7:af:d8:d7:75:cd:fb:77:ca:a7:9d:5f:23:
                    e8:0f:c1:38:76:6f:57:f6:af:6c:89:dc:91:1f:43:
                    74:91:cc:38:ac:89:74:78:6d:7a:e0:3d:07:cb:28:
                    c7:58:d8:52:16:33:2b:27:9f:13:dd:8a:72:d7:57:
                    3c:47
                Exponent: 65537 (0x10001)
        X509v3 extensions:
            X509v3 Basic Constraints: 
                CA:FALSE
            X509v3 Subject Key Identifier: 
                C2:C2:C0:50:E5:88:BA:47:35:6D:3D:38:DC:0F:37:03:D0:BE:F0:7F
            X509v3 Authority Key Identifier: 
                keyid:C8:DF:67:FA:9C:E2:9B:4C:8D:7D:73:D2:6A:27:28:DC:83:DA:1D:3A
                DirName:/CN=team54-net
                serial:4E:A1:6E:9C:3B:C6:75:FF:51:85:50:52:5C:E5:96:2F:05:CF:0E:C6

            X509v3 Extended Key Usage: 
                TLS Web Server Authentication
            X509v3 Key Usage: 
                Digital Signature, Key Encipherment
            X509v3 Subject Alternative Name: 
                DNS:team54-server
    Signature Algorithm: sha256WithRSAEncryption
         28:e2:35:ea:87:03:b6:89:83:b4:9e:27:c7:8a:4a:65:91:06:
         d7:ff:21:4a:98:40:b6:1b:a5:c2:d4:29:65:0c:35:fe:c1:52:
         ea:67:2d:f1:4c:89:ae:e8:02:7d:0c:a6:2b:43:06:e8:a4:25:
         55:6c:b6:cb:1c:69:c4:f1:e1:86:44:5e:1c:a0:7e:8f:42:f1:
         d4:65:93:ca:6c:74:a9:dc:cc:ef:6f:74:a4:d2:ec:c0:12:00:
         37:d2:bf:76:e7:d2:ea:77:89:f5:1a:54:0d:9b:f7:7a:bb:a5:
         a0:d8:0c:e7:89:a1:4e:4e:87:48:91:cd:d3:c4:ad:fc:01:f4:
         c3:dd:bd:35:a9:c8:85:25:11:91:4e:e4:f7:47:2e:ea:f0:48:
         d6:62:8b:74:1d:27:f7:e9:23:67:2c:fd:d8:77:92:46:11:93:
         66:a7:88:14:fd:d4:3f:e4:de:10:5d:1c:1d:ec:6a:f9:ea:93:
         33:07:92:16:33:00:48:73:d4:98:4a:46:b1:0c:b8:6a:99:f1:
         b7:c7:bf:0a:48:31:9d:aa:ff:46:92:96:b6:70:ec:6b:6e:ee:
         e8:7c:6a:0f:9e:5b:17:cb:84:55:ac:98:73:a0:f9:10:8a:16:
         f7:bf:2d:4a:b5:6e:5d:d8:a1:5f:92:e9:f1:b7:86:2c:cb:a9:
         93:f9:d7:da
-----BEGIN CERTIFICATE-----
MIIDdDCCAlygAwIBAgIRAIii1wReYFVFCosnJxin/LwwDQYJKoZIhvcNAQELBQAw
FTETMBEGA1UEAwwKdGVhbTU0LW5ldDAeFw0yMTA5MTIyMzExNTBaFw0yNDA4Mjcy
MzExNTBaMBgxFjAUBgNVBAMMDXRlYW01NC1zZXJ2ZXIwggEiMA0GCSqGSIb3DQEB
AQUAA4IBDwAwggEKAoIBAQDA/Adisf1GlnZ5kcCypTyRA6Zpe3GEqHRgT/Q9CaZK
I0kxBha2IAC0S8djcEKx9oOwFtdno3ZILr6750o4WmsRXZoPFcxNFvplIXXVUFGe
cEwzTub8GPuKfpxKVUjlz2mQDWgUMNq9xtb0m7ZEWjvqq/w/SHYn+vZh5RNcDhOG
Sq0yz9qvwcO3og3V+oV1Xc0GmMofi4zipPcZCc5r59u/XDgYgWV6g2jIcuSVxPCN
9PlZuJGWVfKeP0XB4KUp/jP+xVpM96/Y13XN+3fKp51fI+gPwTh2b1f2r2yJ3JEf
Q3SRzDisiXR4bXrgPQfLKMdY2FIWMysnnxPdinLXVzxHAgMBAAGjgbswgbgwCQYD
VR0TBAIwADAdBgNVHQ4EFgQUwsLAUOWIukc1bT043A83A9C+8H8wUAYDVR0jBEkw
R4AUyN9n+pzim0yNfXPSaico3IPaHTqhGaQXMBUxEzARBgNVBAMMCnRlYW01NC1u
ZXSCFE6hbpw7xnX/UYVQUlzlli8Fzw7GMBMGA1UdJQQMMAoGCCsGAQUFBwMBMAsG
A1UdDwQEAwIFoDAYBgNVHREEETAPgg10ZWFtNTQtc2VydmVyMA0GCSqGSIb3DQEB
CwUAA4IBAQAo4jXqhwO2iYO0nifHikplkQbX/yFKmEC2G6XC1CllDDX+wVLqZy3x
TImu6AJ9DKYrQwbopCVVbLbLHGnE8eGGRF4coH6PQvHUZZPKbHSp3Mzvb3Sk0uzA
EgA30r9259Lqd4n1GlQNm/d6u6Wg2AzniaFOTodIkc3TxK38AfTD3b01qciFJRGR
TuT3Ry7q8EjWYot0HSf36SNnLP3Yd5JGEZNmp4gU/dQ/5N4QXRwd7Gr56pMzB5IW
MwBIc9SYSkaxDLhqmfG3x78KSDGdqv9Gkpa2cOxrbu7ofGoPnlsXy4RVrJhzoPkQ
ihb3vy1KtW5d2KFfkunxt4Ysy6mT+dfa
-----END CERTIFICATE-----
