Certificate:
    Data:
        Version: 3 (0x2)
        Serial Number:
            aa:21:b1:6d:87:96:c7:d9:1f:18:3b:b3:20:59:37:8b
        Signature Algorithm: sha256WithRSAEncryption
        Issuer: CN=team526-net
        Validity
            Not Before: Sep 13 03:34:42 2021 GMT
            Not After : Aug 28 03:34:42 2024 GMT
        Subject: CN=team526-client
        Subject Public Key Info:
            Public Key Algorithm: rsaEncryption
                RSA Public-Key: (2048 bit)
                Modulus:
                    00:cf:a4:a1:0a:5d:d1:a6:b4:c3:06:7e:e5:8f:40:
                    85:b3:16:ca:63:72:f0:98:01:0a:a7:4d:b0:5a:0f:
                    0b:ef:d9:ad:93:50:17:18:13:35:b5:18:9e:12:84:
                    67:7c:5e:77:24:b9:16:e4:4c:69:0a:f1:9f:56:6f:
                    fd:f1:80:0b:8a:06:3d:a1:0d:51:89:15:13:f7:f2:
                    0e:3b:18:52:c9:3d:70:a9:e9:47:ea:2c:0d:94:ec:
                    79:41:c9:89:7f:9d:fc:2a:e8:70:6f:51:ea:e3:a5:
                    ae:0e:53:0b:d3:35:7b:a2:6e:c8:87:40:e0:0e:68:
                    4f:8f:19:3a:a8:9f:47:2d:6b:0a:42:75:b9:06:39:
                    4a:0a:e9:9f:c4:3b:66:65:7a:3f:72:dc:77:09:9c:
                    01:84:42:33:50:e1:c0:b6:59:c8:50:c9:32:d2:67:
                    95:44:3c:43:2c:e6:b4:2f:fe:2d:a7:55:4a:e7:c4:
                    d3:2d:7c:1d:a5:20:11:f4:8f:1b:61:6f:91:a2:fc:
                    0c:3e:95:fc:9a:af:e9:b2:b4:03:da:bc:81:42:6f:
                    6a:7d:c6:b2:8f:09:fe:44:1c:74:29:23:c2:ad:aa:
                    6b:99:27:ce:06:50:be:bb:61:a6:dc:06:6e:1b:8c:
                    10:97:aa:38:ac:1d:9f:17:06:9a:ad:7b:31:3f:65:
                    93:7d
                Exponent: 65537 (0x10001)
        X509v3 extensions:
            X509v3 Basic Constraints: 
                CA:FALSE
            X509v3 Subject Key Identifier: 
                5A:2A:A6:A7:14:B5:0B:DE:8D:88:7E:FB:60:14:7D:EC:5F:4B:60:5E
            X509v3 Authority Key Identifier: 
                keyid:30:C6:F3:CB:BF:42:D8:C7:C1:0E:F8:E4:D7:39:65:A0:DC:4A:C9:15
                DirName:/CN=team526-net
                serial:44:3F:16:FF:6A:D1:9D:32:66:A7:F0:9E:3E:8C:29:BE:E9:35:57:BC

            X509v3 Extended Key Usage: 
                TLS Web Client Authentication
            X509v3 Key Usage: 
                Digital Signature
    Signature Algorithm: sha256WithRSAEncryption
         7b:60:54:bc:23:d7:fc:f8:59:53:9f:68:da:d5:bc:da:00:f1:
         79:6b:73:d2:8d:38:47:93:d5:79:d1:4e:aa:d6:20:f2:77:55:
         d7:6d:13:2f:a5:5d:e5:dc:6f:c1:4f:e8:59:62:5b:dd:bd:50:
         0e:e2:fd:d3:8b:6c:c3:87:4b:74:38:dc:88:77:d1:51:9a:af:
         f2:f3:f1:c3:f1:12:ea:fa:7d:7b:72:5f:28:55:53:1c:29:8d:
         74:4b:79:80:3e:cf:11:29:d9:e1:3d:38:38:ee:2e:d5:1f:fd:
         fc:33:57:5f:30:56:f0:8c:04:2f:19:4d:c9:72:d3:c7:eb:7d:
         f4:a1:16:7c:ba:90:59:2e:29:f4:93:04:9d:80:e0:49:4c:86:
         a0:4b:40:79:a6:e6:41:7b:54:16:79:1a:7d:1a:bb:9a:ce:61:
         6b:7e:5a:5e:97:fc:09:01:ef:e8:4b:26:9c:fb:a8:be:1e:65:
         a3:78:b8:b9:ee:c2:4e:73:fa:f3:2a:7f:c6:3a:8a:0f:00:4c:
         ae:06:8e:14:68:2e:46:8a:4d:79:0f:2a:2e:d7:ac:b8:57:ad:
         e6:a5:89:f2:f7:66:64:53:9f:ab:68:1f:66:54:6c:04:bf:52:
         64:86:72:e1:a3:82:89:c7:05:85:d8:8d:1a:4b:d6:cd:03:62:
         71:98:43:a1
-----BEGIN CERTIFICATE-----
MIIDXTCCAkWgAwIBAgIRAKohsW2HlsfZHxg7syBZN4swDQYJKoZIhvcNAQELBQAw
FjEUMBIGA1UEAwwLdGVhbTUyNi1uZXQwHhcNMjEwOTEzMDMzNDQyWhcNMjQwODI4
MDMzNDQyWjAZMRcwFQYDVQQDDA50ZWFtNTI2LWNsaWVudDCCASIwDQYJKoZIhvcN
AQEBBQADggEPADCCAQoCggEBAM+koQpd0aa0wwZ+5Y9AhbMWymNy8JgBCqdNsFoP
C+/ZrZNQFxgTNbUYnhKEZ3xedyS5FuRMaQrxn1Zv/fGAC4oGPaENUYkVE/fyDjsY
Usk9cKnpR+osDZTseUHJiX+d/CrocG9R6uOlrg5TC9M1e6JuyIdA4A5oT48ZOqif
Ry1rCkJ1uQY5Sgrpn8Q7ZmV6P3LcdwmcAYRCM1DhwLZZyFDJMtJnlUQ8QyzmtC/+
LadVSufE0y18HaUgEfSPG2FvkaL8DD6V/Jqv6bK0A9q8gUJvan3Gso8J/kQcdCkj
wq2qa5knzgZQvrthptwGbhuMEJeqOKwdnxcGmq17MT9lk30CAwEAAaOBojCBnzAJ
BgNVHRMEAjAAMB0GA1UdDgQWBBRaKqanFLUL3o2IfvtgFH3sX0tgXjBRBgNVHSME
SjBIgBQwxvPLv0LYx8EO+OTXOWWg3ErJFaEapBgwFjEUMBIGA1UEAwwLdGVhbTUy
Ni1uZXSCFEQ/Fv9q0Z0yZqfwnj6MKb7pNVe8MBMGA1UdJQQMMAoGCCsGAQUFBwMC
MAsGA1UdDwQEAwIHgDANBgkqhkiG9w0BAQsFAAOCAQEAe2BUvCPX/PhZU59o2tW8
2gDxeWtz0o04R5PVedFOqtYg8ndV120TL6Vd5dxvwU/oWWJb3b1QDuL904tsw4dL
dDjciHfRUZqv8vPxw/ES6vp9e3JfKFVTHCmNdEt5gD7PESnZ4T04OO4u1R/9/DNX
XzBW8IwELxlNyXLTx+t99KEWfLqQWS4p9JMEnYDgSUyGoEtAeabmQXtUFnkafRq7
ms5ha35aXpf8CQHv6EsmnPuovh5lo3i4ue7CTnP68yp/xjqKDwBMrgaOFGguRopN
eQ8qLtesuFet5qWJ8vdmZFOfq2gfZlRsBL9SZIZy4aOCiccFhdiNGkvWzQNicZhD
oQ==
-----END CERTIFICATE-----
