Certificate:
    Data:
        Version: 3 (0x2)
        Serial Number:
            4f:dd:0b:3f:27:78:18:a5:73:84:29:43:63:38:80:65
        Signature Algorithm: sha256WithRSAEncryption
        Issuer: CN=team700-net
        Validity
            Not Before: Sep 13 05:20:21 2021 GMT
            Not After : Aug 28 05:20:21 2024 GMT
        Subject: CN=team700-server
        Subject Public Key Info:
            Public Key Algorithm: rsaEncryption
                RSA Public-Key: (2048 bit)
                Modulus:
                    00:b7:4a:cb:6d:93:ee:b8:b5:12:cd:ae:52:f3:df:
                    58:0c:8d:c6:c0:6c:4b:99:60:a9:37:2f:66:fb:51:
                    8c:2b:8b:85:60:43:8c:26:bf:71:38:48:5d:2d:88:
                    d4:11:aa:88:44:79:91:a7:92:4e:69:ff:21:7a:61:
                    27:15:43:bc:a2:f5:5c:c0:c0:ec:97:1c:74:0a:58:
                    17:45:6e:a1:92:aa:0e:6a:c7:e4:cb:ee:a9:5b:ed:
                    d2:1f:5e:9f:c1:4d:5b:ef:4d:5f:b8:5c:71:7b:9d:
                    0d:cd:2c:8c:e9:ef:77:ac:f1:cc:28:16:b3:5f:a2:
                    9f:20:e6:29:ba:2c:0d:af:e7:89:33:84:56:d3:b2:
                    57:5e:a0:05:68:ac:c3:d7:79:c4:9f:dd:07:9c:c1:
                    82:0e:d4:ea:75:94:38:54:bf:fd:73:66:63:7a:19:
                    d0:af:3a:f1:4a:73:be:8b:fa:96:8f:35:0b:f7:fd:
                    94:7d:d7:36:86:50:f2:e7:de:ff:ab:12:23:4e:77:
                    be:17:51:8f:7e:e2:89:b3:f3:3b:b6:58:3a:6d:8e:
                    89:33:98:f7:36:32:c1:86:53:ad:25:26:e1:05:b9:
                    e6:5f:5c:e0:54:05:c1:e0:5b:79:31:b8:63:9d:4a:
                    6f:b8:13:0e:4a:98:03:b9:b2:cf:87:bb:e3:32:5f:
                    4a:27
                Exponent: 65537 (0x10001)
        X509v3 extensions:
            X509v3 Basic Constraints: 
                CA:FALSE
            X509v3 Subject Key Identifier: 
                A9:C9:8E:93:7B:AD:81:69:89:1B:3B:B6:7D:82:B0:B9:F1:E4:FD:B7
            X509v3 Authority Key Identifier: 
                keyid:32:2D:4F:74:FF:7A:9B:66:63:BD:D3:A7:87:2A:29:A8:E2:E2:1E:B1
                DirName:/CN=team700-net
                serial:26:DD:96:F9:FD:FE:CD:6E:1A:B9:1D:37:AF:95:4D:C2:37:BE:78:41

            X509v3 Extended Key Usage: 
                TLS Web Server Authentication
            X509v3 Key Usage: 
                Digital Signature, Key Encipherment
            X509v3 Subject Alternative Name: 
                DNS:team700-server
    Signature Algorithm: sha256WithRSAEncryption
         11:b5:55:ef:7d:9e:68:5e:44:6d:52:85:94:b3:19:bb:4d:1f:
         fb:a8:62:22:cb:f2:fc:dc:e0:3f:df:a2:71:55:ab:dd:5d:e0:
         cb:c0:7b:09:b5:a0:74:e5:06:c1:e3:36:c0:ed:ea:bd:89:a3:
         7e:ee:c2:e4:20:14:a1:50:79:b8:d3:79:bb:05:14:a2:b2:c0:
         af:31:63:49:e5:9e:ab:30:a5:93:4c:89:f2:36:66:8a:ad:c1:
         dd:6f:05:da:ab:8b:61:16:42:0e:3c:37:a1:6e:37:b6:50:96:
         40:69:de:65:20:6a:f9:3a:1a:23:24:fc:fd:05:60:92:4a:d2:
         59:1a:23:5a:bf:8a:e1:87:f4:17:37:5e:85:87:35:19:c2:83:
         55:21:3c:1d:64:88:d3:c9:98:13:c2:94:56:c8:c4:d2:ec:03:
         de:7a:cd:b1:b1:13:43:31:e2:32:d2:81:85:91:30:92:c3:59:
         ba:99:79:b2:34:f0:ae:e9:0f:ea:0e:8e:f3:2b:35:5a:99:3d:
         12:e1:bd:32:81:f6:50:32:fb:80:52:22:ae:e3:f3:a0:f7:53:
         13:f2:45:1d:1b:3c:46:63:09:e8:d2:ac:fc:d4:e5:94:a6:85:
         43:c8:5c:57:db:be:2b:68:a6:92:c0:9f:b7:79:bc:85:c1:c8:
         63:8e:4d:1c
-----BEGIN CERTIFICATE-----
MIIDdzCCAl+gAwIBAgIQT90LPyd4GKVzhClDYziAZTANBgkqhkiG9w0BAQsFADAW
MRQwEgYDVQQDDAt0ZWFtNzAwLW5ldDAeFw0yMTA5MTMwNTIwMjFaFw0yNDA4Mjgw
NTIwMjFaMBkxFzAVBgNVBAMMDnRlYW03MDAtc2VydmVyMIIBIjANBgkqhkiG9w0B
AQEFAAOCAQ8AMIIBCgKCAQEAt0rLbZPuuLUSza5S899YDI3GwGxLmWCpNy9m+1GM
K4uFYEOMJr9xOEhdLYjUEaqIRHmRp5JOaf8hemEnFUO8ovVcwMDslxx0ClgXRW6h
kqoOasfky+6pW+3SH16fwU1b701fuFxxe50NzSyM6e93rPHMKBazX6KfIOYpuiwN
r+eJM4RW07JXXqAFaKzD13nEn90HnMGCDtTqdZQ4VL/9c2ZjehnQrzrxSnO+i/qW
jzUL9/2Ufdc2hlDy597/qxIjTne+F1GPfuKJs/M7tlg6bY6JM5j3NjLBhlOtJSbh
BbnmX1zgVAXB4Ft5MbhjnUpvuBMOSpgDubLPh7vjMl9KJwIDAQABo4G9MIG6MAkG
A1UdEwQCMAAwHQYDVR0OBBYEFKnJjpN7rYFpiRs7tn2CsLnx5P23MFEGA1UdIwRK
MEiAFDItT3T/eptmY73Tp4cqKaji4h6xoRqkGDAWMRQwEgYDVQQDDAt0ZWFtNzAw
LW5ldIIUJt2W+f3+zW4auR03r5VNwje+eEEwEwYDVR0lBAwwCgYIKwYBBQUHAwEw
CwYDVR0PBAQDAgWgMBkGA1UdEQQSMBCCDnRlYW03MDAtc2VydmVyMA0GCSqGSIb3
DQEBCwUAA4IBAQARtVXvfZ5oXkRtUoWUsxm7TR/7qGIiy/L83OA/36JxVavdXeDL
wHsJtaB05QbB4zbA7eq9iaN+7sLkIBShUHm403m7BRSissCvMWNJ5Z6rMKWTTIny
NmaKrcHdbwXaq4thFkIOPDehbje2UJZAad5lIGr5OhojJPz9BWCSStJZGiNav4rh
h/QXN16FhzUZwoNVITwdZIjTyZgTwpRWyMTS7APees2xsRNDMeIy0oGFkTCSw1m6
mXmyNPCu6Q/qDo7zKzVamT0S4b0ygfZQMvuAUiKu4/Og91MT8kUdGzxGYwno0qz8
1OWUpoVDyFxX274raKaSwJ+3ebyFwchjjk0c
-----END CERTIFICATE-----
