Certificate:
    Data:
        Version: 3 (0x2)
        Serial Number:
            0a:99:ed:0a:d2:fa:83:5a:31:f0:cd:4e:e3:b1:38:c7
        Signature Algorithm: sha256WithRSAEncryption
        Issuer: CN=team473-net
        Validity
            Not Before: Sep 13 02:59:54 2021 GMT
            Not After : Aug 28 02:59:54 2024 GMT
        Subject: CN=team473-server
        Subject Public Key Info:
            Public Key Algorithm: rsaEncryption
                RSA Public-Key: (2048 bit)
                Modulus:
                    00:cd:24:29:d1:d1:2e:57:28:93:cd:ae:2e:04:00:
                    4b:3d:b3:48:e8:43:e1:a7:26:1e:cb:5a:09:7f:5d:
                    62:c9:79:30:0b:96:32:33:af:a5:b5:ff:67:dd:b2:
                    30:4f:13:cc:37:15:e9:fb:5d:ea:26:23:67:b7:6d:
                    89:87:ff:25:ca:f8:e2:a3:ee:ea:3e:47:ff:63:f1:
                    ac:ed:47:db:05:53:02:39:4a:c5:d2:4d:d4:c4:07:
                    a9:69:10:14:ec:0b:a7:9b:cb:24:d5:71:e8:b3:a6:
                    55:e5:31:a1:08:39:2a:12:d0:0c:bc:0f:4c:c5:ca:
                    e1:25:69:5d:10:b9:55:d1:93:d5:77:98:a5:68:69:
                    4b:32:39:64:61:ff:ea:e6:b4:fe:8c:c1:e6:22:04:
                    97:1f:1a:58:4a:c2:eb:3d:74:84:a5:68:06:ac:64:
                    76:80:fd:4c:ea:16:bf:f8:df:26:44:ba:51:c2:3e:
                    41:bb:c3:f2:e5:8f:17:8c:ec:67:a9:4e:8a:f7:10:
                    1b:6d:dd:ae:ee:fd:b0:68:f4:3d:06:73:a4:41:68:
                    d9:4a:60:50:ef:7d:e3:a3:df:d2:83:69:db:5d:fc:
                    e0:8c:b5:79:a9:6e:cd:91:52:76:8d:e2:44:7a:06:
                    db:75:8c:14:a8:87:ec:ee:e0:47:d7:e2:78:e4:ff:
                    36:a3
                Exponent: 65537 (0x10001)
        X509v3 extensions:
            X509v3 Basic Constraints: 
                CA:FALSE
            X509v3 Subject Key Identifier: 
                B9:DC:72:96:9A:62:20:53:BC:6D:82:AF:B0:D2:EB:70:91:3A:EA:ED
            X509v3 Authority Key Identifier: 
                keyid:9A:F1:04:B9:16:B1:49:D8:E9:46:F9:FE:1C:B7:9D:02:69:C9:4A:01
                DirName:/CN=team473-net
                serial:2C:5F:1B:BA:B8:6C:93:46:86:50:10:AF:DF:94:B5:D0:3C:DC:A0:53

            X509v3 Extended Key Usage: 
                TLS Web Server Authentication
            X509v3 Key Usage: 
                Digital Signature, Key Encipherment
            X509v3 Subject Alternative Name: 
                DNS:team473-server
    Signature Algorithm: sha256WithRSAEncryption
         62:de:96:a4:16:1d:bf:10:3d:f2:87:db:42:51:3f:f0:99:7f:
         17:5a:0c:ac:43:50:44:94:1b:f3:66:f2:c8:3e:32:7d:f6:ff:
         e4:52:b0:3d:f7:9b:d6:8a:58:1a:97:2e:7e:b1:97:c9:82:03:
         a4:8c:18:db:f3:01:63:8b:09:a6:1b:20:9f:b4:36:38:62:a4:
         d5:97:7d:56:99:0b:d2:c4:5e:eb:76:58:af:c1:96:85:74:e1:
         a2:e5:a1:aa:4a:02:aa:89:a7:54:47:55:af:42:d8:f1:0f:58:
         51:44:3d:c1:46:34:61:7b:b3:46:ce:3a:cb:5a:08:df:38:aa:
         e2:f5:1e:4c:18:8a:59:d8:c9:87:2d:da:2b:5d:3a:e1:97:9e:
         35:b1:58:bd:3f:83:e7:e2:2b:2b:c5:10:cd:b9:c3:80:0e:74:
         8a:51:f0:11:e3:99:9b:05:41:db:b8:14:7a:e2:04:29:f8:d7:
         47:56:9a:72:8b:cd:b7:93:1a:8e:9b:4d:b6:9d:a4:8a:80:6c:
         2d:3c:f7:28:83:c5:64:74:6a:bb:e9:42:02:d2:01:b5:76:dc:
         b1:cd:ed:e2:07:b1:8f:9b:90:88:0e:b9:32:91:d0:67:28:bd:
         db:d9:4b:b1:d5:59:94:58:f6:47:1b:0d:26:bc:a1:9e:15:20:
         54:68:2a:5e
-----BEGIN CERTIFICATE-----
MIIDdzCCAl+gAwIBAgIQCpntCtL6g1ox8M1O47E4xzANBgkqhkiG9w0BAQsFADAW
MRQwEgYDVQQDDAt0ZWFtNDczLW5ldDAeFw0yMTA5MTMwMjU5NTRaFw0yNDA4Mjgw
MjU5NTRaMBkxFzAVBgNVBAMMDnRlYW00NzMtc2VydmVyMIIBIjANBgkqhkiG9w0B
AQEFAAOCAQ8AMIIBCgKCAQEAzSQp0dEuVyiTza4uBABLPbNI6EPhpyYey1oJf11i
yXkwC5YyM6+ltf9n3bIwTxPMNxXp+13qJiNnt22Jh/8lyvjio+7qPkf/Y/Gs7Ufb
BVMCOUrF0k3UxAepaRAU7Aunm8sk1XHos6ZV5TGhCDkqEtAMvA9MxcrhJWldELlV
0ZPVd5ilaGlLMjlkYf/q5rT+jMHmIgSXHxpYSsLrPXSEpWgGrGR2gP1M6ha/+N8m
RLpRwj5Bu8Py5Y8XjOxnqU6K9xAbbd2u7v2waPQ9BnOkQWjZSmBQ733jo9/Sg2nb
XfzgjLV5qW7NkVJ2jeJEegbbdYwUqIfs7uBH1+J45P82owIDAQABo4G9MIG6MAkG
A1UdEwQCMAAwHQYDVR0OBBYEFLnccpaaYiBTvG2Cr7DS63CROurtMFEGA1UdIwRK
MEiAFJrxBLkWsUnY6Ub5/hy3nQJpyUoBoRqkGDAWMRQwEgYDVQQDDAt0ZWFtNDcz
LW5ldIIULF8burhsk0aGUBCv35S10DzcoFMwEwYDVR0lBAwwCgYIKwYBBQUHAwEw
CwYDVR0PBAQDAgWgMBkGA1UdEQQSMBCCDnRlYW00NzMtc2VydmVyMA0GCSqGSIb3
DQEBCwUAA4IBAQBi3pakFh2/ED3yh9tCUT/wmX8XWgysQ1BElBvzZvLIPjJ99v/k
UrA995vWilgaly5+sZfJggOkjBjb8wFjiwmmGyCftDY4YqTVl31WmQvSxF7rdliv
wZaFdOGi5aGqSgKqiadUR1WvQtjxD1hRRD3BRjRhe7NGzjrLWgjfOKri9R5MGIpZ
2MmHLdorXTrhl541sVi9P4Pn4isrxRDNucOADnSKUfAR45mbBUHbuBR64gQp+NdH
Vppyi823kxqOm022naSKgGwtPPcog8VkdGq76UIC0gG1dtyxze3iB7GPm5CIDrky
kdBnKL3b2Uux1VmUWPZHGw0mvKGeFSBUaCpe
-----END CERTIFICATE-----
