Certificate:
    Data:
        Version: 3 (0x2)
        Serial Number:
            0a:35:42:c1:1e:9e:68:37:c0:b4:91:8e:63:4a:dd:ed
        Signature Algorithm: sha256WithRSAEncryption
        Issuer: CN=team562-net
        Validity
            Not Before: Sep 13 03:54:02 2021 GMT
            Not After : Aug 28 03:54:02 2024 GMT
        Subject: CN=team562-server
        Subject Public Key Info:
            Public Key Algorithm: rsaEncryption
                RSA Public-Key: (2048 bit)
                Modulus:
                    00:ca:0f:b2:4d:bd:1e:a9:83:db:93:76:b0:a4:13:
                    e9:4d:7c:18:2c:11:ac:71:a6:45:bf:bc:99:e8:08:
                    85:81:d6:01:97:e2:39:66:50:ba:70:0c:c2:42:c5:
                    a1:2c:58:e0:16:50:71:2f:c5:7e:70:a7:f4:4e:ca:
                    64:68:02:52:de:31:b8:f2:01:ea:dd:0a:58:d9:01:
                    8f:dc:b3:d1:4d:3a:a8:37:24:05:90:a8:5b:e6:ad:
                    4c:d4:ba:56:93:f4:6c:0e:c4:aa:9d:f9:80:b7:5f:
                    eb:7d:ae:c9:6d:32:dc:67:db:2a:2f:3b:e0:0e:12:
                    74:36:b0:4f:4c:21:b2:3c:d1:4b:eb:3b:e3:e2:97:
                    53:39:97:25:c7:9d:7a:b8:ba:d2:d5:dc:d4:44:0d:
                    b6:57:c2:b7:0d:05:75:f3:ab:cb:2b:0a:bf:b4:6f:
                    09:0e:ff:de:cb:a2:1f:25:c0:45:c0:ec:11:b9:ef:
                    7e:01:b4:6f:ea:b6:16:35:ea:fa:77:c7:cb:b7:9c:
                    70:ec:4b:75:e1:45:34:6e:c9:13:be:f8:ca:c4:16:
                    3b:60:6c:0d:33:12:00:14:eb:90:14:03:07:46:38:
                    18:c0:21:a8:96:59:24:dc:c7:98:fa:ac:51:c8:73:
                    c3:a0:84:0b:37:0a:3c:cd:c1:82:15:bb:3f:08:30:
                    45:99
                Exponent: 65537 (0x10001)
        X509v3 extensions:
            X509v3 Basic Constraints: 
                CA:FALSE
            X509v3 Subject Key Identifier: 
                35:E6:3C:37:6F:38:12:2E:4D:F5:51:3D:56:B5:06:63:A1:80:76:D8
            X509v3 Authority Key Identifier: 
                keyid:5A:94:6D:A3:1B:A9:9D:80:98:24:22:1B:7F:20:2E:47:A2:BD:13:16
                DirName:/CN=team562-net
                serial:31:72:91:A6:E2:54:FF:65:ED:CB:6A:D2:ED:5A:BF:F9:07:F5:95:41

            X509v3 Extended Key Usage: 
                TLS Web Server Authentication
            X509v3 Key Usage: 
                Digital Signature, Key Encipherment
            X509v3 Subject Alternative Name: 
                DNS:team562-server
    Signature Algorithm: sha256WithRSAEncryption
         1b:36:f4:22:74:8d:99:43:24:fe:5f:c4:bb:62:73:f3:94:a6:
         c1:48:27:ec:bb:13:69:a1:9f:69:00:90:b1:1b:23:5c:f8:c6:
         4e:ea:4c:1f:d4:33:19:45:c2:a2:43:03:4e:32:af:34:af:f2:
         1a:cc:ff:f9:01:6f:1d:f8:18:a7:70:ab:25:5d:ed:bc:5e:7b:
         d8:a7:db:49:07:a9:db:ff:a2:08:a6:94:b8:93:6f:e0:a7:46:
         cd:12:7c:55:32:2e:e8:cc:a2:d4:91:10:54:d5:06:95:61:cd:
         31:4b:10:a1:04:bd:39:86:cf:75:e3:2a:b5:97:b3:29:d4:fb:
         45:b6:b7:a7:c3:90:35:1e:66:5e:22:45:38:0e:a9:16:cc:be:
         cc:3a:42:86:e6:55:dd:10:8a:d1:57:cd:49:ab:1f:50:f7:b8:
         65:92:88:d5:db:6b:59:69:86:ee:b2:89:5e:c1:b3:1d:7e:19:
         f5:14:b4:06:40:e4:eb:29:59:40:86:64:44:40:bc:c5:7a:86:
         b2:fd:7b:66:85:cf:4a:cc:38:8e:e0:46:ef:37:6c:7f:43:ff:
         c3:5d:93:d0:95:4f:8a:24:ca:16:ea:1b:32:42:1f:25:4f:33:
         f3:00:c0:09:b4:5c:2f:21:82:8b:6a:2c:c9:84:85:2c:1b:11:
         71:b8:45:96
-----BEGIN CERTIFICATE-----
MIIDdzCCAl+gAwIBAgIQCjVCwR6eaDfAtJGOY0rd7TANBgkqhkiG9w0BAQsFADAW
MRQwEgYDVQQDDAt0ZWFtNTYyLW5ldDAeFw0yMTA5MTMwMzU0MDJaFw0yNDA4Mjgw
MzU0MDJaMBkxFzAVBgNVBAMMDnRlYW01NjItc2VydmVyMIIBIjANBgkqhkiG9w0B
AQEFAAOCAQ8AMIIBCgKCAQEAyg+yTb0eqYPbk3awpBPpTXwYLBGscaZFv7yZ6AiF
gdYBl+I5ZlC6cAzCQsWhLFjgFlBxL8V+cKf0TspkaAJS3jG48gHq3QpY2QGP3LPR
TTqoNyQFkKhb5q1M1LpWk/RsDsSqnfmAt1/rfa7JbTLcZ9sqLzvgDhJ0NrBPTCGy
PNFL6zvj4pdTOZclx516uLrS1dzURA22V8K3DQV186vLKwq/tG8JDv/ey6IfJcBF
wOwRue9+AbRv6rYWNer6d8fLt5xw7Et14UU0bskTvvjKxBY7YGwNMxIAFOuQFAMH
RjgYwCGollkk3MeY+qxRyHPDoIQLNwo8zcGCFbs/CDBFmQIDAQABo4G9MIG6MAkG
A1UdEwQCMAAwHQYDVR0OBBYEFDXmPDdvOBIuTfVRPVa1BmOhgHbYMFEGA1UdIwRK
MEiAFFqUbaMbqZ2AmCQiG38gLkeivRMWoRqkGDAWMRQwEgYDVQQDDAt0ZWFtNTYy
LW5ldIIUMXKRpuJU/2Xty2rS7Vq/+Qf1lUEwEwYDVR0lBAwwCgYIKwYBBQUHAwEw
CwYDVR0PBAQDAgWgMBkGA1UdEQQSMBCCDnRlYW01NjItc2VydmVyMA0GCSqGSIb3
DQEBCwUAA4IBAQAbNvQidI2ZQyT+X8S7YnPzlKbBSCfsuxNpoZ9pAJCxGyNc+MZO
6kwf1DMZRcKiQwNOMq80r/IazP/5AW8d+BincKslXe28XnvYp9tJB6nb/6IIppS4
k2/gp0bNEnxVMi7ozKLUkRBU1QaVYc0xSxChBL05hs914yq1l7Mp1PtFtrenw5A1
HmZeIkU4DqkWzL7MOkKG5lXdEIrRV81Jqx9Q97hlkojV22tZaYbusolewbMdfhn1
FLQGQOTrKVlAhmREQLzFeoay/Xtmhc9KzDiO4EbvN2x/Q//DXZPQlU+KJMoW6hsy
Qh8lTzPzAMAJtFwvIYKLaizJhIUsGxFxuEWW
-----END CERTIFICATE-----
