Certificate:
    Data:
        Version: 3 (0x2)
        Serial Number:
            a2:a3:28:41:bb:fd:b6:84:2f:bf:f0:b0:c0:69:b0:99
        Signature Algorithm: sha256WithRSAEncryption
        Issuer: CN=team530-net
        Validity
            Not Before: Sep 13 03:35:14 2021 GMT
            Not After : Aug 28 03:35:14 2024 GMT
        Subject: CN=team530-client
        Subject Public Key Info:
            Public Key Algorithm: rsaEncryption
                RSA Public-Key: (2048 bit)
                Modulus:
                    00:cb:fa:f6:b5:af:34:17:74:f8:84:54:be:ec:b7:
                    1c:81:2b:fe:8b:83:ab:c9:e9:a4:86:79:d0:98:db:
                    b0:48:d4:ed:83:a4:f5:7d:39:f2:02:08:c6:2e:42:
                    a5:95:32:dd:5e:77:68:07:f2:43:e5:4d:2c:53:b9:
                    85:de:8a:ab:10:83:90:74:b0:0e:fd:02:bf:df:f2:
                    a3:55:ee:a2:0d:91:fd:a8:f6:2e:86:4a:30:7b:cf:
                    d2:2b:bf:33:c1:b4:2c:cb:25:f0:08:e1:76:99:1d:
                    11:15:06:9e:e3:7a:44:4a:b2:21:75:30:77:57:77:
                    25:f4:99:5c:d9:50:72:cc:c1:12:48:c0:80:73:e8:
                    be:52:c2:e4:1a:55:13:f5:d8:74:2c:46:a4:ed:e3:
                    4b:6c:3b:ef:fb:58:81:ac:23:98:54:e4:70:aa:d3:
                    ed:45:21:b5:60:45:6d:d9:cf:7e:2e:17:6f:00:bf:
                    cc:02:87:00:da:3e:b8:e4:ab:7f:36:0e:a3:f2:e2:
                    d9:35:4f:bb:0a:ae:99:ab:e3:4c:96:d1:36:ff:73:
                    28:80:bb:e1:f3:2e:a7:b2:b9:6d:2d:ab:ee:45:f4:
                    97:94:0a:f0:89:48:2f:c4:2f:e3:ee:b1:b5:b4:ac:
                    83:f1:76:1d:cc:f4:59:67:80:4e:15:a8:70:d9:6f:
                    5a:19
                Exponent: 65537 (0x10001)
        X509v3 extensions:
            X509v3 Basic Constraints: 
                CA:FALSE
            X509v3 Subject Key Identifier: 
                C6:F4:96:03:D8:D5:11:AA:02:2A:21:1D:94:32:B6:2D:48:A9:1E:52
            X509v3 Authority Key Identifier: 
                keyid:54:4D:CB:0F:D3:76:F6:14:D7:96:92:25:83:1F:23:BF:5C:29:A1:2E
                DirName:/CN=team530-net
                serial:35:2C:04:BA:36:E8:C1:82:EA:EA:E8:59:5D:88:F2:CA:EC:6A:3E:8A

            X509v3 Extended Key Usage: 
                TLS Web Client Authentication
            X509v3 Key Usage: 
                Digital Signature
    Signature Algorithm: sha256WithRSAEncryption
         82:5a:4f:36:56:c0:c4:8e:80:e7:15:00:4a:76:bb:a2:33:83:
         7a:b5:47:52:ca:a0:6b:9a:70:75:99:9b:c6:04:e3:91:92:cd:
         eb:77:63:25:c7:22:09:cb:da:3b:7e:e5:84:cf:bb:4e:e6:cc:
         58:09:82:e8:ba:13:36:49:7d:bd:26:6b:57:17:45:90:11:5b:
         a1:b1:93:d7:9d:3f:39:6f:2b:a5:d2:28:15:ec:61:40:6b:31:
         bf:38:04:19:ef:f4:30:e5:b5:0e:c3:9e:1b:c2:a8:a7:1c:2a:
         f7:66:e6:7a:a7:c1:d2:26:69:96:53:88:05:46:c6:2c:09:11:
         1d:19:b3:f8:cd:59:c3:84:70:c6:94:55:26:93:d2:48:3e:96:
         87:29:b3:1b:f1:e4:1b:2c:c8:c6:2f:56:7f:17:e4:c7:a8:01:
         e6:59:80:68:bf:31:66:17:3a:f7:23:54:26:2e:d2:92:d1:a3:
         bc:d7:06:8f:d5:34:23:66:f6:c7:2e:08:f6:cb:a3:36:0b:e5:
         99:af:c0:76:62:65:74:61:55:c1:c4:43:38:db:56:04:92:58:
         d7:67:ed:21:2c:9f:d6:7e:6d:af:a2:fd:d1:e4:15:7e:11:40:
         2c:71:8a:44:70:ed:2a:9a:e5:4d:42:24:47:1b:1f:f3:6b:f6:
         39:94:d7:d3
-----BEGIN CERTIFICATE-----
MIIDXTCCAkWgAwIBAgIRAKKjKEG7/baEL7/wsMBpsJkwDQYJKoZIhvcNAQELBQAw
FjEUMBIGA1UEAwwLdGVhbTUzMC1uZXQwHhcNMjEwOTEzMDMzNTE0WhcNMjQwODI4
MDMzNTE0WjAZMRcwFQYDVQQDDA50ZWFtNTMwLWNsaWVudDCCASIwDQYJKoZIhvcN
AQEBBQADggEPADCCAQoCggEBAMv69rWvNBd0+IRUvuy3HIEr/ouDq8nppIZ50Jjb
sEjU7YOk9X058gIIxi5CpZUy3V53aAfyQ+VNLFO5hd6KqxCDkHSwDv0Cv9/yo1Xu
og2R/aj2LoZKMHvP0iu/M8G0LMsl8AjhdpkdERUGnuN6REqyIXUwd1d3JfSZXNlQ
cszBEkjAgHPovlLC5BpVE/XYdCxGpO3jS2w77/tYgawjmFTkcKrT7UUhtWBFbdnP
fi4XbwC/zAKHANo+uOSrfzYOo/Li2TVPuwqumavjTJbRNv9zKIC74fMup7K5bS2r
7kX0l5QK8IlIL8Qv4+6xtbSsg/F2Hcz0WWeAThWocNlvWhkCAwEAAaOBojCBnzAJ
BgNVHRMEAjAAMB0GA1UdDgQWBBTG9JYD2NURqgIqIR2UMrYtSKkeUjBRBgNVHSME
SjBIgBRUTcsP03b2FNeWkiWDHyO/XCmhLqEapBgwFjEUMBIGA1UEAwwLdGVhbTUz
MC1uZXSCFDUsBLo26MGC6uroWV2I8srsaj6KMBMGA1UdJQQMMAoGCCsGAQUFBwMC
MAsGA1UdDwQEAwIHgDANBgkqhkiG9w0BAQsFAAOCAQEAglpPNlbAxI6A5xUASna7
ojODerVHUsqga5pwdZmbxgTjkZLN63djJcciCcvaO37lhM+7TubMWAmC6LoTNkl9
vSZrVxdFkBFbobGT150/OW8rpdIoFexhQGsxvzgEGe/0MOW1DsOeG8Kopxwq92bm
eqfB0iZpllOIBUbGLAkRHRmz+M1Zw4RwxpRVJpPSSD6WhymzG/HkGyzIxi9Wfxfk
x6gB5lmAaL8xZhc69yNUJi7SktGjvNcGj9U0I2b2xy4I9sujNgvlma/AdmJldGFV
wcRDONtWBJJY12ftISyf1n5tr6L90eQVfhFALHGKRHDtKprlTUIkRxsf82v2OZTX
0w==
-----END CERTIFICATE-----
