Certificate:
    Data:
        Version: 3 (0x2)
        Serial Number:
            95:80:7c:21:02:a4:5a:40:a6:bc:10:02:e5:75:3c:d6
        Signature Algorithm: sha256WithRSAEncryption
        Issuer: CN=team63-net
        Validity
            Not Before: Sep 12 23:12:49 2021 GMT
            Not After : Aug 27 23:12:49 2024 GMT
        Subject: CN=team63-client
        Subject Public Key Info:
            Public Key Algorithm: rsaEncryption
                RSA Public-Key: (2048 bit)
                Modulus:
                    00:cb:b4:d4:c2:51:db:e2:cb:71:7c:d9:d2:16:63:
                    aa:f7:11:c5:63:fc:0c:6f:49:79:f4:d1:9e:3b:00:
                    56:a2:8c:b2:fc:73:88:f3:4e:b9:f9:15:61:5f:0f:
                    03:76:3b:e6:0d:62:ae:8a:80:a9:30:eb:04:90:02:
                    1d:83:c6:59:c6:fd:be:3a:a6:b1:aa:cb:92:65:8b:
                    90:48:12:64:43:38:28:a2:a7:d1:5a:e6:9e:01:ab:
                    d4:18:ee:65:46:f6:b7:a7:1b:fa:b3:6e:3d:e9:4b:
                    ff:9a:76:8b:77:d1:68:8b:f7:b9:95:e3:88:fa:6f:
                    b0:40:85:19:c9:04:3c:be:db:96:5c:66:b1:bc:f2:
                    0a:ca:78:b1:12:3f:30:7e:a7:2d:45:72:8c:7a:f0:
                    77:19:35:d2:f1:9c:bf:48:0a:35:d6:6d:a5:46:c2:
                    3e:93:da:ac:17:e4:e4:ac:42:a5:b4:09:be:8e:af:
                    b6:07:a1:1a:b7:16:89:d6:a2:64:07:2b:69:59:05:
                    cf:ae:55:5f:ba:3c:6b:9a:2b:8c:90:43:7c:a4:25:
                    c4:97:f4:7d:a2:ca:28:4b:bc:ca:cf:f7:8e:ca:74:
                    3d:7c:d2:a4:b1:96:2e:1d:fc:4b:05:fc:33:9f:46:
                    d2:2e:42:d5:50:e3:0c:80:f0:0b:58:20:ca:f6:de:
                    a4:c5
                Exponent: 65537 (0x10001)
        X509v3 extensions:
            X509v3 Basic Constraints: 
                CA:FALSE
            X509v3 Subject Key Identifier: 
                FA:66:C9:1C:2B:12:B7:60:2F:E2:D4:4F:B3:F1:10:17:B6:89:82:F7
            X509v3 Authority Key Identifier: 
                keyid:B5:24:34:32:FA:9D:1C:CB:F7:50:C6:F5:DA:64:4F:D2:7C:F6:07:79
                DirName:/CN=team63-net
                serial:51:B3:3A:D1:70:82:AA:90:45:54:C2:5E:97:9B:97:FC:8E:DC:2C:2E

            X509v3 Extended Key Usage: 
                TLS Web Client Authentication
            X509v3 Key Usage: 
                Digital Signature
    Signature Algorithm: sha256WithRSAEncryption
         b0:bc:cc:50:a8:e4:95:61:d1:05:f7:73:9c:df:3d:8b:2a:f3:
         4e:48:8e:af:b7:2e:60:67:c4:0c:4b:6d:87:bd:8c:5d:59:fc:
         b9:f7:e9:4a:01:9f:2d:2b:1a:45:27:0d:ab:9b:6b:c6:6f:f1:
         c6:d7:78:61:4a:2e:4d:f6:1e:ce:b9:c3:c3:c1:b2:b9:5e:ea:
         d2:17:18:41:42:7b:bd:f3:f7:75:57:88:bf:54:e1:98:14:4c:
         7b:26:32:da:1b:8f:58:f4:8e:73:85:b2:75:a7:e6:ff:ac:ea:
         67:39:8c:23:0d:2b:79:4b:40:e0:c3:22:d9:71:19:77:00:1b:
         a1:a1:06:d6:b8:84:17:de:7a:42:8e:af:f6:46:fb:ca:e9:ef:
         e2:22:d2:95:6e:35:85:5a:03:25:47:76:95:3c:a3:bb:19:19:
         8b:d7:93:01:0f:6c:69:f0:13:ea:2f:42:e3:31:b0:35:eb:e9:
         ce:b6:4b:29:8f:9f:2f:b0:2c:b7:4b:c8:ed:bf:16:d3:8b:2f:
         87:0d:b4:09:ec:73:74:e7:fc:97:47:f4:a7:33:21:8d:cb:d6:
         89:cb:ef:7f:44:6a:7c:04:1c:62:ad:4d:70:54:d7:d5:09:e8:
         63:a1:bd:0b:41:43:f8:73:7e:91:10:b3:d4:d8:83:cf:82:b0:
         8e:06:b1:54
-----BEGIN CERTIFICATE-----
MIIDWjCCAkKgAwIBAgIRAJWAfCECpFpAprwQAuV1PNYwDQYJKoZIhvcNAQELBQAw
FTETMBEGA1UEAwwKdGVhbTYzLW5ldDAeFw0yMTA5MTIyMzEyNDlaFw0yNDA4Mjcy
MzEyNDlaMBgxFjAUBgNVBAMMDXRlYW02My1jbGllbnQwggEiMA0GCSqGSIb3DQEB
AQUAA4IBDwAwggEKAoIBAQDLtNTCUdviy3F82dIWY6r3EcVj/AxvSXn00Z47AFai
jLL8c4jzTrn5FWFfDwN2O+YNYq6KgKkw6wSQAh2DxlnG/b46prGqy5Jli5BIEmRD
OCiip9Fa5p4Bq9QY7mVG9renG/qzbj3pS/+adot30WiL97mV44j6b7BAhRnJBDy+
25ZcZrG88grKeLESPzB+py1Fcox68HcZNdLxnL9ICjXWbaVGwj6T2qwX5OSsQqW0
Cb6Or7YHoRq3FonWomQHK2lZBc+uVV+6PGuaK4yQQ3ykJcSX9H2iyihLvMrP947K
dD180qSxli4d/EsF/DOfRtIuQtVQ4wyA8AtYIMr23qTFAgMBAAGjgaEwgZ4wCQYD
VR0TBAIwADAdBgNVHQ4EFgQU+mbJHCsSt2Av4tRPs/EQF7aJgvcwUAYDVR0jBEkw
R4AUtSQ0MvqdHMv3UMb12mRP0nz2B3mhGaQXMBUxEzARBgNVBAMMCnRlYW02My1u
ZXSCFFGzOtFwgqqQRVTCXpebl/yO3CwuMBMGA1UdJQQMMAoGCCsGAQUFBwMCMAsG
A1UdDwQEAwIHgDANBgkqhkiG9w0BAQsFAAOCAQEAsLzMUKjklWHRBfdznN89iyrz
TkiOr7cuYGfEDEtth72MXVn8uffpSgGfLSsaRScNq5trxm/xxtd4YUouTfYezrnD
w8GyuV7q0hcYQUJ7vfP3dVeIv1ThmBRMeyYy2huPWPSOc4Wydafm/6zqZzmMIw0r
eUtA4MMi2XEZdwAboaEG1riEF956Qo6v9kb7yunv4iLSlW41hVoDJUd2lTyjuxkZ
i9eTAQ9safAT6i9C4zGwNevpzrZLKY+fL7Ast0vI7b8W04svhw20CexzdOf8l0f0
pzMhjcvWicvvf0RqfAQcYq1NcFTX1QnoY6G9C0FD+HN+kRCz1NiDz4KwjgaxVA==
-----END CERTIFICATE-----
