Certificate:
    Data:
        Version: 3 (0x2)
        Serial Number:
            83:8d:4b:0e:1f:b7:e5:19:dc:b3:64:d6:9b:86:ef:f0
        Signature Algorithm: sha256WithRSAEncryption
        Issuer: CN=team746-net
        Validity
            Not Before: Sep 13 05:09:46 2021 GMT
            Not After : Aug 28 05:09:46 2024 GMT
        Subject: CN=team746-client
        Subject Public Key Info:
            Public Key Algorithm: rsaEncryption
                RSA Public-Key: (2048 bit)
                Modulus:
                    00:ba:50:2c:3f:8c:45:46:db:c2:cc:34:37:d3:6c:
                    23:f8:c7:76:a3:48:50:9b:bc:29:e4:60:4b:79:15:
                    d0:ad:92:2e:9b:52:07:98:69:cb:be:d8:f2:5d:d5:
                    ab:74:f2:a3:08:78:74:f1:70:6b:6e:0b:53:7e:07:
                    86:71:a5:17:df:d2:24:b4:e0:0c:9e:a5:03:1f:da:
                    0f:0a:66:a3:76:1d:e3:55:0b:0a:e9:0e:b3:7b:74:
                    88:20:54:c8:2d:e7:c8:96:e1:2c:28:e4:2c:74:f3:
                    c6:d7:3d:79:ea:95:34:54:e3:6b:f7:e1:8c:da:31:
                    ef:88:4b:b5:38:c5:ab:db:e2:30:8f:ee:b3:e0:8e:
                    ff:16:c2:32:ca:3f:a7:b8:a1:31:cf:3c:5c:98:92:
                    bc:bc:c3:78:6e:cb:57:d7:6b:cb:34:53:3a:28:9d:
                    e9:de:5e:fa:a4:ee:f5:69:91:36:b1:a7:24:f6:cf:
                    cb:ac:09:f2:96:bc:92:a8:e0:ce:41:22:5e:05:69:
                    dd:0b:34:cc:e2:12:ad:45:96:0c:b8:bc:38:8d:75:
                    2c:d9:88:66:47:ba:eb:a3:60:9f:cf:f1:94:98:3c:
                    da:c8:cc:7b:c6:c0:43:48:01:11:39:3c:d0:f3:29:
                    9c:9a:fe:c5:a2:e8:c0:d3:65:36:80:d0:89:3e:59:
                    29:79
                Exponent: 65537 (0x10001)
        X509v3 extensions:
            X509v3 Basic Constraints: 
                CA:FALSE
            X509v3 Subject Key Identifier: 
                A3:E5:C5:4A:B4:DD:EE:22:31:85:52:C3:48:B0:E5:A0:14:AC:BD:DB
            X509v3 Authority Key Identifier: 
                keyid:AC:7F:65:15:80:1C:05:39:AF:43:15:09:6F:CF:19:40:AF:31:47:47
                DirName:/CN=team746-net
                serial:47:E2:D0:23:50:3D:CD:1B:E4:0D:88:52:82:93:DD:D3:D6:5D:49:3A

            X509v3 Extended Key Usage: 
                TLS Web Client Authentication
            X509v3 Key Usage: 
                Digital Signature
    Signature Algorithm: sha256WithRSAEncryption
         6a:d2:8c:1a:cb:51:8d:cf:27:26:fb:6d:30:85:37:6d:8e:6f:
         9a:8a:4d:9d:9e:b8:fd:c3:b3:c3:12:46:10:b6:0a:21:d3:d7:
         e7:6e:f2:66:e7:61:cc:41:b9:8e:41:59:a8:13:bd:98:28:cb:
         7a:99:03:98:16:22:66:0d:b5:20:be:eb:d2:68:45:e9:c7:0e:
         e3:e5:fd:ae:d9:76:bf:9d:55:a1:e0:88:dc:92:24:cd:93:50:
         4d:6e:76:25:5b:ad:0e:92:ae:5c:bc:7b:1e:c7:9d:ef:06:5d:
         4e:cd:8d:12:6e:b7:02:60:9e:ee:4a:b3:aa:14:4b:60:ca:b5:
         07:82:1f:d8:e1:b1:d2:57:42:c0:ca:36:64:ed:69:74:54:38:
         6f:7b:7c:7a:88:64:b8:9d:15:35:84:b1:c6:79:f3:68:74:93:
         05:d7:ed:66:82:3b:fd:fe:bf:e7:30:e6:02:8a:3b:8f:2b:ba:
         04:81:80:48:10:a9:ad:e1:d7:39:ed:89:e7:5b:de:db:bd:45:
         af:9c:37:ca:ba:67:da:eb:d7:9e:4c:d7:a6:f3:b6:79:fd:45:
         98:e3:7b:34:a0:91:d5:01:d7:0f:6f:35:c0:17:98:e5:ae:97:
         22:37:13:3d:aa:73:16:29:31:6c:0b:c7:c0:49:2c:1a:c6:46:
         ed:ce:43:2e
-----BEGIN CERTIFICATE-----
MIIDXTCCAkWgAwIBAgIRAIONSw4ft+UZ3LNk1puG7/AwDQYJKoZIhvcNAQELBQAw
FjEUMBIGA1UEAwwLdGVhbTc0Ni1uZXQwHhcNMjEwOTEzMDUwOTQ2WhcNMjQwODI4
MDUwOTQ2WjAZMRcwFQYDVQQDDA50ZWFtNzQ2LWNsaWVudDCCASIwDQYJKoZIhvcN
AQEBBQADggEPADCCAQoCggEBALpQLD+MRUbbwsw0N9NsI/jHdqNIUJu8KeRgS3kV
0K2SLptSB5hpy77Y8l3Vq3Tyowh4dPFwa24LU34HhnGlF9/SJLTgDJ6lAx/aDwpm
o3Yd41ULCukOs3t0iCBUyC3nyJbhLCjkLHTzxtc9eeqVNFTja/fhjNox74hLtTjF
q9viMI/us+CO/xbCMso/p7ihMc88XJiSvLzDeG7LV9dryzRTOiid6d5e+qTu9WmR
NrGnJPbPy6wJ8pa8kqjgzkEiXgVp3Qs0zOISrUWWDLi8OI11LNmIZke666Ngn8/x
lJg82sjMe8bAQ0gBETk80PMpnJr+xaLowNNlNoDQiT5ZKXkCAwEAAaOBojCBnzAJ
BgNVHRMEAjAAMB0GA1UdDgQWBBSj5cVKtN3uIjGFUsNIsOWgFKy92zBRBgNVHSME
SjBIgBSsf2UVgBwFOa9DFQlvzxlArzFHR6EapBgwFjEUMBIGA1UEAwwLdGVhbTc0
Ni1uZXSCFEfi0CNQPc0b5A2IUoKT3dPWXUk6MBMGA1UdJQQMMAoGCCsGAQUFBwMC
MAsGA1UdDwQEAwIHgDANBgkqhkiG9w0BAQsFAAOCAQEAatKMGstRjc8nJvttMIU3
bY5vmopNnZ64/cOzwxJGELYKIdPX527yZudhzEG5jkFZqBO9mCjLepkDmBYiZg21
IL7r0mhF6ccO4+X9rtl2v51VoeCI3JIkzZNQTW52JVutDpKuXLx7Hsed7wZdTs2N
Em63AmCe7kqzqhRLYMq1B4If2OGx0ldCwMo2ZO1pdFQ4b3t8eohkuJ0VNYSxxnnz
aHSTBdftZoI7/f6/5zDmAoo7jyu6BIGASBCpreHXOe2J51ve271Fr5w3yrpn2uvX
nkzXpvO2ef1FmON7NKCR1QHXD281wBeY5a6XIjcTPapzFikxbAvHwEksGsZG7c5D
Lg==
-----END CERTIFICATE-----
