Certificate:
    Data:
        Version: 3 (0x2)
        Serial Number:
            66:70:a0:03:5d:31:e3:be:ab:61:db:bc:b0:27:ea:6c
        Signature Algorithm: sha256WithRSAEncryption
        Issuer: CN=team620-net
        Validity
            Not Before: Sep 13 04:34:19 2021 GMT
            Not After : Aug 28 04:34:19 2024 GMT
        Subject: CN=team620-server
        Subject Public Key Info:
            Public Key Algorithm: rsaEncryption
                RSA Public-Key: (2048 bit)
                Modulus:
                    00:ac:54:e8:9e:44:94:a6:a2:c4:aa:e2:ae:da:0b:
                    87:0a:51:9a:86:b4:a0:19:d6:ed:3c:62:c6:1d:cf:
                    0b:65:e0:e4:2a:d5:2f:07:3a:89:90:9b:8a:e1:74:
                    7d:5b:45:1b:5a:40:66:d2:f7:67:cf:05:19:b8:c4:
                    6f:ed:75:f9:bb:7e:38:57:f0:04:db:21:37:37:ec:
                    12:e9:92:13:69:3b:93:d4:3e:ae:1e:ba:6c:5f:a7:
                    ad:7e:0e:74:2a:c8:17:e3:fe:e0:ac:66:32:f9:41:
                    be:9e:59:94:ee:71:84:b5:99:2a:36:c9:31:7f:c8:
                    1f:ca:6f:4b:8d:f8:23:cd:6e:f1:90:8f:09:a9:35:
                    f1:f8:cf:3b:13:90:e3:49:27:ad:12:d6:7d:fa:59:
                    39:4b:cf:13:df:c0:78:90:06:b1:42:c4:2d:fc:48:
                    f0:04:d6:04:4c:5a:a3:6c:4b:67:1f:d1:e3:63:1e:
                    c2:fb:cc:ef:95:6d:40:9d:5e:66:d3:5e:a1:84:6a:
                    b4:4b:cb:3b:92:3b:20:aa:e5:5c:54:6a:4b:b7:1e:
                    8b:25:a4:ae:1b:94:04:81:18:af:89:6e:d6:25:84:
                    fb:2a:26:08:9b:2d:b7:82:ef:73:32:41:5c:53:a7:
                    4a:50:ed:cc:3a:65:fd:c5:cb:88:68:83:97:d9:82:
                    c4:9d
                Exponent: 65537 (0x10001)
        X509v3 extensions:
            X509v3 Basic Constraints: 
                CA:FALSE
            X509v3 Subject Key Identifier: 
                AB:CA:EF:46:7F:9C:25:2C:7B:D8:61:A9:15:86:06:61:43:D6:FB:57
            X509v3 Authority Key Identifier: 
                keyid:0D:C7:00:C4:FA:E8:5C:00:40:66:61:5E:DD:FB:56:77:A1:BF:9C:03
                DirName:/CN=team620-net
                serial:7F:F8:F1:98:58:9D:1E:54:3E:8D:F2:D9:97:D9:BB:C8:92:93:F8:98

            X509v3 Extended Key Usage: 
                TLS Web Server Authentication
            X509v3 Key Usage: 
                Digital Signature, Key Encipherment
            X509v3 Subject Alternative Name: 
                DNS:team620-server
    Signature Algorithm: sha256WithRSAEncryption
         13:78:57:fc:70:f7:96:4e:0e:db:c2:ce:04:2b:9c:12:69:f8:
         f0:4a:d0:b7:31:fb:8c:e9:95:64:8e:20:7d:c0:9d:6e:2f:5a:
         3f:96:d7:b4:72:db:9b:1d:a3:58:5a:71:69:66:78:37:a9:63:
         e7:0f:92:a8:b1:65:7e:99:8d:1b:39:c2:0f:35:1f:6a:80:db:
         a9:37:35:58:fa:bb:c4:a2:94:12:ae:db:1f:e1:f4:df:b4:d5:
         bd:8e:8a:22:8e:72:07:a5:17:98:71:da:30:71:cd:e7:b4:b6:
         bc:b7:6e:1b:67:43:92:f6:29:a2:73:69:0c:e5:be:9c:34:c7:
         1e:2f:03:2f:da:80:ce:da:5e:0b:13:c6:32:bd:92:a4:2b:86:
         7f:47:45:9a:fb:60:e3:ba:8f:38:f7:96:e5:fb:c2:74:e4:0b:
         2d:53:6a:ba:05:3c:b9:54:ab:32:1b:08:b5:08:3d:96:7f:5b:
         15:16:6e:70:95:4b:dd:fb:e5:36:d1:63:a5:7e:58:3b:95:ff:
         dd:bc:6b:95:84:e1:e3:3c:3a:b0:74:3a:e9:e8:fe:ba:95:33:
         e4:90:9f:6a:f6:97:3f:82:fb:f5:32:03:53:16:c1:41:dd:45:
         e1:17:c4:29:ab:c4:ca:2e:24:0f:ac:0d:9a:7e:bd:df:22:70:
         d4:f4:5d:7f
-----BEGIN CERTIFICATE-----
MIIDdzCCAl+gAwIBAgIQZnCgA10x476rYdu8sCfqbDANBgkqhkiG9w0BAQsFADAW
MRQwEgYDVQQDDAt0ZWFtNjIwLW5ldDAeFw0yMTA5MTMwNDM0MTlaFw0yNDA4Mjgw
NDM0MTlaMBkxFzAVBgNVBAMMDnRlYW02MjAtc2VydmVyMIIBIjANBgkqhkiG9w0B
AQEFAAOCAQ8AMIIBCgKCAQEArFTonkSUpqLEquKu2guHClGahrSgGdbtPGLGHc8L
ZeDkKtUvBzqJkJuK4XR9W0UbWkBm0vdnzwUZuMRv7XX5u344V/AE2yE3N+wS6ZIT
aTuT1D6uHrpsX6etfg50KsgX4/7grGYy+UG+nlmU7nGEtZkqNskxf8gfym9Ljfgj
zW7xkI8JqTXx+M87E5DjSSetEtZ9+lk5S88T38B4kAaxQsQt/EjwBNYETFqjbEtn
H9HjYx7C+8zvlW1AnV5m016hhGq0S8s7kjsgquVcVGpLtx6LJaSuG5QEgRiviW7W
JYT7KiYImy23gu9zMkFcU6dKUO3MOmX9xcuIaIOX2YLEnQIDAQABo4G9MIG6MAkG
A1UdEwQCMAAwHQYDVR0OBBYEFKvK70Z/nCUse9hhqRWGBmFD1vtXMFEGA1UdIwRK
MEiAFA3HAMT66FwAQGZhXt37Vnehv5wDoRqkGDAWMRQwEgYDVQQDDAt0ZWFtNjIw
LW5ldIIUf/jxmFidHlQ+jfLZl9m7yJKT+JgwEwYDVR0lBAwwCgYIKwYBBQUHAwEw
CwYDVR0PBAQDAgWgMBkGA1UdEQQSMBCCDnRlYW02MjAtc2VydmVyMA0GCSqGSIb3
DQEBCwUAA4IBAQATeFf8cPeWTg7bws4EK5wSafjwStC3MfuM6ZVkjiB9wJ1uL1o/
lte0ctubHaNYWnFpZng3qWPnD5KosWV+mY0bOcIPNR9qgNupNzVY+rvEopQSrtsf
4fTftNW9jooijnIHpReYcdowcc3ntLa8t24bZ0OS9imic2kM5b6cNMceLwMv2oDO
2l4LE8YyvZKkK4Z/R0Wa+2Djuo8495bl+8J05AstU2q6BTy5VKsyGwi1CD2Wf1sV
Fm5wlUvd++U20WOlflg7lf/dvGuVhOHjPDqwdDrp6P66lTPkkJ9q9pc/gvv1MgNT
FsFB3UXhF8Qpq8TKLiQPrA2afr3fInDU9F1/
-----END CERTIFICATE-----
