Certificate:
    Data:
        Version: 3 (0x2)
        Serial Number:
            6c:cb:58:bb:43:10:1d:fb:dd:27:c7:f8:e8:a5:c5:aa
        Signature Algorithm: sha256WithRSAEncryption
        Issuer: CN=team678-net
        Validity
            Not Before: Sep 13 05:07:52 2021 GMT
            Not After : Aug 28 05:07:52 2024 GMT
        Subject: CN=team678-client
        Subject Public Key Info:
            Public Key Algorithm: rsaEncryption
                RSA Public-Key: (2048 bit)
                Modulus:
                    00:ce:47:69:e4:dd:df:c0:9a:fc:90:e9:6e:89:82:
                    52:a2:7b:35:8f:d2:20:d8:9a:c7:9c:74:8b:d8:40:
                    47:f8:35:13:bf:4e:0d:c7:31:7c:fe:d3:25:93:61:
                    e4:f1:ee:34:9a:68:13:b6:c3:d7:49:02:82:6c:9c:
                    87:98:3d:d1:1d:58:d2:c3:d3:78:51:28:14:60:f5:
                    1a:7d:06:8f:29:4c:70:09:8d:a8:3c:6b:dc:ec:04:
                    49:0f:6d:2f:b5:62:61:58:aa:21:d1:a3:aa:91:2a:
                    21:d5:8b:bf:21:81:71:c9:7b:ca:97:4b:00:b5:ef:
                    9d:ae:c4:72:69:6e:cc:f7:12:c1:bd:7d:5f:af:ea:
                    43:fe:03:d0:ef:89:54:ec:b9:e4:15:c1:a4:37:0f:
                    14:d3:2c:72:2a:73:78:9b:88:2c:fe:d5:e3:a5:76:
                    ff:6a:e5:44:bf:38:14:3b:04:da:7d:72:60:dd:b4:
                    3d:9b:8e:10:2c:cc:bf:46:73:15:7a:b9:f2:c4:a7:
                    83:ba:eb:70:08:52:3f:ab:98:ac:dc:1b:20:75:6e:
                    0f:d1:4c:b1:50:5e:f9:15:7d:37:9e:11:c4:84:5c:
                    2f:c7:df:51:55:85:fc:d0:6c:6e:76:3d:73:30:4e:
                    0b:73:7c:e4:c8:f4:36:c4:b9:07:0c:d7:5d:64:06:
                    cd:ad
                Exponent: 65537 (0x10001)
        X509v3 extensions:
            X509v3 Basic Constraints: 
                CA:FALSE
            X509v3 Subject Key Identifier: 
                FB:2B:48:46:2D:32:6C:04:7F:4E:66:FE:A4:61:B5:B3:6C:EC:10:A1
            X509v3 Authority Key Identifier: 
                keyid:DC:6C:20:3E:A2:CD:67:74:29:34:DD:4C:52:A6:B1:63:E9:4A:0D:5A
                DirName:/CN=team678-net
                serial:7F:F8:26:01:4D:23:9F:60:C9:22:00:0E:88:C4:C1:5A:D8:34:50:A0

            X509v3 Extended Key Usage: 
                TLS Web Client Authentication
            X509v3 Key Usage: 
                Digital Signature
    Signature Algorithm: sha256WithRSAEncryption
         26:c2:f9:32:2f:75:af:bc:6b:22:ea:6a:a7:09:3d:27:7c:90:
         a9:42:a8:4f:aa:0b:aa:21:8d:57:f4:99:d0:65:d4:8e:e8:0f:
         8f:16:24:08:24:a0:1f:e1:22:0a:38:62:7c:90:9e:eb:a7:54:
         28:26:42:b1:70:42:62:10:00:0f:dd:b8:41:e2:55:ad:fb:8b:
         8b:2d:6c:0a:e8:5e:ef:35:ae:da:d1:25:b1:e3:3b:96:f1:93:
         52:f1:75:37:b4:16:13:1b:e7:f7:64:a2:70:7b:31:b2:02:84:
         6a:c8:cc:09:60:e4:5c:db:f4:5a:51:0c:e8:0c:7a:16:1d:5b:
         b5:18:2e:45:48:8c:c9:15:a7:a0:a5:4f:0d:65:ce:d1:9f:26:
         01:74:b1:eb:7f:4a:ef:93:5f:16:bc:68:b6:25:a5:68:59:7b:
         76:f8:06:1b:80:f2:75:28:66:97:d7:63:c1:4e:a5:9e:74:53:
         08:ad:cd:39:b4:48:8f:f6:a5:00:a2:ac:62:29:b8:bc:8e:e1:
         da:d0:3e:52:6e:43:31:9e:b9:73:bc:08:bd:3c:17:f0:f4:3b:
         94:5a:0f:06:31:1a:53:c5:55:27:75:eb:e8:b8:a9:f6:f9:0a:
         2f:6b:a1:34:f6:38:d4:83:a9:c6:60:39:f3:4b:4c:2b:ce:cb:
         f6:43:95:73
-----BEGIN CERTIFICATE-----
MIIDXDCCAkSgAwIBAgIQbMtYu0MQHfvdJ8f46KXFqjANBgkqhkiG9w0BAQsFADAW
MRQwEgYDVQQDDAt0ZWFtNjc4LW5ldDAeFw0yMTA5MTMwNTA3NTJaFw0yNDA4Mjgw
NTA3NTJaMBkxFzAVBgNVBAMMDnRlYW02NzgtY2xpZW50MIIBIjANBgkqhkiG9w0B
AQEFAAOCAQ8AMIIBCgKCAQEAzkdp5N3fwJr8kOluiYJSons1j9Ig2JrHnHSL2EBH
+DUTv04NxzF8/tMlk2Hk8e40mmgTtsPXSQKCbJyHmD3RHVjSw9N4USgUYPUafQaP
KUxwCY2oPGvc7ARJD20vtWJhWKoh0aOqkSoh1Yu/IYFxyXvKl0sAte+drsRyaW7M
9xLBvX1fr+pD/gPQ74lU7LnkFcGkNw8U0yxyKnN4m4gs/tXjpXb/auVEvzgUOwTa
fXJg3bQ9m44QLMy/RnMVernyxKeDuutwCFI/q5is3BsgdW4P0UyxUF75FX03nhHE
hFwvx99RVYX80Gxudj1zME4Lc3zkyPQ2xLkHDNddZAbNrQIDAQABo4GiMIGfMAkG
A1UdEwQCMAAwHQYDVR0OBBYEFPsrSEYtMmwEf05m/qRhtbNs7BChMFEGA1UdIwRK
MEiAFNxsID6izWd0KTTdTFKmsWPpSg1aoRqkGDAWMRQwEgYDVQQDDAt0ZWFtNjc4
LW5ldIIUf/gmAU0jn2DJIgAOiMTBWtg0UKAwEwYDVR0lBAwwCgYIKwYBBQUHAwIw
CwYDVR0PBAQDAgeAMA0GCSqGSIb3DQEBCwUAA4IBAQAmwvkyL3WvvGsi6mqnCT0n
fJCpQqhPqguqIY1X9JnQZdSO6A+PFiQIJKAf4SIKOGJ8kJ7rp1QoJkKxcEJiEAAP
3bhB4lWt+4uLLWwK6F7vNa7a0SWx4zuW8ZNS8XU3tBYTG+f3ZKJwezGyAoRqyMwJ
YORc2/RaUQzoDHoWHVu1GC5FSIzJFaegpU8NZc7RnyYBdLHrf0rvk18WvGi2JaVo
WXt2+AYbgPJ1KGaX12PBTqWedFMIrc05tEiP9qUAoqxiKbi8juHa0D5SbkMxnrlz
vAi9PBfw9DuUWg8GMRpTxVUndevouKn2+Qova6E09jjUg6nGYDnzS0wrzsv2Q5Vz
-----END CERTIFICATE-----
