Certificate:
    Data:
        Version: 3 (0x2)
        Serial Number:
            ef:fb:41:1d:5a:6c:d5:f2:15:25:a8:a8:4d:ec:75:95
        Signature Algorithm: sha256WithRSAEncryption
        Issuer: CN=team678-net
        Validity
            Not Before: Sep 13 05:07:52 2021 GMT
            Not After : Aug 28 05:07:52 2024 GMT
        Subject: CN=team678-server
        Subject Public Key Info:
            Public Key Algorithm: rsaEncryption
                RSA Public-Key: (2048 bit)
                Modulus:
                    00:ad:cd:00:2c:b4:e7:a0:b1:2f:7a:24:91:19:be:
                    2d:b1:34:90:ee:86:51:e9:21:49:bf:c1:77:66:f5:
                    20:32:ef:6c:06:b9:64:27:f2:0b:e9:37:2f:4b:84:
                    8c:85:c8:a1:e1:06:af:42:3e:6d:2c:86:63:dc:88:
                    7e:8d:6e:37:70:cf:f3:d6:39:8f:0f:80:67:75:e6:
                    69:bd:b8:3c:39:b3:34:b5:bd:99:d1:15:38:f5:b8:
                    d7:93:ca:76:37:57:15:06:26:f9:44:e0:cf:6d:ec:
                    3b:11:88:ac:9b:cd:19:4d:63:e7:9e:25:13:69:8b:
                    5d:c6:7e:e5:b1:6e:0e:42:08:cd:68:93:ef:9b:22:
                    fc:5b:1c:2d:98:a4:dd:ce:ed:5f:e2:c7:d0:17:f9:
                    2e:c7:b0:78:74:e1:5d:c9:12:d1:c1:44:95:69:46:
                    18:01:87:49:f3:3d:a1:15:b2:60:32:84:d1:bd:d0:
                    dc:be:68:a8:5c:b3:0c:6e:93:5a:a5:d8:dc:53:99:
                    d6:c8:ab:c8:d0:ab:75:71:cc:3b:29:c9:f0:15:57:
                    48:9a:0a:d8:63:a0:8d:c9:79:e9:17:48:71:09:eb:
                    42:93:56:7e:40:3a:86:f1:0a:1f:62:b0:70:bc:70:
                    82:13:a8:95:1b:53:36:4f:0d:24:4c:1c:bd:6c:08:
                    9b:07
                Exponent: 65537 (0x10001)
        X509v3 extensions:
            X509v3 Basic Constraints: 
                CA:FALSE
            X509v3 Subject Key Identifier: 
                86:04:1A:F2:6A:98:80:54:13:2F:B5:07:B9:ED:0B:BB:0E:CD:53:83
            X509v3 Authority Key Identifier: 
                keyid:DC:6C:20:3E:A2:CD:67:74:29:34:DD:4C:52:A6:B1:63:E9:4A:0D:5A
                DirName:/CN=team678-net
                serial:7F:F8:26:01:4D:23:9F:60:C9:22:00:0E:88:C4:C1:5A:D8:34:50:A0

            X509v3 Extended Key Usage: 
                TLS Web Server Authentication
            X509v3 Key Usage: 
                Digital Signature, Key Encipherment
            X509v3 Subject Alternative Name: 
                DNS:team678-server
    Signature Algorithm: sha256WithRSAEncryption
         0e:be:a4:05:02:14:e4:76:35:b9:84:88:6e:81:ef:96:b9:eb:
         bc:50:a5:9c:61:2c:99:c4:38:22:6d:ef:90:30:f1:23:05:85:
         a4:2e:48:5e:65:b0:7b:bc:d9:96:06:0b:50:58:a5:4d:b5:13:
         40:69:f9:d9:f7:4e:a7:00:9c:25:2b:dd:2a:4e:8f:3a:db:77:
         8e:35:bb:3a:79:a6:c0:4f:8a:70:03:2b:75:9d:6b:57:95:62:
         72:17:e3:aa:85:11:ab:24:fa:47:23:a3:f9:4c:e0:3a:e3:d7:
         89:75:bd:9d:e2:62:d5:a0:62:90:18:a9:16:fe:9e:6d:a9:6e:
         6e:c0:38:0f:65:89:a8:b1:6b:c0:05:b5:7b:9e:ab:95:25:8e:
         a6:8a:af:7c:1b:b1:6e:09:af:2d:fc:9e:22:e4:80:86:7e:de:
         4d:46:07:35:45:66:50:0e:6b:73:84:9e:5f:75:fa:7c:7a:ba:
         db:60:ee:06:cd:b8:5d:d3:ff:9e:62:69:c5:26:26:a2:f6:c8:
         31:4a:93:da:46:3c:84:2e:e7:ed:6e:5b:13:af:79:14:23:2e:
         6b:d1:4b:11:89:3d:23:96:e3:80:ec:14:0a:7f:cd:e3:62:eb:
         73:b4:bb:45:cf:9e:d6:86:89:99:ed:b8:53:62:ba:50:49:79:
         d7:b9:3f:12
-----BEGIN CERTIFICATE-----
MIIDeDCCAmCgAwIBAgIRAO/7QR1abNXyFSWoqE3sdZUwDQYJKoZIhvcNAQELBQAw
FjEUMBIGA1UEAwwLdGVhbTY3OC1uZXQwHhcNMjEwOTEzMDUwNzUyWhcNMjQwODI4
MDUwNzUyWjAZMRcwFQYDVQQDDA50ZWFtNjc4LXNlcnZlcjCCASIwDQYJKoZIhvcN
AQEBBQADggEPADCCAQoCggEBAK3NACy056CxL3okkRm+LbE0kO6GUekhSb/Bd2b1
IDLvbAa5ZCfyC+k3L0uEjIXIoeEGr0I+bSyGY9yIfo1uN3DP89Y5jw+AZ3Xmab24
PDmzNLW9mdEVOPW415PKdjdXFQYm+UTgz23sOxGIrJvNGU1j554lE2mLXcZ+5bFu
DkIIzWiT75si/FscLZik3c7tX+LH0Bf5LseweHThXckS0cFElWlGGAGHSfM9oRWy
YDKE0b3Q3L5oqFyzDG6TWqXY3FOZ1siryNCrdXHMOynJ8BVXSJoK2GOgjcl56RdI
cQnrQpNWfkA6hvEKH2KwcLxwghOolRtTNk8NJEwcvWwImwcCAwEAAaOBvTCBujAJ
BgNVHRMEAjAAMB0GA1UdDgQWBBSGBBryapiAVBMvtQe57Qu7Ds1TgzBRBgNVHSME
SjBIgBTcbCA+os1ndCk03UxSprFj6UoNWqEapBgwFjEUMBIGA1UEAwwLdGVhbTY3
OC1uZXSCFH/4JgFNI59gySIADojEwVrYNFCgMBMGA1UdJQQMMAoGCCsGAQUFBwMB
MAsGA1UdDwQEAwIFoDAZBgNVHREEEjAQgg50ZWFtNjc4LXNlcnZlcjANBgkqhkiG
9w0BAQsFAAOCAQEADr6kBQIU5HY1uYSIboHvlrnrvFClnGEsmcQ4Im3vkDDxIwWF
pC5IXmWwe7zZlgYLUFilTbUTQGn52fdOpwCcJSvdKk6POtt3jjW7OnmmwE+KcAMr
dZ1rV5VichfjqoURqyT6RyOj+UzgOuPXiXW9neJi1aBikBipFv6ebalubsA4D2WJ
qLFrwAW1e56rlSWOpoqvfBuxbgmvLfyeIuSAhn7eTUYHNUVmUA5rc4SeX3X6fHq6
22DuBs24XdP/nmJpxSYmovbIMUqT2kY8hC7n7W5bE695FCMua9FLEYk9I5bjgOwU
Cn/N42Lrc7S7Rc+e1oaJme24U2K6UEl517k/Eg==
-----END CERTIFICATE-----
