Certificate:
    Data:
        Version: 3 (0x2)
        Serial Number:
            73:d5:8d:c7:e4:8f:bf:85:cf:45:61:1f:98:27:42:7f
        Signature Algorithm: sha256WithRSAEncryption
        Issuer: CN=team611-net
        Validity
            Not Before: Sep 13 04:28:02 2021 GMT
            Not After : Aug 28 04:28:02 2024 GMT
        Subject: CN=team611-client
        Subject Public Key Info:
            Public Key Algorithm: rsaEncryption
                RSA Public-Key: (2048 bit)
                Modulus:
                    00:b2:55:8a:7f:b0:db:00:aa:30:44:01:a4:f5:18:
                    0c:c0:9b:8e:13:c1:b8:a7:1f:30:86:1d:38:3f:db:
                    a2:70:9f:a4:98:24:e7:3e:05:1c:5d:11:03:87:46:
                    6c:0c:31:b7:fb:76:de:27:c4:64:93:5b:2d:d7:9f:
                    36:b7:a0:7a:83:a8:cc:39:22:a8:9b:bf:c2:c0:72:
                    f8:5c:7f:f0:36:31:1f:5c:5e:8c:0c:6e:f9:4a:34:
                    f9:25:39:e9:f3:31:ae:d3:6e:ad:9b:a6:af:27:9f:
                    0d:c0:0a:03:8c:a2:0e:46:22:61:4d:2f:32:b6:56:
                    b6:c9:58:f4:ab:c4:78:43:59:8e:8a:5a:c5:a3:ca:
                    c6:01:f8:1c:4d:43:1e:b0:91:ee:f2:05:b3:6b:58:
                    81:20:88:aa:83:66:16:bb:bc:d5:ca:a1:42:cf:b3:
                    37:17:59:83:d0:7f:ac:e5:1f:0e:d8:7d:f6:24:44:
                    4d:b7:43:cf:6b:b9:45:e2:62:bd:ec:86:89:86:f2:
                    f2:04:94:64:18:21:61:a3:83:55:80:dc:5f:a6:13:
                    a1:fd:bf:33:d6:e3:0f:fa:ab:e9:d2:7c:9d:9d:19:
                    36:31:35:62:0c:ba:ec:88:ea:d0:b1:51:fe:5c:f4:
                    d1:b6:85:b1:9c:e4:c9:03:59:2f:74:fa:69:9e:39:
                    a7:53
                Exponent: 65537 (0x10001)
        X509v3 extensions:
            X509v3 Basic Constraints: 
                CA:FALSE
            X509v3 Subject Key Identifier: 
                81:FD:45:6E:B4:68:23:62:CD:71:C1:E6:A9:6D:57:42:FD:3D:7C:B8
            X509v3 Authority Key Identifier: 
                keyid:FA:5B:64:C6:B8:41:A9:10:B9:8B:48:05:6F:3C:02:FE:B3:A5:E2:A5
                DirName:/CN=team611-net
                serial:75:F4:79:49:A8:F1:90:F5:A5:A7:F7:44:F9:15:0E:3A:4D:B5:08:0F

            X509v3 Extended Key Usage: 
                TLS Web Client Authentication
            X509v3 Key Usage: 
                Digital Signature
    Signature Algorithm: sha256WithRSAEncryption
         a4:83:89:94:44:cd:83:25:08:3d:69:ea:a6:c1:2a:43:8d:d1:
         69:d7:64:5a:fe:d3:50:60:2f:dd:17:4f:94:2a:5f:34:4c:6a:
         54:b4:c3:d1:12:3c:69:c6:e0:1f:42:b8:69:c7:e7:b0:3b:22:
         8c:16:f2:25:3f:48:6a:f7:01:8f:63:54:93:ec:66:b1:72:24:
         19:89:f3:98:76:bf:5e:3f:3a:0e:35:2c:ec:f0:d5:5d:41:51:
         d2:17:bd:49:71:f5:0a:35:fe:01:89:e8:1b:22:61:0d:dc:50:
         52:7b:ce:af:45:ee:3d:da:84:67:25:2c:62:4c:52:ca:b6:be:
         aa:dd:a8:94:d9:22:02:af:1d:26:d2:df:67:9b:7f:bb:77:21:
         8d:84:9c:29:ca:1a:a7:b2:d7:ec:f2:67:a9:62:a2:1e:b6:60:
         49:45:a4:3e:e4:7b:3a:e0:63:0c:cc:73:ac:12:d5:fa:66:2a:
         4e:b5:3d:25:8e:db:8f:04:61:fd:49:aa:8f:12:32:93:5b:c7:
         e1:ac:3b:33:ee:64:81:95:9d:7b:af:d7:f1:e5:5a:83:a7:56:
         56:85:fc:d9:d0:45:55:bb:8e:ce:ba:c9:ce:0a:fd:5d:16:37:
         79:48:97:c8:4b:43:2a:38:85:ca:e4:22:aa:bb:03:85:1a:d2:
         40:27:0f:38
-----BEGIN CERTIFICATE-----
MIIDXDCCAkSgAwIBAgIQc9WNx+SPv4XPRWEfmCdCfzANBgkqhkiG9w0BAQsFADAW
MRQwEgYDVQQDDAt0ZWFtNjExLW5ldDAeFw0yMTA5MTMwNDI4MDJaFw0yNDA4Mjgw
NDI4MDJaMBkxFzAVBgNVBAMMDnRlYW02MTEtY2xpZW50MIIBIjANBgkqhkiG9w0B
AQEFAAOCAQ8AMIIBCgKCAQEAslWKf7DbAKowRAGk9RgMwJuOE8G4px8whh04P9ui
cJ+kmCTnPgUcXREDh0ZsDDG3+3beJ8Rkk1st1582t6B6g6jMOSKom7/CwHL4XH/w
NjEfXF6MDG75SjT5JTnp8zGu026tm6avJ58NwAoDjKIORiJhTS8ytla2yVj0q8R4
Q1mOilrFo8rGAfgcTUMesJHu8gWza1iBIIiqg2YWu7zVyqFCz7M3F1mD0H+s5R8O
2H32JERNt0PPa7lF4mK97IaJhvLyBJRkGCFho4NVgNxfphOh/b8z1uMP+qvp0nyd
nRk2MTViDLrsiOrQsVH+XPTRtoWxnOTJA1kvdPppnjmnUwIDAQABo4GiMIGfMAkG
A1UdEwQCMAAwHQYDVR0OBBYEFIH9RW60aCNizXHB5qltV0L9PXy4MFEGA1UdIwRK
MEiAFPpbZMa4QakQuYtIBW88Av6zpeKloRqkGDAWMRQwEgYDVQQDDAt0ZWFtNjEx
LW5ldIIUdfR5SajxkPWlp/dE+RUOOk21CA8wEwYDVR0lBAwwCgYIKwYBBQUHAwIw
CwYDVR0PBAQDAgeAMA0GCSqGSIb3DQEBCwUAA4IBAQCkg4mURM2DJQg9aeqmwSpD
jdFp12Ra/tNQYC/dF0+UKl80TGpUtMPREjxpxuAfQrhpx+ewOyKMFvIlP0hq9wGP
Y1ST7GaxciQZifOYdr9ePzoONSzs8NVdQVHSF71JcfUKNf4BiegbImEN3FBSe86v
Re492oRnJSxiTFLKtr6q3aiU2SICrx0m0t9nm3+7dyGNhJwpyhqnstfs8mepYqIe
tmBJRaQ+5Hs64GMMzHOsEtX6ZipOtT0ljtuPBGH9SaqPEjKTW8fhrDsz7mSBlZ17
r9fx5VqDp1ZWhfzZ0EVVu47OusnOCv1dFjd5SJfIS0MqOIXK5CKquwOFGtJAJw84
-----END CERTIFICATE-----
