Certificate:
    Data:
        Version: 3 (0x2)
        Serial Number:
            a0:b8:b6:9f:d2:69:bc:db:a3:f6:b1:99:19:40:5c:fa
        Signature Algorithm: sha256WithRSAEncryption
        Issuer: CN=team611-net
        Validity
            Not Before: Sep 13 04:28:03 2021 GMT
            Not After : Aug 28 04:28:03 2024 GMT
        Subject: CN=team611-server
        Subject Public Key Info:
            Public Key Algorithm: rsaEncryption
                RSA Public-Key: (2048 bit)
                Modulus:
                    00:9d:26:b7:05:04:d7:b9:0c:89:ca:59:9c:3d:ea:
                    3d:23:cf:6f:a2:62:3e:8c:76:41:74:bf:fe:36:2e:
                    65:0f:20:3f:2f:96:f7:8e:a0:db:4f:db:24:f0:0b:
                    db:5d:e1:6a:38:5c:3a:fc:e1:f5:2d:86:79:22:3c:
                    5a:ec:17:59:b8:1d:87:5a:c5:3b:6e:3d:0c:4a:50:
                    89:32:db:ab:b9:f8:24:f9:79:7e:1e:d0:ba:ce:01:
                    cc:36:64:3d:a3:9e:dd:b6:fb:cd:70:05:bf:d2:c9:
                    66:3b:a1:0e:6e:ea:fb:05:02:36:b6:09:00:26:e1:
                    44:b5:ea:4b:d3:65:52:e0:f4:c0:fa:f6:d6:0e:e0:
                    4c:1c:50:82:bd:fa:83:61:fb:67:b9:ff:26:d0:82:
                    9c:81:dd:1a:77:03:1f:16:f9:7f:03:62:10:2e:37:
                    47:2b:61:a8:49:61:dd:bc:e9:58:06:42:86:1b:0a:
                    36:a3:10:ef:76:22:d7:49:0f:c2:a6:0c:d1:dd:ef:
                    36:2b:b9:4e:d7:a5:52:94:e4:71:ea:38:f4:34:ad:
                    52:fb:c3:79:3e:41:6c:40:cb:a2:28:5d:f9:3c:97:
                    fc:ef:f5:96:83:97:07:29:b2:15:bb:a8:18:91:2d:
                    4b:66:80:30:94:fb:7f:74:67:fa:72:fc:02:cb:b2:
                    c8:d9
                Exponent: 65537 (0x10001)
        X509v3 extensions:
            X509v3 Basic Constraints: 
                CA:FALSE
            X509v3 Subject Key Identifier: 
                B6:BF:B2:65:B7:E4:CF:83:0D:21:B6:60:BE:D1:2F:AD:87:D9:57:CA
            X509v3 Authority Key Identifier: 
                keyid:FA:5B:64:C6:B8:41:A9:10:B9:8B:48:05:6F:3C:02:FE:B3:A5:E2:A5
                DirName:/CN=team611-net
                serial:75:F4:79:49:A8:F1:90:F5:A5:A7:F7:44:F9:15:0E:3A:4D:B5:08:0F

            X509v3 Extended Key Usage: 
                TLS Web Server Authentication
            X509v3 Key Usage: 
                Digital Signature, Key Encipherment
            X509v3 Subject Alternative Name: 
                DNS:team611-server
    Signature Algorithm: sha256WithRSAEncryption
         be:37:d3:fc:83:21:5a:2e:74:31:f9:2a:e6:54:7c:d6:5d:ef:
         13:3f:7f:fe:62:27:59:1d:2e:79:85:a1:71:37:93:d8:5d:ed:
         e7:a3:43:c1:05:6a:b7:6f:ce:5b:69:82:a0:f0:a6:0a:21:ee:
         f5:86:94:d1:e5:d5:c4:60:25:66:a3:5c:d3:05:34:f7:47:14:
         1c:4a:5c:49:cf:41:62:3c:41:09:9a:05:26:b0:8e:71:62:34:
         58:4e:9e:4a:91:10:26:0f:56:71:8f:2a:31:c3:a4:10:5a:b4:
         2c:8a:e9:f4:3f:7d:3c:76:ef:db:6b:ca:7a:f5:84:e0:ad:94:
         01:28:e0:06:16:a1:6a:6a:6f:09:cf:a0:bb:98:4d:bc:b2:49:
         74:bb:86:84:7b:e5:be:40:c3:dc:fa:58:e4:6d:61:fe:d8:29:
         d7:66:fa:2d:7c:92:3a:ac:69:bd:c8:93:50:7d:62:45:5d:5d:
         6a:47:52:f2:46:be:08:b5:fa:30:b6:be:bd:f5:1d:56:21:69:
         f9:26:cd:a9:92:da:08:a5:98:f9:62:da:8e:d1:10:b2:8a:5b:
         13:85:a0:c3:18:66:4c:4e:f7:0b:26:10:ee:4c:fa:da:c3:ba:
         cd:87:37:5a:33:85:3f:07:f9:e8:0d:2f:fa:7b:89:c5:fa:45:
         2f:a9:b5:f6
-----BEGIN CERTIFICATE-----
MIIDeDCCAmCgAwIBAgIRAKC4tp/Sabzbo/axmRlAXPowDQYJKoZIhvcNAQELBQAw
FjEUMBIGA1UEAwwLdGVhbTYxMS1uZXQwHhcNMjEwOTEzMDQyODAzWhcNMjQwODI4
MDQyODAzWjAZMRcwFQYDVQQDDA50ZWFtNjExLXNlcnZlcjCCASIwDQYJKoZIhvcN
AQEBBQADggEPADCCAQoCggEBAJ0mtwUE17kMicpZnD3qPSPPb6JiPox2QXS//jYu
ZQ8gPy+W946g20/bJPAL213hajhcOvzh9S2GeSI8WuwXWbgdh1rFO249DEpQiTLb
q7n4JPl5fh7Qus4BzDZkPaOe3bb7zXAFv9LJZjuhDm7q+wUCNrYJACbhRLXqS9Nl
UuD0wPr21g7gTBxQgr36g2H7Z7n/JtCCnIHdGncDHxb5fwNiEC43RythqElh3bzp
WAZChhsKNqMQ73Yi10kPwqYM0d3vNiu5TtelUpTkceo49DStUvvDeT5BbEDLoihd
+TyX/O/1loOXBymyFbuoGJEtS2aAMJT7f3Rn+nL8AsuyyNkCAwEAAaOBvTCBujAJ
BgNVHRMEAjAAMB0GA1UdDgQWBBS2v7Jlt+TPgw0htmC+0S+th9lXyjBRBgNVHSME
SjBIgBT6W2TGuEGpELmLSAVvPAL+s6XipaEapBgwFjEUMBIGA1UEAwwLdGVhbTYx
MS1uZXSCFHX0eUmo8ZD1paf3RPkVDjpNtQgPMBMGA1UdJQQMMAoGCCsGAQUFBwMB
MAsGA1UdDwQEAwIFoDAZBgNVHREEEjAQgg50ZWFtNjExLXNlcnZlcjANBgkqhkiG
9w0BAQsFAAOCAQEAvjfT/IMhWi50Mfkq5lR81l3vEz9//mInWR0ueYWhcTeT2F3t
56NDwQVqt2/OW2mCoPCmCiHu9YaU0eXVxGAlZqNc0wU090cUHEpcSc9BYjxBCZoF
JrCOcWI0WE6eSpEQJg9WcY8qMcOkEFq0LIrp9D99PHbv22vKevWE4K2UASjgBhah
ampvCc+gu5hNvLJJdLuGhHvlvkDD3PpY5G1h/tgp12b6LXySOqxpvciTUH1iRV1d
akdS8ka+CLX6MLa+vfUdViFp+SbNqZLaCKWY+WLajtEQsopbE4WgwxhmTE73CyYQ
7kz62sO6zYc3WjOFPwf56A0v+nuJxfpFL6m19g==
-----END CERTIFICATE-----
