Certificate:
    Data:
        Version: 3 (0x2)
        Serial Number:
            6c:44:08:d2:a8:48:88:a8:14:00:64:7c:5f:a3:90:58
        Signature Algorithm: sha256WithRSAEncryption
        Issuer: CN=team354-net
        Validity
            Not Before: Sep 13 01:59:44 2021 GMT
            Not After : Aug 28 01:59:44 2024 GMT
        Subject: CN=team354-server
        Subject Public Key Info:
            Public Key Algorithm: rsaEncryption
                RSA Public-Key: (2048 bit)
                Modulus:
                    00:a6:7f:80:8a:87:41:f7:b7:f1:d9:e6:ae:cd:8b:
                    ff:0b:79:ef:ee:31:64:54:29:0e:ef:53:a4:31:a5:
                    de:3a:a0:9b:c8:07:e9:2a:f4:0e:0d:09:c9:5f:a9:
                    c1:fd:8b:e4:aa:59:d4:3e:d9:ae:e3:1f:3b:af:7f:
                    14:9e:67:f9:57:8c:e2:6f:5d:14:3a:c8:db:3e:10:
                    88:f8:8b:51:fd:54:f9:9c:83:a6:43:c6:15:8b:f0:
                    a7:a1:74:fb:c9:8c:83:16:12:a9:02:22:29:e8:06:
                    92:ac:f8:78:c6:7a:9d:c4:f0:f1:24:18:1c:cc:d8:
                    fe:11:6f:23:9b:ca:b2:60:35:b0:01:87:e9:fa:3f:
                    2a:99:ec:46:e3:98:2b:a3:1a:04:55:c9:49:93:4b:
                    17:f4:de:59:c2:7a:8f:0c:6c:50:11:f2:02:1e:02:
                    04:cf:b5:be:ac:85:d0:cc:24:80:14:4b:9e:e6:af:
                    31:53:77:ba:e7:9a:28:1c:a9:59:da:9a:77:05:ac:
                    4c:9b:3a:a7:c6:5c:af:a1:60:cd:e3:3b:1d:10:b2:
                    4f:da:67:d4:f3:23:53:cc:a1:b9:09:46:a9:af:cd:
                    24:98:2c:31:07:ba:e1:11:a9:df:57:8a:aa:f6:7a:
                    54:6e:7e:64:14:6d:33:65:2c:b1:bc:38:80:b1:6a:
                    35:d3
                Exponent: 65537 (0x10001)
        X509v3 extensions:
            X509v3 Basic Constraints: 
                CA:FALSE
            X509v3 Subject Key Identifier: 
                01:81:35:BE:9C:92:9A:79:A8:36:7A:E0:85:E4:F2:F4:BC:CD:DA:86
            X509v3 Authority Key Identifier: 
                keyid:D7:E4:EE:6E:94:DC:54:F9:C6:FA:E9:6D:0A:56:19:2B:D7:DF:5F:4E
                DirName:/CN=team354-net
                serial:57:74:C1:ED:26:F3:71:1B:8B:9D:46:56:F5:AD:BF:0C:51:A6:C2:E3

            X509v3 Extended Key Usage: 
                TLS Web Server Authentication
            X509v3 Key Usage: 
                Digital Signature, Key Encipherment
            X509v3 Subject Alternative Name: 
                DNS:team354-server
    Signature Algorithm: sha256WithRSAEncryption
         01:ba:9b:b6:96:a1:14:7e:5c:c1:05:60:8e:8b:e3:a7:8c:bb:
         54:f3:4a:7e:65:ba:c7:6e:5c:ea:25:cc:aa:be:e3:61:0e:ad:
         a2:a6:5b:28:47:61:d2:56:ed:6a:8d:aa:96:9a:6a:1d:c5:7c:
         96:90:43:2d:35:c2:e8:2a:35:61:77:b6:6e:60:a8:d4:b7:98:
         bf:2e:c1:6c:73:61:f6:26:fd:30:14:55:cb:55:70:43:15:82:
         63:86:82:29:1c:88:71:db:da:4e:33:66:37:c4:1d:38:12:6a:
         2f:70:bb:89:7c:3c:98:3e:f9:32:6a:a8:60:07:c9:5b:68:20:
         cb:4b:3c:95:80:83:15:0a:d0:f0:d9:d6:3e:09:26:f7:2a:0b:
         6d:6a:e4:aa:f9:68:72:f4:0d:1b:b9:05:d6:18:b2:23:81:00:
         26:fc:04:0e:84:f1:05:05:79:4e:b9:5a:74:7e:ec:1d:4d:d2:
         f9:6c:6d:26:99:9f:e8:5a:2b:16:1b:81:93:74:61:1c:43:1d:
         9d:ea:9d:58:dd:28:b6:7d:6a:57:a7:a8:fa:ae:3a:a2:94:01:
         6f:f6:b5:df:68:6a:ba:0d:bf:32:e7:4e:7e:de:37:57:0c:5b:
         4e:48:56:04:45:aa:c9:ba:87:6b:7b:9d:12:f2:c0:e5:e5:1e:
         98:85:29:08
-----BEGIN CERTIFICATE-----
MIIDdzCCAl+gAwIBAgIQbEQI0qhIiKgUAGR8X6OQWDANBgkqhkiG9w0BAQsFADAW
MRQwEgYDVQQDDAt0ZWFtMzU0LW5ldDAeFw0yMTA5MTMwMTU5NDRaFw0yNDA4Mjgw
MTU5NDRaMBkxFzAVBgNVBAMMDnRlYW0zNTQtc2VydmVyMIIBIjANBgkqhkiG9w0B
AQEFAAOCAQ8AMIIBCgKCAQEApn+AiodB97fx2eauzYv/C3nv7jFkVCkO71OkMaXe
OqCbyAfpKvQODQnJX6nB/YvkqlnUPtmu4x87r38Unmf5V4zib10UOsjbPhCI+ItR
/VT5nIOmQ8YVi/CnoXT7yYyDFhKpAiIp6AaSrPh4xnqdxPDxJBgczNj+EW8jm8qy
YDWwAYfp+j8qmexG45groxoEVclJk0sX9N5ZwnqPDGxQEfICHgIEz7W+rIXQzCSA
FEue5q8xU3e655ooHKlZ2pp3BaxMmzqnxlyvoWDN4zsdELJP2mfU8yNTzKG5CUap
r80kmCwxB7rhEanfV4qq9npUbn5kFG0zZSyxvDiAsWo10wIDAQABo4G9MIG6MAkG
A1UdEwQCMAAwHQYDVR0OBBYEFAGBNb6ckpp5qDZ64IXk8vS8zdqGMFEGA1UdIwRK
MEiAFNfk7m6U3FT5xvrpbQpWGSvX319OoRqkGDAWMRQwEgYDVQQDDAt0ZWFtMzU0
LW5ldIIUV3TB7SbzcRuLnUZW9a2/DFGmwuMwEwYDVR0lBAwwCgYIKwYBBQUHAwEw
CwYDVR0PBAQDAgWgMBkGA1UdEQQSMBCCDnRlYW0zNTQtc2VydmVyMA0GCSqGSIb3
DQEBCwUAA4IBAQABupu2lqEUflzBBWCOi+OnjLtU80p+ZbrHblzqJcyqvuNhDq2i
plsoR2HSVu1qjaqWmmodxXyWkEMtNcLoKjVhd7ZuYKjUt5i/LsFsc2H2Jv0wFFXL
VXBDFYJjhoIpHIhx29pOM2Y3xB04EmovcLuJfDyYPvkyaqhgB8lbaCDLSzyVgIMV
CtDw2dY+CSb3KgttauSq+Why9A0buQXWGLIjgQAm/AQOhPEFBXlOuVp0fuwdTdL5
bG0mmZ/oWisWG4GTdGEcQx2d6p1Y3Si2fWpXp6j6rjqilAFv9rXfaGq6Db8y505+
3jdXDFtOSFYERarJuodre50S8sDl5R6YhSkI
-----END CERTIFICATE-----
