Certificate:
    Data:
        Version: 3 (0x2)
        Serial Number:
            db:cf:5c:fe:d6:be:47:ec:41:a3:2e:30:5e:fc:ab:05
        Signature Algorithm: sha256WithRSAEncryption
        Issuer: CN=team354-net
        Validity
            Not Before: Sep 13 01:59:44 2021 GMT
            Not After : Aug 28 01:59:44 2024 GMT
        Subject: CN=team354-client
        Subject Public Key Info:
            Public Key Algorithm: rsaEncryption
                RSA Public-Key: (2048 bit)
                Modulus:
                    00:cf:0c:62:38:a7:4e:ba:67:4a:e9:bf:e2:fa:37:
                    92:c8:8d:94:d8:8f:97:12:4f:88:f8:37:a5:63:f6:
                    80:fb:a9:a9:70:ef:9d:60:95:cf:8c:1a:ab:21:2e:
                    13:78:32:41:c2:54:a1:a3:e5:18:3d:0d:2a:14:f7:
                    66:27:77:da:e1:2e:17:62:df:84:fd:af:94:e0:56:
                    0d:d1:56:0c:d5:c7:ba:7d:ec:7b:b4:b0:ad:1a:a3:
                    f8:aa:79:b8:ea:fe:dc:18:da:ae:6d:0c:8d:72:db:
                    d1:7c:f2:37:47:fb:a0:ca:25:c1:23:fe:11:9c:79:
                    ec:aa:a0:40:49:0c:9b:f4:0f:c8:74:67:23:cf:cb:
                    b3:5b:65:28:f3:11:e0:5a:1a:88:ac:8c:9b:39:08:
                    2e:0f:64:e5:0b:cd:41:8b:8e:52:84:3b:30:bb:1a:
                    37:a4:e8:35:be:d7:50:07:a0:ed:a5:6f:f9:6d:71:
                    5d:9d:ef:0f:66:4e:d5:c7:c4:14:f0:5a:35:24:eb:
                    2c:cf:58:22:9b:47:32:f0:7e:0c:24:6f:e4:7d:b7:
                    26:f2:20:77:cc:b4:db:e5:45:2b:f5:4a:b8:86:bf:
                    2d:e9:1f:8d:a0:f4:ac:7d:b0:f1:a9:05:40:c5:b3:
                    94:99:8c:17:f3:f0:de:79:30:dd:33:92:38:71:16:
                    6a:95
                Exponent: 65537 (0x10001)
        X509v3 extensions:
            X509v3 Basic Constraints: 
                CA:FALSE
            X509v3 Subject Key Identifier: 
                18:F3:FA:12:53:B4:BF:55:68:A6:5B:2B:40:9E:E3:33:2A:89:4C:4D
            X509v3 Authority Key Identifier: 
                keyid:D7:E4:EE:6E:94:DC:54:F9:C6:FA:E9:6D:0A:56:19:2B:D7:DF:5F:4E
                DirName:/CN=team354-net
                serial:57:74:C1:ED:26:F3:71:1B:8B:9D:46:56:F5:AD:BF:0C:51:A6:C2:E3

            X509v3 Extended Key Usage: 
                TLS Web Client Authentication
            X509v3 Key Usage: 
                Digital Signature
    Signature Algorithm: sha256WithRSAEncryption
         c5:7b:86:4a:ec:fb:cf:f8:6a:9a:da:5b:8a:8e:a5:dd:e3:64:
         00:93:d3:f1:ae:9e:ac:c6:cb:51:7c:4f:bb:db:c5:1b:5c:10:
         95:a0:78:5f:2c:14:cf:42:a7:45:99:cb:cf:60:d1:64:0d:c8:
         95:91:f2:7f:25:7f:3d:b2:66:88:88:7d:ab:95:2d:e5:e7:f3:
         d3:3e:48:9f:7f:7a:53:a1:d0:ee:95:0e:d5:e0:9b:62:a8:f2:
         81:f6:7c:84:1e:5a:0b:43:49:cc:6e:7e:55:53:ef:ef:9a:9c:
         79:2d:76:f1:1e:64:40:17:18:34:26:f1:18:09:c7:aa:ce:f3:
         31:71:05:35:85:4b:5e:9d:b6:40:86:fe:3a:fa:fb:24:6c:7a:
         57:36:2c:7c:50:8c:59:8c:fe:a3:56:29:9f:4a:8b:fe:60:59:
         f3:c2:c7:67:00:27:ca:9a:d5:d1:26:50:ef:1b:f5:50:6a:21:
         1b:9f:eb:8d:91:51:24:cc:e7:69:67:d6:2b:62:4f:f6:ab:13:
         da:42:d7:2a:0a:88:4f:1c:c4:e1:76:d1:15:49:33:15:91:81:
         70:12:0c:dc:5c:41:c7:51:06:e6:4f:48:ac:62:e2:b5:39:8a:
         2e:cd:b7:81:f1:09:a8:58:89:09:7c:13:0f:96:79:68:9a:70:
         6c:df:40:fa
-----BEGIN CERTIFICATE-----
MIIDXTCCAkWgAwIBAgIRANvPXP7WvkfsQaMuMF78qwUwDQYJKoZIhvcNAQELBQAw
FjEUMBIGA1UEAwwLdGVhbTM1NC1uZXQwHhcNMjEwOTEzMDE1OTQ0WhcNMjQwODI4
MDE1OTQ0WjAZMRcwFQYDVQQDDA50ZWFtMzU0LWNsaWVudDCCASIwDQYJKoZIhvcN
AQEBBQADggEPADCCAQoCggEBAM8MYjinTrpnSum/4vo3ksiNlNiPlxJPiPg3pWP2
gPupqXDvnWCVz4waqyEuE3gyQcJUoaPlGD0NKhT3Zid32uEuF2LfhP2vlOBWDdFW
DNXHun3se7SwrRqj+Kp5uOr+3Bjarm0MjXLb0XzyN0f7oMolwSP+EZx57KqgQEkM
m/QPyHRnI8/Ls1tlKPMR4FoaiKyMmzkILg9k5QvNQYuOUoQ7MLsaN6ToNb7XUAeg
7aVv+W1xXZ3vD2ZO1cfEFPBaNSTrLM9YIptHMvB+DCRv5H23JvIgd8y02+VFK/VK
uIa/LekfjaD0rH2w8akFQMWzlJmMF/Pw3nkw3TOSOHEWapUCAwEAAaOBojCBnzAJ
BgNVHRMEAjAAMB0GA1UdDgQWBBQY8/oSU7S/VWimWytAnuMzKolMTTBRBgNVHSME
SjBIgBTX5O5ulNxU+cb66W0KVhkr199fTqEapBgwFjEUMBIGA1UEAwwLdGVhbTM1
NC1uZXSCFFd0we0m83Ebi51GVvWtvwxRpsLjMBMGA1UdJQQMMAoGCCsGAQUFBwMC
MAsGA1UdDwQEAwIHgDANBgkqhkiG9w0BAQsFAAOCAQEAxXuGSuz7z/hqmtpbio6l
3eNkAJPT8a6erMbLUXxPu9vFG1wQlaB4XywUz0KnRZnLz2DRZA3IlZHyfyV/PbJm
iIh9q5Ut5efz0z5In396U6HQ7pUO1eCbYqjygfZ8hB5aC0NJzG5+VVPv75qceS12
8R5kQBcYNCbxGAnHqs7zMXEFNYVLXp22QIb+Ovr7JGx6VzYsfFCMWYz+o1Ypn0qL
/mBZ88LHZwAnyprV0SZQ7xv1UGohG5/rjZFRJMznaWfWK2JP9qsT2kLXKgqITxzE
4XbRFUkzFZGBcBIM3FxBx1EG5k9IrGLitTmKLs23gfEJqFiJCXwTD5Z5aJpwbN9A
+g==
-----END CERTIFICATE-----
