Certificate:
    Data:
        Version: 3 (0x2)
        Serial Number:
            f2:ab:2c:31:4e:da:2a:24:a6:3e:58:34:69:dc:27:69
        Signature Algorithm: sha256WithRSAEncryption
        Issuer: CN=team308-net
        Validity
            Not Before: Sep 13 01:32:14 2021 GMT
            Not After : Aug 28 01:32:14 2024 GMT
        Subject: CN=team308-server
        Subject Public Key Info:
            Public Key Algorithm: rsaEncryption
                RSA Public-Key: (2048 bit)
                Modulus:
                    00:c1:b0:f3:27:6e:db:7e:cd:60:20:9c:2a:f4:53:
                    d6:eb:7f:e2:a9:86:5a:f6:f8:44:53:23:49:31:cd:
                    10:56:1f:7d:3e:36:93:47:23:7a:7d:05:98:bf:1a:
                    e2:1a:39:75:00:99:91:9d:66:38:ef:c4:d5:3c:87:
                    29:72:7c:48:cb:ce:4d:43:36:32:bf:8d:c2:88:c1:
                    a6:8e:f8:d9:b6:58:1a:62:30:ab:dd:c9:24:39:73:
                    81:0e:39:3b:f9:d2:4d:06:86:e9:1c:58:a4:5d:7c:
                    ff:09:88:a0:26:73:ac:f6:45:ca:d4:54:27:75:a9:
                    f1:6f:05:f0:d3:bd:71:04:e4:fe:d7:ed:95:96:9f:
                    56:cd:6a:be:a6:cb:69:30:9b:09:1f:da:30:5d:47:
                    5d:69:aa:92:3d:a7:3b:fc:3c:90:65:9a:a0:3f:ff:
                    b7:92:0d:6b:9e:6c:c5:6b:0c:26:6a:01:c6:4c:39:
                    7e:20:d7:85:c6:14:c6:74:43:b0:7d:9a:73:af:81:
                    48:73:36:35:f0:9c:ef:9c:a6:fc:0e:d2:a8:bd:7d:
                    0b:1b:a5:56:d1:4b:76:dd:8c:92:a0:cf:1c:9b:4a:
                    85:55:58:09:59:13:ca:ba:45:14:4d:2b:99:d5:77:
                    76:96:2c:10:e4:98:fd:82:68:a4:9f:4f:41:48:c6:
                    c1:33
                Exponent: 65537 (0x10001)
        X509v3 extensions:
            X509v3 Basic Constraints: 
                CA:FALSE
            X509v3 Subject Key Identifier: 
                16:1B:55:F9:9C:C8:27:DC:26:1D:6C:D1:62:0E:30:4B:F7:CF:CA:5F
            X509v3 Authority Key Identifier: 
                keyid:57:16:DC:EB:CB:FB:C5:07:9C:BF:63:2D:77:DE:64:93:A0:E6:39:C8
                DirName:/CN=team308-net
                serial:52:3D:B8:7C:0C:EB:CC:C6:9A:4B:72:4D:E9:BB:56:4B:92:F6:B7:03

            X509v3 Extended Key Usage: 
                TLS Web Server Authentication
            X509v3 Key Usage: 
                Digital Signature, Key Encipherment
            X509v3 Subject Alternative Name: 
                DNS:team308-server
    Signature Algorithm: sha256WithRSAEncryption
         0e:a9:34:35:1c:23:f8:fe:a6:0f:80:ff:23:f7:24:4a:8d:2a:
         b0:84:dc:72:88:62:a5:5f:b6:2a:a4:70:4a:4d:bd:12:6d:50:
         73:8b:07:9e:f1:e2:0c:28:ef:a6:98:4c:f4:42:ac:7b:1c:24:
         3b:49:28:64:a2:f3:bf:91:cd:eb:20:16:8b:46:b1:bb:d0:b6:
         3e:ed:39:a2:db:56:75:78:f3:22:43:3b:a2:af:d8:47:2b:26:
         d6:7a:70:6d:11:6c:5a:22:11:8c:dc:32:c4:88:74:ad:2f:c6:
         86:96:7a:96:3c:29:5b:d9:b9:5f:81:61:ed:f1:0a:5c:40:3d:
         8e:b9:6e:50:50:db:30:13:03:e6:32:42:e3:ec:d0:87:99:dc:
         1b:71:a4:28:99:63:e2:d8:45:24:56:7d:1d:64:53:57:be:30:
         96:53:a2:46:4f:7a:2d:2c:89:0e:24:ff:30:3c:90:5d:a6:fd:
         c9:e5:55:f9:71:9f:a4:67:8a:40:89:d5:b5:a6:f5:fb:33:7e:
         6d:41:fc:ac:53:51:24:5c:1e:a2:42:d9:07:6a:3f:2d:60:88:
         e8:00:7e:ee:7f:a5:fd:56:5a:95:a1:e4:f7:0b:53:af:98:4c:
         fa:64:a5:5e:2a:4a:89:a5:02:1f:b9:e9:87:a5:d8:34:7d:90:
         9f:d6:6c:62
-----BEGIN CERTIFICATE-----
MIIDeDCCAmCgAwIBAgIRAPKrLDFO2iokpj5YNGncJ2kwDQYJKoZIhvcNAQELBQAw
FjEUMBIGA1UEAwwLdGVhbTMwOC1uZXQwHhcNMjEwOTEzMDEzMjE0WhcNMjQwODI4
MDEzMjE0WjAZMRcwFQYDVQQDDA50ZWFtMzA4LXNlcnZlcjCCASIwDQYJKoZIhvcN
AQEBBQADggEPADCCAQoCggEBAMGw8ydu237NYCCcKvRT1ut/4qmGWvb4RFMjSTHN
EFYffT42k0cjen0FmL8a4ho5dQCZkZ1mOO/E1TyHKXJ8SMvOTUM2Mr+NwojBpo74
2bZYGmIwq93JJDlzgQ45O/nSTQaG6RxYpF18/wmIoCZzrPZFytRUJ3Wp8W8F8NO9
cQTk/tftlZafVs1qvqbLaTCbCR/aMF1HXWmqkj2nO/w8kGWaoD//t5INa55sxWsM
JmoBxkw5fiDXhcYUxnRDsH2ac6+BSHM2NfCc75ym/A7SqL19CxulVtFLdt2MkqDP
HJtKhVVYCVkTyrpFFE0rmdV3dpYsEOSY/YJopJ9PQUjGwTMCAwEAAaOBvTCBujAJ
BgNVHRMEAjAAMB0GA1UdDgQWBBQWG1X5nMgn3CYdbNFiDjBL98/KXzBRBgNVHSME
SjBIgBRXFtzry/vFB5y/Yy133mSToOY5yKEapBgwFjEUMBIGA1UEAwwLdGVhbTMw
OC1uZXSCFFI9uHwM68zGmktyTem7VkuS9rcDMBMGA1UdJQQMMAoGCCsGAQUFBwMB
MAsGA1UdDwQEAwIFoDAZBgNVHREEEjAQgg50ZWFtMzA4LXNlcnZlcjANBgkqhkiG
9w0BAQsFAAOCAQEADqk0NRwj+P6mD4D/I/ckSo0qsITccohipV+2KqRwSk29Em1Q
c4sHnvHiDCjvpphM9EKsexwkO0koZKLzv5HN6yAWi0axu9C2Pu05ottWdXjzIkM7
oq/YRysm1npwbRFsWiIRjNwyxIh0rS/GhpZ6ljwpW9m5X4Fh7fEKXEA9jrluUFDb
MBMD5jJC4+zQh5ncG3GkKJlj4thFJFZ9HWRTV74wllOiRk96LSyJDiT/MDyQXab9
yeVV+XGfpGeKQInVtab1+zN+bUH8rFNRJFweokLZB2o/LWCI6AB+7n+l/VZalaHk
9wtTr5hM+mSlXipKiaUCH7nph6XYNH2Qn9ZsYg==
-----END CERTIFICATE-----
