Certificate:
    Data:
        Version: 3 (0x2)
        Serial Number:
            a4:ce:9a:1e:eb:ca:6b:cd:9e:57:be:77:7b:05:1a:45
        Signature Algorithm: sha256WithRSAEncryption
        Issuer: CN=team489-net
        Validity
            Not Before: Sep 13 03:03:17 2021 GMT
            Not After : Aug 28 03:03:17 2024 GMT
        Subject: CN=team489-server
        Subject Public Key Info:
            Public Key Algorithm: rsaEncryption
                RSA Public-Key: (2048 bit)
                Modulus:
                    00:d6:c2:82:4f:f9:07:57:95:95:77:7c:25:4b:e7:
                    d1:f6:5c:b6:16:8f:51:56:77:16:df:c7:e9:30:ca:
                    0f:1b:3f:b6:f4:c1:6a:93:b7:b3:6a:c5:65:42:6c:
                    68:8c:a5:a2:77:1b:fb:da:14:d7:21:2e:12:e1:d5:
                    a5:6f:16:ad:fc:cb:fa:6c:91:04:73:78:30:a7:ee:
                    64:c1:ed:15:5f:4e:3a:91:a9:25:77:ad:0a:c7:cd:
                    c2:3a:92:d4:ab:61:7d:2a:97:a8:5f:b2:6d:f9:9a:
                    a1:bc:00:57:8e:d5:ba:ba:03:bc:51:02:c1:37:e1:
                    af:c9:43:ee:71:6b:1c:5e:b2:a0:a9:20:06:35:74:
                    35:6a:32:d0:1c:26:43:fe:1c:f3:92:14:6e:e0:51:
                    d0:29:63:6c:e6:5f:64:56:52:13:02:af:26:68:95:
                    a3:8d:21:6f:d5:a9:7a:95:96:e3:6a:ae:80:b2:31:
                    a0:24:ba:85:f2:ca:40:d1:ac:91:57:3b:48:63:c2:
                    d7:aa:1b:41:3b:62:56:eb:9f:9b:bb:ef:2d:15:2c:
                    6b:ba:e2:dc:ef:76:0c:f0:95:43:59:63:5e:91:0a:
                    4a:8a:73:99:ef:55:4f:65:ea:96:cc:46:8c:10:db:
                    83:34:3f:13:36:34:96:c1:b5:1a:02:ae:2d:4c:f3:
                    6b:0b
                Exponent: 65537 (0x10001)
        X509v3 extensions:
            X509v3 Basic Constraints: 
                CA:FALSE
            X509v3 Subject Key Identifier: 
                57:14:DC:94:10:89:15:6D:12:0C:E8:1E:E2:CD:08:5B:96:81:F7:D4
            X509v3 Authority Key Identifier: 
                keyid:53:65:1E:B3:7D:D2:BB:3B:4F:2C:35:FF:58:29:03:C9:E4:E7:30:99
                DirName:/CN=team489-net
                serial:7B:4B:2C:78:AE:41:8B:07:A9:19:C1:64:D0:65:65:C4:61:81:9D:6C

            X509v3 Extended Key Usage: 
                TLS Web Server Authentication
            X509v3 Key Usage: 
                Digital Signature, Key Encipherment
            X509v3 Subject Alternative Name: 
                DNS:team489-server
    Signature Algorithm: sha256WithRSAEncryption
         7d:1a:0f:87:ba:db:7a:c1:3c:b0:73:15:f6:b0:a3:f4:d3:15:
         84:dd:7f:c0:b9:e3:04:44:d3:68:f0:ea:39:65:c2:52:e6:1a:
         72:fc:bf:e1:ee:cc:3c:17:c9:ed:ee:d9:28:19:5d:1f:03:4f:
         81:6f:af:ad:8f:3e:75:d7:74:66:6a:ef:c3:32:4a:b2:00:1b:
         a3:d1:29:cb:60:13:3a:5f:d3:0b:1f:09:be:98:cb:6f:a6:f9:
         29:39:3c:77:59:9e:9a:49:8b:51:99:c7:20:6e:26:63:94:fd:
         cf:d2:74:41:24:a5:66:c9:16:6a:e1:c2:14:1f:06:29:3e:00:
         69:f9:8d:1e:9f:e0:84:8d:2a:7c:9b:a9:a7:78:a2:09:cc:58:
         9d:f7:40:f9:ba:75:ae:5a:3c:1b:eb:cd:68:62:75:29:1d:53:
         05:08:c9:61:6a:3b:81:5c:f2:85:c1:55:65:05:db:01:a2:8b:
         ab:7c:d8:80:c1:87:ed:db:64:05:f0:2f:98:63:ec:f7:df:ae:
         f9:bc:0b:29:42:60:d6:01:23:22:75:1d:b0:18:4d:2f:d4:cd:
         f2:e9:9b:df:ba:a5:ab:7e:e3:f3:12:a5:7e:ae:eb:46:e7:b4:
         aa:fc:27:e0:9c:f5:33:c3:b1:79:d8:56:df:7e:12:10:ab:cb:
         8e:f4:e0:60
-----BEGIN CERTIFICATE-----
MIIDeDCCAmCgAwIBAgIRAKTOmh7rymvNnle+d3sFGkUwDQYJKoZIhvcNAQELBQAw
FjEUMBIGA1UEAwwLdGVhbTQ4OS1uZXQwHhcNMjEwOTEzMDMwMzE3WhcNMjQwODI4
MDMwMzE3WjAZMRcwFQYDVQQDDA50ZWFtNDg5LXNlcnZlcjCCASIwDQYJKoZIhvcN
AQEBBQADggEPADCCAQoCggEBANbCgk/5B1eVlXd8JUvn0fZcthaPUVZ3Ft/H6TDK
Dxs/tvTBapO3s2rFZUJsaIyloncb+9oU1yEuEuHVpW8WrfzL+myRBHN4MKfuZMHt
FV9OOpGpJXetCsfNwjqS1KthfSqXqF+ybfmaobwAV47VuroDvFECwTfhr8lD7nFr
HF6yoKkgBjV0NWoy0BwmQ/4c85IUbuBR0CljbOZfZFZSEwKvJmiVo40hb9WpepWW
42qugLIxoCS6hfLKQNGskVc7SGPC16obQTtiVuufm7vvLRUsa7ri3O92DPCVQ1lj
XpEKSopzme9VT2XqlsxGjBDbgzQ/EzY0lsG1GgKuLUzzawsCAwEAAaOBvTCBujAJ
BgNVHRMEAjAAMB0GA1UdDgQWBBRXFNyUEIkVbRIM6B7izQhbloH31DBRBgNVHSME
SjBIgBRTZR6zfdK7O08sNf9YKQPJ5OcwmaEapBgwFjEUMBIGA1UEAwwLdGVhbTQ4
OS1uZXSCFHtLLHiuQYsHqRnBZNBlZcRhgZ1sMBMGA1UdJQQMMAoGCCsGAQUFBwMB
MAsGA1UdDwQEAwIFoDAZBgNVHREEEjAQgg50ZWFtNDg5LXNlcnZlcjANBgkqhkiG
9w0BAQsFAAOCAQEAfRoPh7rbesE8sHMV9rCj9NMVhN1/wLnjBETTaPDqOWXCUuYa
cvy/4e7MPBfJ7e7ZKBldHwNPgW+vrY8+ddd0ZmrvwzJKsgAbo9Epy2ATOl/TCx8J
vpjLb6b5KTk8d1memkmLUZnHIG4mY5T9z9J0QSSlZskWauHCFB8GKT4AafmNHp/g
hI0qfJupp3iiCcxYnfdA+bp1rlo8G+vNaGJ1KR1TBQjJYWo7gVzyhcFVZQXbAaKL
q3zYgMGH7dtkBfAvmGPs99+u+bwLKUJg1gEjInUdsBhNL9TN8umb37qlq37j8xKl
fq7rRue0qvwn4Jz1M8OxedhW334SEKvLjvTgYA==
-----END CERTIFICATE-----
