Certificate:
    Data:
        Version: 3 (0x2)
        Serial Number:
            cc:ce:c5:a1:00:94:1f:bd:34:8d:73:72:ae:60:de:b2
        Signature Algorithm: sha256WithRSAEncryption
        Issuer: CN=team437-net
        Validity
            Not Before: Sep 13 02:35:19 2021 GMT
            Not After : Aug 28 02:35:19 2024 GMT
        Subject: CN=team437-client
        Subject Public Key Info:
            Public Key Algorithm: rsaEncryption
                RSA Public-Key: (2048 bit)
                Modulus:
                    00:df:9e:ba:74:ce:13:34:5e:c3:19:e9:25:ad:2f:
                    60:bc:5f:bb:42:51:dc:8e:7f:c8:08:9d:33:43:73:
                    ae:ae:05:a4:19:17:57:dc:74:bb:ec:d5:b4:54:3a:
                    0c:7f:30:0f:c3:88:80:02:b9:40:9d:ac:02:30:e5:
                    f0:88:01:e5:83:ec:61:d6:fb:b9:36:b6:0c:84:05:
                    10:d1:7c:66:d4:db:2d:fa:60:5a:d9:a2:26:7b:48:
                    36:cf:b5:b3:a2:e4:a6:fc:bd:86:3f:e0:7c:8e:6e:
                    ac:ff:07:93:dc:eb:52:31:b1:d4:c8:f2:1a:22:6a:
                    db:33:92:0c:4c:1d:da:04:b8:82:9c:05:4a:f8:36:
                    23:bf:35:f5:2e:59:8a:e3:d7:a0:2e:94:fa:ad:f4:
                    d8:a1:cb:6f:d4:43:4c:ea:3f:51:b5:db:f0:b4:0d:
                    ab:a5:9e:32:01:46:b7:92:98:fa:f1:36:54:a5:c4:
                    4f:24:b0:99:bb:70:3b:34:f9:68:11:1f:5f:fb:15:
                    73:f8:c8:da:50:62:6f:22:74:ca:67:fa:96:13:71:
                    35:ec:89:50:14:92:86:cc:ce:de:52:07:22:74:24:
                    f9:6f:2e:c4:1c:54:1c:5f:40:9a:ce:11:5f:8e:fb:
                    ec:26:f4:d0:b4:6e:e9:46:6a:1b:55:a7:fa:1f:36:
                    ad:03
                Exponent: 65537 (0x10001)
        X509v3 extensions:
            X509v3 Basic Constraints: 
                CA:FALSE
            X509v3 Subject Key Identifier: 
                A5:C2:97:8C:9E:76:64:71:AB:B8:B0:AD:8B:9E:05:89:B9:F1:23:CA
            X509v3 Authority Key Identifier: 
                keyid:11:CE:A5:60:74:52:B5:88:1B:FD:2D:31:3C:88:59:AE:92:28:FD:9B
                DirName:/CN=team437-net
                serial:73:F3:5F:7E:D6:FC:E1:3B:3A:40:82:2E:97:6A:CE:BC:9B:B2:CD:7B

            X509v3 Extended Key Usage: 
                TLS Web Client Authentication
            X509v3 Key Usage: 
                Digital Signature
    Signature Algorithm: sha256WithRSAEncryption
         3f:12:e5:93:e7:21:e8:a1:38:a9:95:25:9a:9a:e4:af:40:f2:
         97:8c:c8:d4:be:b3:a9:6f:91:ae:8a:4c:46:80:07:db:60:83:
         3b:f9:92:84:bd:93:7e:3a:a1:2b:e1:35:a8:ad:41:f5:d8:af:
         4f:04:52:d6:1d:41:0a:c1:d2:f3:03:af:61:5a:14:49:25:fd:
         99:2e:09:ab:6a:80:72:3a:22:d1:d6:1b:e0:2a:52:7c:08:10:
         51:50:68:d4:ef:67:71:3a:e3:6e:3b:96:6c:51:c4:0e:63:ea:
         a0:b8:cf:ee:01:fd:4e:70:a3:ad:66:5c:bd:89:f7:3b:0d:4f:
         61:49:54:45:ee:a9:bc:57:60:96:44:d8:05:db:ac:46:c0:18:
         9d:04:1c:3d:40:dd:2d:ee:74:62:2a:96:ca:01:e5:b0:95:cc:
         1d:99:f9:54:c4:af:3c:32:a9:5f:1c:a2:08:3d:c0:43:66:5b:
         04:b4:c5:e2:fb:66:f0:39:b6:33:55:46:7e:c8:de:e2:a0:2c:
         ab:67:80:c8:de:72:fe:77:70:6f:63:cb:92:f1:b2:b5:08:eb:
         46:00:50:f7:6e:c9:cf:36:db:d5:34:89:fb:b8:dd:52:9c:49:
         70:4e:48:90:98:4f:cb:22:f9:3c:af:dd:8c:9f:fb:20:30:da:
         64:0b:74:9f
-----BEGIN CERTIFICATE-----
MIIDXTCCAkWgAwIBAgIRAMzOxaEAlB+9NI1zcq5g3rIwDQYJKoZIhvcNAQELBQAw
FjEUMBIGA1UEAwwLdGVhbTQzNy1uZXQwHhcNMjEwOTEzMDIzNTE5WhcNMjQwODI4
MDIzNTE5WjAZMRcwFQYDVQQDDA50ZWFtNDM3LWNsaWVudDCCASIwDQYJKoZIhvcN
AQEBBQADggEPADCCAQoCggEBAN+eunTOEzRewxnpJa0vYLxfu0JR3I5/yAidM0Nz
rq4FpBkXV9x0u+zVtFQ6DH8wD8OIgAK5QJ2sAjDl8IgB5YPsYdb7uTa2DIQFENF8
ZtTbLfpgWtmiJntINs+1s6Lkpvy9hj/gfI5urP8Hk9zrUjGx1MjyGiJq2zOSDEwd
2gS4gpwFSvg2I7819S5ZiuPXoC6U+q302KHLb9RDTOo/UbXb8LQNq6WeMgFGt5KY
+vE2VKXETySwmbtwOzT5aBEfX/sVc/jI2lBibyJ0ymf6lhNxNeyJUBSShszO3lIH
InQk+W8uxBxUHF9Ams4RX4777Cb00LRu6UZqG1Wn+h82rQMCAwEAAaOBojCBnzAJ
BgNVHRMEAjAAMB0GA1UdDgQWBBSlwpeMnnZkcau4sK2LngWJufEjyjBRBgNVHSME
SjBIgBQRzqVgdFK1iBv9LTE8iFmukij9m6EapBgwFjEUMBIGA1UEAwwLdGVhbTQz
Ny1uZXSCFHPzX37W/OE7OkCCLpdqzrybss17MBMGA1UdJQQMMAoGCCsGAQUFBwMC
MAsGA1UdDwQEAwIHgDANBgkqhkiG9w0BAQsFAAOCAQEAPxLlk+ch6KE4qZUlmprk
r0Dyl4zI1L6zqW+RropMRoAH22CDO/mShL2TfjqhK+E1qK1B9divTwRS1h1BCsHS
8wOvYVoUSSX9mS4Jq2qAcjoi0dYb4CpSfAgQUVBo1O9ncTrjbjuWbFHEDmPqoLjP
7gH9TnCjrWZcvYn3Ow1PYUlURe6pvFdglkTYBdusRsAYnQQcPUDdLe50YiqWygHl
sJXMHZn5VMSvPDKpXxyiCD3AQ2ZbBLTF4vtm8Dm2M1VGfsje4qAsq2eAyN5y/ndw
b2PLkvGytQjrRgBQ927Jzzbb1TSJ+7jdUpxJcE5IkJhPyyL5PK/djJ/7IDDaZAt0
nw==
-----END CERTIFICATE-----
