Certificate:
    Data:
        Version: 3 (0x2)
        Serial Number:
            0e:71:75:05:09:36:50:48:6d:b7:f4:c8:4b:32:08:f2
        Signature Algorithm: sha256WithRSAEncryption
        Issuer: CN=team609-net
        Validity
            Not Before: Sep 13 04:05:20 2021 GMT
            Not After : Aug 28 04:05:20 2024 GMT
        Subject: CN=team609-client
        Subject Public Key Info:
            Public Key Algorithm: rsaEncryption
                RSA Public-Key: (2048 bit)
                Modulus:
                    00:f8:70:49:30:e1:1f:42:83:05:a1:30:71:be:c7:
                    cf:6a:44:c1:ce:5d:c6:83:b9:f0:6c:be:be:b4:33:
                    32:eb:3b:a2:f8:6f:d9:a4:f9:dd:f9:64:de:c9:20:
                    b1:22:6e:13:10:d2:a3:0b:f6:26:ab:89:02:84:0d:
                    3a:13:91:be:07:ae:7e:1a:92:6e:38:b5:bb:f6:80:
                    f2:3c:9d:5e:65:9c:aa:90:0a:f4:94:47:cc:dd:83:
                    7b:66:55:e4:41:27:8a:46:75:82:d4:95:78:98:49:
                    5c:bf:73:28:18:e1:55:1f:2b:d5:56:f5:d0:0a:9c:
                    58:74:de:94:aa:12:67:06:35:2c:38:1a:ec:8d:75:
                    24:11:2c:ad:13:4c:ab:65:40:61:4b:68:29:86:36:
                    76:f2:55:f7:41:c0:58:38:37:a5:6b:6f:b7:a4:c0:
                    50:e9:b1:61:4f:7c:e1:d9:06:05:f7:9f:90:a4:d8:
                    95:22:e3:9b:e5:3e:bd:ee:63:3d:05:8b:4c:fe:33:
                    b7:d0:12:7c:5f:d5:2b:6e:2a:36:07:6b:9a:89:5c:
                    30:f9:60:e1:44:23:eb:ab:da:9b:5b:a9:07:1d:5f:
                    8a:ad:9b:53:8e:64:4a:30:ba:87:43:5a:78:dc:f8:
                    bb:26:3c:a2:40:a5:45:c8:98:08:ed:49:b0:ae:e7:
                    a0:83
                Exponent: 65537 (0x10001)
        X509v3 extensions:
            X509v3 Basic Constraints: 
                CA:FALSE
            X509v3 Subject Key Identifier: 
                4A:C4:A8:8F:39:32:FB:7E:52:4F:F4:6C:DD:F6:70:DF:61:9C:B1:6C
            X509v3 Authority Key Identifier: 
                keyid:F7:FB:37:73:59:57:81:C4:49:B6:8D:DE:AB:44:70:5E:8B:DB:02:BB
                DirName:/CN=team609-net
                serial:43:E8:D5:F2:0B:72:72:06:86:E0:61:73:9B:8B:7F:D8:09:AC:32:57

            X509v3 Extended Key Usage: 
                TLS Web Client Authentication
            X509v3 Key Usage: 
                Digital Signature
    Signature Algorithm: sha256WithRSAEncryption
         2a:f5:f4:23:fc:91:85:50:b1:aa:d6:83:43:e2:a1:11:45:0b:
         5e:cb:21:f4:cb:05:49:9a:53:54:be:6c:59:a7:72:1f:b4:7e:
         2a:77:66:77:91:9d:47:64:aa:92:a3:16:bb:27:57:1a:2e:e5:
         ff:88:ca:e9:b3:2a:a9:a7:69:93:c3:68:95:3d:42:ea:35:b3:
         3d:63:bd:d4:28:1f:54:86:70:a8:6a:2e:6b:c8:3d:e6:03:61:
         2c:e9:d0:7e:44:95:2a:d7:76:c9:5c:e3:7f:48:33:28:cf:eb:
         87:53:09:69:e0:f4:fc:8a:14:81:70:55:8e:34:cd:d3:38:ab:
         50:8d:35:8b:b9:04:ad:21:14:70:63:f6:08:fe:ad:eb:cd:b6:
         5e:15:c3:69:4e:38:5e:5b:48:38:12:e3:e6:fc:b8:64:d5:f2:
         35:b6:6f:2f:37:3b:b7:b7:71:4a:73:f6:31:99:25:69:a3:c0:
         21:0a:b4:e5:96:ba:1f:65:e5:69:87:d8:ad:da:2a:f9:9a:8b:
         2e:b7:3c:2a:1f:81:a4:fb:aa:c2:b7:36:a4:3d:a5:83:4c:f3:
         c5:99:7a:5b:9a:b9:85:8e:74:19:3d:e7:df:30:a2:1f:9e:57:
         06:52:bc:72:d3:72:c1:7e:9e:69:c7:91:f4:d5:84:94:f6:fd:
         0f:1b:29:1b
-----BEGIN CERTIFICATE-----
MIIDXDCCAkSgAwIBAgIQDnF1BQk2UEhtt/TISzII8jANBgkqhkiG9w0BAQsFADAW
MRQwEgYDVQQDDAt0ZWFtNjA5LW5ldDAeFw0yMTA5MTMwNDA1MjBaFw0yNDA4Mjgw
NDA1MjBaMBkxFzAVBgNVBAMMDnRlYW02MDktY2xpZW50MIIBIjANBgkqhkiG9w0B
AQEFAAOCAQ8AMIIBCgKCAQEA+HBJMOEfQoMFoTBxvsfPakTBzl3Gg7nwbL6+tDMy
6zui+G/ZpPnd+WTeySCxIm4TENKjC/Ymq4kChA06E5G+B65+GpJuOLW79oDyPJ1e
ZZyqkAr0lEfM3YN7ZlXkQSeKRnWC1JV4mElcv3MoGOFVHyvVVvXQCpxYdN6UqhJn
BjUsOBrsjXUkESytE0yrZUBhS2gphjZ28lX3QcBYODela2+3pMBQ6bFhT3zh2QYF
95+QpNiVIuOb5T697mM9BYtM/jO30BJ8X9Urbio2B2uaiVww+WDhRCPrq9qbW6kH
HV+KrZtTjmRKMLqHQ1p43Pi7JjyiQKVFyJgI7UmwrueggwIDAQABo4GiMIGfMAkG
A1UdEwQCMAAwHQYDVR0OBBYEFErEqI85Mvt+Uk/0bN32cN9hnLFsMFEGA1UdIwRK
MEiAFPf7N3NZV4HESbaN3qtEcF6L2wK7oRqkGDAWMRQwEgYDVQQDDAt0ZWFtNjA5
LW5ldIIUQ+jV8gtycgaG4GFzm4t/2AmsMlcwEwYDVR0lBAwwCgYIKwYBBQUHAwIw
CwYDVR0PBAQDAgeAMA0GCSqGSIb3DQEBCwUAA4IBAQAq9fQj/JGFULGq1oND4qER
RQteyyH0ywVJmlNUvmxZp3IftH4qd2Z3kZ1HZKqSoxa7J1caLuX/iMrpsyqpp2mT
w2iVPULqNbM9Y73UKB9UhnCoai5ryD3mA2Es6dB+RJUq13bJXON/SDMoz+uHUwlp
4PT8ihSBcFWONM3TOKtQjTWLuQStIRRwY/YI/q3rzbZeFcNpTjheW0g4EuPm/Lhk
1fI1tm8vNzu3t3FKc/YxmSVpo8AhCrTllrofZeVph9it2ir5mosutzwqH4Gk+6rC
tzakPaWDTPPFmXpbmrmFjnQZPeffMKIfnlcGUrxy03LBfp5px5H01YSU9v0PGykb
-----END CERTIFICATE-----
