Certificate:
    Data:
        Version: 3 (0x2)
        Serial Number:
            13:69:24:74:6b:ed:69:2f:95:01:d2:9c:02:8e:d3:1f
        Signature Algorithm: sha256WithRSAEncryption
        Issuer: CN=team146-net
        Validity
            Not Before: Sep 13 00:06:13 2021 GMT
            Not After : Aug 28 00:06:13 2024 GMT
        Subject: CN=team146-server
        Subject Public Key Info:
            Public Key Algorithm: rsaEncryption
                RSA Public-Key: (2048 bit)
                Modulus:
                    00:c6:e2:d6:d6:47:5b:b9:6c:f0:34:4a:b4:a9:70:
                    df:b8:6e:d7:61:56:ce:aa:f5:c4:24:a1:a7:94:77:
                    4f:5b:be:e5:e0:04:39:8f:32:ea:04:3b:49:17:9c:
                    f7:13:89:02:8b:91:4d:2d:46:2a:12:e5:bf:8d:3a:
                    5a:30:ae:67:6f:83:0b:68:6d:18:00:22:2b:70:88:
                    4a:10:21:9a:ed:39:6d:6e:51:55:28:47:51:80:e2:
                    d2:fe:80:9b:31:bf:61:4e:e4:e6:1c:90:2f:eb:13:
                    ed:d5:3f:43:ce:0d:c6:da:a6:de:23:64:1e:76:6c:
                    2d:1a:61:62:35:ee:f0:5b:93:ec:ec:5e:09:40:2a:
                    48:b1:24:45:77:6e:a0:af:3b:db:56:f1:c7:1b:15:
                    f1:5c:be:0e:d6:c5:8b:da:ef:c9:03:3c:ec:1b:85:
                    09:70:41:49:6f:0e:6f:d0:60:77:00:6c:39:22:aa:
                    b4:12:2d:c1:52:57:62:2c:58:c3:4e:69:1e:f4:14:
                    48:42:e7:1d:93:21:58:c6:e7:35:6a:6b:e1:44:1c:
                    2f:e9:3b:2d:3e:a9:96:e7:62:d5:4a:29:a5:95:10:
                    eb:b4:61:0d:28:05:b4:c7:5c:13:00:6c:1c:35:b1:
                    0c:e7:f3:df:60:b3:80:e4:26:f7:70:62:7b:3c:9d:
                    5c:f1
                Exponent: 65537 (0x10001)
        X509v3 extensions:
            X509v3 Basic Constraints: 
                CA:FALSE
            X509v3 Subject Key Identifier: 
                57:EC:15:D2:5A:C7:D7:3F:69:80:BE:AE:CC:0C:CE:09:B7:48:B7:D0
            X509v3 Authority Key Identifier: 
                keyid:1F:98:AB:63:FB:4E:E9:D5:7F:75:B7:E1:0D:CD:32:D4:16:23:73:35
                DirName:/CN=team146-net
                serial:03:49:64:81:8F:D6:25:A4:01:F4:7B:63:B1:CC:C3:2B:C2:EE:96:F6

            X509v3 Extended Key Usage: 
                TLS Web Server Authentication
            X509v3 Key Usage: 
                Digital Signature, Key Encipherment
            X509v3 Subject Alternative Name: 
                DNS:team146-server
    Signature Algorithm: sha256WithRSAEncryption
         85:4b:1f:ce:8d:43:68:40:f1:56:53:8d:50:77:8b:4a:0f:1d:
         f3:cc:3d:8b:e0:92:76:b7:9a:79:82:a3:69:d2:3f:a3:99:2b:
         2a:a5:21:cc:5f:fe:32:98:4e:66:6b:9c:bb:bf:ae:dd:92:0e:
         52:2d:56:78:6b:83:c8:f3:da:02:8b:38:ae:1f:53:aa:8e:fe:
         e4:2c:83:3a:d4:df:1f:10:da:25:03:35:45:12:4b:fd:f2:a4:
         15:98:36:a5:94:e0:99:4f:4d:80:bc:1d:13:94:39:47:5b:d9:
         79:27:60:0d:ab:0e:77:ff:55:28:6e:03:56:15:2a:1d:2d:5e:
         8e:5c:3b:2a:bc:9b:6e:89:3b:9b:6e:9b:44:9e:3b:67:12:a9:
         5f:58:3a:9a:dc:43:0a:0d:26:9d:e6:43:97:29:34:33:99:c0:
         3f:b9:6a:a6:7a:d4:f6:e8:2b:34:59:86:cb:b3:3f:17:10:62:
         c2:ec:ac:3b:05:3f:4f:e3:7a:f9:0b:7e:e4:39:fe:43:77:c2:
         bf:31:b1:77:b0:7b:42:5d:83:fc:04:8e:18:4d:7f:a4:ab:33:
         1e:b7:99:b9:e1:54:46:1b:14:e7:f4:32:c5:e5:a2:68:40:70:
         de:6d:9a:db:1b:e7:40:d0:ef:fa:80:ee:c1:ca:2d:f7:d4:79:
         a1:29:6f:9f
-----BEGIN CERTIFICATE-----
MIIDdzCCAl+gAwIBAgIQE2kkdGvtaS+VAdKcAo7THzANBgkqhkiG9w0BAQsFADAW
MRQwEgYDVQQDDAt0ZWFtMTQ2LW5ldDAeFw0yMTA5MTMwMDA2MTNaFw0yNDA4Mjgw
MDA2MTNaMBkxFzAVBgNVBAMMDnRlYW0xNDYtc2VydmVyMIIBIjANBgkqhkiG9w0B
AQEFAAOCAQ8AMIIBCgKCAQEAxuLW1kdbuWzwNEq0qXDfuG7XYVbOqvXEJKGnlHdP
W77l4AQ5jzLqBDtJF5z3E4kCi5FNLUYqEuW/jTpaMK5nb4MLaG0YACIrcIhKECGa
7TltblFVKEdRgOLS/oCbMb9hTuTmHJAv6xPt1T9Dzg3G2qbeI2QedmwtGmFiNe7w
W5Ps7F4JQCpIsSRFd26grzvbVvHHGxXxXL4O1sWL2u/JAzzsG4UJcEFJbw5v0GB3
AGw5Iqq0Ei3BUldiLFjDTmke9BRIQucdkyFYxuc1amvhRBwv6TstPqmW52LVSiml
lRDrtGENKAW0x1wTAGwcNbEM5/PfYLOA5Cb3cGJ7PJ1c8QIDAQABo4G9MIG6MAkG
A1UdEwQCMAAwHQYDVR0OBBYEFFfsFdJax9c/aYC+rswMzgm3SLfQMFEGA1UdIwRK
MEiAFB+Yq2P7TunVf3W34Q3NMtQWI3M1oRqkGDAWMRQwEgYDVQQDDAt0ZWFtMTQ2
LW5ldIIUA0lkgY/WJaQB9HtjsczDK8LulvYwEwYDVR0lBAwwCgYIKwYBBQUHAwEw
CwYDVR0PBAQDAgWgMBkGA1UdEQQSMBCCDnRlYW0xNDYtc2VydmVyMA0GCSqGSIb3
DQEBCwUAA4IBAQCFSx/OjUNoQPFWU41Qd4tKDx3zzD2L4JJ2t5p5gqNp0j+jmSsq
pSHMX/4ymE5ma5y7v67dkg5SLVZ4a4PI89oCiziuH1Oqjv7kLIM61N8fENolAzVF
Ekv98qQVmDallOCZT02AvB0TlDlHW9l5J2ANqw53/1UobgNWFSodLV6OXDsqvJtu
iTubbptEnjtnEqlfWDqa3EMKDSad5kOXKTQzmcA/uWqmetT26Cs0WYbLsz8XEGLC
7Kw7BT9P43r5C37kOf5Dd8K/MbF3sHtCXYP8BI4YTX+kqzMet5m54VRGGxTn9DLF
5aJoQHDebZrbG+dA0O/6gO7Byi331HmhKW+f
-----END CERTIFICATE-----
