Certificate:
    Data:
        Version: 3 (0x2)
        Serial Number:
            21:6a:e1:33:a1:82:c6:b4:5a:1b:c3:41:02:71:32:f7
        Signature Algorithm: sha256WithRSAEncryption
        Issuer: CN=team146-net
        Validity
            Not Before: Sep 13 00:06:13 2021 GMT
            Not After : Aug 28 00:06:13 2024 GMT
        Subject: CN=team146-client
        Subject Public Key Info:
            Public Key Algorithm: rsaEncryption
                RSA Public-Key: (2048 bit)
                Modulus:
                    00:e8:68:b3:f3:e2:98:61:56:60:2b:90:6b:ae:5e:
                    be:37:73:70:cf:73:0d:da:62:28:73:1f:fc:0d:4d:
                    36:97:40:f3:1f:bb:bc:ea:37:3f:61:c0:8a:84:af:
                    4e:c1:de:32:b8:4f:50:de:67:86:52:cf:fc:c8:6e:
                    0b:a2:32:b1:52:73:9d:d8:e6:63:8c:c8:d1:79:41:
                    69:d0:85:38:04:d1:a3:6a:4e:f3:9d:1f:0e:23:0c:
                    fc:55:df:3f:12:bd:21:72:21:89:dd:72:01:73:a6:
                    07:5f:38:a0:7c:7e:a5:3b:bd:d8:00:c2:2a:37:bd:
                    d9:46:63:4e:9a:25:5f:66:a7:5e:ab:a2:70:21:d4:
                    97:83:2c:e1:f6:8d:8c:50:37:48:bf:62:de:c0:8b:
                    6f:0b:76:c1:13:64:ab:d4:e7:7c:56:4c:60:7f:8d:
                    95:56:a3:88:e4:46:f5:fd:7b:a1:c1:2b:4d:c2:c6:
                    6c:a1:df:d2:93:d8:56:42:55:4c:54:cf:9c:f4:de:
                    27:34:4e:0c:cd:83:f3:14:20:0a:4c:59:21:6b:97:
                    96:99:54:b4:d2:a3:f4:49:79:b7:ea:d9:08:21:54:
                    e6:e7:77:f5:b8:bc:cc:f7:4b:23:00:e4:e2:12:0d:
                    61:f3:d8:cd:43:5a:9b:a8:b3:f9:5f:9a:77:f4:b4:
                    dc:6b
                Exponent: 65537 (0x10001)
        X509v3 extensions:
            X509v3 Basic Constraints: 
                CA:FALSE
            X509v3 Subject Key Identifier: 
                0B:DC:CC:FD:7A:66:39:D8:69:B8:1D:E7:01:57:0D:99:AA:BD:C0:9E
            X509v3 Authority Key Identifier: 
                keyid:1F:98:AB:63:FB:4E:E9:D5:7F:75:B7:E1:0D:CD:32:D4:16:23:73:35
                DirName:/CN=team146-net
                serial:03:49:64:81:8F:D6:25:A4:01:F4:7B:63:B1:CC:C3:2B:C2:EE:96:F6

            X509v3 Extended Key Usage: 
                TLS Web Client Authentication
            X509v3 Key Usage: 
                Digital Signature
    Signature Algorithm: sha256WithRSAEncryption
         ab:0f:83:39:70:05:d1:4c:8a:2a:37:51:05:d8:19:83:02:3f:
         91:a7:e4:7b:99:21:e9:04:fb:5c:2b:c8:43:54:e8:96:65:42:
         84:e2:f1:96:1c:b8:4f:02:3a:7e:15:ed:f5:e3:f4:02:15:69:
         98:99:b3:a8:f9:47:70:e2:65:65:12:c5:d6:6d:63:ce:25:f0:
         b4:07:8c:7d:18:05:fa:a3:78:8e:c2:21:bc:3a:7a:d9:90:d4:
         a1:95:19:83:90:76:15:71:02:74:80:68:93:79:19:e7:33:b7:
         d2:a9:fc:b0:20:29:19:09:56:b1:ce:f0:e9:19:86:ad:5d:18:
         f4:eb:26:cc:5e:ce:c6:39:47:bb:da:4e:f8:ed:7f:64:34:1d:
         49:0c:56:68:0c:32:19:79:6c:b1:e5:dd:e2:c8:6c:2d:98:91:
         ad:a3:d8:ca:4f:d6:8a:f7:bb:54:98:c3:8c:03:93:8b:32:b4:
         11:e7:52:38:d8:d0:bb:55:e2:b5:90:db:79:04:62:c4:b5:99:
         dd:e0:58:81:99:f8:48:c0:78:a3:81:a7:2b:66:70:40:c8:91:
         85:d9:84:34:52:dc:a1:4d:2e:c9:64:6f:0f:61:da:d6:bb:ce:
         45:42:8f:f7:ab:f2:06:4d:dd:0d:03:16:3d:6e:87:6f:b3:52:
         7b:fa:a1:22
-----BEGIN CERTIFICATE-----
MIIDXDCCAkSgAwIBAgIQIWrhM6GCxrRaG8NBAnEy9zANBgkqhkiG9w0BAQsFADAW
MRQwEgYDVQQDDAt0ZWFtMTQ2LW5ldDAeFw0yMTA5MTMwMDA2MTNaFw0yNDA4Mjgw
MDA2MTNaMBkxFzAVBgNVBAMMDnRlYW0xNDYtY2xpZW50MIIBIjANBgkqhkiG9w0B
AQEFAAOCAQ8AMIIBCgKCAQEA6Giz8+KYYVZgK5Brrl6+N3Nwz3MN2mIocx/8DU02
l0DzH7u86jc/YcCKhK9Owd4yuE9Q3meGUs/8yG4LojKxUnOd2OZjjMjReUFp0IU4
BNGjak7znR8OIwz8Vd8/Er0hciGJ3XIBc6YHXzigfH6lO73YAMIqN73ZRmNOmiVf
Zqdeq6JwIdSXgyzh9o2MUDdIv2LewItvC3bBE2Sr1Od8Vkxgf42VVqOI5Eb1/Xuh
wStNwsZsod/Sk9hWQlVMVM+c9N4nNE4MzYPzFCAKTFkha5eWmVS00qP0SXm36tkI
IVTm53f1uLzM90sjAOTiEg1h89jNQ1qbqLP5X5p39LTcawIDAQABo4GiMIGfMAkG
A1UdEwQCMAAwHQYDVR0OBBYEFAvczP16ZjnYabgd5wFXDZmqvcCeMFEGA1UdIwRK
MEiAFB+Yq2P7TunVf3W34Q3NMtQWI3M1oRqkGDAWMRQwEgYDVQQDDAt0ZWFtMTQ2
LW5ldIIUA0lkgY/WJaQB9HtjsczDK8LulvYwEwYDVR0lBAwwCgYIKwYBBQUHAwIw
CwYDVR0PBAQDAgeAMA0GCSqGSIb3DQEBCwUAA4IBAQCrD4M5cAXRTIoqN1EF2BmD
Aj+Rp+R7mSHpBPtcK8hDVOiWZUKE4vGWHLhPAjp+Fe314/QCFWmYmbOo+Udw4mVl
EsXWbWPOJfC0B4x9GAX6o3iOwiG8OnrZkNShlRmDkHYVcQJ0gGiTeRnnM7fSqfyw
ICkZCVaxzvDpGYatXRj06ybMXs7GOUe72k747X9kNB1JDFZoDDIZeWyx5d3iyGwt
mJGto9jKT9aK97tUmMOMA5OLMrQR51I42NC7VeK1kNt5BGLEtZnd4FiBmfhIwHij
gacrZnBAyJGF2YQ0UtyhTS7JZG8PYdrWu85FQo/3q/IGTd0NAxY9bodvs1J7+qEi
-----END CERTIFICATE-----
