Certificate:
    Data:
        Version: 3 (0x2)
        Serial Number:
            2a:57:21:24:3c:57:ec:ee:80:57:f0:0c:39:ee:0e:e6
        Signature Algorithm: sha256WithRSAEncryption
        Issuer: CN=team412-net
        Validity
            Not Before: Sep 13 02:24:45 2021 GMT
            Not After : Aug 28 02:24:45 2024 GMT
        Subject: CN=team412-server
        Subject Public Key Info:
            Public Key Algorithm: rsaEncryption
                RSA Public-Key: (2048 bit)
                Modulus:
                    00:a5:1a:ec:85:24:00:4a:02:5d:57:1e:dc:de:97:
                    7f:db:93:ed:74:fb:ad:27:ce:c6:3e:a4:52:c8:f6:
                    f2:6a:3c:05:21:96:22:67:3a:98:b4:aa:f4:70:0a:
                    02:3d:aa:b0:fc:d1:25:8f:09:b5:7e:87:15:62:3f:
                    8d:e7:98:54:12:42:45:68:5b:62:f1:3c:68:2e:ca:
                    14:ba:4b:58:79:3b:d8:61:ee:58:59:08:e6:a5:23:
                    2d:37:7c:1d:30:0b:2f:f6:51:7b:03:52:62:c8:f5:
                    97:c3:fe:cc:2c:80:b7:8a:fd:ef:e2:d2:e1:96:84:
                    21:3b:f4:da:74:b6:8f:b6:82:29:ed:b5:35:2c:16:
                    d7:1e:03:cd:10:d9:4e:3a:84:0c:d3:2e:f1:9a:df:
                    b8:e5:8b:ec:ba:60:0a:99:64:98:53:b9:58:23:48:
                    84:ba:3e:b8:c3:20:7a:64:48:9e:72:9a:30:d4:37:
                    c2:a1:c5:0d:fe:93:9c:2a:d6:e0:70:3b:99:88:01:
                    0b:5b:12:e5:11:de:ca:bb:e2:38:82:54:f4:bd:a1:
                    0a:57:52:f2:43:57:e0:5f:c9:01:4f:c6:56:c1:bd:
                    2e:a0:ae:b9:34:d9:17:58:a5:20:d2:b8:61:dd:ff:
                    0b:ec:31:36:a5:d8:75:34:bf:8d:33:c4:37:8d:2a:
                    0f:29
                Exponent: 65537 (0x10001)
        X509v3 extensions:
            X509v3 Basic Constraints: 
                CA:FALSE
            X509v3 Subject Key Identifier: 
                DB:BC:2D:59:0B:40:7F:92:16:CE:71:C2:A2:81:3F:CF:2C:F9:2A:A3
            X509v3 Authority Key Identifier: 
                keyid:7C:7B:AE:DA:04:CC:30:AD:90:FA:0A:8E:8B:62:D6:B4:28:CB:D6:57
                DirName:/CN=team412-net
                serial:17:6F:A3:91:68:B4:00:83:A4:52:CB:C5:C2:97:EA:17:6E:2B:99:2C

            X509v3 Extended Key Usage: 
                TLS Web Server Authentication
            X509v3 Key Usage: 
                Digital Signature, Key Encipherment
            X509v3 Subject Alternative Name: 
                DNS:team412-server
    Signature Algorithm: sha256WithRSAEncryption
         a4:67:4a:dc:d8:4c:71:d3:26:5f:16:29:61:eb:a8:e5:2e:2b:
         6b:58:49:f3:6b:26:34:90:d7:c9:5c:3f:3a:b1:09:5a:fc:ad:
         a8:d1:5d:8f:2a:ca:13:06:02:c0:07:1e:cb:ba:61:85:47:5b:
         30:f0:5f:6d:b2:0e:27:f6:3f:2c:b3:ad:38:3a:d8:76:2c:75:
         17:32:7c:1f:a0:3e:ab:21:38:fa:7d:f3:a6:2b:53:29:d1:03:
         76:68:50:83:4f:8f:90:a0:f8:5b:3e:86:dc:7a:15:a1:aa:6e:
         69:ea:e1:0e:ae:ea:f6:dc:5b:51:07:e0:0c:0f:b8:cc:57:14:
         ae:16:cd:a4:5d:c1:93:c1:4a:86:73:ef:90:f9:07:db:85:78:
         fc:98:4d:b5:ad:ae:8e:01:4b:a8:a5:17:ab:df:e5:da:06:d3:
         89:59:0f:d7:ee:2e:e8:06:ea:1a:3d:db:04:eb:01:3a:68:36:
         1d:e5:04:28:2e:b9:9b:16:80:65:c4:2a:58:ea:1c:8b:fc:41:
         d6:ba:22:f2:8f:88:d8:e6:b8:cd:2a:2a:de:12:9b:4f:bb:fe:
         4e:41:46:5e:b4:2d:83:da:a8:6d:02:8b:9f:e8:0d:52:f3:58:
         f6:d0:8d:6a:9a:13:ad:ea:82:af:be:55:d9:12:9a:53:31:f2:
         08:74:c7:7f
-----BEGIN CERTIFICATE-----
MIIDdzCCAl+gAwIBAgIQKlchJDxX7O6AV/AMOe4O5jANBgkqhkiG9w0BAQsFADAW
MRQwEgYDVQQDDAt0ZWFtNDEyLW5ldDAeFw0yMTA5MTMwMjI0NDVaFw0yNDA4Mjgw
MjI0NDVaMBkxFzAVBgNVBAMMDnRlYW00MTItc2VydmVyMIIBIjANBgkqhkiG9w0B
AQEFAAOCAQ8AMIIBCgKCAQEApRrshSQASgJdVx7c3pd/25PtdPutJ87GPqRSyPby
ajwFIZYiZzqYtKr0cAoCPaqw/NEljwm1focVYj+N55hUEkJFaFti8TxoLsoUuktY
eTvYYe5YWQjmpSMtN3wdMAsv9lF7A1JiyPWXw/7MLIC3iv3v4tLhloQhO/TadLaP
toIp7bU1LBbXHgPNENlOOoQM0y7xmt+45YvsumAKmWSYU7lYI0iEuj64wyB6ZEie
cpow1DfCocUN/pOcKtbgcDuZiAELWxLlEd7Ku+I4glT0vaEKV1LyQ1fgX8kBT8ZW
wb0uoK65NNkXWKUg0rhh3f8L7DE2pdh1NL+NM8Q3jSoPKQIDAQABo4G9MIG6MAkG
A1UdEwQCMAAwHQYDVR0OBBYEFNu8LVkLQH+SFs5xwqKBP88s+SqjMFEGA1UdIwRK
MEiAFHx7rtoEzDCtkPoKjoti1rQoy9ZXoRqkGDAWMRQwEgYDVQQDDAt0ZWFtNDEy
LW5ldIIUF2+jkWi0AIOkUsvFwpfqF24rmSwwEwYDVR0lBAwwCgYIKwYBBQUHAwEw
CwYDVR0PBAQDAgWgMBkGA1UdEQQSMBCCDnRlYW00MTItc2VydmVyMA0GCSqGSIb3
DQEBCwUAA4IBAQCkZ0rc2Exx0yZfFilh66jlLitrWEnzayY0kNfJXD86sQla/K2o
0V2PKsoTBgLABx7LumGFR1sw8F9tsg4n9j8ss604Oth2LHUXMnwfoD6rITj6ffOm
K1Mp0QN2aFCDT4+QoPhbPobcehWhqm5p6uEOrur23FtRB+AMD7jMVxSuFs2kXcGT
wUqGc++Q+QfbhXj8mE21ra6OAUuopRer3+XaBtOJWQ/X7i7oBuoaPdsE6wE6aDYd
5QQoLrmbFoBlxCpY6hyL/EHWuiLyj4jY5rjNKireEptPu/5OQUZetC2D2qhtAouf
6A1S81j20I1qmhOt6oKvvlXZEppTMfIIdMd/
-----END CERTIFICATE-----
