Certificate:
    Data:
        Version: 3 (0x2)
        Serial Number:
            8f:f2:a7:e3:9b:97:67:79:af:1a:24:9c:45:d7:19:60
        Signature Algorithm: sha256WithRSAEncryption
        Issuer: CN=team89-net
        Validity
            Not Before: Sep 12 23:29:53 2021 GMT
            Not After : Aug 27 23:29:53 2024 GMT
        Subject: CN=team89-server
        Subject Public Key Info:
            Public Key Algorithm: rsaEncryption
                RSA Public-Key: (2048 bit)
                Modulus:
                    00:a4:ab:a6:54:ab:3e:26:e9:31:b6:ad:ee:aa:a1:
                    9d:ca:72:e3:5b:db:64:9e:a0:6e:ac:1a:94:71:8f:
                    96:fd:c9:ce:46:2b:8f:56:5b:5c:a3:38:5b:68:81:
                    f7:e5:86:0d:29:1d:fa:9c:cf:12:d6:f0:8c:79:37:
                    81:23:68:2b:a6:94:ef:4b:c1:14:5c:32:5f:7e:fc:
                    d7:84:0b:c5:91:86:7b:cd:34:69:44:18:b1:6a:bc:
                    70:7f:16:7e:49:48:d4:0c:71:1a:61:46:f2:fb:d3:
                    20:ac:66:6e:82:b7:19:98:59:74:8a:68:8b:be:db:
                    cd:47:c0:19:c2:f1:0c:2f:ec:7c:7e:5a:c2:6d:c0:
                    5b:a7:e0:98:2e:23:f7:71:c6:c3:9d:ae:f1:e8:bd:
                    c0:92:11:ae:1c:ba:b6:07:29:e5:4e:c2:ed:78:84:
                    5c:1e:92:23:e4:c7:c8:ea:7a:77:07:29:63:6d:76:
                    12:68:57:47:7b:e7:00:d5:15:9f:42:86:bb:4f:9a:
                    a8:8c:c6:6a:5d:59:ad:b2:b0:45:d1:ca:ea:13:d6:
                    40:b3:37:0b:d7:57:cf:e9:90:2c:4a:9a:c9:8f:da:
                    0a:8c:07:89:a6:49:6a:49:46:69:f6:f9:8e:15:d9:
                    d1:a7:1c:89:e4:4e:c2:cb:8c:0b:68:55:e6:58:ed:
                    6a:d1
                Exponent: 65537 (0x10001)
        X509v3 extensions:
            X509v3 Basic Constraints: 
                CA:FALSE
            X509v3 Subject Key Identifier: 
                3D:E8:44:56:94:28:79:85:C8:56:A1:86:76:19:7E:5A:50:80:7D:94
            X509v3 Authority Key Identifier: 
                keyid:36:C5:2B:7D:E0:A4:E1:5C:27:D9:74:3A:9F:8F:F6:C6:17:52:EF:AE
                DirName:/CN=team89-net
                serial:47:2E:86:B0:EC:95:E6:29:27:97:9B:53:69:E1:7E:6F:41:5D:32:F9

            X509v3 Extended Key Usage: 
                TLS Web Server Authentication
            X509v3 Key Usage: 
                Digital Signature, Key Encipherment
            X509v3 Subject Alternative Name: 
                DNS:team89-server
    Signature Algorithm: sha256WithRSAEncryption
         20:48:57:74:2c:a3:33:79:48:57:cc:ff:f3:6a:68:00:c5:f9:
         aa:50:28:54:b3:27:6d:10:85:a6:b3:a7:ea:a4:d0:59:ec:65:
         ab:8f:0c:45:65:d1:f8:6b:c0:a6:26:e5:04:16:6c:40:cc:ac:
         17:10:10:0d:30:f8:b1:89:17:fe:a4:21:61:57:20:12:05:86:
         80:75:b0:9a:dc:eb:19:59:4a:ec:07:d2:10:ed:68:66:6b:6e:
         12:c7:ed:f9:5f:1e:53:39:b5:f7:b6:02:6d:bc:b0:02:a4:1b:
         bf:e2:7b:71:81:ce:01:8d:cd:2f:ee:c2:2c:8d:45:a9:79:95:
         d8:c6:8a:a1:f7:7f:17:b0:53:46:e3:99:05:57:dd:c7:a3:2f:
         98:2a:cf:04:e8:ee:99:d4:f3:e6:d2:88:43:13:b6:bc:c0:d0:
         20:ab:b3:1d:98:0a:ce:21:6d:08:60:11:4a:b5:5a:31:09:44:
         2a:25:33:0f:1f:59:7d:38:a9:86:00:45:f5:88:8e:59:52:e1:
         bc:64:7f:58:03:08:dd:4a:ad:1d:7e:92:ab:3e:a2:6f:30:63:
         d2:f0:3a:3e:7a:4f:87:78:b7:ce:81:e9:ee:9e:cc:c3:3b:f6:
         7f:54:4c:20:10:60:a2:f5:bc:b9:7c:3a:24:78:6e:01:17:3c:
         50:99:be:06
-----BEGIN CERTIFICATE-----
MIIDdDCCAlygAwIBAgIRAI/yp+Obl2d5rxoknEXXGWAwDQYJKoZIhvcNAQELBQAw
FTETMBEGA1UEAwwKdGVhbTg5LW5ldDAeFw0yMTA5MTIyMzI5NTNaFw0yNDA4Mjcy
MzI5NTNaMBgxFjAUBgNVBAMMDXRlYW04OS1zZXJ2ZXIwggEiMA0GCSqGSIb3DQEB
AQUAA4IBDwAwggEKAoIBAQCkq6ZUqz4m6TG2re6qoZ3KcuNb22SeoG6sGpRxj5b9
yc5GK49WW1yjOFtogfflhg0pHfqczxLW8Ix5N4EjaCumlO9LwRRcMl9+/NeEC8WR
hnvNNGlEGLFqvHB/Fn5JSNQMcRphRvL70yCsZm6CtxmYWXSKaIu+281HwBnC8Qwv
7Hx+WsJtwFun4JguI/dxxsOdrvHovcCSEa4curYHKeVOwu14hFwekiPkx8jqencH
KWNtdhJoV0d75wDVFZ9ChrtPmqiMxmpdWa2ysEXRyuoT1kCzNwvXV8/pkCxKmsmP
2gqMB4mmSWpJRmn2+Y4V2dGnHInkTsLLjAtoVeZY7WrRAgMBAAGjgbswgbgwCQYD
VR0TBAIwADAdBgNVHQ4EFgQUPehEVpQoeYXIVqGGdhl+WlCAfZQwUAYDVR0jBEkw
R4AUNsUrfeCk4Vwn2XQ6n4/2xhdS766hGaQXMBUxEzARBgNVBAMMCnRlYW04OS1u
ZXSCFEcuhrDsleYpJ5ebU2nhfm9BXTL5MBMGA1UdJQQMMAoGCCsGAQUFBwMBMAsG
A1UdDwQEAwIFoDAYBgNVHREEETAPgg10ZWFtODktc2VydmVyMA0GCSqGSIb3DQEB
CwUAA4IBAQAgSFd0LKMzeUhXzP/zamgAxfmqUChUsydtEIWms6fqpNBZ7GWrjwxF
ZdH4a8CmJuUEFmxAzKwXEBANMPixiRf+pCFhVyASBYaAdbCa3OsZWUrsB9IQ7Whm
a24Sx+35Xx5TObX3tgJtvLACpBu/4ntxgc4Bjc0v7sIsjUWpeZXYxoqh938XsFNG
45kFV93Hoy+YKs8E6O6Z1PPm0ohDE7a8wNAgq7MdmArOIW0IYBFKtVoxCUQqJTMP
H1l9OKmGAEX1iI5ZUuG8ZH9YAwjdSq0dfpKrPqJvMGPS8Do+ek+HeLfOgenunszD
O/Z/VEwgEGCi9by5fDokeG4BFzxQmb4G
-----END CERTIFICATE-----
