Certificate:
    Data:
        Version: 3 (0x2)
        Serial Number:
            b5:bc:a5:61:b6:17:ec:5f:74:25:de:6c:4c:6c:08:65
        Signature Algorithm: sha256WithRSAEncryption
        Issuer: CN=team150-net
        Validity
            Not Before: Sep 13 00:04:51 2021 GMT
            Not After : Aug 28 00:04:51 2024 GMT
        Subject: CN=team150-server
        Subject Public Key Info:
            Public Key Algorithm: rsaEncryption
                RSA Public-Key: (2048 bit)
                Modulus:
                    00:e7:a0:be:e7:34:fb:4a:07:78:a3:2d:66:80:e6:
                    ba:3a:58:5a:fd:6e:75:76:79:09:30:95:be:86:5c:
                    31:1b:29:bb:1b:bb:6d:67:31:57:95:a6:b4:e0:d1:
                    74:1a:c6:d3:52:9a:d9:08:66:61:01:fa:38:f7:d2:
                    fb:cc:f7:ae:c9:04:e9:b4:9b:fd:72:3b:13:77:fe:
                    82:7f:c0:26:b8:0d:de:18:5e:fb:0c:86:37:1c:7f:
                    9d:6c:92:26:87:82:cf:8e:be:eb:22:87:98:64:24:
                    b6:29:69:6c:90:5e:aa:1e:dd:66:3d:aa:9c:eb:d8:
                    71:5a:4f:d5:eb:55:51:90:77:75:58:83:a3:4e:4f:
                    ea:b5:d8:33:5a:4a:e1:4b:7d:6a:7d:fb:fe:ef:17:
                    bb:76:eb:15:cf:40:b6:4f:75:ca:59:85:9d:ce:a8:
                    d1:de:9a:6d:35:58:aa:0e:46:9d:c5:4b:1b:af:81:
                    74:47:f8:b5:ed:2a:fd:f2:b2:33:8f:b0:2c:ac:92:
                    07:31:09:39:22:a9:ec:06:e2:ba:f8:8e:79:90:0f:
                    dc:1e:a2:cd:2e:3c:e5:bb:64:f4:c9:b1:04:ad:c7:
                    b6:01:02:cb:b8:c1:ae:21:72:89:09:33:96:54:68:
                    83:17:9b:9e:b9:2f:f3:4c:5c:2e:3e:81:25:aa:19:
                    c3:e9
                Exponent: 65537 (0x10001)
        X509v3 extensions:
            X509v3 Basic Constraints: 
                CA:FALSE
            X509v3 Subject Key Identifier: 
                D2:CC:A0:92:79:BE:10:88:1B:E3:FE:33:93:F2:51:5F:A4:2C:0D:83
            X509v3 Authority Key Identifier: 
                keyid:10:77:43:97:56:A3:3A:1B:96:27:5D:E6:4D:1B:AC:26:17:72:50:1A
                DirName:/CN=team150-net
                serial:1E:13:79:4E:06:AE:22:DB:33:4E:84:68:B5:AE:73:74:79:89:53:49

            X509v3 Extended Key Usage: 
                TLS Web Server Authentication
            X509v3 Key Usage: 
                Digital Signature, Key Encipherment
            X509v3 Subject Alternative Name: 
                DNS:team150-server
    Signature Algorithm: sha256WithRSAEncryption
         1c:9e:f0:cd:4e:88:c1:70:bb:32:52:7f:4f:ed:ec:01:22:69:
         4b:3f:1d:d5:da:53:04:d9:94:ad:7d:b5:9f:cc:85:bf:dc:56:
         0e:d3:f4:ca:76:89:ae:92:67:5e:67:92:06:94:33:8a:e8:7d:
         08:07:b0:fb:90:3e:b1:1c:df:06:20:d9:7f:07:4e:b5:2a:bb:
         c2:6f:e4:17:21:8a:9e:5d:66:72:30:dd:b0:07:fb:4e:23:4e:
         71:4e:06:81:46:04:30:7f:30:78:24:38:0a:28:4f:ac:81:60:
         06:50:25:76:ff:1e:85:aa:b0:2d:fe:51:14:ce:f9:5b:76:9e:
         03:75:68:58:6c:f9:46:08:06:31:fe:d1:b3:14:56:b5:6d:5a:
         d3:dd:42:6a:40:6c:bd:cf:0f:ff:25:3b:0f:20:9d:5f:7b:a1:
         00:1e:66:fc:60:45:87:59:ca:0f:5a:22:e4:e2:7f:02:65:f4:
         fb:61:bd:6d:0c:b2:ba:71:85:62:ec:4d:c5:af:42:bf:ae:8c:
         c6:3f:ce:5a:35:0a:78:2b:b7:3b:87:e6:e6:92:57:f2:fc:b6:
         9f:c2:83:07:84:06:bc:fd:69:26:0c:37:88:f5:cb:eb:2c:72:
         75:c3:af:9a:24:79:0f:d0:6e:f8:e7:11:e3:80:d9:a8:08:d7:
         07:16:a5:36
-----BEGIN CERTIFICATE-----
MIIDeDCCAmCgAwIBAgIRALW8pWG2F+xfdCXebExsCGUwDQYJKoZIhvcNAQELBQAw
FjEUMBIGA1UEAwwLdGVhbTE1MC1uZXQwHhcNMjEwOTEzMDAwNDUxWhcNMjQwODI4
MDAwNDUxWjAZMRcwFQYDVQQDDA50ZWFtMTUwLXNlcnZlcjCCASIwDQYJKoZIhvcN
AQEBBQADggEPADCCAQoCggEBAOegvuc0+0oHeKMtZoDmujpYWv1udXZ5CTCVvoZc
MRspuxu7bWcxV5WmtODRdBrG01Ka2QhmYQH6OPfS+8z3rskE6bSb/XI7E3f+gn/A
JrgN3hhe+wyGNxx/nWySJoeCz46+6yKHmGQktilpbJBeqh7dZj2qnOvYcVpP1etV
UZB3dViDo05P6rXYM1pK4Ut9an37/u8Xu3brFc9Atk91ylmFnc6o0d6abTVYqg5G
ncVLG6+BdEf4te0q/fKyM4+wLKySBzEJOSKp7AbiuviOeZAP3B6izS485btk9Mmx
BK3HtgECy7jBriFyiQkzllRogxebnrkv80xcLj6BJaoZw+kCAwEAAaOBvTCBujAJ
BgNVHRMEAjAAMB0GA1UdDgQWBBTSzKCSeb4QiBvj/jOT8lFfpCwNgzBRBgNVHSME
SjBIgBQQd0OXVqM6G5YnXeZNG6wmF3JQGqEapBgwFjEUMBIGA1UEAwwLdGVhbTE1
MC1uZXSCFB4TeU4GriLbM06EaLWuc3R5iVNJMBMGA1UdJQQMMAoGCCsGAQUFBwMB
MAsGA1UdDwQEAwIFoDAZBgNVHREEEjAQgg50ZWFtMTUwLXNlcnZlcjANBgkqhkiG
9w0BAQsFAAOCAQEAHJ7wzU6IwXC7MlJ/T+3sASJpSz8d1dpTBNmUrX21n8yFv9xW
DtP0ynaJrpJnXmeSBpQziuh9CAew+5A+sRzfBiDZfwdOtSq7wm/kFyGKnl1mcjDd
sAf7TiNOcU4GgUYEMH8weCQ4CihPrIFgBlAldv8ehaqwLf5RFM75W3aeA3VoWGz5
RggGMf7RsxRWtW1a091CakBsvc8P/yU7DyCdX3uhAB5m/GBFh1nKD1oi5OJ/AmX0
+2G9bQyyunGFYuxNxa9Cv66Mxj/OWjUKeCu3O4fm5pJX8vy2n8KDB4QGvP1pJgw3
iPXL6yxydcOvmiR5D9Bu+OcR44DZqAjXBxalNg==
-----END CERTIFICATE-----
