Certificate:
    Data:
        Version: 3 (0x2)
        Serial Number:
            ac:c8:3d:55:a3:0d:e8:bb:4e:76:6d:ff:a7:6f:2a:af
        Signature Algorithm: sha256WithRSAEncryption
        Issuer: CN=team338-net
        Validity
            Not Before: Sep 13 01:50:57 2021 GMT
            Not After : Aug 28 01:50:57 2024 GMT
        Subject: CN=team338-client
        Subject Public Key Info:
            Public Key Algorithm: rsaEncryption
                RSA Public-Key: (2048 bit)
                Modulus:
                    00:da:72:4a:01:b7:c7:4f:e7:60:fb:07:ff:57:99:
                    fc:c3:c1:b3:0d:04:d6:f7:a2:7c:a9:9b:56:97:e3:
                    47:89:6f:1d:55:1d:7e:6f:8f:d2:c7:45:d1:56:06:
                    f6:67:96:12:66:5d:88:3f:90:4f:20:90:54:9c:4c:
                    e5:3b:8a:3b:4e:01:46:4c:5e:48:66:25:56:a7:22:
                    e1:7e:25:83:95:1d:b2:60:3c:bc:d6:c5:f1:e4:86:
                    07:e4:0f:d3:0f:2c:3e:50:5e:1b:15:dd:a0:ca:59:
                    4c:db:b1:d5:5f:75:be:f3:0f:14:19:b6:e9:80:7d:
                    99:63:e0:c6:d4:2c:a6:15:6b:7c:71:82:50:5f:dc:
                    29:27:42:6a:94:68:eb:dc:46:7a:c3:9c:d7:22:45:
                    20:cd:4b:2d:74:8c:d3:3c:c4:f0:f0:7b:8d:12:ba:
                    25:60:9b:0e:17:85:87:5f:8b:33:eb:a7:4e:fa:2a:
                    5d:a1:ef:a3:e6:eb:2e:ac:40:48:ee:67:40:d3:cd:
                    d0:96:45:bc:92:6d:2c:42:52:60:4c:4f:79:60:43:
                    08:3b:f2:15:c7:23:c9:0d:eb:f7:d5:58:bf:58:83:
                    66:f6:a8:87:07:f5:b5:e8:a1:d8:da:ed:c3:38:c3:
                    31:80:25:15:47:b3:8b:a3:90:05:ce:d9:e8:de:f3:
                    6c:99
                Exponent: 65537 (0x10001)
        X509v3 extensions:
            X509v3 Basic Constraints: 
                CA:FALSE
            X509v3 Subject Key Identifier: 
                70:0C:46:F9:08:AC:D1:6D:79:6B:24:AF:7F:3B:5C:F6:5A:42:A0:F5
            X509v3 Authority Key Identifier: 
                keyid:60:26:F4:15:20:C1:D1:50:0F:8A:3E:FC:B7:CB:85:31:03:1F:6F:9A
                DirName:/CN=team338-net
                serial:64:53:04:C7:57:B7:CA:31:11:C2:0E:9B:AC:FD:F1:2D:80:FD:24:60

            X509v3 Extended Key Usage: 
                TLS Web Client Authentication
            X509v3 Key Usage: 
                Digital Signature
    Signature Algorithm: sha256WithRSAEncryption
         ca:25:63:ac:71:1f:92:3d:65:e7:55:74:ef:84:77:8f:88:4c:
         4b:22:79:f9:6e:63:11:11:c4:c6:00:c1:7f:0f:5a:41:c2:b0:
         f9:f1:70:2a:71:7c:95:23:6b:c2:cd:3b:5f:84:b9:ee:09:03:
         4d:3c:df:fe:b2:e3:d3:86:92:90:e9:f4:69:21:d5:f0:c6:8c:
         75:0e:d6:03:be:d0:0a:18:c5:07:58:18:9b:27:80:ef:e0:1e:
         07:db:57:a7:4e:3d:ac:18:5d:91:6c:01:f2:e3:64:f9:92:6b:
         e7:d9:4e:c4:c3:5c:4f:19:f1:30:6a:5e:1e:16:7e:ec:ba:8f:
         8d:f6:0b:6e:50:e2:72:09:9e:53:9e:e8:72:49:52:04:12:4f:
         1e:49:9e:22:68:40:ee:d8:47:de:c0:32:f7:28:56:5d:4f:f0:
         e9:76:f7:67:d6:26:a5:10:31:f9:45:9c:a3:eb:1e:32:6f:8d:
         ed:7b:cf:17:90:bd:12:63:c7:d8:06:71:73:8a:f6:90:b1:f5:
         95:f6:7c:ea:56:96:9a:f8:61:3f:0f:10:09:8b:47:ce:1c:44:
         36:a5:f7:90:30:e5:92:21:af:30:c7:a0:fb:63:84:e6:f5:a3:
         2d:ee:48:bd:e2:c5:a4:d3:cb:a8:96:48:0f:16:03:2d:7f:ea:
         f0:52:f9:d4
-----BEGIN CERTIFICATE-----
MIIDXTCCAkWgAwIBAgIRAKzIPVWjDei7TnZt/6dvKq8wDQYJKoZIhvcNAQELBQAw
FjEUMBIGA1UEAwwLdGVhbTMzOC1uZXQwHhcNMjEwOTEzMDE1MDU3WhcNMjQwODI4
MDE1MDU3WjAZMRcwFQYDVQQDDA50ZWFtMzM4LWNsaWVudDCCASIwDQYJKoZIhvcN
AQEBBQADggEPADCCAQoCggEBANpySgG3x0/nYPsH/1eZ/MPBsw0E1veifKmbVpfj
R4lvHVUdfm+P0sdF0VYG9meWEmZdiD+QTyCQVJxM5TuKO04BRkxeSGYlVqci4X4l
g5UdsmA8vNbF8eSGB+QP0w8sPlBeGxXdoMpZTNux1V91vvMPFBm26YB9mWPgxtQs
phVrfHGCUF/cKSdCapRo69xGesOc1yJFIM1LLXSM0zzE8PB7jRK6JWCbDheFh1+L
M+unTvoqXaHvo+brLqxASO5nQNPN0JZFvJJtLEJSYExPeWBDCDvyFccjyQ3r99VY
v1iDZvaohwf1teih2NrtwzjDMYAlFUezi6OQBc7Z6N7zbJkCAwEAAaOBojCBnzAJ
BgNVHRMEAjAAMB0GA1UdDgQWBBRwDEb5CKzRbXlrJK9/O1z2WkKg9TBRBgNVHSME
SjBIgBRgJvQVIMHRUA+KPvy3y4UxAx9vmqEapBgwFjEUMBIGA1UEAwwLdGVhbTMz
OC1uZXSCFGRTBMdXt8oxEcIOm6z98S2A/SRgMBMGA1UdJQQMMAoGCCsGAQUFBwMC
MAsGA1UdDwQEAwIHgDANBgkqhkiG9w0BAQsFAAOCAQEAyiVjrHEfkj1l51V074R3
j4hMSyJ5+W5jERHExgDBfw9aQcKw+fFwKnF8lSNrws07X4S57gkDTTzf/rLj04aS
kOn0aSHV8MaMdQ7WA77QChjFB1gYmyeA7+AeB9tXp049rBhdkWwB8uNk+ZJr59lO
xMNcTxnxMGpeHhZ+7LqPjfYLblDicgmeU57ocklSBBJPHkmeImhA7thH3sAy9yhW
XU/w6Xb3Z9YmpRAx+UWco+seMm+N7XvPF5C9EmPH2AZxc4r2kLH1lfZ86laWmvhh
Pw8QCYtHzhxENqX3kDDlkiGvMMeg+2OE5vWjLe5IveLFpNPLqJZIDxYDLX/q8FL5
1A==
-----END CERTIFICATE-----
