Certificate:
    Data:
        Version: 3 (0x2)
        Serial Number:
            23:b8:8e:f9:5f:29:90:3c:a9:52:7b:6c:0c:9c:aa:86
        Signature Algorithm: sha256WithRSAEncryption
        Issuer: CN=team680-net
        Validity
            Not Before: Sep 13 05:08:38 2021 GMT
            Not After : Aug 28 05:08:38 2024 GMT
        Subject: CN=team680-client
        Subject Public Key Info:
            Public Key Algorithm: rsaEncryption
                RSA Public-Key: (2048 bit)
                Modulus:
                    00:94:2f:ee:c9:96:c1:3d:3a:48:fa:26:af:24:37:
                    d2:c6:af:3d:9f:3a:c9:02:04:b2:92:e4:32:e4:1d:
                    bd:86:61:1a:49:f9:ca:f0:ba:4f:8d:fa:9c:c6:38:
                    0a:8f:80:82:5f:19:fe:97:2d:4a:8a:7b:89:f9:21:
                    67:2e:c8:db:07:9a:5f:93:69:b3:6d:dd:e4:25:e2:
                    7b:bc:75:08:84:b9:72:c0:b7:ec:b0:fb:e8:17:4d:
                    69:4c:3c:42:e1:3f:1b:3b:ff:3a:4e:00:8f:e0:c4:
                    91:aa:06:ed:c1:d0:52:0f:87:ce:7c:fb:59:e7:8f:
                    88:c9:2c:18:8d:17:8e:87:f5:2c:ab:b3:3e:57:e1:
                    75:ca:cf:2c:24:66:f5:ae:b6:74:30:aa:a6:15:22:
                    d8:8d:7f:40:c4:cb:08:b2:3e:58:9a:26:77:cc:43:
                    f7:c6:9b:d0:fc:2d:08:ee:ca:1e:f9:ca:ef:97:fa:
                    96:eb:59:5a:20:37:0f:fb:21:a9:a7:50:7c:84:6f:
                    9e:5c:45:72:f7:cb:b9:7f:08:35:fa:9e:49:db:b8:
                    3f:50:ac:2f:0e:88:3e:6d:83:df:fa:1b:af:44:74:
                    5a:77:97:f7:d9:ae:99:38:4f:72:bf:4e:96:7f:28:
                    98:b7:30:db:64:ed:a3:32:bc:d7:94:e1:a7:a1:3e:
                    3d:35
                Exponent: 65537 (0x10001)
        X509v3 extensions:
            X509v3 Basic Constraints: 
                CA:FALSE
            X509v3 Subject Key Identifier: 
                BD:31:A3:34:31:44:96:43:CF:26:53:1B:F0:11:0C:B7:33:42:D2:27
            X509v3 Authority Key Identifier: 
                keyid:E7:F4:18:A2:DE:EB:C3:8E:BA:DA:CE:7B:72:F0:17:39:D9:F6:02:01
                DirName:/CN=team680-net
                serial:1F:48:5E:9D:9B:43:F7:A0:33:26:EB:84:07:0C:A7:3E:89:FE:04:E8

            X509v3 Extended Key Usage: 
                TLS Web Client Authentication
            X509v3 Key Usage: 
                Digital Signature
    Signature Algorithm: sha256WithRSAEncryption
         25:34:4c:c8:1f:39:e2:5e:b4:f5:2a:18:e0:fd:b7:83:cd:ef:
         08:67:80:78:5f:8f:4e:67:ca:38:0f:dc:f5:15:97:17:aa:4b:
         d2:65:0e:c1:0b:c8:90:8a:ad:4b:1c:a3:59:5b:2a:53:37:6c:
         7e:e0:ae:2c:0c:38:1b:4b:50:86:95:c5:c7:92:fe:da:06:f2:
         cf:cc:2a:70:aa:1f:ee:ae:b3:72:33:38:27:38:6e:cd:dc:31:
         64:f0:3d:53:05:f2:09:e6:a4:ad:bd:8e:c0:89:37:e7:8f:7f:
         93:21:11:25:fd:b2:97:47:22:bd:d3:0b:41:0b:2e:3c:1b:38:
         e5:7b:08:7d:bf:00:72:7b:1d:43:59:5b:66:05:ff:d0:0b:b2:
         dd:93:9d:83:02:63:88:66:3a:46:ad:9d:12:1f:f3:b0:b9:69:
         fc:97:17:9c:47:71:cc:a6:c5:6b:f7:53:7f:3b:e3:9e:76:35:
         3f:d7:1f:ad:65:3b:4d:b6:fb:75:9c:71:e7:a6:18:f0:2f:75:
         bc:d9:18:86:30:75:e7:77:12:61:c8:3c:a7:2d:e4:d9:01:2c:
         03:89:9b:6c:0e:52:b6:ea:25:c0:47:3c:9b:29:83:c5:29:01:
         1e:04:74:2c:c7:d3:ac:69:36:6f:e3:ff:db:f7:05:d8:0b:6e:
         4b:8c:18:14
-----BEGIN CERTIFICATE-----
MIIDXDCCAkSgAwIBAgIQI7iO+V8pkDypUntsDJyqhjANBgkqhkiG9w0BAQsFADAW
MRQwEgYDVQQDDAt0ZWFtNjgwLW5ldDAeFw0yMTA5MTMwNTA4MzhaFw0yNDA4Mjgw
NTA4MzhaMBkxFzAVBgNVBAMMDnRlYW02ODAtY2xpZW50MIIBIjANBgkqhkiG9w0B
AQEFAAOCAQ8AMIIBCgKCAQEAlC/uyZbBPTpI+iavJDfSxq89nzrJAgSykuQy5B29
hmEaSfnK8LpPjfqcxjgKj4CCXxn+ly1KinuJ+SFnLsjbB5pfk2mzbd3kJeJ7vHUI
hLlywLfssPvoF01pTDxC4T8bO/86TgCP4MSRqgbtwdBSD4fOfPtZ54+IySwYjReO
h/Usq7M+V+F1ys8sJGb1rrZ0MKqmFSLYjX9AxMsIsj5YmiZ3zEP3xpvQ/C0I7soe
+crvl/qW61laIDcP+yGpp1B8hG+eXEVy98u5fwg1+p5J27g/UKwvDog+bYPf+huv
RHRad5f32a6ZOE9yv06WfyiYtzDbZO2jMrzXlOGnoT49NQIDAQABo4GiMIGfMAkG
A1UdEwQCMAAwHQYDVR0OBBYEFL0xozQxRJZDzyZTG/ARDLczQtInMFEGA1UdIwRK
MEiAFOf0GKLe68OOutrOe3LwFznZ9gIBoRqkGDAWMRQwEgYDVQQDDAt0ZWFtNjgw
LW5ldIIUH0henZtD96AzJuuEBwynPon+BOgwEwYDVR0lBAwwCgYIKwYBBQUHAwIw
CwYDVR0PBAQDAgeAMA0GCSqGSIb3DQEBCwUAA4IBAQAlNEzIHzniXrT1Khjg/beD
ze8IZ4B4X49OZ8o4D9z1FZcXqkvSZQ7BC8iQiq1LHKNZWypTN2x+4K4sDDgbS1CG
lcXHkv7aBvLPzCpwqh/urrNyMzgnOG7N3DFk8D1TBfIJ5qStvY7AiTfnj3+TIREl
/bKXRyK90wtBCy48Gzjlewh9vwByex1DWVtmBf/QC7Ldk52DAmOIZjpGrZ0SH/Ow
uWn8lxecR3HMpsVr91N/O+OedjU/1x+tZTtNtvt1nHHnphjwL3W82RiGMHXndxJh
yDynLeTZASwDiZtsDlK26iXARzybKYPFKQEeBHQsx9OsaTZv4//b9wXYC25LjBgU
-----END CERTIFICATE-----
