Certificate:
    Data:
        Version: 3 (0x2)
        Serial Number:
            3e:a0:a2:ee:59:26:f5:d8:2e:96:29:db:2b:ce:f5:c9
        Signature Algorithm: sha256WithRSAEncryption
        Issuer: CN=team680-net
        Validity
            Not Before: Sep 13 05:08:38 2021 GMT
            Not After : Aug 28 05:08:38 2024 GMT
        Subject: CN=team680-server
        Subject Public Key Info:
            Public Key Algorithm: rsaEncryption
                RSA Public-Key: (2048 bit)
                Modulus:
                    00:e1:6a:43:da:fb:c9:c2:78:46:03:e8:9e:60:2a:
                    ed:31:a9:53:61:f6:9f:02:21:a3:8d:62:c9:3d:28:
                    7a:24:c3:81:50:6d:6d:eb:3b:1a:bf:07:94:58:ad:
                    eb:d7:e1:5a:af:63:fa:7d:a1:7a:a0:f7:9a:4e:fb:
                    66:ea:3d:c2:d4:56:82:39:50:17:e8:ae:10:9a:b7:
                    f4:a0:82:66:fc:71:90:b7:af:ed:8f:74:00:3d:ae:
                    cb:7d:81:14:4a:dd:61:95:da:35:b8:03:98:17:3a:
                    e3:61:30:14:a9:73:00:6f:47:af:16:41:d2:17:28:
                    20:10:2c:84:77:f6:e5:fb:66:13:8a:de:9d:68:1c:
                    2f:1c:4c:7c:f8:5a:9c:b4:ed:41:e2:2a:96:7b:11:
                    4b:e8:67:9a:55:94:27:14:d4:c5:c1:e3:c6:44:3f:
                    4c:32:c2:98:c5:88:f6:06:4f:df:e2:f1:3e:b2:b8:
                    9e:e7:0d:55:b8:8b:0b:76:03:87:e2:de:20:79:5b:
                    6c:d2:9f:8a:ad:61:62:92:e8:cc:b8:09:48:92:14:
                    19:36:bc:bf:f3:0e:c3:9e:04:35:2c:32:db:01:de:
                    66:01:71:da:5a:08:1b:3e:96:44:40:de:0c:3e:e6:
                    a5:64:f3:bd:e4:f1:92:13:93:16:ec:2f:97:88:1a:
                    c1:0d
                Exponent: 65537 (0x10001)
        X509v3 extensions:
            X509v3 Basic Constraints: 
                CA:FALSE
            X509v3 Subject Key Identifier: 
                E7:6C:DD:8D:58:A9:28:01:E1:F1:E6:8B:4B:2B:F2:F7:60:61:AC:9C
            X509v3 Authority Key Identifier: 
                keyid:E7:F4:18:A2:DE:EB:C3:8E:BA:DA:CE:7B:72:F0:17:39:D9:F6:02:01
                DirName:/CN=team680-net
                serial:1F:48:5E:9D:9B:43:F7:A0:33:26:EB:84:07:0C:A7:3E:89:FE:04:E8

            X509v3 Extended Key Usage: 
                TLS Web Server Authentication
            X509v3 Key Usage: 
                Digital Signature, Key Encipherment
            X509v3 Subject Alternative Name: 
                DNS:team680-server
    Signature Algorithm: sha256WithRSAEncryption
         94:ad:e3:75:59:77:dc:78:cf:32:0d:4f:31:5d:4a:ca:12:27:
         08:72:18:59:24:07:47:91:5e:1d:a6:e2:94:46:11:ef:1c:e7:
         96:6b:71:e0:55:a5:9e:a6:ba:31:bf:73:ab:2f:01:eb:b7:75:
         86:a4:39:4a:18:df:b2:b3:14:4d:83:07:8e:82:05:11:d5:84:
         bb:d4:5c:c4:45:16:fe:9b:73:a4:80:29:eb:64:78:74:43:a3:
         65:fe:73:63:85:c8:b6:23:ab:db:07:3f:e3:e5:bf:a9:8b:1c:
         1b:43:29:dc:0d:a7:51:ca:e4:bc:2a:63:73:75:1b:22:49:2f:
         f6:a5:73:9d:22:4e:fc:0a:d0:ad:78:9c:0a:ef:48:8f:a9:64:
         5c:de:11:3e:48:92:80:c6:06:3f:60:fb:32:b8:64:7c:c5:11:
         e3:e6:09:77:b3:20:25:f5:b6:c1:7d:ee:9b:8b:a1:d1:37:cf:
         5f:0e:b0:d8:85:50:60:e8:9a:b0:50:21:ed:79:67:66:c2:6f:
         fd:a4:bb:b4:1c:13:ca:37:a1:67:2e:da:c2:fd:42:e2:e1:d2:
         92:57:c4:3b:16:ec:b6:3a:fb:a3:1f:c1:a2:84:8b:66:c5:00:
         85:73:c4:08:14:cf:26:33:1e:89:c7:f6:93:e3:7b:f5:50:dc:
         24:e2:89:88
-----BEGIN CERTIFICATE-----
MIIDdzCCAl+gAwIBAgIQPqCi7lkm9dgulinbK871yTANBgkqhkiG9w0BAQsFADAW
MRQwEgYDVQQDDAt0ZWFtNjgwLW5ldDAeFw0yMTA5MTMwNTA4MzhaFw0yNDA4Mjgw
NTA4MzhaMBkxFzAVBgNVBAMMDnRlYW02ODAtc2VydmVyMIIBIjANBgkqhkiG9w0B
AQEFAAOCAQ8AMIIBCgKCAQEA4WpD2vvJwnhGA+ieYCrtMalTYfafAiGjjWLJPSh6
JMOBUG1t6zsavweUWK3r1+Far2P6faF6oPeaTvtm6j3C1FaCOVAX6K4Qmrf0oIJm
/HGQt6/tj3QAPa7LfYEUSt1hldo1uAOYFzrjYTAUqXMAb0evFkHSFyggECyEd/bl
+2YTit6daBwvHEx8+FqctO1B4iqWexFL6GeaVZQnFNTFwePGRD9MMsKYxYj2Bk/f
4vE+srie5w1VuIsLdgOH4t4geVts0p+KrWFikujMuAlIkhQZNry/8w7DngQ1LDLb
Ad5mAXHaWggbPpZEQN4MPualZPO95PGSE5MW7C+XiBrBDQIDAQABo4G9MIG6MAkG
A1UdEwQCMAAwHQYDVR0OBBYEFOds3Y1YqSgB4fHmi0sr8vdgYaycMFEGA1UdIwRK
MEiAFOf0GKLe68OOutrOe3LwFznZ9gIBoRqkGDAWMRQwEgYDVQQDDAt0ZWFtNjgw
LW5ldIIUH0henZtD96AzJuuEBwynPon+BOgwEwYDVR0lBAwwCgYIKwYBBQUHAwEw
CwYDVR0PBAQDAgWgMBkGA1UdEQQSMBCCDnRlYW02ODAtc2VydmVyMA0GCSqGSIb3
DQEBCwUAA4IBAQCUreN1WXfceM8yDU8xXUrKEicIchhZJAdHkV4dpuKURhHvHOeW
a3HgVaWeproxv3OrLwHrt3WGpDlKGN+ysxRNgweOggUR1YS71FzERRb+m3OkgCnr
ZHh0Q6Nl/nNjhci2I6vbBz/j5b+pixwbQyncDadRyuS8KmNzdRsiSS/2pXOdIk78
CtCteJwK70iPqWRc3hE+SJKAxgY/YPsyuGR8xRHj5gl3syAl9bbBfe6bi6HRN89f
DrDYhVBg6JqwUCHteWdmwm/9pLu0HBPKN6FnLtrC/ULi4dKSV8Q7Fuy2OvujH8Gi
hItmxQCFc8QIFM8mMx6Jx/aT43v1UNwk4omI
-----END CERTIFICATE-----
