Certificate:
    Data:
        Version: 3 (0x2)
        Serial Number:
            93:87:0e:3e:20:00:cc:e6:1d:95:7f:e7:a3:88:ad:79
        Signature Algorithm: sha256WithRSAEncryption
        Issuer: CN=team165-net
        Validity
            Not Before: Sep 13 00:12:45 2021 GMT
            Not After : Aug 28 00:12:45 2024 GMT
        Subject: CN=team165-client
        Subject Public Key Info:
            Public Key Algorithm: rsaEncryption
                RSA Public-Key: (2048 bit)
                Modulus:
                    00:ad:7b:04:79:3a:7b:3a:18:88:dd:11:80:c6:9f:
                    86:d6:1f:10:8a:2b:10:4d:a8:2a:d3:a7:6d:3c:b8:
                    85:44:6e:c8:b8:c6:6f:8a:82:f7:2e:41:5f:53:a3:
                    77:03:1c:0c:f8:1c:22:05:9e:e6:cb:59:11:22:a4:
                    f5:c1:ca:b5:e2:a1:3e:7a:7d:c5:6d:77:f3:3b:bb:
                    69:0f:3c:70:75:dd:79:44:14:a1:fc:95:0c:37:b1:
                    3c:71:d7:74:41:37:f2:3f:cf:f5:bd:cb:54:30:88:
                    19:5c:97:af:8f:9a:c5:3c:d0:ef:6e:4e:00:43:89:
                    00:7c:27:26:a6:c2:73:93:17:30:08:c9:a3:38:cc:
                    f6:2b:92:be:89:94:71:2f:6b:76:f2:9c:9d:ec:e5:
                    8b:b2:b6:f3:29:47:f3:19:a8:f2:d9:02:0e:d8:4d:
                    ca:b5:c3:9f:9f:e3:03:a6:d8:9e:6d:2d:29:e4:3d:
                    2c:1e:ca:a3:42:34:d5:99:e0:0b:c4:21:c1:3d:77:
                    72:40:6e:74:2c:f4:03:7e:0d:f7:d2:46:f6:34:ae:
                    36:e1:93:d4:5b:45:c7:0f:4b:1b:88:bd:08:ff:87:
                    4c:be:cf:3f:95:57:b9:4e:c7:05:20:69:2a:38:8c:
                    e3:3e:85:3b:e2:97:15:ac:16:c5:cd:51:99:3d:9f:
                    10:3b
                Exponent: 65537 (0x10001)
        X509v3 extensions:
            X509v3 Basic Constraints: 
                CA:FALSE
            X509v3 Subject Key Identifier: 
                1E:09:7E:8C:1D:93:F9:A7:72:AD:9A:CC:34:A6:99:A6:6F:51:C9:D9
            X509v3 Authority Key Identifier: 
                keyid:75:B9:9F:5B:25:1A:F7:34:1A:55:DD:E9:F1:41:38:D5:AC:11:30:61
                DirName:/CN=team165-net
                serial:65:7A:57:AC:A5:2A:E0:C4:61:15:8E:DA:7C:26:4F:A5:24:C6:87:5B

            X509v3 Extended Key Usage: 
                TLS Web Client Authentication
            X509v3 Key Usage: 
                Digital Signature
    Signature Algorithm: sha256WithRSAEncryption
         bf:4a:26:0e:13:bd:63:9b:be:89:28:74:4e:c4:4d:1b:cb:b3:
         45:f3:4b:db:a5:1f:13:30:d3:7d:36:e2:fe:7f:77:77:f4:1c:
         11:2c:5d:5b:d8:6f:f5:28:e5:8a:4a:9d:3c:7c:c2:8e:fb:be:
         dd:70:72:04:d1:ca:4f:2f:17:37:ec:2c:4e:a2:e6:7e:5e:4b:
         03:fa:f3:d9:e5:8a:1c:27:4a:2b:6d:e7:ec:6b:13:d1:ce:13:
         10:a9:a8:67:ed:e7:86:49:07:a5:2b:e5:cd:36:21:76:3e:4b:
         e4:7e:66:cd:3f:5f:ce:ea:1a:17:a9:09:3f:3b:19:65:dc:f6:
         e8:36:c7:3b:6e:84:74:47:b1:ee:5a:9e:86:f2:a3:e2:44:0d:
         84:b2:78:b7:a5:e5:a5:26:51:54:33:98:4a:f7:a8:77:2f:7e:
         57:5f:98:f2:78:57:1a:ff:1e:f2:06:5b:d5:d6:46:06:20:3f:
         3f:f8:a9:1b:c8:bb:46:65:26:4b:41:78:46:0c:46:ca:be:01:
         90:df:25:1a:3a:a3:82:fd:7d:cb:4a:d0:b4:9c:11:74:85:f0:
         36:9b:72:33:95:bc:4d:df:4b:d3:af:cb:15:65:1b:ca:8b:4a:
         75:1c:c9:55:ae:90:1f:91:6b:d1:9f:2c:45:9f:10:67:ec:df:
         cf:d6:8f:bd
-----BEGIN CERTIFICATE-----
MIIDXTCCAkWgAwIBAgIRAJOHDj4gAMzmHZV/56OIrXkwDQYJKoZIhvcNAQELBQAw
FjEUMBIGA1UEAwwLdGVhbTE2NS1uZXQwHhcNMjEwOTEzMDAxMjQ1WhcNMjQwODI4
MDAxMjQ1WjAZMRcwFQYDVQQDDA50ZWFtMTY1LWNsaWVudDCCASIwDQYJKoZIhvcN
AQEBBQADggEPADCCAQoCggEBAK17BHk6ezoYiN0RgMafhtYfEIorEE2oKtOnbTy4
hURuyLjGb4qC9y5BX1OjdwMcDPgcIgWe5stZESKk9cHKteKhPnp9xW138zu7aQ88
cHXdeUQUofyVDDexPHHXdEE38j/P9b3LVDCIGVyXr4+axTzQ725OAEOJAHwnJqbC
c5MXMAjJozjM9iuSvomUcS9rdvKcnezli7K28ylH8xmo8tkCDthNyrXDn5/jA6bY
nm0tKeQ9LB7Ko0I01ZngC8QhwT13ckBudCz0A34N99JG9jSuNuGT1FtFxw9LG4i9
CP+HTL7PP5VXuU7HBSBpKjiM4z6FO+KXFawWxc1RmT2fEDsCAwEAAaOBojCBnzAJ
BgNVHRMEAjAAMB0GA1UdDgQWBBQeCX6MHZP5p3Ktmsw0ppmmb1HJ2TBRBgNVHSME
SjBIgBR1uZ9bJRr3NBpV3enxQTjVrBEwYaEapBgwFjEUMBIGA1UEAwwLdGVhbTE2
NS1uZXSCFGV6V6ylKuDEYRWO2nwmT6UkxodbMBMGA1UdJQQMMAoGCCsGAQUFBwMC
MAsGA1UdDwQEAwIHgDANBgkqhkiG9w0BAQsFAAOCAQEAv0omDhO9Y5u+iSh0TsRN
G8uzRfNL26UfEzDTfTbi/n93d/QcESxdW9hv9SjlikqdPHzCjvu+3XByBNHKTy8X
N+wsTqLmfl5LA/rz2eWKHCdKK23n7GsT0c4TEKmoZ+3nhkkHpSvlzTYhdj5L5H5m
zT9fzuoaF6kJPzsZZdz26DbHO26EdEex7lqehvKj4kQNhLJ4t6XlpSZRVDOYSveo
dy9+V1+Y8nhXGv8e8gZb1dZGBiA/P/ipG8i7RmUmS0F4RgxGyr4BkN8lGjqjgv19
y0rQtJwRdIXwNptyM5W8Td9L06/LFWUbyotKdRzJVa6QH5Fr0Z8sRZ8QZ+zfz9aP
vQ==
-----END CERTIFICATE-----
