Certificate:
    Data:
        Version: 3 (0x2)
        Serial Number:
            75:58:61:1f:e7:d5:99:de:25:fb:62:1c:73:56:f6:a4
        Signature Algorithm: sha256WithRSAEncryption
        Issuer: CN=team315-net
        Validity
            Not Before: Sep 13 01:38:55 2021 GMT
            Not After : Aug 28 01:38:55 2024 GMT
        Subject: CN=team315-client
        Subject Public Key Info:
            Public Key Algorithm: rsaEncryption
                RSA Public-Key: (2048 bit)
                Modulus:
                    00:9f:36:07:14:60:3c:7d:4d:66:28:39:80:10:1b:
                    07:83:38:71:7b:67:30:5d:1f:89:0e:10:a3:c7:7d:
                    ea:bb:7a:36:ed:75:5f:72:9c:55:89:dc:c7:29:0a:
                    55:c5:88:58:b6:ea:c1:a9:a6:72:90:92:46:55:18:
                    f7:fe:94:0a:96:66:b0:af:a2:85:0f:68:26:e2:43:
                    7f:4e:25:ef:c6:71:34:dc:7f:c4:e6:6b:ae:1c:4d:
                    6f:c0:72:ff:92:65:c7:8a:16:f5:1a:8e:15:98:c3:
                    39:f5:00:ca:7e:f7:29:99:9a:c9:c3:72:7e:01:c0:
                    60:26:4c:bf:f6:2c:3e:51:e9:64:8e:bb:32:4b:c1:
                    99:93:45:eb:35:dc:73:69:cb:e4:74:36:23:b6:84:
                    bf:c1:e4:d2:b6:16:53:5b:c6:e5:65:e8:85:55:3d:
                    bc:cc:2c:a8:e3:71:4a:24:cc:3f:da:e8:60:6e:47:
                    96:d3:a7:f6:6d:49:20:20:23:34:05:4f:b5:19:f8:
                    50:d9:4c:95:96:1d:88:b7:c6:f2:b1:1a:9b:eb:b6:
                    59:c7:54:20:a3:e9:18:1f:af:81:54:f3:57:31:f6:
                    ed:85:14:72:6c:a4:6f:08:e4:f4:8d:2d:9e:6f:0c:
                    88:c2:63:04:52:c3:21:69:20:29:1b:b3:18:61:f3:
                    49:31
                Exponent: 65537 (0x10001)
        X509v3 extensions:
            X509v3 Basic Constraints: 
                CA:FALSE
            X509v3 Subject Key Identifier: 
                54:BD:0F:43:51:A9:0C:18:1A:B7:F2:50:D6:E7:FA:4C:78:9F:87:10
            X509v3 Authority Key Identifier: 
                keyid:45:98:F2:48:11:98:A5:4E:F3:CE:FC:C3:CE:CE:4E:EF:29:3B:09:DD
                DirName:/CN=team315-net
                serial:24:BD:DF:90:92:4D:89:D9:10:2B:5C:67:89:41:44:39:B4:6E:62:21

            X509v3 Extended Key Usage: 
                TLS Web Client Authentication
            X509v3 Key Usage: 
                Digital Signature
    Signature Algorithm: sha256WithRSAEncryption
         75:92:c1:00:94:08:bc:52:8d:45:72:51:c2:4f:49:c5:e0:b2:
         3d:8e:6f:9d:a1:1a:98:49:f7:2f:6a:c4:38:2f:a0:66:4e:4f:
         08:d7:a5:d1:83:7a:02:92:d4:1c:32:d5:15:80:56:9c:86:00:
         4c:22:a2:92:b7:17:85:0b:63:a8:35:dc:fb:92:04:1d:22:89:
         31:76:38:b8:c0:93:3c:5b:c4:0a:b2:65:e6:eb:19:21:7f:7c:
         76:d7:16:47:d5:c8:80:4b:9e:af:a5:32:8a:7e:b1:92:b3:71:
         fe:67:d5:c7:02:4a:bb:bc:fe:06:fe:8c:38:a0:3b:c8:60:cf:
         65:91:a2:c8:23:26:6f:d8:f0:34:a7:f1:c1:af:dd:76:3a:53:
         3a:0f:85:e0:71:66:e4:6c:32:fe:d3:23:91:e4:a3:5b:f7:df:
         be:d6:39:f2:09:63:17:cf:e1:4c:a8:61:56:91:cd:21:4d:06:
         3c:e9:b6:40:eb:ab:71:f6:d9:eb:2b:86:98:99:0d:f9:a7:d1:
         e8:dd:e2:b8:2a:db:c4:e1:97:28:2f:d9:cb:53:5d:70:af:02:
         09:f2:b0:8d:1e:5e:3f:d0:3e:aa:e4:f3:d5:20:39:84:1b:8c:
         6a:2a:6f:2b:fc:f9:84:f3:d2:95:a5:10:7e:a1:8e:0d:0a:21:
         38:79:cb:30
-----BEGIN CERTIFICATE-----
MIIDXDCCAkSgAwIBAgIQdVhhH+fVmd4l+2Icc1b2pDANBgkqhkiG9w0BAQsFADAW
MRQwEgYDVQQDDAt0ZWFtMzE1LW5ldDAeFw0yMTA5MTMwMTM4NTVaFw0yNDA4Mjgw
MTM4NTVaMBkxFzAVBgNVBAMMDnRlYW0zMTUtY2xpZW50MIIBIjANBgkqhkiG9w0B
AQEFAAOCAQ8AMIIBCgKCAQEAnzYHFGA8fU1mKDmAEBsHgzhxe2cwXR+JDhCjx33q
u3o27XVfcpxVidzHKQpVxYhYturBqaZykJJGVRj3/pQKlmawr6KFD2gm4kN/TiXv
xnE03H/E5muuHE1vwHL/kmXHihb1Go4VmMM59QDKfvcpmZrJw3J+AcBgJky/9iw+
UelkjrsyS8GZk0XrNdxzacvkdDYjtoS/weTSthZTW8blZeiFVT28zCyo43FKJMw/
2uhgbkeW06f2bUkgICM0BU+1GfhQ2UyVlh2It8bysRqb67ZZx1Qgo+kYH6+BVPNX
MfbthRRybKRvCOT0jS2ebwyIwmMEUsMhaSApG7MYYfNJMQIDAQABo4GiMIGfMAkG
A1UdEwQCMAAwHQYDVR0OBBYEFFS9D0NRqQwYGrfyUNbn+kx4n4cQMFEGA1UdIwRK
MEiAFEWY8kgRmKVO8878w87OTu8pOwndoRqkGDAWMRQwEgYDVQQDDAt0ZWFtMzE1
LW5ldIIUJL3fkJJNidkQK1xniUFEObRuYiEwEwYDVR0lBAwwCgYIKwYBBQUHAwIw
CwYDVR0PBAQDAgeAMA0GCSqGSIb3DQEBCwUAA4IBAQB1ksEAlAi8Uo1FclHCT0nF
4LI9jm+doRqYSfcvasQ4L6BmTk8I16XRg3oCktQcMtUVgFachgBMIqKStxeFC2Oo
Ndz7kgQdIokxdji4wJM8W8QKsmXm6xkhf3x21xZH1ciAS56vpTKKfrGSs3H+Z9XH
Akq7vP4G/ow4oDvIYM9lkaLIIyZv2PA0p/HBr912OlM6D4XgcWbkbDL+0yOR5KNb
99++1jnyCWMXz+FMqGFWkc0hTQY86bZA66tx9tnrK4aYmQ35p9Ho3eK4KtvE4Zco
L9nLU11wrwIJ8rCNHl4/0D6q5PPVIDmEG4xqKm8r/PmE89KVpRB+oY4NCiE4ecsw
-----END CERTIFICATE-----
