Certificate:
    Data:
        Version: 3 (0x2)
        Serial Number:
            31:97:1b:d4:ca:ce:cf:ef:9f:12:21:ad:e5:9c:55:b7
        Signature Algorithm: sha256WithRSAEncryption
        Issuer: CN=team106-net
        Validity
            Not Before: Sep 12 23:39:10 2021 GMT
            Not After : Aug 27 23:39:10 2024 GMT
        Subject: CN=team106-client
        Subject Public Key Info:
            Public Key Algorithm: rsaEncryption
                RSA Public-Key: (2048 bit)
                Modulus:
                    00:c9:1e:b6:90:bc:8a:60:30:76:98:9e:50:60:24:
                    96:f7:72:fa:bb:a3:a9:97:6c:44:ca:10:c0:3c:0b:
                    58:72:0a:96:70:9f:a1:fa:4d:6b:dc:99:b8:e3:6d:
                    58:6e:2e:35:6f:4f:f2:ac:5e:93:db:fb:96:9c:e8:
                    4c:bc:5e:ad:2d:74:4e:d6:8e:35:f0:70:ff:72:0c:
                    88:3d:e6:53:44:28:f3:93:8e:ac:b8:21:e6:12:5a:
                    42:52:54:92:3a:a5:0e:51:61:32:86:f4:80:c3:d1:
                    fe:b9:6a:7d:3e:a2:3d:70:9f:28:e4:b7:7d:be:b5:
                    6f:f6:84:c1:00:15:07:52:80:7b:3f:9e:3d:a3:c8:
                    12:b3:30:df:50:9c:95:7c:17:7b:ff:92:13:65:b2:
                    99:be:ac:8e:ae:12:0c:33:98:81:a3:18:6f:d6:35:
                    3a:34:58:26:f3:b4:82:41:55:a8:46:4c:81:00:d5:
                    a8:9b:42:16:fe:c2:c9:ba:c1:de:ad:4b:2c:1e:ff:
                    88:b2:b2:ff:d8:f0:39:24:2c:f5:f6:3f:10:6c:f4:
                    e0:92:7f:95:c0:49:93:91:4e:d6:d8:ce:64:1b:f0:
                    ef:ff:55:cf:80:90:48:48:ea:39:c2:3a:c5:71:12:
                    b6:a1:cb:88:fb:c9:17:a4:d8:f1:4f:5c:aa:67:f4:
                    5c:95
                Exponent: 65537 (0x10001)
        X509v3 extensions:
            X509v3 Basic Constraints: 
                CA:FALSE
            X509v3 Subject Key Identifier: 
                89:75:82:AF:D1:98:E5:78:B6:1B:D2:20:30:85:E7:34:B7:DD:FB:49
            X509v3 Authority Key Identifier: 
                keyid:1B:F0:97:96:40:28:F5:DD:96:64:81:76:AC:17:87:93:53:08:AB:A0
                DirName:/CN=team106-net
                serial:48:0D:46:F2:CF:FE:66:7B:B4:E7:2A:F8:24:D3:8A:A6:DB:76:51:BD

            X509v3 Extended Key Usage: 
                TLS Web Client Authentication
            X509v3 Key Usage: 
                Digital Signature
    Signature Algorithm: sha256WithRSAEncryption
         29:bd:51:5a:8f:2d:9b:74:d9:ba:42:8b:c5:12:c7:65:7c:5b:
         0a:a2:ce:a5:48:d3:c0:68:2a:76:ad:25:26:37:8e:54:87:78:
         80:cf:99:35:3c:5f:00:af:0b:f8:d1:79:8f:fc:e0:91:6c:eb:
         12:d8:5a:63:10:ce:53:be:51:37:7a:1f:b6:a7:5c:8e:f6:ef:
         c3:1f:75:fc:07:94:70:e9:56:99:7f:1d:32:2e:ab:c7:03:fa:
         05:a2:31:57:2a:fb:83:fd:ce:14:20:a9:e5:a2:d2:4f:dc:6b:
         85:84:7b:c0:65:f4:a8:f8:43:6d:0f:0a:e0:bf:cd:98:12:d0:
         2e:8f:2f:76:b8:ee:62:f0:84:ff:5c:6c:32:2d:32:eb:47:6f:
         20:ac:ed:42:2d:5d:88:bb:ac:90:b2:df:21:b0:6a:19:bc:69:
         c5:e4:da:77:5a:1f:f3:15:37:5e:7a:08:6b:b5:46:44:0c:0f:
         fe:13:57:e4:f1:3f:ed:eb:7d:af:f5:48:00:e8:85:91:08:3c:
         0f:70:5c:fd:74:1f:12:85:c5:e5:54:20:ef:47:0a:03:60:dc:
         76:2f:17:ff:75:9b:bf:5e:a3:15:32:f8:fe:f1:24:69:61:6e:
         b1:d7:f8:c9:28:07:89:17:2b:41:4a:ad:0b:c6:e6:1c:39:92:
         78:2a:55:61
-----BEGIN CERTIFICATE-----
MIIDXDCCAkSgAwIBAgIQMZcb1MrOz++fEiGt5ZxVtzANBgkqhkiG9w0BAQsFADAW
MRQwEgYDVQQDDAt0ZWFtMTA2LW5ldDAeFw0yMTA5MTIyMzM5MTBaFw0yNDA4Mjcy
MzM5MTBaMBkxFzAVBgNVBAMMDnRlYW0xMDYtY2xpZW50MIIBIjANBgkqhkiG9w0B
AQEFAAOCAQ8AMIIBCgKCAQEAyR62kLyKYDB2mJ5QYCSW93L6u6Opl2xEyhDAPAtY
cgqWcJ+h+k1r3Jm4421Ybi41b0/yrF6T2/uWnOhMvF6tLXRO1o418HD/cgyIPeZT
RCjzk46suCHmElpCUlSSOqUOUWEyhvSAw9H+uWp9PqI9cJ8o5Ld9vrVv9oTBABUH
UoB7P549o8gSszDfUJyVfBd7/5ITZbKZvqyOrhIMM5iBoxhv1jU6NFgm87SCQVWo
RkyBANWom0IW/sLJusHerUssHv+IsrL/2PA5JCz19j8QbPTgkn+VwEmTkU7W2M5k
G/Dv/1XPgJBISOo5wjrFcRK2ocuI+8kXpNjxT1yqZ/RclQIDAQABo4GiMIGfMAkG
A1UdEwQCMAAwHQYDVR0OBBYEFIl1gq/RmOV4thvSIDCF5zS33ftJMFEGA1UdIwRK
MEiAFBvwl5ZAKPXdlmSBdqwXh5NTCKugoRqkGDAWMRQwEgYDVQQDDAt0ZWFtMTA2
LW5ldIIUSA1G8s/+Znu05yr4JNOKptt2Ub0wEwYDVR0lBAwwCgYIKwYBBQUHAwIw
CwYDVR0PBAQDAgeAMA0GCSqGSIb3DQEBCwUAA4IBAQApvVFajy2bdNm6QovFEsdl
fFsKos6lSNPAaCp2rSUmN45Uh3iAz5k1PF8Arwv40XmP/OCRbOsS2FpjEM5TvlE3
eh+2p1yO9u/DH3X8B5Rw6VaZfx0yLqvHA/oFojFXKvuD/c4UIKnlotJP3GuFhHvA
ZfSo+ENtDwrgv82YEtAujy92uO5i8IT/XGwyLTLrR28grO1CLV2Iu6yQst8hsGoZ
vGnF5Np3Wh/zFTdeeghrtUZEDA/+E1fk8T/t632v9UgA6IWRCDwPcFz9dB8ShcXl
VCDvRwoDYNx2Lxf/dZu/XqMVMvj+8SRpYW6x1/jJKAeJFytBSq0LxuYcOZJ4KlVh
-----END CERTIFICATE-----
