Certificate:
    Data:
        Version: 3 (0x2)
        Serial Number:
            4a:91:d6:1a:2c:6a:02:e9:95:63:0d:6e:24:25:9d:2e
        Signature Algorithm: sha256WithRSAEncryption
        Issuer: CN=team3-net
        Validity
            Not Before: Sep 12 22:36:56 2021 GMT
            Not After : Aug 27 22:36:56 2024 GMT
        Subject: CN=team3-client
        Subject Public Key Info:
            Public Key Algorithm: rsaEncryption
                RSA Public-Key: (2048 bit)
                Modulus:
                    00:b3:fb:bf:bc:29:6e:fa:57:c3:90:e5:a6:c1:ae:
                    9f:c5:ec:35:f5:ed:05:bc:fe:73:cb:4a:b1:6b:79:
                    72:ca:ce:c2:06:fb:bf:d4:5a:c1:86:93:09:bf:c0:
                    b3:29:3f:2a:0a:d7:9a:bf:02:fc:d5:df:4b:3e:7f:
                    e3:76:57:4e:3c:e1:15:9f:06:7d:0c:38:7a:e8:f1:
                    a1:2b:a1:c7:60:9f:77:f0:dd:fc:66:d1:dc:0f:41:
                    75:21:d2:32:d9:a1:f0:84:8c:c0:1e:19:25:0e:84:
                    37:2b:62:9c:e5:d3:a3:85:f8:f3:c4:a8:6c:80:85:
                    6a:2f:60:d7:ee:8e:8b:2c:7c:47:79:95:f2:8f:ff:
                    7c:24:d7:9b:7d:a9:9b:48:12:99:57:78:db:98:57:
                    9c:aa:7c:9c:83:5b:5e:75:ee:5f:c6:be:1e:1e:29:
                    6f:ed:1a:af:b9:c9:e7:7c:07:3e:cc:3d:80:fb:ec:
                    8b:fc:08:2d:b6:ba:3f:7a:1c:8a:fd:85:bb:5c:30:
                    48:2b:f9:1b:3b:83:3c:76:fa:49:99:5e:d8:57:15:
                    57:a1:28:d5:31:2e:f7:51:f5:c9:ec:12:3a:7a:d9:
                    ef:9b:19:fc:35:36:d0:80:1d:b8:87:d1:af:3c:0a:
                    c8:2c:43:5b:d6:cf:07:71:4b:cf:02:f7:f7:49:94:
                    3a:23
                Exponent: 65537 (0x10001)
        X509v3 extensions:
            X509v3 Basic Constraints: 
                CA:FALSE
            X509v3 Subject Key Identifier: 
                5F:29:DF:85:73:04:5E:44:3F:BB:4D:DE:CD:9A:DA:7F:06:2C:BF:4F
            X509v3 Authority Key Identifier: 
                keyid:D7:A6:1D:99:94:D2:F0:C7:1F:D1:9F:C7:D3:87:86:F6:CA:62:E7:CF
                DirName:/CN=team3-net
                serial:25:F3:FC:BC:A0:A9:03:01:DD:43:E1:11:59:24:47:0D:35:77:35:A5

            X509v3 Extended Key Usage: 
                TLS Web Client Authentication
            X509v3 Key Usage: 
                Digital Signature
    Signature Algorithm: sha256WithRSAEncryption
         34:47:a2:8f:4e:14:d2:aa:77:65:53:b9:d0:de:de:bb:bc:10:
         bf:9b:c3:1d:99:8e:b6:35:0f:bb:20:2a:85:b4:71:cf:fc:21:
         1d:9f:9c:91:7f:35:13:23:88:ec:f8:cf:e8:6e:8e:9a:05:2c:
         cd:37:92:f0:22:23:7a:d0:36:95:f7:d6:eb:85:b2:e2:30:fc:
         bf:6d:13:53:6b:40:3a:27:ae:5d:a6:ec:0b:76:6f:7a:6a:84:
         28:e0:a0:f1:ed:d7:02:3a:15:2a:f7:e7:ad:cb:47:1a:b0:ed:
         35:22:82:b2:c2:53:c9:af:e0:d2:3c:9a:12:5c:a0:76:d5:c7:
         da:63:ba:53:cb:3a:36:7a:ce:b2:f7:89:2c:46:f0:6c:94:64:
         83:dd:52:2e:3c:0e:40:6d:d3:1f:10:af:2c:15:4c:65:9b:c8:
         7c:cc:0d:e1:5f:55:47:e8:b5:d6:70:5c:26:e5:51:d1:3a:2d:
         01:43:91:16:41:60:0f:70:8b:ef:1f:7d:62:e2:d8:8a:49:91:
         f7:18:e0:00:87:4a:a3:82:0c:7c:a2:f4:5d:48:43:66:43:cb:
         cd:62:b5:2a:41:1f:72:c0:cc:be:f7:8f:46:3b:39:05:67:d0:
         47:25:77:62:71:7e:44:55:19:06:d8:5f:00:5c:3f:b1:b7:bf:
         80:f9:70:7d
-----BEGIN CERTIFICATE-----
MIIDVjCCAj6gAwIBAgIQSpHWGixqAumVYw1uJCWdLjANBgkqhkiG9w0BAQsFADAU
MRIwEAYDVQQDDAl0ZWFtMy1uZXQwHhcNMjEwOTEyMjIzNjU2WhcNMjQwODI3MjIz
NjU2WjAXMRUwEwYDVQQDDAx0ZWFtMy1jbGllbnQwggEiMA0GCSqGSIb3DQEBAQUA
A4IBDwAwggEKAoIBAQCz+7+8KW76V8OQ5abBrp/F7DX17QW8/nPLSrFreXLKzsIG
+7/UWsGGkwm/wLMpPyoK15q/AvzV30s+f+N2V0484RWfBn0MOHro8aErocdgn3fw
3fxm0dwPQXUh0jLZofCEjMAeGSUOhDcrYpzl06OF+PPEqGyAhWovYNfujossfEd5
lfKP/3wk15t9qZtIEplXeNuYV5yqfJyDW1517l/Gvh4eKW/tGq+5yed8Bz7MPYD7
7Iv8CC22uj96HIr9hbtcMEgr+Rs7gzx2+kmZXthXFVehKNUxLvdR9cnsEjp62e+b
Gfw1NtCAHbiH0a88CsgsQ1vWzwdxS88C9/dJlDojAgMBAAGjgaAwgZ0wCQYDVR0T
BAIwADAdBgNVHQ4EFgQUXynfhXMEXkQ/u03ezZrafwYsv08wTwYDVR0jBEgwRoAU
16YdmZTS8Mcf0Z/H04eG9spi58+hGKQWMBQxEjAQBgNVBAMMCXRlYW0zLW5ldIIU
JfP8vKCpAwHdQ+ERWSRHDTV3NaUwEwYDVR0lBAwwCgYIKwYBBQUHAwIwCwYDVR0P
BAQDAgeAMA0GCSqGSIb3DQEBCwUAA4IBAQA0R6KPThTSqndlU7nQ3t67vBC/m8Md
mY62NQ+7ICqFtHHP/CEdn5yRfzUTI4js+M/obo6aBSzNN5LwIiN60DaV99brhbLi
MPy/bRNTa0A6J65dpuwLdm96aoQo4KDx7dcCOhUq9+ety0casO01IoKywlPJr+DS
PJoSXKB21cfaY7pTyzo2es6y94ksRvBslGSD3VIuPA5AbdMfEK8sFUxlm8h8zA3h
X1VH6LXWcFwm5VHROi0BQ5EWQWAPcIvvH31i4tiKSZH3GOAAh0qjggx8ovRdSENm
Q8vNYrUqQR9ywMy+949GOzkFZ9BHJXdicX5EVRkG2F8AXD+xt7+A+XB9
-----END CERTIFICATE-----
