Certificate:
    Data:
        Version: 3 (0x2)
        Serial Number:
            bf:d7:71:79:2e:c4:70:a3:61:7c:0a:48:7a:11:1a:5c
        Signature Algorithm: sha256WithRSAEncryption
        Issuer: CN=team351-net
        Validity
            Not Before: Sep 13 01:59:45 2021 GMT
            Not After : Aug 28 01:59:45 2024 GMT
        Subject: CN=team351-client
        Subject Public Key Info:
            Public Key Algorithm: rsaEncryption
                RSA Public-Key: (2048 bit)
                Modulus:
                    00:d4:d7:83:91:36:b5:12:2b:ca:9b:a2:15:c3:51:
                    97:9e:6c:97:ee:a4:1e:6b:de:d3:38:b5:14:74:92:
                    75:4c:7a:b9:db:8a:a0:4e:11:b1:a2:ca:d3:8c:99:
                    87:98:26:c4:0a:01:5d:d7:01:d4:03:92:5a:30:22:
                    52:b4:58:7a:10:40:6f:6d:9c:39:66:ae:62:3f:59:
                    54:bf:d0:46:18:70:91:4e:77:ae:8e:52:c4:e0:1c:
                    84:c2:08:d1:8e:9d:f4:9e:29:2b:e3:da:6c:40:a4:
                    9a:d8:20:48:e5:cf:e5:93:0b:0c:d6:62:ef:18:89:
                    e0:6e:a1:c0:35:7c:8e:2e:b7:e9:36:27:65:a1:06:
                    5f:77:eb:1e:8b:18:0e:3b:f4:08:63:b5:40:ec:69:
                    6a:de:0e:4b:42:bd:ab:83:f9:42:c1:33:c2:4b:cf:
                    37:82:4c:0d:cd:8b:44:30:62:9c:8b:06:9d:c7:60:
                    3e:3c:80:69:0f:41:c7:3e:82:d9:58:11:1b:24:ec:
                    4f:b3:e0:d0:bc:e2:26:89:93:b8:67:a2:c4:89:45:
                    23:03:3a:c8:18:e5:f0:7f:c5:fd:db:06:f6:b3:a9:
                    11:3a:47:b5:65:a5:66:90:68:05:41:e0:68:ab:a9:
                    da:a2:c9:f7:ac:a5:4e:da:aa:02:23:4d:f2:bd:0f:
                    26:87
                Exponent: 65537 (0x10001)
        X509v3 extensions:
            X509v3 Basic Constraints: 
                CA:FALSE
            X509v3 Subject Key Identifier: 
                2C:F5:62:F4:DD:78:57:BB:CB:8A:A7:A8:CF:CC:2D:7D:34:0E:E1:D5
            X509v3 Authority Key Identifier: 
                keyid:6B:FA:8B:19:45:1E:52:5D:63:6B:AC:27:DD:F6:1F:FF:2C:D4:B7:58
                DirName:/CN=team351-net
                serial:62:CC:13:EB:DE:48:11:C7:44:85:5F:D3:FB:54:35:4C:D3:76:84:AC

            X509v3 Extended Key Usage: 
                TLS Web Client Authentication
            X509v3 Key Usage: 
                Digital Signature
    Signature Algorithm: sha256WithRSAEncryption
         98:69:56:e1:a5:b2:09:2d:7d:b9:15:dc:4d:77:42:3c:12:d7:
         1d:4b:4f:a3:0c:ee:2c:8b:b7:c3:68:b1:5b:4a:b1:53:38:b4:
         6c:d0:ed:38:1e:c4:0d:34:21:23:f2:c3:10:f5:e9:0e:ec:b6:
         c1:38:29:7a:be:6f:f5:73:92:66:95:cb:6a:82:6d:26:69:d1:
         d9:4f:21:fe:3b:f6:cd:e6:81:25:76:bd:c3:59:1c:78:76:02:
         8b:c7:0b:85:ef:85:1d:b4:77:4a:a5:0b:64:ac:5c:cd:24:dd:
         9e:02:a0:6a:d1:12:85:fb:a3:f3:88:ec:c1:7f:54:9f:92:0b:
         d4:73:b3:57:60:24:30:f4:34:7a:44:56:32:81:e8:c4:dc:1c:
         2d:5d:e8:cc:b0:58:f9:6c:b7:c6:34:5c:46:87:9b:26:a6:51:
         06:04:b4:94:ac:32:96:62:4b:89:fc:2e:a1:fa:05:a1:09:33:
         a9:87:d4:54:81:de:af:aa:97:a3:fd:b8:12:09:30:88:6d:02:
         92:b2:2d:04:72:e9:2c:1a:2d:93:82:a7:53:6a:8f:0b:83:b1:
         b3:1e:f0:13:fe:7e:e5:c4:fe:11:ba:ce:96:a5:73:72:f7:4d:
         92:fa:a2:9c:6e:5c:80:9a:57:4f:31:f1:18:d4:f7:38:06:a4:
         6e:4c:ff:e2
-----BEGIN CERTIFICATE-----
MIIDXTCCAkWgAwIBAgIRAL/XcXkuxHCjYXwKSHoRGlwwDQYJKoZIhvcNAQELBQAw
FjEUMBIGA1UEAwwLdGVhbTM1MS1uZXQwHhcNMjEwOTEzMDE1OTQ1WhcNMjQwODI4
MDE1OTQ1WjAZMRcwFQYDVQQDDA50ZWFtMzUxLWNsaWVudDCCASIwDQYJKoZIhvcN
AQEBBQADggEPADCCAQoCggEBANTXg5E2tRIrypuiFcNRl55sl+6kHmve0zi1FHSS
dUx6uduKoE4RsaLK04yZh5gmxAoBXdcB1AOSWjAiUrRYehBAb22cOWauYj9ZVL/Q
RhhwkU53ro5SxOAchMII0Y6d9J4pK+PabECkmtggSOXP5ZMLDNZi7xiJ4G6hwDV8
ji636TYnZaEGX3frHosYDjv0CGO1QOxpat4OS0K9q4P5QsEzwkvPN4JMDc2LRDBi
nIsGncdgPjyAaQ9Bxz6C2VgRGyTsT7Pg0LziJomTuGeixIlFIwM6yBjl8H/F/dsG
9rOpETpHtWWlZpBoBUHgaKup2qLJ96ylTtqqAiNN8r0PJocCAwEAAaOBojCBnzAJ
BgNVHRMEAjAAMB0GA1UdDgQWBBQs9WL03XhXu8uKp6jPzC19NA7h1TBRBgNVHSME
SjBIgBRr+osZRR5SXWNrrCfd9h//LNS3WKEapBgwFjEUMBIGA1UEAwwLdGVhbTM1
MS1uZXSCFGLME+veSBHHRIVf0/tUNUzTdoSsMBMGA1UdJQQMMAoGCCsGAQUFBwMC
MAsGA1UdDwQEAwIHgDANBgkqhkiG9w0BAQsFAAOCAQEAmGlW4aWyCS19uRXcTXdC
PBLXHUtPowzuLIu3w2ixW0qxUzi0bNDtOB7EDTQhI/LDEPXpDuy2wTgper5v9XOS
ZpXLaoJtJmnR2U8h/jv2zeaBJXa9w1kceHYCi8cLhe+FHbR3SqULZKxczSTdngKg
atEShfuj84jswX9Un5IL1HOzV2AkMPQ0ekRWMoHoxNwcLV3ozLBY+Wy3xjRcRoeb
JqZRBgS0lKwylmJLifwuofoFoQkzqYfUVIHer6qXo/24EgkwiG0CkrItBHLpLBot
k4KnU2qPC4Oxsx7wE/5+5cT+EbrOlqVzcvdNkvqinG5cgJpXTzHxGNT3OAakbkz/
4g==
-----END CERTIFICATE-----
