Certificate:
    Data:
        Version: 3 (0x2)
        Serial Number:
            04:cc:35:3f:a6:1b:72:c8:4c:b4:56:4a:c6:cd:f3:1c
        Signature Algorithm: sha256WithRSAEncryption
        Issuer: CN=team377-net
        Validity
            Not Before: Sep 13 02:10:26 2021 GMT
            Not After : Aug 28 02:10:26 2024 GMT
        Subject: CN=team377-server
        Subject Public Key Info:
            Public Key Algorithm: rsaEncryption
                RSA Public-Key: (2048 bit)
                Modulus:
                    00:ee:89:23:9b:49:4b:8a:fa:fc:f2:97:8e:eb:76:
                    ad:a2:33:0f:22:fb:1c:5a:7c:90:d8:a2:20:f0:1d:
                    b5:2a:54:7c:6d:33:06:5f:fa:ac:bf:49:a5:0a:ea:
                    1a:09:a0:39:3a:d5:7b:69:5f:a2:df:97:0d:f2:fd:
                    17:98:09:9e:c5:06:9e:39:59:aa:4a:10:5e:67:6c:
                    88:8c:fc:aa:17:52:75:c0:68:ce:9c:0d:02:7b:7d:
                    6e:47:d2:30:c2:98:ef:ab:ab:00:69:6e:32:14:6d:
                    9e:24:df:1d:38:f5:01:22:e8:e4:7c:ae:81:72:0f:
                    f5:45:97:df:59:28:6f:73:c5:5d:97:6a:da:c2:9f:
                    ce:2f:34:45:1a:fe:32:ef:3e:76:c1:d4:f5:9b:1a:
                    d9:55:a9:ac:1b:73:fc:b5:a7:c1:8c:6e:ad:08:95:
                    43:cb:53:c2:85:12:fc:69:b0:cf:b9:e9:0a:f9:63:
                    90:cc:53:78:e0:1d:14:17:41:e5:ec:09:c6:c3:ba:
                    e3:01:48:41:41:92:3f:06:7c:1b:d7:6d:82:cc:8b:
                    23:c7:bd:72:44:82:70:78:44:e3:b5:4d:a1:1b:ca:
                    b2:a6:89:99:f0:22:89:9e:95:e2:2c:0c:44:ee:f5:
                    b7:0e:44:3b:58:8b:fe:15:97:85:81:bb:47:8c:b9:
                    66:b9
                Exponent: 65537 (0x10001)
        X509v3 extensions:
            X509v3 Basic Constraints: 
                CA:FALSE
            X509v3 Subject Key Identifier: 
                33:11:61:69:A0:0B:70:DB:EC:66:A6:89:C4:5E:FC:0E:5F:81:DA:20
            X509v3 Authority Key Identifier: 
                keyid:38:9E:C6:BC:83:CB:D0:57:6A:E1:5E:CF:DF:3D:F7:97:19:5C:53:4B
                DirName:/CN=team377-net
                serial:0D:41:30:3B:E3:EE:89:53:39:95:B4:EF:56:A0:34:35:30:7B:EE:9A

            X509v3 Extended Key Usage: 
                TLS Web Server Authentication
            X509v3 Key Usage: 
                Digital Signature, Key Encipherment
            X509v3 Subject Alternative Name: 
                DNS:team377-server
    Signature Algorithm: sha256WithRSAEncryption
         9c:fa:a8:ac:26:d5:43:e0:cb:23:5f:86:a0:08:01:c5:9e:4d:
         a7:6b:b6:7d:30:b5:ae:38:f7:65:84:27:a9:95:43:d0:d0:d8:
         31:5f:19:f4:c3:7d:eb:d3:9b:6f:a4:ae:48:22:d3:51:85:2e:
         50:9a:95:cb:a8:61:d3:44:70:b2:56:cf:e3:e0:0b:19:c6:b8:
         9d:6b:1f:2c:3c:01:00:cb:ea:2a:00:64:24:9e:88:27:ec:9a:
         5e:82:4f:87:01:e6:9e:2e:f7:af:e6:a5:c9:2c:cf:a3:54:68:
         af:df:c2:62:2b:54:4c:42:25:2a:6a:e9:1d:d5:51:79:dd:16:
         37:76:20:51:6d:15:1a:4a:16:f0:a7:96:84:a9:0a:58:85:dc:
         05:5e:45:f0:b3:ed:e4:97:cc:ed:80:6e:16:cb:65:e9:d3:98:
         4b:d2:39:f3:6e:bd:b2:f0:43:52:7a:74:33:8a:db:4b:3f:b8:
         b5:b5:01:22:4a:11:ed:ef:59:7a:7e:db:e2:6f:9f:41:8f:15:
         a3:a2:9a:aa:d4:0b:8a:fc:e2:1f:d8:92:db:0e:5e:f5:f1:4b:
         69:b3:63:ed:f3:df:3f:6c:ee:c9:69:df:62:77:62:75:85:97:
         a0:33:e9:e8:3a:28:c9:3f:92:79:7b:50:4c:ad:1e:78:e1:21:
         1e:a8:79:61
-----BEGIN CERTIFICATE-----
MIIDdzCCAl+gAwIBAgIQBMw1P6YbcshMtFZKxs3zHDANBgkqhkiG9w0BAQsFADAW
MRQwEgYDVQQDDAt0ZWFtMzc3LW5ldDAeFw0yMTA5MTMwMjEwMjZaFw0yNDA4Mjgw
MjEwMjZaMBkxFzAVBgNVBAMMDnRlYW0zNzctc2VydmVyMIIBIjANBgkqhkiG9w0B
AQEFAAOCAQ8AMIIBCgKCAQEA7okjm0lLivr88peO63atojMPIvscWnyQ2KIg8B21
KlR8bTMGX/qsv0mlCuoaCaA5OtV7aV+i35cN8v0XmAmexQaeOVmqShBeZ2yIjPyq
F1J1wGjOnA0Ce31uR9Iwwpjvq6sAaW4yFG2eJN8dOPUBIujkfK6Bcg/1RZffWShv
c8Vdl2rawp/OLzRFGv4y7z52wdT1mxrZVamsG3P8tafBjG6tCJVDy1PChRL8abDP
uekK+WOQzFN44B0UF0Hl7AnGw7rjAUhBQZI/Bnwb122CzIsjx71yRIJweETjtU2h
G8qypomZ8CKJnpXiLAxE7vW3DkQ7WIv+FZeFgbtHjLlmuQIDAQABo4G9MIG6MAkG
A1UdEwQCMAAwHQYDVR0OBBYEFDMRYWmgC3Db7GamicRe/A5fgdogMFEGA1UdIwRK
MEiAFDiexryDy9BXauFez98995cZXFNLoRqkGDAWMRQwEgYDVQQDDAt0ZWFtMzc3
LW5ldIIUDUEwO+PuiVM5lbTvVqA0NTB77powEwYDVR0lBAwwCgYIKwYBBQUHAwEw
CwYDVR0PBAQDAgWgMBkGA1UdEQQSMBCCDnRlYW0zNzctc2VydmVyMA0GCSqGSIb3
DQEBCwUAA4IBAQCc+qisJtVD4MsjX4agCAHFnk2na7Z9MLWuOPdlhCeplUPQ0Ngx
Xxn0w33r05tvpK5IItNRhS5QmpXLqGHTRHCyVs/j4AsZxridax8sPAEAy+oqAGQk
nogn7Jpegk+HAeaeLvev5qXJLM+jVGiv38JiK1RMQiUqaukd1VF53RY3diBRbRUa
Shbwp5aEqQpYhdwFXkXws+3kl8ztgG4Wy2Xp05hL0jnzbr2y8ENSenQzittLP7i1
tQEiShHt71l6ftvib59BjxWjopqq1AuK/OIf2JLbDl718Utps2Pt898/bO7Jad9i
d2J1hZegM+noOijJP5J5e1BMrR544SEeqHlh
-----END CERTIFICATE-----
