Certificate:
    Data:
        Version: 3 (0x2)
        Serial Number:
            e6:a9:b8:ce:fc:17:e6:53:c1:be:28:59:ba:a7:12:9a
        Signature Algorithm: sha256WithRSAEncryption
        Issuer: CN=team377-net
        Validity
            Not Before: Sep 13 02:10:26 2021 GMT
            Not After : Aug 28 02:10:26 2024 GMT
        Subject: CN=team377-client
        Subject Public Key Info:
            Public Key Algorithm: rsaEncryption
                RSA Public-Key: (2048 bit)
                Modulus:
                    00:d9:ca:87:b7:ba:90:2c:2e:9d:52:58:10:ac:2e:
                    28:6a:8c:c4:5a:b7:a9:dd:5d:5e:63:ab:90:3d:29:
                    d5:05:e1:cd:14:ed:e0:39:c9:0c:6c:f3:41:cc:ac:
                    b7:d6:b2:66:da:79:65:9e:7c:09:26:96:ce:82:2c:
                    eb:77:68:6b:6c:2c:af:ce:1d:58:66:d4:89:95:52:
                    bb:82:56:e5:01:0a:6c:6c:b7:e5:52:4f:49:0f:ef:
                    f1:70:ff:e4:d1:bb:c7:d2:ff:c6:2b:1a:3e:d9:ca:
                    c0:16:07:18:9c:64:24:e2:c7:f5:74:de:49:77:2d:
                    e0:cf:53:a3:40:1f:ee:5a:39:c1:d1:3c:a9:26:57:
                    23:ea:38:1f:d0:06:da:3c:1b:eb:75:15:e0:97:0c:
                    6b:1f:6a:01:98:26:db:57:25:c8:d0:e9:c4:f2:1b:
                    19:eb:b4:26:ab:f5:c0:b5:ca:88:6f:1f:ef:65:27:
                    b7:2a:75:83:61:fe:6e:4a:8c:22:6f:16:14:e4:fd:
                    2a:fb:fe:84:fe:30:c9:1a:11:db:2b:a2:ad:4a:b3:
                    f6:10:bb:c0:96:bf:f6:89:3d:c6:50:3d:28:f0:6b:
                    c8:2e:27:f7:03:b9:c6:e0:6d:ba:f1:e1:8f:c1:7d:
                    98:11:76:f6:bb:cf:10:cb:1f:fb:fe:87:7d:c6:07:
                    1e:31
                Exponent: 65537 (0x10001)
        X509v3 extensions:
            X509v3 Basic Constraints: 
                CA:FALSE
            X509v3 Subject Key Identifier: 
                51:03:AB:D1:10:93:F4:1B:A4:16:B4:D4:81:E7:2F:86:4E:40:6D:8F
            X509v3 Authority Key Identifier: 
                keyid:38:9E:C6:BC:83:CB:D0:57:6A:E1:5E:CF:DF:3D:F7:97:19:5C:53:4B
                DirName:/CN=team377-net
                serial:0D:41:30:3B:E3:EE:89:53:39:95:B4:EF:56:A0:34:35:30:7B:EE:9A

            X509v3 Extended Key Usage: 
                TLS Web Client Authentication
            X509v3 Key Usage: 
                Digital Signature
    Signature Algorithm: sha256WithRSAEncryption
         3f:bd:bf:26:07:47:11:d6:84:0e:11:27:de:30:51:1b:a5:06:
         82:fa:96:a7:c2:fa:c4:20:43:aa:02:02:e7:3b:cf:39:fc:2d:
         8b:f6:31:8b:59:cc:88:51:29:fe:9f:f0:a5:8a:b0:39:e7:42:
         7e:e7:76:8d:b6:1e:f0:5c:f7:c2:91:bb:8a:05:4c:39:94:62:
         5f:d1:0e:11:22:48:a9:04:20:94:76:41:02:d6:23:0e:f1:a9:
         47:8a:57:45:29:1b:8f:82:5d:fb:e0:c1:73:f2:74:2b:40:22:
         fd:bf:0a:88:b8:10:3e:b8:fd:30:41:32:94:37:09:79:e6:34:
         be:43:71:47:24:00:32:2c:8d:76:db:eb:ce:46:53:01:c3:9f:
         95:8d:0f:db:20:2b:f4:8c:46:23:fe:eb:00:98:e1:b6:7f:a9:
         4c:38:88:23:ff:f1:ec:a0:60:1d:84:f9:85:fb:17:f1:ee:36:
         50:f4:43:36:7c:8d:c5:21:a0:f3:58:bc:01:24:2b:56:aa:fc:
         48:e1:68:9b:03:d9:48:b3:b4:25:da:af:fb:d8:94:17:f5:cd:
         6c:a8:2e:58:01:16:29:5d:f0:28:2f:40:71:f4:b2:45:e4:d1:
         05:53:c2:1d:6f:4a:70:a3:44:ba:13:9e:ad:c2:24:4f:49:42:
         a3:c7:72:3a
-----BEGIN CERTIFICATE-----
MIIDXTCCAkWgAwIBAgIRAOapuM78F+ZTwb4oWbqnEpowDQYJKoZIhvcNAQELBQAw
FjEUMBIGA1UEAwwLdGVhbTM3Ny1uZXQwHhcNMjEwOTEzMDIxMDI2WhcNMjQwODI4
MDIxMDI2WjAZMRcwFQYDVQQDDA50ZWFtMzc3LWNsaWVudDCCASIwDQYJKoZIhvcN
AQEBBQADggEPADCCAQoCggEBANnKh7e6kCwunVJYEKwuKGqMxFq3qd1dXmOrkD0p
1QXhzRTt4DnJDGzzQcyst9ayZtp5ZZ58CSaWzoIs63doa2wsr84dWGbUiZVSu4JW
5QEKbGy35VJPSQ/v8XD/5NG7x9L/xisaPtnKwBYHGJxkJOLH9XTeSXct4M9To0Af
7lo5wdE8qSZXI+o4H9AG2jwb63UV4JcMax9qAZgm21clyNDpxPIbGeu0Jqv1wLXK
iG8f72Untyp1g2H+bkqMIm8WFOT9Kvv+hP4wyRoR2yuirUqz9hC7wJa/9ok9xlA9
KPBryC4n9wO5xuBtuvHhj8F9mBF29rvPEMsf+/6HfcYHHjECAwEAAaOBojCBnzAJ
BgNVHRMEAjAAMB0GA1UdDgQWBBRRA6vREJP0G6QWtNSB5y+GTkBtjzBRBgNVHSME
SjBIgBQ4nsa8g8vQV2rhXs/fPfeXGVxTS6EapBgwFjEUMBIGA1UEAwwLdGVhbTM3
Ny1uZXSCFA1BMDvj7olTOZW071agNDUwe+6aMBMGA1UdJQQMMAoGCCsGAQUFBwMC
MAsGA1UdDwQEAwIHgDANBgkqhkiG9w0BAQsFAAOCAQEAP72/JgdHEdaEDhEn3jBR
G6UGgvqWp8L6xCBDqgIC5zvPOfwti/Yxi1nMiFEp/p/wpYqwOedCfud2jbYe8Fz3
wpG7igVMOZRiX9EOESJIqQQglHZBAtYjDvGpR4pXRSkbj4Jd++DBc/J0K0Ai/b8K
iLgQPrj9MEEylDcJeeY0vkNxRyQAMiyNdtvrzkZTAcOflY0P2yAr9IxGI/7rAJjh
tn+pTDiII//x7KBgHYT5hfsX8e42UPRDNnyNxSGg81i8ASQrVqr8SOFomwPZSLO0
Jdqv+9iUF/XNbKguWAEWKV3wKC9AcfSyReTRBVPCHW9KcKNEuhOercIkT0lCo8dy
Og==
-----END CERTIFICATE-----
