Certificate:
    Data:
        Version: 3 (0x2)
        Serial Number:
            05:7b:a6:2f:84:dd:9c:28:e2:e6:f9:44:bd:40:6b:7a
        Signature Algorithm: sha256WithRSAEncryption
        Issuer: CN=team668-net
        Validity
            Not Before: Sep 13 04:58:33 2021 GMT
            Not After : Aug 28 04:58:33 2024 GMT
        Subject: CN=team668-client
        Subject Public Key Info:
            Public Key Algorithm: rsaEncryption
                RSA Public-Key: (2048 bit)
                Modulus:
                    00:d0:25:ce:ef:79:63:8a:40:ae:14:b9:01:00:73:
                    46:23:a5:46:11:e8:9b:62:89:23:e2:5d:16:b8:81:
                    f7:e8:ff:33:23:c5:6e:73:ff:2c:58:58:b7:a6:87:
                    fc:0b:de:93:cc:3d:ea:ee:e6:4a:73:ae:ba:35:b3:
                    0a:ba:f0:e7:9f:53:d7:e6:89:8c:f0:5d:d1:bc:14:
                    d1:bc:63:1b:a1:09:3c:19:a7:b8:ff:29:1a:58:0b:
                    bd:83:85:5d:a9:61:9a:27:65:69:c8:61:06:a8:ba:
                    6b:84:87:6a:33:47:9f:1b:c6:17:86:9e:59:11:72:
                    b8:4b:78:d8:d2:60:44:18:ec:47:77:ea:36:8f:a1:
                    cf:76:6b:5e:44:11:e0:5b:68:6f:2b:01:23:33:b4:
                    a9:5b:92:1e:dd:6b:89:2f:35:4a:35:5c:de:bf:2c:
                    40:a0:54:c8:3c:6e:3b:9c:6e:d4:01:58:0c:86:97:
                    6b:65:34:d9:f4:67:1f:e0:a0:9a:cb:de:34:fa:b4:
                    0d:8c:3a:45:06:e7:ff:02:7c:95:e2:1f:11:9a:e1:
                    c5:c3:36:10:49:c3:98:3d:ba:8d:a0:5a:d0:6c:b1:
                    0b:d6:c3:09:09:af:2c:6c:eb:99:97:0d:a9:7f:57:
                    52:54:b2:38:9d:3f:c2:8a:3f:46:34:76:5e:ad:f5:
                    1b:87
                Exponent: 65537 (0x10001)
        X509v3 extensions:
            X509v3 Basic Constraints: 
                CA:FALSE
            X509v3 Subject Key Identifier: 
                FC:F1:0C:8A:69:61:A6:DA:F1:8D:AB:5B:8D:DA:DD:89:F6:6F:EA:3C
            X509v3 Authority Key Identifier: 
                keyid:0F:D7:90:9E:9D:28:DC:E0:6F:95:61:34:20:5E:51:9F:50:E8:BD:25
                DirName:/CN=team668-net
                serial:7C:5A:23:1E:28:0A:13:45:D6:9E:39:BE:B5:5D:2A:33:E5:76:5F:C4

            X509v3 Extended Key Usage: 
                TLS Web Client Authentication
            X509v3 Key Usage: 
                Digital Signature
    Signature Algorithm: sha256WithRSAEncryption
         4f:99:d7:ad:0d:eb:17:4c:bf:d2:5d:1c:03:91:04:c2:8a:68:
         06:c5:b8:64:fe:a5:ed:53:bb:20:a4:27:dc:6f:58:9d:d1:7e:
         85:18:3e:09:9d:38:76:ae:1d:50:6e:b0:1c:f9:d2:71:c8:64:
         1f:e0:73:f2:4b:41:99:36:bb:10:dc:b9:83:55:d1:03:ed:18:
         92:55:f3:b7:74:26:d0:1f:f1:02:19:8c:ea:f5:07:92:39:46:
         a0:fc:50:18:20:a2:20:60:dd:ed:ff:b7:fb:19:a6:ae:52:5b:
         79:f1:fb:81:a0:4a:86:81:9f:20:4f:85:a8:ef:8a:4d:96:f3:
         4e:0e:9d:0f:4c:f7:52:f9:c9:33:c8:5f:af:dc:57:86:ac:cb:
         17:2d:d9:d2:8d:45:16:c4:47:43:cb:9f:70:df:3c:a2:0c:82:
         33:e4:63:57:f2:03:76:27:7e:ce:c3:e7:ec:32:a0:7f:af:c0:
         a6:ec:d1:e9:ad:25:31:91:37:35:ea:52:38:e1:ed:6b:26:2a:
         e5:66:3b:86:8e:36:93:d8:50:80:5c:66:bd:e8:85:6a:74:4d:
         78:3e:3d:e6:b6:bc:bd:7c:f4:95:fd:6d:ff:33:ca:e3:bb:c1:
         3c:cc:0a:37:dc:a1:ac:ed:3f:f4:17:df:b3:17:18:ca:61:ec:
         81:c3:83:7c
-----BEGIN CERTIFICATE-----
MIIDXDCCAkSgAwIBAgIQBXumL4TdnCji5vlEvUBrejANBgkqhkiG9w0BAQsFADAW
MRQwEgYDVQQDDAt0ZWFtNjY4LW5ldDAeFw0yMTA5MTMwNDU4MzNaFw0yNDA4Mjgw
NDU4MzNaMBkxFzAVBgNVBAMMDnRlYW02NjgtY2xpZW50MIIBIjANBgkqhkiG9w0B
AQEFAAOCAQ8AMIIBCgKCAQEA0CXO73ljikCuFLkBAHNGI6VGEeibYokj4l0WuIH3
6P8zI8Vuc/8sWFi3pof8C96TzD3q7uZKc666NbMKuvDnn1PX5omM8F3RvBTRvGMb
oQk8Gae4/ykaWAu9g4VdqWGaJ2VpyGEGqLprhIdqM0efG8YXhp5ZEXK4S3jY0mBE
GOxHd+o2j6HPdmteRBHgW2hvKwEjM7SpW5Ie3WuJLzVKNVzevyxAoFTIPG47nG7U
AVgMhpdrZTTZ9Gcf4KCay940+rQNjDpFBuf/AnyV4h8RmuHFwzYQScOYPbqNoFrQ
bLEL1sMJCa8sbOuZlw2pf1dSVLI4nT/Cij9GNHZerfUbhwIDAQABo4GiMIGfMAkG
A1UdEwQCMAAwHQYDVR0OBBYEFPzxDIppYaba8Y2rW43a3Yn2b+o8MFEGA1UdIwRK
MEiAFA/XkJ6dKNzgb5VhNCBeUZ9Q6L0loRqkGDAWMRQwEgYDVQQDDAt0ZWFtNjY4
LW5ldIIUfFojHigKE0XWnjm+tV0qM+V2X8QwEwYDVR0lBAwwCgYIKwYBBQUHAwIw
CwYDVR0PBAQDAgeAMA0GCSqGSIb3DQEBCwUAA4IBAQBPmdetDesXTL/SXRwDkQTC
imgGxbhk/qXtU7sgpCfcb1id0X6FGD4JnTh2rh1QbrAc+dJxyGQf4HPyS0GZNrsQ
3LmDVdED7RiSVfO3dCbQH/ECGYzq9QeSOUag/FAYIKIgYN3t/7f7GaauUlt58fuB
oEqGgZ8gT4Wo74pNlvNODp0PTPdS+ckzyF+v3FeGrMsXLdnSjUUWxEdDy59w3zyi
DIIz5GNX8gN2J37Ow+fsMqB/r8Cm7NHprSUxkTc16lI44e1rJirlZjuGjjaT2FCA
XGa96IVqdE14Pj3mtry9fPSV/W3/M8rju8E8zAo33KGs7T/0F9+zFxjKYeyBw4N8
-----END CERTIFICATE-----
