Certificate:
    Data:
        Version: 3 (0x2)
        Serial Number:
            05:2e:df:fc:dd:42:7a:11:ef:76:69:1d:ac:29:1d:07
        Signature Algorithm: sha256WithRSAEncryption
        Issuer: CN=team398-net
        Validity
            Not Before: Sep 13 02:22:25 2021 GMT
            Not After : Aug 28 02:22:25 2024 GMT
        Subject: CN=team398-client
        Subject Public Key Info:
            Public Key Algorithm: rsaEncryption
                RSA Public-Key: (2048 bit)
                Modulus:
                    00:b3:c0:d5:fe:69:67:4c:73:64:8e:37:21:5d:83:
                    14:39:8f:a7:d1:63:b9:dd:cd:6e:d7:2c:21:6b:e8:
                    46:a0:83:4a:c2:a3:29:b9:b9:30:db:64:11:85:14:
                    f8:5e:be:bf:17:6c:29:28:89:23:58:29:23:5e:eb:
                    1c:2a:da:0b:5a:17:15:64:22:c6:73:9c:04:18:f1:
                    e4:8e:a5:4c:6d:22:81:2f:16:4a:1d:95:0c:95:c0:
                    76:bd:07:89:d9:3c:5b:4b:9e:4c:7b:ea:3e:ce:97:
                    a6:23:12:df:f1:a4:67:c8:ca:c3:a0:5f:21:03:fd:
                    15:c2:9d:e6:5a:9c:57:21:87:5f:2b:9a:04:b8:26:
                    42:ca:37:79:50:58:0d:f7:1e:ac:0f:80:cc:35:2d:
                    62:d9:c9:3e:b4:1e:16:72:ee:88:e7:56:b2:12:8b:
                    d0:14:96:85:1c:e2:ab:53:79:71:05:ed:e5:98:cc:
                    28:27:cd:33:83:21:b1:3b:b4:e1:3e:14:6e:7f:32:
                    c3:b7:78:1c:f2:99:a3:a2:da:58:48:02:52:1a:24:
                    8b:e2:b7:f7:93:75:e1:14:1a:48:f3:5d:ca:8f:13:
                    b3:60:8d:83:f1:f8:14:b0:18:9b:9f:e0:f5:c3:19:
                    d6:38:2d:77:50:e8:97:e8:c9:1b:5f:b5:9c:0b:0f:
                    5b:01
                Exponent: 65537 (0x10001)
        X509v3 extensions:
            X509v3 Basic Constraints: 
                CA:FALSE
            X509v3 Subject Key Identifier: 
                D1:43:73:C3:F2:AC:D6:B5:BB:C2:1A:31:1B:84:5D:69:81:67:4A:8C
            X509v3 Authority Key Identifier: 
                keyid:A3:70:35:FF:D5:E9:3B:2B:2C:25:CF:A1:7E:F5:01:74:6F:D3:AD:DC
                DirName:/CN=team398-net
                serial:3F:9D:C0:D2:1F:BA:F8:40:D8:FD:DD:1E:3F:80:22:89:B8:18:5E:A3

            X509v3 Extended Key Usage: 
                TLS Web Client Authentication
            X509v3 Key Usage: 
                Digital Signature
    Signature Algorithm: sha256WithRSAEncryption
         2e:6d:bf:24:d6:23:5b:63:d2:e2:05:6e:d6:a3:45:0a:04:65:
         45:ce:c6:c2:bd:51:9c:35:98:f0:1e:d1:78:84:e2:9a:2b:c6:
         58:18:16:9b:b0:27:46:27:69:d8:59:46:c1:9d:52:1b:3b:1e:
         07:af:4f:bd:13:3c:e7:3e:79:75:04:2d:6d:1d:f8:a7:c4:c9:
         dd:47:a2:fd:3f:34:2c:82:ba:9d:74:af:04:b4:35:ff:09:9e:
         83:69:ce:f3:0a:70:1f:20:73:a9:7a:45:a7:23:75:dc:1a:4d:
         ab:a7:e4:bc:18:77:e2:2a:8e:30:03:69:8c:51:a2:a1:b1:60:
         e3:3e:62:f1:c9:e9:03:0d:32:c9:56:03:b0:c9:b6:b3:9b:1c:
         42:0f:99:03:b9:c6:d7:52:c5:1d:13:25:84:8d:fd:a5:dd:37:
         6c:8f:13:62:28:7d:b6:07:f2:60:80:bf:68:e4:a5:af:6a:84:
         3b:f6:91:7b:14:ac:0e:d4:7b:5a:79:56:38:d2:0b:df:00:39:
         ee:dd:63:15:05:1c:69:eb:9d:1a:a9:df:7a:75:d4:4f:4e:e2:
         a0:dc:94:03:1e:2f:8c:de:b7:ce:52:65:0f:c0:5a:6f:2c:1d:
         2d:ee:78:c1:3c:2d:d9:ce:5d:e5:97:45:c9:6f:1a:6f:e0:59:
         07:7f:e7:35
-----BEGIN CERTIFICATE-----
MIIDXDCCAkSgAwIBAgIQBS7f/N1CehHvdmkdrCkdBzANBgkqhkiG9w0BAQsFADAW
MRQwEgYDVQQDDAt0ZWFtMzk4LW5ldDAeFw0yMTA5MTMwMjIyMjVaFw0yNDA4Mjgw
MjIyMjVaMBkxFzAVBgNVBAMMDnRlYW0zOTgtY2xpZW50MIIBIjANBgkqhkiG9w0B
AQEFAAOCAQ8AMIIBCgKCAQEAs8DV/mlnTHNkjjchXYMUOY+n0WO53c1u1ywha+hG
oINKwqMpubkw22QRhRT4Xr6/F2wpKIkjWCkjXuscKtoLWhcVZCLGc5wEGPHkjqVM
bSKBLxZKHZUMlcB2vQeJ2TxbS55Me+o+zpemIxLf8aRnyMrDoF8hA/0Vwp3mWpxX
IYdfK5oEuCZCyjd5UFgN9x6sD4DMNS1i2ck+tB4Wcu6I51ayEovQFJaFHOKrU3lx
Be3lmMwoJ80zgyGxO7ThPhRufzLDt3gc8pmjotpYSAJSGiSL4rf3k3XhFBpI813K
jxOzYI2D8fgUsBibn+D1wxnWOC13UOiX6MkbX7WcCw9bAQIDAQABo4GiMIGfMAkG
A1UdEwQCMAAwHQYDVR0OBBYEFNFDc8PyrNa1u8IaMRuEXWmBZ0qMMFEGA1UdIwRK
MEiAFKNwNf/V6TsrLCXPoX71AXRv063coRqkGDAWMRQwEgYDVQQDDAt0ZWFtMzk4
LW5ldIIUP53A0h+6+EDY/d0eP4AiibgYXqMwEwYDVR0lBAwwCgYIKwYBBQUHAwIw
CwYDVR0PBAQDAgeAMA0GCSqGSIb3DQEBCwUAA4IBAQAubb8k1iNbY9LiBW7Wo0UK
BGVFzsbCvVGcNZjwHtF4hOKaK8ZYGBabsCdGJ2nYWUbBnVIbOx4Hr0+9EzznPnl1
BC1tHfinxMndR6L9PzQsgrqddK8EtDX/CZ6Dac7zCnAfIHOpekWnI3XcGk2rp+S8
GHfiKo4wA2mMUaKhsWDjPmLxyekDDTLJVgOwybazmxxCD5kDucbXUsUdEyWEjf2l
3TdsjxNiKH22B/JggL9o5KWvaoQ79pF7FKwO1HtaeVY40gvfADnu3WMVBRxp650a
qd96ddRPTuKg3JQDHi+M3rfOUmUPwFpvLB0t7njBPC3Zzl3ll0XJbxpv4FkHf+c1
-----END CERTIFICATE-----
