Certificate:
    Data:
        Version: 3 (0x2)
        Serial Number:
            d9:90:f6:28:1a:56:50:91:fc:7f:8e:e4:66:87:8f:1b
        Signature Algorithm: sha256WithRSAEncryption
        Issuer: CN=team601-net
        Validity
            Not Before: Sep 13 04:19:38 2021 GMT
            Not After : Aug 28 04:19:38 2024 GMT
        Subject: CN=team601-server
        Subject Public Key Info:
            Public Key Algorithm: rsaEncryption
                RSA Public-Key: (2048 bit)
                Modulus:
                    00:b1:8f:10:9b:97:c7:7d:bf:13:29:ce:77:65:b1:
                    39:c0:69:13:b7:d1:45:43:59:39:b1:4d:dc:67:89:
                    12:b1:fb:61:75:5f:2b:6b:2b:f2:e8:ce:42:af:3e:
                    cb:d1:0f:3f:5f:39:cf:38:33:2d:a0:e8:52:68:59:
                    bc:a4:5a:b0:93:23:03:01:f2:e4:eb:3b:db:06:5b:
                    35:d2:ef:44:1a:f2:cc:08:84:1a:e6:c1:39:5b:91:
                    39:8a:b3:21:f2:cd:41:a5:f6:51:fc:d2:81:af:f3:
                    e5:01:fd:67:71:c5:d9:c7:06:16:c2:cf:56:78:2e:
                    70:5c:1d:df:30:e4:f8:db:0d:0c:6e:65:d6:11:a2:
                    c4:c3:fe:40:5b:61:39:16:d6:ca:2c:95:e1:63:9a:
                    dd:9e:9e:70:72:cd:67:b6:3a:4a:d3:2e:34:07:3f:
                    03:17:9a:41:9c:25:9a:ef:ad:d2:3b:bd:a5:a4:9d:
                    81:dd:b1:90:22:2d:07:2b:e1:04:62:25:5c:49:ed:
                    0e:74:cd:70:20:bd:e1:b3:12:43:5f:f5:f2:57:17:
                    29:6a:f6:3e:9b:d0:39:46:cf:12:74:4d:6d:46:b5:
                    8c:ff:8a:39:8e:02:a4:0d:fc:1a:19:fc:98:63:cf:
                    06:39:c8:61:ce:b9:ea:77:46:ca:a7:a6:16:e1:11:
                    fe:c9
                Exponent: 65537 (0x10001)
        X509v3 extensions:
            X509v3 Basic Constraints: 
                CA:FALSE
            X509v3 Subject Key Identifier: 
                AC:37:30:13:31:77:54:F2:0E:16:71:DA:71:F5:59:36:F8:55:57:95
            X509v3 Authority Key Identifier: 
                keyid:4F:20:6D:7C:98:A7:7F:6A:E2:28:F1:B2:53:E9:5E:3A:C9:D9:7B:EF
                DirName:/CN=team601-net
                serial:36:58:51:38:CC:AE:C3:6A:87:5B:38:E0:39:77:2C:AB:E7:D9:08:84

            X509v3 Extended Key Usage: 
                TLS Web Server Authentication
            X509v3 Key Usage: 
                Digital Signature, Key Encipherment
            X509v3 Subject Alternative Name: 
                DNS:team601-server
    Signature Algorithm: sha256WithRSAEncryption
         be:7f:eb:2c:54:9f:3d:2d:4a:f2:d1:44:52:b7:97:cb:c9:c8:
         4c:62:b3:ef:11:b9:d9:e7:c0:a4:23:29:03:2b:5e:a6:ea:87:
         f2:55:85:7b:67:25:a4:0c:cc:b1:c3:c4:d5:9f:8a:b6:93:3b:
         16:66:3c:ea:7f:93:fa:c6:55:e0:54:f8:9a:5b:4b:4d:41:63:
         f1:39:cc:01:eb:a8:d5:22:62:b2:c5:7c:4d:45:34:98:d7:d9:
         70:69:96:20:6b:3d:14:cd:78:b1:63:49:51:6c:91:ab:bf:4b:
         32:33:42:e9:f9:8b:e6:56:ac:2a:4a:78:1a:56:51:0d:6f:17:
         08:6d:fc:25:2b:12:09:88:34:ee:30:89:37:a3:69:70:f2:85:
         a6:dc:a7:fd:40:31:3f:05:17:c8:ec:e1:43:bd:29:a9:79:db:
         85:27:26:4b:1b:56:f9:f1:95:71:69:14:a6:ca:48:31:e5:af:
         84:29:89:17:51:76:3a:b6:2d:4e:fc:42:32:82:42:86:05:5e:
         a6:99:f8:65:a2:7d:cc:11:21:62:36:59:e0:24:b4:cc:36:ea:
         7c:5c:d0:37:4f:b6:e5:39:42:5a:53:3f:9d:76:ba:c9:c1:7e:
         4a:c2:df:c4:2d:3e:76:07:86:56:b6:38:e2:8b:cc:bb:80:0b:
         b1:dd:b3:3b
-----BEGIN CERTIFICATE-----
MIIDeDCCAmCgAwIBAgIRANmQ9igaVlCR/H+O5GaHjxswDQYJKoZIhvcNAQELBQAw
FjEUMBIGA1UEAwwLdGVhbTYwMS1uZXQwHhcNMjEwOTEzMDQxOTM4WhcNMjQwODI4
MDQxOTM4WjAZMRcwFQYDVQQDDA50ZWFtNjAxLXNlcnZlcjCCASIwDQYJKoZIhvcN
AQEBBQADggEPADCCAQoCggEBALGPEJuXx32/EynOd2WxOcBpE7fRRUNZObFN3GeJ
ErH7YXVfK2sr8ujOQq8+y9EPP185zzgzLaDoUmhZvKRasJMjAwHy5Os72wZbNdLv
RBryzAiEGubBOVuROYqzIfLNQaX2UfzSga/z5QH9Z3HF2ccGFsLPVngucFwd3zDk
+NsNDG5l1hGixMP+QFthORbWyiyV4WOa3Z6ecHLNZ7Y6StMuNAc/AxeaQZwlmu+t
0ju9paSdgd2xkCItByvhBGIlXEntDnTNcCC94bMSQ1/18lcXKWr2PpvQOUbPEnRN
bUa1jP+KOY4CpA38Ghn8mGPPBjnIYc656ndGyqemFuER/skCAwEAAaOBvTCBujAJ
BgNVHRMEAjAAMB0GA1UdDgQWBBSsNzATMXdU8g4Wcdpx9Vk2+FVXlTBRBgNVHSME
SjBIgBRPIG18mKd/auIo8bJT6V46ydl776EapBgwFjEUMBIGA1UEAwwLdGVhbTYw
MS1uZXSCFDZYUTjMrsNqh1s44Dl3LKvn2QiEMBMGA1UdJQQMMAoGCCsGAQUFBwMB
MAsGA1UdDwQEAwIFoDAZBgNVHREEEjAQgg50ZWFtNjAxLXNlcnZlcjANBgkqhkiG
9w0BAQsFAAOCAQEAvn/rLFSfPS1K8tFEUreXy8nITGKz7xG52efApCMpAytepuqH
8lWFe2clpAzMscPE1Z+KtpM7FmY86n+T+sZV4FT4mltLTUFj8TnMAeuo1SJissV8
TUU0mNfZcGmWIGs9FM14sWNJUWyRq79LMjNC6fmL5lasKkp4GlZRDW8XCG38JSsS
CYg07jCJN6NpcPKFptyn/UAxPwUXyOzhQ70pqXnbhScmSxtW+fGVcWkUpspIMeWv
hCmJF1F2OrYtTvxCMoJChgVeppn4ZaJ9zBEhYjZZ4CS0zDbqfFzQN0+25TlCWlM/
nXa6ycF+SsLfxC0+dgeGVrY44ovMu4ALsd2zOw==
-----END CERTIFICATE-----
