Certificate:
    Data:
        Version: 3 (0x2)
        Serial Number:
            d2:2e:01:af:89:3f:33:4e:48:e5:37:a1:30:bb:71:b5
        Signature Algorithm: sha256WithRSAEncryption
        Issuer: CN=team313-net
        Validity
            Not Before: Sep 13 01:37:48 2021 GMT
            Not After : Aug 28 01:37:48 2024 GMT
        Subject: CN=team313-server
        Subject Public Key Info:
            Public Key Algorithm: rsaEncryption
                RSA Public-Key: (2048 bit)
                Modulus:
                    00:c3:6f:1b:81:74:52:11:5f:14:1f:36:3b:5a:40:
                    88:fe:d8:92:b4:70:1c:d8:a7:9b:c4:d2:6f:ae:8b:
                    17:3a:a2:07:91:48:59:f8:06:dc:cd:98:d9:0f:2d:
                    20:47:39:d0:60:81:1c:33:90:be:36:2b:81:14:86:
                    dd:74:58:3e:97:24:c1:a1:2f:b4:93:b4:05:eb:51:
                    0c:83:11:8d:6c:0b:b9:fd:6f:d8:45:c2:a7:d4:5b:
                    9c:f8:cb:ad:1c:35:99:fe:ec:45:4d:b8:05:36:67:
                    d0:42:c8:e9:0a:20:b6:9e:8b:49:25:3c:7a:d6:9a:
                    11:9e:de:d5:c0:d2:59:88:3b:89:0b:86:b0:9c:75:
                    44:7f:de:4d:cd:eb:eb:3b:c8:f3:dc:b1:6b:76:78:
                    c7:c8:2f:fb:2d:d3:e9:93:36:d2:8d:3b:20:8d:38:
                    bc:f8:79:c3:82:86:5e:84:3d:4d:48:67:2e:bc:3a:
                    d9:39:0b:f6:00:88:77:ad:0c:b4:2d:c3:60:b9:05:
                    79:93:53:bd:d9:a7:ad:0b:66:56:fa:60:84:0a:21:
                    ea:f0:ca:64:67:ad:7f:63:d9:d0:37:68:2d:c9:7a:
                    8b:f9:59:40:2f:ed:49:4a:99:26:26:0d:37:48:b2:
                    65:48:f2:dd:b1:77:a0:3e:41:c8:af:3e:79:22:ec:
                    00:b5
                Exponent: 65537 (0x10001)
        X509v3 extensions:
            X509v3 Basic Constraints: 
                CA:FALSE
            X509v3 Subject Key Identifier: 
                2B:AB:78:B2:B1:89:E8:E2:FD:A0:3F:A7:2F:AB:FE:79:E8:AC:58:DD
            X509v3 Authority Key Identifier: 
                keyid:CD:58:6C:CC:7F:D4:6A:7E:67:68:59:48:7E:1D:03:23:26:FB:E2:80
                DirName:/CN=team313-net
                serial:01:08:AB:76:B4:4B:D5:34:19:40:0E:90:6C:E9:F5:DB:1F:A7:9D:1A

            X509v3 Extended Key Usage: 
                TLS Web Server Authentication
            X509v3 Key Usage: 
                Digital Signature, Key Encipherment
            X509v3 Subject Alternative Name: 
                DNS:team313-server
    Signature Algorithm: sha256WithRSAEncryption
         4f:a3:50:9e:dc:4b:c8:b3:c2:f2:4a:be:6b:98:fc:d2:6d:94:
         9a:8c:ad:95:d2:94:8d:8a:02:7b:df:22:a4:0f:e7:a2:ee:d0:
         24:a9:83:34:06:ec:cd:15:86:fd:4d:c9:56:67:62:0c:34:93:
         f7:08:2f:ce:54:db:22:43:28:e8:71:7e:9b:3c:1b:6b:cb:7b:
         32:59:b9:04:74:a5:49:59:5f:fa:72:8d:aa:4f:4a:7a:d0:5c:
         e3:58:3f:ce:50:1c:c7:77:e0:ba:19:6c:e8:8b:2d:f4:a2:d5:
         93:65:9b:a1:c5:9f:db:1c:74:44:06:db:9f:8d:d5:ff:97:04:
         76:a9:a3:d9:06:8f:c8:7e:b8:45:ba:d1:c5:a5:39:1d:4c:d8:
         90:35:2d:77:ea:53:0b:95:cf:dc:a3:ea:9d:0e:f1:d7:eb:d3:
         66:26:89:2c:36:8f:75:0f:26:4f:96:cd:ec:73:53:31:8b:d7:
         aa:f6:ee:c9:b4:ce:19:ac:0a:d9:86:23:f7:d5:ad:88:6f:b3:
         21:ab:74:ae:e3:20:6e:bc:29:67:6e:b1:1f:b1:d7:ca:4e:21:
         cc:7a:f2:8e:f2:b7:19:de:84:3a:56:ad:b8:20:9d:02:b9:88:
         5c:8c:6e:05:fe:05:8b:27:f4:c2:9a:76:1d:4f:52:e2:e7:8b:
         1f:4f:52:5b
-----BEGIN CERTIFICATE-----
MIIDeDCCAmCgAwIBAgIRANIuAa+JPzNOSOU3oTC7cbUwDQYJKoZIhvcNAQELBQAw
FjEUMBIGA1UEAwwLdGVhbTMxMy1uZXQwHhcNMjEwOTEzMDEzNzQ4WhcNMjQwODI4
MDEzNzQ4WjAZMRcwFQYDVQQDDA50ZWFtMzEzLXNlcnZlcjCCASIwDQYJKoZIhvcN
AQEBBQADggEPADCCAQoCggEBAMNvG4F0UhFfFB82O1pAiP7YkrRwHNinm8TSb66L
FzqiB5FIWfgG3M2Y2Q8tIEc50GCBHDOQvjYrgRSG3XRYPpckwaEvtJO0BetRDIMR
jWwLuf1v2EXCp9RbnPjLrRw1mf7sRU24BTZn0ELI6Qogtp6LSSU8etaaEZ7e1cDS
WYg7iQuGsJx1RH/eTc3r6zvI89yxa3Z4x8gv+y3T6ZM20o07II04vPh5w4KGXoQ9
TUhnLrw62TkL9gCId60MtC3DYLkFeZNTvdmnrQtmVvpghAoh6vDKZGetf2PZ0Ddo
Lcl6i/lZQC/tSUqZJiYNN0iyZUjy3bF3oD5ByK8+eSLsALUCAwEAAaOBvTCBujAJ
BgNVHRMEAjAAMB0GA1UdDgQWBBQrq3iysYno4v2gP6cvq/556KxY3TBRBgNVHSME
SjBIgBTNWGzMf9RqfmdoWUh+HQMjJvvigKEapBgwFjEUMBIGA1UEAwwLdGVhbTMx
My1uZXSCFAEIq3a0S9U0GUAOkGzp9dsfp50aMBMGA1UdJQQMMAoGCCsGAQUFBwMB
MAsGA1UdDwQEAwIFoDAZBgNVHREEEjAQgg50ZWFtMzEzLXNlcnZlcjANBgkqhkiG
9w0BAQsFAAOCAQEAT6NQntxLyLPC8kq+a5j80m2UmoytldKUjYoCe98ipA/nou7Q
JKmDNAbszRWG/U3JVmdiDDST9wgvzlTbIkMo6HF+mzwba8t7Mlm5BHSlSVlf+nKN
qk9KetBc41g/zlAcx3fguhls6Ist9KLVk2WbocWf2xx0RAbbn43V/5cEdqmj2QaP
yH64RbrRxaU5HUzYkDUtd+pTC5XP3KPqnQ7x1+vTZiaJLDaPdQ8mT5bN7HNTMYvX
qvbuybTOGawK2YYj99WtiG+zIat0ruMgbrwpZ26xH7HXyk4hzHryjvK3Gd6EOlat
uCCdArmIXIxuBf4Fiyf0wpp2HU9S4ueLH09SWw==
-----END CERTIFICATE-----
