Certificate:
    Data:
        Version: 3 (0x2)
        Serial Number:
            e3:0b:3c:0b:20:de:5b:93:c2:a4:88:a8:c1:1f:75:85
        Signature Algorithm: sha256WithRSAEncryption
        Issuer: CN=team34-net
        Validity
            Not Before: Sep 12 23:02:02 2021 GMT
            Not After : Aug 27 23:02:02 2024 GMT
        Subject: CN=team34-server
        Subject Public Key Info:
            Public Key Algorithm: rsaEncryption
                RSA Public-Key: (2048 bit)
                Modulus:
                    00:d6:02:64:bf:86:48:4d:ac:16:2a:e3:6f:8b:e5:
                    65:21:10:7f:c8:53:bd:fc:3f:62:04:07:ba:50:9e:
                    88:36:61:00:29:78:5d:52:b1:bb:35:ca:c8:86:ee:
                    5a:46:87:28:42:bd:df:2d:4b:e3:2f:58:f0:f6:1c:
                    6e:fd:bb:ba:12:d3:6b:b5:4f:92:8d:4d:f2:83:93:
                    4a:b8:90:05:63:f2:17:3a:78:be:6e:ce:54:04:7f:
                    2f:6b:bc:21:f4:4a:56:3a:93:f9:62:28:0f:61:bb:
                    ba:46:c9:a9:09:8d:a7:51:b4:b4:19:b6:38:35:80:
                    83:12:60:0b:87:a9:4a:0e:1e:02:bc:d7:a1:5a:20:
                    1f:9c:8b:e3:b0:69:5e:35:8d:47:7e:9f:5e:41:71:
                    ec:2d:b3:c9:c7:f5:5f:d0:6d:56:89:58:0a:22:fa:
                    8b:1d:48:5c:dc:f6:ea:0b:79:ce:f2:b6:89:b1:ac:
                    77:6e:a2:3b:9f:cb:89:76:4e:34:9e:e1:47:df:61:
                    19:ca:51:95:62:24:ac:91:e4:2e:cf:fb:cf:66:3d:
                    26:89:c2:ed:fa:cd:34:31:ae:36:33:52:54:0c:ed:
                    d2:27:c9:71:71:b4:9b:da:17:27:a1:52:b5:38:9b:
                    e7:7a:06:a4:87:54:62:18:a2:43:a6:9d:3b:7a:97:
                    40:a3
                Exponent: 65537 (0x10001)
        X509v3 extensions:
            X509v3 Basic Constraints: 
                CA:FALSE
            X509v3 Subject Key Identifier: 
                D9:87:C8:9B:F6:AB:5F:8D:49:9C:CE:32:37:14:AB:9B:62:E4:78:07
            X509v3 Authority Key Identifier: 
                keyid:6B:7C:76:5E:EE:86:92:19:E4:37:D6:72:A1:A6:C7:F5:58:FE:96:77
                DirName:/CN=team34-net
                serial:78:82:5D:80:BD:18:6D:56:BD:8B:34:50:B3:E3:05:6B:FA:DE:9C:0B

            X509v3 Extended Key Usage: 
                TLS Web Server Authentication
            X509v3 Key Usage: 
                Digital Signature, Key Encipherment
            X509v3 Subject Alternative Name: 
                DNS:team34-server
    Signature Algorithm: sha256WithRSAEncryption
         51:2d:fc:d3:98:92:83:a4:fb:8e:7a:22:3e:1c:ab:c2:bd:03:
         40:7d:6c:12:28:ca:ef:6b:8e:f0:f2:4a:bc:3c:e0:8f:81:93:
         08:f7:c5:56:45:d7:33:87:f5:72:92:aa:10:2a:ca:5f:23:1b:
         33:6a:9e:7d:4f:28:b9:71:0d:09:70:c1:4c:93:d6:55:04:11:
         99:9e:70:4b:68:ab:87:8a:0d:e7:f8:0f:87:c9:50:8d:ab:29:
         ff:15:57:eb:30:7f:6e:39:2e:cd:8f:98:d9:40:86:ab:a2:ab:
         78:31:b5:56:2d:da:42:90:b6:c5:f8:d1:4f:b2:69:15:c1:48:
         83:76:c5:0f:2b:df:b7:2a:8e:f9:15:08:84:6c:ea:1c:19:f8:
         3a:1a:a5:67:a8:86:3f:6e:ae:fe:1f:54:d2:7d:55:90:57:95:
         bb:4d:b5:87:6c:fc:2d:14:43:f0:8c:db:10:9e:36:91:6d:92:
         c3:6c:c6:28:d9:4e:d0:44:da:fb:29:83:d5:5d:84:5d:b5:dc:
         74:29:84:fa:ad:0a:08:c7:2f:66:26:a5:f4:15:d0:50:2d:7c:
         98:7b:58:b2:01:57:b3:b1:f5:19:00:12:40:f2:60:29:47:6c:
         65:8f:c6:3c:85:22:3a:af:3d:2e:3b:b1:aa:0f:84:29:2c:48:
         c7:01:c6:76
-----BEGIN CERTIFICATE-----
MIIDdDCCAlygAwIBAgIRAOMLPAsg3luTwqSIqMEfdYUwDQYJKoZIhvcNAQELBQAw
FTETMBEGA1UEAwwKdGVhbTM0LW5ldDAeFw0yMTA5MTIyMzAyMDJaFw0yNDA4Mjcy
MzAyMDJaMBgxFjAUBgNVBAMMDXRlYW0zNC1zZXJ2ZXIwggEiMA0GCSqGSIb3DQEB
AQUAA4IBDwAwggEKAoIBAQDWAmS/hkhNrBYq42+L5WUhEH/IU738P2IEB7pQnog2
YQApeF1Ssbs1ysiG7lpGhyhCvd8tS+MvWPD2HG79u7oS02u1T5KNTfKDk0q4kAVj
8hc6eL5uzlQEfy9rvCH0SlY6k/liKA9hu7pGyakJjadRtLQZtjg1gIMSYAuHqUoO
HgK816FaIB+ci+OwaV41jUd+n15Bcewts8nH9V/QbVaJWAoi+osdSFzc9uoLec7y
tomxrHduojufy4l2TjSe4UffYRnKUZViJKyR5C7P+89mPSaJwu36zTQxrjYzUlQM
7dInyXFxtJvaFyehUrU4m+d6BqSHVGIYokOmnTt6l0CjAgMBAAGjgbswgbgwCQYD
VR0TBAIwADAdBgNVHQ4EFgQU2YfIm/arX41JnM4yNxSrm2LkeAcwUAYDVR0jBEkw
R4AUa3x2Xu6GkhnkN9ZyoabH9Vj+lnehGaQXMBUxEzARBgNVBAMMCnRlYW0zNC1u
ZXSCFHiCXYC9GG1WvYs0ULPjBWv63pwLMBMGA1UdJQQMMAoGCCsGAQUFBwMBMAsG
A1UdDwQEAwIFoDAYBgNVHREEETAPgg10ZWFtMzQtc2VydmVyMA0GCSqGSIb3DQEB
CwUAA4IBAQBRLfzTmJKDpPuOeiI+HKvCvQNAfWwSKMrva47w8kq8POCPgZMI98VW
Rdczh/VykqoQKspfIxszap59Tyi5cQ0JcMFMk9ZVBBGZnnBLaKuHig3n+A+HyVCN
qyn/FVfrMH9uOS7Nj5jZQIaroqt4MbVWLdpCkLbF+NFPsmkVwUiDdsUPK9+3Ko75
FQiEbOocGfg6GqVnqIY/bq7+H1TSfVWQV5W7TbWHbPwtFEPwjNsQnjaRbZLDbMYo
2U7QRNr7KYPVXYRdtdx0KYT6rQoIxy9mJqX0FdBQLXyYe1iyAVezsfUZABJA8mAp
R2xlj8Y8hSI6rz0uO7GqD4QpLEjHAcZ2
-----END CERTIFICATE-----
