Certificate:
    Data:
        Version: 3 (0x2)
        Serial Number:
            d6:cf:94:b0:20:f1:2d:20:86:d2:df:5d:75:8f:8d:d3
        Signature Algorithm: sha256WithRSAEncryption
        Issuer: CN=team269-net
        Validity
            Not Before: Sep 13 01:13:25 2021 GMT
            Not After : Aug 28 01:13:25 2024 GMT
        Subject: CN=team269-server
        Subject Public Key Info:
            Public Key Algorithm: rsaEncryption
                RSA Public-Key: (2048 bit)
                Modulus:
                    00:e7:a9:6b:c0:ee:a0:8e:df:80:1b:18:da:33:7a:
                    88:9b:68:13:9e:ab:30:6f:2d:0a:dc:79:f3:a2:5c:
                    68:7a:17:11:96:6c:82:ca:03:63:31:e7:d1:8f:36:
                    4e:99:66:30:9b:40:7d:52:be:ab:18:37:cd:df:d2:
                    db:68:e1:6e:c6:71:91:5f:ac:b1:11:da:f0:8c:80:
                    fa:b8:40:fa:43:cd:a2:87:19:08:19:ed:99:67:e9:
                    57:b8:35:51:6a:a7:66:03:b9:dc:0b:4a:9b:4e:d1:
                    6d:bf:4f:6b:4b:25:20:44:17:9d:3a:0e:69:cb:ab:
                    41:1e:e8:8c:34:d2:1d:42:c9:d0:0c:f3:09:7e:07:
                    f4:4f:f9:b1:53:52:6b:35:e3:11:9d:8c:4c:6d:a8:
                    8a:77:8c:32:47:8e:2a:59:53:d3:c3:65:0a:28:a4:
                    2f:c9:98:21:b7:13:c8:56:c1:c5:64:ab:4a:8f:01:
                    4e:db:38:96:ae:f5:c7:38:51:41:5b:88:86:e0:e6:
                    dd:9a:3c:d3:ae:f3:f0:07:bc:6e:37:19:63:be:cc:
                    2e:27:b1:ad:76:41:03:e0:d6:e8:03:ae:7e:76:7e:
                    77:4b:d0:b1:09:36:79:52:29:30:2e:9a:52:5e:ac:
                    8e:ff:58:2a:36:d1:59:ec:f1:9d:6e:ac:c0:b1:d9:
                    8d:19
                Exponent: 65537 (0x10001)
        X509v3 extensions:
            X509v3 Basic Constraints: 
                CA:FALSE
            X509v3 Subject Key Identifier: 
                A9:89:45:51:D2:3F:4B:C3:11:01:FC:31:0C:C7:DE:DD:66:00:10:94
            X509v3 Authority Key Identifier: 
                keyid:A5:81:98:E4:CB:C9:4B:0E:D7:D6:3F:34:45:AD:1D:08:A1:F8:2F:9C
                DirName:/CN=team269-net
                serial:38:51:54:58:56:B6:02:82:F1:4C:68:E2:8A:9E:E8:81:63:AE:62:72

            X509v3 Extended Key Usage: 
                TLS Web Server Authentication
            X509v3 Key Usage: 
                Digital Signature, Key Encipherment
            X509v3 Subject Alternative Name: 
                DNS:team269-server
    Signature Algorithm: sha256WithRSAEncryption
         13:59:d1:20:fc:5e:18:dd:88:c1:67:6b:5c:c3:e5:0d:8e:8b:
         3c:39:5b:92:de:af:db:0c:c4:80:9e:9a:69:e7:39:09:15:47:
         31:62:72:57:9d:d3:54:e0:64:ca:27:2f:10:8b:23:a9:a1:a0:
         99:7b:e1:df:7c:0c:52:c6:d0:74:16:d1:c4:a3:84:35:cf:33:
         b8:37:c0:3a:b5:d8:ac:21:11:ca:84:c3:0e:46:26:44:8e:b7:
         cd:be:b8:41:e5:28:a0:d5:d0:f9:e9:20:f9:c1:bc:e0:e4:df:
         68:b9:8c:e6:24:59:d7:7e:57:8a:53:f6:3a:87:98:15:e4:0e:
         e9:ec:82:66:96:78:da:78:72:7d:33:3a:6b:66:cd:44:e9:fb:
         51:f9:33:8c:e4:c4:e7:d3:8e:ca:80:b3:25:73:0d:6d:c4:96:
         6b:9d:d6:1f:6f:05:a5:07:cf:17:2d:dd:93:0e:5f:e8:71:d3:
         b4:3f:4b:78:c5:e6:be:d9:db:9e:4f:2b:e6:06:2f:fd:ae:31:
         43:2a:02:e5:77:c9:07:f3:30:b9:f5:53:6c:46:b3:99:8a:3f:
         91:be:8a:b6:e4:21:83:be:7c:de:54:b9:04:23:17:15:1d:79:
         99:22:09:aa:14:c5:bd:d8:3a:37:4e:af:ac:2d:f2:f5:a8:33:
         13:ca:d0:80
-----BEGIN CERTIFICATE-----
MIIDeDCCAmCgAwIBAgIRANbPlLAg8S0ghtLfXXWPjdMwDQYJKoZIhvcNAQELBQAw
FjEUMBIGA1UEAwwLdGVhbTI2OS1uZXQwHhcNMjEwOTEzMDExMzI1WhcNMjQwODI4
MDExMzI1WjAZMRcwFQYDVQQDDA50ZWFtMjY5LXNlcnZlcjCCASIwDQYJKoZIhvcN
AQEBBQADggEPADCCAQoCggEBAOepa8DuoI7fgBsY2jN6iJtoE56rMG8tCtx586Jc
aHoXEZZsgsoDYzHn0Y82TplmMJtAfVK+qxg3zd/S22jhbsZxkV+ssRHa8IyA+rhA
+kPNoocZCBntmWfpV7g1UWqnZgO53AtKm07Rbb9Pa0slIEQXnToOacurQR7ojDTS
HULJ0AzzCX4H9E/5sVNSazXjEZ2MTG2oineMMkeOKllT08NlCiikL8mYIbcTyFbB
xWSrSo8BTts4lq71xzhRQVuIhuDm3Zo8067z8Ae8bjcZY77MLiexrXZBA+DW6AOu
fnZ+d0vQsQk2eVIpMC6aUl6sjv9YKjbRWezxnW6swLHZjRkCAwEAAaOBvTCBujAJ
BgNVHRMEAjAAMB0GA1UdDgQWBBSpiUVR0j9LwxEB/DEMx97dZgAQlDBRBgNVHSME
SjBIgBSlgZjky8lLDtfWPzRFrR0IofgvnKEapBgwFjEUMBIGA1UEAwwLdGVhbTI2
OS1uZXSCFDhRVFhWtgKC8Uxo4oqe6IFjrmJyMBMGA1UdJQQMMAoGCCsGAQUFBwMB
MAsGA1UdDwQEAwIFoDAZBgNVHREEEjAQgg50ZWFtMjY5LXNlcnZlcjANBgkqhkiG
9w0BAQsFAAOCAQEAE1nRIPxeGN2IwWdrXMPlDY6LPDlbkt6v2wzEgJ6aaec5CRVH
MWJyV53TVOBkyicvEIsjqaGgmXvh33wMUsbQdBbRxKOENc8zuDfAOrXYrCERyoTD
DkYmRI63zb64QeUooNXQ+ekg+cG84OTfaLmM5iRZ135XilP2OoeYFeQO6eyCZpZ4
2nhyfTM6a2bNROn7UfkzjOTE59OOyoCzJXMNbcSWa53WH28FpQfPFy3dkw5f6HHT
tD9LeMXmvtnbnk8r5gYv/a4xQyoC5XfJB/MwufVTbEazmYo/kb6KtuQhg7583lS5
BCMXFR15mSIJqhTFvdg6N06vrC3y9agzE8rQgA==
-----END CERTIFICATE-----
