Certificate:
    Data:
        Version: 3 (0x2)
        Serial Number:
            9c:7a:7e:ff:bd:b9:a1:47:53:e5:d4:15:e2:54:56:68
        Signature Algorithm: sha256WithRSAEncryption
        Issuer: CN=team536-net
        Validity
            Not Before: Sep 13 03:39:46 2021 GMT
            Not After : Aug 28 03:39:46 2024 GMT
        Subject: CN=team536-client
        Subject Public Key Info:
            Public Key Algorithm: rsaEncryption
                RSA Public-Key: (2048 bit)
                Modulus:
                    00:b6:a1:3e:50:e7:97:bf:99:0e:ab:17:7d:9e:df:
                    aa:75:e5:6b:dc:1a:76:56:15:5b:20:47:71:65:67:
                    31:b4:06:f7:be:9b:5e:a6:ef:9e:e5:cb:38:db:37:
                    ac:c5:7d:90:ce:f9:70:d7:4d:7b:d0:d1:11:3e:b9:
                    ec:2b:ef:4b:6b:6d:82:77:1d:81:3a:5b:f7:99:06:
                    b3:36:f4:91:59:54:c2:a8:f0:25:88:d5:ed:8d:74:
                    78:81:86:64:d6:29:6b:39:3f:7e:03:28:71:66:74:
                    bb:bd:e6:d6:47:75:e4:b0:e4:0d:6c:23:d2:a7:b4:
                    26:1d:94:bf:b6:ab:df:d9:7e:91:bf:b7:a1:6e:9f:
                    a4:37:9e:80:01:f9:55:40:04:82:93:ec:c8:a7:fe:
                    82:76:fb:5d:39:49:03:15:80:6e:4c:14:f0:ec:c6:
                    00:c4:d4:3a:db:2e:c7:f6:21:40:a0:3c:4c:4d:7b:
                    8f:df:2b:3a:d1:a0:43:fa:72:bf:2a:87:be:9b:70:
                    45:e4:4a:f4:02:a8:f2:9b:5b:19:32:cf:72:76:cf:
                    df:61:81:9a:20:ff:be:6b:cf:b7:18:fe:ac:42:70:
                    6b:6c:98:bd:e7:2e:28:0c:96:0f:f0:55:97:74:50:
                    1e:1f:c7:88:15:c0:77:69:dc:0b:39:56:7e:ca:ca:
                    b3:9b
                Exponent: 65537 (0x10001)
        X509v3 extensions:
            X509v3 Basic Constraints: 
                CA:FALSE
            X509v3 Subject Key Identifier: 
                AF:6E:78:EE:FD:6E:CE:F0:D4:74:CD:28:C4:32:B8:AC:EA:6E:A2:1A
            X509v3 Authority Key Identifier: 
                keyid:C3:AB:B9:1A:56:69:A2:9A:73:0F:9F:55:2E:C7:EC:1C:2A:48:22:DD
                DirName:/CN=team536-net
                serial:17:BF:F9:53:CF:73:E2:7B:D8:B7:55:2B:D5:AB:1C:F0:E9:76:DF:5C

            X509v3 Extended Key Usage: 
                TLS Web Client Authentication
            X509v3 Key Usage: 
                Digital Signature
    Signature Algorithm: sha256WithRSAEncryption
         41:3c:48:bd:00:5a:6a:1d:1e:55:6e:03:34:f7:6f:93:9c:da:
         a2:36:30:54:ba:2e:47:69:75:05:cf:8a:2e:e2:94:4a:83:46:
         9a:34:80:66:0a:da:fb:77:06:6f:82:62:91:3e:bd:8d:76:0f:
         a6:51:e2:7b:f4:04:0b:79:b1:3c:59:25:ab:cd:6b:05:29:19:
         eb:5f:70:ec:f9:2b:88:8b:05:7b:a1:dc:23:3f:25:4b:5b:88:
         a6:00:5f:ad:5f:75:b5:6c:f1:c6:d3:79:ef:8b:7e:b5:3b:dd:
         b5:fa:d7:ef:48:e5:63:c0:5a:c9:20:f6:12:87:c8:de:7c:73:
         70:a4:cf:bf:43:11:5d:77:1b:11:6d:cf:c5:41:92:26:cf:41:
         14:08:02:1c:13:86:4e:f9:30:a6:83:9d:bc:3f:b8:d7:02:8f:
         41:d5:3d:76:51:4f:ef:0a:c2:0d:1b:e5:0a:c8:82:05:c0:d0:
         c4:c1:bb:91:55:72:c7:cb:49:62:77:a4:8c:c3:4a:17:44:b8:
         3f:3a:7b:08:ad:71:6d:14:c8:07:5b:fd:e5:4c:2c:96:ee:7a:
         66:5b:2b:6e:cc:f8:43:10:1a:dd:ee:47:00:44:0b:fc:06:86:
         a3:c9:71:36:f6:23:c8:0d:5f:5a:44:9a:b0:dc:5c:9e:39:0e:
         51:16:a3:e3
-----BEGIN CERTIFICATE-----
MIIDXTCCAkWgAwIBAgIRAJx6fv+9uaFHU+XUFeJUVmgwDQYJKoZIhvcNAQELBQAw
FjEUMBIGA1UEAwwLdGVhbTUzNi1uZXQwHhcNMjEwOTEzMDMzOTQ2WhcNMjQwODI4
MDMzOTQ2WjAZMRcwFQYDVQQDDA50ZWFtNTM2LWNsaWVudDCCASIwDQYJKoZIhvcN
AQEBBQADggEPADCCAQoCggEBALahPlDnl7+ZDqsXfZ7fqnXla9wadlYVWyBHcWVn
MbQG976bXqbvnuXLONs3rMV9kM75cNdNe9DRET657CvvS2ttgncdgTpb95kGszb0
kVlUwqjwJYjV7Y10eIGGZNYpazk/fgMocWZ0u73m1kd15LDkDWwj0qe0Jh2Uv7ar
39l+kb+3oW6fpDeegAH5VUAEgpPsyKf+gnb7XTlJAxWAbkwU8OzGAMTUOtsux/Yh
QKA8TE17j98rOtGgQ/pyvyqHvptwReRK9AKo8ptbGTLPcnbP32GBmiD/vmvPtxj+
rEJwa2yYvecuKAyWD/BVl3RQHh/HiBXAd2ncCzlWfsrKs5sCAwEAAaOBojCBnzAJ
BgNVHRMEAjAAMB0GA1UdDgQWBBSvbnju/W7O8NR0zSjEMris6m6iGjBRBgNVHSME
SjBIgBTDq7kaVmmimnMPn1Uux+wcKkgi3aEapBgwFjEUMBIGA1UEAwwLdGVhbTUz
Ni1uZXSCFBe/+VPPc+J72LdVK9WrHPDpdt9cMBMGA1UdJQQMMAoGCCsGAQUFBwMC
MAsGA1UdDwQEAwIHgDANBgkqhkiG9w0BAQsFAAOCAQEAQTxIvQBaah0eVW4DNPdv
k5zaojYwVLouR2l1Bc+KLuKUSoNGmjSAZgra+3cGb4JikT69jXYPplHie/QEC3mx
PFklq81rBSkZ619w7PkriIsFe6HcIz8lS1uIpgBfrV91tWzxxtN574t+tTvdtfrX
70jlY8BaySD2EofI3nxzcKTPv0MRXXcbEW3PxUGSJs9BFAgCHBOGTvkwpoOdvD+4
1wKPQdU9dlFP7wrCDRvlCsiCBcDQxMG7kVVyx8tJYnekjMNKF0S4Pzp7CK1xbRTI
B1v95Uwslu56Zlsrbsz4QxAa3e5HAEQL/AaGo8lxNvYjyA1fWkSasNxcnjkOURaj
4w==
-----END CERTIFICATE-----
