Certificate:
    Data:
        Version: 3 (0x2)
        Serial Number:
            a2:63:63:64:d8:8b:92:09:9f:1d:4d:f4:9d:a7:4d:ca
        Signature Algorithm: sha256WithRSAEncryption
        Issuer: CN=team368-net
        Validity
            Not Before: Sep 13 02:07:21 2021 GMT
            Not After : Aug 28 02:07:21 2024 GMT
        Subject: CN=team368-client
        Subject Public Key Info:
            Public Key Algorithm: rsaEncryption
                RSA Public-Key: (2048 bit)
                Modulus:
                    00:dc:46:ba:0f:8d:4b:07:ba:f6:21:6d:ca:1b:32:
                    4c:9f:56:da:26:de:3b:3c:27:2e:06:1d:01:ae:3f:
                    a5:87:df:2c:45:79:92:64:2d:88:76:93:b7:2f:36:
                    49:c2:58:96:be:47:4f:84:d7:08:d9:d6:3a:5d:ab:
                    1e:f3:f9:f5:a8:d6:12:c1:00:b9:f9:73:d7:93:4f:
                    8e:5e:55:eb:fc:78:d6:b9:61:d1:4f:07:08:32:c1:
                    77:a7:30:6d:fb:e4:e8:79:9e:fc:17:1f:6c:97:f6:
                    c2:7a:06:c8:07:a5:97:7c:3b:1d:c1:46:1f:b7:38:
                    aa:69:3c:8c:4c:6f:0f:ed:e5:dc:00:af:1d:26:b4:
                    11:11:be:6d:ef:49:d3:ae:19:09:ba:09:9d:7a:8a:
                    e5:9c:c3:be:ed:07:36:da:fc:f7:6b:a0:62:08:85:
                    9d:2b:76:0c:1f:34:10:8d:04:78:31:ed:a4:c0:65:
                    be:62:21:73:78:54:7b:94:14:9f:7a:d9:67:b6:c1:
                    c2:8e:8d:64:be:7c:e5:78:a8:97:14:f6:1f:0e:77:
                    a7:c2:24:66:20:12:1f:d7:70:75:7f:16:7d:62:c4:
                    12:dc:70:ec:e1:75:b9:74:bd:a1:75:cc:fb:bd:36:
                    77:62:1a:c3:5f:23:d3:cc:43:e9:ce:35:45:b8:6c:
                    c3:e1
                Exponent: 65537 (0x10001)
        X509v3 extensions:
            X509v3 Basic Constraints: 
                CA:FALSE
            X509v3 Subject Key Identifier: 
                DA:92:27:0A:CA:48:A0:E9:DE:3E:BD:D4:C3:36:EE:08:2E:14:50:F0
            X509v3 Authority Key Identifier: 
                keyid:73:4B:DE:23:25:A1:77:6F:CF:11:53:2F:C3:7F:52:BE:63:3D:86:37
                DirName:/CN=team368-net
                serial:4E:22:8A:04:5C:39:3F:C2:5D:B8:DB:81:8B:2D:D4:2C:79:7F:06:0C

            X509v3 Extended Key Usage: 
                TLS Web Client Authentication
            X509v3 Key Usage: 
                Digital Signature
    Signature Algorithm: sha256WithRSAEncryption
         7b:7f:88:f0:cf:4d:bc:82:b5:61:c7:2d:15:b4:bb:56:fd:14:
         05:10:79:2c:65:26:90:6e:cc:f7:35:71:f3:93:7c:07:3e:2a:
         1b:c3:e2:a2:69:d5:8d:a0:00:b6:29:d4:0c:6d:83:0e:d3:23:
         19:21:6e:40:98:ce:14:79:ab:b0:98:c2:46:60:58:36:61:f2:
         f5:54:c3:18:ff:6a:7c:bc:be:a7:56:9c:3c:c3:36:08:31:61:
         c5:1e:5f:4b:b3:fb:e7:68:40:0f:6c:df:25:5b:8b:cb:14:5f:
         64:04:26:e9:5e:80:63:9d:b9:34:e0:ba:4b:8e:1c:b9:fa:c4:
         ee:79:87:13:95:39:9b:7c:22:fc:bf:27:2c:cf:fc:89:8d:45:
         98:be:36:a3:92:fe:8a:9c:a9:ce:80:da:d1:72:7d:99:07:b4:
         d8:5a:1c:26:81:d0:28:fa:21:ed:4d:fb:cc:62:80:b1:98:5f:
         9c:a3:db:49:31:01:a1:bd:90:55:7f:ee:eb:d1:c4:4a:25:63:
         4e:ed:75:8f:a3:78:43:5d:80:ab:b4:ca:11:5e:57:e3:66:4f:
         fb:73:1e:a9:9b:bf:8d:cf:9b:05:4c:27:36:f0:88:68:13:c1:
         cc:c7:ad:2a:da:4f:cc:75:48:ed:e6:b5:c4:ed:54:b0:45:1a:
         e9:46:6b:5d
-----BEGIN CERTIFICATE-----
MIIDXTCCAkWgAwIBAgIRAKJjY2TYi5IJnx1N9J2nTcowDQYJKoZIhvcNAQELBQAw
FjEUMBIGA1UEAwwLdGVhbTM2OC1uZXQwHhcNMjEwOTEzMDIwNzIxWhcNMjQwODI4
MDIwNzIxWjAZMRcwFQYDVQQDDA50ZWFtMzY4LWNsaWVudDCCASIwDQYJKoZIhvcN
AQEBBQADggEPADCCAQoCggEBANxGug+NSwe69iFtyhsyTJ9W2ibeOzwnLgYdAa4/
pYffLEV5kmQtiHaTty82ScJYlr5HT4TXCNnWOl2rHvP59ajWEsEAuflz15NPjl5V
6/x41rlh0U8HCDLBd6cwbfvk6Hme/BcfbJf2wnoGyAell3w7HcFGH7c4qmk8jExv
D+3l3ACvHSa0ERG+be9J064ZCboJnXqK5ZzDvu0HNtr892ugYgiFnSt2DB80EI0E
eDHtpMBlvmIhc3hUe5QUn3rZZ7bBwo6NZL585XiolxT2Hw53p8IkZiASH9dwdX8W
fWLEEtxw7OF1uXS9oXXM+702d2Iaw18j08xD6c41Rbhsw+ECAwEAAaOBojCBnzAJ
BgNVHRMEAjAAMB0GA1UdDgQWBBTakicKykig6d4+vdTDNu4ILhRQ8DBRBgNVHSME
SjBIgBRzS94jJaF3b88RUy/Df1K+Yz2GN6EapBgwFjEUMBIGA1UEAwwLdGVhbTM2
OC1uZXSCFE4iigRcOT/CXbjbgYst1Cx5fwYMMBMGA1UdJQQMMAoGCCsGAQUFBwMC
MAsGA1UdDwQEAwIHgDANBgkqhkiG9w0BAQsFAAOCAQEAe3+I8M9NvIK1YcctFbS7
Vv0UBRB5LGUmkG7M9zVx85N8Bz4qG8PiomnVjaAAtinUDG2DDtMjGSFuQJjOFHmr
sJjCRmBYNmHy9VTDGP9qfLy+p1acPMM2CDFhxR5fS7P752hAD2zfJVuLyxRfZAQm
6V6AY525NOC6S44cufrE7nmHE5U5m3wi/L8nLM/8iY1FmL42o5L+ipypzoDa0XJ9
mQe02FocJoHQKPoh7U37zGKAsZhfnKPbSTEBob2QVX/u69HESiVjTu11j6N4Q12A
q7TKEV5X42ZP+3MeqZu/jc+bBUwnNvCIaBPBzMetKtpPzHVI7ea1xO1UsEUa6UZr
XQ==
-----END CERTIFICATE-----
