Certificate:
    Data:
        Version: 3 (0x2)
        Serial Number:
            e5:5f:52:05:b9:35:82:b9:0f:1b:12:aa:f3:92:55:68
        Signature Algorithm: sha256WithRSAEncryption
        Issuer: CN=team708-net
        Validity
            Not Before: Sep 13 05:27:03 2021 GMT
            Not After : Aug 28 05:27:03 2024 GMT
        Subject: CN=team708-client
        Subject Public Key Info:
            Public Key Algorithm: rsaEncryption
                RSA Public-Key: (2048 bit)
                Modulus:
                    00:c3:f7:c9:71:85:4a:3e:e3:5f:21:d4:d2:40:68:
                    10:98:63:be:85:83:39:22:d0:cf:da:4a:21:81:bd:
                    5a:0a:18:43:c8:3c:78:00:68:ef:d4:21:cb:b7:b1:
                    8c:1a:da:2a:45:f8:4f:92:89:cd:ae:1c:95:5b:bf:
                    db:5d:6f:8d:12:95:ce:c0:ab:e4:20:48:16:a6:30:
                    9a:6b:8e:9a:16:96:d5:4d:2f:aa:a5:eb:96:47:c1:
                    18:38:31:63:7a:55:83:50:08:d7:7b:bc:94:f7:53:
                    9d:c6:2a:0f:20:65:82:b2:0e:82:2e:fb:3b:b6:40:
                    4c:10:39:8d:cd:2a:c4:f2:40:bb:f4:b4:f4:a2:ee:
                    03:3a:4d:a9:12:09:ee:31:cb:fe:b2:6c:7c:d0:4c:
                    aa:c2:34:89:48:d8:ab:a6:88:f4:9d:c9:52:fc:9d:
                    20:53:a3:b2:ef:30:27:14:61:16:d4:cc:fa:18:35:
                    d7:85:01:30:fa:37:6f:74:ba:25:56:f4:63:37:29:
                    bc:1f:47:2b:69:3f:70:1e:7a:d9:c3:a1:ed:f2:e4:
                    19:51:09:b2:51:c7:22:6b:8a:c7:49:a3:ab:84:af:
                    83:8f:ea:9e:ff:9d:db:64:94:f0:77:1f:73:7f:d0:
                    d2:2c:a2:e7:ec:85:6b:82:ba:9e:8c:b5:da:89:b2:
                    71:af
                Exponent: 65537 (0x10001)
        X509v3 extensions:
            X509v3 Basic Constraints: 
                CA:FALSE
            X509v3 Subject Key Identifier: 
                52:F9:65:E0:18:BA:7D:C9:EE:95:DC:9F:62:8D:08:C2:50:1D:C9:8D
            X509v3 Authority Key Identifier: 
                keyid:2A:7F:3F:EA:D6:E5:70:43:87:C8:28:61:45:97:77:CB:90:2D:2A:1D
                DirName:/CN=team708-net
                serial:38:93:F9:8E:C0:D3:37:E3:B1:B6:6E:9E:A8:70:A9:E9:AE:6D:BC:3F

            X509v3 Extended Key Usage: 
                TLS Web Client Authentication
            X509v3 Key Usage: 
                Digital Signature
    Signature Algorithm: sha256WithRSAEncryption
         37:6c:c2:5e:03:a4:d2:4b:1a:57:1d:ee:1b:49:c2:e9:8c:62:
         81:26:a2:dd:b9:94:47:33:c9:6b:a1:36:f7:49:83:fd:07:57:
         9d:fb:11:ac:7f:17:1c:95:d3:f9:4a:2a:c6:95:f3:e8:87:af:
         70:21:06:10:ac:97:da:b9:e4:08:be:f8:b0:50:99:14:d3:53:
         11:5a:9d:c5:d3:00:9e:95:6f:22:41:55:2e:88:d4:c8:97:1b:
         64:8d:99:60:da:db:02:62:a6:6f:83:a5:b6:24:c2:87:35:ca:
         84:f5:38:ae:bf:48:eb:6d:07:f7:06:cf:f2:9b:bf:bf:ac:65:
         41:ea:3c:53:91:55:2a:d5:0e:12:d3:e5:df:92:d2:51:bd:89:
         2c:c3:a7:76:18:d4:a4:95:2f:1c:df:59:c3:e9:3a:6b:71:84:
         8c:56:cc:25:39:50:6e:6e:ad:06:02:21:e8:f8:48:c5:e3:7b:
         6e:1b:14:a6:f0:c1:e4:a5:c5:02:88:04:4b:a0:9c:30:31:93:
         77:37:56:60:94:5b:aa:7a:c7:f5:f7:da:58:44:32:e3:3a:52:
         c3:8c:8e:99:1a:b8:fc:48:1b:4e:8b:3e:2b:20:c4:a6:a5:e2:
         d5:af:25:c5:c9:b2:f7:7b:69:9a:32:85:b7:08:dc:94:34:25:
         4c:30:5f:8a
-----BEGIN CERTIFICATE-----
MIIDXTCCAkWgAwIBAgIRAOVfUgW5NYK5DxsSqvOSVWgwDQYJKoZIhvcNAQELBQAw
FjEUMBIGA1UEAwwLdGVhbTcwOC1uZXQwHhcNMjEwOTEzMDUyNzAzWhcNMjQwODI4
MDUyNzAzWjAZMRcwFQYDVQQDDA50ZWFtNzA4LWNsaWVudDCCASIwDQYJKoZIhvcN
AQEBBQADggEPADCCAQoCggEBAMP3yXGFSj7jXyHU0kBoEJhjvoWDOSLQz9pKIYG9
WgoYQ8g8eABo79Qhy7exjBraKkX4T5KJza4clVu/211vjRKVzsCr5CBIFqYwmmuO
mhaW1U0vqqXrlkfBGDgxY3pVg1AI13u8lPdTncYqDyBlgrIOgi77O7ZATBA5jc0q
xPJAu/S09KLuAzpNqRIJ7jHL/rJsfNBMqsI0iUjYq6aI9J3JUvydIFOjsu8wJxRh
FtTM+hg114UBMPo3b3S6JVb0YzcpvB9HK2k/cB562cOh7fLkGVEJslHHImuKx0mj
q4Svg4/qnv+d22SU8Hcfc3/Q0iyi5+yFa4K6noy12omyca8CAwEAAaOBojCBnzAJ
BgNVHRMEAjAAMB0GA1UdDgQWBBRS+WXgGLp9ye6V3J9ijQjCUB3JjTBRBgNVHSME
SjBIgBQqfz/q1uVwQ4fIKGFFl3fLkC0qHaEapBgwFjEUMBIGA1UEAwwLdGVhbTcw
OC1uZXSCFDiT+Y7A0zfjsbZunqhwqemubbw/MBMGA1UdJQQMMAoGCCsGAQUFBwMC
MAsGA1UdDwQEAwIHgDANBgkqhkiG9w0BAQsFAAOCAQEAN2zCXgOk0ksaVx3uG0nC
6YxigSai3bmURzPJa6E290mD/QdXnfsRrH8XHJXT+UoqxpXz6IevcCEGEKyX2rnk
CL74sFCZFNNTEVqdxdMAnpVvIkFVLojUyJcbZI2ZYNrbAmKmb4OltiTChzXKhPU4
rr9I620H9wbP8pu/v6xlQeo8U5FVKtUOEtPl35LSUb2JLMOndhjUpJUvHN9Zw+k6
a3GEjFbMJTlQbm6tBgIh6PhIxeN7bhsUpvDB5KXFAogES6CcMDGTdzdWYJRbqnrH
9ffaWEQy4zpSw4yOmRq4/EgbTos+KyDEpqXi1a8lxcmy93tpmjKFtwjclDQlTDBf
ig==
-----END CERTIFICATE-----
