Certificate:
    Data:
        Version: 3 (0x2)
        Serial Number:
            7e:a9:88:03:ec:3c:5d:76:16:c7:63:51:7e:fa:c0:fa
        Signature Algorithm: sha256WithRSAEncryption
        Issuer: CN=team342-net
        Validity
            Not Before: Sep 13 01:53:25 2021 GMT
            Not After : Aug 28 01:53:25 2024 GMT
        Subject: CN=team342-server
        Subject Public Key Info:
            Public Key Algorithm: rsaEncryption
                RSA Public-Key: (2048 bit)
                Modulus:
                    00:c1:9e:9e:fa:f9:0f:77:b3:fd:59:8d:02:16:6e:
                    37:e5:8a:06:6e:45:4d:2b:17:f5:53:41:c9:75:15:
                    0e:86:14:33:14:85:03:a8:55:bf:9d:71:32:b0:ca:
                    10:41:34:15:6d:45:4d:89:e9:d0:2f:cf:a4:77:fa:
                    99:59:82:47:ae:83:88:42:98:3c:75:62:f4:cb:67:
                    ac:76:64:d4:ca:12:1a:8f:bb:d2:56:67:1a:38:32:
                    bf:57:30:fa:68:96:7f:51:8f:22:16:f2:05:89:23:
                    03:89:21:27:9a:19:1e:9b:f3:8a:28:fc:9e:40:1f:
                    bf:95:e4:56:fa:c5:36:35:58:bb:c2:6d:b7:a7:3a:
                    19:3f:12:c6:04:3a:82:5f:56:9f:ad:5a:6a:cd:3c:
                    0c:34:23:b5:40:f2:18:f3:e7:cc:41:b3:92:b6:9f:
                    f5:be:00:8a:b1:c2:23:b0:63:28:6c:3c:f8:4f:ce:
                    32:43:55:c0:a9:10:92:f9:45:2e:7c:08:5a:75:70:
                    07:36:11:01:30:fb:11:03:92:6c:89:57:c7:fd:9f:
                    44:e9:c4:7a:29:6e:fb:2e:f2:31:a3:40:81:d9:20:
                    70:f7:a0:bf:71:74:32:db:4a:6c:fb:7a:00:5b:c4:
                    ff:ad:77:ac:ad:ff:d1:e7:75:b3:3a:7b:8f:21:4e:
                    8e:f3
                Exponent: 65537 (0x10001)
        X509v3 extensions:
            X509v3 Basic Constraints: 
                CA:FALSE
            X509v3 Subject Key Identifier: 
                89:4E:51:7E:AC:E6:D3:60:82:8D:94:CE:78:BE:6B:25:7A:75:D9:D8
            X509v3 Authority Key Identifier: 
                keyid:44:9C:85:D4:AF:74:73:40:01:55:98:A3:38:21:01:4B:02:D8:3E:56
                DirName:/CN=team342-net
                serial:1E:86:68:F6:39:E1:C3:F3:7F:1F:5F:10:4D:44:0E:AB:C7:0B:15:7B

            X509v3 Extended Key Usage: 
                TLS Web Server Authentication
            X509v3 Key Usage: 
                Digital Signature, Key Encipherment
            X509v3 Subject Alternative Name: 
                DNS:team342-server
    Signature Algorithm: sha256WithRSAEncryption
         7c:04:f6:64:be:0f:e4:9f:46:da:fb:b3:c4:2d:2c:b9:d6:c2:
         66:87:50:32:94:83:49:76:07:b4:83:a0:61:3d:57:e0:b6:91:
         49:da:ec:ca:fc:75:a9:f0:e7:9e:ca:2b:56:42:43:86:65:83:
         c0:dd:28:7d:ef:8f:03:91:a2:72:13:ab:01:e6:02:7d:85:bf:
         42:5a:b9:14:22:9c:02:47:0b:e6:10:eb:4c:11:8d:fb:ce:2e:
         ec:59:36:25:64:df:df:e8:54:0e:1a:19:db:4c:fc:bb:ae:60:
         f9:66:6e:f2:e5:14:d3:56:4f:99:6c:f7:17:f7:2c:14:47:7a:
         b8:a8:41:41:c8:be:9d:46:a3:17:0a:67:aa:76:c9:98:b4:d7:
         e7:54:4a:d0:67:57:6b:02:70:58:ba:88:8d:de:b2:59:76:fd:
         3b:f3:29:66:f5:49:a7:17:46:17:b2:b0:15:43:e5:f4:bc:37:
         11:9d:fb:9f:19:13:58:d3:9a:f4:87:69:80:64:63:d9:7d:97:
         9c:7f:cd:35:83:a4:ff:9f:fb:28:d9:2b:97:36:e1:56:40:15:
         1c:0b:ca:4a:ba:df:ee:43:76:ba:ae:74:0f:28:41:65:ae:af:
         9a:ac:52:36:9c:c8:46:12:9e:17:06:d7:03:b3:36:3e:e2:0d:
         eb:1c:38:0f
-----BEGIN CERTIFICATE-----
MIIDdzCCAl+gAwIBAgIQfqmIA+w8XXYWx2NRfvrA+jANBgkqhkiG9w0BAQsFADAW
MRQwEgYDVQQDDAt0ZWFtMzQyLW5ldDAeFw0yMTA5MTMwMTUzMjVaFw0yNDA4Mjgw
MTUzMjVaMBkxFzAVBgNVBAMMDnRlYW0zNDItc2VydmVyMIIBIjANBgkqhkiG9w0B
AQEFAAOCAQ8AMIIBCgKCAQEAwZ6e+vkPd7P9WY0CFm435YoGbkVNKxf1U0HJdRUO
hhQzFIUDqFW/nXEysMoQQTQVbUVNienQL8+kd/qZWYJHroOIQpg8dWL0y2esdmTU
yhIaj7vSVmcaODK/VzD6aJZ/UY8iFvIFiSMDiSEnmhkem/OKKPyeQB+/leRW+sU2
NVi7wm23pzoZPxLGBDqCX1afrVpqzTwMNCO1QPIY8+fMQbOStp/1vgCKscIjsGMo
bDz4T84yQ1XAqRCS+UUufAhadXAHNhEBMPsRA5JsiVfH/Z9E6cR6KW77LvIxo0CB
2SBw96C/cXQy20ps+3oAW8T/rXesrf/R53WzOnuPIU6O8wIDAQABo4G9MIG6MAkG
A1UdEwQCMAAwHQYDVR0OBBYEFIlOUX6s5tNggo2Uzni+ayV6ddnYMFEGA1UdIwRK
MEiAFESchdSvdHNAAVWYozghAUsC2D5WoRqkGDAWMRQwEgYDVQQDDAt0ZWFtMzQy
LW5ldIIUHoZo9jnhw/N/H18QTUQOq8cLFXswEwYDVR0lBAwwCgYIKwYBBQUHAwEw
CwYDVR0PBAQDAgWgMBkGA1UdEQQSMBCCDnRlYW0zNDItc2VydmVyMA0GCSqGSIb3
DQEBCwUAA4IBAQB8BPZkvg/kn0ba+7PELSy51sJmh1AylINJdge0g6BhPVfgtpFJ
2uzK/HWp8OeeyitWQkOGZYPA3Sh9748DkaJyE6sB5gJ9hb9CWrkUIpwCRwvmEOtM
EY37zi7sWTYlZN/f6FQOGhnbTPy7rmD5Zm7y5RTTVk+ZbPcX9ywUR3q4qEFByL6d
RqMXCmeqdsmYtNfnVErQZ1drAnBYuoiN3rJZdv078ylm9UmnF0YXsrAVQ+X0vDcR
nfufGRNY05r0h2mAZGPZfZecf801g6T/n/so2SuXNuFWQBUcC8pKut/uQ3a6rnQP
KEFlrq+arFI2nMhGEp4XBtcDszY+4g3rHDgP
-----END CERTIFICATE-----
