Certificate:
    Data:
        Version: 3 (0x2)
        Serial Number:
            c4:76:d3:77:fd:5f:c9:30:c0:6f:79:22:e2:34:c3:8c
        Signature Algorithm: sha256WithRSAEncryption
        Issuer: CN=team342-net
        Validity
            Not Before: Sep 13 01:53:25 2021 GMT
            Not After : Aug 28 01:53:25 2024 GMT
        Subject: CN=team342-client
        Subject Public Key Info:
            Public Key Algorithm: rsaEncryption
                RSA Public-Key: (2048 bit)
                Modulus:
                    00:cc:ee:80:2e:6f:58:75:2e:55:23:d6:28:3f:85:
                    80:0b:4c:b0:00:3f:bb:2d:a3:8c:74:d9:a3:9c:54:
                    b5:ff:eb:df:7b:f3:de:1f:57:e9:a9:7b:f3:b6:04:
                    0e:73:fd:34:33:a0:f5:a0:36:5e:96:5c:2b:d7:07:
                    74:d9:d6:55:83:71:19:74:21:b3:d6:7a:a0:03:bd:
                    47:98:d3:e7:1e:25:b7:9e:2c:a3:d4:f1:94:7d:c9:
                    48:a7:f8:69:1f:be:c4:ff:3b:5f:8f:bb:15:71:f8:
                    e6:15:c7:08:0e:df:27:c1:16:40:45:52:b1:8e:c1:
                    8d:c8:53:e6:bd:7c:41:66:7e:62:2b:5f:73:9c:f9:
                    28:c8:8c:0c:16:59:f8:76:6e:89:bf:cf:cb:bc:69:
                    c6:ce:dd:04:a3:51:ee:ea:27:e5:51:24:cd:e5:ef:
                    67:00:d4:91:86:b5:85:e6:0f:d0:03:d6:f7:28:4d:
                    a5:9c:88:4a:03:29:9e:f0:0b:c4:b8:bb:3e:3a:61:
                    88:5f:14:fc:e6:e2:90:f5:aa:38:e5:00:04:42:ad:
                    3e:9a:71:8c:28:c5:f7:8a:2f:36:78:0e:6a:30:e1:
                    ac:aa:a2:a2:7f:60:82:8f:41:25:45:1e:1c:6a:e6:
                    2e:11:ce:75:9d:9d:02:df:58:36:b4:2c:58:a3:4f:
                    9f:6b
                Exponent: 65537 (0x10001)
        X509v3 extensions:
            X509v3 Basic Constraints: 
                CA:FALSE
            X509v3 Subject Key Identifier: 
                D2:57:6F:34:97:0B:EC:BD:56:C2:B3:0A:25:06:83:24:F9:36:A2:2F
            X509v3 Authority Key Identifier: 
                keyid:44:9C:85:D4:AF:74:73:40:01:55:98:A3:38:21:01:4B:02:D8:3E:56
                DirName:/CN=team342-net
                serial:1E:86:68:F6:39:E1:C3:F3:7F:1F:5F:10:4D:44:0E:AB:C7:0B:15:7B

            X509v3 Extended Key Usage: 
                TLS Web Client Authentication
            X509v3 Key Usage: 
                Digital Signature
    Signature Algorithm: sha256WithRSAEncryption
         3f:97:6d:d4:82:04:a0:8c:dc:1a:81:86:e6:15:83:a7:fd:63:
         e7:3f:f9:61:5c:2b:ab:7d:61:5f:2f:ed:9a:3f:fa:3e:e3:b5:
         25:94:fe:db:30:51:90:66:55:bd:15:ee:c3:73:f2:b3:86:a9:
         f1:00:a0:f2:eb:57:34:e2:d8:f8:e4:4d:9a:ff:74:f5:08:97:
         29:3c:de:64:4f:10:d1:b1:19:3f:60:31:94:28:84:e4:c0:b2:
         1f:0c:c5:2c:5f:36:b5:93:c9:1d:a1:ac:d3:50:b1:71:d1:97:
         91:10:84:e7:a4:15:7a:63:a6:d0:a2:b1:29:71:bf:56:c4:5e:
         27:e9:86:da:d0:54:2e:ba:99:b0:3c:b2:b6:1c:46:ae:b2:17:
         f2:85:ee:d9:6b:5e:e0:5d:9a:1b:a3:2b:f9:41:9b:18:35:bd:
         a1:16:8f:fa:67:9e:52:de:49:6b:c0:27:23:b9:7a:4d:f9:d5:
         35:91:e6:12:a6:f3:dd:d0:56:7a:3c:b3:ec:30:0e:ea:43:46:
         b0:05:0f:02:59:74:97:ac:c5:f0:9a:e6:79:3a:4d:6a:52:b3:
         83:8f:85:e6:e7:ca:54:25:65:85:5e:89:75:99:63:bc:2e:dd:
         63:8c:79:2f:3d:48:d2:51:65:fe:69:b3:1d:60:c9:4e:19:77:
         a4:57:ea:f3
-----BEGIN CERTIFICATE-----
MIIDXTCCAkWgAwIBAgIRAMR203f9X8kwwG95IuI0w4wwDQYJKoZIhvcNAQELBQAw
FjEUMBIGA1UEAwwLdGVhbTM0Mi1uZXQwHhcNMjEwOTEzMDE1MzI1WhcNMjQwODI4
MDE1MzI1WjAZMRcwFQYDVQQDDA50ZWFtMzQyLWNsaWVudDCCASIwDQYJKoZIhvcN
AQEBBQADggEPADCCAQoCggEBAMzugC5vWHUuVSPWKD+FgAtMsAA/uy2jjHTZo5xU
tf/r33vz3h9X6al787YEDnP9NDOg9aA2XpZcK9cHdNnWVYNxGXQhs9Z6oAO9R5jT
5x4lt54so9TxlH3JSKf4aR++xP87X4+7FXH45hXHCA7fJ8EWQEVSsY7BjchT5r18
QWZ+Yitfc5z5KMiMDBZZ+HZuib/Py7xpxs7dBKNR7uon5VEkzeXvZwDUkYa1heYP
0APW9yhNpZyISgMpnvALxLi7PjphiF8U/ObikPWqOOUABEKtPppxjCjF94ovNngO
ajDhrKqion9ggo9BJUUeHGrmLhHOdZ2dAt9YNrQsWKNPn2sCAwEAAaOBojCBnzAJ
BgNVHRMEAjAAMB0GA1UdDgQWBBTSV280lwvsvVbCswolBoMk+TaiLzBRBgNVHSME
SjBIgBREnIXUr3RzQAFVmKM4IQFLAtg+VqEapBgwFjEUMBIGA1UEAwwLdGVhbTM0
Mi1uZXSCFB6GaPY54cPzfx9fEE1EDqvHCxV7MBMGA1UdJQQMMAoGCCsGAQUFBwMC
MAsGA1UdDwQEAwIHgDANBgkqhkiG9w0BAQsFAAOCAQEAP5dt1IIEoIzcGoGG5hWD
p/1j5z/5YVwrq31hXy/tmj/6PuO1JZT+2zBRkGZVvRXuw3Pys4ap8QCg8utXNOLY
+ORNmv909QiXKTzeZE8Q0bEZP2AxlCiE5MCyHwzFLF82tZPJHaGs01CxcdGXkRCE
56QVemOm0KKxKXG/VsReJ+mG2tBULrqZsDyythxGrrIX8oXu2Wte4F2aG6Mr+UGb
GDW9oRaP+meeUt5Ja8AnI7l6TfnVNZHmEqbz3dBWejyz7DAO6kNGsAUPAll0l6zF
8JrmeTpNalKzg4+F5ufKVCVlhV6JdZljvC7dY4x5Lz1I0lFl/mmzHWDJThl3pFfq
8w==
-----END CERTIFICATE-----
