Certificate:
    Data:
        Version: 3 (0x2)
        Serial Number:
            94:9c:8d:22:eb:4d:d2:fa:fc:25:3c:88:40:4a:75:47
        Signature Algorithm: sha256WithRSAEncryption
        Issuer: CN=team103-net
        Validity
            Not Before: Sep 12 23:41:06 2021 GMT
            Not After : Aug 27 23:41:06 2024 GMT
        Subject: CN=team103-client
        Subject Public Key Info:
            Public Key Algorithm: rsaEncryption
                RSA Public-Key: (2048 bit)
                Modulus:
                    00:c6:40:93:2c:2d:91:30:df:c9:8f:24:e3:20:4c:
                    23:1c:70:65:d3:f6:fb:41:74:61:7b:3e:93:11:c4:
                    b6:0d:cb:9f:29:9b:86:20:d9:49:8b:ab:f7:d2:de:
                    dc:ee:bb:41:88:dd:41:94:eb:4e:2c:9c:d0:36:e7:
                    a3:b6:b3:95:9f:cb:06:f9:b5:12:47:ff:1a:7a:48:
                    6c:bc:10:0a:0d:ba:3f:e1:46:dc:6f:da:25:9a:95:
                    2b:c3:e8:c7:58:72:4d:5e:40:42:93:a0:73:f8:d5:
                    2a:90:1a:f4:6e:73:34:e7:86:c9:a9:f9:5f:a3:42:
                    34:86:b6:fa:d9:66:c0:12:f2:59:85:ef:94:b7:04:
                    a7:61:6f:6c:b1:d2:26:87:cb:69:34:17:aa:e5:e4:
                    a9:ba:7b:eb:ad:52:44:9c:a2:4d:79:bf:d2:76:12:
                    55:ad:cb:79:d8:9b:2e:0d:5a:2c:81:96:3e:5b:59:
                    1a:fd:d2:7b:68:fa:a8:62:cd:83:b1:5a:b0:5d:2d:
                    05:19:a2:11:65:44:08:22:06:1a:74:13:8c:29:52:
                    3c:18:de:bc:e5:49:74:8d:17:a0:9f:4d:4c:27:0d:
                    92:44:8d:95:e9:d8:cd:7b:e7:28:f6:15:87:a2:47:
                    62:46:9f:ae:a7:c9:a9:02:50:8d:85:23:57:f8:e5:
                    9b:81
                Exponent: 65537 (0x10001)
        X509v3 extensions:
            X509v3 Basic Constraints: 
                CA:FALSE
            X509v3 Subject Key Identifier: 
                69:4C:D2:71:1C:11:AB:6E:35:67:1E:BF:0C:82:04:1E:17:7C:2A:FF
            X509v3 Authority Key Identifier: 
                keyid:76:1B:62:CE:A9:A6:7F:07:D9:39:0C:ED:9D:A4:A0:74:25:E2:4F:78
                DirName:/CN=team103-net
                serial:33:6A:E1:04:4C:72:12:74:68:02:FA:69:20:A3:9F:A9:24:5F:80:1F

            X509v3 Extended Key Usage: 
                TLS Web Client Authentication
            X509v3 Key Usage: 
                Digital Signature
    Signature Algorithm: sha256WithRSAEncryption
         c8:89:43:cb:f6:ff:c7:ab:07:ab:e7:62:33:21:39:f9:b7:ff:
         17:c4:88:d7:ba:db:cc:1b:bf:a9:c0:1e:fe:30:4b:81:4c:9e:
         19:04:a9:f9:c2:7a:db:f0:ed:c3:ef:62:91:b0:c8:de:45:6d:
         16:e3:17:9f:7b:88:fe:8c:8c:cc:67:d7:9c:48:34:62:ec:69:
         8d:33:3b:17:79:5e:bd:75:5b:49:ed:dd:d4:0c:6d:71:e4:4b:
         f1:4e:e5:e4:9a:77:27:53:eb:da:5b:fa:c7:42:dc:a7:f4:d1:
         4d:4c:f9:7e:b6:c5:69:69:b5:77:91:18:2f:94:df:37:4e:38:
         40:1a:fd:58:5f:07:8d:76:9c:a4:ab:43:91:b4:74:27:7c:e1:
         db:fe:fa:8c:7a:70:bb:4e:ec:7b:ba:14:06:a9:92:fc:1a:1c:
         ee:c8:73:57:39:20:85:31:9b:b5:71:26:65:1d:f5:c4:de:af:
         d6:cf:78:a1:54:7a:85:7e:35:8a:9e:31:ee:0d:2c:82:4c:e9:
         2d:2a:fc:57:08:eb:97:90:1f:78:a7:09:60:3a:66:df:e8:90:
         73:ce:26:7a:db:24:28:08:22:82:48:30:30:87:fb:ca:78:4a:
         41:7b:c0:62:f8:82:f0:b3:dc:19:4f:32:be:ab:54:59:cf:cb:
         31:0c:21:96
-----BEGIN CERTIFICATE-----
MIIDXTCCAkWgAwIBAgIRAJScjSLrTdL6/CU8iEBKdUcwDQYJKoZIhvcNAQELBQAw
FjEUMBIGA1UEAwwLdGVhbTEwMy1uZXQwHhcNMjEwOTEyMjM0MTA2WhcNMjQwODI3
MjM0MTA2WjAZMRcwFQYDVQQDDA50ZWFtMTAzLWNsaWVudDCCASIwDQYJKoZIhvcN
AQEBBQADggEPADCCAQoCggEBAMZAkywtkTDfyY8k4yBMIxxwZdP2+0F0YXs+kxHE
tg3LnymbhiDZSYur99Le3O67QYjdQZTrTiyc0Dbno7azlZ/LBvm1Ekf/GnpIbLwQ
Cg26P+FG3G/aJZqVK8Pox1hyTV5AQpOgc/jVKpAa9G5zNOeGyan5X6NCNIa2+tlm
wBLyWYXvlLcEp2FvbLHSJofLaTQXquXkqbp7661SRJyiTXm/0nYSVa3LedibLg1a
LIGWPltZGv3Se2j6qGLNg7FasF0tBRmiEWVECCIGGnQTjClSPBjevOVJdI0XoJ9N
TCcNkkSNlenYzXvnKPYVh6JHYkafrqfJqQJQjYUjV/jlm4ECAwEAAaOBojCBnzAJ
BgNVHRMEAjAAMB0GA1UdDgQWBBRpTNJxHBGrbjVnHr8MggQeF3wq/zBRBgNVHSME
SjBIgBR2G2LOqaZ/B9k5DO2dpKB0JeJPeKEapBgwFjEUMBIGA1UEAwwLdGVhbTEw
My1uZXSCFDNq4QRMchJ0aAL6aSCjn6kkX4AfMBMGA1UdJQQMMAoGCCsGAQUFBwMC
MAsGA1UdDwQEAwIHgDANBgkqhkiG9w0BAQsFAAOCAQEAyIlDy/b/x6sHq+diMyE5
+bf/F8SI17rbzBu/qcAe/jBLgUyeGQSp+cJ62/Dtw+9ikbDI3kVtFuMXn3uI/oyM
zGfXnEg0YuxpjTM7F3levXVbSe3d1AxtceRL8U7l5Jp3J1Pr2lv6x0Lcp/TRTUz5
frbFaWm1d5EYL5TfN044QBr9WF8HjXacpKtDkbR0J3zh2/76jHpwu07se7oUBqmS
/Boc7shzVzkghTGbtXEmZR31xN6v1s94oVR6hX41ip4x7g0sgkzpLSr8Vwjrl5Af
eKcJYDpm3+iQc84metskKAgigkgwMIf7ynhKQXvAYviC8LPcGU8yvqtUWc/LMQwh
lg==
-----END CERTIFICATE-----
