Certificate:
    Data:
        Version: 3 (0x2)
        Serial Number:
            21:e6:e9:78:75:d7:c9:44:5e:cc:18:58:f5:cd:5d:a5
        Signature Algorithm: sha256WithRSAEncryption
        Issuer: CN=team554-net
        Validity
            Not Before: Sep 13 03:32:57 2021 GMT
            Not After : Aug 28 03:32:57 2024 GMT
        Subject: CN=team554-client
        Subject Public Key Info:
            Public Key Algorithm: rsaEncryption
                RSA Public-Key: (2048 bit)
                Modulus:
                    00:b7:18:ec:5d:c8:bc:62:aa:64:1a:e7:f4:6b:97:
                    44:4d:48:dd:3b:05:90:a2:ec:6e:57:7f:bb:ea:52:
                    c5:e1:b2:3e:34:6a:5c:06:42:e1:a2:97:66:bf:7a:
                    0a:ae:bf:e1:21:d4:ae:ad:3f:f2:9e:d7:42:a9:98:
                    21:17:83:62:f5:70:a8:f4:b8:df:91:1b:30:88:40:
                    ef:4f:c5:64:53:64:78:99:99:e3:25:a6:6f:35:15:
                    9f:0f:a6:1a:be:91:67:8d:14:37:5c:ef:18:b6:de:
                    8b:f5:f7:29:17:8f:62:d5:e2:2e:eb:4a:da:c0:df:
                    e2:74:40:ee:06:2b:e9:0c:a3:b0:c8:a8:59:1b:ad:
                    5b:d7:12:7a:bc:3e:c2:38:fa:70:42:77:93:bf:16:
                    a9:27:5b:79:d0:a8:ff:be:8b:c5:c8:02:31:36:69:
                    c2:55:69:95:da:8c:c4:af:e8:98:72:e3:57:11:85:
                    b7:a0:af:b6:36:99:1d:1d:f7:68:38:ce:3b:45:82:
                    35:d7:1a:99:c7:36:e8:7b:34:3d:3b:44:63:29:0f:
                    da:bd:63:40:3f:0e:90:f1:bc:67:57:9f:2c:70:98:
                    70:5e:27:b9:2f:93:db:8d:97:d9:65:c8:36:a9:2a:
                    c5:fc:64:4a:5f:a8:d5:dc:c5:69:cb:30:13:4b:d3:
                    97:db
                Exponent: 65537 (0x10001)
        X509v3 extensions:
            X509v3 Basic Constraints: 
                CA:FALSE
            X509v3 Subject Key Identifier: 
                16:A7:12:25:B1:21:1B:84:FB:1B:6B:C9:0C:90:EE:3A:11:2E:E9:8F
            X509v3 Authority Key Identifier: 
                keyid:C6:51:39:3E:05:F6:E8:EF:95:7F:6C:F7:B7:93:4B:14:F4:63:F0:94
                DirName:/CN=team554-net
                serial:6A:EF:14:A1:55:E0:91:F5:9C:51:46:2F:E0:E5:31:E7:C3:9B:FD:78

            X509v3 Extended Key Usage: 
                TLS Web Client Authentication
            X509v3 Key Usage: 
                Digital Signature
    Signature Algorithm: sha256WithRSAEncryption
         5a:be:47:5f:b2:8c:ef:6c:9d:13:d4:78:c9:66:c0:ca:74:ed:
         e9:09:da:7e:ca:8e:87:3e:7d:3e:be:28:9d:95:8d:46:9d:8c:
         69:ad:47:94:82:2a:68:88:78:a8:f9:58:62:7a:9a:f0:f4:fc:
         d0:cc:9f:d4:ed:3e:35:1d:7b:3a:89:c1:14:46:89:b6:da:a5:
         c8:e5:5a:2b:6f:e6:ca:ce:cb:a7:ca:42:49:c8:a6:97:80:8b:
         34:3a:a3:32:50:53:4e:44:b3:42:27:c9:72:94:e2:19:13:3b:
         21:58:45:b6:03:16:3e:ba:0c:5b:11:b4:2d:99:5e:d1:e2:de:
         65:3f:70:7e:ab:64:31:09:68:ca:fe:67:d1:e4:55:fd:4d:f0:
         8e:bf:1b:13:bb:06:57:6b:d2:53:70:43:d8:2b:88:18:0f:bf:
         73:3a:d4:c5:6f:08:00:7c:44:92:31:44:0f:8e:83:b1:1a:3a:
         d4:09:1d:5c:a5:a6:38:a7:2b:3f:20:31:c9:83:ae:79:41:13:
         81:fb:a7:70:07:76:7b:22:dc:6e:58:ca:35:cb:7c:29:35:53:
         cf:55:d4:0d:4a:60:85:60:b1:ae:35:05:bc:11:80:f6:73:33:
         8c:a7:c0:25:bb:54:f6:59:c1:68:73:74:04:c6:2d:96:76:8f:
         3d:a2:c4:45
-----BEGIN CERTIFICATE-----
MIIDXDCCAkSgAwIBAgIQIebpeHXXyURezBhY9c1dpTANBgkqhkiG9w0BAQsFADAW
MRQwEgYDVQQDDAt0ZWFtNTU0LW5ldDAeFw0yMTA5MTMwMzMyNTdaFw0yNDA4Mjgw
MzMyNTdaMBkxFzAVBgNVBAMMDnRlYW01NTQtY2xpZW50MIIBIjANBgkqhkiG9w0B
AQEFAAOCAQ8AMIIBCgKCAQEAtxjsXci8YqpkGuf0a5dETUjdOwWQouxuV3+76lLF
4bI+NGpcBkLhopdmv3oKrr/hIdSurT/yntdCqZghF4Ni9XCo9LjfkRswiEDvT8Vk
U2R4mZnjJaZvNRWfD6YavpFnjRQ3XO8Ytt6L9fcpF49i1eIu60rawN/idEDuBivp
DKOwyKhZG61b1xJ6vD7COPpwQneTvxapJ1t50Kj/vovFyAIxNmnCVWmV2ozEr+iY
cuNXEYW3oK+2NpkdHfdoOM47RYI11xqZxzboezQ9O0RjKQ/avWNAPw6Q8bxnV58s
cJhwXie5L5PbjZfZZcg2qSrF/GRKX6jV3MVpyzATS9OX2wIDAQABo4GiMIGfMAkG
A1UdEwQCMAAwHQYDVR0OBBYEFBanEiWxIRuE+xtryQyQ7joRLumPMFEGA1UdIwRK
MEiAFMZROT4F9ujvlX9s97eTSxT0Y/CUoRqkGDAWMRQwEgYDVQQDDAt0ZWFtNTU0
LW5ldIIUau8UoVXgkfWcUUYv4OUx58Ob/XgwEwYDVR0lBAwwCgYIKwYBBQUHAwIw
CwYDVR0PBAQDAgeAMA0GCSqGSIb3DQEBCwUAA4IBAQBavkdfsozvbJ0T1HjJZsDK
dO3pCdp+yo6HPn0+viidlY1GnYxprUeUgipoiHio+Vhieprw9PzQzJ/U7T41HXs6
icEURom22qXI5Vorb+bKzsunykJJyKaXgIs0OqMyUFNORLNCJ8lylOIZEzshWEW2
AxY+ugxbEbQtmV7R4t5lP3B+q2QxCWjK/mfR5FX9TfCOvxsTuwZXa9JTcEPYK4gY
D79zOtTFbwgAfESSMUQPjoOxGjrUCR1cpaY4pys/IDHJg655QROB+6dwB3Z7Itxu
WMo1y3wpNVPPVdQNSmCFYLGuNQW8EYD2czOMp8Alu1T2WcFoc3QExi2Wdo89osRF
-----END CERTIFICATE-----
