Certificate:
    Data:
        Version: 3 (0x2)
        Serial Number:
            36:88:11:e3:eb:23:65:d8:e1:db:68:48:93:49:86:23
        Signature Algorithm: sha256WithRSAEncryption
        Issuer: CN=team554-net
        Validity
            Not Before: Sep 13 03:32:57 2021 GMT
            Not After : Aug 28 03:32:57 2024 GMT
        Subject: CN=team554-server
        Subject Public Key Info:
            Public Key Algorithm: rsaEncryption
                RSA Public-Key: (2048 bit)
                Modulus:
                    00:e5:f4:e8:5e:88:92:47:7b:b1:44:f5:b6:9d:cd:
                    e9:c0:38:e6:2c:00:83:18:0a:50:dd:9e:df:de:1e:
                    a2:b9:4d:84:e6:e3:88:33:86:59:ce:7f:ea:01:d2:
                    a9:43:7c:46:7c:2f:95:c3:1d:c1:57:d2:1b:8d:6f:
                    8c:b6:50:c0:46:7f:25:37:64:87:25:e6:db:23:0c:
                    0e:a6:ee:3f:4c:aa:9c:f1:6f:bd:61:00:95:5e:d2:
                    c7:15:68:82:84:72:b9:d6:12:95:12:58:45:33:4e:
                    58:69:74:55:8a:3b:12:9d:10:ff:ee:78:e0:43:d0:
                    d0:2b:c5:ee:6b:eb:11:eb:28:ae:3a:15:35:03:a6:
                    81:04:2c:f9:50:98:19:29:f7:d8:2f:07:76:83:4a:
                    fb:ff:57:b3:3d:e6:04:56:be:b5:f1:c9:f8:39:8f:
                    8b:da:a1:c8:fe:36:25:ae:39:81:b9:e0:50:d1:21:
                    db:1b:98:22:61:3f:f5:c3:fa:1d:df:43:fe:a3:f1:
                    06:38:fb:1a:50:40:04:34:02:04:df:98:79:cd:75:
                    29:7a:a0:38:06:36:29:e5:59:eb:43:9e:d0:c5:5a:
                    cb:cb:e8:42:4b:f1:97:d2:d4:70:e0:8a:0e:69:b4:
                    a9:cd:f5:47:d4:5e:38:3b:0e:db:f3:a5:2a:09:db:
                    82:85
                Exponent: 65537 (0x10001)
        X509v3 extensions:
            X509v3 Basic Constraints: 
                CA:FALSE
            X509v3 Subject Key Identifier: 
                AB:6D:5A:9B:1F:78:8E:40:FE:7F:34:8F:E6:2F:2E:6C:CD:C4:92:1F
            X509v3 Authority Key Identifier: 
                keyid:C6:51:39:3E:05:F6:E8:EF:95:7F:6C:F7:B7:93:4B:14:F4:63:F0:94
                DirName:/CN=team554-net
                serial:6A:EF:14:A1:55:E0:91:F5:9C:51:46:2F:E0:E5:31:E7:C3:9B:FD:78

            X509v3 Extended Key Usage: 
                TLS Web Server Authentication
            X509v3 Key Usage: 
                Digital Signature, Key Encipherment
            X509v3 Subject Alternative Name: 
                DNS:team554-server
    Signature Algorithm: sha256WithRSAEncryption
         91:60:0e:59:c8:f5:d5:02:e9:37:7c:f9:14:99:02:98:c3:b0:
         28:e0:3a:db:80:16:d7:55:7d:4e:84:5d:6f:de:e7:ed:9c:5d:
         1b:ea:84:1b:1e:99:7f:48:df:2f:18:13:31:2d:b9:94:25:57:
         96:ae:a8:6d:0a:46:a5:57:f5:ca:1b:61:a2:63:d2:59:1c:f0:
         40:28:6f:fe:e6:37:65:e8:e5:95:d2:b4:c7:cc:49:bb:82:2d:
         a1:5b:cf:5b:32:f5:c6:b7:f3:98:7d:3e:4f:7e:50:74:a8:44:
         43:1e:18:96:35:55:03:7d:2b:6e:28:ab:16:5c:59:4a:95:24:
         0a:6c:e2:a9:a8:fc:80:c6:34:0c:00:a6:f3:27:68:74:de:ae:
         54:ab:76:01:2a:46:c2:a0:57:72:31:b7:bc:a1:c8:c1:6b:43:
         08:3b:30:fe:86:7e:a7:4d:8d:a1:07:b4:76:df:3d:ed:a3:e6:
         e2:32:2a:80:08:ef:2f:5b:2a:df:11:50:c8:e2:98:85:c4:84:
         bc:51:60:d4:80:09:08:fa:26:5e:55:54:95:4d:e2:ea:98:eb:
         3b:9e:5f:50:c2:da:63:45:11:df:97:95:85:96:2b:2f:a9:27:
         31:60:1b:76:38:55:9b:24:ec:eb:7e:0f:43:da:2b:60:a3:88:
         f0:f4:65:45
-----BEGIN CERTIFICATE-----
MIIDdzCCAl+gAwIBAgIQNogR4+sjZdjh22hIk0mGIzANBgkqhkiG9w0BAQsFADAW
MRQwEgYDVQQDDAt0ZWFtNTU0LW5ldDAeFw0yMTA5MTMwMzMyNTdaFw0yNDA4Mjgw
MzMyNTdaMBkxFzAVBgNVBAMMDnRlYW01NTQtc2VydmVyMIIBIjANBgkqhkiG9w0B
AQEFAAOCAQ8AMIIBCgKCAQEA5fToXoiSR3uxRPW2nc3pwDjmLACDGApQ3Z7f3h6i
uU2E5uOIM4ZZzn/qAdKpQ3xGfC+Vwx3BV9IbjW+MtlDARn8lN2SHJebbIwwOpu4/
TKqc8W+9YQCVXtLHFWiChHK51hKVElhFM05YaXRVijsSnRD/7njgQ9DQK8Xua+sR
6yiuOhU1A6aBBCz5UJgZKffYLwd2g0r7/1ezPeYEVr618cn4OY+L2qHI/jYlrjmB
ueBQ0SHbG5giYT/1w/od30P+o/EGOPsaUEAENAIE35h5zXUpeqA4BjYp5VnrQ57Q
xVrLy+hCS/GX0tRw4IoOabSpzfVH1F44Ow7b86UqCduChQIDAQABo4G9MIG6MAkG
A1UdEwQCMAAwHQYDVR0OBBYEFKttWpsfeI5A/n80j+YvLmzNxJIfMFEGA1UdIwRK
MEiAFMZROT4F9ujvlX9s97eTSxT0Y/CUoRqkGDAWMRQwEgYDVQQDDAt0ZWFtNTU0
LW5ldIIUau8UoVXgkfWcUUYv4OUx58Ob/XgwEwYDVR0lBAwwCgYIKwYBBQUHAwEw
CwYDVR0PBAQDAgWgMBkGA1UdEQQSMBCCDnRlYW01NTQtc2VydmVyMA0GCSqGSIb3
DQEBCwUAA4IBAQCRYA5ZyPXVAuk3fPkUmQKYw7Ao4DrbgBbXVX1OhF1v3uftnF0b
6oQbHpl/SN8vGBMxLbmUJVeWrqhtCkalV/XKG2GiY9JZHPBAKG/+5jdl6OWV0rTH
zEm7gi2hW89bMvXGt/OYfT5PflB0qERDHhiWNVUDfStuKKsWXFlKlSQKbOKpqPyA
xjQMAKbzJ2h03q5Uq3YBKkbCoFdyMbe8ocjBa0MIOzD+hn6nTY2hB7R23z3to+bi
MiqACO8vWyrfEVDI4piFxIS8UWDUgAkI+iZeVVSVTeLqmOs7nl9QwtpjRRHfl5WF
lisvqScxYBt2OFWbJOzrfg9D2itgo4jw9GVF
-----END CERTIFICATE-----
