Certificate:
    Data:
        Version: 3 (0x2)
        Serial Number:
            26:0b:c6:50:b0:ad:90:b4:1c:af:c4:ee:78:0e:69:5c
        Signature Algorithm: sha256WithRSAEncryption
        Issuer: CN=team142-net
        Validity
            Not Before: Sep 13 00:00:04 2021 GMT
            Not After : Aug 28 00:00:04 2024 GMT
        Subject: CN=team142-server
        Subject Public Key Info:
            Public Key Algorithm: rsaEncryption
                RSA Public-Key: (2048 bit)
                Modulus:
                    00:9e:15:3b:8e:53:07:8b:51:b7:a0:e6:32:0a:ae:
                    4e:a2:ad:17:14:2d:75:1d:e2:85:3b:c2:b3:ac:ff:
                    75:95:f6:7e:c3:38:97:a2:d8:fa:0c:6e:01:33:27:
                    99:f3:0e:0d:2c:cb:07:05:63:28:99:f5:ff:20:ef:
                    f4:3c:ab:fa:90:5a:43:97:9d:f6:ab:33:1f:84:28:
                    98:78:00:9d:cf:db:a8:f3:8f:0d:a9:c1:61:5d:fc:
                    ff:38:a4:1b:70:ee:b5:31:09:c7:05:a3:df:81:35:
                    15:cb:5c:0a:3f:c1:28:09:48:1b:c1:9b:88:74:b9:
                    cb:c9:f6:ba:48:5b:b7:d8:3f:48:43:1d:de:d6:31:
                    59:19:b0:07:a9:ab:f9:8f:e6:10:68:8c:79:ce:0a:
                    29:cd:82:40:8e:50:a4:0e:c9:bf:01:90:43:9a:07:
                    d9:41:1f:9c:ba:48:2b:41:fa:3f:8c:d4:58:9e:fd:
                    8d:dd:80:4e:0d:30:16:81:08:c5:48:15:42:49:70:
                    13:72:74:de:1c:30:3c:17:76:3e:6a:6c:fd:fc:0f:
                    8e:56:70:8f:f2:95:2c:30:d0:cb:f8:17:65:4d:37:
                    2c:3b:0b:b2:5c:0d:99:51:65:ec:0c:ce:d0:91:4b:
                    18:fc:5f:df:03:aa:cd:99:6c:32:44:48:76:ad:28:
                    76:91
                Exponent: 65537 (0x10001)
        X509v3 extensions:
            X509v3 Basic Constraints: 
                CA:FALSE
            X509v3 Subject Key Identifier: 
                29:22:40:DC:69:96:26:D9:6C:04:75:C2:05:BE:CD:5F:F2:25:AA:2F
            X509v3 Authority Key Identifier: 
                keyid:81:19:B0:06:A9:6E:C4:CD:C6:9E:A3:5B:D4:7E:85:AB:78:BE:BF:F0
                DirName:/CN=team142-net
                serial:53:44:A5:2A:3B:F8:FA:27:DE:F7:8A:2B:9D:DA:55:8F:FD:10:19:B5

            X509v3 Extended Key Usage: 
                TLS Web Server Authentication
            X509v3 Key Usage: 
                Digital Signature, Key Encipherment
            X509v3 Subject Alternative Name: 
                DNS:team142-server
    Signature Algorithm: sha256WithRSAEncryption
         c3:ad:78:f6:ea:0c:7e:b6:98:86:74:83:26:a6:e5:da:ae:a0:
         b7:91:5e:9a:4a:8d:ba:1b:e2:e5:fb:af:63:6c:44:dc:bf:21:
         df:4d:73:33:15:45:0f:fd:bf:bb:7f:f8:4f:60:99:62:f6:ae:
         60:03:e5:89:7f:21:98:a0:e0:53:4e:3b:45:cb:78:3f:d8:39:
         09:1a:8b:a7:9d:c3:e0:8e:58:12:a1:1b:c6:62:53:c5:37:3b:
         8a:a4:d7:3a:55:43:91:e9:b3:99:27:90:aa:3f:cd:c8:ab:86:
         5b:fa:bb:aa:b4:03:03:65:0d:e9:6f:df:91:4d:8f:d1:8a:54:
         74:f3:ec:eb:80:f3:0d:19:70:dc:b1:6d:f9:7c:c3:d8:9b:18:
         fb:d3:d5:5c:6f:47:43:7d:2a:77:4d:3a:a0:4c:98:51:36:4d:
         0d:ec:b7:97:25:50:44:4a:ba:47:17:e2:30:d6:7e:bb:cb:36:
         eb:67:5e:76:db:63:fe:89:37:76:7f:7a:af:3f:ef:58:de:4c:
         2b:30:ce:5f:ca:17:27:8b:79:6c:80:be:f4:b8:84:09:cb:52:
         bc:0b:b4:d2:4f:29:6d:54:e4:66:f2:08:e1:ef:c7:7f:70:0d:
         9f:a0:00:cf:8f:5f:09:98:df:df:a5:7d:87:02:85:4d:5a:5a:
         e2:3d:22:f5
-----BEGIN CERTIFICATE-----
MIIDdzCCAl+gAwIBAgIQJgvGULCtkLQcr8TueA5pXDANBgkqhkiG9w0BAQsFADAW
MRQwEgYDVQQDDAt0ZWFtMTQyLW5ldDAeFw0yMTA5MTMwMDAwMDRaFw0yNDA4Mjgw
MDAwMDRaMBkxFzAVBgNVBAMMDnRlYW0xNDItc2VydmVyMIIBIjANBgkqhkiG9w0B
AQEFAAOCAQ8AMIIBCgKCAQEAnhU7jlMHi1G3oOYyCq5Ooq0XFC11HeKFO8KzrP91
lfZ+wziXotj6DG4BMyeZ8w4NLMsHBWMomfX/IO/0PKv6kFpDl532qzMfhCiYeACd
z9uo848NqcFhXfz/OKQbcO61MQnHBaPfgTUVy1wKP8EoCUgbwZuIdLnLyfa6SFu3
2D9IQx3e1jFZGbAHqav5j+YQaIx5zgopzYJAjlCkDsm/AZBDmgfZQR+cukgrQfo/
jNRYnv2N3YBODTAWgQjFSBVCSXATcnTeHDA8F3Y+amz9/A+OVnCP8pUsMNDL+Bdl
TTcsOwuyXA2ZUWXsDM7QkUsY/F/fA6rNmWwyREh2rSh2kQIDAQABo4G9MIG6MAkG
A1UdEwQCMAAwHQYDVR0OBBYEFCkiQNxplibZbAR1wgW+zV/yJaovMFEGA1UdIwRK
MEiAFIEZsAapbsTNxp6jW9R+hat4vr/woRqkGDAWMRQwEgYDVQQDDAt0ZWFtMTQy
LW5ldIIUU0SlKjv4+ife94orndpVj/0QGbUwEwYDVR0lBAwwCgYIKwYBBQUHAwEw
CwYDVR0PBAQDAgWgMBkGA1UdEQQSMBCCDnRlYW0xNDItc2VydmVyMA0GCSqGSIb3
DQEBCwUAA4IBAQDDrXj26gx+tpiGdIMmpuXarqC3kV6aSo26G+Ll+69jbETcvyHf
TXMzFUUP/b+7f/hPYJli9q5gA+WJfyGYoOBTTjtFy3g/2DkJGounncPgjlgSoRvG
YlPFNzuKpNc6VUOR6bOZJ5CqP83Iq4Zb+ruqtAMDZQ3pb9+RTY/RilR08+zrgPMN
GXDcsW35fMPYmxj709Vcb0dDfSp3TTqgTJhRNk0N7LeXJVBESrpHF+Iw1n67yzbr
Z15222P+iTd2f3qvP+9Y3kwrMM5fyhcni3lsgL70uIQJy1K8C7TSTyltVORm8gjh
78d/cA2foADPj18JmN/fpX2HAoVNWlriPSL1
-----END CERTIFICATE-----
