Certificate:
    Data:
        Version: 3 (0x2)
        Serial Number:
            da:ee:f1:e0:b9:97:9c:72:63:32:87:d0:e9:63:9a:a7
        Signature Algorithm: sha256WithRSAEncryption
        Issuer: CN=team440-net
        Validity
            Not Before: Sep 13 02:47:17 2021 GMT
            Not After : Aug 28 02:47:17 2024 GMT
        Subject: CN=team440-server
        Subject Public Key Info:
            Public Key Algorithm: rsaEncryption
                RSA Public-Key: (2048 bit)
                Modulus:
                    00:9a:e8:34:9b:cf:80:45:f8:5f:37:58:ba:42:28:
                    73:08:79:cb:46:f9:ce:65:65:a6:01:3f:c7:8f:8f:
                    da:b1:60:de:dc:b8:6b:d9:50:48:f5:26:c6:de:d8:
                    a9:2d:d6:80:6a:60:0b:2b:c4:e1:47:b8:6a:db:5f:
                    97:31:b3:42:93:86:13:60:6b:78:2b:e9:5b:cd:07:
                    ec:8f:e3:7b:b9:19:e0:0c:d0:46:a7:25:6c:a5:b7:
                    14:37:7e:3d:01:df:b9:e8:02:0d:ab:ac:d0:8d:28:
                    2c:59:a6:93:ae:fe:77:90:72:6c:9f:15:38:5e:4d:
                    bf:3f:2f:16:91:0d:2c:06:5d:b7:09:b0:bb:38:89:
                    5a:c1:d6:0b:23:17:22:f7:df:28:52:14:25:79:09:
                    3b:02:a2:a4:b5:06:8a:e7:37:7c:65:c6:9b:a4:5f:
                    47:27:09:3c:c2:ce:9a:1d:f2:d0:63:15:3d:20:c9:
                    df:03:40:41:1f:bb:48:8e:ff:ef:8e:d3:93:5e:fc:
                    51:bb:12:ea:06:c0:b9:8a:69:41:f2:8e:5d:a2:91:
                    e1:c8:24:3b:c2:cf:f7:85:5d:fe:9d:e2:af:b5:16:
                    15:2a:88:3b:80:0d:c0:b8:e2:ef:5f:84:f5:b0:45:
                    19:31:b6:28:c2:9c:fa:c3:3a:a3:2f:a9:72:33:75:
                    4b:17
                Exponent: 65537 (0x10001)
        X509v3 extensions:
            X509v3 Basic Constraints: 
                CA:FALSE
            X509v3 Subject Key Identifier: 
                CB:E1:CA:6F:DB:B8:7D:AA:6D:07:29:FD:FC:71:D7:2C:44:B5:92:79
            X509v3 Authority Key Identifier: 
                keyid:73:96:D0:B8:00:29:8F:B6:1E:C5:D9:D9:7E:54:EE:29:44:32:D8:E1
                DirName:/CN=team440-net
                serial:37:5A:00:51:FC:13:C2:06:9B:5A:59:C1:68:89:EE:31:FE:FE:93:B6

            X509v3 Extended Key Usage: 
                TLS Web Server Authentication
            X509v3 Key Usage: 
                Digital Signature, Key Encipherment
            X509v3 Subject Alternative Name: 
                DNS:team440-server
    Signature Algorithm: sha256WithRSAEncryption
         b4:f2:02:54:91:54:9c:79:4d:09:17:35:2f:9c:d3:5f:62:51:
         53:66:5c:07:31:e1:72:f4:d3:e7:1c:af:c6:ea:5f:a2:62:26:
         4e:d1:c4:4f:36:55:97:13:62:64:e9:c6:6e:47:05:ea:e8:c6:
         3e:e8:5c:17:7c:7a:f5:4d:7d:05:73:c0:f9:8a:b8:e6:aa:7b:
         01:8a:15:74:f9:09:07:02:37:64:47:f4:a9:1f:96:eb:4f:03:
         1b:01:9e:4c:61:94:ce:8c:8c:1f:09:e3:27:4f:36:ec:51:17:
         52:15:63:5c:14:5a:30:d4:b4:10:fb:46:59:db:43:0c:42:a9:
         09:ff:44:fc:83:7d:f7:9e:2d:77:3b:a2:56:14:11:92:e3:3d:
         c2:98:4d:91:08:1c:88:cc:e6:d0:29:be:c2:0b:91:b8:21:af:
         5c:ee:6d:95:92:5a:bf:64:6a:4d:07:8f:a2:c4:b8:92:1c:4d:
         1a:33:dd:23:60:0e:21:74:a9:cd:72:66:7a:fc:7f:e7:e1:67:
         8c:98:89:58:e0:35:84:c1:5a:e8:5e:7f:50:66:c8:e0:74:b8:
         3b:c6:83:c8:da:c7:78:a2:7e:0a:d3:e7:fb:2e:aa:a7:54:4c:
         f6:d4:ff:f8:d3:6a:b0:01:cc:d4:5f:13:e2:cb:4d:cc:62:b7:
         ae:73:9d:b5
-----BEGIN CERTIFICATE-----
MIIDeDCCAmCgAwIBAgIRANru8eC5l5xyYzKH0OljmqcwDQYJKoZIhvcNAQELBQAw
FjEUMBIGA1UEAwwLdGVhbTQ0MC1uZXQwHhcNMjEwOTEzMDI0NzE3WhcNMjQwODI4
MDI0NzE3WjAZMRcwFQYDVQQDDA50ZWFtNDQwLXNlcnZlcjCCASIwDQYJKoZIhvcN
AQEBBQADggEPADCCAQoCggEBAJroNJvPgEX4XzdYukIocwh5y0b5zmVlpgE/x4+P
2rFg3ty4a9lQSPUmxt7YqS3WgGpgCyvE4Ue4attflzGzQpOGE2BreCvpW80H7I/j
e7kZ4AzQRqclbKW3FDd+PQHfuegCDaus0I0oLFmmk67+d5BybJ8VOF5Nvz8vFpEN
LAZdtwmwuziJWsHWCyMXIvffKFIUJXkJOwKipLUGiuc3fGXGm6RfRycJPMLOmh3y
0GMVPSDJ3wNAQR+7SI7/747Tk178UbsS6gbAuYppQfKOXaKR4cgkO8LP94Vd/p3i
r7UWFSqIO4ANwLji71+E9bBFGTG2KMKc+sM6oy+pcjN1SxcCAwEAAaOBvTCBujAJ
BgNVHRMEAjAAMB0GA1UdDgQWBBTL4cpv27h9qm0HKf38cdcsRLWSeTBRBgNVHSME
SjBIgBRzltC4ACmPth7F2dl+VO4pRDLY4aEapBgwFjEUMBIGA1UEAwwLdGVhbTQ0
MC1uZXSCFDdaAFH8E8IGm1pZwWiJ7jH+/pO2MBMGA1UdJQQMMAoGCCsGAQUFBwMB
MAsGA1UdDwQEAwIFoDAZBgNVHREEEjAQgg50ZWFtNDQwLXNlcnZlcjANBgkqhkiG
9w0BAQsFAAOCAQEAtPICVJFUnHlNCRc1L5zTX2JRU2ZcBzHhcvTT5xyvxupfomIm
TtHETzZVlxNiZOnGbkcF6ujGPuhcF3x69U19BXPA+Yq45qp7AYoVdPkJBwI3ZEf0
qR+W608DGwGeTGGUzoyMHwnjJ0827FEXUhVjXBRaMNS0EPtGWdtDDEKpCf9E/IN9
954tdzuiVhQRkuM9wphNkQgciMzm0Cm+wguRuCGvXO5tlZJav2RqTQePosS4khxN
GjPdI2AOIXSpzXJmevx/5+FnjJiJWOA1hMFa6F5/UGbI4HS4O8aDyNrHeKJ+CtPn
+y6qp1RM9tT/+NNqsAHM1F8T4stNzGK3rnOdtQ==
-----END CERTIFICATE-----
