Certificate:
    Data:
        Version: 3 (0x2)
        Serial Number:
            99:ee:36:45:03:cd:d1:25:66:22:19:68:32:bf:58:5f
        Signature Algorithm: sha256WithRSAEncryption
        Issuer: CN=team277-net
        Validity
            Not Before: Sep 13 01:11:32 2021 GMT
            Not After : Aug 28 01:11:32 2024 GMT
        Subject: CN=team277-client
        Subject Public Key Info:
            Public Key Algorithm: rsaEncryption
                RSA Public-Key: (2048 bit)
                Modulus:
                    00:c7:2e:42:60:c0:23:34:fa:3f:77:2b:70:cd:97:
                    7a:9c:24:e9:51:93:2d:d5:cb:aa:ce:c8:84:bf:c8:
                    85:a6:03:74:66:43:df:08:72:17:14:8a:38:2a:54:
                    89:a9:b7:d4:e4:12:a4:48:77:3c:2c:aa:7f:3f:ba:
                    d5:f5:3b:83:a8:24:79:44:25:27:25:b7:8f:9a:55:
                    ee:9b:64:58:57:d2:17:66:cc:27:ed:b6:bd:73:68:
                    62:9d:48:98:eb:53:86:e2:35:c4:9f:f6:a9:59:35:
                    b8:aa:f2:36:47:48:d7:79:1f:37:cf:18:ed:20:6d:
                    90:54:28:88:06:96:37:20:cc:b0:db:37:3a:01:b3:
                    d4:15:fa:3f:03:42:5d:99:5c:1a:84:5e:b9:0b:7a:
                    27:28:71:72:56:64:99:5b:df:c1:0a:26:ed:0e:bd:
                    ed:81:61:7b:26:e7:f9:fa:8f:c3:d8:d9:8d:95:dd:
                    8b:87:65:35:c0:85:7d:7f:27:08:b3:68:55:44:ef:
                    fc:0e:3e:0c:68:a4:df:90:77:2d:50:ff:47:dc:11:
                    44:08:ed:a9:23:1c:63:09:fd:19:6c:6a:fc:47:ec:
                    fd:df:c9:7f:fd:59:79:41:3a:63:ea:c9:75:3d:53:
                    2e:24:03:99:3f:b5:86:15:b1:75:77:6d:39:4e:1a:
                    63:4f
                Exponent: 65537 (0x10001)
        X509v3 extensions:
            X509v3 Basic Constraints: 
                CA:FALSE
            X509v3 Subject Key Identifier: 
                63:58:C5:A8:C9:A7:F1:03:97:BB:80:78:71:48:E2:D4:54:3F:82:92
            X509v3 Authority Key Identifier: 
                keyid:DD:C7:04:73:66:BA:CA:78:8C:28:3D:BA:EA:AA:99:EC:91:AF:C6:D6
                DirName:/CN=team277-net
                serial:3F:85:BF:76:FF:D9:D9:F9:86:3A:D3:55:EE:96:0E:B2:33:F7:90:DD

            X509v3 Extended Key Usage: 
                TLS Web Client Authentication
            X509v3 Key Usage: 
                Digital Signature
    Signature Algorithm: sha256WithRSAEncryption
         a8:f3:77:3e:77:31:7a:a1:fe:77:a3:d1:e4:57:2b:8a:dc:9d:
         8f:da:56:39:a2:4f:b2:53:8a:fd:82:9c:57:38:67:b9:c2:d9:
         d3:8b:55:9a:41:e7:67:cd:70:17:0e:42:0b:62:1b:f2:d7:05:
         ff:93:a9:b2:d0:c5:e1:e7:f4:b6:08:24:82:4c:ba:8b:a9:3a:
         84:23:61:c8:0f:35:46:df:68:f1:f2:08:3f:80:76:d4:42:76:
         e2:b6:5d:8a:04:11:e4:45:7c:68:9d:ef:82:6d:40:c3:0a:ad:
         e3:0f:d8:89:3e:1f:c8:3b:c0:c8:2a:78:2c:37:ce:2a:fb:c6:
         20:b7:bc:a9:a0:25:63:fc:4b:3d:a2:8f:b8:5d:b5:ba:7f:cb:
         74:a8:ef:08:c7:34:5b:44:b8:07:27:46:24:3d:2d:c3:65:cb:
         00:a2:ac:4b:aa:ab:24:25:5c:fa:80:c5:f5:f8:1f:e3:db:56:
         04:8a:2a:94:b3:dd:98:84:73:1a:14:82:01:fd:e6:62:c4:1a:
         4d:12:ff:d0:bd:35:8d:24:1a:bf:3c:72:41:9e:cb:59:b0:c4:
         16:19:5c:ae:24:9f:e9:32:32:18:73:1e:a9:49:3b:84:2e:e8:
         a9:6f:9d:66:31:40:8a:84:c4:0a:22:1e:f5:c3:0e:3d:49:17:
         69:ef:c7:cb
-----BEGIN CERTIFICATE-----
MIIDXTCCAkWgAwIBAgIRAJnuNkUDzdElZiIZaDK/WF8wDQYJKoZIhvcNAQELBQAw
FjEUMBIGA1UEAwwLdGVhbTI3Ny1uZXQwHhcNMjEwOTEzMDExMTMyWhcNMjQwODI4
MDExMTMyWjAZMRcwFQYDVQQDDA50ZWFtMjc3LWNsaWVudDCCASIwDQYJKoZIhvcN
AQEBBQADggEPADCCAQoCggEBAMcuQmDAIzT6P3crcM2Xepwk6VGTLdXLqs7IhL/I
haYDdGZD3whyFxSKOCpUiam31OQSpEh3PCyqfz+61fU7g6gkeUQlJyW3j5pV7ptk
WFfSF2bMJ+22vXNoYp1ImOtThuI1xJ/2qVk1uKryNkdI13kfN88Y7SBtkFQoiAaW
NyDMsNs3OgGz1BX6PwNCXZlcGoReuQt6JyhxclZkmVvfwQom7Q697YFheybn+fqP
w9jZjZXdi4dlNcCFfX8nCLNoVUTv/A4+DGik35B3LVD/R9wRRAjtqSMcYwn9GWxq
/Efs/d/Jf/1ZeUE6Y+rJdT1TLiQDmT+1hhWxdXdtOU4aY08CAwEAAaOBojCBnzAJ
BgNVHRMEAjAAMB0GA1UdDgQWBBRjWMWoyafxA5e7gHhxSOLUVD+CkjBRBgNVHSME
SjBIgBTdxwRzZrrKeIwoPbrqqpnska/G1qEapBgwFjEUMBIGA1UEAwwLdGVhbTI3
Ny1uZXSCFD+Fv3b/2dn5hjrTVe6WDrIz95DdMBMGA1UdJQQMMAoGCCsGAQUFBwMC
MAsGA1UdDwQEAwIHgDANBgkqhkiG9w0BAQsFAAOCAQEAqPN3PncxeqH+d6PR5Fcr
itydj9pWOaJPslOK/YKcVzhnucLZ04tVmkHnZ81wFw5CC2Ib8tcF/5OpstDF4ef0
tggkgky6i6k6hCNhyA81Rt9o8fIIP4B21EJ24rZdigQR5EV8aJ3vgm1Awwqt4w/Y
iT4fyDvAyCp4LDfOKvvGILe8qaAlY/xLPaKPuF21un/LdKjvCMc0W0S4BydGJD0t
w2XLAKKsS6qrJCVc+oDF9fgf49tWBIoqlLPdmIRzGhSCAf3mYsQaTRL/0L01jSQa
vzxyQZ7LWbDEFhlcriSf6TIyGHMeqUk7hC7oqW+dZjFAioTECiIe9cMOPUkXae/H
yw==
-----END CERTIFICATE-----
