Certificate:
    Data:
        Version: 3 (0x2)
        Serial Number:
            f8:d0:a0:bf:a7:5a:97:f5:e1:26:e0:c8:21:1d:a7:e8
        Signature Algorithm: sha256WithRSAEncryption
        Issuer: CN=team277-net
        Validity
            Not Before: Sep 13 01:11:32 2021 GMT
            Not After : Aug 28 01:11:32 2024 GMT
        Subject: CN=team277-server
        Subject Public Key Info:
            Public Key Algorithm: rsaEncryption
                RSA Public-Key: (2048 bit)
                Modulus:
                    00:c0:f9:87:e3:72:ca:08:bc:3e:07:95:54:70:2d:
                    3d:fb:99:f0:d3:fc:3e:05:e6:6a:53:df:48:7d:1b:
                    95:ed:36:f7:3c:94:ed:06:a4:26:93:ec:2e:ed:6d:
                    3d:18:83:61:6b:d8:8a:b3:25:45:fc:bb:76:6f:d1:
                    f9:06:61:e3:7c:58:26:0e:93:98:06:f7:e4:ac:3a:
                    4f:bf:48:e3:e6:42:8d:b6:79:46:c9:16:5c:ca:0e:
                    a8:9d:45:b9:37:4e:18:7e:2d:29:6d:5f:6c:1c:67:
                    8e:36:ad:0a:f5:2d:db:19:e8:ee:b7:eb:ee:2b:a2:
                    00:02:b6:26:95:cf:c4:42:d4:33:d7:07:fd:da:0c:
                    95:74:fb:d7:94:0f:a9:d6:6a:34:63:11:b9:fe:35:
                    0c:3d:7d:d0:c2:ea:d0:71:1e:8f:28:b6:2a:43:9c:
                    02:c4:af:3d:75:f0:a4:58:5f:b1:72:99:88:d8:63:
                    1d:28:e0:02:a8:28:e4:50:76:a6:79:e7:da:b0:60:
                    00:44:d1:42:e2:50:55:e0:9f:8a:68:73:f4:cc:43:
                    39:2a:39:95:f3:66:ac:71:7b:c3:d6:7f:12:56:5d:
                    0d:26:e7:0b:93:66:ed:38:b1:34:cb:e8:20:fd:25:
                    ee:2b:42:fe:29:e9:5b:1f:84:9c:24:68:fe:b1:83:
                    a7:d9
                Exponent: 65537 (0x10001)
        X509v3 extensions:
            X509v3 Basic Constraints: 
                CA:FALSE
            X509v3 Subject Key Identifier: 
                A4:29:7A:D0:69:59:F2:45:01:79:A5:90:49:83:88:33:32:E5:CE:A6
            X509v3 Authority Key Identifier: 
                keyid:DD:C7:04:73:66:BA:CA:78:8C:28:3D:BA:EA:AA:99:EC:91:AF:C6:D6
                DirName:/CN=team277-net
                serial:3F:85:BF:76:FF:D9:D9:F9:86:3A:D3:55:EE:96:0E:B2:33:F7:90:DD

            X509v3 Extended Key Usage: 
                TLS Web Server Authentication
            X509v3 Key Usage: 
                Digital Signature, Key Encipherment
            X509v3 Subject Alternative Name: 
                DNS:team277-server
    Signature Algorithm: sha256WithRSAEncryption
         2b:09:53:e5:ba:7f:61:78:75:23:d6:eb:d3:09:de:f0:25:71:
         96:85:9f:90:78:14:6d:99:73:6d:71:1f:01:95:f0:e8:73:9e:
         d9:d4:52:e8:0e:bc:1a:e0:91:1d:88:9c:3e:07:e7:6c:a7:66:
         8f:f2:c6:c4:a2:10:96:06:f7:54:b6:4f:ca:89:8e:65:0e:e4:
         db:19:63:a6:df:ad:a7:8e:36:b0:27:22:7e:69:c5:ab:90:5c:
         d9:d5:ce:be:76:e1:b4:e3:d4:05:b2:b3:97:cf:c3:93:6a:1f:
         51:3b:6e:13:7f:48:7b:cf:22:cb:da:84:cc:43:8f:8f:c0:96:
         49:70:c2:8e:81:60:47:48:58:42:88:31:cd:e4:5e:b0:a5:ed:
         77:c1:7d:fa:84:40:3c:0d:e2:12:d8:32:b6:ed:6a:ed:f5:74:
         af:49:c5:00:63:90:01:47:15:d0:4e:b8:1e:6c:1d:e4:64:f9:
         96:53:2c:80:15:ec:a2:1a:1f:3e:19:7d:a1:7a:27:f3:9e:d0:
         18:5c:f0:93:22:a3:29:77:0f:86:2a:9f:83:a1:3f:2e:bc:b3:
         e1:f0:91:e9:c9:25:98:4d:6e:69:b7:48:a6:e7:07:6e:60:7c:
         3b:76:ba:7d:a2:ec:bc:fd:a6:f9:93:fc:c4:46:81:93:f4:fe:
         9a:10:a5:6a
-----BEGIN CERTIFICATE-----
MIIDeDCCAmCgAwIBAgIRAPjQoL+nWpf14SbgyCEdp+gwDQYJKoZIhvcNAQELBQAw
FjEUMBIGA1UEAwwLdGVhbTI3Ny1uZXQwHhcNMjEwOTEzMDExMTMyWhcNMjQwODI4
MDExMTMyWjAZMRcwFQYDVQQDDA50ZWFtMjc3LXNlcnZlcjCCASIwDQYJKoZIhvcN
AQEBBQADggEPADCCAQoCggEBAMD5h+Nyygi8PgeVVHAtPfuZ8NP8PgXmalPfSH0b
le029zyU7QakJpPsLu1tPRiDYWvYirMlRfy7dm/R+QZh43xYJg6TmAb35Kw6T79I
4+ZCjbZ5RskWXMoOqJ1FuTdOGH4tKW1fbBxnjjatCvUt2xno7rfr7iuiAAK2JpXP
xELUM9cH/doMlXT715QPqdZqNGMRuf41DD190MLq0HEejyi2KkOcAsSvPXXwpFhf
sXKZiNhjHSjgAqgo5FB2pnnn2rBgAETRQuJQVeCfimhz9MxDOSo5lfNmrHF7w9Z/
ElZdDSbnC5Nm7TixNMvoIP0l7itC/inpWx+EnCRo/rGDp9kCAwEAAaOBvTCBujAJ
BgNVHRMEAjAAMB0GA1UdDgQWBBSkKXrQaVnyRQF5pZBJg4gzMuXOpjBRBgNVHSME
SjBIgBTdxwRzZrrKeIwoPbrqqpnska/G1qEapBgwFjEUMBIGA1UEAwwLdGVhbTI3
Ny1uZXSCFD+Fv3b/2dn5hjrTVe6WDrIz95DdMBMGA1UdJQQMMAoGCCsGAQUFBwMB
MAsGA1UdDwQEAwIFoDAZBgNVHREEEjAQgg50ZWFtMjc3LXNlcnZlcjANBgkqhkiG
9w0BAQsFAAOCAQEAKwlT5bp/YXh1I9br0wne8CVxloWfkHgUbZlzbXEfAZXw6HOe
2dRS6A68GuCRHYicPgfnbKdmj/LGxKIQlgb3VLZPyomOZQ7k2xljpt+tp442sCci
fmnFq5Bc2dXOvnbhtOPUBbKzl8/Dk2ofUTtuE39Ie88iy9qEzEOPj8CWSXDCjoFg
R0hYQogxzeResKXtd8F9+oRAPA3iEtgytu1q7fV0r0nFAGOQAUcV0E64Hmwd5GT5
llMsgBXsohofPhl9oXon857QGFzwkyKjKXcPhiqfg6E/Lryz4fCR6cklmE1uabdI
pucHbmB8O3a6faLsvP2m+ZP8xEaBk/T+mhClag==
-----END CERTIFICATE-----
