Certificate:
    Data:
        Version: 3 (0x2)
        Serial Number:
            e4:41:25:5a:cc:a3:51:4d:99:39:11:0d:00:ba:34:ba
        Signature Algorithm: sha256WithRSAEncryption
        Issuer: CN=team34-net
        Validity
            Not Before: Sep 12 23:02:09 2021 GMT
            Not After : Aug 27 23:02:09 2024 GMT
        Subject: CN=team34-server
        Subject Public Key Info:
            Public Key Algorithm: rsaEncryption
                RSA Public-Key: (2048 bit)
                Modulus:
                    00:c3:82:58:d0:c3:6a:b2:54:8b:09:bd:e1:bc:1a:
                    49:40:17:23:c4:7f:d7:bc:2f:d1:29:48:45:6f:44:
                    63:9b:ac:a9:c1:90:75:97:56:03:6d:15:c8:2b:d8:
                    44:ee:a3:11:2a:49:9f:46:bc:9a:cf:5f:d3:1e:7c:
                    0c:aa:44:21:68:bd:2a:30:a2:e6:b6:ad:d8:37:0b:
                    16:f3:a3:4e:b9:00:5e:a1:6e:22:c7:80:61:57:24:
                    e6:62:73:b4:5a:d8:6c:b6:d1:10:43:58:d5:f5:26:
                    b6:45:33:64:e9:92:0e:dc:1a:48:b6:1d:c1:27:2c:
                    e4:1e:5b:9e:7c:72:57:99:ce:04:bd:bb:df:ad:05:
                    ba:bf:91:21:33:25:94:8a:ce:7b:86:42:8c:79:9c:
                    ed:cb:13:11:ef:c1:86:36:62:85:0c:88:cf:78:c3:
                    63:4b:17:16:79:4e:2e:f3:e0:3d:04:8a:a7:43:1d:
                    37:c6:f3:d5:c5:fe:90:65:83:d5:ea:ab:ad:a8:9c:
                    45:28:0a:74:4c:b4:14:20:d3:a0:27:0a:99:ec:0c:
                    ae:9f:8b:d0:5d:8b:93:66:6e:e6:8b:5b:cd:21:32:
                    cf:38:d4:71:77:7d:2a:14:09:97:ce:8a:78:21:28:
                    04:c0:9b:74:0f:94:38:41:bf:4c:c5:2d:95:3e:29:
                    99:51
                Exponent: 65537 (0x10001)
        X509v3 extensions:
            X509v3 Basic Constraints: 
                CA:FALSE
            X509v3 Subject Key Identifier: 
                43:C2:B5:1D:C3:08:AC:3C:9C:47:17:46:00:C8:F6:10:02:1E:F5:8A
            X509v3 Authority Key Identifier: 
                keyid:8F:7B:88:D1:0E:E4:CB:9E:05:9E:4D:94:44:B0:95:AA:72:E8:7A:C5
                DirName:/CN=team34-net
                serial:55:12:AA:9B:95:38:1F:84:9C:B1:23:49:E9:2E:06:5F:64:0F:CE:D3

            X509v3 Extended Key Usage: 
                TLS Web Server Authentication
            X509v3 Key Usage: 
                Digital Signature, Key Encipherment
            X509v3 Subject Alternative Name: 
                DNS:team34-server
    Signature Algorithm: sha256WithRSAEncryption
         18:71:ab:24:41:64:c4:8c:21:c5:90:1a:4f:72:65:91:28:11:
         78:bd:98:a1:a8:af:91:4a:9e:e8:32:81:63:44:a3:32:d9:36:
         71:7f:4c:55:1c:3f:22:fb:ff:f3:fc:a5:37:7e:55:f2:61:f8:
         8f:b4:a8:cf:2b:dd:84:2b:56:95:48:27:0f:33:3d:84:57:40:
         68:cf:66:da:01:81:76:7f:c0:da:2a:e3:24:cc:d3:7f:e9:38:
         f3:34:d6:4d:6b:c8:50:96:dc:b6:ea:0e:10:d4:59:f6:26:5a:
         5b:2b:4b:15:77:7a:4e:d9:79:86:55:2e:83:ce:99:8f:16:7d:
         0c:4d:60:72:ea:9b:30:4b:20:96:e6:dc:25:05:2c:9f:3c:a8:
         00:63:be:4d:79:bf:07:37:81:e8:ca:e6:2a:47:a0:1e:73:e7:
         6a:02:38:70:51:33:69:56:ab:6e:c1:30:12:a6:b0:6d:bf:f3:
         fe:5c:c4:18:c3:e8:2c:20:50:85:1f:b3:16:58:96:c1:35:24:
         d6:70:6e:ec:d5:90:4f:88:96:e6:3d:da:b0:ff:df:29:88:6c:
         05:e7:91:94:cb:cf:9e:9f:13:91:ee:f6:6f:85:f1:09:11:5d:
         d3:83:b0:dc:97:88:ff:3b:99:6e:d5:e5:71:42:10:fc:db:2e:
         1d:a7:c9:9b
-----BEGIN CERTIFICATE-----
MIIDdDCCAlygAwIBAgIRAORBJVrMo1FNmTkRDQC6NLowDQYJKoZIhvcNAQELBQAw
FTETMBEGA1UEAwwKdGVhbTM0LW5ldDAeFw0yMTA5MTIyMzAyMDlaFw0yNDA4Mjcy
MzAyMDlaMBgxFjAUBgNVBAMMDXRlYW0zNC1zZXJ2ZXIwggEiMA0GCSqGSIb3DQEB
AQUAA4IBDwAwggEKAoIBAQDDgljQw2qyVIsJveG8GklAFyPEf9e8L9EpSEVvRGOb
rKnBkHWXVgNtFcgr2ETuoxEqSZ9GvJrPX9MefAyqRCFovSowoua2rdg3Cxbzo065
AF6hbiLHgGFXJOZic7Ra2Gy20RBDWNX1JrZFM2Tpkg7cGki2HcEnLOQeW558cleZ
zgS9u9+tBbq/kSEzJZSKznuGQox5nO3LExHvwYY2YoUMiM94w2NLFxZ5Ti7z4D0E
iqdDHTfG89XF/pBlg9Xqq62onEUoCnRMtBQg06AnCpnsDK6fi9Bdi5NmbuaLW80h
Ms841HF3fSoUCZfOinghKATAm3QPlDhBv0zFLZU+KZlRAgMBAAGjgbswgbgwCQYD
VR0TBAIwADAdBgNVHQ4EFgQUQ8K1HcMIrDycRxdGAMj2EAIe9YowUAYDVR0jBEkw
R4AUj3uI0Q7ky54Fnk2URLCVqnLoesWhGaQXMBUxEzARBgNVBAMMCnRlYW0zNC1u
ZXSCFFUSqpuVOB+EnLEjSekuBl9kD87TMBMGA1UdJQQMMAoGCCsGAQUFBwMBMAsG
A1UdDwQEAwIFoDAYBgNVHREEETAPgg10ZWFtMzQtc2VydmVyMA0GCSqGSIb3DQEB
CwUAA4IBAQAYcaskQWTEjCHFkBpPcmWRKBF4vZihqK+RSp7oMoFjRKMy2TZxf0xV
HD8i+//z/KU3flXyYfiPtKjPK92EK1aVSCcPMz2EV0Boz2baAYF2f8DaKuMkzNN/
6TjzNNZNa8hQlty26g4Q1Fn2JlpbK0sVd3pO2XmGVS6DzpmPFn0MTWBy6pswSyCW
5twlBSyfPKgAY75Neb8HN4HoyuYqR6Aec+dqAjhwUTNpVqtuwTASprBtv/P+XMQY
w+gsIFCFH7MWWJbBNSTWcG7s1ZBPiJbmPdqw/98piGwF55GUy8+enxOR7vZvhfEJ
EV3Tg7Dcl4j/O5lu1eVxQhD82y4dp8mb
-----END CERTIFICATE-----
