Certificate:
    Data:
        Version: 3 (0x2)
        Serial Number:
            37:04:6f:c1:01:de:4e:12:f3:7a:64:fd:5a:75:3a:97
        Signature Algorithm: sha256WithRSAEncryption
        Issuer: CN=team442-net
        Validity
            Not Before: Sep 13 02:48:02 2021 GMT
            Not After : Aug 28 02:48:02 2024 GMT
        Subject: CN=team442-server
        Subject Public Key Info:
            Public Key Algorithm: rsaEncryption
                RSA Public-Key: (2048 bit)
                Modulus:
                    00:ca:36:cf:af:ad:7e:79:7a:55:15:6a:12:ed:43:
                    0e:80:5f:18:61:ad:23:3c:13:e5:79:4b:f8:96:0a:
                    a1:8f:a5:ed:20:b1:47:84:f5:19:be:4f:ef:15:43:
                    90:8f:14:c5:e4:de:22:30:12:73:75:2b:b8:4b:fe:
                    12:69:88:80:42:d7:5e:df:8b:8c:ea:30:25:d7:09:
                    87:ae:3f:29:ea:d6:e1:45:c4:21:9b:dd:e2:ec:7c:
                    a2:5a:6a:d5:4e:bc:2d:3f:db:12:7a:23:21:61:81:
                    b0:fb:2f:8d:46:ba:4f:44:80:ea:f4:2f:22:1b:86:
                    50:80:5d:25:3d:c8:25:f2:95:c9:db:10:15:42:78:
                    97:60:c2:e2:bc:1b:b9:38:3e:c4:cf:e0:b7:1f:cc:
                    5f:14:ea:c3:9f:0c:4f:73:72:18:3b:26:30:59:f4:
                    fc:68:e5:c5:20:af:13:45:6e:a1:ba:16:50:d9:84:
                    92:a2:3b:ea:4f:c3:5b:6d:c8:63:f0:9b:84:56:3f:
                    98:88:64:91:f8:da:67:34:b3:25:f9:69:84:bb:95:
                    67:b0:2c:9b:8d:19:81:da:08:4c:de:8e:d2:5f:79:
                    10:21:36:98:38:c1:b6:d3:15:9c:28:3e:f4:09:fc:
                    88:8f:4b:0f:00:f1:9c:30:17:65:24:9c:a7:fe:ba:
                    da:af
                Exponent: 65537 (0x10001)
        X509v3 extensions:
            X509v3 Basic Constraints: 
                CA:FALSE
            X509v3 Subject Key Identifier: 
                B2:65:96:A1:55:0F:C1:55:E8:D0:73:18:99:A5:AC:B8:AF:4F:AB:85
            X509v3 Authority Key Identifier: 
                keyid:93:DC:C6:D8:86:ED:2A:65:7D:5D:CF:12:10:09:93:E2:54:AF:07:19
                DirName:/CN=team442-net
                serial:5E:36:2C:B1:6E:B8:B1:2D:36:FD:35:75:B4:E1:79:97:BC:AA:DE:D9

            X509v3 Extended Key Usage: 
                TLS Web Server Authentication
            X509v3 Key Usage: 
                Digital Signature, Key Encipherment
            X509v3 Subject Alternative Name: 
                DNS:team442-server
    Signature Algorithm: sha256WithRSAEncryption
         22:b5:d9:f7:2b:10:dd:c9:b4:23:2e:58:6b:f1:e5:f0:68:9a:
         5c:5d:45:f9:93:90:b8:ae:10:84:cc:f4:1e:c5:ff:d7:09:26:
         f2:f8:c8:db:8b:c2:d3:e0:93:b5:b5:27:94:81:c1:54:4b:e1:
         18:2c:1b:c7:9a:48:fb:92:a6:21:6a:9a:05:6b:4d:b2:9d:6e:
         41:a1:b1:7e:05:e2:60:ab:4d:fa:c5:e6:48:3d:bc:da:20:af:
         bd:94:24:04:77:9f:55:2c:62:78:cd:70:9c:bc:8b:84:d3:80:
         6f:f1:f1:d5:02:4c:c5:a5:56:e9:16:b8:29:b5:3b:6c:02:ac:
         2c:08:50:ed:eb:af:ab:b8:14:c5:e4:70:26:78:e1:b7:3a:7b:
         44:cd:40:d9:58:91:20:68:b4:1d:a8:c1:f9:22:46:48:1c:62:
         4c:0c:ca:9d:48:db:1c:65:87:fe:bf:cc:ce:76:e1:07:10:c4:
         4d:b5:ec:de:ba:21:04:de:49:a7:46:df:de:5f:f0:24:c5:e3:
         c0:a3:bf:f2:dc:dd:cf:f9:08:4e:45:c8:67:02:37:29:4b:b8:
         de:f6:fd:b9:6b:bb:f7:05:7d:e2:45:33:94:a4:9a:72:73:a1:
         9c:38:c6:30:b5:21:e5:02:09:8d:43:2f:62:5b:6b:eb:c5:da:
         69:1b:57:55
-----BEGIN CERTIFICATE-----
MIIDdzCCAl+gAwIBAgIQNwRvwQHeThLzemT9WnU6lzANBgkqhkiG9w0BAQsFADAW
MRQwEgYDVQQDDAt0ZWFtNDQyLW5ldDAeFw0yMTA5MTMwMjQ4MDJaFw0yNDA4Mjgw
MjQ4MDJaMBkxFzAVBgNVBAMMDnRlYW00NDItc2VydmVyMIIBIjANBgkqhkiG9w0B
AQEFAAOCAQ8AMIIBCgKCAQEAyjbPr61+eXpVFWoS7UMOgF8YYa0jPBPleUv4lgqh
j6XtILFHhPUZvk/vFUOQjxTF5N4iMBJzdSu4S/4SaYiAQtde34uM6jAl1wmHrj8p
6tbhRcQhm93i7HyiWmrVTrwtP9sSeiMhYYGw+y+NRrpPRIDq9C8iG4ZQgF0lPcgl
8pXJ2xAVQniXYMLivBu5OD7Ez+C3H8xfFOrDnwxPc3IYOyYwWfT8aOXFIK8TRW6h
uhZQ2YSSojvqT8Nbbchj8JuEVj+YiGSR+NpnNLMl+WmEu5VnsCybjRmB2ghM3o7S
X3kQITaYOMG20xWcKD70CfyIj0sPAPGcMBdlJJyn/rrarwIDAQABo4G9MIG6MAkG
A1UdEwQCMAAwHQYDVR0OBBYEFLJllqFVD8FV6NBzGJmlrLivT6uFMFEGA1UdIwRK
MEiAFJPcxtiG7SplfV3PEhAJk+JUrwcZoRqkGDAWMRQwEgYDVQQDDAt0ZWFtNDQy
LW5ldIIUXjYssW64sS02/TV1tOF5l7yq3tkwEwYDVR0lBAwwCgYIKwYBBQUHAwEw
CwYDVR0PBAQDAgWgMBkGA1UdEQQSMBCCDnRlYW00NDItc2VydmVyMA0GCSqGSIb3
DQEBCwUAA4IBAQAitdn3KxDdybQjLlhr8eXwaJpcXUX5k5C4rhCEzPQexf/XCSby
+Mjbi8LT4JO1tSeUgcFUS+EYLBvHmkj7kqYhapoFa02ynW5BobF+BeJgq036xeZI
PbzaIK+9lCQEd59VLGJ4zXCcvIuE04Bv8fHVAkzFpVbpFrgptTtsAqwsCFDt66+r
uBTF5HAmeOG3OntEzUDZWJEgaLQdqMH5IkZIHGJMDMqdSNscZYf+v8zOduEHEMRN
tezeuiEE3kmnRt/eX/AkxePAo7/y3N3P+QhORchnAjcpS7je9v25a7v3BX3iRTOU
pJpyc6GcOMYwtSHlAgmNQy9iW2vrxdppG1dV
-----END CERTIFICATE-----
