Certificate:
    Data:
        Version: 3 (0x2)
        Serial Number:
            ac:61:34:92:bd:58:14:61:e8:01:a8:ec:d0:a4:05:b4
        Signature Algorithm: sha256WithRSAEncryption
        Issuer: CN=team207-net
        Validity
            Not Before: Sep 13 00:31:24 2021 GMT
            Not After : Aug 28 00:31:24 2024 GMT
        Subject: CN=team207-server
        Subject Public Key Info:
            Public Key Algorithm: rsaEncryption
                RSA Public-Key: (2048 bit)
                Modulus:
                    00:9d:22:68:3c:e9:0e:09:35:7d:7b:15:a2:2e:95:
                    2e:5a:52:f9:95:52:a4:ca:5d:17:04:34:d1:51:a4:
                    d1:cf:0d:2d:f6:db:20:66:1e:67:3f:52:ff:bc:29:
                    56:80:bc:65:58:f7:97:5b:28:38:aa:66:d6:cf:05:
                    87:f8:77:59:cc:6b:6c:4d:46:45:de:24:ed:70:6e:
                    32:9e:24:3c:e7:bd:fc:3d:6b:02:aa:07:c3:0c:8a:
                    a3:d7:b1:02:b7:8c:7e:0d:7e:95:79:f5:47:54:39:
                    36:1e:db:70:e0:1b:67:a7:8c:b4:cf:47:ce:7c:be:
                    2e:5a:f7:06:39:34:de:88:34:10:ec:11:11:fa:6c:
                    fb:65:b0:a7:d2:a8:62:e6:86:bc:98:96:99:35:68:
                    de:be:20:6b:1f:2f:87:1b:88:4a:35:22:23:2f:53:
                    5c:61:fc:bf:3f:63:a3:f4:ba:16:f4:a4:32:d3:69:
                    ff:a8:e4:d2:fb:31:e8:f3:ce:6a:c2:9a:27:3c:8a:
                    a9:c0:64:65:f6:df:07:df:ae:8c:0e:56:d0:7f:95:
                    fa:45:3b:58:ac:30:59:01:d4:79:e2:d0:ae:c0:6d:
                    03:3a:19:17:53:79:61:83:e5:fd:f6:a2:3b:54:14:
                    04:c7:ab:b6:d8:f8:02:24:89:2b:42:df:4c:89:53:
                    41:39
                Exponent: 65537 (0x10001)
        X509v3 extensions:
            X509v3 Basic Constraints: 
                CA:FALSE
            X509v3 Subject Key Identifier: 
                C9:43:93:69:31:9D:87:89:29:F6:8B:46:CA:36:CF:D3:16:17:F4:50
            X509v3 Authority Key Identifier: 
                keyid:1A:15:6F:CE:8A:5F:DB:95:72:7C:87:AA:4B:D7:EA:84:19:1D:BC:E9
                DirName:/CN=team207-net
                serial:4C:3A:2F:B7:B1:D9:8C:54:15:0E:80:7A:37:F4:70:71:9F:E2:2F:19

            X509v3 Extended Key Usage: 
                TLS Web Server Authentication
            X509v3 Key Usage: 
                Digital Signature, Key Encipherment
            X509v3 Subject Alternative Name: 
                DNS:team207-server
    Signature Algorithm: sha256WithRSAEncryption
         1d:a1:f7:e0:e1:2c:17:8f:a3:5f:d3:bb:bc:8c:39:65:99:dc:
         ba:dd:42:4b:72:d1:c5:e9:6d:8a:43:28:be:59:7e:64:b2:c9:
         84:95:ef:24:7c:5c:f1:33:e4:66:67:1a:f9:ce:fb:bf:16:79:
         1a:d8:e8:46:68:05:ed:87:90:51:e0:b7:8d:11:9a:d6:e7:9c:
         04:61:00:6a:e8:24:f0:8a:29:23:86:8f:f1:3d:60:b9:8a:ae:
         1e:df:2f:8d:31:7a:ce:6e:de:67:49:ea:83:99:ab:97:f1:e1:
         d3:8d:6a:ec:c6:10:79:cc:6c:27:35:53:77:18:fa:61:ec:b7:
         ef:27:86:7f:f1:25:ae:f3:14:5e:ab:65:d9:87:7f:da:f5:57:
         b2:95:71:e8:45:a4:24:bc:0b:56:a0:ef:2b:eb:fb:6a:d3:0d:
         c1:d0:6c:36:ec:d7:8a:c7:4a:f4:5b:3a:52:e4:96:25:f3:72:
         26:07:4a:fa:09:22:41:51:93:e0:26:95:bf:22:9b:27:b5:55:
         2e:97:ad:f7:f9:9f:54:d5:f1:eb:79:68:7d:f7:94:79:60:39:
         f0:8e:94:e3:39:ea:18:8d:d7:50:5d:48:53:17:7d:5d:82:ea:
         0a:b3:fd:f0:5e:24:de:6a:f1:a4:15:be:30:e3:a5:b6:21:31:
         81:5a:f1:65
-----BEGIN CERTIFICATE-----
MIIDeDCCAmCgAwIBAgIRAKxhNJK9WBRh6AGo7NCkBbQwDQYJKoZIhvcNAQELBQAw
FjEUMBIGA1UEAwwLdGVhbTIwNy1uZXQwHhcNMjEwOTEzMDAzMTI0WhcNMjQwODI4
MDAzMTI0WjAZMRcwFQYDVQQDDA50ZWFtMjA3LXNlcnZlcjCCASIwDQYJKoZIhvcN
AQEBBQADggEPADCCAQoCggEBAJ0iaDzpDgk1fXsVoi6VLlpS+ZVSpMpdFwQ00VGk
0c8NLfbbIGYeZz9S/7wpVoC8ZVj3l1soOKpm1s8Fh/h3WcxrbE1GRd4k7XBuMp4k
POe9/D1rAqoHwwyKo9exAreMfg1+lXn1R1Q5Nh7bcOAbZ6eMtM9Hzny+Llr3Bjk0
3og0EOwREfps+2Wwp9KoYuaGvJiWmTVo3r4gax8vhxuISjUiIy9TXGH8vz9jo/S6
FvSkMtNp/6jk0vsx6PPOasKaJzyKqcBkZfbfB9+ujA5W0H+V+kU7WKwwWQHUeeLQ
rsBtAzoZF1N5YYPl/faiO1QUBMerttj4AiSJK0LfTIlTQTkCAwEAAaOBvTCBujAJ
BgNVHRMEAjAAMB0GA1UdDgQWBBTJQ5NpMZ2HiSn2i0bKNs/TFhf0UDBRBgNVHSME
SjBIgBQaFW/Oil/blXJ8h6pL1+qEGR286aEapBgwFjEUMBIGA1UEAwwLdGVhbTIw
Ny1uZXSCFEw6L7ex2YxUFQ6Aejf0cHGf4i8ZMBMGA1UdJQQMMAoGCCsGAQUFBwMB
MAsGA1UdDwQEAwIFoDAZBgNVHREEEjAQgg50ZWFtMjA3LXNlcnZlcjANBgkqhkiG
9w0BAQsFAAOCAQEAHaH34OEsF4+jX9O7vIw5ZZncut1CS3LRxeltikMovll+ZLLJ
hJXvJHxc8TPkZmca+c77vxZ5GtjoRmgF7YeQUeC3jRGa1uecBGEAaugk8IopI4aP
8T1guYquHt8vjTF6zm7eZ0nqg5mrl/Hh041q7MYQecxsJzVTdxj6Yey37yeGf/El
rvMUXqtl2Yd/2vVXspVx6EWkJLwLVqDvK+v7atMNwdBsNuzXisdK9Fs6UuSWJfNy
JgdK+gkiQVGT4CaVvyKbJ7VVLpet9/mfVNXx63loffeUeWA58I6U4znqGI3XUF1I
Uxd9XYLqCrP98F4k3mrxpBW+MOOltiExgVrxZQ==
-----END CERTIFICATE-----
