Certificate:
    Data:
        Version: 3 (0x2)
        Serial Number:
            38:48:cf:36:6c:56:09:5d:fd:f9:24:60:87:62:55:9b
        Signature Algorithm: sha256WithRSAEncryption
        Issuer: CN=team473-net
        Validity
            Not Before: Sep 13 02:53:17 2021 GMT
            Not After : Aug 28 02:53:17 2024 GMT
        Subject: CN=team473-client
        Subject Public Key Info:
            Public Key Algorithm: rsaEncryption
                RSA Public-Key: (2048 bit)
                Modulus:
                    00:cc:91:14:fe:1c:6d:bf:6f:c7:bc:ef:d8:5e:07:
                    a4:86:63:84:d2:f1:85:c3:6e:30:ef:21:04:55:9e:
                    7a:46:0d:be:76:6b:0b:77:5e:c0:da:11:70:15:4c:
                    b2:80:47:9a:4f:46:7b:1e:aa:83:43:82:4e:b2:e5:
                    37:de:4f:0d:14:99:1f:ba:cf:e4:6f:e0:42:30:57:
                    d7:08:c0:ce:25:85:0c:5d:d2:ee:a7:d5:be:61:11:
                    5a:3a:4e:d6:07:7e:95:eb:ab:c7:d4:1f:42:7d:99:
                    16:3e:8b:a4:77:d4:6d:f7:a1:c7:6c:ad:44:fd:3c:
                    74:17:d3:e9:a2:17:70:32:f9:eb:bb:45:7b:28:ca:
                    8c:39:60:c3:e7:18:a2:02:ba:83:02:54:51:60:41:
                    96:06:42:b1:00:cc:88:98:55:9f:f9:aa:aa:23:64:
                    14:c9:29:58:f1:6a:89:6c:7d:46:81:6a:d6:0e:5f:
                    e3:1c:e4:03:df:8c:7c:37:60:20:2b:44:8f:29:0f:
                    f8:9e:00:fe:a4:a0:b3:3e:1b:70:26:c4:35:2c:0a:
                    26:88:67:52:bb:a4:43:1a:a6:64:f1:c5:e7:67:41:
                    b9:c2:23:de:b5:01:86:da:8f:97:4c:51:18:26:e4:
                    e4:96:8c:40:39:c4:4d:76:01:ce:14:4c:48:70:36:
                    ab:ed
                Exponent: 65537 (0x10001)
        X509v3 extensions:
            X509v3 Basic Constraints: 
                CA:FALSE
            X509v3 Subject Key Identifier: 
                3A:E7:91:7F:1C:B0:02:B3:1F:BF:A7:53:10:38:5E:64:27:08:D6:77
            X509v3 Authority Key Identifier: 
                keyid:D1:08:46:5E:33:4B:0F:C6:4F:51:64:21:7C:F7:A0:9C:48:C8:00:6C
                DirName:/CN=team473-net
                serial:28:0A:59:9B:86:81:DD:B1:FC:49:1E:EA:10:90:8C:15:B4:26:29:12

            X509v3 Extended Key Usage: 
                TLS Web Client Authentication
            X509v3 Key Usage: 
                Digital Signature
    Signature Algorithm: sha256WithRSAEncryption
         02:7c:bc:2d:8d:c3:73:27:a1:a7:8d:2e:97:c8:a4:83:e6:c3:
         86:b7:50:2e:3c:3f:60:69:54:f8:b8:1b:99:74:1d:07:0f:cc:
         72:1d:0d:8c:ca:3f:73:65:c2:d9:1d:bd:b4:34:cf:3d:06:01:
         e9:41:67:23:50:d0:b3:bf:66:fc:81:7d:82:ef:11:95:3f:cc:
         7d:74:08:50:c5:c1:ba:e4:45:85:aa:24:94:52:dc:8e:d9:06:
         b0:5b:af:d0:9d:7e:70:d2:79:42:99:c5:c9:bb:65:d3:b8:4d:
         14:95:45:67:0b:8a:1f:42:23:0a:72:3e:b1:96:08:66:78:cd:
         e3:e7:8a:ad:b5:60:63:07:a0:f9:0b:d4:17:63:a6:e8:2d:02:
         3d:02:c8:d7:4a:9a:49:f9:14:5b:72:35:d0:d3:56:1b:20:13:
         0f:30:0b:2f:93:da:da:a1:d2:c7:3e:7e:97:c0:f8:4d:64:dc:
         56:40:c6:d2:a8:23:5c:6f:ef:1d:ca:9d:09:0a:c8:cd:e1:f5:
         87:34:0a:be:af:d8:22:6c:3c:d8:40:df:ce:53:f6:27:6c:5d:
         76:29:e6:aa:71:7e:32:e5:51:f7:bd:3f:10:19:98:66:01:1e:
         b6:7f:24:09:fa:9e:3a:f2:0a:97:7e:01:c6:cc:9b:ae:36:57:
         4b:8a:11:2e
-----BEGIN CERTIFICATE-----
MIIDXDCCAkSgAwIBAgIQOEjPNmxWCV39+SRgh2JVmzANBgkqhkiG9w0BAQsFADAW
MRQwEgYDVQQDDAt0ZWFtNDczLW5ldDAeFw0yMTA5MTMwMjUzMTdaFw0yNDA4Mjgw
MjUzMTdaMBkxFzAVBgNVBAMMDnRlYW00NzMtY2xpZW50MIIBIjANBgkqhkiG9w0B
AQEFAAOCAQ8AMIIBCgKCAQEAzJEU/hxtv2/HvO/YXgekhmOE0vGFw24w7yEEVZ56
Rg2+dmsLd17A2hFwFUyygEeaT0Z7HqqDQ4JOsuU33k8NFJkfus/kb+BCMFfXCMDO
JYUMXdLup9W+YRFaOk7WB36V66vH1B9CfZkWPoukd9Rt96HHbK1E/Tx0F9Ppohdw
Mvnru0V7KMqMOWDD5xiiArqDAlRRYEGWBkKxAMyImFWf+aqqI2QUySlY8WqJbH1G
gWrWDl/jHOQD34x8N2AgK0SPKQ/4ngD+pKCzPhtwJsQ1LAomiGdSu6RDGqZk8cXn
Z0G5wiPetQGG2o+XTFEYJuTkloxAOcRNdgHOFExIcDar7QIDAQABo4GiMIGfMAkG
A1UdEwQCMAAwHQYDVR0OBBYEFDrnkX8csAKzH7+nUxA4XmQnCNZ3MFEGA1UdIwRK
MEiAFNEIRl4zSw/GT1FkIXz3oJxIyABsoRqkGDAWMRQwEgYDVQQDDAt0ZWFtNDcz
LW5ldIIUKApZm4aB3bH8SR7qEJCMFbQmKRIwEwYDVR0lBAwwCgYIKwYBBQUHAwIw
CwYDVR0PBAQDAgeAMA0GCSqGSIb3DQEBCwUAA4IBAQACfLwtjcNzJ6GnjS6XyKSD
5sOGt1AuPD9gaVT4uBuZdB0HD8xyHQ2Myj9zZcLZHb20NM89BgHpQWcjUNCzv2b8
gX2C7xGVP8x9dAhQxcG65EWFqiSUUtyO2QawW6/QnX5w0nlCmcXJu2XTuE0UlUVn
C4ofQiMKcj6xlghmeM3j54qttWBjB6D5C9QXY6boLQI9AsjXSppJ+RRbcjXQ01Yb
IBMPMAsvk9raodLHPn6XwPhNZNxWQMbSqCNcb+8dyp0JCsjN4fWHNAq+r9gibDzY
QN/OU/YnbF12KeaqcX4y5VH3vT8QGZhmAR62fyQJ+p468gqXfgHGzJuuNldLihEu
-----END CERTIFICATE-----
