Certificate:
    Data:
        Version: 3 (0x2)
        Serial Number:
            31:23:8f:0e:10:45:f0:80:5a:3c:03:bd:44:02:5c:cd
        Signature Algorithm: sha256WithRSAEncryption
        Issuer: CN=team254-net
        Validity
            Not Before: Sep 13 01:04:07 2021 GMT
            Not After : Aug 28 01:04:07 2024 GMT
        Subject: CN=team254-server
        Subject Public Key Info:
            Public Key Algorithm: rsaEncryption
                RSA Public-Key: (2048 bit)
                Modulus:
                    00:c8:77:9b:7c:91:be:e6:8d:93:a9:73:92:7b:c8:
                    54:b6:a2:57:c9:89:d2:22:59:79:b0:61:b5:19:8f:
                    fb:95:45:a3:d6:36:4f:02:27:b6:34:0b:88:7d:f9:
                    fe:3c:44:8e:03:9d:2d:f5:7d:e0:bc:8e:76:10:ff:
                    f9:30:64:4d:b6:e4:63:f9:8d:4e:01:20:a0:ba:15:
                    3f:73:cc:2f:72:5c:73:72:03:cb:97:9d:7e:70:b8:
                    e1:4b:4b:e9:eb:de:5d:91:21:9d:5d:c9:28:1a:78:
                    df:38:19:e1:f8:ec:1c:67:70:aa:da:4c:11:f1:7b:
                    e9:fb:d1:f5:09:ba:a7:96:b9:28:24:7b:30:81:d7:
                    d2:e8:94:30:f0:dc:69:9a:12:1c:60:96:ad:21:b6:
                    7d:a4:ac:b6:91:a3:c4:47:e9:dc:e4:3f:bc:9e:6c:
                    7b:99:d6:2f:2b:a1:0f:29:f6:9f:4e:a0:dc:2d:81:
                    c3:0a:a1:03:99:44:68:7f:5f:6d:85:39:67:bc:d7:
                    3a:7f:0a:d5:74:35:49:68:0d:52:68:45:8b:7e:aa:
                    30:da:96:6c:e0:48:c5:f8:52:4d:6a:0c:6f:0c:9c:
                    3d:9f:44:cb:7e:92:d4:8a:c7:80:6c:9f:f4:15:99:
                    1f:4a:a2:5d:6c:46:bc:24:1f:0f:29:21:dc:5b:5c:
                    60:47
                Exponent: 65537 (0x10001)
        X509v3 extensions:
            X509v3 Basic Constraints: 
                CA:FALSE
            X509v3 Subject Key Identifier: 
                74:24:D5:3B:73:20:6D:E5:F7:88:52:F0:D4:3A:87:BF:CC:6B:D3:D6
            X509v3 Authority Key Identifier: 
                keyid:82:32:24:B4:5B:0B:D3:67:53:74:3E:7D:89:4F:F8:0D:EF:E0:49:25
                DirName:/CN=team254-net
                serial:1A:B5:8B:A3:88:A2:80:EA:46:B4:C8:20:87:DF:99:23:41:60:52:0A

            X509v3 Extended Key Usage: 
                TLS Web Server Authentication
            X509v3 Key Usage: 
                Digital Signature, Key Encipherment
            X509v3 Subject Alternative Name: 
                DNS:team254-server
    Signature Algorithm: sha256WithRSAEncryption
         49:66:c2:15:f3:0d:75:58:58:e6:fb:65:9b:55:bc:6b:9e:11:
         0c:5c:b4:e3:d5:52:ef:32:39:71:eb:32:50:69:65:3a:93:84:
         65:0c:30:d3:63:ad:d2:65:1c:9a:c2:0f:96:de:80:f3:a7:df:
         28:b2:40:6c:24:a7:43:d9:37:1a:9c:4b:7e:59:12:b8:22:4a:
         20:9d:d4:5a:df:db:9b:bf:89:a9:a5:45:09:7a:ca:fb:f2:4d:
         ee:69:e3:07:25:04:ed:38:8a:8a:84:a1:0b:0e:3e:35:69:d8:
         ae:cd:e5:9e:6d:3f:d4:84:99:24:63:62:f4:c9:d3:2a:64:48:
         53:74:a4:65:15:74:97:e8:b6:01:54:35:46:bf:58:9e:95:fa:
         1c:18:4d:0c:ff:f3:24:b8:b3:8c:0f:61:d0:0f:c3:22:e0:c0:
         22:6e:f5:d6:4c:d9:fe:87:13:90:70:ff:a3:92:4c:f3:70:a2:
         ad:19:d0:a4:9e:08:1c:1a:a0:8f:93:05:87:58:d7:1e:98:8d:
         4d:3d:f3:1c:1a:c5:05:f5:f7:36:6f:67:93:4a:04:2e:bc:67:
         c2:4f:c6:2f:54:2b:e3:52:8e:99:a7:ff:43:6f:7f:9f:f2:a7:
         4a:38:c5:bf:1b:d7:92:3d:72:fd:74:41:8b:72:70:cc:a1:c8:
         64:f6:4b:f5
-----BEGIN CERTIFICATE-----
MIIDdzCCAl+gAwIBAgIQMSOPDhBF8IBaPAO9RAJczTANBgkqhkiG9w0BAQsFADAW
MRQwEgYDVQQDDAt0ZWFtMjU0LW5ldDAeFw0yMTA5MTMwMTA0MDdaFw0yNDA4Mjgw
MTA0MDdaMBkxFzAVBgNVBAMMDnRlYW0yNTQtc2VydmVyMIIBIjANBgkqhkiG9w0B
AQEFAAOCAQ8AMIIBCgKCAQEAyHebfJG+5o2TqXOSe8hUtqJXyYnSIll5sGG1GY/7
lUWj1jZPAie2NAuIffn+PESOA50t9X3gvI52EP/5MGRNtuRj+Y1OASCguhU/c8wv
clxzcgPLl51+cLjhS0vp695dkSGdXckoGnjfOBnh+OwcZ3Cq2kwR8Xvp+9H1Cbqn
lrkoJHswgdfS6JQw8NxpmhIcYJatIbZ9pKy2kaPER+nc5D+8nmx7mdYvK6EPKfaf
TqDcLYHDCqEDmURof19thTlnvNc6fwrVdDVJaA1SaEWLfqow2pZs4EjF+FJNagxv
DJw9n0TLfpLUiseAbJ/0FZkfSqJdbEa8JB8PKSHcW1xgRwIDAQABo4G9MIG6MAkG
A1UdEwQCMAAwHQYDVR0OBBYEFHQk1TtzIG3l94hS8NQ6h7/Ma9PWMFEGA1UdIwRK
MEiAFIIyJLRbC9NnU3Q+fYlP+A3v4EkloRqkGDAWMRQwEgYDVQQDDAt0ZWFtMjU0
LW5ldIIUGrWLo4iigOpGtMggh9+ZI0FgUgowEwYDVR0lBAwwCgYIKwYBBQUHAwEw
CwYDVR0PBAQDAgWgMBkGA1UdEQQSMBCCDnRlYW0yNTQtc2VydmVyMA0GCSqGSIb3
DQEBCwUAA4IBAQBJZsIV8w11WFjm+2WbVbxrnhEMXLTj1VLvMjlx6zJQaWU6k4Rl
DDDTY63SZRyawg+W3oDzp98oskBsJKdD2TcanEt+WRK4IkogndRa39ubv4mppUUJ
esr78k3uaeMHJQTtOIqKhKELDj41adiuzeWebT/UhJkkY2L0ydMqZEhTdKRlFXSX
6LYBVDVGv1ielfocGE0M//MkuLOMD2HQD8Mi4MAibvXWTNn+hxOQcP+jkkzzcKKt
GdCknggcGqCPkwWHWNcemI1NPfMcGsUF9fc2b2eTSgQuvGfCT8YvVCvjUo6Zp/9D
b3+f8qdKOMW/G9eSPXL9dEGLcnDMochk9kv1
-----END CERTIFICATE-----
