Certificate:
    Data:
        Version: 3 (0x2)
        Serial Number:
            a2:b2:32:46:e4:13:9a:89:0a:de:3a:11:43:eb:92:19
        Signature Algorithm: sha256WithRSAEncryption
        Issuer: CN=team660-net
        Validity
            Not Before: Sep 13 04:26:56 2021 GMT
            Not After : Aug 28 04:26:56 2024 GMT
        Subject: CN=team660-client
        Subject Public Key Info:
            Public Key Algorithm: rsaEncryption
                RSA Public-Key: (2048 bit)
                Modulus:
                    00:a0:f9:bf:a2:03:3a:6e:99:08:ae:d6:f5:a0:4c:
                    9a:58:d5:fd:12:18:19:2d:cf:8a:04:15:1d:a6:64:
                    66:61:2e:e3:e6:8a:0d:9f:6c:b8:b1:b4:62:f2:6d:
                    48:4f:2d:cc:ca:de:f5:6d:c1:3a:8c:05:c6:c5:81:
                    ca:12:76:5b:a4:26:32:32:7e:a8:d2:01:34:d2:a4:
                    5b:df:34:94:88:61:ec:5d:8c:f1:d1:11:1e:cc:f7:
                    32:02:cf:56:7c:5f:7f:17:79:82:54:bd:e8:19:d4:
                    7a:d7:e9:d2:75:62:70:d2:77:f8:10:1c:60:32:16:
                    18:01:ba:6b:52:86:97:6b:b2:13:76:a0:d9:6f:7b:
                    5f:3f:75:b3:99:03:36:88:b3:c8:11:e5:78:af:ee:
                    9e:e8:38:4a:97:26:ab:c0:db:32:f6:e9:5a:45:45:
                    c3:ec:38:f5:6f:6d:d3:18:15:5d:e4:2b:7c:64:d6:
                    98:a9:04:88:52:61:7f:33:48:88:d5:e2:c7:2b:e3:
                    38:9d:d8:59:5b:00:56:df:e4:4c:50:b2:d8:62:6d:
                    03:35:44:6f:14:e8:f7:0e:25:c3:34:43:92:34:e3:
                    b7:e4:ed:a4:17:01:1d:aa:47:6b:0b:f5:4f:b4:20:
                    c5:1b:3d:b5:f6:bd:a4:b4:19:e6:6f:ae:44:d4:39:
                    75:21
                Exponent: 65537 (0x10001)
        X509v3 extensions:
            X509v3 Basic Constraints: 
                CA:FALSE
            X509v3 Subject Key Identifier: 
                6E:76:36:A8:8E:B2:B4:64:52:A5:F0:54:50:82:61:7F:5B:20:A9:51
            X509v3 Authority Key Identifier: 
                keyid:D7:61:D9:1A:2D:45:25:17:42:C4:E6:C9:C8:AB:D0:51:81:56:D5:E9
                DirName:/CN=team660-net
                serial:7F:E1:E5:39:66:B2:52:03:93:0B:54:2C:63:99:36:13:5A:2E:F7

            X509v3 Extended Key Usage: 
                TLS Web Client Authentication
            X509v3 Key Usage: 
                Digital Signature
    Signature Algorithm: sha256WithRSAEncryption
         95:05:dd:ee:23:40:81:fd:1b:ac:53:ef:79:22:31:fc:cd:e0:
         3c:3a:84:f1:ac:4c:7e:c7:e1:92:1a:50:9e:54:16:46:37:ee:
         37:da:0a:93:63:bb:c0:f5:2d:01:88:92:72:f4:5a:da:e2:61:
         bf:7d:28:ce:60:92:f3:01:a9:84:7b:28:0e:30:39:b8:16:dd:
         b7:ed:40:e1:a7:1d:a5:a2:2e:42:e3:42:34:aa:9f:91:a4:27:
         40:e8:5b:eb:e7:7b:15:fb:34:f9:76:70:c3:7c:31:7a:3a:18:
         ee:41:0c:1e:46:97:4c:51:54:ac:d9:1a:17:b7:89:83:57:68:
         8c:03:21:93:ca:7f:00:8d:af:9e:bf:df:ad:ab:4f:6f:df:d1:
         9d:7e:ef:84:65:db:8f:13:c7:a2:8a:b7:22:a2:9c:2d:9e:ce:
         42:7b:c4:67:38:b4:f9:ab:99:0c:10:b2:e5:77:73:68:14:48:
         0e:80:8f:98:7e:99:97:9f:96:f2:5d:99:70:56:9a:e9:55:1c:
         25:6d:65:19:d2:e5:1d:c2:28:34:3d:c4:87:81:42:f0:94:f4:
         2c:d4:a0:9a:2d:15:aa:ea:da:53:1b:61:c6:dd:49:3d:f4:8f:
         c3:04:18:9f:95:1a:84:0c:97:d2:81:af:5e:6e:97:64:63:f7:
         c3:f9:66:eb
-----BEGIN CERTIFICATE-----
MIIDXDCCAkSgAwIBAgIRAKKyMkbkE5qJCt46EUPrkhkwDQYJKoZIhvcNAQELBQAw
FjEUMBIGA1UEAwwLdGVhbTY2MC1uZXQwHhcNMjEwOTEzMDQyNjU2WhcNMjQwODI4
MDQyNjU2WjAZMRcwFQYDVQQDDA50ZWFtNjYwLWNsaWVudDCCASIwDQYJKoZIhvcN
AQEBBQADggEPADCCAQoCggEBAKD5v6IDOm6ZCK7W9aBMmljV/RIYGS3PigQVHaZk
ZmEu4+aKDZ9suLG0YvJtSE8tzMre9W3BOowFxsWByhJ2W6QmMjJ+qNIBNNKkW980
lIhh7F2M8dERHsz3MgLPVnxffxd5glS96BnUetfp0nVicNJ3+BAcYDIWGAG6a1KG
l2uyE3ag2W97Xz91s5kDNoizyBHleK/unug4Spcmq8DbMvbpWkVFw+w49W9t0xgV
XeQrfGTWmKkEiFJhfzNIiNXixyvjOJ3YWVsAVt/kTFCy2GJtAzVEbxTo9w4lwzRD
kjTjt+TtpBcBHapHawv1T7QgxRs9tfa9pLQZ5m+uRNQ5dSECAwEAAaOBoTCBnjAJ
BgNVHRMEAjAAMB0GA1UdDgQWBBRudjaojrK0ZFKl8FRQgmF/WyCpUTBQBgNVHSME
STBHgBTXYdkaLUUlF0LE5snIq9BRgVbV6aEapBgwFjEUMBIGA1UEAwwLdGVhbTY2
MC1uZXSCE3/h5TlmslIDkwtULGOZNhNaLvcwEwYDVR0lBAwwCgYIKwYBBQUHAwIw
CwYDVR0PBAQDAgeAMA0GCSqGSIb3DQEBCwUAA4IBAQCVBd3uI0CB/RusU+95IjH8
zeA8OoTxrEx+x+GSGlCeVBZGN+432gqTY7vA9S0BiJJy9Fra4mG/fSjOYJLzAamE
eygOMDm4Ft237UDhpx2loi5C40I0qp+RpCdA6Fvr53sV+zT5dnDDfDF6OhjuQQwe
RpdMUVSs2RoXt4mDV2iMAyGTyn8Aja+ev9+tq09v39Gdfu+EZduPE8eiirciopwt
ns5Ce8RnOLT5q5kMELLld3NoFEgOgI+YfpmXn5byXZlwVprpVRwlbWUZ0uUdwig0
PcSHgULwlPQs1KCaLRWq6tpTG2HG3Uk99I/DBBiflRqEDJfSga9ebpdkY/fD+Wbr
-----END CERTIFICATE-----
