Certificate:
    Data:
        Version: 3 (0x2)
        Serial Number:
            6e:57:af:89:a6:0c:b8:45:26:22:96:fe:4b:86:f9:03
        Signature Algorithm: sha256WithRSAEncryption
        Issuer: CN=team660-net
        Validity
            Not Before: Sep 13 04:26:56 2021 GMT
            Not After : Aug 28 04:26:56 2024 GMT
        Subject: CN=team660-server
        Subject Public Key Info:
            Public Key Algorithm: rsaEncryption
                RSA Public-Key: (2048 bit)
                Modulus:
                    00:b9:8b:ab:62:a8:42:27:f6:90:4f:ef:d9:00:77:
                    b6:84:a4:04:a3:16:2d:89:3b:34:0b:b7:a4:22:ed:
                    33:13:7b:16:a1:1c:75:a3:a4:c6:ee:21:5d:ae:e5:
                    84:92:2e:73:07:d0:8d:14:2e:48:dc:04:ac:1c:74:
                    2c:6f:d8:24:e4:2f:8e:cc:02:6a:e2:3e:04:69:e2:
                    3f:a4:58:33:f3:2f:f6:9d:dc:37:72:05:2e:43:c0:
                    0b:bb:4e:46:9b:5e:df:a4:0e:71:46:66:27:93:7a:
                    e7:a2:57:2b:e7:c6:f9:b8:2c:0d:13:dd:72:c2:54:
                    75:22:a9:bf:3d:ab:9d:d5:f6:bd:b4:2a:fc:e1:85:
                    c7:3e:57:dc:e0:11:c7:6d:86:a4:7c:39:17:e7:f8:
                    d8:39:93:9c:69:60:af:71:40:7a:89:45:04:a1:97:
                    07:8a:0a:9f:e8:1c:58:7d:1b:5e:85:24:8a:d9:ff:
                    94:52:59:fc:81:f6:b3:29:e9:8a:9d:9a:0b:bf:dc:
                    36:74:cb:e7:91:f3:ac:6c:46:c4:08:0d:0e:58:96:
                    94:0c:22:cd:ea:72:3f:22:40:84:e7:59:6d:cf:68:
                    1c:5e:fe:08:e6:0e:3c:8c:d9:dd:e7:d6:13:82:bb:
                    16:cb:61:0f:59:ee:77:fb:b7:9a:c0:21:5a:e4:4f:
                    8f:6d
                Exponent: 65537 (0x10001)
        X509v3 extensions:
            X509v3 Basic Constraints: 
                CA:FALSE
            X509v3 Subject Key Identifier: 
                C5:C7:16:B3:C6:EF:DA:6B:F2:4D:D8:F4:66:BB:68:2E:0D:74:41:94
            X509v3 Authority Key Identifier: 
                keyid:D7:61:D9:1A:2D:45:25:17:42:C4:E6:C9:C8:AB:D0:51:81:56:D5:E9
                DirName:/CN=team660-net
                serial:7F:E1:E5:39:66:B2:52:03:93:0B:54:2C:63:99:36:13:5A:2E:F7

            X509v3 Extended Key Usage: 
                TLS Web Server Authentication
            X509v3 Key Usage: 
                Digital Signature, Key Encipherment
            X509v3 Subject Alternative Name: 
                DNS:team660-server
    Signature Algorithm: sha256WithRSAEncryption
         74:44:db:4f:cb:b6:9f:5e:43:18:26:53:4b:e8:22:5f:13:c7:
         a0:a8:bb:d5:aa:65:c2:df:6d:3f:1f:32:08:d7:e7:01:58:1a:
         d8:83:45:bc:5b:d6:b3:e5:0e:ad:7d:fc:e8:56:3c:14:5f:5c:
         73:30:f7:a6:80:5d:96:da:87:8d:8d:e5:79:6a:3f:a1:89:9e:
         4a:df:ea:80:e7:98:f3:03:5e:0d:57:e4:c5:73:51:35:70:3b:
         f1:cf:84:37:2c:94:3b:e4:2c:c7:b1:22:1d:1b:a8:73:02:41:
         2e:ab:c5:f3:10:95:40:2a:79:e8:85:13:f2:fa:9e:cc:07:9a:
         f0:cf:2f:25:6a:de:4d:f8:62:2d:92:42:2f:45:4d:cc:af:6b:
         0d:6f:14:d6:70:bc:72:52:3e:b1:75:1e:e0:6e:dd:ca:52:84:
         19:1e:47:50:c6:64:87:75:ff:d3:60:ac:73:21:51:12:d9:8a:
         de:f1:d9:df:ae:ca:69:87:21:b2:cb:f9:18:22:79:85:28:1a:
         58:67:37:c1:5d:d4:78:a5:63:9b:08:41:7a:4f:5f:22:8f:bb:
         cd:56:b2:44:86:14:8d:48:3e:01:01:13:e6:20:1f:9b:4f:c2:
         0e:01:e5:c0:e2:cf:26:ca:aa:97:81:ca:7b:0c:f7:0b:d7:cb:
         8a:75:9e:ba
-----BEGIN CERTIFICATE-----
MIIDdjCCAl6gAwIBAgIQbleviaYMuEUmIpb+S4b5AzANBgkqhkiG9w0BAQsFADAW
MRQwEgYDVQQDDAt0ZWFtNjYwLW5ldDAeFw0yMTA5MTMwNDI2NTZaFw0yNDA4Mjgw
NDI2NTZaMBkxFzAVBgNVBAMMDnRlYW02NjAtc2VydmVyMIIBIjANBgkqhkiG9w0B
AQEFAAOCAQ8AMIIBCgKCAQEAuYurYqhCJ/aQT+/ZAHe2hKQEoxYtiTs0C7ekIu0z
E3sWoRx1o6TG7iFdruWEki5zB9CNFC5I3ASsHHQsb9gk5C+OzAJq4j4EaeI/pFgz
8y/2ndw3cgUuQ8ALu05Gm17fpA5xRmYnk3rnolcr58b5uCwNE91ywlR1Iqm/Paud
1fa9tCr84YXHPlfc4BHHbYakfDkX5/jYOZOcaWCvcUB6iUUEoZcHigqf6BxYfRte
hSSK2f+UUln8gfazKemKnZoLv9w2dMvnkfOsbEbECA0OWJaUDCLN6nI/IkCE51lt
z2gcXv4I5g48jNnd59YTgrsWy2EPWe53+7eawCFa5E+PbQIDAQABo4G8MIG5MAkG
A1UdEwQCMAAwHQYDVR0OBBYEFMXHFrPG79pr8k3Y9Ga7aC4NdEGUMFAGA1UdIwRJ
MEeAFNdh2RotRSUXQsTmycir0FGBVtXpoRqkGDAWMRQwEgYDVQQDDAt0ZWFtNjYw
LW5ldIITf+HlOWayUgOTC1QsY5k2E1ou9zATBgNVHSUEDDAKBggrBgEFBQcDATAL
BgNVHQ8EBAMCBaAwGQYDVR0RBBIwEIIOdGVhbTY2MC1zZXJ2ZXIwDQYJKoZIhvcN
AQELBQADggEBAHRE20/Ltp9eQxgmU0voIl8Tx6Cou9WqZcLfbT8fMgjX5wFYGtiD
Rbxb1rPlDq19/OhWPBRfXHMw96aAXZbah42N5XlqP6GJnkrf6oDnmPMDXg1X5MVz
UTVwO/HPhDcslDvkLMexIh0bqHMCQS6rxfMQlUAqeeiFE/L6nswHmvDPLyVq3k34
Yi2SQi9FTcyvaw1vFNZwvHJSPrF1HuBu3cpShBkeR1DGZId1/9NgrHMhURLZit7x
2d+uymmHIbLL+RgieYUoGlhnN8Fd1HilY5sIQXpPXyKPu81WskSGFI1IPgEBE+Yg
H5tPwg4B5cDizybKqpeBynsM9wvXy4p1nro=
-----END CERTIFICATE-----
