Certificate:
    Data:
        Version: 3 (0x2)
        Serial Number:
            f7:de:01:90:67:18:a5:ef:8b:1d:43:f2:1d:60:1a:fd
        Signature Algorithm: sha256WithRSAEncryption
        Issuer: CN=team72-net
        Validity
            Not Before: Sep 12 23:19:27 2021 GMT
            Not After : Aug 27 23:19:27 2024 GMT
        Subject: CN=team72-server
        Subject Public Key Info:
            Public Key Algorithm: rsaEncryption
                RSA Public-Key: (2048 bit)
                Modulus:
                    00:bd:ee:f0:e9:8a:3b:96:3b:aa:17:46:4a:1f:c7:
                    2d:b6:35:90:eb:4e:be:87:4a:6d:91:aa:bd:10:89:
                    ae:5f:fd:b5:5a:30:01:25:4b:2c:94:b2:d2:68:e9:
                    c0:39:74:01:29:51:01:52:94:b2:0e:94:38:6b:d9:
                    b1:a2:bc:63:54:2d:0b:42:b2:67:44:9c:a2:77:a3:
                    3a:35:16:8e:0c:ec:21:db:fa:51:06:d1:f2:57:e9:
                    66:ee:39:80:9c:3a:03:08:06:fd:85:55:d3:20:c5:
                    3e:5e:77:8b:e7:2c:a1:13:f1:36:0e:a2:76:fe:0c:
                    c0:83:71:1e:c0:c5:e9:69:e0:27:7d:0f:6d:db:a5:
                    51:e7:f2:3e:79:28:09:14:e3:9b:6f:37:d9:80:71:
                    d4:06:85:3c:b6:2a:d1:a8:11:a4:bb:cb:66:14:9d:
                    08:51:4d:34:d2:f1:dc:de:ea:3f:a6:71:25:2c:57:
                    60:58:ca:74:08:7d:01:36:9d:b9:cd:d8:d8:77:ef:
                    bb:1c:f6:1f:95:01:3e:13:03:28:5b:53:fb:28:e9:
                    7f:11:ef:da:4f:17:6b:c0:38:49:4b:b0:36:44:55:
                    e3:6e:38:1d:d7:3d:7b:48:f9:73:d2:03:8c:0e:6d:
                    b1:8a:f6:6a:2f:49:dc:d8:fa:90:97:c6:1a:53:e6:
                    33:4f
                Exponent: 65537 (0x10001)
        X509v3 extensions:
            X509v3 Basic Constraints: 
                CA:FALSE
            X509v3 Subject Key Identifier: 
                80:37:E1:F5:F2:4C:47:1C:77:28:43:1D:90:02:5B:6A:91:D7:5F:39
            X509v3 Authority Key Identifier: 
                keyid:EE:51:24:BB:86:80:6F:AE:1F:B2:3F:20:B1:32:A4:5C:B2:4B:BA:85
                DirName:/CN=team72-net
                serial:1E:83:79:1D:A9:F3:94:14:71:88:0A:4F:9D:5C:9B:C1:C0:F1:5C:3B

            X509v3 Extended Key Usage: 
                TLS Web Server Authentication
            X509v3 Key Usage: 
                Digital Signature, Key Encipherment
            X509v3 Subject Alternative Name: 
                DNS:team72-server
    Signature Algorithm: sha256WithRSAEncryption
         4e:a4:14:30:65:b6:a4:3b:ed:af:32:82:d4:72:54:f5:d1:cc:
         99:a6:09:af:76:1f:a9:25:23:fe:6c:ad:07:a6:c8:c9:36:dc:
         93:44:99:e6:fb:ee:ab:be:3d:4f:f1:fe:e2:5f:cc:d4:27:a5:
         25:6a:90:55:ef:94:9d:46:ef:fc:57:57:39:09:24:f7:e8:e9:
         cb:7c:3c:87:59:08:3b:2a:08:f1:55:97:90:77:b5:6f:5a:65:
         17:17:bc:01:1a:ba:e9:06:42:94:88:87:92:8d:9b:8e:a9:ef:
         8c:f1:95:ef:30:6d:16:e9:ee:d2:1c:12:80:52:3e:01:06:70:
         8a:ff:78:7b:af:f9:e1:1b:47:aa:f3:81:41:8f:b8:28:7d:4f:
         98:36:ff:7c:7f:57:e6:88:48:5d:59:42:72:8b:ba:1b:8e:cc:
         9a:36:7b:6c:54:ab:85:5c:20:af:f8:69:97:fa:6d:63:18:dc:
         d8:eb:18:92:5e:74:c1:42:59:19:0d:f9:83:a7:60:54:ae:78:
         bc:bc:73:23:80:70:45:cc:4d:89:40:8b:d2:5a:c8:67:29:d7:
         bc:ad:e9:cd:79:38:7d:c0:fc:62:8b:58:d9:d8:73:64:c8:56:
         b6:2d:28:02:8f:f6:93:3e:2d:63:f2:2d:48:1d:5b:ea:99:0e:
         3a:ee:fe:53
-----BEGIN CERTIFICATE-----
MIIDdDCCAlygAwIBAgIRAPfeAZBnGKXvix1D8h1gGv0wDQYJKoZIhvcNAQELBQAw
FTETMBEGA1UEAwwKdGVhbTcyLW5ldDAeFw0yMTA5MTIyMzE5MjdaFw0yNDA4Mjcy
MzE5MjdaMBgxFjAUBgNVBAMMDXRlYW03Mi1zZXJ2ZXIwggEiMA0GCSqGSIb3DQEB
AQUAA4IBDwAwggEKAoIBAQC97vDpijuWO6oXRkofxy22NZDrTr6HSm2Rqr0Qia5f
/bVaMAElSyyUstJo6cA5dAEpUQFSlLIOlDhr2bGivGNULQtCsmdEnKJ3ozo1Fo4M
7CHb+lEG0fJX6WbuOYCcOgMIBv2FVdMgxT5ed4vnLKET8TYOonb+DMCDcR7Axelp
4Cd9D23bpVHn8j55KAkU45tvN9mAcdQGhTy2KtGoEaS7y2YUnQhRTTTS8dze6j+m
cSUsV2BYynQIfQE2nbnN2Nh377sc9h+VAT4TAyhbU/so6X8R79pPF2vAOElLsDZE
VeNuOB3XPXtI+XPSA4wObbGK9movSdzY+pCXxhpT5jNPAgMBAAGjgbswgbgwCQYD
VR0TBAIwADAdBgNVHQ4EFgQUgDfh9fJMRxx3KEMdkAJbapHXXzkwUAYDVR0jBEkw
R4AU7lEku4aAb64fsj8gsTKkXLJLuoWhGaQXMBUxEzARBgNVBAMMCnRlYW03Mi1u
ZXSCFB6DeR2p85QUcYgKT51cm8HA8Vw7MBMGA1UdJQQMMAoGCCsGAQUFBwMBMAsG
A1UdDwQEAwIFoDAYBgNVHREEETAPgg10ZWFtNzItc2VydmVyMA0GCSqGSIb3DQEB
CwUAA4IBAQBOpBQwZbakO+2vMoLUclT10cyZpgmvdh+pJSP+bK0HpsjJNtyTRJnm
++6rvj1P8f7iX8zUJ6UlapBV75SdRu/8V1c5CST36OnLfDyHWQg7KgjxVZeQd7Vv
WmUXF7wBGrrpBkKUiIeSjZuOqe+M8ZXvMG0W6e7SHBKAUj4BBnCK/3h7r/nhG0eq
84FBj7gofU+YNv98f1fmiEhdWUJyi7objsyaNntsVKuFXCCv+GmX+m1jGNzY6xiS
XnTBQlkZDfmDp2BUrni8vHMjgHBFzE2JQIvSWshnKde8renNeTh9wPxii1jZ2HNk
yFa2LSgCj/aTPi1j8i1IHVvqmQ467v5T
-----END CERTIFICATE-----
