Certificate:
    Data:
        Version: 3 (0x2)
        Serial Number:
            b8:e4:21:b3:21:a6:5e:7f:e2:4d:93:db:c8:11:58:79
        Signature Algorithm: sha256WithRSAEncryption
        Issuer: CN=team371-net
        Validity
            Not Before: Sep 13 02:08:25 2021 GMT
            Not After : Aug 28 02:08:25 2024 GMT
        Subject: CN=team371-client
        Subject Public Key Info:
            Public Key Algorithm: rsaEncryption
                RSA Public-Key: (2048 bit)
                Modulus:
                    00:ab:44:82:b5:6e:38:0d:eb:3f:1b:6d:9e:f1:76:
                    f6:23:f3:19:ef:48:4d:b5:6b:1e:e7:1d:db:79:0c:
                    15:b6:7a:47:79:24:cd:7a:f6:23:04:97:bd:03:04:
                    8c:15:d0:b3:8c:b4:e6:3a:db:f2:d1:93:ed:e2:7d:
                    36:2a:63:ce:1e:fa:3c:3d:ea:b6:2a:d0:76:7f:a6:
                    aa:b0:b9:c8:cb:79:3b:de:71:93:31:aa:2a:10:5a:
                    86:d3:dd:99:5f:e9:8c:e6:af:42:22:05:8d:54:eb:
                    6d:fc:4c:6f:c6:5f:5f:f0:8c:b0:8c:3f:e7:7c:77:
                    5a:3c:dd:62:8e:f6:2a:97:b7:17:1f:19:e8:bf:0b:
                    56:50:00:d7:16:bf:fc:86:2c:94:b1:9e:a1:a8:19:
                    37:80:e8:31:a0:9c:51:47:93:ba:b0:d5:a3:7b:63:
                    cd:87:91:3c:3b:26:fb:b1:8b:16:76:30:40:f0:c4:
                    04:1f:4e:5f:76:fd:f0:bb:93:c1:5b:d4:ef:70:97:
                    0a:57:f6:1c:2f:37:85:0c:41:72:d5:7e:ac:6e:46:
                    c7:23:ee:d5:19:f5:60:80:ca:2f:ce:db:a7:c2:74:
                    c2:62:31:ec:25:a2:96:54:05:8d:15:a3:61:d3:e5:
                    a1:71:bf:ed:a4:77:b4:6e:ef:ab:02:a4:78:a7:cb:
                    d4:cf
                Exponent: 65537 (0x10001)
        X509v3 extensions:
            X509v3 Basic Constraints: 
                CA:FALSE
            X509v3 Subject Key Identifier: 
                AB:E1:24:2F:C7:71:B9:74:C3:41:19:A6:B5:5F:EE:85:CB:67:7E:E3
            X509v3 Authority Key Identifier: 
                keyid:9A:DB:85:FD:C8:9A:B7:B5:AD:3F:BC:DC:D7:84:FF:52:3A:19:93:11
                DirName:/CN=team371-net
                serial:41:90:FF:84:B4:A2:B0:77:84:63:89:5F:3F:03:37:27:D8:03:EA:B7

            X509v3 Extended Key Usage: 
                TLS Web Client Authentication
            X509v3 Key Usage: 
                Digital Signature
    Signature Algorithm: sha256WithRSAEncryption
         3a:f8:54:2c:b1:08:4d:14:a9:32:c3:8f:16:e0:10:4f:f2:12:
         2c:21:ee:f4:ce:40:f7:d4:42:a3:3d:df:26:60:74:33:e7:86:
         99:68:d6:cd:a6:de:d0:68:c3:59:b5:87:29:67:2d:3d:6a:98:
         fb:7d:89:38:29:b7:b6:52:cf:4c:8f:e9:a6:4c:9e:a8:17:7d:
         30:a9:c2:78:de:97:c9:42:cc:4a:a1:03:ff:6e:64:39:e9:d3:
         75:c5:05:f4:8c:29:4b:eb:a9:dd:43:f4:2e:c8:ac:c1:e8:3a:
         c7:ef:6c:35:37:50:8c:c2:bf:94:fe:a2:fb:d2:0f:ae:73:2f:
         b5:e3:89:05:ee:af:a0:5a:ca:4b:1e:ca:dc:ca:45:46:a6:34:
         cb:2d:39:01:02:bb:f7:00:28:7b:36:30:bb:56:1c:d9:c1:44:
         e7:f6:c4:ff:6f:7c:d8:60:70:51:5b:80:7f:5f:cf:4a:bc:0b:
         38:cd:0f:ee:14:27:59:4e:bb:8e:70:f7:12:c5:d1:65:27:71:
         30:c9:5c:f0:00:04:b4:63:bf:d4:c4:74:a0:4a:24:2a:90:65:
         00:63:41:e8:97:af:b7:98:24:f0:5e:c3:13:ec:e8:97:a5:a4:
         9f:73:27:ce:f6:51:56:64:e5:08:86:d8:b0:6c:5e:7c:b9:2d:
         c7:a3:45:a8
-----BEGIN CERTIFICATE-----
MIIDXTCCAkWgAwIBAgIRALjkIbMhpl5/4k2T28gRWHkwDQYJKoZIhvcNAQELBQAw
FjEUMBIGA1UEAwwLdGVhbTM3MS1uZXQwHhcNMjEwOTEzMDIwODI1WhcNMjQwODI4
MDIwODI1WjAZMRcwFQYDVQQDDA50ZWFtMzcxLWNsaWVudDCCASIwDQYJKoZIhvcN
AQEBBQADggEPADCCAQoCggEBAKtEgrVuOA3rPxttnvF29iPzGe9ITbVrHucd23kM
FbZ6R3kkzXr2IwSXvQMEjBXQs4y05jrb8tGT7eJ9Nipjzh76PD3qtirQdn+mqrC5
yMt5O95xkzGqKhBahtPdmV/pjOavQiIFjVTrbfxMb8ZfX/CMsIw/53x3WjzdYo72
Kpe3Fx8Z6L8LVlAA1xa//IYslLGeoagZN4DoMaCcUUeTurDVo3tjzYeRPDsm+7GL
FnYwQPDEBB9OX3b98LuTwVvU73CXClf2HC83hQxBctV+rG5GxyPu1Rn1YIDKL87b
p8J0wmIx7CWillQFjRWjYdPloXG/7aR3tG7vqwKkeKfL1M8CAwEAAaOBojCBnzAJ
BgNVHRMEAjAAMB0GA1UdDgQWBBSr4SQvx3G5dMNBGaa1X+6Fy2d+4zBRBgNVHSME
SjBIgBSa24X9yJq3ta0/vNzXhP9SOhmTEaEapBgwFjEUMBIGA1UEAwwLdGVhbTM3
MS1uZXSCFEGQ/4S0orB3hGOJXz8DNyfYA+q3MBMGA1UdJQQMMAoGCCsGAQUFBwMC
MAsGA1UdDwQEAwIHgDANBgkqhkiG9w0BAQsFAAOCAQEAOvhULLEITRSpMsOPFuAQ
T/ISLCHu9M5A99RCoz3fJmB0M+eGmWjWzabe0GjDWbWHKWctPWqY+32JOCm3tlLP
TI/ppkyeqBd9MKnCeN6XyULMSqED/25kOenTdcUF9IwpS+up3UP0Lsisweg6x+9s
NTdQjMK/lP6i+9IPrnMvteOJBe6voFrKSx7K3MpFRqY0yy05AQK79wAoezYwu1Yc
2cFE5/bE/2982GBwUVuAf1/PSrwLOM0P7hQnWU67jnD3EsXRZSdxMMlc8AAEtGO/
1MR0oEokKpBlAGNB6Jevt5gk8F7DE+zol6Wkn3MnzvZRVmTlCIbYsGxefLktx6NF
qA==
-----END CERTIFICATE-----
