Certificate:
    Data:
        Version: 3 (0x2)
        Serial Number:
            7d:6c:7d:7a:b2:5d:4b:cc:d9:f1:c3:6d:a1:8f:89:07
        Signature Algorithm: sha256WithRSAEncryption
        Issuer: CN=team652-net
        Validity
            Not Before: Sep 13 04:51:46 2021 GMT
            Not After : Aug 28 04:51:46 2024 GMT
        Subject: CN=team652-server
        Subject Public Key Info:
            Public Key Algorithm: rsaEncryption
                RSA Public-Key: (2048 bit)
                Modulus:
                    00:ec:07:56:20:f4:39:18:f0:fd:46:11:d8:69:dd:
                    76:29:2c:dd:9e:91:a0:29:14:fe:03:7b:bc:a3:b4:
                    c1:d6:bf:b1:a8:2d:2f:aa:c8:8c:5a:8c:4b:d0:a5:
                    d3:6e:57:7c:93:20:b2:d6:04:89:c2:4f:09:4b:1a:
                    8c:4b:d9:0a:42:ef:84:92:ea:aa:5f:3c:9e:f4:a9:
                    6c:5b:74:c6:26:3e:d9:c7:10:a1:3f:db:70:5e:6b:
                    65:8e:36:24:24:21:6d:34:48:e5:5f:68:0d:8c:98:
                    90:04:f0:6e:61:c1:e0:c9:be:4c:9d:cf:c9:b1:8e:
                    9a:6e:82:e8:23:23:26:5e:9b:e1:9e:80:c0:d9:17:
                    64:00:df:ae:94:33:d0:06:0e:9f:d2:47:99:d1:f8:
                    3e:89:9f:a5:db:1a:1b:1b:aa:dc:ac:07:f0:58:02:
                    87:85:53:32:c5:2f:46:d2:8e:dd:99:9d:f4:13:5e:
                    d6:ff:a0:1a:e6:24:dd:07:62:b4:bc:a1:c2:4c:23:
                    ac:3f:ad:9f:3c:96:18:ef:3c:42:97:8f:eb:4c:9a:
                    00:98:03:c5:f8:66:f8:be:31:2f:37:8a:d6:4e:31:
                    7c:e9:1a:70:46:51:98:ea:04:aa:e7:ea:cf:ec:c8:
                    b7:15:57:81:5f:9f:93:9c:54:af:1f:6b:7b:cd:ef:
                    bd:a9
                Exponent: 65537 (0x10001)
        X509v3 extensions:
            X509v3 Basic Constraints: 
                CA:FALSE
            X509v3 Subject Key Identifier: 
                36:1A:2B:87:C0:6E:73:15:1E:BE:9F:54:78:1A:04:6D:D3:89:58:04
            X509v3 Authority Key Identifier: 
                keyid:00:7B:22:58:C7:7A:26:21:7E:CC:6C:65:0C:FA:89:23:D6:F2:A3:47
                DirName:/CN=team652-net
                serial:3B:E7:68:55:46:EA:DB:58:4D:DA:80:C6:B4:BC:FB:39:E7:BB:6A:D9

            X509v3 Extended Key Usage: 
                TLS Web Server Authentication
            X509v3 Key Usage: 
                Digital Signature, Key Encipherment
            X509v3 Subject Alternative Name: 
                DNS:team652-server
    Signature Algorithm: sha256WithRSAEncryption
         93:67:2e:2d:76:ac:af:14:82:79:78:31:f8:39:c7:3a:58:25:
         18:83:d4:f7:5b:0c:27:f4:55:d4:de:7f:65:83:8c:7f:25:11:
         a7:74:08:a4:f0:f8:2b:00:05:ff:22:50:ad:f7:f9:0d:91:aa:
         36:aa:7e:10:ee:47:a0:fb:a2:3b:de:f8:41:c2:42:46:d9:16:
         6e:4c:3a:f8:ac:a6:cf:58:08:09:0f:44:9a:48:36:fb:c7:d8:
         62:fe:d8:6e:42:a0:a0:16:b5:1f:6e:d1:09:f8:09:72:12:fc:
         0d:57:df:24:59:51:56:d9:ed:fc:c8:95:30:32:58:0b:21:d5:
         b9:ac:ef:01:4c:3a:4b:a0:3a:4a:ab:cb:97:de:fc:43:fa:ac:
         a5:4a:d3:a8:43:a5:7f:80:8c:eb:10:86:df:52:81:94:70:66:
         01:3f:1c:a8:da:ce:9b:79:f2:75:6a:f1:e7:30:9e:8a:80:40:
         aa:6d:73:4d:8f:0e:1d:5b:b1:da:16:e7:90:e7:b1:dd:9f:6b:
         7f:cd:ae:41:0f:99:06:8a:6e:b2:03:67:b1:dc:8a:f9:a3:16:
         0f:65:fa:c9:7a:2b:39:be:81:17:fa:cb:50:48:06:6d:2f:93:
         8f:dc:8e:73:ad:76:ec:ef:f8:12:e9:ed:6f:35:92:64:18:e1:
         5e:2b:20:13
-----BEGIN CERTIFICATE-----
MIIDdzCCAl+gAwIBAgIQfWx9erJdS8zZ8cNtoY+JBzANBgkqhkiG9w0BAQsFADAW
MRQwEgYDVQQDDAt0ZWFtNjUyLW5ldDAeFw0yMTA5MTMwNDUxNDZaFw0yNDA4Mjgw
NDUxNDZaMBkxFzAVBgNVBAMMDnRlYW02NTItc2VydmVyMIIBIjANBgkqhkiG9w0B
AQEFAAOCAQ8AMIIBCgKCAQEA7AdWIPQ5GPD9RhHYad12KSzdnpGgKRT+A3u8o7TB
1r+xqC0vqsiMWoxL0KXTbld8kyCy1gSJwk8JSxqMS9kKQu+EkuqqXzye9KlsW3TG
Jj7ZxxChP9twXmtljjYkJCFtNEjlX2gNjJiQBPBuYcHgyb5Mnc/JsY6aboLoIyMm
XpvhnoDA2RdkAN+ulDPQBg6f0keZ0fg+iZ+l2xobG6rcrAfwWAKHhVMyxS9G0o7d
mZ30E17W/6Aa5iTdB2K0vKHCTCOsP62fPJYY7zxCl4/rTJoAmAPF+Gb4vjEvN4rW
TjF86RpwRlGY6gSq5+rP7Mi3FVeBX5+TnFSvH2t7ze+9qQIDAQABo4G9MIG6MAkG
A1UdEwQCMAAwHQYDVR0OBBYEFDYaK4fAbnMVHr6fVHgaBG3TiVgEMFEGA1UdIwRK
MEiAFAB7IljHeiYhfsxsZQz6iSPW8qNHoRqkGDAWMRQwEgYDVQQDDAt0ZWFtNjUy
LW5ldIIUO+doVUbq21hN2oDGtLz7Oee7atkwEwYDVR0lBAwwCgYIKwYBBQUHAwEw
CwYDVR0PBAQDAgWgMBkGA1UdEQQSMBCCDnRlYW02NTItc2VydmVyMA0GCSqGSIb3
DQEBCwUAA4IBAQCTZy4tdqyvFIJ5eDH4Occ6WCUYg9T3Wwwn9FXU3n9lg4x/JRGn
dAik8PgrAAX/IlCt9/kNkao2qn4Q7keg+6I73vhBwkJG2RZuTDr4rKbPWAgJD0Sa
SDb7x9hi/thuQqCgFrUfbtEJ+AlyEvwNV98kWVFW2e38yJUwMlgLIdW5rO8BTDpL
oDpKq8uX3vxD+qylStOoQ6V/gIzrEIbfUoGUcGYBPxyo2s6befJ1avHnMJ6KgECq
bXNNjw4dW7HaFueQ57Hdn2t/za5BD5kGim6yA2ex3Ir5oxYPZfrJeis5voEX+stQ
SAZtL5OP3I5zrXbs7/gS6e1vNZJkGOFeKyAT
-----END CERTIFICATE-----
