Certificate:
    Data:
        Version: 3 (0x2)
        Serial Number:
            a9:29:bc:b3:75:ff:e2:fd:8a:6a:04:f0:44:54:19:cd
        Signature Algorithm: sha256WithRSAEncryption
        Issuer: CN=team29-net
        Validity
            Not Before: Sep 12 22:59:45 2021 GMT
            Not After : Aug 27 22:59:45 2024 GMT
        Subject: CN=team29-client
        Subject Public Key Info:
            Public Key Algorithm: rsaEncryption
                RSA Public-Key: (2048 bit)
                Modulus:
                    00:c7:f3:dc:a0:d6:04:fd:af:c7:08:a3:e4:ad:75:
                    d1:5f:35:b4:99:70:ee:06:48:c2:6a:10:7e:d2:22:
                    f6:17:41:5e:46:b9:26:ab:93:ef:f3:da:01:4d:f8:
                    8c:55:72:2d:11:4c:ba:4b:ce:b9:21:7e:5a:e3:c0:
                    f3:a7:3d:ad:8e:f0:d5:da:fe:49:eb:2c:6b:57:a0:
                    ea:cd:10:30:31:8b:12:30:82:19:06:e6:b6:15:75:
                    69:85:a1:9a:a6:94:ec:01:73:df:e1:3c:f7:98:1e:
                    78:de:42:7e:7a:33:f1:ae:dd:84:f7:ff:93:2c:6a:
                    b4:8d:32:07:de:6d:45:95:64:ca:b2:99:34:01:8c:
                    fa:22:65:5f:92:92:01:5a:b0:46:04:0a:3d:c6:f1:
                    17:8b:45:0f:76:6d:8e:26:39:8e:85:8e:dd:4c:e6:
                    8a:b1:68:63:22:c1:5e:ba:3b:79:b1:c6:95:85:ac:
                    38:66:96:fc:57:e0:21:17:a5:4c:b0:d0:6a:cc:0f:
                    53:59:eb:02:9f:61:0a:cb:ae:07:35:ba:96:30:76:
                    ac:c4:02:5c:73:df:79:19:10:c9:b6:30:7e:3c:34:
                    e1:92:bf:32:73:16:b1:66:be:79:16:73:63:bf:30:
                    82:f8:6c:46:9b:86:83:76:19:e9:ea:11:2c:04:15:
                    ef:31
                Exponent: 65537 (0x10001)
        X509v3 extensions:
            X509v3 Basic Constraints: 
                CA:FALSE
            X509v3 Subject Key Identifier: 
                BD:B9:5F:4F:C0:9E:39:D2:25:70:9C:7B:8A:FE:73:79:EB:4A:4E:79
            X509v3 Authority Key Identifier: 
                keyid:CC:72:D0:EC:59:4D:13:BB:D3:C5:1E:0C:0C:51:37:13:45:8E:B1:83
                DirName:/CN=team29-net
                serial:52:A7:59:05:FE:7A:B1:D4:6E:00:F1:5F:52:E6:44:6F:D7:49:EF:EB

            X509v3 Extended Key Usage: 
                TLS Web Client Authentication
            X509v3 Key Usage: 
                Digital Signature
    Signature Algorithm: sha256WithRSAEncryption
         09:79:d3:75:ca:7d:fd:fe:b2:73:7d:02:f9:da:9d:23:7c:05:
         74:dc:6e:3c:d5:28:e5:1f:67:6d:8e:6c:8b:10:6d:2a:76:8d:
         aa:56:30:b9:fb:73:16:75:69:14:eb:f8:06:1b:b7:54:82:f5:
         86:43:a1:96:6d:fc:f9:9d:98:8c:a2:1f:4a:db:6f:e8:fe:49:
         d5:a3:f8:96:ad:35:94:93:d2:68:17:0a:e9:30:b5:b8:e5:87:
         b7:d2:a7:e3:55:9e:e8:bf:69:23:30:fd:09:d2:48:42:3c:2f:
         0a:9b:69:97:98:b6:63:fd:73:8e:22:3d:f0:4f:bb:08:2e:ba:
         43:cd:6d:74:7f:17:f1:11:04:ed:9d:00:93:e7:8c:c1:25:0d:
         4c:18:f3:3f:9b:13:2d:2c:c9:4f:4e:b7:77:71:05:76:7a:6a:
         45:9f:2c:c3:ba:b4:be:26:f1:03:f9:cf:33:39:ca:8b:d1:b9:
         ce:54:42:52:ec:96:1e:85:ac:06:4a:b1:6f:a3:7a:1b:6c:89:
         b9:61:44:32:65:93:a8:8c:d0:ae:2e:86:82:03:a5:fe:68:4a:
         a5:aa:24:a3:28:fd:6b:87:c5:09:d7:1e:5b:59:dc:0b:36:d9:
         95:c3:39:3f:93:d7:ec:05:7a:7c:4a:54:e2:dd:80:66:be:17:
         e9:0b:14:74
-----BEGIN CERTIFICATE-----
MIIDWjCCAkKgAwIBAgIRAKkpvLN1/+L9imoE8ERUGc0wDQYJKoZIhvcNAQELBQAw
FTETMBEGA1UEAwwKdGVhbTI5LW5ldDAeFw0yMTA5MTIyMjU5NDVaFw0yNDA4Mjcy
MjU5NDVaMBgxFjAUBgNVBAMMDXRlYW0yOS1jbGllbnQwggEiMA0GCSqGSIb3DQEB
AQUAA4IBDwAwggEKAoIBAQDH89yg1gT9r8cIo+StddFfNbSZcO4GSMJqEH7SIvYX
QV5GuSark+/z2gFN+IxVci0RTLpLzrkhflrjwPOnPa2O8NXa/knrLGtXoOrNEDAx
ixIwghkG5rYVdWmFoZqmlOwBc9/hPPeYHnjeQn56M/Gu3YT3/5MsarSNMgfebUWV
ZMqymTQBjPoiZV+SkgFasEYECj3G8ReLRQ92bY4mOY6Fjt1M5oqxaGMiwV66O3mx
xpWFrDhmlvxX4CEXpUyw0GrMD1NZ6wKfYQrLrgc1upYwdqzEAlxz33kZEMm2MH48
NOGSvzJzFrFmvnkWc2O/MIL4bEabhoN2GenqESwEFe8xAgMBAAGjgaEwgZ4wCQYD
VR0TBAIwADAdBgNVHQ4EFgQUvblfT8CeOdIlcJx7iv5zeetKTnkwUAYDVR0jBEkw
R4AUzHLQ7FlNE7vTxR4MDFE3E0WOsYOhGaQXMBUxEzARBgNVBAMMCnRlYW0yOS1u
ZXSCFFKnWQX+erHUbgDxX1LmRG/XSe/rMBMGA1UdJQQMMAoGCCsGAQUFBwMCMAsG
A1UdDwQEAwIHgDANBgkqhkiG9w0BAQsFAAOCAQEACXnTdcp9/f6yc30C+dqdI3wF
dNxuPNUo5R9nbY5sixBtKnaNqlYwuftzFnVpFOv4Bhu3VIL1hkOhlm38+Z2YjKIf
Sttv6P5J1aP4lq01lJPSaBcK6TC1uOWHt9Kn41We6L9pIzD9CdJIQjwvCptpl5i2
Y/1zjiI98E+7CC66Q81tdH8X8REE7Z0Ak+eMwSUNTBjzP5sTLSzJT063d3EFdnpq
RZ8sw7q0vibxA/nPMznKi9G5zlRCUuyWHoWsBkqxb6N6G2yJuWFEMmWTqIzQri6G
ggOl/mhKpaokoyj9a4fFCdceW1ncCzbZlcM5P5PX7AV6fEpU4t2AZr4X6QsUdA==
-----END CERTIFICATE-----
