Certificate:
    Data:
        Version: 3 (0x2)
        Serial Number:
            a7:c2:47:22:a8:d6:0a:67:9f:c2:6b:f0:01:cc:36:5d
        Signature Algorithm: sha256WithRSAEncryption
        Issuer: CN=team604-net
        Validity
            Not Before: Sep 13 04:04:17 2021 GMT
            Not After : Aug 28 04:04:17 2024 GMT
        Subject: CN=team604-server
        Subject Public Key Info:
            Public Key Algorithm: rsaEncryption
                RSA Public-Key: (2048 bit)
                Modulus:
                    00:95:06:26:71:d3:40:c1:24:84:70:67:fc:49:2e:
                    c4:80:b2:79:f2:10:60:87:76:88:90:50:1f:e8:09:
                    f2:25:6d:a5:5c:93:99:f9:f2:e3:c7:95:a6:b1:15:
                    70:54:db:24:83:a2:c2:52:bf:f8:9c:71:46:0d:c7:
                    14:95:81:81:a1:34:e5:56:c2:77:d4:0f:82:70:dd:
                    59:17:b4:0e:4b:e2:25:4d:0e:e5:dc:42:dc:59:a0:
                    64:65:16:fa:9d:22:15:5d:3b:cc:25:59:e7:08:a9:
                    cc:64:7a:cf:8f:bf:e4:7a:13:07:91:09:b1:de:38:
                    a3:2d:c1:bd:c9:20:1d:b0:a1:2a:6b:05:cc:4a:11:
                    6a:88:ea:38:d5:e5:27:c2:a9:73:6f:fc:ad:51:51:
                    78:c7:a0:51:2d:9c:72:14:a3:77:00:64:f6:14:3c:
                    0f:fb:c4:17:ff:c0:1c:33:36:40:c4:04:33:d1:46:
                    3a:bd:fa:e6:a4:9b:2f:72:e2:99:b6:05:5f:50:5b:
                    11:69:dd:b9:02:d5:37:85:a9:eb:c6:b6:33:4c:49:
                    c2:c1:4e:e7:bc:f1:75:2a:72:27:36:46:92:5d:21:
                    9e:4c:3f:c4:c8:d0:67:84:03:53:ae:19:18:e1:58:
                    42:2c:95:9e:7b:aa:b3:ed:d5:2a:8f:20:ae:c9:69:
                    08:81
                Exponent: 65537 (0x10001)
        X509v3 extensions:
            X509v3 Basic Constraints: 
                CA:FALSE
            X509v3 Subject Key Identifier: 
                6A:6D:F2:56:6B:DD:CF:67:4E:E9:88:95:0E:BE:7F:6A:CC:4B:13:9D
            X509v3 Authority Key Identifier: 
                keyid:2B:FC:08:89:AB:60:B3:30:3C:B8:89:A1:92:B3:21:A6:F5:37:F0:EE
                DirName:/CN=team604-net
                serial:1C:C4:34:84:5C:74:D4:B2:0D:14:45:CC:3B:30:01:A7:71:63:95:C2

            X509v3 Extended Key Usage: 
                TLS Web Server Authentication
            X509v3 Key Usage: 
                Digital Signature, Key Encipherment
            X509v3 Subject Alternative Name: 
                DNS:team604-server
    Signature Algorithm: sha256WithRSAEncryption
         2b:e4:d5:7f:e6:7a:b4:c7:ee:a8:94:0b:33:d8:32:d9:ff:ed:
         d2:20:61:c6:1b:94:a4:ce:20:a5:0b:5f:b2:58:f0:23:fe:90:
         f3:99:29:12:13:01:97:9c:0b:88:3e:0d:a2:84:14:3d:b4:8c:
         c5:54:55:f8:b1:ca:ac:e3:a2:28:6f:cf:bf:6b:04:1a:6a:04:
         ed:ff:e5:32:cb:f8:90:ca:32:bd:6b:43:6a:5b:c5:18:34:cc:
         e1:68:0c:3a:de:c7:05:76:06:3a:01:fa:79:7c:41:fc:42:b0:
         ef:bd:0a:9d:99:02:a5:ed:a2:ff:39:8d:1f:ad:4b:bb:de:5b:
         ba:f2:3c:af:53:a8:c1:37:15:cc:dc:19:e7:ab:25:e5:16:30:
         a6:5e:62:76:6b:f4:07:af:3b:ec:be:f0:0e:bc:e8:53:96:af:
         6e:db:6a:91:d6:ea:40:3e:a4:7a:7c:8b:ba:d0:f2:b8:ed:58:
         69:a6:6f:35:d6:48:61:9e:44:22:f4:37:73:ec:66:f9:71:27:
         f3:b1:23:e7:06:2c:74:5a:6d:4e:0f:b7:3e:dc:87:f7:4d:3e:
         6f:fe:c3:ec:c0:3b:8e:20:5b:32:23:9a:a8:63:a9:73:28:3a:
         56:21:58:db:93:fc:e7:29:88:5f:e3:63:01:55:90:bd:1a:24:
         81:18:b7:32
-----BEGIN CERTIFICATE-----
MIIDeDCCAmCgAwIBAgIRAKfCRyKo1gpnn8Jr8AHMNl0wDQYJKoZIhvcNAQELBQAw
FjEUMBIGA1UEAwwLdGVhbTYwNC1uZXQwHhcNMjEwOTEzMDQwNDE3WhcNMjQwODI4
MDQwNDE3WjAZMRcwFQYDVQQDDA50ZWFtNjA0LXNlcnZlcjCCASIwDQYJKoZIhvcN
AQEBBQADggEPADCCAQoCggEBAJUGJnHTQMEkhHBn/EkuxICyefIQYId2iJBQH+gJ
8iVtpVyTmfny48eVprEVcFTbJIOiwlK/+JxxRg3HFJWBgaE05VbCd9QPgnDdWRe0
DkviJU0O5dxC3FmgZGUW+p0iFV07zCVZ5wipzGR6z4+/5HoTB5EJsd44oy3Bvckg
HbChKmsFzEoRaojqONXlJ8Kpc2/8rVFReMegUS2cchSjdwBk9hQ8D/vEF//AHDM2
QMQEM9FGOr365qSbL3LimbYFX1BbEWnduQLVN4Wp68a2M0xJwsFO57zxdSpyJzZG
kl0hnkw/xMjQZ4QDU64ZGOFYQiyVnnuqs+3VKo8grslpCIECAwEAAaOBvTCBujAJ
BgNVHRMEAjAAMB0GA1UdDgQWBBRqbfJWa93PZ07piJUOvn9qzEsTnTBRBgNVHSME
SjBIgBQr/AiJq2CzMDy4iaGSsyGm9Tfw7qEapBgwFjEUMBIGA1UEAwwLdGVhbTYw
NC1uZXSCFBzENIRcdNSyDRRFzDswAadxY5XCMBMGA1UdJQQMMAoGCCsGAQUFBwMB
MAsGA1UdDwQEAwIFoDAZBgNVHREEEjAQgg50ZWFtNjA0LXNlcnZlcjANBgkqhkiG
9w0BAQsFAAOCAQEAK+TVf+Z6tMfuqJQLM9gy2f/t0iBhxhuUpM4gpQtfsljwI/6Q
85kpEhMBl5wLiD4NooQUPbSMxVRV+LHKrOOiKG/Pv2sEGmoE7f/lMsv4kMoyvWtD
alvFGDTM4WgMOt7HBXYGOgH6eXxB/EKw770KnZkCpe2i/zmNH61Lu95buvI8r1Oo
wTcVzNwZ56sl5RYwpl5idmv0B6877L7wDrzoU5avbttqkdbqQD6kenyLutDyuO1Y
aaZvNdZIYZ5EIvQ3c+xm+XEn87Ej5wYsdFptTg+3PtyH900+b/7D7MA7jiBbMiOa
qGOpcyg6ViFY25P85ymIX+NjAVWQvRokgRi3Mg==
-----END CERTIFICATE-----
