Certificate:
    Data:
        Version: 3 (0x2)
        Serial Number:
            ef:88:c8:f0:7a:67:6f:e4:f7:76:51:24:14:24:8c:b4
        Signature Algorithm: sha256WithRSAEncryption
        Issuer: CN=team549-net
        Validity
            Not Before: Sep 13 03:46:05 2021 GMT
            Not After : Aug 28 03:46:05 2024 GMT
        Subject: CN=team549-client
        Subject Public Key Info:
            Public Key Algorithm: rsaEncryption
                RSA Public-Key: (2048 bit)
                Modulus:
                    00:a0:7b:22:d4:61:f8:e7:c0:ac:e1:80:16:c8:5a:
                    81:7b:f0:ce:5f:a5:0a:0c:59:6e:00:2d:8c:a3:93:
                    7e:3d:bc:4f:9a:f4:f7:94:21:65:f1:1f:24:47:42:
                    0e:90:51:de:a6:6d:d9:61:1d:9c:75:67:2e:c3:cc:
                    30:8f:86:3b:37:22:8c:4b:10:a8:45:f0:a4:43:d0:
                    e9:c9:f4:ed:03:c6:38:70:8d:86:c3:0d:f2:1e:23:
                    c1:58:64:0a:9f:87:b9:42:67:55:77:7c:33:7c:bb:
                    d8:6c:4d:a1:d1:5e:05:0b:68:35:27:3c:03:cf:68:
                    83:ee:ff:38:ec:0b:f8:f6:d6:c2:aa:b8:91:b0:43:
                    15:a3:ac:ac:d3:b2:88:b9:df:78:e9:5b:f0:73:f0:
                    7b:a5:46:b1:d0:e2:eb:4b:11:ad:f1:fb:96:c4:8e:
                    83:68:00:c1:05:c6:49:9d:92:1d:57:7b:e3:12:c4:
                    05:a9:4e:19:25:53:c1:86:44:4a:76:68:21:25:ec:
                    8d:9a:22:39:28:1c:0b:f6:0e:8c:a4:54:1c:1e:93:
                    0b:fd:34:18:70:c5:da:8d:56:62:07:43:ce:81:90:
                    bf:81:35:82:2f:62:71:6c:f2:17:25:dc:3f:c8:3d:
                    13:24:ba:b5:71:b0:1b:8f:e2:71:5b:f3:2e:c4:db:
                    62:bb
                Exponent: 65537 (0x10001)
        X509v3 extensions:
            X509v3 Basic Constraints: 
                CA:FALSE
            X509v3 Subject Key Identifier: 
                2E:10:63:F0:DF:12:18:F5:50:FE:E9:FA:F5:E7:A1:F8:28:70:C6:FE
            X509v3 Authority Key Identifier: 
                keyid:9E:06:27:23:89:29:B3:05:21:A5:4C:EE:4A:0E:1F:14:ED:9E:73:9B
                DirName:/CN=team549-net
                serial:75:0E:2F:82:2F:FE:98:D0:C4:3A:C2:6F:E7:B3:E2:6C:B3:78:56:17

            X509v3 Extended Key Usage: 
                TLS Web Client Authentication
            X509v3 Key Usage: 
                Digital Signature
    Signature Algorithm: sha256WithRSAEncryption
         50:a9:08:3f:b4:a5:44:dc:93:a3:73:1e:5f:79:9e:47:e7:d3:
         20:a9:f8:7c:e7:6f:a3:02:3f:30:9d:99:9e:cf:df:73:64:d1:
         33:db:a9:3b:99:84:f2:78:48:35:f9:7f:5b:ab:4c:56:62:1b:
         ab:c0:d9:02:80:1f:cc:2e:93:61:aa:16:c2:bc:8f:9b:fd:3f:
         a4:72:e5:95:bc:02:91:11:90:09:76:c1:ff:85:c9:4d:1b:78:
         28:5a:39:d0:07:f1:7c:d3:21:7d:2b:c5:59:03:5a:14:0e:01:
         c3:33:91:5f:32:39:bc:6d:b8:cf:e9:3a:6e:67:8f:fc:a3:63:
         bf:7c:81:7f:2c:f0:50:98:97:07:70:8d:73:38:b6:b9:fa:a6:
         62:f9:b3:d2:a0:91:a4:b7:95:b8:3c:ae:9a:7f:94:6e:7a:b1:
         8e:04:3a:fb:79:fc:5e:2b:55:9c:25:5e:f4:30:fc:6e:b3:93:
         96:6b:34:8e:9d:ea:46:d8:40:5d:aa:75:32:13:ad:0c:e7:b6:
         6a:4e:45:24:84:8c:83:34:9c:42:63:99:e2:22:5a:a0:49:8a:
         08:20:df:e7:2a:5e:6e:3d:bf:a9:84:ec:ce:2d:5b:f4:e0:4f:
         4a:d6:10:99:01:e9:c6:62:1a:45:ae:5e:bc:90:e2:3b:01:11:
         c6:d5:93:eb
-----BEGIN CERTIFICATE-----
MIIDXTCCAkWgAwIBAgIRAO+IyPB6Z2/k93ZRJBQkjLQwDQYJKoZIhvcNAQELBQAw
FjEUMBIGA1UEAwwLdGVhbTU0OS1uZXQwHhcNMjEwOTEzMDM0NjA1WhcNMjQwODI4
MDM0NjA1WjAZMRcwFQYDVQQDDA50ZWFtNTQ5LWNsaWVudDCCASIwDQYJKoZIhvcN
AQEBBQADggEPADCCAQoCggEBAKB7ItRh+OfArOGAFshagXvwzl+lCgxZbgAtjKOT
fj28T5r095QhZfEfJEdCDpBR3qZt2WEdnHVnLsPMMI+GOzcijEsQqEXwpEPQ6cn0
7QPGOHCNhsMN8h4jwVhkCp+HuUJnVXd8M3y72GxNodFeBQtoNSc8A89og+7/OOwL
+PbWwqq4kbBDFaOsrNOyiLnfeOlb8HPwe6VGsdDi60sRrfH7lsSOg2gAwQXGSZ2S
HVd74xLEBalOGSVTwYZESnZoISXsjZoiOSgcC/YOjKRUHB6TC/00GHDF2o1WYgdD
zoGQv4E1gi9icWzyFyXcP8g9EyS6tXGwG4/icVvzLsTbYrsCAwEAAaOBojCBnzAJ
BgNVHRMEAjAAMB0GA1UdDgQWBBQuEGPw3xIY9VD+6fr156H4KHDG/jBRBgNVHSME
SjBIgBSeBicjiSmzBSGlTO5KDh8U7Z5zm6EapBgwFjEUMBIGA1UEAwwLdGVhbTU0
OS1uZXSCFHUOL4Iv/pjQxDrCb+ez4myzeFYXMBMGA1UdJQQMMAoGCCsGAQUFBwMC
MAsGA1UdDwQEAwIHgDANBgkqhkiG9w0BAQsFAAOCAQEAUKkIP7SlRNyTo3MeX3me
R+fTIKn4fOdvowI/MJ2Zns/fc2TRM9upO5mE8nhINfl/W6tMVmIbq8DZAoAfzC6T
YaoWwryPm/0/pHLllbwCkRGQCXbB/4XJTRt4KFo50AfxfNMhfSvFWQNaFA4BwzOR
XzI5vG24z+k6bmeP/KNjv3yBfyzwUJiXB3CNczi2ufqmYvmz0qCRpLeVuDyumn+U
bnqxjgQ6+3n8XitVnCVe9DD8brOTlms0jp3qRthAXap1MhOtDOe2ak5FJISMgzSc
QmOZ4iJaoEmKCCDf5ypebj2/qYTszi1b9OBPStYQmQHpxmIaRa5evJDiOwERxtWT
6w==
-----END CERTIFICATE-----
