Certificate:
    Data:
        Version: 3 (0x2)
        Serial Number:
            a8:d3:b8:28:1e:d0:25:66:6e:e6:9e:fa:f4:e5:0b:35
        Signature Algorithm: sha256WithRSAEncryption
        Issuer: CN=team705-net
        Validity
            Not Before: Sep 13 05:24:38 2021 GMT
            Not After : Aug 28 05:24:38 2024 GMT
        Subject: CN=team705-server
        Subject Public Key Info:
            Public Key Algorithm: rsaEncryption
                RSA Public-Key: (2048 bit)
                Modulus:
                    00:ca:4b:27:bd:b8:49:e3:7d:b7:1c:1f:da:3b:ba:
                    63:23:77:59:92:82:d3:fe:5d:4c:58:28:7e:76:08:
                    cb:43:7d:cf:8b:65:b4:14:e1:84:d7:43:95:ad:15:
                    37:0f:47:a4:45:3a:d9:70:7f:e9:06:58:b5:34:18:
                    3d:61:2b:70:6c:8e:f1:3e:c3:cf:ec:1f:b5:41:6c:
                    ea:50:0c:06:5a:a3:07:24:1d:80:6f:90:f1:f1:59:
                    32:47:c4:66:b3:03:89:7a:85:a7:14:6a:fe:d0:2e:
                    e5:fe:3d:24:e1:75:bd:9a:eb:ef:3b:98:07:a9:1c:
                    1f:7a:27:81:e1:0c:cd:40:75:b5:b4:8f:cb:bf:86:
                    5e:07:20:51:f0:b4:15:11:65:cc:3e:0d:15:91:0c:
                    93:28:c2:28:e8:7a:3b:8d:86:82:d7:69:d2:f2:18:
                    b3:0a:b8:ed:d6:c8:c2:98:aa:85:11:67:00:6a:4c:
                    4b:80:40:46:8c:43:d5:eb:2a:ca:59:98:88:e4:8b:
                    82:0a:ca:a4:07:66:73:bd:0b:c5:d5:8f:0e:57:2a:
                    1d:1a:5c:d9:be:c5:f0:8e:db:fd:7e:70:b3:d4:72:
                    33:ba:45:fa:4e:55:09:2e:1a:c8:ac:ab:96:09:45:
                    70:61:b9:51:81:48:2a:77:a0:9f:57:19:65:6d:56:
                    46:27
                Exponent: 65537 (0x10001)
        X509v3 extensions:
            X509v3 Basic Constraints: 
                CA:FALSE
            X509v3 Subject Key Identifier: 
                40:13:73:BC:28:8D:42:0C:D2:44:5B:5D:DF:08:38:D7:5A:ED:0C:80
            X509v3 Authority Key Identifier: 
                keyid:68:B0:7E:FB:3C:63:98:39:D1:2A:AF:1A:1B:D4:FE:C5:3F:54:64:98
                DirName:/CN=team705-net
                serial:7A:17:61:12:C7:45:41:7F:5C:37:86:C4:4A:19:C9:85:A9:0A:0D:82

            X509v3 Extended Key Usage: 
                TLS Web Server Authentication
            X509v3 Key Usage: 
                Digital Signature, Key Encipherment
            X509v3 Subject Alternative Name: 
                DNS:team705-server
    Signature Algorithm: sha256WithRSAEncryption
         02:99:97:31:94:76:73:1a:cc:1a:11:a9:1b:af:f3:88:66:ae:
         47:bc:e4:c9:14:de:ca:57:b1:0a:66:9c:72:a0:ba:c3:87:77:
         4b:60:f1:8a:a5:d7:a7:64:8b:88:75:b1:c3:24:c3:dc:c3:1a:
         62:58:27:08:0e:64:c2:40:d9:68:91:6f:3e:7c:cb:4e:14:3d:
         3e:3a:c1:5b:c7:7b:97:4a:09:86:f0:0d:1e:ee:00:98:84:47:
         ae:74:53:80:e1:3d:d8:b5:c5:5c:88:76:03:f2:c0:a0:f2:de:
         83:ed:c5:84:ff:86:73:00:c1:df:8c:cd:27:48:be:3e:f4:ea:
         d8:bd:47:8b:f6:7c:c2:9d:e4:80:92:b7:95:ef:e5:00:8f:93:
         5d:52:f9:6e:09:49:cc:2a:ca:29:20:ea:84:0b:c0:4b:8e:f8:
         db:5b:6b:d0:bb:2b:0d:c9:89:1a:d2:43:0d:64:5d:04:cc:56:
         4f:97:50:b9:af:29:28:d7:7c:c9:fd:6e:c3:bb:b4:db:d2:db:
         48:1d:19:35:dc:69:e9:8a:76:e0:dd:73:ae:df:c9:6f:45:f7:
         bb:1e:8f:f5:63:fc:c7:c4:1f:19:be:8a:22:a2:b9:66:9c:35:
         4f:73:82:4e:b4:a5:ea:42:7d:67:bf:4f:a3:5f:0c:7c:c9:77:
         78:e8:40:d6
-----BEGIN CERTIFICATE-----
MIIDeDCCAmCgAwIBAgIRAKjTuCge0CVmbuae+vTlCzUwDQYJKoZIhvcNAQELBQAw
FjEUMBIGA1UEAwwLdGVhbTcwNS1uZXQwHhcNMjEwOTEzMDUyNDM4WhcNMjQwODI4
MDUyNDM4WjAZMRcwFQYDVQQDDA50ZWFtNzA1LXNlcnZlcjCCASIwDQYJKoZIhvcN
AQEBBQADggEPADCCAQoCggEBAMpLJ724SeN9txwf2ju6YyN3WZKC0/5dTFgofnYI
y0N9z4tltBThhNdDla0VNw9HpEU62XB/6QZYtTQYPWErcGyO8T7Dz+wftUFs6lAM
BlqjByQdgG+Q8fFZMkfEZrMDiXqFpxRq/tAu5f49JOF1vZrr7zuYB6kcH3ongeEM
zUB1tbSPy7+GXgcgUfC0FRFlzD4NFZEMkyjCKOh6O42Ggtdp0vIYswq47dbIwpiq
hRFnAGpMS4BARoxD1esqylmYiOSLggrKpAdmc70LxdWPDlcqHRpc2b7F8I7b/X5w
s9RyM7pF+k5VCS4ayKyrlglFcGG5UYFIKnegn1cZZW1WRicCAwEAAaOBvTCBujAJ
BgNVHRMEAjAAMB0GA1UdDgQWBBRAE3O8KI1CDNJEW13fCDjXWu0MgDBRBgNVHSME
SjBIgBRosH77PGOYOdEqrxob1P7FP1RkmKEapBgwFjEUMBIGA1UEAwwLdGVhbTcw
NS1uZXSCFHoXYRLHRUF/XDeGxEoZyYWpCg2CMBMGA1UdJQQMMAoGCCsGAQUFBwMB
MAsGA1UdDwQEAwIFoDAZBgNVHREEEjAQgg50ZWFtNzA1LXNlcnZlcjANBgkqhkiG
9w0BAQsFAAOCAQEAApmXMZR2cxrMGhGpG6/ziGauR7zkyRTeylexCmaccqC6w4d3
S2DxiqXXp2SLiHWxwyTD3MMaYlgnCA5kwkDZaJFvPnzLThQ9PjrBW8d7l0oJhvAN
Hu4AmIRHrnRTgOE92LXFXIh2A/LAoPLeg+3FhP+GcwDB34zNJ0i+PvTq2L1Hi/Z8
wp3kgJK3le/lAI+TXVL5bglJzCrKKSDqhAvAS47421tr0LsrDcmJGtJDDWRdBMxW
T5dQua8pKNd8yf1uw7u029LbSB0ZNdxp6Yp24N1zrt/Jb0X3ux6P9WP8x8QfGb6K
IqK5Zpw1T3OCTrSl6kJ9Z79Po18MfMl3eOhA1g==
-----END CERTIFICATE-----
