Certificate:
    Data:
        Version: 3 (0x2)
        Serial Number:
            df:dc:c6:d9:d3:2f:3d:59:10:70:fd:bb:e9:cc:50:7c
        Signature Algorithm: sha256WithRSAEncryption
        Issuer: CN=team705-net
        Validity
            Not Before: Sep 13 05:24:37 2021 GMT
            Not After : Aug 28 05:24:37 2024 GMT
        Subject: CN=team705-client
        Subject Public Key Info:
            Public Key Algorithm: rsaEncryption
                RSA Public-Key: (2048 bit)
                Modulus:
                    00:c3:11:96:21:67:7c:f5:52:8a:00:6f:7d:86:1a:
                    dd:1d:aa:b3:53:af:b2:4a:8b:cf:3b:35:61:42:38:
                    64:7c:e5:59:0f:11:27:f0:07:06:3f:f6:85:80:c1:
                    15:47:e8:3e:1a:11:7e:20:b6:1d:0c:bd:9a:dd:da:
                    d1:66:da:9e:d8:2f:71:08:b9:56:ec:2d:d0:0c:9d:
                    5f:a9:89:18:8b:2b:45:91:ac:b6:b9:d6:87:cf:0f:
                    16:b1:16:af:d0:c4:cf:5c:99:3f:ce:46:6f:ee:ad:
                    95:1f:08:bf:57:17:d4:3f:d0:48:10:d4:1b:37:17:
                    eb:34:98:30:57:48:68:d9:62:84:df:2a:7c:26:65:
                    ef:d7:19:d2:be:ca:97:0a:2c:bc:5c:5d:26:fb:9b:
                    2c:76:49:c8:3f:61:b4:9a:f2:d4:d9:9c:97:6d:55:
                    4c:ea:95:43:39:58:71:f6:6d:09:47:2d:f3:f7:dc:
                    f5:ea:57:8d:83:6b:d2:00:61:a6:88:98:a3:56:44:
                    d5:1e:a9:82:ad:86:93:3f:58:52:71:88:62:cb:46:
                    f0:09:d0:7f:e2:73:4d:77:b5:a1:cb:d8:32:00:26:
                    ce:a6:b8:6a:95:46:9b:2b:56:56:1e:a2:ea:09:10:
                    99:d8:b6:4a:c9:39:e6:98:cd:2f:1a:45:5f:ea:c7:
                    c1:0b
                Exponent: 65537 (0x10001)
        X509v3 extensions:
            X509v3 Basic Constraints: 
                CA:FALSE
            X509v3 Subject Key Identifier: 
                AD:6F:76:43:1A:2F:BB:F0:FA:2B:CB:BB:9C:20:A5:95:3D:11:C0:86
            X509v3 Authority Key Identifier: 
                keyid:68:B0:7E:FB:3C:63:98:39:D1:2A:AF:1A:1B:D4:FE:C5:3F:54:64:98
                DirName:/CN=team705-net
                serial:7A:17:61:12:C7:45:41:7F:5C:37:86:C4:4A:19:C9:85:A9:0A:0D:82

            X509v3 Extended Key Usage: 
                TLS Web Client Authentication
            X509v3 Key Usage: 
                Digital Signature
    Signature Algorithm: sha256WithRSAEncryption
         77:3e:8f:ac:78:1e:c1:b1:69:06:45:d4:b9:00:69:7e:96:c8:
         44:8b:29:da:8d:bd:e0:17:ae:f5:73:8f:a7:35:7c:96:e3:55:
         cf:61:64:07:ee:0d:5d:0f:c9:21:c7:94:83:4e:16:11:b8:5a:
         fe:5d:c3:17:ee:79:b3:ef:c1:34:5a:0e:1f:95:16:5f:4f:45:
         80:c7:96:39:1b:8e:7c:92:96:09:df:6a:8b:02:9a:af:26:0f:
         ee:6c:31:06:36:17:b9:99:ad:8b:b9:69:c9:69:11:72:ed:3f:
         73:80:39:66:0b:c5:41:37:12:4f:fd:db:bd:e4:78:7e:c0:15:
         5e:76:ed:b4:6c:a1:bc:ba:9d:74:a9:b6:32:79:51:86:f4:4f:
         ce:8c:30:d7:17:4c:55:d6:7c:16:46:2f:07:c9:46:22:61:ff:
         74:be:0d:8b:38:4e:14:63:44:01:c6:aa:23:9b:60:a1:18:60:
         b2:9c:89:c9:2b:14:c2:46:02:08:45:92:a6:27:5b:fb:5a:e6:
         9f:58:2e:3e:35:9f:0b:57:63:ea:3a:29:84:73:12:6b:9d:1c:
         e5:e4:2f:ff:e9:1d:77:ac:b7:e6:b4:d7:3f:11:4e:5e:ac:cc:
         bf:4a:56:0d:7a:ea:aa:18:ff:b4:a4:e2:96:c0:e2:4c:ec:04:
         a0:48:5f:6e
-----BEGIN CERTIFICATE-----
MIIDXTCCAkWgAwIBAgIRAN/cxtnTLz1ZEHD9u+nMUHwwDQYJKoZIhvcNAQELBQAw
FjEUMBIGA1UEAwwLdGVhbTcwNS1uZXQwHhcNMjEwOTEzMDUyNDM3WhcNMjQwODI4
MDUyNDM3WjAZMRcwFQYDVQQDDA50ZWFtNzA1LWNsaWVudDCCASIwDQYJKoZIhvcN
AQEBBQADggEPADCCAQoCggEBAMMRliFnfPVSigBvfYYa3R2qs1OvskqLzzs1YUI4
ZHzlWQ8RJ/AHBj/2hYDBFUfoPhoRfiC2HQy9mt3a0WbantgvcQi5Vuwt0AydX6mJ
GIsrRZGstrnWh88PFrEWr9DEz1yZP85Gb+6tlR8Iv1cX1D/QSBDUGzcX6zSYMFdI
aNlihN8qfCZl79cZ0r7KlwosvFxdJvubLHZJyD9htJry1Nmcl21VTOqVQzlYcfZt
CUct8/fc9epXjYNr0gBhpoiYo1ZE1R6pgq2Gkz9YUnGIYstG8AnQf+JzTXe1ocvY
MgAmzqa4apVGmytWVh6i6gkQmdi2Ssk55pjNLxpFX+rHwQsCAwEAAaOBojCBnzAJ
BgNVHRMEAjAAMB0GA1UdDgQWBBStb3ZDGi+78Pory7ucIKWVPRHAhjBRBgNVHSME
SjBIgBRosH77PGOYOdEqrxob1P7FP1RkmKEapBgwFjEUMBIGA1UEAwwLdGVhbTcw
NS1uZXSCFHoXYRLHRUF/XDeGxEoZyYWpCg2CMBMGA1UdJQQMMAoGCCsGAQUFBwMC
MAsGA1UdDwQEAwIHgDANBgkqhkiG9w0BAQsFAAOCAQEAdz6PrHgewbFpBkXUuQBp
fpbIRIsp2o294Beu9XOPpzV8luNVz2FkB+4NXQ/JIceUg04WEbha/l3DF+55s+/B
NFoOH5UWX09FgMeWORuOfJKWCd9qiwKaryYP7mwxBjYXuZmti7lpyWkRcu0/c4A5
ZgvFQTcST/3bveR4fsAVXnbttGyhvLqddKm2MnlRhvRPzoww1xdMVdZ8FkYvB8lG
ImH/dL4NizhOFGNEAcaqI5tgoRhgspyJySsUwkYCCEWSpidb+1rmn1guPjWfC1dj
6jophHMSa50c5eQv/+kdd6y35rTXPxFOXqzMv0pWDXrqqhj/tKTilsDiTOwEoEhf
bg==
-----END CERTIFICATE-----
