Certificate:
    Data:
        Version: 3 (0x2)
        Serial Number:
            29:52:cb:f8:db:3d:7e:dd:53:56:22:e0:1e:8b:01:4a
        Signature Algorithm: sha256WithRSAEncryption
        Issuer: CN=team63-net
        Validity
            Not Before: Sep 12 23:15:49 2021 GMT
            Not After : Aug 27 23:15:49 2024 GMT
        Subject: CN=team63-client
        Subject Public Key Info:
            Public Key Algorithm: rsaEncryption
                RSA Public-Key: (2048 bit)
                Modulus:
                    00:d4:ce:81:86:fb:67:9f:bb:01:8d:5a:26:b0:b1:
                    bd:b7:76:90:2d:ff:6d:0c:9b:ea:13:b3:1b:1e:cf:
                    2a:fa:90:f8:1c:64:61:62:9b:d0:9f:b9:7d:aa:20:
                    46:58:06:06:99:49:9b:37:94:58:c6:5b:58:02:89:
                    55:5c:c2:8b:a9:65:c9:08:ff:7a:7e:a1:0b:f9:ca:
                    5a:cf:9a:ea:be:08:9e:51:99:62:9d:2b:ef:5e:7b:
                    bb:0a:49:8e:82:46:1a:70:a9:f9:8d:c3:58:f3:06:
                    be:84:1c:a0:bc:0d:4d:76:dd:2f:1f:8c:0d:25:95:
                    0d:38:20:5e:23:ff:d6:91:da:51:0b:f9:5d:fb:57:
                    9e:ff:f3:a3:9d:64:a6:8c:ed:78:d9:af:56:af:ad:
                    78:74:05:a5:44:04:f8:6e:fd:a1:4c:0a:b5:6a:40:
                    ba:85:6c:89:57:71:c7:cc:56:9b:d6:c8:ba:b2:de:
                    7a:3c:50:5f:1e:2f:44:09:8f:41:5a:59:0d:c3:d2:
                    8b:a7:be:d7:cd:47:15:73:77:01:10:d2:5c:8d:93:
                    49:f3:f6:f7:64:7b:97:79:8c:39:44:6e:0c:70:e3:
                    5c:34:da:19:6a:0e:fe:ed:a9:47:17:e3:56:80:11:
                    f4:81:83:0d:fa:08:30:75:8a:52:c6:c4:49:4e:ec:
                    79:8d
                Exponent: 65537 (0x10001)
        X509v3 extensions:
            X509v3 Basic Constraints: 
                CA:FALSE
            X509v3 Subject Key Identifier: 
                2F:58:67:E5:1F:A5:BC:F0:2D:9B:34:2B:05:89:6B:4D:B8:A7:6D:73
            X509v3 Authority Key Identifier: 
                keyid:66:1D:82:8D:E5:5E:68:D6:C8:12:EB:C6:10:FD:62:D2:12:79:59:BA
                DirName:/CN=team63-net
                serial:22:C1:94:2E:6A:7F:81:F4:26:CF:3F:F3:ED:74:1A:71:F3:7A:BE:54

            X509v3 Extended Key Usage: 
                TLS Web Client Authentication
            X509v3 Key Usage: 
                Digital Signature
    Signature Algorithm: sha256WithRSAEncryption
         96:b4:4e:53:e2:7d:47:9f:b0:76:2c:cd:41:76:a4:21:9e:f5:
         4b:49:b1:30:41:a8:25:10:15:9b:c4:1d:e4:af:66:6e:01:ce:
         95:0a:f2:c0:f4:40:aa:5c:14:36:c1:19:d7:f4:d6:14:3b:e3:
         4e:29:78:2a:03:15:c9:b8:08:70:0c:f1:7d:8e:bf:5d:4e:ea:
         0a:5f:9c:1c:6d:07:f4:74:ea:ea:3a:7e:cc:7e:14:0c:c3:cb:
         77:44:2a:d6:bb:32:ba:31:61:10:59:97:80:58:b8:ef:ec:05:
         eb:79:26:16:28:bd:19:04:6b:b3:d6:09:76:5e:b1:b3:e6:21:
         e5:79:35:b0:87:38:2d:3e:84:bc:05:35:9a:7e:19:28:ec:4a:
         1c:0f:53:2e:29:92:94:29:c7:65:fe:cd:44:e9:ec:41:cd:66:
         87:2a:5a:92:d1:f4:2d:e8:19:f9:9d:4c:b3:c9:cc:45:f6:cc:
         4c:8d:9c:f7:37:5c:4a:6c:3f:31:d5:59:67:be:3c:c7:9d:ed:
         92:34:36:65:dd:b0:55:26:50:8c:eb:37:1c:64:06:e2:7f:27:
         eb:48:53:1d:e5:56:fc:db:02:68:bb:ed:cc:84:2b:4c:3b:a4:
         84:c8:d6:6f:e5:ab:21:50:02:12:25:39:2c:ff:c8:69:c3:86:
         94:6c:b9:65
-----BEGIN CERTIFICATE-----
MIIDWTCCAkGgAwIBAgIQKVLL+Ns9ft1TViLgHosBSjANBgkqhkiG9w0BAQsFADAV
MRMwEQYDVQQDDAp0ZWFtNjMtbmV0MB4XDTIxMDkxMjIzMTU0OVoXDTI0MDgyNzIz
MTU0OVowGDEWMBQGA1UEAwwNdGVhbTYzLWNsaWVudDCCASIwDQYJKoZIhvcNAQEB
BQADggEPADCCAQoCggEBANTOgYb7Z5+7AY1aJrCxvbd2kC3/bQyb6hOzGx7PKvqQ
+BxkYWKb0J+5faogRlgGBplJmzeUWMZbWAKJVVzCi6llyQj/en6hC/nKWs+a6r4I
nlGZYp0r7157uwpJjoJGGnCp+Y3DWPMGvoQcoLwNTXbdLx+MDSWVDTggXiP/1pHa
UQv5XftXnv/zo51kpozteNmvVq+teHQFpUQE+G79oUwKtWpAuoVsiVdxx8xWm9bI
urLeejxQXx4vRAmPQVpZDcPSi6e+181HFXN3ARDSXI2TSfP292R7l3mMOURuDHDj
XDTaGWoO/u2pRxfjVoAR9IGDDfoIMHWKUsbESU7seY0CAwEAAaOBoTCBnjAJBgNV
HRMEAjAAMB0GA1UdDgQWBBQvWGflH6W88C2bNCsFiWtNuKdtczBQBgNVHSMESTBH
gBRmHYKN5V5o1sgS68YQ/WLSEnlZuqEZpBcwFTETMBEGA1UEAwwKdGVhbTYzLW5l
dIIUIsGULmp/gfQmzz/z7XQacfN6vlQwEwYDVR0lBAwwCgYIKwYBBQUHAwIwCwYD
VR0PBAQDAgeAMA0GCSqGSIb3DQEBCwUAA4IBAQCWtE5T4n1Hn7B2LM1BdqQhnvVL
SbEwQaglEBWbxB3kr2ZuAc6VCvLA9ECqXBQ2wRnX9NYUO+NOKXgqAxXJuAhwDPF9
jr9dTuoKX5wcbQf0dOrqOn7MfhQMw8t3RCrWuzK6MWEQWZeAWLjv7AXreSYWKL0Z
BGuz1gl2XrGz5iHleTWwhzgtPoS8BTWafhko7EocD1MuKZKUKcdl/s1E6exBzWaH
KlqS0fQt6Bn5nUyzycxF9sxMjZz3N1xKbD8x1VlnvjzHne2SNDZl3bBVJlCM6zcc
ZAbifyfrSFMd5Vb82wJou+3MhCtMO6SEyNZv5ashUAISJTks/8hpw4aUbLll
-----END CERTIFICATE-----
