Certificate:
    Data:
        Version: 3 (0x2)
        Serial Number:
            df:c9:a7:69:da:ae:d9:58:96:97:62:19:16:bd:04:4b
        Signature Algorithm: sha256WithRSAEncryption
        Issuer: CN=team199-net
        Validity
            Not Before: Sep 13 00:28:41 2021 GMT
            Not After : Aug 28 00:28:41 2024 GMT
        Subject: CN=team199-server
        Subject Public Key Info:
            Public Key Algorithm: rsaEncryption
                RSA Public-Key: (2048 bit)
                Modulus:
                    00:b3:9b:45:3a:bc:fc:65:38:59:b0:a7:93:e7:d5:
                    56:08:f3:d2:7e:2f:30:b2:e6:63:6c:55:04:62:ca:
                    50:e1:ef:8b:ca:99:db:8d:d1:51:5f:c7:b5:a2:2c:
                    03:f0:cb:4b:89:29:6c:10:63:45:01:0c:9d:c8:59:
                    5e:4a:0a:14:66:97:f2:33:bf:32:5d:80:47:ad:00:
                    77:52:de:fe:04:35:7e:b6:ea:09:48:33:63:1b:38:
                    1a:c2:f6:d7:8c:9d:05:37:1b:ad:c0:11:c3:c9:e2:
                    f0:bc:d7:75:53:c5:f9:33:a9:72:44:0e:b5:3c:1f:
                    eb:9a:dc:61:5f:a0:48:58:39:52:ca:ec:81:12:85:
                    48:44:11:d2:f8:44:fe:a0:3d:6d:d2:e5:a3:df:b9:
                    4d:62:0d:c6:9b:ac:bd:23:b0:72:f3:3d:5e:a4:fd:
                    01:85:e8:82:bb:18:e2:4c:6a:f1:83:83:04:b6:36:
                    c9:ea:0e:0a:a0:7e:73:dc:d9:1e:28:94:00:45:1a:
                    43:ee:93:e2:7f:0e:57:2d:84:fe:9d:24:db:27:54:
                    18:ff:03:12:33:25:0e:6a:5d:03:fd:fa:f2:43:2a:
                    6e:d2:a0:c4:00:5c:a0:b8:09:f1:8d:88:46:25:dc:
                    c8:30:10:06:da:da:e4:69:9c:a4:2c:43:69:d5:ec:
                    08:0d
                Exponent: 65537 (0x10001)
        X509v3 extensions:
            X509v3 Basic Constraints: 
                CA:FALSE
            X509v3 Subject Key Identifier: 
                00:F1:BC:BC:96:30:4A:7C:0F:8F:E3:99:77:BA:07:F9:C3:22:D1:30
            X509v3 Authority Key Identifier: 
                keyid:B2:68:C4:D3:2B:14:6E:E8:D1:24:75:A3:B9:BC:68:A0:E0:DF:CF:F7
                DirName:/CN=team199-net
                serial:6D:FF:8D:E6:75:29:8C:20:57:39:55:18:66:8E:9D:92:40:C8:BF:E1

            X509v3 Extended Key Usage: 
                TLS Web Server Authentication
            X509v3 Key Usage: 
                Digital Signature, Key Encipherment
            X509v3 Subject Alternative Name: 
                DNS:team199-server
    Signature Algorithm: sha256WithRSAEncryption
         43:82:fc:81:8c:a4:2a:68:06:b2:e5:ce:d3:04:fd:50:b2:ce:
         d4:09:f4:84:71:ec:11:25:6a:49:39:5d:c9:ee:c9:a6:23:29:
         62:53:db:ca:c3:57:d1:32:5e:78:fd:5e:16:10:22:cb:84:d8:
         0f:62:54:5d:44:5a:6d:22:1f:e9:c9:22:bc:7d:c3:2a:95:86:
         0e:a1:0d:da:d2:32:4f:ef:c3:09:1c:a6:ac:91:3b:8b:1b:44:
         74:67:0d:17:d8:02:34:51:05:1c:f4:a3:54:5b:cb:97:7e:10:
         46:81:54:d9:8b:dc:59:28:21:46:ef:cb:73:49:7a:31:26:6f:
         11:68:ab:33:2a:85:1e:8f:63:67:31:f8:54:2e:d1:1b:24:a4:
         c3:4f:3f:9d:e4:f6:55:36:40:04:04:f0:b6:0d:ee:2d:b7:cc:
         9c:b7:45:71:dd:bb:d0:a9:42:35:50:cf:02:a7:ab:28:9f:64:
         17:5d:21:c4:80:5f:60:5d:c1:55:ff:f8:94:4b:af:e8:42:84:
         74:4a:6b:ad:fa:c9:ba:ec:5b:ca:ce:4e:d5:6e:ed:99:d6:03:
         50:76:b1:15:e4:30:e9:6f:56:65:1a:ed:47:02:8a:62:50:b6:
         ab:5a:63:f3:31:91:70:0f:70:88:01:7f:e4:70:dd:a1:14:53:
         a6:88:33:94
-----BEGIN CERTIFICATE-----
MIIDeDCCAmCgAwIBAgIRAN/Jp2nartlYlpdiGRa9BEswDQYJKoZIhvcNAQELBQAw
FjEUMBIGA1UEAwwLdGVhbTE5OS1uZXQwHhcNMjEwOTEzMDAyODQxWhcNMjQwODI4
MDAyODQxWjAZMRcwFQYDVQQDDA50ZWFtMTk5LXNlcnZlcjCCASIwDQYJKoZIhvcN
AQEBBQADggEPADCCAQoCggEBALObRTq8/GU4WbCnk+fVVgjz0n4vMLLmY2xVBGLK
UOHvi8qZ243RUV/HtaIsA/DLS4kpbBBjRQEMnchZXkoKFGaX8jO/Ml2AR60Ad1Le
/gQ1frbqCUgzYxs4GsL214ydBTcbrcARw8ni8LzXdVPF+TOpckQOtTwf65rcYV+g
SFg5UsrsgRKFSEQR0vhE/qA9bdLlo9+5TWINxpusvSOwcvM9XqT9AYXogrsY4kxq
8YODBLY2yeoOCqB+c9zZHiiUAEUaQ+6T4n8OVy2E/p0k2ydUGP8DEjMlDmpdA/36
8kMqbtKgxABcoLgJ8Y2IRiXcyDAQBtra5GmcpCxDadXsCA0CAwEAAaOBvTCBujAJ
BgNVHRMEAjAAMB0GA1UdDgQWBBQA8by8ljBKfA+P45l3ugf5wyLRMDBRBgNVHSME
SjBIgBSyaMTTKxRu6NEkdaO5vGig4N/P96EapBgwFjEUMBIGA1UEAwwLdGVhbTE5
OS1uZXSCFG3/jeZ1KYwgVzlVGGaOnZJAyL/hMBMGA1UdJQQMMAoGCCsGAQUFBwMB
MAsGA1UdDwQEAwIFoDAZBgNVHREEEjAQgg50ZWFtMTk5LXNlcnZlcjANBgkqhkiG
9w0BAQsFAAOCAQEAQ4L8gYykKmgGsuXO0wT9ULLO1An0hHHsESVqSTldye7JpiMp
YlPbysNX0TJeeP1eFhAiy4TYD2JUXURabSIf6ckivH3DKpWGDqEN2tIyT+/DCRym
rJE7ixtEdGcNF9gCNFEFHPSjVFvLl34QRoFU2YvcWSghRu/Lc0l6MSZvEWirMyqF
Ho9jZzH4VC7RGySkw08/neT2VTZABATwtg3uLbfMnLdFcd270KlCNVDPAqerKJ9k
F10hxIBfYF3BVf/4lEuv6EKEdEprrfrJuuxbys5O1W7tmdYDUHaxFeQw6W9WZRrt
RwKKYlC2q1pj8zGRcA9wiAF/5HDdoRRTpogzlA==
-----END CERTIFICATE-----
