Certificate:
    Data:
        Version: 3 (0x2)
        Serial Number:
            27:9c:51:6d:03:3e:b3:af:2c:a5:a0:28:67:14:b4:a2
        Signature Algorithm: sha256WithRSAEncryption
        Issuer: CN=team97-net
        Validity
            Not Before: Sep 12 23:37:15 2021 GMT
            Not After : Aug 27 23:37:15 2024 GMT
        Subject: CN=team97-server
        Subject Public Key Info:
            Public Key Algorithm: rsaEncryption
                RSA Public-Key: (2048 bit)
                Modulus:
                    00:b9:8c:0e:87:14:78:b7:28:7f:5e:e3:5d:35:1b:
                    6e:49:84:3f:39:36:fe:90:b8:bd:ea:f8:b3:a2:d7:
                    f8:ff:d7:37:c1:cb:e4:ca:7d:55:fc:96:9d:88:d2:
                    00:c4:d7:2b:3d:18:64:01:b1:8c:ae:20:1d:c5:66:
                    7e:bb:40:ff:c8:e0:20:63:74:84:38:f2:b3:27:c0:
                    86:6f:7c:a4:88:fa:6d:78:6c:3d:5a:d1:19:06:6b:
                    cd:39:23:ae:9f:8d:6a:79:99:cb:ef:59:ec:1f:6a:
                    67:2d:ba:66:de:27:5f:3a:22:1a:f5:c8:d8:a8:7a:
                    53:16:f9:b6:06:0e:36:9d:59:37:d0:21:fd:9b:21:
                    1d:c8:74:5e:9c:09:3f:43:25:de:23:7e:38:d9:86:
                    09:fa:19:dc:df:4e:6c:98:b8:25:3c:9d:55:f8:51:
                    76:80:55:a9:ea:7c:70:53:4c:df:bf:85:7d:69:db:
                    23:e7:d9:73:34:0c:a9:2d:cc:17:b6:41:64:9d:87:
                    5f:0b:89:9a:e6:cc:d0:46:47:06:a7:72:a0:62:f0:
                    8d:39:3a:cc:b8:41:a1:a0:ad:05:af:e5:47:da:18:
                    41:f8:e7:d7:69:77:b2:fc:a7:87:22:a1:33:67:a7:
                    62:2f:56:d0:92:e6:3f:05:8f:39:37:26:3a:17:2f:
                    0c:5d
                Exponent: 65537 (0x10001)
        X509v3 extensions:
            X509v3 Basic Constraints: 
                CA:FALSE
            X509v3 Subject Key Identifier: 
                A5:1D:8E:89:6B:F8:46:FA:DB:98:78:4C:42:7D:E2:BD:B0:1E:0F:4D
            X509v3 Authority Key Identifier: 
                keyid:0D:1A:88:36:AC:2E:9C:73:90:AF:F8:A5:D8:8F:75:2D:CD:29:DE:A2
                DirName:/CN=team97-net
                serial:59:87:CC:0F:AB:B9:36:CC:9C:06:DC:E6:43:5C:B5:A3:B0:4F:93:7F

            X509v3 Extended Key Usage: 
                TLS Web Server Authentication
            X509v3 Key Usage: 
                Digital Signature, Key Encipherment
            X509v3 Subject Alternative Name: 
                DNS:team97-server
    Signature Algorithm: sha256WithRSAEncryption
         10:64:ca:b9:98:02:ef:02:85:0d:c8:14:6e:e0:f6:cd:cc:c9:
         99:4f:44:ce:98:1a:07:76:f9:b0:86:8c:b9:22:de:cb:00:56:
         42:be:5a:13:82:2e:c6:f9:88:2d:70:14:a6:44:ad:2d:55:f7:
         8d:d1:ff:0a:c1:20:0c:b6:83:d2:3d:b6:fe:a9:46:45:5e:af:
         bc:3b:50:c4:75:88:ad:09:c7:e5:1e:b2:3e:dc:a3:13:ed:08:
         e3:b1:2c:13:92:10:12:e3:95:30:74:11:0c:50:c2:55:db:d4:
         23:bf:6b:49:d5:48:b0:f1:48:ad:ba:d6:e1:a5:63:90:d7:32:
         e3:db:14:e7:dd:be:0a:be:f3:c1:a7:93:81:c0:fe:01:5e:2e:
         95:f1:99:7c:72:03:08:8c:5a:85:fd:35:06:5d:53:77:dc:b0:
         c0:ab:f3:d1:fa:c2:0e:d7:9e:cf:7c:54:dc:98:55:98:5e:11:
         df:ff:d6:2e:93:57:06:c5:c5:13:66:02:2f:d7:be:ce:09:72:
         c9:4b:1a:dd:b9:f9:2f:30:1d:25:7e:df:6f:36:e7:96:1f:4c:
         2b:14:89:ca:14:b3:3a:fa:85:0a:bb:0a:66:bf:6e:13:d2:90:
         94:3a:0c:26:06:5b:3e:fd:34:20:82:8d:3d:d3:0e:4a:73:ab:
         ef:94:48:14
-----BEGIN CERTIFICATE-----
MIIDczCCAlugAwIBAgIQJ5xRbQM+s68spaAoZxS0ojANBgkqhkiG9w0BAQsFADAV
MRMwEQYDVQQDDAp0ZWFtOTctbmV0MB4XDTIxMDkxMjIzMzcxNVoXDTI0MDgyNzIz
MzcxNVowGDEWMBQGA1UEAwwNdGVhbTk3LXNlcnZlcjCCASIwDQYJKoZIhvcNAQEB
BQADggEPADCCAQoCggEBALmMDocUeLcof17jXTUbbkmEPzk2/pC4ver4s6LX+P/X
N8HL5Mp9VfyWnYjSAMTXKz0YZAGxjK4gHcVmfrtA/8jgIGN0hDjysyfAhm98pIj6
bXhsPVrRGQZrzTkjrp+NanmZy+9Z7B9qZy26Zt4nXzoiGvXI2Kh6Uxb5tgYONp1Z
N9Ah/ZshHch0XpwJP0Ml3iN+ONmGCfoZ3N9ObJi4JTydVfhRdoBVqep8cFNM37+F
fWnbI+fZczQMqS3MF7ZBZJ2HXwuJmubM0EZHBqdyoGLwjTk6zLhBoaCtBa/lR9oY
Qfjn12l3svynhyKhM2enYi9W0JLmPwWPOTcmOhcvDF0CAwEAAaOBuzCBuDAJBgNV
HRMEAjAAMB0GA1UdDgQWBBSlHY6Ja/hG+tuYeExCfeK9sB4PTTBQBgNVHSMESTBH
gBQNGog2rC6cc5Cv+KXYj3UtzSneoqEZpBcwFTETMBEGA1UEAwwKdGVhbTk3LW5l
dIIUWYfMD6u5NsycBtzmQ1y1o7BPk38wEwYDVR0lBAwwCgYIKwYBBQUHAwEwCwYD
VR0PBAQDAgWgMBgGA1UdEQQRMA+CDXRlYW05Ny1zZXJ2ZXIwDQYJKoZIhvcNAQEL
BQADggEBABBkyrmYAu8ChQ3IFG7g9s3MyZlPRM6YGgd2+bCGjLki3ssAVkK+WhOC
Lsb5iC1wFKZErS1V943R/wrBIAy2g9I9tv6pRkVer7w7UMR1iK0Jx+Uesj7coxPt
COOxLBOSEBLjlTB0EQxQwlXb1CO/a0nVSLDxSK261uGlY5DXMuPbFOfdvgq+88Gn
k4HA/gFeLpXxmXxyAwiMWoX9NQZdU3fcsMCr89H6wg7Xns98VNyYVZheEd//1i6T
VwbFxRNmAi/Xvs4JcslLGt25+S8wHSV+328255YfTCsUicoUszr6hQq7Cma/bhPS
kJQ6DCYGWz79NCCCjT3TDkpzq++USBQ=
-----END CERTIFICATE-----
