Certificate:
    Data:
        Version: 3 (0x2)
        Serial Number:
            fd:71:9f:81:21:e1:eb:3a:64:cd:18:42:c0:b2:b7:49
        Signature Algorithm: sha256WithRSAEncryption
        Issuer: CN=team271-net
        Validity
            Not Before: Sep 13 01:15:10 2021 GMT
            Not After : Aug 28 01:15:10 2024 GMT
        Subject: CN=team271-client
        Subject Public Key Info:
            Public Key Algorithm: rsaEncryption
                RSA Public-Key: (2048 bit)
                Modulus:
                    00:ad:a8:13:d9:1b:fd:de:1e:9f:e1:75:d0:e1:11:
                    73:58:70:a5:51:c4:1a:3b:8a:5d:58:23:53:70:cb:
                    82:4b:11:7a:61:c6:7b:80:83:0b:2a:6c:08:1d:50:
                    a5:9a:5c:c2:01:bb:8f:7a:1e:49:ea:09:e6:ad:eb:
                    ef:3e:85:91:0e:82:8f:15:be:e5:d4:cc:8e:75:f8:
                    63:eb:85:cc:93:96:36:c5:35:c9:e0:fb:a4:dc:38:
                    de:8d:d7:3a:6a:d8:a5:4d:77:e1:9d:08:da:39:bc:
                    ec:55:74:bf:50:01:7e:db:c5:9f:f1:0a:96:fb:b0:
                    dd:fe:70:15:2c:a6:52:57:51:9d:50:f4:4f:50:eb:
                    93:46:8e:c8:ba:0d:51:35:70:e0:59:dc:b1:4b:54:
                    3b:aa:b0:1d:fe:21:f7:8d:e9:11:12:b8:a0:89:8f:
                    2f:77:54:2b:be:eb:52:83:51:17:5c:51:82:9f:d9:
                    51:50:27:1d:b4:5f:f4:fb:de:bd:4a:69:6d:15:bf:
                    17:ee:14:39:b4:9e:90:d6:dd:c6:ab:d4:45:af:3d:
                    1d:c5:c4:bc:ed:db:e2:9e:ca:d0:2c:e9:23:8b:d6:
                    e9:e4:13:67:f9:31:d2:c1:7c:f9:88:2e:75:d6:0e:
                    15:ac:77:0f:24:e7:ab:8b:1c:80:c2:2a:a2:16:36:
                    47:d1
                Exponent: 65537 (0x10001)
        X509v3 extensions:
            X509v3 Basic Constraints: 
                CA:FALSE
            X509v3 Subject Key Identifier: 
                06:0C:37:29:56:59:97:AC:29:80:C8:67:58:93:FC:E7:68:B4:28:ED
            X509v3 Authority Key Identifier: 
                keyid:EA:E8:72:1C:81:29:0A:13:BA:8B:7D:04:BC:4C:03:45:74:E8:8A:B9
                DirName:/CN=team271-net
                serial:3E:7E:11:47:FA:5F:9D:AE:7A:94:A2:71:8A:28:10:21:69:D0:08:9F

            X509v3 Extended Key Usage: 
                TLS Web Client Authentication
            X509v3 Key Usage: 
                Digital Signature
    Signature Algorithm: sha256WithRSAEncryption
         6b:e7:5c:df:a3:a7:c4:0a:49:95:c3:44:39:6a:33:cf:1c:5b:
         d6:eb:ed:28:a7:d8:fe:90:81:11:06:a5:4c:d4:d0:a0:8e:89:
         8b:eb:3b:8b:b8:f5:65:54:5f:7a:d1:e2:40:34:ca:f3:cd:c0:
         c2:dd:bc:c5:3f:33:21:1e:ea:01:82:79:09:35:06:52:fe:85:
         42:3f:78:c2:24:44:d4:50:13:11:e1:03:97:6f:ea:ff:05:46:
         0a:ab:ad:d1:11:cb:e1:41:15:bc:09:ec:1f:d0:3b:4d:db:89:
         bb:19:82:9c:8e:de:1d:1c:4e:ed:7f:c3:78:d6:70:bd:09:f9:
         f5:b1:97:a6:c6:2a:ed:74:fd:2d:90:b6:8b:ce:82:d7:11:e0:
         bd:12:6a:66:0d:2d:64:12:15:da:f5:9f:53:ec:e3:22:07:64:
         13:fd:66:36:7a:42:cb:43:17:b9:a1:41:d6:1a:14:7a:8a:94:
         73:3b:32:27:a1:c2:ca:dd:52:65:c8:96:3a:a4:8e:6b:00:1b:
         a9:d4:3c:f4:dc:26:db:63:08:e8:d2:4f:35:ab:9a:95:9b:70:
         a6:11:1d:c6:29:a3:a9:7f:e5:d5:d3:61:c8:52:3b:e0:ec:38:
         a0:60:51:6b:23:b5:44:33:fd:eb:fb:0b:45:1c:98:f7:cb:3f:
         13:0a:ac:b6
-----BEGIN CERTIFICATE-----
MIIDXTCCAkWgAwIBAgIRAP1xn4Eh4es6ZM0YQsCyt0kwDQYJKoZIhvcNAQELBQAw
FjEUMBIGA1UEAwwLdGVhbTI3MS1uZXQwHhcNMjEwOTEzMDExNTEwWhcNMjQwODI4
MDExNTEwWjAZMRcwFQYDVQQDDA50ZWFtMjcxLWNsaWVudDCCASIwDQYJKoZIhvcN
AQEBBQADggEPADCCAQoCggEBAK2oE9kb/d4en+F10OERc1hwpVHEGjuKXVgjU3DL
gksRemHGe4CDCypsCB1QpZpcwgG7j3oeSeoJ5q3r7z6FkQ6CjxW+5dTMjnX4Y+uF
zJOWNsU1yeD7pNw43o3XOmrYpU134Z0I2jm87FV0v1ABftvFn/EKlvuw3f5wFSym
UldRnVD0T1Drk0aOyLoNUTVw4FncsUtUO6qwHf4h943pERK4oImPL3dUK77rUoNR
F1xRgp/ZUVAnHbRf9PvevUppbRW/F+4UObSekNbdxqvURa89HcXEvO3b4p7K0Czp
I4vW6eQTZ/kx0sF8+YguddYOFax3DyTnq4scgMIqohY2R9ECAwEAAaOBojCBnzAJ
BgNVHRMEAjAAMB0GA1UdDgQWBBQGDDcpVlmXrCmAyGdYk/znaLQo7TBRBgNVHSME
SjBIgBTq6HIcgSkKE7qLfQS8TANFdOiKuaEapBgwFjEUMBIGA1UEAwwLdGVhbTI3
MS1uZXSCFD5+EUf6X52uepSicYooECFp0AifMBMGA1UdJQQMMAoGCCsGAQUFBwMC
MAsGA1UdDwQEAwIHgDANBgkqhkiG9w0BAQsFAAOCAQEAa+dc36OnxApJlcNEOWoz
zxxb1uvtKKfY/pCBEQalTNTQoI6Ji+s7i7j1ZVRfetHiQDTK883Awt28xT8zIR7q
AYJ5CTUGUv6FQj94wiRE1FATEeEDl2/q/wVGCqut0RHL4UEVvAnsH9A7TduJuxmC
nI7eHRxO7X/DeNZwvQn59bGXpsYq7XT9LZC2i86C1xHgvRJqZg0tZBIV2vWfU+zj
IgdkE/1mNnpCy0MXuaFB1hoUeoqUczsyJ6HCyt1SZciWOqSOawAbqdQ89Nwm22MI
6NJPNaualZtwphEdximjqX/l1dNhyFI74Ow4oGBRayO1RDP96/sLRRyY98s/Ewqs
tg==
-----END CERTIFICATE-----
