Certificate:
    Data:
        Version: 3 (0x2)
        Serial Number:
            bf:c0:f1:5d:c9:8a:5e:f7:bf:3f:df:91:18:de:f5:cb
        Signature Algorithm: sha256WithRSAEncryption
        Issuer: CN=team428-net
        Validity
            Not Before: Sep 13 02:40:29 2021 GMT
            Not After : Aug 28 02:40:29 2024 GMT
        Subject: CN=team428-client
        Subject Public Key Info:
            Public Key Algorithm: rsaEncryption
                RSA Public-Key: (2048 bit)
                Modulus:
                    00:db:71:ff:fc:7b:b9:cf:f7:b5:a6:0c:b7:45:7d:
                    c1:bc:c6:66:f1:18:43:5d:b4:4f:e1:4c:1d:e5:00:
                    ab:c2:4a:c9:52:29:df:f0:48:6d:2a:15:a1:23:2e:
                    43:1c:a1:c4:69:8e:41:45:43:3c:d3:24:39:71:14:
                    35:d6:10:c4:56:74:6a:39:83:5f:08:88:48:ca:fb:
                    16:a6:ed:77:59:6f:b8:8c:3c:2b:78:5a:de:b9:91:
                    d5:61:8c:9d:18:6b:cd:57:94:4a:4a:bd:d1:7a:86:
                    cc:bb:c8:53:f0:03:b5:a5:d7:b2:05:68:e0:d0:e4:
                    97:06:d2:9e:ea:d6:26:da:73:8c:8e:b8:23:6f:76:
                    8d:26:0c:20:73:f9:fc:64:ec:46:16:3b:82:bf:da:
                    6c:73:aa:d9:ee:fe:cc:12:02:b3:85:8a:ed:ae:df:
                    56:8b:59:8d:a2:53:e6:58:77:2b:84:fc:32:a4:d5:
                    84:1f:aa:fd:98:76:bd:2a:dc:87:00:ac:a2:39:8e:
                    15:db:74:3e:9e:3a:9d:b8:c5:ff:91:60:33:58:8f:
                    72:f2:8a:33:d2:7f:5c:b5:72:ab:b8:e2:3b:02:9e:
                    85:ff:5e:24:80:3a:b9:86:58:d7:fb:e2:99:98:88:
                    79:bb:53:d2:ec:c1:83:fe:ba:64:8d:87:be:71:59:
                    6e:49
                Exponent: 65537 (0x10001)
        X509v3 extensions:
            X509v3 Basic Constraints: 
                CA:FALSE
            X509v3 Subject Key Identifier: 
                42:D8:91:0F:87:C8:D6:70:D8:8F:D3:9D:9B:E0:44:BF:26:E1:DE:B7
            X509v3 Authority Key Identifier: 
                keyid:14:E1:5B:53:B5:5E:88:AD:04:74:70:52:0A:72:B8:BD:CB:D2:8E:7E
                DirName:/CN=team428-net
                serial:0A:7C:4A:E3:EE:96:50:DC:F6:60:23:ED:E2:D6:47:6F:62:8B:9E:53

            X509v3 Extended Key Usage: 
                TLS Web Client Authentication
            X509v3 Key Usage: 
                Digital Signature
    Signature Algorithm: sha256WithRSAEncryption
         57:fc:d6:a0:29:87:4e:95:99:12:cf:d4:8c:0b:92:d6:72:85:
         c2:3f:2d:e7:de:ce:b2:62:86:c0:57:3a:14:88:27:b6:2f:54:
         05:19:c0:5d:8e:1f:5c:4b:58:f5:e1:a0:37:14:d6:27:c2:c4:
         48:cc:00:10:e5:df:8c:e7:78:5d:ba:1b:ad:21:89:43:dd:b8:
         ab:8a:53:a2:a2:4c:21:02:7b:aa:0d:b2:21:b0:87:43:37:b3:
         4a:09:96:93:a0:ee:94:78:1e:7b:88:7f:c7:b3:96:11:2e:c9:
         2d:ba:71:b1:db:b9:80:83:1a:8d:99:ee:64:ff:fe:9b:9f:1e:
         d7:fe:66:6e:ff:b2:8d:a1:ca:b9:bb:5f:6f:e7:9c:a2:9a:63:
         6e:23:82:1f:13:14:1c:6d:9d:12:19:79:3a:20:15:a7:02:c7:
         aa:dc:32:13:e8:e0:13:b4:62:ab:77:bd:c8:29:33:46:f4:41:
         8c:aa:99:6d:e9:20:ba:67:e0:8a:e6:80:e7:48:79:7d:35:75:
         6e:9f:ed:39:3a:28:96:08:0e:6d:1c:41:f2:1b:6a:f9:dd:91:
         29:69:64:82:ce:51:d7:e6:b0:b1:f4:49:94:fb:bc:9b:3c:4a:
         a7:75:f6:a5:b3:86:80:ad:ce:dd:ae:1d:88:ca:d1:93:6d:32:
         dc:1b:3a:b4
-----BEGIN CERTIFICATE-----
MIIDXTCCAkWgAwIBAgIRAL/A8V3Jil73vz/fkRje9cswDQYJKoZIhvcNAQELBQAw
FjEUMBIGA1UEAwwLdGVhbTQyOC1uZXQwHhcNMjEwOTEzMDI0MDI5WhcNMjQwODI4
MDI0MDI5WjAZMRcwFQYDVQQDDA50ZWFtNDI4LWNsaWVudDCCASIwDQYJKoZIhvcN
AQEBBQADggEPADCCAQoCggEBANtx//x7uc/3taYMt0V9wbzGZvEYQ120T+FMHeUA
q8JKyVIp3/BIbSoVoSMuQxyhxGmOQUVDPNMkOXEUNdYQxFZ0ajmDXwiISMr7Fqbt
d1lvuIw8K3ha3rmR1WGMnRhrzVeUSkq90XqGzLvIU/ADtaXXsgVo4NDklwbSnurW
JtpzjI64I292jSYMIHP5/GTsRhY7gr/abHOq2e7+zBICs4WK7a7fVotZjaJT5lh3
K4T8MqTVhB+q/Zh2vSrchwCsojmOFdt0Pp46nbjF/5FgM1iPcvKKM9J/XLVyq7ji
OwKehf9eJIA6uYZY1/vimZiIebtT0uzBg/66ZI2HvnFZbkkCAwEAAaOBojCBnzAJ
BgNVHRMEAjAAMB0GA1UdDgQWBBRC2JEPh8jWcNiP052b4ES/JuHetzBRBgNVHSME
SjBIgBQU4VtTtV6IrQR0cFIKcri9y9KOfqEapBgwFjEUMBIGA1UEAwwLdGVhbTQy
OC1uZXSCFAp8SuPullDc9mAj7eLWR29ii55TMBMGA1UdJQQMMAoGCCsGAQUFBwMC
MAsGA1UdDwQEAwIHgDANBgkqhkiG9w0BAQsFAAOCAQEAV/zWoCmHTpWZEs/UjAuS
1nKFwj8t597OsmKGwFc6FIgnti9UBRnAXY4fXEtY9eGgNxTWJ8LESMwAEOXfjOd4
XbobrSGJQ924q4pToqJMIQJ7qg2yIbCHQzezSgmWk6DulHgee4h/x7OWES7JLbpx
sdu5gIMajZnuZP/+m58e1/5mbv+yjaHKubtfb+ecoppjbiOCHxMUHG2dEhl5OiAV
pwLHqtwyE+jgE7Riq3e9yCkzRvRBjKqZbekgumfgiuaA50h5fTV1bp/tOToolggO
bRxB8htq+d2RKWlkgs5R1+awsfRJlPu8mzxKp3X2pbOGgK3O3a4diMrRk20y3Bs6
tA==
-----END CERTIFICATE-----
