Certificate:
    Data:
        Version: 3 (0x2)
        Serial Number:
            31:fb:2a:17:35:58:4a:6c:ab:29:68:65:c5:df:d1:e9
        Signature Algorithm: sha256WithRSAEncryption
        Issuer: CN=team765-net
        Validity
            Not Before: Sep 13 06:03:18 2021 GMT
            Not After : Aug 28 06:03:18 2024 GMT
        Subject: CN=team765-server
        Subject Public Key Info:
            Public Key Algorithm: rsaEncryption
                RSA Public-Key: (2048 bit)
                Modulus:
                    00:bc:4a:b6:ad:0e:14:1b:11:3c:86:dc:50:bb:db:
                    77:f5:30:ce:28:c0:ec:1e:e0:d2:77:bf:f6:37:80:
                    d2:c7:1b:4b:a3:6f:f5:d0:64:85:17:fb:c4:a6:dc:
                    e0:0a:2e:83:12:3f:7e:70:7e:ac:d9:d0:cc:58:b6:
                    d0:bb:dd:d2:91:d2:67:93:40:8d:ea:1d:81:d6:af:
                    7b:dd:7d:81:47:4d:38:96:9c:2b:24:c0:5c:92:44:
                    e7:5a:eb:b8:88:a3:3a:7e:d6:70:10:1b:44:6d:3b:
                    74:37:f0:15:98:f7:6a:ad:14:ac:82:23:58:68:e1:
                    eb:65:5d:5f:d7:a2:01:b6:b4:b6:c0:ad:e5:c0:36:
                    3d:01:25:4e:70:fd:64:d6:12:ae:ba:10:47:ba:ee:
                    71:51:98:e8:bc:c3:22:ed:e7:38:a5:bf:fa:ed:77:
                    dd:c0:ab:21:5a:16:3b:e0:4d:3a:43:d7:3f:66:70:
                    82:5a:08:63:af:9d:81:8f:cf:8a:96:98:1f:f7:6f:
                    44:d6:77:e0:55:1b:99:d4:0f:55:fb:65:fa:17:03:
                    64:f3:75:e1:93:08:5c:67:86:15:8f:e1:91:41:47:
                    aa:a7:20:af:8e:67:5f:25:1d:18:63:b6:8e:7f:11:
                    dc:33:55:d4:e6:61:b7:63:0f:09:f8:56:b2:0b:14:
                    e0:d9
                Exponent: 65537 (0x10001)
        X509v3 extensions:
            X509v3 Basic Constraints: 
                CA:FALSE
            X509v3 Subject Key Identifier: 
                7E:60:E5:04:2D:8C:57:9E:CC:41:F8:83:82:70:39:49:51:DB:DF:29
            X509v3 Authority Key Identifier: 
                keyid:45:7A:7E:E6:BD:53:26:03:AD:40:FD:EC:0F:F8:17:17:A9:5E:93:CD
                DirName:/CN=team765-net
                serial:75:60:B2:6B:78:28:4C:29:3C:2F:38:AB:E8:2C:85:44:5C:DD:0B:2E

            X509v3 Extended Key Usage: 
                TLS Web Server Authentication
            X509v3 Key Usage: 
                Digital Signature, Key Encipherment
            X509v3 Subject Alternative Name: 
                DNS:team765-server
    Signature Algorithm: sha256WithRSAEncryption
         1e:07:79:3e:e3:c9:26:78:f5:aa:20:fa:cb:d1:05:ef:6a:03:
         5e:b6:0a:e6:fb:d4:45:a9:32:48:2c:92:33:73:1a:82:ea:48:
         85:62:f4:00:66:62:09:47:93:15:f0:d9:1b:6e:11:61:76:c9:
         2a:61:59:5a:ed:4e:81:7a:ce:ff:05:2a:96:9a:ea:a9:43:92:
         1a:7f:f1:e9:3d:81:24:01:47:a2:a8:5a:b1:43:86:ad:3b:35:
         79:de:2e:fb:9a:c6:a8:ad:de:3a:e0:a4:b6:e3:4d:b1:1c:d9:
         7c:4d:92:84:da:a6:8c:c7:63:57:8c:14:de:fb:49:bf:31:f2:
         02:5d:e9:04:32:e6:65:cb:5d:e1:c4:fc:05:e5:c9:5c:f0:74:
         33:7c:24:7f:cf:0c:f8:c6:83:67:d1:66:39:2f:b6:c1:30:ae:
         8e:d6:a6:ac:00:7d:0f:1f:08:0c:e8:6c:7e:27:6a:9c:8d:12:
         52:e8:9e:ed:83:9d:5b:67:52:17:d1:95:0b:94:36:e4:b3:51:
         f2:f6:e8:cb:c7:17:d5:5c:ce:a5:0e:6c:81:a5:5b:bd:b8:53:
         fe:fc:a0:27:82:62:49:7c:12:d3:c2:bb:2f:5d:f1:cc:de:74:
         41:3d:99:ee:dd:b1:3d:fe:87:1a:c1:5f:b8:82:4f:1e:b6:b6:
         b4:a3:2b:59
-----BEGIN CERTIFICATE-----
MIIDdzCCAl+gAwIBAgIQMfsqFzVYSmyrKWhlxd/R6TANBgkqhkiG9w0BAQsFADAW
MRQwEgYDVQQDDAt0ZWFtNzY1LW5ldDAeFw0yMTA5MTMwNjAzMThaFw0yNDA4Mjgw
NjAzMThaMBkxFzAVBgNVBAMMDnRlYW03NjUtc2VydmVyMIIBIjANBgkqhkiG9w0B
AQEFAAOCAQ8AMIIBCgKCAQEAvEq2rQ4UGxE8htxQu9t39TDOKMDsHuDSd7/2N4DS
xxtLo2/10GSFF/vEptzgCi6DEj9+cH6s2dDMWLbQu93SkdJnk0CN6h2B1q973X2B
R004lpwrJMBckkTnWuu4iKM6ftZwEBtEbTt0N/AVmPdqrRSsgiNYaOHrZV1f16IB
trS2wK3lwDY9ASVOcP1k1hKuuhBHuu5xUZjovMMi7ec4pb/67XfdwKshWhY74E06
Q9c/ZnCCWghjr52Bj8+Klpgf929E1nfgVRuZ1A9V+2X6FwNk83XhkwhcZ4YVj+GR
QUeqpyCvjmdfJR0YY7aOfxHcM1XU5mG3Yw8J+FayCxTg2QIDAQABo4G9MIG6MAkG
A1UdEwQCMAAwHQYDVR0OBBYEFH5g5QQtjFeezEH4g4JwOUlR298pMFEGA1UdIwRK
MEiAFEV6fua9UyYDrUD97A/4FxepXpPNoRqkGDAWMRQwEgYDVQQDDAt0ZWFtNzY1
LW5ldIIUdWCya3goTCk8Lzir6CyFRFzdCy4wEwYDVR0lBAwwCgYIKwYBBQUHAwEw
CwYDVR0PBAQDAgWgMBkGA1UdEQQSMBCCDnRlYW03NjUtc2VydmVyMA0GCSqGSIb3
DQEBCwUAA4IBAQAeB3k+48kmePWqIPrL0QXvagNetgrm+9RFqTJILJIzcxqC6kiF
YvQAZmIJR5MV8NkbbhFhdskqYVla7U6Bes7/BSqWmuqpQ5Iaf/HpPYEkAUeiqFqx
Q4atOzV53i77msaord464KS2402xHNl8TZKE2qaMx2NXjBTe+0m/MfICXekEMuZl
y13hxPwF5clc8HQzfCR/zwz4xoNn0WY5L7bBMK6O1qasAH0PHwgM6Gx+J2qcjRJS
6J7tg51bZ1IX0ZULlDbks1Hy9ujLxxfVXM6lDmyBpVu9uFP+/KAngmJJfBLTwrsv
XfHM3nRBPZnu3bE9/ocawV+4gk8etra0oytZ
-----END CERTIFICATE-----
