Certificate:
    Data:
        Version: 3 (0x2)
        Serial Number:
            1b:8f:f7:da:f8:34:be:7d:b5:2d:6a:d9:54:33:bb:20
        Signature Algorithm: sha256WithRSAEncryption
        Issuer: CN=team735-net
        Validity
            Not Before: Sep 13 05:04:57 2021 GMT
            Not After : Aug 28 05:04:57 2024 GMT
        Subject: CN=team735-client
        Subject Public Key Info:
            Public Key Algorithm: rsaEncryption
                RSA Public-Key: (2048 bit)
                Modulus:
                    00:c3:01:00:08:4f:4c:ce:82:d5:b0:db:9f:ca:e2:
                    6a:44:f4:1b:d5:35:88:5b:69:ab:25:2e:1f:a0:e1:
                    28:b3:2b:82:9a:19:8c:0c:7c:72:4b:cb:81:ae:49:
                    6d:ae:1d:6d:2d:b3:bc:79:19:49:16:30:15:d7:19:
                    7a:d6:7e:f9:b7:f7:21:91:6a:bd:30:aa:7b:eb:4c:
                    f4:e2:b1:09:27:0b:81:6f:db:27:25:0b:d9:14:36:
                    2f:90:22:e0:15:fd:ac:6c:ac:43:8b:ae:89:55:7c:
                    fb:5c:e6:80:24:e9:b0:bb:ae:ef:82:21:1e:28:26:
                    9c:ff:29:fd:f8:68:fa:b3:9f:56:36:30:6a:66:bf:
                    1a:63:90:b7:06:8f:b7:01:2c:eb:fc:b6:0f:15:15:
                    65:58:0c:de:1f:50:3f:5e:26:dd:aa:48:f5:b6:33:
                    90:1f:da:b0:37:e2:8c:a3:89:93:85:71:3e:2e:e4:
                    00:5d:e2:ee:3d:5d:40:1c:1c:dd:23:1a:96:b7:eb:
                    01:ef:85:db:47:27:6b:cc:dc:23:d2:bb:34:77:b7:
                    93:c2:86:72:db:cf:0f:46:23:c7:cc:33:44:46:99:
                    70:cc:10:62:e9:d6:ef:e5:56:e5:1e:0e:45:d0:40:
                    bf:ed:43:5f:d6:37:68:69:69:d5:09:b9:06:1a:08:
                    28:d1
                Exponent: 65537 (0x10001)
        X509v3 extensions:
            X509v3 Basic Constraints: 
                CA:FALSE
            X509v3 Subject Key Identifier: 
                CD:C4:AF:A4:C8:9C:9A:DE:D7:CE:EB:6C:71:55:E1:36:A9:B2:9D:57
            X509v3 Authority Key Identifier: 
                keyid:BA:A5:9F:B4:BD:14:4D:EE:64:91:36:AF:10:51:D4:59:E8:AA:91:E4
                DirName:/CN=team735-net
                serial:27:18:1B:6A:C6:B6:43:EC:67:F1:C0:BD:69:E1:33:18:C8:AF:2A:AA

            X509v3 Extended Key Usage: 
                TLS Web Client Authentication
            X509v3 Key Usage: 
                Digital Signature
    Signature Algorithm: sha256WithRSAEncryption
         06:30:91:0e:35:14:18:36:0d:cf:06:c3:db:cc:0f:e5:71:47:
         df:79:b9:8e:96:9a:57:da:cb:05:ff:13:40:84:ac:05:96:c6:
         09:b5:28:15:65:16:f1:da:fc:f2:98:bb:8b:a5:ff:63:b2:02:
         57:6f:02:2d:b0:cc:31:67:c8:61:7c:41:b8:d9:7f:a3:e2:bc:
         39:aa:85:87:40:20:d3:44:81:70:24:45:aa:a2:b3:6d:66:5f:
         7a:48:64:90:2d:f5:a2:df:41:64:47:e3:8b:2a:1b:86:a3:34:
         78:f5:02:e3:3a:2e:9b:27:e1:0c:dc:3f:d9:0e:87:69:36:19:
         39:50:3f:e9:fb:63:74:a7:9e:f5:6a:42:88:66:c9:fb:ac:87:
         25:7c:2d:01:17:01:35:05:f0:0d:d3:01:9e:a3:75:a5:55:79:
         f3:7d:0b:c3:37:f5:94:66:c6:ce:cc:b9:0d:17:87:ca:1f:5c:
         8b:9b:66:d8:89:f2:58:46:12:c7:58:30:fc:c2:9f:cf:2a:f2:
         85:2a:cf:4d:51:ed:4f:71:2c:25:89:0f:d1:90:10:8a:c9:33:
         72:86:49:7b:50:a9:35:51:e0:d1:a7:38:6e:1b:cd:59:3a:22:
         c0:31:61:2a:e3:8d:e0:57:8a:b4:1f:ac:dd:ed:fd:cd:22:be:
         bb:5b:69:f3
-----BEGIN CERTIFICATE-----
MIIDXDCCAkSgAwIBAgIQG4/32vg0vn21LWrZVDO7IDANBgkqhkiG9w0BAQsFADAW
MRQwEgYDVQQDDAt0ZWFtNzM1LW5ldDAeFw0yMTA5MTMwNTA0NTdaFw0yNDA4Mjgw
NTA0NTdaMBkxFzAVBgNVBAMMDnRlYW03MzUtY2xpZW50MIIBIjANBgkqhkiG9w0B
AQEFAAOCAQ8AMIIBCgKCAQEAwwEACE9MzoLVsNufyuJqRPQb1TWIW2mrJS4foOEo
syuCmhmMDHxyS8uBrkltrh1tLbO8eRlJFjAV1xl61n75t/chkWq9MKp760z04rEJ
JwuBb9snJQvZFDYvkCLgFf2sbKxDi66JVXz7XOaAJOmwu67vgiEeKCac/yn9+Gj6
s59WNjBqZr8aY5C3Bo+3ASzr/LYPFRVlWAzeH1A/Xibdqkj1tjOQH9qwN+KMo4mT
hXE+LuQAXeLuPV1AHBzdIxqWt+sB74XbRydrzNwj0rs0d7eTwoZy288PRiPHzDNE
RplwzBBi6dbv5VblHg5F0EC/7UNf1jdoaWnVCbkGGggo0QIDAQABo4GiMIGfMAkG
A1UdEwQCMAAwHQYDVR0OBBYEFM3Er6TInJre187rbHFV4Tapsp1XMFEGA1UdIwRK
MEiAFLqln7S9FE3uZJE2rxBR1FnoqpHkoRqkGDAWMRQwEgYDVQQDDAt0ZWFtNzM1
LW5ldIIUJxgbasa2Q+xn8cC9aeEzGMivKqowEwYDVR0lBAwwCgYIKwYBBQUHAwIw
CwYDVR0PBAQDAgeAMA0GCSqGSIb3DQEBCwUAA4IBAQAGMJEONRQYNg3PBsPbzA/l
cUffebmOlppX2ssF/xNAhKwFlsYJtSgVZRbx2vzymLuLpf9jsgJXbwItsMwxZ8hh
fEG42X+j4rw5qoWHQCDTRIFwJEWqorNtZl96SGSQLfWi30FkR+OLKhuGozR49QLj
Oi6bJ+EM3D/ZDodpNhk5UD/p+2N0p571akKIZsn7rIclfC0BFwE1BfAN0wGeo3Wl
VXnzfQvDN/WUZsbOzLkNF4fKH1yLm2bYifJYRhLHWDD8wp/PKvKFKs9NUe1PcSwl
iQ/RkBCKyTNyhkl7UKk1UeDRpzhuG81ZOiLAMWEq443gV4q0H6zd7f3NIr67W2nz
-----END CERTIFICATE-----
