Certificate:
    Data:
        Version: 3 (0x2)
        Serial Number:
            c5:50:7d:99:94:7c:01:45:9f:fa:bc:fe:65:74:5b:0c
        Signature Algorithm: sha256WithRSAEncryption
        Issuer: CN=team720-net
        Validity
            Not Before: Sep 13 04:58:44 2021 GMT
            Not After : Aug 28 04:58:44 2024 GMT
        Subject: CN=team720-client
        Subject Public Key Info:
            Public Key Algorithm: rsaEncryption
                RSA Public-Key: (2048 bit)
                Modulus:
                    00:c8:a8:66:86:35:b6:5b:bc:54:61:b8:8c:59:d1:
                    04:97:7e:a5:2c:48:b9:9b:3f:37:a7:a2:3c:fd:3e:
                    d0:35:63:f9:c2:75:ff:b3:70:bf:27:e6:d4:5c:f7:
                    f0:b4:0d:c5:3b:c4:c9:e2:6b:02:02:89:8b:b5:0c:
                    f1:55:4a:89:6b:70:bd:a4:47:01:ea:ee:10:f1:d7:
                    3d:fa:b7:f9:c5:55:7e:02:d0:f4:69:d5:60:24:25:
                    fe:4f:bf:6e:bc:4d:ec:54:cf:37:6a:a4:2a:d2:58:
                    6b:f2:ed:af:87:5d:6e:18:26:08:2a:2c:59:c0:b1:
                    13:9f:18:69:e1:a3:35:db:91:6e:2e:68:b6:0f:24:
                    e4:b0:61:12:9e:9b:95:b6:3b:32:48:6c:e4:f8:e6:
                    36:a3:ae:8e:48:9d:3f:7c:cd:c6:21:a1:24:69:da:
                    bd:5d:c7:65:bc:b7:58:b0:a4:3a:77:d7:4a:09:c9:
                    fc:9d:0b:d2:cd:e2:0b:6d:ee:f1:d3:fe:77:58:cc:
                    f1:ae:cb:44:0c:d1:11:22:16:ac:ba:85:20:4b:f6:
                    34:d5:5c:9d:0c:3f:2f:0b:6e:88:8d:82:3d:0e:7c:
                    3a:a8:e9:1f:04:bb:66:eb:9d:dd:32:23:60:ca:85:
                    45:a1:e1:39:aa:93:3c:59:91:9c:95:ba:c3:95:db:
                    af:cd
                Exponent: 65537 (0x10001)
        X509v3 extensions:
            X509v3 Basic Constraints: 
                CA:FALSE
            X509v3 Subject Key Identifier: 
                DA:E8:B1:A7:C7:10:00:13:E2:99:D7:55:04:A6:EB:F8:6F:12:F8:80
            X509v3 Authority Key Identifier: 
                keyid:F9:21:6C:7A:8E:67:18:78:6F:0C:5F:51:C5:7A:D9:1E:B0:8B:19:3B
                DirName:/CN=team720-net
                serial:75:62:E7:C7:B6:FA:50:13:14:C8:10:31:31:2E:85:9F:8B:1E:93:02

            X509v3 Extended Key Usage: 
                TLS Web Client Authentication
            X509v3 Key Usage: 
                Digital Signature
    Signature Algorithm: sha256WithRSAEncryption
         94:2d:78:41:0e:1b:15:ee:27:a1:ab:ed:5f:be:6e:82:4f:d8:
         27:bb:56:62:b9:c1:c7:c6:a3:eb:3a:d3:e6:f1:04:94:ec:3d:
         bb:57:a2:c0:57:05:95:f2:ac:52:ba:ef:24:a2:17:8c:66:9a:
         4d:d4:26:5c:93:aa:d0:93:98:89:8b:ae:08:79:7f:fe:0c:27:
         ec:0e:0a:51:9d:71:cc:ce:84:89:7d:7b:9f:0f:c1:18:e3:cf:
         6f:7c:80:e1:87:94:d8:4f:b6:65:f2:50:0f:7f:04:bf:ba:c8:
         7c:e8:79:4f:72:e7:7f:75:38:e0:c6:c0:0a:11:a4:17:60:fe:
         16:80:c4:fe:97:3a:7a:57:96:70:70:ac:49:c2:81:a7:de:2f:
         30:42:99:8d:9e:76:d8:e5:fd:2c:14:7c:09:26:a9:ab:f0:2f:
         e5:c8:35:25:40:78:21:cf:55:92:a0:98:20:31:20:6d:3f:cf:
         a9:31:93:47:33:2b:ab:33:1e:d3:92:7f:07:1f:c9:7a:cf:58:
         7d:84:50:01:dd:66:22:15:d8:c6:cb:04:d6:1f:ee:db:2b:0f:
         9d:9f:22:35:60:a1:39:b3:90:b4:f7:b6:c3:e6:37:b7:37:5c:
         db:6b:10:b1:d6:a6:dd:e9:83:e5:8b:b9:9d:d5:d4:21:c1:1e:
         74:69:07:aa
-----BEGIN CERTIFICATE-----
MIIDXTCCAkWgAwIBAgIRAMVQfZmUfAFFn/q8/mV0WwwwDQYJKoZIhvcNAQELBQAw
FjEUMBIGA1UEAwwLdGVhbTcyMC1uZXQwHhcNMjEwOTEzMDQ1ODQ0WhcNMjQwODI4
MDQ1ODQ0WjAZMRcwFQYDVQQDDA50ZWFtNzIwLWNsaWVudDCCASIwDQYJKoZIhvcN
AQEBBQADggEPADCCAQoCggEBAMioZoY1tlu8VGG4jFnRBJd+pSxIuZs/N6eiPP0+
0DVj+cJ1/7Nwvyfm1Fz38LQNxTvEyeJrAgKJi7UM8VVKiWtwvaRHAeruEPHXPfq3
+cVVfgLQ9GnVYCQl/k+/brxN7FTPN2qkKtJYa/Ltr4ddbhgmCCosWcCxE58YaeGj
NduRbi5otg8k5LBhEp6blbY7Mkhs5PjmNqOujkidP3zNxiGhJGnavV3HZby3WLCk
OnfXSgnJ/J0L0s3iC23u8dP+d1jM8a7LRAzRESIWrLqFIEv2NNVcnQw/LwtuiI2C
PQ58OqjpHwS7Zuud3TIjYMqFRaHhOaqTPFmRnJW6w5Xbr80CAwEAAaOBojCBnzAJ
BgNVHRMEAjAAMB0GA1UdDgQWBBTa6LGnxxAAE+KZ11UEpuv4bxL4gDBRBgNVHSME
SjBIgBT5IWx6jmcYeG8MX1HFetkesIsZO6EapBgwFjEUMBIGA1UEAwwLdGVhbTcy
MC1uZXSCFHVi58e2+lATFMgQMTEuhZ+LHpMCMBMGA1UdJQQMMAoGCCsGAQUFBwMC
MAsGA1UdDwQEAwIHgDANBgkqhkiG9w0BAQsFAAOCAQEAlC14QQ4bFe4noavtX75u
gk/YJ7tWYrnBx8aj6zrT5vEElOw9u1eiwFcFlfKsUrrvJKIXjGaaTdQmXJOq0JOY
iYuuCHl//gwn7A4KUZ1xzM6EiX17nw/BGOPPb3yA4YeU2E+2ZfJQD38Ev7rIfOh5
T3Lnf3U44MbAChGkF2D+FoDE/pc6eleWcHCsScKBp94vMEKZjZ522OX9LBR8CSap
q/Av5cg1JUB4Ic9VkqCYIDEgbT/PqTGTRzMrqzMe05J/Bx/Jes9YfYRQAd1mIhXY
xssE1h/u2ysPnZ8iNWChObOQtPe2w+Y3tzdc22sQsdam3emD5Yu5ndXUIcEedGkH
qg==
-----END CERTIFICATE-----
