Certificate:
    Data:
        Version: 3 (0x2)
        Serial Number:
            ac:eb:aa:69:4c:7b:20:f9:32:9b:4e:c6:d5:31:a7:42
        Signature Algorithm: sha256WithRSAEncryption
        Issuer: CN=team187-net
        Validity
            Not Before: Sep 13 00:24:07 2021 GMT
            Not After : Aug 28 00:24:07 2024 GMT
        Subject: CN=team187-server
        Subject Public Key Info:
            Public Key Algorithm: rsaEncryption
                RSA Public-Key: (2048 bit)
                Modulus:
                    00:ad:fa:ab:8d:35:b5:72:34:1b:59:5c:07:14:41:
                    5f:88:d8:7c:04:c2:df:d6:ff:e9:6e:12:d8:90:3f:
                    cd:eb:20:cb:49:6b:ce:83:7a:9b:72:8d:56:24:59:
                    5d:66:0e:9e:34:0d:c0:c6:70:c6:d0:b4:04:31:f4:
                    81:2c:24:d5:85:5f:60:57:85:33:93:05:1f:fd:dd:
                    6d:a0:d0:c1:9e:61:1b:de:bd:cf:ce:6e:d5:b7:f8:
                    7e:0c:fa:8e:af:29:8b:1a:fd:51:1a:a7:46:2e:9f:
                    65:47:31:f3:51:0a:74:01:b6:f8:c1:6e:23:bc:ec:
                    20:33:09:66:88:c1:42:f6:71:e1:e0:07:0e:51:1d:
                    34:6b:2f:0b:12:36:e2:d9:0e:0d:86:2f:ad:4c:2c:
                    6a:f9:af:2e:d1:16:d8:fd:c2:0a:b1:73:33:8f:c9:
                    50:a3:e6:46:3b:cb:f1:e5:67:b6:69:98:aa:b7:04:
                    06:7d:ff:c6:c3:a8:e8:9a:6c:3e:af:63:76:3d:fa:
                    33:2e:1b:9e:2a:d0:05:ab:7c:f2:64:c2:6b:10:ab:
                    e9:be:20:9c:e1:29:3f:ed:ea:68:4a:ef:f7:c7:88:
                    1b:84:d6:0f:b2:1a:91:6b:b9:2c:01:5e:29:41:b1:
                    05:78:76:9c:3d:80:86:64:1e:75:8b:09:3b:d7:29:
                    6c:b9
                Exponent: 65537 (0x10001)
        X509v3 extensions:
            X509v3 Basic Constraints: 
                CA:FALSE
            X509v3 Subject Key Identifier: 
                BF:41:82:BD:A6:38:3F:4C:4D:6B:72:7D:07:7A:D4:27:7C:B3:80:1B
            X509v3 Authority Key Identifier: 
                keyid:E7:5A:C8:E4:FE:F5:3E:DD:5E:D7:8D:0D:64:35:38:1D:20:F1:05:5F
                DirName:/CN=team187-net
                serial:54:70:D7:44:7F:B2:42:97:F6:D7:45:EA:63:60:54:94:FB:23:96:1C

            X509v3 Extended Key Usage: 
                TLS Web Server Authentication
            X509v3 Key Usage: 
                Digital Signature, Key Encipherment
            X509v3 Subject Alternative Name: 
                DNS:team187-server
    Signature Algorithm: sha256WithRSAEncryption
         7e:f4:10:a1:ab:ac:3d:b4:e3:23:d0:7f:c9:16:5b:50:d3:95:
         25:76:5b:9b:26:7e:ec:46:ee:e6:40:0b:9e:6a:4e:1d:58:ec:
         d5:59:b0:7f:47:00:99:31:e5:b8:40:d8:20:1a:43:ad:b4:a0:
         01:fb:16:d9:ef:49:02:c1:7c:5d:8c:25:51:2d:1b:24:d8:40:
         d7:d9:90:f9:35:ca:11:80:cb:f7:d6:10:3c:d5:f5:2d:f1:3a:
         63:01:4b:4c:da:3c:91:16:02:7e:ad:72:25:d2:55:ae:60:84:
         da:58:70:44:c6:8a:8f:e1:5e:fa:63:bd:03:b8:02:16:7b:bf:
         bd:4f:9b:8e:9d:95:43:1a:88:c5:04:c5:0b:18:ea:57:47:38:
         ca:17:e8:b9:ff:c5:fa:f0:15:ad:26:69:a7:61:19:be:1b:d1:
         f6:fb:b3:2e:db:21:95:2c:b9:46:6c:ab:a4:21:27:ff:61:77:
         63:be:9a:e9:f9:85:cd:a8:d4:da:38:38:47:4d:87:a8:d8:3f:
         de:b2:4b:cb:79:f1:35:e8:90:bb:76:cc:a1:7c:0c:bc:61:f9:
         15:16:66:a4:78:d8:c8:a7:0e:85:c2:10:bc:d2:29:74:aa:94:
         8e:ac:2e:e4:2d:52:35:55:8b:9f:45:de:2a:61:6c:f0:0b:ef:
         99:d8:f8:33
-----BEGIN CERTIFICATE-----
MIIDeDCCAmCgAwIBAgIRAKzrqmlMeyD5MptOxtUxp0IwDQYJKoZIhvcNAQELBQAw
FjEUMBIGA1UEAwwLdGVhbTE4Ny1uZXQwHhcNMjEwOTEzMDAyNDA3WhcNMjQwODI4
MDAyNDA3WjAZMRcwFQYDVQQDDA50ZWFtMTg3LXNlcnZlcjCCASIwDQYJKoZIhvcN
AQEBBQADggEPADCCAQoCggEBAK36q401tXI0G1lcBxRBX4jYfATC39b/6W4S2JA/
zesgy0lrzoN6m3KNViRZXWYOnjQNwMZwxtC0BDH0gSwk1YVfYFeFM5MFH/3dbaDQ
wZ5hG969z85u1bf4fgz6jq8pixr9URqnRi6fZUcx81EKdAG2+MFuI7zsIDMJZojB
QvZx4eAHDlEdNGsvCxI24tkODYYvrUwsavmvLtEW2P3CCrFzM4/JUKPmRjvL8eVn
tmmYqrcEBn3/xsOo6JpsPq9jdj36My4bnirQBat88mTCaxCr6b4gnOEpP+3qaErv
98eIG4TWD7IakWu5LAFeKUGxBXh2nD2AhmQedYsJO9cpbLkCAwEAAaOBvTCBujAJ
BgNVHRMEAjAAMB0GA1UdDgQWBBS/QYK9pjg/TE1rcn0HetQnfLOAGzBRBgNVHSME
SjBIgBTnWsjk/vU+3V7XjQ1kNTgdIPEFX6EapBgwFjEUMBIGA1UEAwwLdGVhbTE4
Ny1uZXSCFFRw10R/skKX9tdF6mNgVJT7I5YcMBMGA1UdJQQMMAoGCCsGAQUFBwMB
MAsGA1UdDwQEAwIFoDAZBgNVHREEEjAQgg50ZWFtMTg3LXNlcnZlcjANBgkqhkiG
9w0BAQsFAAOCAQEAfvQQoausPbTjI9B/yRZbUNOVJXZbmyZ+7Ebu5kALnmpOHVjs
1Vmwf0cAmTHluEDYIBpDrbSgAfsW2e9JAsF8XYwlUS0bJNhA19mQ+TXKEYDL99YQ
PNX1LfE6YwFLTNo8kRYCfq1yJdJVrmCE2lhwRMaKj+Fe+mO9A7gCFnu/vU+bjp2V
QxqIxQTFCxjqV0c4yhfouf/F+vAVrSZpp2EZvhvR9vuzLtshlSy5RmyrpCEn/2F3
Y76a6fmFzajU2jg4R02HqNg/3rJLy3nxNeiQu3bMoXwMvGH5FRZmpHjYyKcOhcIQ
vNIpdKqUjqwu5C1SNVWLn0XeKmFs8Avvmdj4Mw==
-----END CERTIFICATE-----
