Certificate:
    Data:
        Version: 3 (0x2)
        Serial Number:
            0e:6b:95:f4:9b:8e:35:6f:b8:48:cf:12:f7:39:58:02
        Signature Algorithm: sha256WithRSAEncryption
        Issuer: CN=team582-net
        Validity
            Not Before: Sep 13 04:04:41 2021 GMT
            Not After : Aug 28 04:04:41 2024 GMT
        Subject: CN=team582-client
        Subject Public Key Info:
            Public Key Algorithm: rsaEncryption
                RSA Public-Key: (2048 bit)
                Modulus:
                    00:c9:ec:76:8f:c1:7a:eb:9c:bd:17:d8:2a:9c:4d:
                    0a:a1:c9:40:00:bb:e1:77:41:71:e2:13:a6:c3:ad:
                    fd:69:68:aa:01:71:c9:df:f9:da:b4:0a:c0:d8:ae:
                    f4:82:3d:9c:f3:c3:26:92:09:64:1b:9e:0f:1b:8a:
                    35:26:a7:8b:b9:f5:f1:04:a7:be:ff:55:7e:e0:b7:
                    50:bd:88:09:51:99:84:62:31:26:53:b6:fb:46:9d:
                    aa:96:26:8f:a0:a8:ef:f9:99:8d:4d:93:90:6d:d5:
                    4b:6e:b7:44:59:40:0f:12:39:6a:69:42:ab:56:1b:
                    cf:83:49:22:90:d7:64:19:b0:46:28:91:b9:5f:3e:
                    b2:7c:21:73:43:c5:bd:5c:e1:a4:1a:23:21:d6:5e:
                    d7:ea:08:2b:e3:1f:3a:9c:e9:0a:f1:f1:97:55:76:
                    77:b7:69:fa:05:fc:b9:fa:13:fa:06:7f:b5:4b:79:
                    21:9d:29:3e:b9:ee:46:25:df:f2:f2:08:05:f2:23:
                    0b:55:38:71:c1:11:22:e6:36:df:e5:3c:ca:4f:74:
                    ba:db:08:f5:86:07:64:4a:89:c3:aa:f8:67:58:f9:
                    bb:a3:fe:bd:c4:20:8c:d7:5a:46:b3:3c:f6:29:e8:
                    fd:bc:76:cf:72:4e:69:b1:30:cd:2c:27:38:5b:ec:
                    a6:db
                Exponent: 65537 (0x10001)
        X509v3 extensions:
            X509v3 Basic Constraints: 
                CA:FALSE
            X509v3 Subject Key Identifier: 
                1A:57:A3:DF:9F:67:35:93:FC:A5:E7:48:7A:0E:FE:CA:2F:D8:24:DC
            X509v3 Authority Key Identifier: 
                keyid:28:B6:60:8B:81:2B:C9:46:EE:67:8F:D4:12:20:E9:20:A9:B3:FF:BC
                DirName:/CN=team582-net
                serial:10:26:55:98:04:59:A7:9B:90:34:A6:1B:12:15:DB:48:D0:E4:72:2C

            X509v3 Extended Key Usage: 
                TLS Web Client Authentication
            X509v3 Key Usage: 
                Digital Signature
    Signature Algorithm: sha256WithRSAEncryption
         af:3f:c6:87:d1:b6:a5:35:6d:7d:01:c5:24:f6:cf:96:f7:ff:
         f7:6d:59:e1:81:9e:59:a8:aa:01:dd:2c:cd:c5:f8:ce:b3:a6:
         91:07:d7:67:19:a2:ca:16:b1:c6:dc:61:5c:3e:5d:58:c2:53:
         b1:00:0d:da:63:e6:72:15:ed:86:56:03:f4:2f:37:b8:85:40:
         c5:a9:d4:a6:8b:05:e6:95:32:98:4e:5c:04:48:ad:93:06:65:
         e5:a7:50:8c:d2:72:8b:52:3d:27:62:9c:41:06:69:86:2b:61:
         02:d3:fe:4f:f8:8d:d3:4b:11:a6:5d:f2:15:7b:47:47:b3:ed:
         c8:86:2a:0d:e5:00:de:f9:3d:cf:17:8b:38:6f:34:75:bb:a0:
         74:12:61:35:d8:e6:cb:56:0b:14:83:22:94:56:42:ff:37:d0:
         21:f6:e1:92:8d:ce:39:b7:65:29:dc:f7:2b:74:1a:a6:db:f4:
         74:97:06:6f:1c:5f:2d:cd:bc:14:7d:4c:ff:c3:ce:37:e2:65:
         06:a0:28:79:67:9d:84:25:4b:3a:15:1a:0b:6f:f8:95:1d:6e:
         ed:d4:13:3c:de:70:cd:b6:52:3c:7f:c4:40:38:da:80:ca:99:
         75:2f:50:8b:8b:65:d9:d8:f6:da:04:0b:51:a9:ab:61:41:22:
         d1:08:e2:8a
-----BEGIN CERTIFICATE-----
MIIDXDCCAkSgAwIBAgIQDmuV9JuONW+4SM8S9zlYAjANBgkqhkiG9w0BAQsFADAW
MRQwEgYDVQQDDAt0ZWFtNTgyLW5ldDAeFw0yMTA5MTMwNDA0NDFaFw0yNDA4Mjgw
NDA0NDFaMBkxFzAVBgNVBAMMDnRlYW01ODItY2xpZW50MIIBIjANBgkqhkiG9w0B
AQEFAAOCAQ8AMIIBCgKCAQEAyex2j8F665y9F9gqnE0KoclAALvhd0Fx4hOmw639
aWiqAXHJ3/natArA2K70gj2c88MmkglkG54PG4o1JqeLufXxBKe+/1V+4LdQvYgJ
UZmEYjEmU7b7Rp2qliaPoKjv+ZmNTZOQbdVLbrdEWUAPEjlqaUKrVhvPg0kikNdk
GbBGKJG5Xz6yfCFzQ8W9XOGkGiMh1l7X6ggr4x86nOkK8fGXVXZ3t2n6Bfy5+hP6
Bn+1S3khnSk+ue5GJd/y8ggF8iMLVThxwREi5jbf5TzKT3S62wj1hgdkSonDqvhn
WPm7o/69xCCM11pGszz2Kej9vHbPck5psTDNLCc4W+ym2wIDAQABo4GiMIGfMAkG
A1UdEwQCMAAwHQYDVR0OBBYEFBpXo9+fZzWT/KXnSHoO/sov2CTcMFEGA1UdIwRK
MEiAFCi2YIuBK8lG7meP1BIg6SCps/+8oRqkGDAWMRQwEgYDVQQDDAt0ZWFtNTgy
LW5ldIIUECZVmARZp5uQNKYbEhXbSNDkciwwEwYDVR0lBAwwCgYIKwYBBQUHAwIw
CwYDVR0PBAQDAgeAMA0GCSqGSIb3DQEBCwUAA4IBAQCvP8aH0balNW19AcUk9s+W
9//3bVnhgZ5ZqKoB3SzNxfjOs6aRB9dnGaLKFrHG3GFcPl1YwlOxAA3aY+ZyFe2G
VgP0Lze4hUDFqdSmiwXmlTKYTlwESK2TBmXlp1CM0nKLUj0nYpxBBmmGK2EC0/5P
+I3TSxGmXfIVe0dHs+3IhioN5QDe+T3PF4s4bzR1u6B0EmE12ObLVgsUgyKUVkL/
N9Ah9uGSjc45t2Up3PcrdBqm2/R0lwZvHF8tzbwUfUz/w8434mUGoCh5Z52EJUs6
FRoLb/iVHW7t1BM83nDNtlI8f8RAONqAypl1L1CLi2XZ2PbaBAtRqathQSLRCOKK
-----END CERTIFICATE-----
