Certificate:
    Data:
        Version: 3 (0x2)
        Serial Number:
            53:dc:84:fe:86:cb:6f:c9:63:05:1a:cf:93:80:56:39
        Signature Algorithm: sha256WithRSAEncryption
        Issuer: CN=team582-net
        Validity
            Not Before: Sep 13 04:04:41 2021 GMT
            Not After : Aug 28 04:04:41 2024 GMT
        Subject: CN=team582-server
        Subject Public Key Info:
            Public Key Algorithm: rsaEncryption
                RSA Public-Key: (2048 bit)
                Modulus:
                    00:d4:fa:a0:43:5d:d8:81:e9:18:52:0b:9a:de:09:
                    0c:dc:b0:5d:05:62:f4:8a:67:47:ce:87:c6:51:da:
                    a3:f7:3b:f0:f5:d4:6f:56:b9:6e:86:e2:bc:40:56:
                    bc:f0:82:74:98:83:9f:a8:13:5b:c8:e5:70:29:9b:
                    af:5c:f5:57:23:b1:4c:e4:00:f3:68:82:06:28:ac:
                    f1:76:06:64:3a:f5:e2:11:92:c9:fc:cb:dd:1b:2b:
                    ff:fb:bc:c1:a6:bd:01:ee:a5:d1:d0:28:64:7b:78:
                    f4:bd:41:fe:ae:43:21:9c:10:9a:b5:60:f2:6b:29:
                    63:53:9a:40:ce:aa:57:14:fd:ed:1e:74:26:5c:5e:
                    39:61:50:4c:6e:ba:9d:7a:2c:5e:b7:30:5a:8c:dc:
                    1a:a5:05:a8:70:45:a8:c3:10:9f:08:2d:bd:9f:44:
                    e2:1d:f5:89:aa:0b:3a:4d:ab:09:27:d7:e6:cd:e5:
                    38:46:2b:54:1b:83:37:6d:1a:72:81:89:03:39:1b:
                    74:cf:06:8f:f9:6b:6f:99:9d:4b:15:8d:3a:24:63:
                    86:56:a8:05:da:b5:1b:7d:82:d2:ac:5c:4e:b0:3c:
                    a1:b8:0c:50:d0:f9:98:61:51:43:d1:36:cf:7d:3e:
                    f6:dc:57:39:4d:f8:53:be:84:5d:44:f3:4c:b5:0f:
                    d1:db
                Exponent: 65537 (0x10001)
        X509v3 extensions:
            X509v3 Basic Constraints: 
                CA:FALSE
            X509v3 Subject Key Identifier: 
                7F:1B:EA:23:34:F4:D5:4C:FD:8E:31:DD:DF:3F:09:AB:A9:97:8D:46
            X509v3 Authority Key Identifier: 
                keyid:28:B6:60:8B:81:2B:C9:46:EE:67:8F:D4:12:20:E9:20:A9:B3:FF:BC
                DirName:/CN=team582-net
                serial:10:26:55:98:04:59:A7:9B:90:34:A6:1B:12:15:DB:48:D0:E4:72:2C

            X509v3 Extended Key Usage: 
                TLS Web Server Authentication
            X509v3 Key Usage: 
                Digital Signature, Key Encipherment
            X509v3 Subject Alternative Name: 
                DNS:team582-server
    Signature Algorithm: sha256WithRSAEncryption
         a7:4a:b4:86:69:a3:15:71:27:a7:d8:26:12:c0:42:d2:b6:d6:
         94:a5:51:ed:38:dc:aa:e2:d2:0b:ce:1f:74:91:28:c5:1f:87:
         25:f7:83:d5:c9:ee:b3:9b:05:09:84:d1:d7:ec:f8:e6:77:66:
         92:f1:fc:61:f0:17:52:b2:20:e2:91:76:5e:66:83:29:0f:41:
         35:a4:a7:d4:55:30:35:f3:5b:93:f8:da:89:7b:c0:cc:5c:0b:
         a2:af:61:d7:dd:6a:8a:d1:a2:d1:cc:f9:43:fc:f9:a2:81:86:
         f1:49:62:55:d8:30:a2:47:c1:b5:ec:2a:ac:c0:b4:5c:28:00:
         02:00:86:73:68:8b:2a:5c:74:42:a9:22:6e:fd:eb:2e:df:bb:
         b8:f3:31:80:92:71:94:7f:cc:dc:23:1a:65:98:42:dc:d1:0d:
         37:bd:64:a7:99:8a:22:20:5a:8a:90:ed:95:05:77:d1:9e:24:
         6b:e4:1a:d4:2f:22:fd:79:c3:88:cf:15:50:39:0d:b7:26:79:
         fc:fe:43:c0:38:5f:f8:10:3f:6e:45:a2:cd:7a:53:34:04:c9:
         6a:62:83:fa:cc:2a:4c:d9:d9:af:7f:29:8f:3c:9d:db:d4:7a:
         d0:f6:e2:33:60:4d:6d:15:96:18:3b:83:50:45:b7:98:30:41:
         9b:b3:ae:d0
-----BEGIN CERTIFICATE-----
MIIDdzCCAl+gAwIBAgIQU9yE/obLb8ljBRrPk4BWOTANBgkqhkiG9w0BAQsFADAW
MRQwEgYDVQQDDAt0ZWFtNTgyLW5ldDAeFw0yMTA5MTMwNDA0NDFaFw0yNDA4Mjgw
NDA0NDFaMBkxFzAVBgNVBAMMDnRlYW01ODItc2VydmVyMIIBIjANBgkqhkiG9w0B
AQEFAAOCAQ8AMIIBCgKCAQEA1PqgQ13YgekYUgua3gkM3LBdBWL0imdHzofGUdqj
9zvw9dRvVrluhuK8QFa88IJ0mIOfqBNbyOVwKZuvXPVXI7FM5ADzaIIGKKzxdgZk
OvXiEZLJ/MvdGyv/+7zBpr0B7qXR0Chke3j0vUH+rkMhnBCatWDyayljU5pAzqpX
FP3tHnQmXF45YVBMbrqdeixetzBajNwapQWocEWowxCfCC29n0TiHfWJqgs6TasJ
J9fmzeU4RitUG4M3bRpygYkDORt0zwaP+WtvmZ1LFY06JGOGVqgF2rUbfYLSrFxO
sDyhuAxQ0PmYYVFD0TbPfT723Fc5TfhTvoRdRPNMtQ/R2wIDAQABo4G9MIG6MAkG
A1UdEwQCMAAwHQYDVR0OBBYEFH8b6iM09NVM/Y4x3d8/Caupl41GMFEGA1UdIwRK
MEiAFCi2YIuBK8lG7meP1BIg6SCps/+8oRqkGDAWMRQwEgYDVQQDDAt0ZWFtNTgy
LW5ldIIUECZVmARZp5uQNKYbEhXbSNDkciwwEwYDVR0lBAwwCgYIKwYBBQUHAwEw
CwYDVR0PBAQDAgWgMBkGA1UdEQQSMBCCDnRlYW01ODItc2VydmVyMA0GCSqGSIb3
DQEBCwUAA4IBAQCnSrSGaaMVcSen2CYSwELSttaUpVHtONyq4tILzh90kSjFH4cl
94PVye6zmwUJhNHX7Pjmd2aS8fxh8BdSsiDikXZeZoMpD0E1pKfUVTA181uT+NqJ
e8DMXAuir2HX3WqK0aLRzPlD/PmigYbxSWJV2DCiR8G17CqswLRcKAACAIZzaIsq
XHRCqSJu/esu37u48zGAknGUf8zcIxplmELc0Q03vWSnmYoiIFqKkO2VBXfRniRr
5BrULyL9ecOIzxVQOQ23Jnn8/kPAOF/4ED9uRaLNelM0BMlqYoP6zCpM2dmvfymP
PJ3b1HrQ9uIzYE1tFZYYO4NQRbeYMEGbs67Q
-----END CERTIFICATE-----
