Certificate:
    Data:
        Version: 3 (0x2)
        Serial Number:
            67:c7:67:b8:3e:76:1a:aa:83:a2:34:5b:a9:6b:66:7f
        Signature Algorithm: sha256WithRSAEncryption
        Issuer: CN=team663-net
        Validity
            Not Before: Sep 13 04:28:53 2021 GMT
            Not After : Aug 28 04:28:53 2024 GMT
        Subject: CN=team663-client
        Subject Public Key Info:
            Public Key Algorithm: rsaEncryption
                RSA Public-Key: (2048 bit)
                Modulus:
                    00:a6:6a:85:65:b0:62:63:43:e7:a1:9a:62:54:30:
                    43:63:08:61:eb:3d:30:24:1b:bf:87:b0:16:00:66:
                    e2:23:7e:c2:81:f5:c3:dd:66:7e:e2:91:1f:32:6d:
                    61:80:88:ec:49:ec:9e:0a:b7:67:fd:02:6a:c9:df:
                    c0:ae:7f:84:80:ad:be:db:1e:cb:87:eb:52:74:4b:
                    a3:fd:16:f2:bc:ef:70:ec:3d:fb:94:f9:1b:6c:3c:
                    c7:83:af:1e:64:cb:28:be:45:0d:f5:be:6b:f3:90:
                    1c:25:1b:60:3e:7b:15:c4:3a:9a:a5:08:2c:2c:d3:
                    c5:0f:64:c4:62:6a:8c:7b:fa:d3:1d:04:fc:37:eb:
                    90:8f:a3:46:23:62:3a:c4:df:dd:61:24:8b:ce:9b:
                    3e:65:08:01:c3:2d:4a:93:5c:95:65:7f:91:82:c8:
                    ca:cb:4c:42:b2:96:fc:a8:a3:10:ea:d4:31:16:d8:
                    a3:04:16:f8:e5:78:0a:40:8d:77:d0:db:a3:86:d5:
                    53:7b:05:95:c3:7c:8a:24:d7:ea:44:eb:95:42:fd:
                    b8:ad:39:01:29:dd:a3:ed:43:ab:a0:63:00:dd:2f:
                    92:3f:5a:5c:36:cd:32:6c:ac:98:dd:64:46:39:a4:
                    f5:e4:01:9d:62:a3:53:3b:56:75:f7:a4:5e:40:67:
                    a9:db
                Exponent: 65537 (0x10001)
        X509v3 extensions:
            X509v3 Basic Constraints: 
                CA:FALSE
            X509v3 Subject Key Identifier: 
                D6:95:4B:BA:F7:18:59:B1:AF:38:09:B7:C4:69:06:B9:93:9A:79:00
            X509v3 Authority Key Identifier: 
                keyid:F1:92:F7:25:B5:F9:50:BE:FE:51:20:C4:29:14:D6:68:EB:1D:B9:D1
                DirName:/CN=team663-net
                serial:10:B8:D6:4C:E5:63:3C:BD:68:B0:21:FD:AD:E8:E5:39:A6:FD:CB:EA

            X509v3 Extended Key Usage: 
                TLS Web Client Authentication
            X509v3 Key Usage: 
                Digital Signature
    Signature Algorithm: sha256WithRSAEncryption
         7a:a7:fe:f5:8e:1d:9d:82:06:e1:08:28:01:5c:2a:d6:cb:09:
         64:e9:d1:3d:35:35:49:64:55:e9:a3:f7:11:29:31:44:7e:23:
         83:23:94:bc:87:80:b3:9a:af:f7:c9:2e:cc:d9:02:f9:09:af:
         55:23:9b:0f:f7:a2:af:29:63:af:62:61:81:9b:58:76:75:f8:
         4e:e8:12:d7:46:cd:c6:29:25:f6:bc:dc:27:f1:42:f7:7a:31:
         11:80:86:98:86:66:cd:fe:70:cd:fc:11:8e:66:5b:ce:25:4f:
         4c:2c:1d:7b:b2:38:25:d0:e1:34:06:0b:b0:92:7b:a3:ba:59:
         61:7e:18:f9:7e:e9:e2:b2:45:59:38:8c:18:b4:0b:ad:c6:b6:
         67:c3:e3:58:07:9b:30:f1:dc:9b:2f:bf:05:b8:e9:36:77:ef:
         6e:2f:59:82:4d:72:bb:81:52:2f:d2:5e:97:39:bd:b4:e0:92:
         f9:10:2a:54:b4:0e:e9:b0:d0:6d:43:e4:ce:72:b0:d9:7b:6d:
         6a:ae:55:9f:d0:d8:28:78:04:d1:90:d0:e7:88:81:11:b7:79:
         ac:c2:d5:27:58:2b:6e:2b:0c:ae:04:f0:55:e0:f5:d4:d1:73:
         04:16:9f:a7:4f:1b:6f:c1:56:bb:77:81:a3:d7:22:4c:23:e4:
         64:15:1e:9e
-----BEGIN CERTIFICATE-----
MIIDXDCCAkSgAwIBAgIQZ8dnuD52GqqDojRbqWtmfzANBgkqhkiG9w0BAQsFADAW
MRQwEgYDVQQDDAt0ZWFtNjYzLW5ldDAeFw0yMTA5MTMwNDI4NTNaFw0yNDA4Mjgw
NDI4NTNaMBkxFzAVBgNVBAMMDnRlYW02NjMtY2xpZW50MIIBIjANBgkqhkiG9w0B
AQEFAAOCAQ8AMIIBCgKCAQEApmqFZbBiY0PnoZpiVDBDYwhh6z0wJBu/h7AWAGbi
I37CgfXD3WZ+4pEfMm1hgIjsSeyeCrdn/QJqyd/Arn+EgK2+2x7Lh+tSdEuj/Rby
vO9w7D37lPkbbDzHg68eZMsovkUN9b5r85AcJRtgPnsVxDqapQgsLNPFD2TEYmqM
e/rTHQT8N+uQj6NGI2I6xN/dYSSLzps+ZQgBwy1Kk1yVZX+RgsjKy0xCspb8qKMQ
6tQxFtijBBb45XgKQI130NujhtVTewWVw3yKJNfqROuVQv24rTkBKd2j7UOroGMA
3S+SP1pcNs0ybKyY3WRGOaT15AGdYqNTO1Z196ReQGep2wIDAQABo4GiMIGfMAkG
A1UdEwQCMAAwHQYDVR0OBBYEFNaVS7r3GFmxrzgJt8RpBrmTmnkAMFEGA1UdIwRK
MEiAFPGS9yW1+VC+/lEgxCkU1mjrHbnRoRqkGDAWMRQwEgYDVQQDDAt0ZWFtNjYz
LW5ldIIUELjWTOVjPL1osCH9rejlOab9y+owEwYDVR0lBAwwCgYIKwYBBQUHAwIw
CwYDVR0PBAQDAgeAMA0GCSqGSIb3DQEBCwUAA4IBAQB6p/71jh2dggbhCCgBXCrW
ywlk6dE9NTVJZFXpo/cRKTFEfiODI5S8h4Czmq/3yS7M2QL5Ca9VI5sP96KvKWOv
YmGBm1h2dfhO6BLXRs3GKSX2vNwn8UL3ejERgIaYhmbN/nDN/BGOZlvOJU9MLB17
sjgl0OE0Bguwknujullhfhj5funiskVZOIwYtAutxrZnw+NYB5sw8dybL78FuOk2
d+9uL1mCTXK7gVIv0l6XOb204JL5ECpUtA7psNBtQ+TOcrDZe21qrlWf0NgoeATR
kNDniIERt3mswtUnWCtuKwyuBPBV4PXU0XMEFp+nTxtvwVa7d4Gj1yJMI+RkFR6e
-----END CERTIFICATE-----
