Certificate:
    Data:
        Version: 3 (0x2)
        Serial Number:
            42:1e:99:19:92:2c:03:30:29:8c:33:4d:02:f5:dd:3e
        Signature Algorithm: sha256WithRSAEncryption
        Issuer: CN=team272-net
        Validity
            Not Before: Sep 13 01:08:24 2021 GMT
            Not After : Aug 28 01:08:24 2024 GMT
        Subject: CN=team272-client
        Subject Public Key Info:
            Public Key Algorithm: rsaEncryption
                RSA Public-Key: (2048 bit)
                Modulus:
                    00:c2:cf:81:4e:b0:25:a8:09:39:a7:f8:51:aa:e7:
                    bc:4a:f6:11:8f:05:00:28:f4:f5:38:e7:59:c0:52:
                    8c:e3:ac:21:5f:fe:4f:61:63:f9:c8:10:31:89:12:
                    d7:ad:11:1d:c8:2b:13:fc:30:12:7b:4a:95:8e:2b:
                    31:60:17:79:63:ce:20:67:d0:ef:7b:4e:95:30:f5:
                    72:a7:fd:54:72:60:4f:50:d5:3b:9c:85:74:c8:0a:
                    c5:89:42:66:45:8a:d6:ba:17:dd:4f:be:ff:79:88:
                    04:ec:d8:b8:63:bc:60:60:78:15:1c:9c:fc:0a:28:
                    6c:6b:33:c9:00:90:e1:c1:3c:3f:b9:4b:4c:1f:5f:
                    9c:90:33:ec:bd:35:ed:52:f0:e5:ac:48:81:93:5b:
                    d5:8c:aa:26:9a:6b:1e:93:c0:9d:ed:e0:79:22:8b:
                    9c:38:6d:fb:96:1b:f7:c6:0c:41:a8:d3:71:51:b7:
                    f3:c2:24:48:bf:ad:cd:b7:2f:42:0c:e6:7d:29:ee:
                    8a:bc:28:c8:c9:9a:cf:34:3b:b8:04:b2:8b:83:b9:
                    1b:f5:d1:f8:bd:1f:8f:a3:f3:29:9e:69:03:d0:ab:
                    1a:61:30:c9:42:bf:af:0f:68:56:a3:f1:35:92:bc:
                    42:e7:bd:79:96:d8:a5:1d:9e:0a:29:fe:05:90:ee:
                    b0:f7
                Exponent: 65537 (0x10001)
        X509v3 extensions:
            X509v3 Basic Constraints: 
                CA:FALSE
            X509v3 Subject Key Identifier: 
                BB:FC:65:38:A4:BA:2A:AA:97:FE:88:C4:1F:95:4C:F1:10:E3:F7:83
            X509v3 Authority Key Identifier: 
                keyid:61:B5:95:31:49:F3:E5:57:9C:35:47:64:70:55:11:A7:51:AA:94:DF
                DirName:/CN=team272-net
                serial:35:DF:EA:BB:56:43:F1:7B:BF:F8:63:DD:03:18:B0:36:DD:B7:ED:32

            X509v3 Extended Key Usage: 
                TLS Web Client Authentication
            X509v3 Key Usage: 
                Digital Signature
    Signature Algorithm: sha256WithRSAEncryption
         d2:99:cf:a8:59:24:0c:ec:c1:19:e2:4c:e0:ee:ae:a3:90:45:
         1f:b5:9b:d9:42:07:51:90:c3:d7:a2:a2:d9:6c:94:52:12:24:
         8c:64:17:22:ea:81:91:e7:e9:40:55:6b:60:b5:f6:51:1a:a5:
         b1:ca:ce:11:39:01:04:26:71:0c:e5:52:2a:0d:fb:fb:66:f8:
         b1:67:68:4e:3c:65:37:20:94:32:92:cd:a4:a0:99:3c:dd:27:
         2d:da:da:1e:a9:79:d6:a3:e4:01:36:07:d8:d2:60:aa:a1:4e:
         1a:27:eb:97:c4:65:c2:0a:42:2c:db:4a:8a:dc:5a:1f:1f:c2:
         14:f1:7b:44:2f:95:db:90:e0:47:f6:c4:6a:75:ce:46:d5:fa:
         4a:54:e9:a6:27:48:c2:dc:0b:63:4a:53:3b:43:0d:26:25:c3:
         71:6a:14:ff:ee:71:7f:0e:6b:2b:18:d8:46:14:35:0d:f7:e1:
         ac:ab:c2:7c:37:f4:a9:23:a7:34:43:62:98:0f:fc:f0:fc:4b:
         b2:ac:24:4c:07:b7:73:f3:51:38:65:28:b4:6d:b1:30:c5:bf:
         c3:58:48:8d:5a:18:be:e4:58:ca:6c:94:88:76:9f:ab:83:8d:
         d3:3c:7f:c9:e9:01:41:f1:41:9f:82:03:e2:ce:d1:c9:42:0d:
         5b:95:82:68
-----BEGIN CERTIFICATE-----
MIIDXDCCAkSgAwIBAgIQQh6ZGZIsAzApjDNNAvXdPjANBgkqhkiG9w0BAQsFADAW
MRQwEgYDVQQDDAt0ZWFtMjcyLW5ldDAeFw0yMTA5MTMwMTA4MjRaFw0yNDA4Mjgw
MTA4MjRaMBkxFzAVBgNVBAMMDnRlYW0yNzItY2xpZW50MIIBIjANBgkqhkiG9w0B
AQEFAAOCAQ8AMIIBCgKCAQEAws+BTrAlqAk5p/hRque8SvYRjwUAKPT1OOdZwFKM
46whX/5PYWP5yBAxiRLXrREdyCsT/DASe0qVjisxYBd5Y84gZ9Dve06VMPVyp/1U
cmBPUNU7nIV0yArFiUJmRYrWuhfdT77/eYgE7Ni4Y7xgYHgVHJz8CihsazPJAJDh
wTw/uUtMH1+ckDPsvTXtUvDlrEiBk1vVjKommmsek8Cd7eB5IoucOG37lhv3xgxB
qNNxUbfzwiRIv63Nty9CDOZ9Ke6KvCjIyZrPNDu4BLKLg7kb9dH4vR+Po/MpnmkD
0KsaYTDJQr+vD2hWo/E1krxC5715ltilHZ4KKf4FkO6w9wIDAQABo4GiMIGfMAkG
A1UdEwQCMAAwHQYDVR0OBBYEFLv8ZTikuiqql/6IxB+VTPEQ4/eDMFEGA1UdIwRK
MEiAFGG1lTFJ8+VXnDVHZHBVEadRqpTfoRqkGDAWMRQwEgYDVQQDDAt0ZWFtMjcy
LW5ldIIUNd/qu1ZD8Xu/+GPdAxiwNt237TIwEwYDVR0lBAwwCgYIKwYBBQUHAwIw
CwYDVR0PBAQDAgeAMA0GCSqGSIb3DQEBCwUAA4IBAQDSmc+oWSQM7MEZ4kzg7q6j
kEUftZvZQgdRkMPXoqLZbJRSEiSMZBci6oGR5+lAVWtgtfZRGqWxys4ROQEEJnEM
5VIqDfv7ZvixZ2hOPGU3IJQyks2koJk83Sct2toeqXnWo+QBNgfY0mCqoU4aJ+uX
xGXCCkIs20qK3FofH8IU8XtEL5XbkOBH9sRqdc5G1fpKVOmmJ0jC3AtjSlM7Qw0m
JcNxahT/7nF/DmsrGNhGFDUN9+Gsq8J8N/SpI6c0Q2KYD/zw/EuyrCRMB7dz81E4
ZSi0bbEwxb/DWEiNWhi+5FjKbJSIdp+rg43TPH/J6QFB8UGfggPiztHJQg1blYJo
-----END CERTIFICATE-----
