Certificate:
    Data:
        Version: 3 (0x2)
        Serial Number:
            2d:d6:d8:bf:ba:59:38:fd:98:21:34:34:29:a6:33:dc
        Signature Algorithm: sha256WithRSAEncryption
        Issuer: CN=team367-net
        Validity
            Not Before: Sep 13 02:02:55 2021 GMT
            Not After : Aug 28 02:02:55 2024 GMT
        Subject: CN=team367-server
        Subject Public Key Info:
            Public Key Algorithm: rsaEncryption
                RSA Public-Key: (2048 bit)
                Modulus:
                    00:bc:f1:0b:15:dd:79:3f:f8:88:89:ca:4e:56:2e:
                    d8:5d:b8:e8:ab:c5:40:42:49:a6:8f:c8:8b:56:60:
                    0c:ae:f5:57:f1:ff:1f:fa:84:c7:1a:5f:cf:54:8e:
                    91:5e:4e:33:3c:ef:d2:06:24:0e:65:2f:16:f8:d5:
                    63:94:77:3c:ca:4c:a9:30:3b:0c:d8:d8:b4:5a:ea:
                    62:e6:80:10:48:24:1d:7e:2b:20:eb:eb:8d:93:24:
                    8a:a3:9c:89:67:85:e2:1c:88:64:ac:59:74:6f:36:
                    36:0e:7b:c0:c5:e0:d4:e2:46:3e:5a:0f:93:4e:58:
                    23:04:e2:f2:34:9d:5e:c7:8d:6b:c8:a5:57:14:a5:
                    f1:5d:a9:18:da:ac:18:3c:9d:51:5c:be:b7:95:63:
                    82:1f:06:09:45:93:89:47:ed:ca:9d:65:b1:8f:97:
                    34:b7:1b:ed:99:42:06:1d:fa:06:54:2d:7e:b7:bb:
                    06:83:84:d5:e4:d4:34:f7:85:47:73:0a:3e:3f:ae:
                    e4:39:e0:e9:c7:96:be:45:7a:35:eb:69:7a:7f:3c:
                    1c:64:55:3e:83:30:8f:48:0e:dd:39:f4:65:5a:60:
                    04:8f:8c:71:75:db:92:b6:62:dd:96:8f:4b:0a:ea:
                    ac:02:ae:68:42:d3:50:95:82:b0:76:83:2b:6e:da:
                    5a:2f
                Exponent: 65537 (0x10001)
        X509v3 extensions:
            X509v3 Basic Constraints: 
                CA:FALSE
            X509v3 Subject Key Identifier: 
                EA:93:8E:61:6E:CA:CC:CB:92:FD:F9:DA:38:0A:0E:EE:FD:99:C5:88
            X509v3 Authority Key Identifier: 
                keyid:E8:B4:2A:83:B3:CF:C1:94:C7:BC:D6:A2:9A:F2:69:28:85:F8:AF:66
                DirName:/CN=team367-net
                serial:2A:8A:A7:F9:48:ED:05:51:92:80:B6:23:D7:78:7B:18:43:DD:62:DE

            X509v3 Extended Key Usage: 
                TLS Web Server Authentication
            X509v3 Key Usage: 
                Digital Signature, Key Encipherment
            X509v3 Subject Alternative Name: 
                DNS:team367-server
    Signature Algorithm: sha256WithRSAEncryption
         bb:e7:b7:ae:d6:6e:68:0d:07:9d:8c:52:ec:38:43:d5:f3:0f:
         5e:82:86:02:d1:89:c8:ae:ba:36:ec:d1:bb:05:d1:f3:e7:cb:
         ac:47:ff:f3:b2:6d:05:04:0c:2d:56:1a:28:e3:e0:9c:c5:9f:
         8e:85:46:43:97:db:b7:64:c6:2b:0a:87:83:3b:51:43:66:cd:
         98:65:c6:b5:dd:c4:fd:92:9b:0a:c4:c7:11:bb:9d:aa:d8:2a:
         a9:1c:71:85:2f:da:72:54:5f:e8:6e:7b:90:60:72:25:61:6f:
         af:a5:28:40:86:4a:cc:1a:3d:fd:3d:e2:bf:c8:73:fa:d7:f1:
         16:b1:cb:0d:0b:7c:01:c6:99:fc:e3:8d:5e:53:7c:b2:3e:e2:
         33:d5:75:dd:30:13:5a:e2:6b:15:bf:27:71:33:6a:2b:e5:33:
         1f:0c:59:aa:22:c6:97:75:d7:d0:90:aa:e9:d7:f2:39:cd:19:
         05:bd:e3:f7:fb:7b:15:70:25:0f:2b:6e:be:3e:1c:78:9b:e3:
         2e:11:a9:c3:43:09:c4:c1:e4:46:2f:07:ab:ef:0d:d7:d2:6c:
         1c:be:dd:67:00:31:98:86:be:b0:d4:8a:11:b0:96:a6:84:9b:
         c2:2c:99:5b:26:52:0e:5a:db:f0:64:ce:29:8f:ee:34:80:f9:
         71:84:c4:cf
-----BEGIN CERTIFICATE-----
MIIDdzCCAl+gAwIBAgIQLdbYv7pZOP2YITQ0KaYz3DANBgkqhkiG9w0BAQsFADAW
MRQwEgYDVQQDDAt0ZWFtMzY3LW5ldDAeFw0yMTA5MTMwMjAyNTVaFw0yNDA4Mjgw
MjAyNTVaMBkxFzAVBgNVBAMMDnRlYW0zNjctc2VydmVyMIIBIjANBgkqhkiG9w0B
AQEFAAOCAQ8AMIIBCgKCAQEAvPELFd15P/iIicpOVi7YXbjoq8VAQkmmj8iLVmAM
rvVX8f8f+oTHGl/PVI6RXk4zPO/SBiQOZS8W+NVjlHc8ykypMDsM2Ni0Wupi5oAQ
SCQdfisg6+uNkySKo5yJZ4XiHIhkrFl0bzY2DnvAxeDU4kY+Wg+TTlgjBOLyNJ1e
x41ryKVXFKXxXakY2qwYPJ1RXL63lWOCHwYJRZOJR+3KnWWxj5c0txvtmUIGHfoG
VC1+t7sGg4TV5NQ094VHcwo+P67kOeDpx5a+RXo162l6fzwcZFU+gzCPSA7dOfRl
WmAEj4xxdduStmLdlo9LCuqsAq5oQtNQlYKwdoMrbtpaLwIDAQABo4G9MIG6MAkG
A1UdEwQCMAAwHQYDVR0OBBYEFOqTjmFuyszLkv352jgKDu79mcWIMFEGA1UdIwRK
MEiAFOi0KoOzz8GUx7zWopryaSiF+K9moRqkGDAWMRQwEgYDVQQDDAt0ZWFtMzY3
LW5ldIIUKoqn+UjtBVGSgLYj13h7GEPdYt4wEwYDVR0lBAwwCgYIKwYBBQUHAwEw
CwYDVR0PBAQDAgWgMBkGA1UdEQQSMBCCDnRlYW0zNjctc2VydmVyMA0GCSqGSIb3
DQEBCwUAA4IBAQC757eu1m5oDQedjFLsOEPV8w9egoYC0YnIrro27NG7BdHz58us
R//zsm0FBAwtVhoo4+CcxZ+OhUZDl9u3ZMYrCoeDO1FDZs2YZca13cT9kpsKxMcR
u52q2CqpHHGFL9pyVF/obnuQYHIlYW+vpShAhkrMGj39PeK/yHP61/EWscsNC3wB
xpn8441eU3yyPuIz1XXdMBNa4msVvydxM2or5TMfDFmqIsaXddfQkKrp1/I5zRkF
veP3+3sVcCUPK26+Phx4m+MuEanDQwnEweRGLwer7w3X0mwcvt1nADGYhr6w1IoR
sJamhJvCLJlbJlIOWtvwZM4pj+40gPlxhMTP
-----END CERTIFICATE-----
