Certificate:
    Data:
        Version: 3 (0x2)
        Serial Number:
            f6:cf:73:9b:43:ff:f2:ec:9d:6e:41:1d:2d:3b:c6:d4
        Signature Algorithm: sha256WithRSAEncryption
        Issuer: CN=team367-net
        Validity
            Not Before: Sep 13 02:02:54 2021 GMT
            Not After : Aug 28 02:02:54 2024 GMT
        Subject: CN=team367-client
        Subject Public Key Info:
            Public Key Algorithm: rsaEncryption
                RSA Public-Key: (2048 bit)
                Modulus:
                    00:b2:c3:7c:4b:8e:7b:2f:fd:25:49:a5:67:86:75:
                    35:e2:c9:82:0d:97:a0:0d:ff:62:50:1c:5b:1c:f9:
                    25:bf:8d:bf:e3:83:be:0b:79:43:0b:df:f6:83:d3:
                    8f:32:c2:14:50:18:18:5f:bd:d0:85:ee:1c:28:99:
                    31:25:e5:e5:f0:26:e7:14:f7:d9:ea:53:93:34:30:
                    14:0d:25:f9:97:b5:ee:47:36:21:7a:51:a5:06:be:
                    a3:65:df:34:21:5c:b6:09:c9:2b:1b:54:63:4f:dd:
                    f7:c7:2d:0b:ca:1c:9e:7f:1a:9f:5a:52:da:43:12:
                    7e:88:a0:f7:9f:c9:a0:33:44:53:fe:bb:a2:07:0c:
                    1b:f0:5f:5d:59:56:f0:3e:47:0c:66:b3:a5:1f:ab:
                    65:3d:c5:f1:22:ea:59:f4:4e:5b:9c:ac:53:52:b4:
                    57:6d:86:5e:a3:e2:4f:bb:ca:85:46:c9:36:28:76:
                    b2:b1:72:1c:4c:4f:62:ed:90:0f:bb:0a:0d:b1:56:
                    28:54:25:77:c7:dd:55:9f:d9:4f:83:15:82:49:1f:
                    93:75:e4:74:97:e0:0c:79:83:15:89:a4:93:63:c9:
                    78:27:c6:ce:1b:3b:11:20:6c:5b:3c:d2:23:b6:08:
                    74:1f:84:c0:fe:ee:80:a1:fd:69:91:94:46:35:fd:
                    6d:a7
                Exponent: 65537 (0x10001)
        X509v3 extensions:
            X509v3 Basic Constraints: 
                CA:FALSE
            X509v3 Subject Key Identifier: 
                2C:09:1B:5A:C6:C9:1A:AC:1D:87:1F:39:F7:A1:84:82:0C:A3:02:52
            X509v3 Authority Key Identifier: 
                keyid:E8:B4:2A:83:B3:CF:C1:94:C7:BC:D6:A2:9A:F2:69:28:85:F8:AF:66
                DirName:/CN=team367-net
                serial:2A:8A:A7:F9:48:ED:05:51:92:80:B6:23:D7:78:7B:18:43:DD:62:DE

            X509v3 Extended Key Usage: 
                TLS Web Client Authentication
            X509v3 Key Usage: 
                Digital Signature
    Signature Algorithm: sha256WithRSAEncryption
         b0:ce:3b:39:d4:80:2d:03:12:b0:ff:8e:0e:bd:e2:a9:fb:56:
         99:0d:f7:7c:e8:e3:24:97:d4:af:ba:de:c9:1e:c5:e1:5b:65:
         3f:06:92:86:1f:0e:26:ab:d5:df:a0:7c:a3:1e:1b:38:d0:c6:
         73:c7:46:c7:3a:f8:ee:a9:36:15:b1:27:db:54:d2:44:48:0e:
         4d:9f:ca:75:83:e8:06:dc:fb:0d:6e:a7:8d:98:95:d3:5c:fd:
         aa:be:d0:3c:aa:19:6e:0e:28:c9:9e:33:0a:d4:31:4a:1c:99:
         64:1e:88:ae:f6:ef:f8:d9:11:7c:8b:31:f3:82:85:09:02:28:
         05:5e:0d:80:4c:c8:28:fd:17:dd:44:1b:7c:80:dd:14:43:b8:
         d7:73:72:07:1b:fd:f0:40:91:b9:9d:4e:33:14:6b:17:92:a9:
         18:4d:ac:42:e2:28:ec:c1:97:4f:70:69:93:ab:19:6d:12:a4:
         aa:67:aa:f2:45:3c:b3:54:d8:6e:eb:31:61:75:c8:de:6e:50:
         e7:99:d9:57:a5:46:2f:26:19:ec:52:e4:8f:9c:68:d8:77:c8:
         56:82:40:31:5a:f0:4c:02:57:d7:c1:39:d7:8c:08:b4:63:75:
         11:95:c6:1f:64:a7:0f:39:38:72:68:de:36:f3:e1:57:bc:e1:
         b4:51:58:73
-----BEGIN CERTIFICATE-----
MIIDXTCCAkWgAwIBAgIRAPbPc5tD//LsnW5BHS07xtQwDQYJKoZIhvcNAQELBQAw
FjEUMBIGA1UEAwwLdGVhbTM2Ny1uZXQwHhcNMjEwOTEzMDIwMjU0WhcNMjQwODI4
MDIwMjU0WjAZMRcwFQYDVQQDDA50ZWFtMzY3LWNsaWVudDCCASIwDQYJKoZIhvcN
AQEBBQADggEPADCCAQoCggEBALLDfEuOey/9JUmlZ4Z1NeLJgg2XoA3/YlAcWxz5
Jb+Nv+ODvgt5Qwvf9oPTjzLCFFAYGF+90IXuHCiZMSXl5fAm5xT32epTkzQwFA0l
+Ze17kc2IXpRpQa+o2XfNCFctgnJKxtUY0/d98ctC8ocnn8an1pS2kMSfoig95/J
oDNEU/67ogcMG/BfXVlW8D5HDGazpR+rZT3F8SLqWfROW5ysU1K0V22GXqPiT7vK
hUbJNih2srFyHExPYu2QD7sKDbFWKFQld8fdVZ/ZT4MVgkkfk3XkdJfgDHmDFYmk
k2PJeCfGzhs7ESBsWzzSI7YIdB+EwP7ugKH9aZGURjX9bacCAwEAAaOBojCBnzAJ
BgNVHRMEAjAAMB0GA1UdDgQWBBQsCRtaxskarB2HHzn3oYSCDKMCUjBRBgNVHSME
SjBIgBTotCqDs8/BlMe81qKa8mkohfivZqEapBgwFjEUMBIGA1UEAwwLdGVhbTM2
Ny1uZXSCFCqKp/lI7QVRkoC2I9d4exhD3WLeMBMGA1UdJQQMMAoGCCsGAQUFBwMC
MAsGA1UdDwQEAwIHgDANBgkqhkiG9w0BAQsFAAOCAQEAsM47OdSALQMSsP+ODr3i
qftWmQ33fOjjJJfUr7reyR7F4VtlPwaShh8OJqvV36B8ox4bONDGc8dGxzr47qk2
FbEn21TSREgOTZ/KdYPoBtz7DW6njZiV01z9qr7QPKoZbg4oyZ4zCtQxShyZZB6I
rvbv+NkRfIsx84KFCQIoBV4NgEzIKP0X3UQbfIDdFEO413NyBxv98ECRuZ1OMxRr
F5KpGE2sQuIo7MGXT3Bpk6sZbRKkqmeq8kU8s1TYbusxYXXI3m5Q55nZV6VGLyYZ
7FLkj5xo2HfIVoJAMVrwTAJX18E514wItGN1EZXGH2SnDzk4cmjeNvPhV7zhtFFY
cw==
-----END CERTIFICATE-----
