Certificate:
    Data:
        Version: 3 (0x2)
        Serial Number:
            20:c2:0a:78:e3:18:86:a4:ba:f0:d5:4c:66:fe:6f:91
        Signature Algorithm: sha256WithRSAEncryption
        Issuer: CN=team481-net
        Validity
            Not Before: Sep 13 03:05:12 2021 GMT
            Not After : Aug 28 03:05:12 2024 GMT
        Subject: CN=team481-server
        Subject Public Key Info:
            Public Key Algorithm: rsaEncryption
                RSA Public-Key: (2048 bit)
                Modulus:
                    00:c9:2f:75:b6:5d:4e:f3:84:2b:cf:3e:2f:ee:d1:
                    7a:e8:fb:c2:b2:6a:51:49:8b:6c:d9:7f:b9:7b:c1:
                    c8:43:d5:0b:53:64:64:3a:81:4e:d3:12:fd:0b:25:
                    c0:a5:08:e2:8c:b8:29:be:25:1a:54:67:a0:57:74:
                    62:b4:dd:5f:79:9c:05:d5:6f:99:f7:5b:f2:43:af:
                    ca:72:ae:be:e7:c7:ed:d2:3e:53:0c:4f:72:83:e9:
                    fd:1e:e6:b4:da:ae:d1:1e:0a:8a:0d:0c:ac:32:ef:
                    6b:5a:f5:7c:02:21:f9:c3:c4:bc:ac:b8:b4:67:2b:
                    fe:88:11:af:73:1d:55:77:6e:f5:78:b4:d1:52:d3:
                    e1:7a:62:42:55:5f:ff:16:be:b9:e0:20:2e:e9:f2:
                    db:09:28:4e:59:34:7e:d1:a4:a2:dd:3d:e5:2d:4c:
                    da:5f:47:69:7a:49:1e:4e:0c:d8:26:53:38:b4:c7:
                    7c:c3:c3:21:4a:22:85:c7:73:8a:f3:e0:47:33:6f:
                    7b:ec:12:36:de:db:3f:d5:e3:86:ae:bc:ca:48:e4:
                    70:8f:9c:10:c0:00:5a:9a:2d:0a:3b:15:45:87:9e:
                    39:24:e6:a7:96:a6:18:a4:2c:ac:43:c9:58:f8:79:
                    16:3b:9f:25:0c:c4:14:80:81:6a:a3:db:47:cf:8c:
                    11:4b
                Exponent: 65537 (0x10001)
        X509v3 extensions:
            X509v3 Basic Constraints: 
                CA:FALSE
            X509v3 Subject Key Identifier: 
                06:95:D2:C2:DE:9A:B1:47:6E:67:3C:21:D2:5E:BB:B5:C0:0C:10:BC
            X509v3 Authority Key Identifier: 
                keyid:F3:E8:F2:EF:11:C4:11:FC:97:D9:BD:12:B8:EA:38:E2:F1:28:30:C2
                DirName:/CN=team481-net
                serial:57:DF:D5:58:8A:D6:3C:0B:19:5E:FA:E9:08:CB:F5:6E:EC:55:75:FC

            X509v3 Extended Key Usage: 
                TLS Web Server Authentication
            X509v3 Key Usage: 
                Digital Signature, Key Encipherment
            X509v3 Subject Alternative Name: 
                DNS:team481-server
    Signature Algorithm: sha256WithRSAEncryption
         8c:92:4e:21:69:03:ca:9c:ec:f7:34:0e:29:b5:19:d7:3b:a5:
         07:14:c1:92:bc:6b:b4:0a:31:a5:00:03:7e:5b:99:4f:4e:17:
         2a:6e:61:65:25:40:38:61:61:61:f2:1b:2a:65:ec:d2:05:69:
         df:1f:43:40:69:f0:f9:6e:c7:85:fd:4b:e7:a1:ad:58:00:99:
         15:4b:8e:07:6b:df:bf:2c:e2:61:80:e1:73:88:50:a9:25:a2:
         78:0d:1a:10:49:b8:e0:2c:e7:d2:63:b7:b0:62:36:c1:81:14:
         4d:84:39:98:59:19:71:97:d8:fb:b6:f1:63:fc:72:ed:5d:6e:
         54:2d:b0:73:e4:e3:8a:a5:01:cf:33:18:40:93:e0:98:78:ec:
         6f:3a:0d:e6:6e:04:be:94:36:5c:b5:53:95:1d:a3:ef:af:13:
         14:45:5b:47:2c:86:38:dd:58:61:77:08:e2:86:0e:77:71:0e:
         09:98:ae:bc:d8:2a:c1:b6:29:3e:a2:05:43:be:42:f4:41:f6:
         dc:23:01:57:23:e6:94:98:1c:b8:59:71:1e:89:9d:3a:a8:b5:
         ed:ba:0e:83:0d:b9:94:24:e9:41:d5:40:ab:4f:58:73:7e:5a:
         ac:6f:b7:42:8b:77:e5:bb:2c:61:c9:6f:cf:4b:72:6b:20:27:
         94:46:89:d2
-----BEGIN CERTIFICATE-----
MIIDdzCCAl+gAwIBAgIQIMIKeOMYhqS68NVMZv5vkTANBgkqhkiG9w0BAQsFADAW
MRQwEgYDVQQDDAt0ZWFtNDgxLW5ldDAeFw0yMTA5MTMwMzA1MTJaFw0yNDA4Mjgw
MzA1MTJaMBkxFzAVBgNVBAMMDnRlYW00ODEtc2VydmVyMIIBIjANBgkqhkiG9w0B
AQEFAAOCAQ8AMIIBCgKCAQEAyS91tl1O84Qrzz4v7tF66PvCsmpRSYts2X+5e8HI
Q9ULU2RkOoFO0xL9CyXApQjijLgpviUaVGegV3RitN1feZwF1W+Z91vyQ6/Kcq6+
58ft0j5TDE9yg+n9Hua02q7RHgqKDQysMu9rWvV8AiH5w8S8rLi0Zyv+iBGvcx1V
d271eLTRUtPhemJCVV//Fr654CAu6fLbCShOWTR+0aSi3T3lLUzaX0dpekkeTgzY
JlM4tMd8w8MhSiKFx3OK8+BHM2977BI23ts/1eOGrrzKSORwj5wQwABami0KOxVF
h545JOanlqYYpCysQ8lY+HkWO58lDMQUgIFqo9tHz4wRSwIDAQABo4G9MIG6MAkG
A1UdEwQCMAAwHQYDVR0OBBYEFAaV0sLemrFHbmc8IdJeu7XADBC8MFEGA1UdIwRK
MEiAFPPo8u8RxBH8l9m9ErjqOOLxKDDCoRqkGDAWMRQwEgYDVQQDDAt0ZWFtNDgx
LW5ldIIUV9/VWIrWPAsZXvrpCMv1buxVdfwwEwYDVR0lBAwwCgYIKwYBBQUHAwEw
CwYDVR0PBAQDAgWgMBkGA1UdEQQSMBCCDnRlYW00ODEtc2VydmVyMA0GCSqGSIb3
DQEBCwUAA4IBAQCMkk4haQPKnOz3NA4ptRnXO6UHFMGSvGu0CjGlAAN+W5lPThcq
bmFlJUA4YWFh8hsqZezSBWnfH0NAafD5bseF/Uvnoa1YAJkVS44Ha9+/LOJhgOFz
iFCpJaJ4DRoQSbjgLOfSY7ewYjbBgRRNhDmYWRlxl9j7tvFj/HLtXW5ULbBz5OOK
pQHPMxhAk+CYeOxvOg3mbgS+lDZctVOVHaPvrxMURVtHLIY43Vhhdwjihg53cQ4J
mK682CrBtik+ogVDvkL0QfbcIwFXI+aUmBy4WXEeiZ06qLXtug6DDbmUJOlB1UCr
T1hzflqsb7dCi3fluyxhyW/PS3JrICeURonS
-----END CERTIFICATE-----
