Certificate:
    Data:
        Version: 3 (0x2)
        Serial Number:
            6a:2a:ca:f1:15:91:de:80:1b:a0:20:eb:f9:4c:d8:7c
        Signature Algorithm: sha256WithRSAEncryption
        Issuer: CN=team481-net
        Validity
            Not Before: Sep 13 03:05:12 2021 GMT
            Not After : Aug 28 03:05:12 2024 GMT
        Subject: CN=team481-client
        Subject Public Key Info:
            Public Key Algorithm: rsaEncryption
                RSA Public-Key: (2048 bit)
                Modulus:
                    00:c5:73:e0:aa:18:73:3d:a0:be:26:8d:d0:ad:57:
                    89:0f:a3:4a:d3:3f:9f:b5:29:b1:ef:4a:16:ea:b6:
                    1b:c7:db:76:0f:76:72:20:88:05:77:e3:43:fa:a8:
                    d5:5e:82:0e:e6:48:53:89:6f:a3:1a:24:1b:fd:18:
                    2e:3e:94:09:13:bf:c3:27:5d:87:43:22:94:c9:af:
                    19:dc:f5:8a:e2:e7:79:42:85:59:3e:9d:57:4e:6c:
                    a5:b5:7e:16:31:1c:52:9f:9c:e8:92:34:7a:e9:93:
                    90:88:ce:6c:72:65:5a:d6:11:6b:09:b0:61:24:58:
                    ae:24:a6:a9:bc:98:19:6b:bb:a9:73:ab:90:8c:c7:
                    0d:38:72:98:76:c6:ac:30:8f:32:52:96:a1:45:e6:
                    e1:d9:14:f0:e2:a8:f8:97:87:74:eb:25:5c:8c:88:
                    a7:54:e5:bb:bf:44:60:5c:e8:23:e8:b2:9e:71:d7:
                    5d:2e:b2:c7:a7:79:11:0b:e7:bd:82:2b:eb:47:ac:
                    57:a5:98:8c:cd:b1:1f:26:7d:39:85:8b:15:ef:6a:
                    d1:fb:84:96:f0:1c:c3:10:4f:88:06:a7:66:eb:c8:
                    50:e7:52:25:70:3a:0e:ff:9a:da:ca:2c:f6:a8:c1:
                    3f:f5:f4:ea:24:bd:72:3b:19:b5:ed:1c:b5:19:39:
                    0f:03
                Exponent: 65537 (0x10001)
        X509v3 extensions:
            X509v3 Basic Constraints: 
                CA:FALSE
            X509v3 Subject Key Identifier: 
                4C:D8:51:E1:E3:69:BE:D3:F5:9B:FA:6E:81:8E:9F:CE:B3:0C:32:8C
            X509v3 Authority Key Identifier: 
                keyid:F3:E8:F2:EF:11:C4:11:FC:97:D9:BD:12:B8:EA:38:E2:F1:28:30:C2
                DirName:/CN=team481-net
                serial:57:DF:D5:58:8A:D6:3C:0B:19:5E:FA:E9:08:CB:F5:6E:EC:55:75:FC

            X509v3 Extended Key Usage: 
                TLS Web Client Authentication
            X509v3 Key Usage: 
                Digital Signature
    Signature Algorithm: sha256WithRSAEncryption
         a7:cd:f2:b1:bb:45:e7:90:c0:48:77:75:e6:47:5f:f1:e7:04:
         78:b0:97:ba:6a:7d:a6:c2:4e:d6:d5:7f:0f:eb:67:24:c8:3b:
         fa:96:61:6a:a9:cf:2c:0b:b7:ab:32:75:d6:fe:09:3d:50:c1:
         02:00:c9:39:d5:dd:07:91:0e:b4:a9:d2:1f:e8:42:61:a8:e2:
         c1:f8:3d:3e:cc:6f:54:bd:55:0b:69:19:b6:ab:2f:f7:a4:64:
         a2:19:c4:82:c1:cd:bd:ea:fc:7b:29:24:eb:6a:15:49:c4:43:
         64:fe:27:3f:ef:f3:a0:82:5a:24:6c:86:3b:68:a1:f9:a2:ba:
         c3:63:1e:95:18:46:92:88:47:c5:86:bb:f5:7d:5a:56:08:fe:
         4e:cc:2e:19:96:b9:cf:37:0a:34:7e:54:cd:b3:cf:5f:21:6a:
         47:10:2f:f7:87:08:5f:7c:5c:8b:ab:c2:09:4e:8e:d7:a6:a0:
         7f:e6:4a:7b:70:3d:fc:40:04:82:85:76:38:6f:a4:9a:5b:20:
         d9:55:d5:fb:2c:67:97:d9:fd:af:96:44:32:43:27:36:b8:f4:
         18:a9:15:c7:37:84:41:ea:12:d5:c6:50:c9:e8:08:1d:6f:df:
         9f:46:91:ee:04:a1:2a:e7:d8:ab:45:eb:e3:50:97:27:2a:92:
         02:b9:f3:87
-----BEGIN CERTIFICATE-----
MIIDXDCCAkSgAwIBAgIQairK8RWR3oAboCDr+UzYfDANBgkqhkiG9w0BAQsFADAW
MRQwEgYDVQQDDAt0ZWFtNDgxLW5ldDAeFw0yMTA5MTMwMzA1MTJaFw0yNDA4Mjgw
MzA1MTJaMBkxFzAVBgNVBAMMDnRlYW00ODEtY2xpZW50MIIBIjANBgkqhkiG9w0B
AQEFAAOCAQ8AMIIBCgKCAQEAxXPgqhhzPaC+Jo3QrVeJD6NK0z+ftSmx70oW6rYb
x9t2D3ZyIIgFd+ND+qjVXoIO5khTiW+jGiQb/RguPpQJE7/DJ12HQyKUya8Z3PWK
4ud5QoVZPp1XTmyltX4WMRxSn5zokjR66ZOQiM5scmVa1hFrCbBhJFiuJKapvJgZ
a7upc6uQjMcNOHKYdsasMI8yUpahRebh2RTw4qj4l4d06yVcjIinVOW7v0RgXOgj
6LKecdddLrLHp3kRC+e9givrR6xXpZiMzbEfJn05hYsV72rR+4SW8BzDEE+IBqdm
68hQ51IlcDoO/5rayiz2qME/9fTqJL1yOxm17Ry1GTkPAwIDAQABo4GiMIGfMAkG
A1UdEwQCMAAwHQYDVR0OBBYEFEzYUeHjab7T9Zv6boGOn86zDDKMMFEGA1UdIwRK
MEiAFPPo8u8RxBH8l9m9ErjqOOLxKDDCoRqkGDAWMRQwEgYDVQQDDAt0ZWFtNDgx
LW5ldIIUV9/VWIrWPAsZXvrpCMv1buxVdfwwEwYDVR0lBAwwCgYIKwYBBQUHAwIw
CwYDVR0PBAQDAgeAMA0GCSqGSIb3DQEBCwUAA4IBAQCnzfKxu0XnkMBId3XmR1/x
5wR4sJe6an2mwk7W1X8P62ckyDv6lmFqqc8sC7erMnXW/gk9UMECAMk51d0HkQ60
qdIf6EJhqOLB+D0+zG9UvVULaRm2qy/3pGSiGcSCwc296vx7KSTrahVJxENk/ic/
7/OgglokbIY7aKH5orrDYx6VGEaSiEfFhrv1fVpWCP5OzC4ZlrnPNwo0flTNs89f
IWpHEC/3hwhffFyLq8IJTo7XpqB/5kp7cD38QASChXY4b6SaWyDZVdX7LGeX2f2v
lkQyQyc2uPQYqRXHN4RB6hLVxlDJ6Agdb9+fRpHuBKEq59irRevjUJcnKpICufOH
-----END CERTIFICATE-----
