Certificate:
    Data:
        Version: 3 (0x2)
        Serial Number:
            d9:28:2f:f5:b1:23:67:b7:85:94:10:9d:9b:47:c9:fb
        Signature Algorithm: sha256WithRSAEncryption
        Issuer: CN=team371-net
        Validity
            Not Before: Sep 13 02:04:26 2021 GMT
            Not After : Aug 28 02:04:26 2024 GMT
        Subject: CN=team371-server
        Subject Public Key Info:
            Public Key Algorithm: rsaEncryption
                RSA Public-Key: (2048 bit)
                Modulus:
                    00:ec:aa:c4:89:25:14:20:9c:53:8f:06:b9:0e:fb:
                    29:a9:8d:f2:12:38:14:e0:6a:35:14:36:91:be:ad:
                    0c:e1:a4:63:8b:97:df:8e:29:3d:9d:e0:24:4e:d3:
                    27:6b:0d:fa:d4:d5:35:23:1d:36:50:ef:66:86:91:
                    97:b3:04:bb:53:6b:bb:02:cf:18:ef:09:43:b9:5e:
                    4c:51:09:67:85:37:72:26:6c:55:ac:f5:d6:ce:e6:
                    4d:43:2e:37:68:fb:c5:e3:74:d1:46:68:4c:44:59:
                    2e:58:9f:6b:6c:bb:f0:02:e9:e2:c3:63:27:f5:e1:
                    db:ba:cd:70:03:de:e4:f1:3c:fd:0a:aa:79:06:b9:
                    16:27:5c:46:1f:21:82:63:cf:ea:dd:1c:b4:73:21:
                    3b:92:45:23:71:58:f3:de:2e:08:a5:07:f6:a0:04:
                    9b:e2:6b:07:63:40:62:c1:c5:14:62:72:4f:7c:92:
                    cd:b1:7d:7a:83:05:66:87:1a:c6:f7:3c:d9:5d:bf:
                    1b:2f:ba:43:1e:13:c8:94:44:05:2b:47:13:6f:4c:
                    13:ee:91:29:4d:24:e9:ae:1d:48:28:67:b1:0a:d7:
                    90:95:83:7d:11:f2:bc:a0:17:c4:d0:d5:f7:b3:1a:
                    13:d1:20:2a:00:48:9d:55:f1:20:7c:4d:7e:78:99:
                    c2:6d
                Exponent: 65537 (0x10001)
        X509v3 extensions:
            X509v3 Basic Constraints: 
                CA:FALSE
            X509v3 Subject Key Identifier: 
                AB:82:E6:D9:97:97:71:3C:2A:53:ED:DF:6F:73:2E:DF:3B:F1:18:6C
            X509v3 Authority Key Identifier: 
                keyid:9E:8E:05:FC:3D:0D:0E:7D:76:AD:49:7A:2E:C9:87:57:03:49:1B:37
                DirName:/CN=team371-net
                serial:56:85:32:51:B6:86:77:4B:1C:B4:6A:1B:EB:49:6C:01:ED:86:9B:14

            X509v3 Extended Key Usage: 
                TLS Web Server Authentication
            X509v3 Key Usage: 
                Digital Signature, Key Encipherment
            X509v3 Subject Alternative Name: 
                DNS:team371-server
    Signature Algorithm: sha256WithRSAEncryption
         01:ba:52:01:da:12:85:9e:af:1e:0d:1e:01:c7:81:a8:65:37:
         c3:28:2f:37:27:11:f0:39:07:82:e8:43:ff:b2:bf:31:b2:68:
         7c:b8:e2:c3:36:8c:b1:3a:53:ee:20:4f:78:a3:d4:91:4e:44:
         d1:7d:99:71:ad:d3:5b:cc:a3:e9:a6:6b:c0:32:1f:b1:6f:48:
         fb:17:e1:f6:0b:6b:ef:6c:40:55:e5:65:bb:80:09:53:aa:33:
         d7:b2:1f:d0:9f:d6:b6:53:19:d5:3f:9c:a3:92:82:c0:8d:c8:
         96:22:cc:a6:c5:2e:94:b6:38:2e:61:ab:76:4f:9a:41:fc:cd:
         2d:41:ba:31:3a:40:01:d6:b9:11:8a:d7:30:23:80:1a:e8:e6:
         35:0f:5d:65:db:14:89:ad:f1:3c:90:b5:b9:ec:19:3c:e5:e3:
         c8:1b:df:27:00:8b:eb:fe:45:2a:78:9e:41:46:d6:0a:e7:6c:
         dc:ba:45:c3:81:26:70:2c:5a:cc:0f:63:2c:bd:16:29:7c:5b:
         ea:f6:88:f1:9b:c0:1f:eb:dc:1d:4c:37:92:cb:8e:0c:97:9f:
         fa:da:bd:3b:d4:e6:5d:e8:bd:ca:cc:48:af:b6:dd:f9:d2:ef:
         83:2d:ee:c1:e8:5e:6e:a8:b2:9a:5b:6e:08:63:7a:7f:1b:20:
         0a:71:67:42
-----BEGIN CERTIFICATE-----
MIIDeDCCAmCgAwIBAgIRANkoL/WxI2e3hZQQnZtHyfswDQYJKoZIhvcNAQELBQAw
FjEUMBIGA1UEAwwLdGVhbTM3MS1uZXQwHhcNMjEwOTEzMDIwNDI2WhcNMjQwODI4
MDIwNDI2WjAZMRcwFQYDVQQDDA50ZWFtMzcxLXNlcnZlcjCCASIwDQYJKoZIhvcN
AQEBBQADggEPADCCAQoCggEBAOyqxIklFCCcU48GuQ77KamN8hI4FOBqNRQ2kb6t
DOGkY4uX344pPZ3gJE7TJ2sN+tTVNSMdNlDvZoaRl7MEu1NruwLPGO8JQ7leTFEJ
Z4U3ciZsVaz11s7mTUMuN2j7xeN00UZoTERZLlifa2y78ALp4sNjJ/Xh27rNcAPe
5PE8/QqqeQa5FidcRh8hgmPP6t0ctHMhO5JFI3FY894uCKUH9qAEm+JrB2NAYsHF
FGJyT3ySzbF9eoMFZocaxvc82V2/Gy+6Qx4TyJREBStHE29ME+6RKU0k6a4dSChn
sQrXkJWDfRHyvKAXxNDV97MaE9EgKgBInVXxIHxNfniZwm0CAwEAAaOBvTCBujAJ
BgNVHRMEAjAAMB0GA1UdDgQWBBSrgubZl5dxPCpT7d9vcy7fO/EYbDBRBgNVHSME
SjBIgBSejgX8PQ0OfXatSXouyYdXA0kbN6EapBgwFjEUMBIGA1UEAwwLdGVhbTM3
MS1uZXSCFFaFMlG2hndLHLRqG+tJbAHthpsUMBMGA1UdJQQMMAoGCCsGAQUFBwMB
MAsGA1UdDwQEAwIFoDAZBgNVHREEEjAQgg50ZWFtMzcxLXNlcnZlcjANBgkqhkiG
9w0BAQsFAAOCAQEAAbpSAdoShZ6vHg0eAceBqGU3wygvNycR8DkHguhD/7K/MbJo
fLjiwzaMsTpT7iBPeKPUkU5E0X2Zca3TW8yj6aZrwDIfsW9I+xfh9gtr72xAVeVl
u4AJU6oz17If0J/WtlMZ1T+co5KCwI3IliLMpsUulLY4LmGrdk+aQfzNLUG6MTpA
Ada5EYrXMCOAGujmNQ9dZdsUia3xPJC1uewZPOXjyBvfJwCL6/5FKnieQUbWCuds
3LpFw4EmcCxazA9jLL0WKXxb6vaI8ZvAH+vcHUw3ksuODJef+tq9O9TmXei9ysxI
r7bd+dLvgy3uwehebqiymltuCGN6fxsgCnFnQg==
-----END CERTIFICATE-----
