Certificate:
    Data:
        Version: 3 (0x2)
        Serial Number:
            62:a2:5c:70:5d:37:d7:72:78:99:28:ad:11:be:0e:fa
        Signature Algorithm: sha256WithRSAEncryption
        Issuer: CN=team600-net
        Validity
            Not Before: Sep 13 04:18:12 2021 GMT
            Not After : Aug 28 04:18:12 2024 GMT
        Subject: CN=team600-client
        Subject Public Key Info:
            Public Key Algorithm: rsaEncryption
                RSA Public-Key: (2048 bit)
                Modulus:
                    00:c3:ac:33:c9:4a:7e:13:9a:8d:56:5a:67:94:f1:
                    28:37:6b:76:92:15:5c:ba:cf:56:05:79:c7:39:cb:
                    97:34:76:58:9e:88:1a:f8:de:59:44:4d:d2:d9:f9:
                    75:d9:be:e6:1d:2f:f5:2f:30:01:7c:6f:42:e9:db:
                    32:8e:63:ba:ce:98:bc:b9:fc:7c:a3:31:a0:70:89:
                    d9:19:be:22:a4:5b:29:16:25:77:38:70:a2:4b:de:
                    5c:98:4f:2b:26:4e:1b:14:40:20:c7:51:7f:e3:5b:
                    98:f2:d2:21:5a:54:7d:41:22:0a:d3:ab:c0:2a:82:
                    a4:cd:47:3f:0d:6a:1a:e7:f9:f3:f6:04:a3:4f:c3:
                    b7:3f:39:1a:88:e1:31:e5:91:40:46:2f:30:c1:b0:
                    75:22:56:19:13:af:b5:1f:67:b3:c0:7e:8a:96:51:
                    64:e0:f4:e8:ef:18:11:cf:97:33:8d:20:e2:c5:5f:
                    ef:77:ac:05:7b:cb:41:ae:9f:4a:a6:3b:0d:34:f2:
                    52:61:f7:ba:38:34:b9:a0:b2:e3:b9:30:f9:9b:a0:
                    ba:1d:20:e4:73:b8:94:e6:53:a5:12:60:48:cd:e8:
                    7b:de:3f:d8:55:1d:a8:0c:bd:3e:cb:ee:57:e2:40:
                    51:1a:a3:15:0a:b1:80:9a:82:13:e2:cd:4c:bb:e3:
                    4b:e7
                Exponent: 65537 (0x10001)
        X509v3 extensions:
            X509v3 Basic Constraints: 
                CA:FALSE
            X509v3 Subject Key Identifier: 
                4C:73:3F:8A:D3:67:BE:6C:2D:0B:67:60:BE:85:19:8D:57:93:FB:B7
            X509v3 Authority Key Identifier: 
                keyid:AE:42:2B:28:34:B6:8F:AD:A7:30:06:25:CB:92:9F:FE:F0:CB:1A:69
                DirName:/CN=team600-net
                serial:6C:93:5B:9A:06:5E:1A:A0:B4:D9:E6:7E:BF:91:8E:2A:45:5C:6F:23

            X509v3 Extended Key Usage: 
                TLS Web Client Authentication
            X509v3 Key Usage: 
                Digital Signature
    Signature Algorithm: sha256WithRSAEncryption
         04:42:3f:33:75:17:70:5d:92:23:92:66:f4:79:68:a8:9b:a8:
         46:2b:84:8a:64:50:48:c8:fd:f7:7f:79:b2:e2:10:f8:9f:2a:
         01:7e:2b:97:f5:f2:73:e6:7e:6d:7b:11:1b:33:37:94:fe:4a:
         98:d3:4d:7e:86:3e:a7:93:63:bf:35:ef:02:d9:1f:45:13:55:
         d5:52:92:50:e8:61:ca:df:be:3a:0b:42:47:45:dc:04:56:8d:
         ba:22:d0:60:99:8a:41:32:37:1b:30:21:94:99:05:da:c7:ad:
         cb:a8:06:64:90:3c:08:aa:8b:77:89:6a:11:44:17:4d:f3:58:
         98:20:32:db:98:24:10:29:ab:19:9b:67:72:eb:02:87:93:9d:
         3c:39:88:42:e6:60:7c:a6:c9:99:c0:92:28:37:86:a0:c5:2d:
         8b:5e:58:19:2e:ac:b1:8c:9a:f4:fa:69:9b:dc:8f:87:07:cf:
         2b:a2:ab:78:9e:0f:59:92:ce:40:df:11:0b:4e:8d:c6:3a:33:
         af:92:18:95:0f:45:48:dd:02:72:dc:ba:8b:5c:7a:01:fe:c4:
         e5:bc:02:47:6b:5b:aa:7f:28:b9:21:43:94:c1:01:de:ea:c0:
         cf:ca:ea:7d:b9:16:51:32:4b:b5:1e:c4:5d:ba:a1:6d:f9:f1:
         98:76:fe:e4
-----BEGIN CERTIFICATE-----
MIIDXDCCAkSgAwIBAgIQYqJccF0313J4mSitEb4O+jANBgkqhkiG9w0BAQsFADAW
MRQwEgYDVQQDDAt0ZWFtNjAwLW5ldDAeFw0yMTA5MTMwNDE4MTJaFw0yNDA4Mjgw
NDE4MTJaMBkxFzAVBgNVBAMMDnRlYW02MDAtY2xpZW50MIIBIjANBgkqhkiG9w0B
AQEFAAOCAQ8AMIIBCgKCAQEAw6wzyUp+E5qNVlpnlPEoN2t2khVcus9WBXnHOcuX
NHZYnoga+N5ZRE3S2fl12b7mHS/1LzABfG9C6dsyjmO6zpi8ufx8ozGgcInZGb4i
pFspFiV3OHCiS95cmE8rJk4bFEAgx1F/41uY8tIhWlR9QSIK06vAKoKkzUc/DWoa
5/nz9gSjT8O3PzkaiOEx5ZFARi8wwbB1IlYZE6+1H2ezwH6KllFk4PTo7xgRz5cz
jSDixV/vd6wFe8tBrp9KpjsNNPJSYfe6ODS5oLLjuTD5m6C6HSDkc7iU5lOlEmBI
zeh73j/YVR2oDL0+y+5X4kBRGqMVCrGAmoIT4s1Mu+NL5wIDAQABo4GiMIGfMAkG
A1UdEwQCMAAwHQYDVR0OBBYEFExzP4rTZ75sLQtnYL6FGY1Xk/u3MFEGA1UdIwRK
MEiAFK5CKyg0to+tpzAGJcuSn/7wyxppoRqkGDAWMRQwEgYDVQQDDAt0ZWFtNjAw
LW5ldIIUbJNbmgZeGqC02eZ+v5GOKkVcbyMwEwYDVR0lBAwwCgYIKwYBBQUHAwIw
CwYDVR0PBAQDAgeAMA0GCSqGSIb3DQEBCwUAA4IBAQAEQj8zdRdwXZIjkmb0eWio
m6hGK4SKZFBIyP33f3my4hD4nyoBfiuX9fJz5n5texEbMzeU/kqY001+hj6nk2O/
Ne8C2R9FE1XVUpJQ6GHK3746C0JHRdwEVo26ItBgmYpBMjcbMCGUmQXax63LqAZk
kDwIqot3iWoRRBdN81iYIDLbmCQQKasZm2dy6wKHk508OYhC5mB8psmZwJIoN4ag
xS2LXlgZLqyxjJr0+mmb3I+HB88roqt4ng9Zks5A3xELTo3GOjOvkhiVD0VI3QJy
3LqLXHoB/sTlvAJHa1uqfyi5IUOUwQHe6sDPyup9uRZRMku1HsRduqFt+fGYdv7k
-----END CERTIFICATE-----
