Certificate:
    Data:
        Version: 3 (0x2)
        Serial Number:
            c4:88:6a:bf:90:98:c4:19:b5:f7:d8:04:29:54:43:f3
        Signature Algorithm: sha256WithRSAEncryption
        Issuer: CN=team639-net
        Validity
            Not Before: Sep 13 04:18:34 2021 GMT
            Not After : Aug 28 04:18:34 2024 GMT
        Subject: CN=team639-server
        Subject Public Key Info:
            Public Key Algorithm: rsaEncryption
                RSA Public-Key: (2048 bit)
                Modulus:
                    00:c3:6e:ef:b4:5c:0b:90:31:a0:79:84:c4:3c:77:
                    74:b9:bc:37:f7:1f:83:0c:34:07:d2:8f:df:0b:76:
                    46:ba:dc:65:d7:24:30:3d:6c:83:16:29:7f:19:8e:
                    4f:bb:e2:93:d3:38:57:8c:92:77:0f:43:3e:f5:92:
                    5a:ac:a2:95:d1:8b:04:bb:fb:2e:00:a6:cd:85:aa:
                    c5:2d:1d:a7:f5:f7:65:8c:b1:27:ec:4b:3f:56:0d:
                    9a:89:1b:d6:f2:a8:b7:59:e5:e9:6b:5d:2b:3b:c6:
                    a0:0c:b4:3b:d5:9f:7d:b5:b9:81:07:44:39:5d:e8:
                    38:a6:86:65:b7:2c:eb:aa:ff:1a:21:ce:98:5f:7f:
                    5d:f9:6e:88:3f:ed:b2:f3:40:e9:73:27:36:2b:5d:
                    53:d0:a0:72:0f:28:18:d1:3c:41:79:fb:0d:1e:47:
                    9b:56:bb:b3:03:d7:ef:7d:70:74:35:8f:b1:e2:d2:
                    d7:6b:9e:c4:22:3f:26:61:ac:12:a4:68:70:b2:f6:
                    0b:1f:fd:01:62:a1:27:c9:dc:7f:a1:04:48:9b:ea:
                    5d:be:45:73:ab:2c:0d:1e:79:87:08:fd:bc:80:8f:
                    c1:b7:b5:7a:ed:86:0b:56:6d:54:60:00:8e:a2:56:
                    cf:bd:da:68:87:90:44:1a:98:fc:3c:77:f2:d8:55:
                    bb:1b
                Exponent: 65537 (0x10001)
        X509v3 extensions:
            X509v3 Basic Constraints: 
                CA:FALSE
            X509v3 Subject Key Identifier: 
                61:7E:2E:14:C7:58:D3:6E:CF:41:6F:F5:EE:3D:3C:83:2C:75:ED:0C
            X509v3 Authority Key Identifier: 
                keyid:26:6D:82:59:46:86:D4:0A:CB:43:61:F5:D1:DB:E3:11:01:3E:9C:BC
                DirName:/CN=team639-net
                serial:4A:0B:78:36:E7:43:95:98:B2:18:AF:0F:B7:EE:25:00:29:B6:08:CF

            X509v3 Extended Key Usage: 
                TLS Web Server Authentication
            X509v3 Key Usage: 
                Digital Signature, Key Encipherment
            X509v3 Subject Alternative Name: 
                DNS:team639-server
    Signature Algorithm: sha256WithRSAEncryption
         91:b6:42:f3:25:10:eb:95:0e:5d:58:e2:ff:25:27:d2:f3:7d:
         43:2d:53:bf:ff:e7:90:b7:58:68:ac:2b:66:ea:bd:9f:5a:b1:
         88:70:94:e8:a3:71:00:ae:a3:08:b5:49:ff:33:71:d8:30:e4:
         47:d3:49:76:51:e6:fd:d4:42:aa:36:a2:8d:a2:9c:0f:d0:12:
         94:b6:5f:b9:0c:23:4e:d1:ec:03:36:d7:c8:b0:a4:7d:3d:d5:
         14:77:7d:f2:9a:3c:da:d1:1b:a9:df:bd:6f:46:e6:f3:a5:c5:
         c8:9f:b1:51:c7:57:f1:68:df:0c:c3:ee:99:ff:00:eb:0c:39:
         cf:e9:68:d5:c3:3e:12:b3:78:07:75:17:56:23:fb:21:0e:38:
         0c:b7:ee:2b:64:dc:f4:4f:95:0f:c3:58:8d:4c:a1:33:dc:c6:
         25:60:1d:72:44:86:be:6f:7a:25:9b:7c:0e:a1:db:84:f8:dd:
         18:fe:92:87:7a:e7:81:a5:f9:eb:64:bf:82:d6:ea:64:89:46:
         b0:27:85:e1:a3:93:a0:2b:d9:d2:d5:db:d3:19:2f:8d:83:8e:
         50:9b:91:97:3d:a2:4f:e9:6a:e6:28:d1:6e:2f:f3:08:be:34:
         83:1f:b3:19:aa:3e:52:5d:da:7c:c1:83:36:ed:a5:87:a8:61:
         b0:38:bd:da
-----BEGIN CERTIFICATE-----
MIIDeDCCAmCgAwIBAgIRAMSIar+QmMQZtffYBClUQ/MwDQYJKoZIhvcNAQELBQAw
FjEUMBIGA1UEAwwLdGVhbTYzOS1uZXQwHhcNMjEwOTEzMDQxODM0WhcNMjQwODI4
MDQxODM0WjAZMRcwFQYDVQQDDA50ZWFtNjM5LXNlcnZlcjCCASIwDQYJKoZIhvcN
AQEBBQADggEPADCCAQoCggEBAMNu77RcC5AxoHmExDx3dLm8N/cfgww0B9KP3wt2
RrrcZdckMD1sgxYpfxmOT7vik9M4V4ySdw9DPvWSWqyildGLBLv7LgCmzYWqxS0d
p/X3ZYyxJ+xLP1YNmokb1vKot1nl6WtdKzvGoAy0O9WffbW5gQdEOV3oOKaGZbcs
66r/GiHOmF9/XfluiD/tsvNA6XMnNitdU9Cgcg8oGNE8QXn7DR5Hm1a7swPX731w
dDWPseLS12uexCI/JmGsEqRocLL2Cx/9AWKhJ8ncf6EESJvqXb5Fc6ssDR55hwj9
vICPwbe1eu2GC1ZtVGAAjqJWz73aaIeQRBqY/Dx38thVuxsCAwEAAaOBvTCBujAJ
BgNVHRMEAjAAMB0GA1UdDgQWBBRhfi4Ux1jTbs9Bb/XuPTyDLHXtDDBRBgNVHSME
SjBIgBQmbYJZRobUCstDYfXR2+MRAT6cvKEapBgwFjEUMBIGA1UEAwwLdGVhbTYz
OS1uZXSCFEoLeDbnQ5WYshivD7fuJQAptgjPMBMGA1UdJQQMMAoGCCsGAQUFBwMB
MAsGA1UdDwQEAwIFoDAZBgNVHREEEjAQgg50ZWFtNjM5LXNlcnZlcjANBgkqhkiG
9w0BAQsFAAOCAQEAkbZC8yUQ65UOXVji/yUn0vN9Qy1Tv//nkLdYaKwrZuq9n1qx
iHCU6KNxAK6jCLVJ/zNx2DDkR9NJdlHm/dRCqjaijaKcD9ASlLZfuQwjTtHsAzbX
yLCkfT3VFHd98po82tEbqd+9b0bm86XFyJ+xUcdX8WjfDMPumf8A6ww5z+lo1cM+
ErN4B3UXViP7IQ44DLfuK2Tc9E+VD8NYjUyhM9zGJWAdckSGvm96JZt8DqHbhPjd
GP6Sh3rngaX562S/gtbqZIlGsCeF4aOToCvZ0tXb0xkvjYOOUJuRlz2iT+lq5ijR
bi/zCL40gx+zGao+Ul3afMGDNu2lh6hhsDi92g==
-----END CERTIFICATE-----
