Certificate:
    Data:
        Version: 3 (0x2)
        Serial Number:
            e7:d5:72:9b:46:1b:82:1c:23:59:60:b3:99:e5:76:74
        Signature Algorithm: sha256WithRSAEncryption
        Issuer: CN=team594-net
        Validity
            Not Before: Sep 13 03:59:36 2021 GMT
            Not After : Aug 28 03:59:36 2024 GMT
        Subject: CN=team594-client
        Subject Public Key Info:
            Public Key Algorithm: rsaEncryption
                RSA Public-Key: (2048 bit)
                Modulus:
                    00:ce:9e:8f:ca:ab:50:38:4c:f6:e7:8e:ba:fd:a6:
                    d0:85:db:cc:3c:4b:cc:6e:c7:df:bc:b7:46:eb:99:
                    0c:88:63:24:01:ac:fc:7e:7c:23:67:e0:a6:1c:c8:
                    41:0e:65:ad:e2:46:7b:8e:d9:e8:e3:37:7f:41:5a:
                    0c:26:1e:46:37:68:23:00:b8:e9:92:bb:84:ba:3d:
                    54:e6:6b:e0:79:e9:82:d0:74:b9:49:b9:25:90:fb:
                    29:e8:cb:c6:ae:78:8a:f9:96:59:17:53:fe:8b:32:
                    40:cb:ab:d5:11:fa:92:4e:eb:51:e1:18:af:38:54:
                    07:53:00:d8:35:37:65:96:c0:13:b9:a6:6e:36:dd:
                    1a:9a:10:63:4f:b5:95:f3:6b:2d:e9:06:f5:31:6d:
                    65:70:52:17:29:86:96:5c:6e:50:c5:d9:19:87:ce:
                    03:2d:e0:c0:96:b7:cc:63:3c:74:17:ea:65:d6:f7:
                    ea:29:ae:4d:94:9b:5b:eb:a2:57:9e:e4:39:97:b7:
                    86:37:15:bd:f7:02:97:30:2a:ba:21:93:d5:ce:e8:
                    a9:0e:8e:57:1e:85:ad:aa:27:45:b6:9f:00:a6:b8:
                    ca:6f:75:3a:44:13:87:ad:b5:bc:50:24:90:5a:08:
                    a0:a5:27:be:46:28:ac:ab:59:7b:fe:71:0f:8f:9e:
                    00:25
                Exponent: 65537 (0x10001)
        X509v3 extensions:
            X509v3 Basic Constraints: 
                CA:FALSE
            X509v3 Subject Key Identifier: 
                20:FF:EC:97:6C:F7:F3:60:C0:BC:8C:53:5E:EB:25:F7:77:7A:91:2A
            X509v3 Authority Key Identifier: 
                keyid:4A:FE:D3:80:68:7E:08:73:5D:83:58:7A:13:48:0A:8B:A4:80:47:B5
                DirName:/CN=team594-net
                serial:47:B9:32:F7:E6:A3:76:A5:67:CF:86:17:BF:70:05:99:C7:0C:54:44

            X509v3 Extended Key Usage: 
                TLS Web Client Authentication
            X509v3 Key Usage: 
                Digital Signature
    Signature Algorithm: sha256WithRSAEncryption
         31:5c:e7:00:31:a9:0c:24:ad:8d:54:a2:9d:4d:b2:e4:c7:67:
         3e:0d:95:be:3b:56:d6:7c:17:03:54:ad:dc:21:88:04:35:02:
         89:37:a3:1c:c0:33:83:46:da:16:7b:54:71:6a:9d:62:97:24:
         38:1c:1d:55:c7:c6:6b:de:76:36:fe:77:c1:2e:14:61:84:c5:
         0b:54:4d:dc:c7:08:78:10:ee:f3:51:b6:e5:ef:20:e8:ed:f0:
         2a:d9:a6:4b:9e:38:f5:a5:9e:27:c3:35:a7:e8:ee:54:4a:d9:
         f2:af:57:d6:f1:70:61:e4:98:05:8a:22:42:08:48:40:89:55:
         3a:bd:a0:f7:28:06:6f:46:6d:5a:f9:36:ce:2c:5a:c6:f6:bf:
         68:5f:0f:18:9f:ce:f6:a4:d8:11:e9:0d:ef:cd:f6:ef:50:f4:
         5b:3f:ec:ee:7b:cd:f2:9f:7e:4c:a1:37:e0:85:02:36:92:58:
         87:97:8a:3e:93:30:5f:52:2b:a2:98:f0:97:67:bc:88:be:b7:
         b2:0a:fa:d0:2c:c9:6d:9a:88:9a:a9:52:b7:10:8b:5f:66:4c:
         36:1c:1d:b5:83:10:97:87:f2:d8:a0:af:71:7d:11:a6:69:70:
         38:2e:6b:8a:49:80:95:a9:79:75:31:59:34:cc:a5:09:08:a9:
         9d:30:bd:62
-----BEGIN CERTIFICATE-----
MIIDXTCCAkWgAwIBAgIRAOfVcptGG4IcI1lgs5nldnQwDQYJKoZIhvcNAQELBQAw
FjEUMBIGA1UEAwwLdGVhbTU5NC1uZXQwHhcNMjEwOTEzMDM1OTM2WhcNMjQwODI4
MDM1OTM2WjAZMRcwFQYDVQQDDA50ZWFtNTk0LWNsaWVudDCCASIwDQYJKoZIhvcN
AQEBBQADggEPADCCAQoCggEBAM6ej8qrUDhM9ueOuv2m0IXbzDxLzG7H37y3RuuZ
DIhjJAGs/H58I2fgphzIQQ5lreJGe47Z6OM3f0FaDCYeRjdoIwC46ZK7hLo9VOZr
4HnpgtB0uUm5JZD7KejLxq54ivmWWRdT/osyQMur1RH6kk7rUeEYrzhUB1MA2DU3
ZZbAE7mmbjbdGpoQY0+1lfNrLekG9TFtZXBSFymGllxuUMXZGYfOAy3gwJa3zGM8
dBfqZdb36imuTZSbW+uiV57kOZe3hjcVvfcClzAquiGT1c7oqQ6OVx6FraonRbaf
AKa4ym91OkQTh621vFAkkFoIoKUnvkYorKtZe/5xD4+eACUCAwEAAaOBojCBnzAJ
BgNVHRMEAjAAMB0GA1UdDgQWBBQg/+yXbPfzYMC8jFNe6yX3d3qRKjBRBgNVHSME
SjBIgBRK/tOAaH4Ic12DWHoTSAqLpIBHtaEapBgwFjEUMBIGA1UEAwwLdGVhbTU5
NC1uZXSCFEe5Mvfmo3alZ8+GF79wBZnHDFREMBMGA1UdJQQMMAoGCCsGAQUFBwMC
MAsGA1UdDwQEAwIHgDANBgkqhkiG9w0BAQsFAAOCAQEAMVznADGpDCStjVSinU2y
5MdnPg2VvjtW1nwXA1St3CGIBDUCiTejHMAzg0baFntUcWqdYpckOBwdVcfGa952
Nv53wS4UYYTFC1RN3McIeBDu81G25e8g6O3wKtmmS5449aWeJ8M1p+juVErZ8q9X
1vFwYeSYBYoiQghIQIlVOr2g9ygGb0ZtWvk2zixaxva/aF8PGJ/O9qTYEekN7832
71D0Wz/s7nvN8p9+TKE34IUCNpJYh5eKPpMwX1Iropjwl2e8iL63sgr60CzJbZqI
mqlStxCLX2ZMNhwdtYMQl4fy2KCvcX0RpmlwOC5rikmAlal5dTFZNMylCQipnTC9
Yg==
-----END CERTIFICATE-----
