Certificate:
    Data:
        Version: 3 (0x2)
        Serial Number:
            f1:da:dc:18:f6:6e:f1:bf:54:96:31:25:02:34:fa:6a
        Signature Algorithm: sha256WithRSAEncryption
        Issuer: CN=team521-net
        Validity
            Not Before: Sep 13 03:17:14 2021 GMT
            Not After : Aug 28 03:17:14 2024 GMT
        Subject: CN=team521-server
        Subject Public Key Info:
            Public Key Algorithm: rsaEncryption
                RSA Public-Key: (2048 bit)
                Modulus:
                    00:e0:8e:1f:df:98:60:8b:9f:38:2c:90:eb:13:61:
                    f5:b8:50:57:7a:a8:65:15:1e:d5:5f:4e:9a:5d:a8:
                    87:d2:74:b1:99:47:e2:82:e2:89:9b:1e:ce:50:db:
                    08:e5:bb:ee:4d:2c:85:21:93:2c:06:b6:c4:53:19:
                    14:5c:02:71:9b:2f:37:47:26:0b:93:33:39:34:c3:
                    a6:83:cb:2a:98:c3:20:17:e0:46:11:fd:82:b9:b1:
                    e5:a9:6d:ae:dd:c3:45:f8:e7:a1:29:00:a0:26:41:
                    45:1d:b2:42:fb:90:e0:5a:9b:dd:1d:36:64:64:fb:
                    70:6f:9c:1b:a2:36:6d:81:83:30:a6:07:07:a9:9c:
                    ce:b5:b0:c8:31:57:e9:86:d6:c6:3a:1f:d5:58:be:
                    80:cc:b9:28:c9:8e:d0:c1:94:44:ab:5c:98:69:d6:
                    22:3c:48:0b:6f:53:1c:3e:ae:08:1b:56:19:af:72:
                    f5:94:69:8a:72:fa:07:72:e3:ab:89:02:10:b2:02:
                    f4:10:83:39:6e:f3:4b:6d:5a:cd:56:03:14:92:ce:
                    19:85:42:b3:a8:50:cd:88:83:00:9d:e8:40:c2:28:
                    c2:3e:8d:ba:0b:f4:1b:78:af:4d:02:52:25:f7:11:
                    36:b2:cc:51:98:d8:de:16:8b:c8:87:e7:c4:21:20:
                    89:11
                Exponent: 65537 (0x10001)
        X509v3 extensions:
            X509v3 Basic Constraints: 
                CA:FALSE
            X509v3 Subject Key Identifier: 
                D1:5A:16:40:EF:56:C3:AE:B9:EB:0F:B5:96:98:5F:69:34:D9:D1:6D
            X509v3 Authority Key Identifier: 
                keyid:FE:C8:90:4E:A5:3D:33:74:44:87:1A:33:29:D9:98:91:57:9F:BC:95
                DirName:/CN=team521-net
                serial:26:9A:7F:C1:69:7A:30:FB:9A:7E:F3:6C:8F:EC:E9:BE:DF:1D:2B:3F

            X509v3 Extended Key Usage: 
                TLS Web Server Authentication
            X509v3 Key Usage: 
                Digital Signature, Key Encipherment
            X509v3 Subject Alternative Name: 
                DNS:team521-server
    Signature Algorithm: sha256WithRSAEncryption
         be:72:20:eb:a9:50:d3:87:9b:95:65:ea:6e:b4:17:8f:cb:bd:
         d2:cd:32:fe:90:59:d0:fe:b1:08:13:ac:37:a8:b9:61:1a:30:
         53:6d:4a:3f:31:fd:9b:af:7a:88:1e:31:6b:0f:d7:dd:37:ce:
         99:bc:0d:1b:b8:dc:23:de:8c:43:dd:9f:84:79:75:88:e1:6f:
         4b:9b:17:b6:35:0a:64:a6:40:74:73:90:fe:a7:71:7f:44:55:
         db:eb:a0:d9:5e:27:53:d1:69:d5:9a:5f:4d:0e:fc:60:4d:50:
         85:33:4d:1a:9b:2a:73:f8:4f:ce:13:02:be:f8:3c:1e:0a:ec:
         00:a4:ba:7f:3c:68:de:4c:c1:9a:92:bc:47:d6:34:8f:ba:ea:
         a3:d6:49:91:fa:bd:6c:99:58:be:92:24:46:06:a4:da:66:a8:
         9e:7c:d9:2b:8c:b7:1f:ff:f4:14:e2:0a:18:bd:53:ff:ae:7a:
         70:41:20:b5:89:84:43:03:25:f5:eb:64:67:47:cd:e0:f3:90:
         a3:89:33:64:84:31:c7:d4:9d:d2:89:43:cb:82:da:4e:84:e1:
         45:9a:43:14:d1:54:91:c9:b4:15:38:81:8e:ac:9f:5f:b4:37:
         7c:88:1d:5e:80:b8:ed:04:56:95:78:bc:7c:9a:0d:ea:d8:38:
         c2:dd:e9:13
-----BEGIN CERTIFICATE-----
MIIDeDCCAmCgAwIBAgIRAPHa3Bj2bvG/VJYxJQI0+mowDQYJKoZIhvcNAQELBQAw
FjEUMBIGA1UEAwwLdGVhbTUyMS1uZXQwHhcNMjEwOTEzMDMxNzE0WhcNMjQwODI4
MDMxNzE0WjAZMRcwFQYDVQQDDA50ZWFtNTIxLXNlcnZlcjCCASIwDQYJKoZIhvcN
AQEBBQADggEPADCCAQoCggEBAOCOH9+YYIufOCyQ6xNh9bhQV3qoZRUe1V9Oml2o
h9J0sZlH4oLiiZsezlDbCOW77k0shSGTLAa2xFMZFFwCcZsvN0cmC5MzOTTDpoPL
KpjDIBfgRhH9grmx5altrt3DRfjnoSkAoCZBRR2yQvuQ4Fqb3R02ZGT7cG+cG6I2
bYGDMKYHB6mczrWwyDFX6YbWxjof1Vi+gMy5KMmO0MGURKtcmGnWIjxIC29THD6u
CBtWGa9y9ZRpinL6B3Ljq4kCELIC9BCDOW7zS21azVYDFJLOGYVCs6hQzYiDAJ3o
QMIowj6Nugv0G3ivTQJSJfcRNrLMUZjY3haLyIfnxCEgiRECAwEAAaOBvTCBujAJ
BgNVHRMEAjAAMB0GA1UdDgQWBBTRWhZA71bDrrnrD7WWmF9pNNnRbTBRBgNVHSME
SjBIgBT+yJBOpT0zdESHGjMp2ZiRV5+8laEapBgwFjEUMBIGA1UEAwwLdGVhbTUy
MS1uZXSCFCaaf8FpejD7mn7zbI/s6b7fHSs/MBMGA1UdJQQMMAoGCCsGAQUFBwMB
MAsGA1UdDwQEAwIFoDAZBgNVHREEEjAQgg50ZWFtNTIxLXNlcnZlcjANBgkqhkiG
9w0BAQsFAAOCAQEAvnIg66lQ04eblWXqbrQXj8u90s0y/pBZ0P6xCBOsN6i5YRow
U21KPzH9m696iB4xaw/X3TfOmbwNG7jcI96MQ92fhHl1iOFvS5sXtjUKZKZAdHOQ
/qdxf0RV2+ug2V4nU9Fp1ZpfTQ78YE1QhTNNGpsqc/hPzhMCvvg8HgrsAKS6fzxo
3kzBmpK8R9Y0j7rqo9ZJkfq9bJlYvpIkRgak2maonnzZK4y3H//0FOIKGL1T/656
cEEgtYmEQwMl9etkZ0fN4POQo4kzZIQxx9Sd0olDy4LaToThRZpDFNFUkcm0FTiB
jqyfX7Q3fIgdXoC47QRWlXi8fJoN6tg4wt3pEw==
-----END CERTIFICATE-----
