Certificate:
    Data:
        Version: 3 (0x2)
        Serial Number:
            80:bb:6d:76:ac:fc:d2:e5:df:4a:6e:a3:f8:63:00:4e
        Signature Algorithm: sha256WithRSAEncryption
        Issuer: CN=team566-net
        Validity
            Not Before: Sep 13 03:38:24 2021 GMT
            Not After : Aug 28 03:38:24 2024 GMT
        Subject: CN=team566-server
        Subject Public Key Info:
            Public Key Algorithm: rsaEncryption
                RSA Public-Key: (2048 bit)
                Modulus:
                    00:f4:e2:00:7b:63:11:71:6d:4f:42:1a:ae:c9:3f:
                    7a:c6:61:13:92:b0:35:ab:2f:54:c3:f9:35:2c:12:
                    4b:03:c5:bc:13:9e:b9:2b:77:5f:0b:98:45:e0:fc:
                    6f:c6:1c:f0:4b:43:82:75:17:1d:a0:58:ea:77:37:
                    1d:e8:a3:db:0a:e2:b4:97:0f:80:05:08:e9:71:57:
                    ad:bd:f5:b9:a0:9c:be:99:3e:06:3b:20:5c:13:d6:
                    c5:9b:45:2b:bb:37:3c:c4:44:a1:fd:c4:9e:33:a7:
                    b6:c5:21:32:7c:17:7a:25:c4:6e:c1:76:a0:3d:db:
                    ec:89:19:f1:82:0a:77:9a:10:99:9f:04:47:a7:4c:
                    34:82:06:96:32:17:3c:65:20:39:cf:39:e6:4f:34:
                    26:1f:6e:26:f8:ec:35:f8:8a:9a:ac:99:f0:79:90:
                    87:ba:0a:31:72:8b:01:74:e5:be:bb:a4:c6:e1:8e:
                    09:0c:74:10:38:f6:d8:35:44:62:02:51:1d:87:28:
                    93:48:19:67:df:c0:97:ca:c9:6f:dc:cc:85:25:ae:
                    a7:48:88:17:6a:ef:c9:64:5b:be:bd:37:51:56:86:
                    27:ad:68:f3:1a:cf:9e:cc:cd:10:0f:e0:e6:f2:22:
                    2c:e2:52:d9:ee:d3:42:f6:a8:78:a7:e7:13:8d:78:
                    17:d1
                Exponent: 65537 (0x10001)
        X509v3 extensions:
            X509v3 Basic Constraints: 
                CA:FALSE
            X509v3 Subject Key Identifier: 
                10:0D:43:C1:27:F9:86:F0:85:2B:8B:CA:D0:98:E8:22:5F:84:CB:8F
            X509v3 Authority Key Identifier: 
                keyid:66:74:B8:C4:82:5F:41:6D:E4:63:A1:7D:05:B5:7D:3D:F9:9C:58:4A
                DirName:/CN=team566-net
                serial:60:4F:D1:54:8C:0B:D5:16:62:8D:A6:07:4F:58:59:50:C2:96:8F:3C

            X509v3 Extended Key Usage: 
                TLS Web Server Authentication
            X509v3 Key Usage: 
                Digital Signature, Key Encipherment
            X509v3 Subject Alternative Name: 
                DNS:team566-server
    Signature Algorithm: sha256WithRSAEncryption
         37:33:c0:2a:78:c9:a6:cc:28:7e:66:87:39:53:b1:56:15:cf:
         a0:3e:76:da:40:f1:c1:14:83:e1:3e:01:e1:77:dc:af:ac:59:
         7f:18:f7:65:0c:df:6d:02:67:11:6b:0a:05:68:79:9c:f9:0e:
         51:6d:24:a7:91:09:bd:3a:68:87:80:e2:3f:82:2d:45:f0:3a:
         15:c1:ab:0c:16:38:55:c9:d6:0b:37:47:64:05:dc:53:92:bd:
         de:a3:80:a7:a0:dd:d8:da:6a:a2:23:a9:5c:68:fa:f2:69:96:
         cb:cc:cf:dd:9a:85:b8:97:b5:31:04:a9:68:f7:a1:22:a8:ac:
         da:f6:43:77:fa:b7:b6:5d:8e:60:9e:b5:dd:0f:a2:32:6b:b1:
         3f:ae:41:42:26:32:94:5c:92:06:81:2f:90:44:8c:3b:9b:3f:
         4e:44:0e:c4:6b:a0:59:ab:fb:c4:10:13:f3:a9:37:02:8b:1e:
         a5:d5:f2:0a:14:48:e6:d1:a2:fc:5e:c6:92:f9:9b:70:61:a3:
         7d:42:35:bf:79:30:07:c3:09:39:ac:61:3e:5d:df:0e:84:55:
         0b:e6:7e:98:8e:10:a7:f6:5f:15:24:89:e6:12:b8:f1:42:ac:
         1e:0b:ba:30:e3:86:a9:f1:42:a9:a9:65:cb:3c:26:24:2c:81:
         4d:c1:af:cc
-----BEGIN CERTIFICATE-----
MIIDeDCCAmCgAwIBAgIRAIC7bXas/NLl30puo/hjAE4wDQYJKoZIhvcNAQELBQAw
FjEUMBIGA1UEAwwLdGVhbTU2Ni1uZXQwHhcNMjEwOTEzMDMzODI0WhcNMjQwODI4
MDMzODI0WjAZMRcwFQYDVQQDDA50ZWFtNTY2LXNlcnZlcjCCASIwDQYJKoZIhvcN
AQEBBQADggEPADCCAQoCggEBAPTiAHtjEXFtT0Iarsk/esZhE5KwNasvVMP5NSwS
SwPFvBOeuSt3XwuYReD8b8Yc8EtDgnUXHaBY6nc3Heij2writJcPgAUI6XFXrb31
uaCcvpk+BjsgXBPWxZtFK7s3PMREof3EnjOntsUhMnwXeiXEbsF2oD3b7IkZ8YIK
d5oQmZ8ER6dMNIIGljIXPGUgOc855k80Jh9uJvjsNfiKmqyZ8HmQh7oKMXKLAXTl
vrukxuGOCQx0EDj22DVEYgJRHYcok0gZZ9/Al8rJb9zMhSWup0iIF2rvyWRbvr03
UVaGJ61o8xrPnszNEA/g5vIiLOJS2e7TQvaoeKfnE414F9ECAwEAAaOBvTCBujAJ
BgNVHRMEAjAAMB0GA1UdDgQWBBQQDUPBJ/mG8IUri8rQmOgiX4TLjzBRBgNVHSME
SjBIgBRmdLjEgl9BbeRjoX0FtX09+ZxYSqEapBgwFjEUMBIGA1UEAwwLdGVhbTU2
Ni1uZXSCFGBP0VSMC9UWYo2mB09YWVDClo88MBMGA1UdJQQMMAoGCCsGAQUFBwMB
MAsGA1UdDwQEAwIFoDAZBgNVHREEEjAQgg50ZWFtNTY2LXNlcnZlcjANBgkqhkiG
9w0BAQsFAAOCAQEANzPAKnjJpswofmaHOVOxVhXPoD522kDxwRSD4T4B4Xfcr6xZ
fxj3ZQzfbQJnEWsKBWh5nPkOUW0kp5EJvTpoh4DiP4ItRfA6FcGrDBY4VcnWCzdH
ZAXcU5K93qOAp6Dd2NpqoiOpXGj68mmWy8zP3ZqFuJe1MQSpaPehIqis2vZDd/q3
tl2OYJ613Q+iMmuxP65BQiYylFySBoEvkESMO5s/TkQOxGugWav7xBAT86k3Aose
pdXyChRI5tGi/F7GkvmbcGGjfUI1v3kwB8MJOaxhPl3fDoRVC+Z+mI4Qp/ZfFSSJ
5hK48UKsHgu6MOOGqfFCqallyzwmJCyBTcGvzA==
-----END CERTIFICATE-----
