Certificate:
    Data:
        Version: 3 (0x2)
        Serial Number:
            e0:86:83:d2:44:74:42:eb:3a:78:71:c4:6c:a6:07:b6
        Signature Algorithm: sha256WithRSAEncryption
        Issuer: CN=team742-net
        Validity
            Not Before: Sep 13 05:08:19 2021 GMT
            Not After : Aug 28 05:08:19 2024 GMT
        Subject: CN=team742-server
        Subject Public Key Info:
            Public Key Algorithm: rsaEncryption
                RSA Public-Key: (2048 bit)
                Modulus:
                    00:b1:f2:1e:ce:5c:54:8f:e1:2b:5a:c3:79:69:ca:
                    d4:4f:14:5e:85:33:74:31:bf:ff:d2:da:27:85:b7:
                    0b:0e:28:f8:ca:7c:bc:e8:d5:49:f2:3b:5c:f5:fd:
                    23:56:52:a7:5c:09:b5:f9:a1:a6:97:28:7f:ec:f1:
                    c7:42:75:f4:73:9e:38:40:fd:a0:7c:30:8d:89:3e:
                    f2:b6:ec:cc:48:61:6f:2d:d1:4f:e5:48:ea:49:9d:
                    34:47:be:4f:a2:72:a7:fd:50:e7:57:26:5e:63:a9:
                    54:cb:31:00:8a:01:3e:cd:da:4b:b3:f4:88:74:75:
                    42:81:71:ca:23:35:88:d8:a0:c7:6c:a1:1b:21:8e:
                    6d:76:14:ba:35:e7:5f:d2:b8:1b:be:b9:37:f0:fe:
                    c2:e9:74:53:ee:a4:60:d2:07:27:c2:da:84:3c:bb:
                    12:17:dd:28:b2:57:e5:42:36:70:00:57:f3:22:f4:
                    c0:e8:86:20:3d:7b:ac:01:05:e1:99:de:3b:5e:68:
                    52:7e:8a:96:64:2d:12:25:e8:de:80:24:63:97:54:
                    eb:bb:f9:4f:7c:c8:27:63:f4:ab:fb:7c:71:d1:d7:
                    aa:17:8f:c8:f8:03:2b:fc:1a:b3:01:d8:f7:dc:e2:
                    66:c9:b6:1f:42:c6:b2:2b:35:94:2d:84:fe:2c:ed:
                    24:09
                Exponent: 65537 (0x10001)
        X509v3 extensions:
            X509v3 Basic Constraints: 
                CA:FALSE
            X509v3 Subject Key Identifier: 
                F3:08:F8:70:CD:48:B6:C2:21:C5:CD:E4:27:09:A0:9B:67:84:88:42
            X509v3 Authority Key Identifier: 
                keyid:88:53:5B:9D:D0:9A:FF:0F:24:92:85:AB:A5:CA:A3:CE:10:EE:65:E4
                DirName:/CN=team742-net
                serial:13:8B:64:87:DE:2A:ED:45:0D:BA:0D:A7:4C:C3:B5:A3:69:0B:1B:14

            X509v3 Extended Key Usage: 
                TLS Web Server Authentication
            X509v3 Key Usage: 
                Digital Signature, Key Encipherment
            X509v3 Subject Alternative Name: 
                DNS:team742-server
    Signature Algorithm: sha256WithRSAEncryption
         73:96:83:6e:fe:23:d6:8c:13:85:b0:6f:ed:01:a9:2b:10:ec:
         96:b9:7c:ca:d9:05:39:6f:de:13:bc:b8:62:20:f6:25:a1:01:
         fa:90:e1:f3:7a:3a:f2:a3:1b:ac:4a:93:36:2f:b0:47:44:c0:
         ea:48:d5:0a:29:30:07:7f:28:8b:4d:95:28:cf:6b:d2:eb:de:
         f8:83:5e:a5:94:4f:87:92:5c:e8:af:06:d6:97:05:17:98:e7:
         f0:24:36:9b:16:67:55:fb:6b:58:44:e6:5d:87:c3:c4:7c:9d:
         27:65:cd:ab:24:7b:b6:0a:d8:dc:b4:78:72:ba:f1:c0:f8:73:
         af:2d:46:90:98:05:1c:04:cf:a2:9c:7b:92:ad:de:c6:fd:29:
         9c:01:c8:9c:ff:dc:47:43:c1:72:26:07:85:30:f2:b9:9f:e0:
         2b:d6:b9:7d:8a:28:52:c6:31:62:5e:e4:19:a3:f6:70:2b:29:
         68:21:fe:04:f3:35:ac:03:13:a2:84:51:7a:34:98:e0:0a:8e:
         09:f1:87:61:3c:e0:f6:b9:6d:a1:0d:d5:52:9b:ef:d2:23:4f:
         8a:1f:7f:9a:dc:ee:e4:2b:16:31:eb:ec:65:1d:0f:d8:e1:e5:
         b0:37:31:8f:a9:30:cd:a6:60:2f:cc:f2:30:27:aa:35:6f:16:
         d2:cd:0b:6e
-----BEGIN CERTIFICATE-----
MIIDeDCCAmCgAwIBAgIRAOCGg9JEdELrOnhxxGymB7YwDQYJKoZIhvcNAQELBQAw
FjEUMBIGA1UEAwwLdGVhbTc0Mi1uZXQwHhcNMjEwOTEzMDUwODE5WhcNMjQwODI4
MDUwODE5WjAZMRcwFQYDVQQDDA50ZWFtNzQyLXNlcnZlcjCCASIwDQYJKoZIhvcN
AQEBBQADggEPADCCAQoCggEBALHyHs5cVI/hK1rDeWnK1E8UXoUzdDG//9LaJ4W3
Cw4o+Mp8vOjVSfI7XPX9I1ZSp1wJtfmhppcof+zxx0J19HOeOED9oHwwjYk+8rbs
zEhhby3RT+VI6kmdNEe+T6Jyp/1Q51cmXmOpVMsxAIoBPs3aS7P0iHR1QoFxyiM1
iNigx2yhGyGObXYUujXnX9K4G765N/D+wul0U+6kYNIHJ8LahDy7EhfdKLJX5UI2
cABX8yL0wOiGID17rAEF4ZneO15oUn6KlmQtEiXo3oAkY5dU67v5T3zIJ2P0q/t8
cdHXqhePyPgDK/waswHY99ziZsm2H0LGsis1lC2E/iztJAkCAwEAAaOBvTCBujAJ
BgNVHRMEAjAAMB0GA1UdDgQWBBTzCPhwzUi2wiHFzeQnCaCbZ4SIQjBRBgNVHSME
SjBIgBSIU1ud0Jr/DySShaulyqPOEO5l5KEapBgwFjEUMBIGA1UEAwwLdGVhbTc0
Mi1uZXSCFBOLZIfeKu1FDboNp0zDtaNpCxsUMBMGA1UdJQQMMAoGCCsGAQUFBwMB
MAsGA1UdDwQEAwIFoDAZBgNVHREEEjAQgg50ZWFtNzQyLXNlcnZlcjANBgkqhkiG
9w0BAQsFAAOCAQEAc5aDbv4j1owThbBv7QGpKxDslrl8ytkFOW/eE7y4YiD2JaEB
+pDh83o68qMbrEqTNi+wR0TA6kjVCikwB38oi02VKM9r0uve+INepZRPh5Jc6K8G
1pcFF5jn8CQ2mxZnVftrWETmXYfDxHydJ2XNqyR7tgrY3LR4crrxwPhzry1GkJgF
HATPopx7kq3exv0pnAHInP/cR0PBciYHhTDyuZ/gK9a5fYooUsYxYl7kGaP2cCsp
aCH+BPM1rAMTooRRejSY4AqOCfGHYTzg9rltoQ3VUpvv0iNPih9/mtzu5CsWMevs
ZR0P2OHlsDcxj6kwzaZgL8zyMCeqNW8W0s0Lbg==
-----END CERTIFICATE-----
