Certificate:
    Data:
        Version: 3 (0x2)
        Serial Number:
            48:2e:a5:ff:e0:70:68:96:b2:c4:72:8d:29:82:da:e0
        Signature Algorithm: sha256WithRSAEncryption
        Issuer: CN=team280-net
        Validity
            Not Before: Sep 13 01:19:53 2021 GMT
            Not After : Aug 28 01:19:53 2024 GMT
        Subject: CN=team280-client
        Subject Public Key Info:
            Public Key Algorithm: rsaEncryption
                RSA Public-Key: (2048 bit)
                Modulus:
                    00:ca:67:7d:be:cd:9d:13:cd:e7:84:29:31:a3:5f:
                    11:b6:64:0b:db:7b:7b:b1:64:75:4b:88:7e:73:1c:
                    61:3c:85:0e:41:ab:93:38:86:14:48:68:04:8a:52:
                    cf:8f:27:ce:96:be:51:5c:40:8a:25:c2:a4:c0:a3:
                    b4:a8:57:eb:e4:fd:8b:27:70:69:9e:42:56:43:21:
                    10:d3:58:c6:3d:f0:b7:f3:5a:32:6d:3c:3c:25:a5:
                    96:78:67:e5:0e:a8:09:cf:a9:49:b5:1f:cf:b7:c7:
                    87:67:b2:9d:45:12:aa:72:6f:22:bd:33:b0:0b:56:
                    28:b6:62:ee:62:15:82:bb:a8:ea:a4:34:58:e9:d8:
                    83:ea:ac:69:9b:17:ff:1f:38:a4:9f:c2:60:99:29:
                    3c:85:55:57:59:8b:8f:6a:92:23:72:2e:1a:e3:66:
                    27:4e:78:16:0b:92:27:68:69:61:73:95:eb:e9:34:
                    b5:3a:3c:c1:62:27:d9:bc:c8:d6:43:e7:dd:47:69:
                    ad:63:8c:bf:79:f3:1a:16:49:70:8c:f3:d0:81:69:
                    22:b7:13:62:97:f4:df:cc:f4:2f:f5:f1:08:56:38:
                    78:4e:10:02:4d:e4:68:8f:2a:b9:ff:30:17:a6:2d:
                    d2:ae:1b:18:5a:6b:c0:6a:0d:2f:1e:ae:28:f5:76:
                    bb:27
                Exponent: 65537 (0x10001)
        X509v3 extensions:
            X509v3 Basic Constraints: 
                CA:FALSE
            X509v3 Subject Key Identifier: 
                95:3B:8B:0B:C1:77:71:B6:C2:F2:02:EC:D8:14:98:0A:4A:5C:E5:A2
            X509v3 Authority Key Identifier: 
                keyid:E3:4C:6A:B3:8A:E7:F2:29:AF:7A:BB:6C:34:F7:4C:75:71:B0:7A:83
                DirName:/CN=team280-net
                serial:20:58:B6:2F:49:15:55:07:75:3D:82:B2:B5:7A:18:15:29:54:D0:6D

            X509v3 Extended Key Usage: 
                TLS Web Client Authentication
            X509v3 Key Usage: 
                Digital Signature
    Signature Algorithm: sha256WithRSAEncryption
         af:40:87:60:db:27:3f:e6:b6:92:2c:21:25:60:31:1e:8c:5f:
         cf:8a:e3:21:44:81:e6:2a:69:46:6b:92:b7:2e:cd:81:33:37:
         06:4a:ba:0b:f1:96:b7:ad:55:e4:02:b2:a4:c3:45:44:96:46:
         e5:46:e0:2e:3c:c4:c2:f0:42:0d:dd:11:05:7a:68:fb:95:76:
         83:20:aa:85:5f:92:61:dc:05:8b:f1:3e:d1:d9:0e:d0:30:83:
         b0:53:cc:a6:ac:52:f3:68:cf:81:2e:0e:b0:7b:2f:f4:a6:95:
         a0:a2:20:d3:79:8a:17:33:89:17:73:f4:b8:24:ec:60:94:d1:
         aa:44:05:bb:2b:13:d6:19:b5:72:97:c0:ee:99:21:5f:e2:cc:
         4b:07:88:ce:43:d2:b0:32:d3:76:95:ac:5c:eb:6c:6c:ca:7f:
         18:9e:a3:59:e8:e3:bb:a2:a9:b2:b2:f6:b4:cd:aa:d5:e9:a4:
         81:a2:27:d3:98:0c:de:e5:b2:0e:eb:36:7b:af:50:58:0b:01:
         0f:ef:59:77:d4:d1:04:30:e9:cd:98:42:ee:1c:18:76:01:ea:
         42:2c:67:b5:17:a8:67:a7:c0:b8:50:17:58:c9:9d:97:4a:1b:
         56:8d:d9:4b:cf:79:39:5a:3d:39:4e:a5:6d:b9:31:3f:f4:f2:
         82:1b:b3:2c
-----BEGIN CERTIFICATE-----
MIIDXDCCAkSgAwIBAgIQSC6l/+BwaJayxHKNKYLa4DANBgkqhkiG9w0BAQsFADAW
MRQwEgYDVQQDDAt0ZWFtMjgwLW5ldDAeFw0yMTA5MTMwMTE5NTNaFw0yNDA4Mjgw
MTE5NTNaMBkxFzAVBgNVBAMMDnRlYW0yODAtY2xpZW50MIIBIjANBgkqhkiG9w0B
AQEFAAOCAQ8AMIIBCgKCAQEAymd9vs2dE83nhCkxo18RtmQL23t7sWR1S4h+cxxh
PIUOQauTOIYUSGgEilLPjyfOlr5RXECKJcKkwKO0qFfr5P2LJ3BpnkJWQyEQ01jG
PfC381oybTw8JaWWeGflDqgJz6lJtR/Pt8eHZ7KdRRKqcm8ivTOwC1YotmLuYhWC
u6jqpDRY6diD6qxpmxf/Hzikn8JgmSk8hVVXWYuPapIjci4a42YnTngWC5InaGlh
c5Xr6TS1OjzBYifZvMjWQ+fdR2mtY4y/efMaFklwjPPQgWkitxNil/TfzPQv9fEI
Vjh4ThACTeRojyq5/zAXpi3SrhsYWmvAag0vHq4o9Xa7JwIDAQABo4GiMIGfMAkG
A1UdEwQCMAAwHQYDVR0OBBYEFJU7iwvBd3G2wvIC7NgUmApKXOWiMFEGA1UdIwRK
MEiAFONMarOK5/Ipr3q7bDT3THVxsHqDoRqkGDAWMRQwEgYDVQQDDAt0ZWFtMjgw
LW5ldIIUIFi2L0kVVQd1PYKytXoYFSlU0G0wEwYDVR0lBAwwCgYIKwYBBQUHAwIw
CwYDVR0PBAQDAgeAMA0GCSqGSIb3DQEBCwUAA4IBAQCvQIdg2yc/5raSLCElYDEe
jF/PiuMhRIHmKmlGa5K3Ls2BMzcGSroL8Za3rVXkArKkw0VElkblRuAuPMTC8EIN
3REFemj7lXaDIKqFX5Jh3AWL8T7R2Q7QMIOwU8ymrFLzaM+BLg6wey/0ppWgoiDT
eYoXM4kXc/S4JOxglNGqRAW7KxPWGbVyl8DumSFf4sxLB4jOQ9KwMtN2laxc62xs
yn8YnqNZ6OO7oqmysva0zarV6aSBoifTmAze5bIO6zZ7r1BYCwEP71l31NEEMOnN
mELuHBh2AepCLGe1F6hnp8C4UBdYyZ2XShtWjdlLz3k5Wj05TqVtuTE/9PKCG7Ms
-----END CERTIFICATE-----
