Certificate:
    Data:
        Version: 3 (0x2)
        Serial Number:
            b1:4a:e9:55:7f:7a:92:d0:fa:97:fe:1d:46:78:d0:0f
        Signature Algorithm: sha256WithRSAEncryption
        Issuer: CN=team280-net
        Validity
            Not Before: Sep 13 01:19:53 2021 GMT
            Not After : Aug 28 01:19:53 2024 GMT
        Subject: CN=team280-server
        Subject Public Key Info:
            Public Key Algorithm: rsaEncryption
                RSA Public-Key: (2048 bit)
                Modulus:
                    00:ce:3d:d3:e6:22:4f:32:f7:c5:f1:a6:b1:a5:24:
                    36:43:77:f7:77:bf:8c:b6:8f:f9:7c:97:72:52:e2:
                    86:d0:c7:0a:84:53:f7:74:3b:00:46:9a:fd:c9:dc:
                    d1:64:24:99:e0:bc:4e:3d:33:b8:c1:a2:52:c0:1d:
                    c5:f9:34:17:ab:67:d3:05:a8:7e:7c:89:d6:9b:7b:
                    46:97:91:ea:19:c8:db:35:4b:c7:f5:3c:a1:93:8b:
                    ee:1c:31:30:7e:c6:b2:e3:03:a4:14:40:83:56:31:
                    61:7f:b9:c1:3f:49:76:25:d6:ed:58:2b:4b:36:78:
                    b9:bb:c0:c4:4d:a6:00:77:f7:98:7d:4d:47:6e:cb:
                    12:6d:f6:e1:6b:7a:5b:a9:fa:33:2c:ab:a9:ac:55:
                    99:a3:c6:95:87:c5:0a:90:43:9f:40:f5:85:39:af:
                    a1:25:63:1c:e7:49:5b:da:eb:22:6a:c4:a9:32:9f:
                    40:6e:94:14:fa:35:76:8e:23:6f:67:b1:f5:fd:0f:
                    89:b9:b2:e6:12:1b:80:55:ea:36:0d:37:b2:aa:83:
                    81:c4:43:9f:a3:97:39:84:6a:de:ee:11:57:2e:7d:
                    d3:aa:17:39:81:83:4a:a1:37:49:f0:9c:44:ae:ea:
                    21:2e:1f:37:ce:2d:cd:81:69:3d:4b:53:bd:64:d7:
                    8b:55
                Exponent: 65537 (0x10001)
        X509v3 extensions:
            X509v3 Basic Constraints: 
                CA:FALSE
            X509v3 Subject Key Identifier: 
                BD:45:39:B1:15:38:8B:3D:2E:15:E6:4D:C5:8F:11:E8:A8:D1:95:EE
            X509v3 Authority Key Identifier: 
                keyid:E3:4C:6A:B3:8A:E7:F2:29:AF:7A:BB:6C:34:F7:4C:75:71:B0:7A:83
                DirName:/CN=team280-net
                serial:20:58:B6:2F:49:15:55:07:75:3D:82:B2:B5:7A:18:15:29:54:D0:6D

            X509v3 Extended Key Usage: 
                TLS Web Server Authentication
            X509v3 Key Usage: 
                Digital Signature, Key Encipherment
            X509v3 Subject Alternative Name: 
                DNS:team280-server
    Signature Algorithm: sha256WithRSAEncryption
         a3:9b:0e:77:45:7b:5b:55:eb:f6:12:70:be:54:48:fb:01:97:
         5f:58:54:dd:bf:02:9b:64:5a:80:e0:61:2b:33:42:e9:c6:e3:
         c5:c2:6b:c8:84:4b:04:6e:4d:b7:7c:fe:55:d4:bf:12:bf:b5:
         5c:7c:b0:10:f6:c7:25:ec:c1:69:90:46:c2:29:b2:58:32:5c:
         09:a3:1c:c3:70:2d:99:88:50:e8:47:b9:0c:d2:08:b4:56:77:
         01:83:1c:83:34:64:44:c0:c7:30:62:f7:e5:88:d4:e3:dc:ad:
         89:b7:e2:9f:06:c8:e0:de:49:3b:b6:b5:0f:cf:2c:06:16:f2:
         33:9f:a6:15:07:d1:6b:68:b0:5a:ae:54:23:7c:78:a7:e9:32:
         3f:2f:15:eb:b4:1f:8c:61:4d:8f:e8:c2:4e:ca:68:7e:19:27:
         76:0d:e5:9b:c3:b7:27:7b:5e:ae:f9:81:27:52:b0:40:df:92:
         0e:d9:00:0f:e0:dc:96:0a:1f:92:be:9b:04:fc:a9:b3:c3:2e:
         a7:fe:28:8b:d6:02:d4:e1:66:7e:74:0e:34:e7:a4:18:c0:b7:
         8c:18:06:d5:55:10:0d:89:4b:1b:43:17:f1:68:89:ba:fd:b9:
         0b:2a:33:4b:7b:25:03:0b:22:cd:81:04:3d:ba:45:f1:9d:22:
         dd:2b:ff:22
-----BEGIN CERTIFICATE-----
MIIDeDCCAmCgAwIBAgIRALFK6VV/epLQ+pf+HUZ40A8wDQYJKoZIhvcNAQELBQAw
FjEUMBIGA1UEAwwLdGVhbTI4MC1uZXQwHhcNMjEwOTEzMDExOTUzWhcNMjQwODI4
MDExOTUzWjAZMRcwFQYDVQQDDA50ZWFtMjgwLXNlcnZlcjCCASIwDQYJKoZIhvcN
AQEBBQADggEPADCCAQoCggEBAM490+YiTzL3xfGmsaUkNkN393e/jLaP+XyXclLi
htDHCoRT93Q7AEaa/cnc0WQkmeC8Tj0zuMGiUsAdxfk0F6tn0wWofnyJ1pt7RpeR
6hnI2zVLx/U8oZOL7hwxMH7GsuMDpBRAg1YxYX+5wT9JdiXW7VgrSzZ4ubvAxE2m
AHf3mH1NR27LEm324Wt6W6n6MyyrqaxVmaPGlYfFCpBDn0D1hTmvoSVjHOdJW9rr
ImrEqTKfQG6UFPo1do4jb2ex9f0Pibmy5hIbgFXqNg03sqqDgcRDn6OXOYRq3u4R
Vy5906oXOYGDSqE3SfCcRK7qIS4fN84tzYFpPUtTvWTXi1UCAwEAAaOBvTCBujAJ
BgNVHRMEAjAAMB0GA1UdDgQWBBS9RTmxFTiLPS4V5k3FjxHoqNGV7jBRBgNVHSME
SjBIgBTjTGqziufyKa96u2w090x1cbB6g6EapBgwFjEUMBIGA1UEAwwLdGVhbTI4
MC1uZXSCFCBYti9JFVUHdT2CsrV6GBUpVNBtMBMGA1UdJQQMMAoGCCsGAQUFBwMB
MAsGA1UdDwQEAwIFoDAZBgNVHREEEjAQgg50ZWFtMjgwLXNlcnZlcjANBgkqhkiG
9w0BAQsFAAOCAQEAo5sOd0V7W1Xr9hJwvlRI+wGXX1hU3b8Cm2RagOBhKzNC6cbj
xcJryIRLBG5Nt3z+VdS/Er+1XHywEPbHJezBaZBGwimyWDJcCaMcw3AtmYhQ6Ee5
DNIItFZ3AYMcgzRkRMDHMGL35YjU49ytibfinwbI4N5JO7a1D88sBhbyM5+mFQfR
a2iwWq5UI3x4p+kyPy8V67QfjGFNj+jCTspofhkndg3lm8O3J3tervmBJ1KwQN+S
DtkAD+Dclgofkr6bBPyps8Mup/4oi9YC1OFmfnQONOekGMC3jBgG1VUQDYlLG0MX
8WiJuv25CyozS3slAwsizYEEPbpF8Z0i3Sv/Ig==
-----END CERTIFICATE-----
