Certificate:
    Data:
        Version: 3 (0x2)
        Serial Number:
            56:af:10:b6:0b:57:53:c2:be:ca:14:56:24:bb:a1:0f
        Signature Algorithm: sha256WithRSAEncryption
        Issuer: CN=team711-net
        Validity
            Not Before: Sep 13 05:29:05 2021 GMT
            Not After : Aug 28 05:29:05 2024 GMT
        Subject: CN=team711-client
        Subject Public Key Info:
            Public Key Algorithm: rsaEncryption
                RSA Public-Key: (2048 bit)
                Modulus:
                    00:d3:6d:be:23:2c:13:6a:90:01:a9:9b:80:18:ea:
                    8c:0d:d5:07:66:b0:ce:5c:2f:4e:63:70:7e:94:eb:
                    34:86:59:4b:40:82:08:12:4f:01:2f:69:5d:13:b9:
                    9a:df:3a:9d:ef:84:b0:f4:ac:a5:fc:5a:f5:14:82:
                    0c:a8:aa:93:34:17:74:87:3d:fe:f4:26:24:e5:76:
                    9b:18:a7:15:f9:e4:7c:a1:d1:f7:9e:fb:7e:21:42:
                    9a:fd:73:5a:64:3b:41:f7:f3:17:a9:73:8f:01:3a:
                    99:1a:f9:79:48:8a:39:8f:51:56:15:aa:f3:b8:f3:
                    8f:db:f8:9c:9c:fb:5b:ce:e3:1f:3e:7f:9b:ba:60:
                    c4:d3:d0:48:96:c8:47:90:40:90:eb:e6:aa:f1:79:
                    92:d8:48:ca:53:51:20:30:16:66:94:e1:41:1c:38:
                    f6:c7:69:d2:2c:00:0f:90:fa:76:45:96:61:e3:44:
                    35:12:cc:4b:d2:9e:8b:38:e0:92:ef:d1:b1:5b:d5:
                    18:fc:9b:56:b7:0f:1c:d4:85:b2:ac:78:03:c4:5c:
                    5a:be:32:dd:37:eb:0f:ea:a7:26:a2:c6:1d:4b:84:
                    e8:d3:97:cb:21:ac:b4:07:1d:7d:2f:46:2e:b8:c5:
                    a5:6d:85:77:5d:d1:01:d3:0c:59:fc:cf:b5:40:e9:
                    7b:d9
                Exponent: 65537 (0x10001)
        X509v3 extensions:
            X509v3 Basic Constraints: 
                CA:FALSE
            X509v3 Subject Key Identifier: 
                15:21:DE:2A:6C:11:DB:F2:05:17:50:20:E5:1B:AE:C9:A1:3D:AE:47
            X509v3 Authority Key Identifier: 
                keyid:01:5A:E7:0A:BB:50:95:08:05:4B:01:A0:5E:FA:B7:7D:A2:EF:A8:BE
                DirName:/CN=team711-net
                serial:06:A7:53:DE:5A:7D:A6:71:DD:76:45:4A:10:01:90:65:37:A2:8E:A7

            X509v3 Extended Key Usage: 
                TLS Web Client Authentication
            X509v3 Key Usage: 
                Digital Signature
    Signature Algorithm: sha256WithRSAEncryption
         c2:7e:f8:62:e3:b6:44:b6:2c:2c:25:91:8a:71:0a:4d:37:ca:
         c5:fb:d7:78:7c:50:a7:fa:a3:a6:c3:a1:cf:1f:d8:8b:cd:3c:
         3e:13:d3:e2:77:e2:e9:c7:cd:01:ba:c1:f2:50:1b:9a:a8:31:
         24:9b:06:4f:84:f9:74:5b:02:7c:6b:b9:60:8c:ba:3a:ca:dd:
         1f:3b:4e:99:9c:28:9e:89:e1:d7:98:fd:b2:cb:4b:68:05:e3:
         d2:80:45:be:e8:5e:0a:ba:8d:58:fd:47:e4:d3:8e:4f:e2:4f:
         f5:fa:ed:fc:94:82:69:94:c3:b9:c5:e5:93:6f:b7:ae:dc:d7:
         ed:12:64:23:22:d1:20:71:fe:62:81:72:2f:ba:24:04:fc:9b:
         97:57:02:0f:27:ec:4a:47:75:dc:3f:ba:4b:1f:8a:74:ba:f7:
         b6:76:2f:a0:9e:68:17:1d:c4:c9:82:d3:2b:4e:df:65:98:75:
         9b:b4:53:40:20:9f:17:fe:cf:a7:4a:9e:1a:e1:34:b4:16:b1:
         75:8a:9b:f5:b2:67:76:fe:66:8e:4c:f2:68:1a:14:0a:f4:84:
         34:60:42:bb:ae:e9:c1:9c:06:75:40:32:0b:64:08:93:f4:8d:
         7b:50:03:ac:a0:b2:c2:00:c7:36:4a:ff:00:90:0f:81:59:f4:
         43:e0:da:81
-----BEGIN CERTIFICATE-----
MIIDXDCCAkSgAwIBAgIQVq8QtgtXU8K+yhRWJLuhDzANBgkqhkiG9w0BAQsFADAW
MRQwEgYDVQQDDAt0ZWFtNzExLW5ldDAeFw0yMTA5MTMwNTI5MDVaFw0yNDA4Mjgw
NTI5MDVaMBkxFzAVBgNVBAMMDnRlYW03MTEtY2xpZW50MIIBIjANBgkqhkiG9w0B
AQEFAAOCAQ8AMIIBCgKCAQEA022+IywTapABqZuAGOqMDdUHZrDOXC9OY3B+lOs0
hllLQIIIEk8BL2ldE7ma3zqd74Sw9Kyl/Fr1FIIMqKqTNBd0hz3+9CYk5XabGKcV
+eR8odH3nvt+IUKa/XNaZDtB9/MXqXOPATqZGvl5SIo5j1FWFarzuPOP2/icnPtb
zuMfPn+bumDE09BIlshHkECQ6+aq8XmS2EjKU1EgMBZmlOFBHDj2x2nSLAAPkPp2
RZZh40Q1EsxL0p6LOOCS79GxW9UY/JtWtw8c1IWyrHgDxFxavjLdN+sP6qcmosYd
S4To05fLIay0Bx19L0YuuMWlbYV3XdEB0wxZ/M+1QOl72QIDAQABo4GiMIGfMAkG
A1UdEwQCMAAwHQYDVR0OBBYEFBUh3ipsEdvyBRdQIOUbrsmhPa5HMFEGA1UdIwRK
MEiAFAFa5wq7UJUIBUsBoF76t32i76i+oRqkGDAWMRQwEgYDVQQDDAt0ZWFtNzEx
LW5ldIIUBqdT3lp9pnHddkVKEAGQZTeijqcwEwYDVR0lBAwwCgYIKwYBBQUHAwIw
CwYDVR0PBAQDAgeAMA0GCSqGSIb3DQEBCwUAA4IBAQDCfvhi47ZEtiwsJZGKcQpN
N8rF+9d4fFCn+qOmw6HPH9iLzTw+E9Pid+Lpx80BusHyUBuaqDEkmwZPhPl0WwJ8
a7lgjLo6yt0fO06ZnCieieHXmP2yy0toBePSgEW+6F4Kuo1Y/Ufk045P4k/1+u38
lIJplMO5xeWTb7eu3NftEmQjItEgcf5igXIvuiQE/JuXVwIPJ+xKR3XcP7pLH4p0
uve2di+gnmgXHcTJgtMrTt9lmHWbtFNAIJ8X/s+nSp4a4TS0FrF1ipv1smd2/maO
TPJoGhQK9IQ0YEK7runBnAZ1QDILZAiT9I17UAOsoLLCAMc2Sv8AkA+BWfRD4NqB
-----END CERTIFICATE-----
