Certificate:
    Data:
        Version: 3 (0x2)
        Serial Number:
            13:5b:89:f2:72:32:65:2c:9f:50:f3:09:d6:b8:e5:c1
        Signature Algorithm: sha256WithRSAEncryption
        Issuer: CN=team329-net
        Validity
            Not Before: Sep 13 01:47:52 2021 GMT
            Not After : Aug 28 01:47:52 2024 GMT
        Subject: CN=team329-server
        Subject Public Key Info:
            Public Key Algorithm: rsaEncryption
                RSA Public-Key: (2048 bit)
                Modulus:
                    00:cb:0d:ac:0a:1c:28:77:6a:6d:93:a3:79:f3:f8:
                    36:53:21:34:2b:6e:a5:2f:0a:d8:fd:4c:b0:e8:52:
                    cc:4f:90:90:34:16:22:ad:cc:54:93:f3:b4:97:2e:
                    66:f6:7c:04:2c:81:0f:b5:77:6b:12:c5:ed:2b:3b:
                    4b:e2:e2:08:95:0e:fd:92:25:ac:26:e8:3a:d0:7e:
                    e3:23:8d:86:c2:59:fd:8e:2a:4e:6b:35:f6:cd:b5:
                    08:50:95:21:80:39:6f:b5:cb:99:c7:93:4d:cc:d2:
                    c4:20:d4:5d:db:ae:8d:e6:22:59:44:27:3d:e0:fc:
                    1b:24:04:be:e1:2d:55:76:94:4c:06:5c:9e:2b:66:
                    34:17:86:9b:53:2a:d5:0b:ff:f1:12:6c:b5:f0:25:
                    b4:2c:6d:d5:bf:95:ad:2b:0b:b3:92:11:07:3b:78:
                    9a:46:b4:55:1d:eb:b6:a7:8f:f5:43:fa:11:2b:e5:
                    a2:81:3e:b6:5e:82:e5:27:91:4f:20:db:7f:d2:ce:
                    71:a3:e6:a4:3e:16:b9:45:6e:92:f6:ef:56:85:4a:
                    7d:fd:e6:11:6a:7b:df:9a:25:8e:00:94:6c:71:d7:
                    f9:11:af:4b:d3:35:03:c9:09:bd:0a:9d:71:1d:f3:
                    9e:b5:c2:ba:ac:db:e1:5a:19:b1:88:fe:40:7f:fe:
                    65:eb
                Exponent: 65537 (0x10001)
        X509v3 extensions:
            X509v3 Basic Constraints: 
                CA:FALSE
            X509v3 Subject Key Identifier: 
                BE:E7:7A:6D:F7:CA:0E:76:30:54:2B:3C:56:81:B0:77:47:3A:E1:1C
            X509v3 Authority Key Identifier: 
                keyid:BD:32:E1:96:C4:F5:39:A6:34:64:4E:83:B1:C2:84:05:73:44:AF:A9
                DirName:/CN=team329-net
                serial:5C:74:FE:A5:B1:92:78:5E:D2:A6:20:41:60:43:C2:E4:AF:8F:63:B1

            X509v3 Extended Key Usage: 
                TLS Web Server Authentication
            X509v3 Key Usage: 
                Digital Signature, Key Encipherment
            X509v3 Subject Alternative Name: 
                DNS:team329-server
    Signature Algorithm: sha256WithRSAEncryption
         ae:64:6e:ee:c4:65:f8:fd:c1:b1:59:9b:84:37:74:88:34:f9:
         7a:c5:54:0b:b5:be:d3:22:df:73:15:62:77:5a:4b:2e:8f:bf:
         db:ea:39:7e:dc:03:c1:3f:5e:c0:89:f0:7b:c7:35:21:90:50:
         95:12:1a:e2:50:28:74:1c:6b:1f:38:32:e5:01:e9:2d:97:a9:
         14:3d:7d:b9:1d:f8:f1:2e:be:6a:f3:9e:a5:71:77:73:d0:77:
         33:42:09:c1:4e:2c:c2:fa:6e:b3:e7:3f:3a:0e:2d:06:5e:a4:
         0f:a3:33:8f:16:6a:9a:3d:cf:d1:a9:c7:e6:10:81:a5:bd:1f:
         af:b3:d4:fa:67:b4:5e:05:9b:c5:25:a3:a7:ca:4b:6d:98:ec:
         29:28:ae:f0:0c:8b:ab:37:14:94:c6:e2:6c:68:aa:bd:a1:b2:
         66:34:0c:9d:52:dd:59:a1:14:7d:1f:55:3a:fe:27:6e:64:85:
         22:3e:58:8d:30:af:59:70:d3:3d:40:aa:e9:50:77:0a:39:a6:
         87:bb:2b:ea:89:ff:76:d9:ad:c0:41:29:8e:f5:34:b3:53:ea:
         bf:29:ca:0c:28:9e:de:ee:33:a0:a4:db:f0:30:d4:b6:e1:d4:
         04:e4:1c:4d:81:83:b0:c0:a4:d1:65:6f:06:3d:9d:e4:83:b1:
         ea:63:92:89
-----BEGIN CERTIFICATE-----
MIIDdzCCAl+gAwIBAgIQE1uJ8nIyZSyfUPMJ1rjlwTANBgkqhkiG9w0BAQsFADAW
MRQwEgYDVQQDDAt0ZWFtMzI5LW5ldDAeFw0yMTA5MTMwMTQ3NTJaFw0yNDA4Mjgw
MTQ3NTJaMBkxFzAVBgNVBAMMDnRlYW0zMjktc2VydmVyMIIBIjANBgkqhkiG9w0B
AQEFAAOCAQ8AMIIBCgKCAQEAyw2sChwod2ptk6N58/g2UyE0K26lLwrY/Uyw6FLM
T5CQNBYircxUk/O0ly5m9nwELIEPtXdrEsXtKztL4uIIlQ79kiWsJug60H7jI42G
wln9jipOazX2zbUIUJUhgDlvtcuZx5NNzNLEINRd266N5iJZRCc94PwbJAS+4S1V
dpRMBlyeK2Y0F4abUyrVC//xEmy18CW0LG3Vv5WtKwuzkhEHO3iaRrRVHeu2p4/1
Q/oRK+WigT62XoLlJ5FPINt/0s5xo+akPha5RW6S9u9WhUp9/eYRanvfmiWOAJRs
cdf5Ea9L0zUDyQm9Cp1xHfOetcK6rNvhWhmxiP5Af/5l6wIDAQABo4G9MIG6MAkG
A1UdEwQCMAAwHQYDVR0OBBYEFL7nem33yg52MFQrPFaBsHdHOuEcMFEGA1UdIwRK
MEiAFL0y4ZbE9TmmNGROg7HChAVzRK+poRqkGDAWMRQwEgYDVQQDDAt0ZWFtMzI5
LW5ldIIUXHT+pbGSeF7SpiBBYEPC5K+PY7EwEwYDVR0lBAwwCgYIKwYBBQUHAwEw
CwYDVR0PBAQDAgWgMBkGA1UdEQQSMBCCDnRlYW0zMjktc2VydmVyMA0GCSqGSIb3
DQEBCwUAA4IBAQCuZG7uxGX4/cGxWZuEN3SINPl6xVQLtb7TIt9zFWJ3Wksuj7/b
6jl+3APBP17AifB7xzUhkFCVEhriUCh0HGsfODLlAektl6kUPX25HfjxLr5q856l
cXdz0HczQgnBTizC+m6z5z86Di0GXqQPozOPFmqaPc/RqcfmEIGlvR+vs9T6Z7Re
BZvFJaOnykttmOwpKK7wDIurNxSUxuJsaKq9obJmNAydUt1ZoRR9H1U6/iduZIUi
PliNMK9ZcNM9QKrpUHcKOaaHuyvqif922a3AQSmO9TSzU+q/KcoMKJ7e7jOgpNvw
MNS24dQE5BxNgYOwwKTRZW8GPZ3kg7HqY5KJ
-----END CERTIFICATE-----
