Certificate:
    Data:
        Version: 3 (0x2)
        Serial Number:
            5c:19:cc:48:60:6c:cd:bc:e7:24:c5:5e:ab:74:29:e7
        Signature Algorithm: sha256WithRSAEncryption
        Issuer: CN=team329-net
        Validity
            Not Before: Sep 13 01:47:51 2021 GMT
            Not After : Aug 28 01:47:51 2024 GMT
        Subject: CN=team329-client
        Subject Public Key Info:
            Public Key Algorithm: rsaEncryption
                RSA Public-Key: (2048 bit)
                Modulus:
                    00:c8:88:c8:51:29:77:52:e7:18:a5:76:21:e7:1f:
                    c0:70:b2:04:3b:a9:fc:6f:ab:97:c7:03:ac:c2:47:
                    78:54:c4:7e:0b:29:cc:e6:3c:fc:4c:67:75:8e:74:
                    f6:eb:76:fe:59:33:9a:b8:e9:36:5c:30:b0:20:32:
                    4d:3b:e2:2c:74:c9:f6:92:6d:36:2d:86:b3:88:a4:
                    7c:2e:f8:9b:01:64:66:a1:f2:0c:b2:04:6e:3f:a6:
                    05:29:67:0b:f5:93:ec:1f:88:94:ee:82:d0:33:ed:
                    a6:26:1d:97:f1:2c:c6:7a:a9:db:b0:1e:e4:83:3c:
                    f3:62:a7:2d:f5:fd:34:85:c0:55:dd:88:36:cb:86:
                    7e:e7:0e:aa:2a:fd:29:6d:20:bc:ab:83:62:3a:79:
                    05:ad:65:0b:19:fd:e0:36:7f:8a:53:0e:60:54:7f:
                    97:c3:25:4a:98:36:5a:ba:9e:28:ae:9c:50:94:ae:
                    c1:35:b8:e3:74:79:bc:b9:24:4a:63:d1:25:68:40:
                    bf:fd:fa:71:c7:b8:f6:1b:f0:9c:87:52:e8:21:e4:
                    6b:33:d5:34:6f:a5:43:73:b8:9d:e4:0f:50:e2:67:
                    14:35:9c:73:91:e4:21:63:fd:5c:40:c0:a6:8a:98:
                    3c:0f:c5:91:1b:93:b4:c5:94:31:40:3b:67:cc:1d:
                    94:41
                Exponent: 65537 (0x10001)
        X509v3 extensions:
            X509v3 Basic Constraints: 
                CA:FALSE
            X509v3 Subject Key Identifier: 
                BD:35:D4:08:D5:B0:58:43:F1:14:1E:30:06:79:83:2A:D1:FC:2B:E6
            X509v3 Authority Key Identifier: 
                keyid:BD:32:E1:96:C4:F5:39:A6:34:64:4E:83:B1:C2:84:05:73:44:AF:A9
                DirName:/CN=team329-net
                serial:5C:74:FE:A5:B1:92:78:5E:D2:A6:20:41:60:43:C2:E4:AF:8F:63:B1

            X509v3 Extended Key Usage: 
                TLS Web Client Authentication
            X509v3 Key Usage: 
                Digital Signature
    Signature Algorithm: sha256WithRSAEncryption
         69:77:15:e3:ff:3d:c2:ea:75:29:45:64:7f:8f:27:b9:5b:e9:
         24:80:f5:a9:4b:84:0c:ca:95:af:2c:65:52:de:ef:08:8e:f1:
         f8:c5:86:3b:b9:f7:ec:a7:d3:1d:f0:c6:31:b7:26:53:12:a5:
         e6:c5:83:df:67:b9:1f:ae:8b:ee:80:5a:cc:3d:85:46:55:cd:
         29:5d:d7:04:c1:01:2b:cc:26:7b:08:38:90:a5:d0:4e:90:8e:
         c5:3d:51:57:2b:3a:be:5e:45:c7:66:f8:2b:77:67:7f:b9:e4:
         85:81:48:c3:ea:f6:69:4e:d6:f8:12:e1:83:fe:69:59:60:a7:
         3a:bc:cb:4f:0b:b5:f7:5e:70:f3:2f:52:d2:5f:0b:ce:9d:99:
         f3:da:f2:7e:5c:3e:24:bc:21:59:d2:fe:37:bf:eb:39:80:9b:
         97:1b:80:06:32:08:73:06:47:f7:7e:23:c7:a6:57:de:42:c9:
         cd:8c:35:02:cc:1b:e0:b0:17:7c:f1:c4:5b:72:bf:72:84:8f:
         e3:aa:36:da:63:38:4f:c1:a1:06:6c:95:24:df:05:5f:89:cf:
         fd:00:d3:1c:62:a6:7d:32:d9:76:fb:d1:e6:7e:79:cc:33:bd:
         58:e5:6f:51:ab:d3:d6:84:ea:35:75:96:2d:2a:23:18:73:bb:
         d6:42:16:00
-----BEGIN CERTIFICATE-----
MIIDXDCCAkSgAwIBAgIQXBnMSGBszbznJMVeq3Qp5zANBgkqhkiG9w0BAQsFADAW
MRQwEgYDVQQDDAt0ZWFtMzI5LW5ldDAeFw0yMTA5MTMwMTQ3NTFaFw0yNDA4Mjgw
MTQ3NTFaMBkxFzAVBgNVBAMMDnRlYW0zMjktY2xpZW50MIIBIjANBgkqhkiG9w0B
AQEFAAOCAQ8AMIIBCgKCAQEAyIjIUSl3UucYpXYh5x/AcLIEO6n8b6uXxwOswkd4
VMR+CynM5jz8TGd1jnT263b+WTOauOk2XDCwIDJNO+IsdMn2km02LYaziKR8Lvib
AWRmofIMsgRuP6YFKWcL9ZPsH4iU7oLQM+2mJh2X8SzGeqnbsB7kgzzzYqct9f00
hcBV3Yg2y4Z+5w6qKv0pbSC8q4NiOnkFrWULGf3gNn+KUw5gVH+XwyVKmDZaup4o
rpxQlK7BNbjjdHm8uSRKY9ElaEC//fpxx7j2G/Cch1LoIeRrM9U0b6VDc7id5A9Q
4mcUNZxzkeQhY/1cQMCmipg8D8WRG5O0xZQxQDtnzB2UQQIDAQABo4GiMIGfMAkG
A1UdEwQCMAAwHQYDVR0OBBYEFL011AjVsFhD8RQeMAZ5gyrR/CvmMFEGA1UdIwRK
MEiAFL0y4ZbE9TmmNGROg7HChAVzRK+poRqkGDAWMRQwEgYDVQQDDAt0ZWFtMzI5
LW5ldIIUXHT+pbGSeF7SpiBBYEPC5K+PY7EwEwYDVR0lBAwwCgYIKwYBBQUHAwIw
CwYDVR0PBAQDAgeAMA0GCSqGSIb3DQEBCwUAA4IBAQBpdxXj/z3C6nUpRWR/jye5
W+kkgPWpS4QMypWvLGVS3u8IjvH4xYY7uffsp9Md8MYxtyZTEqXmxYPfZ7kfrovu
gFrMPYVGVc0pXdcEwQErzCZ7CDiQpdBOkI7FPVFXKzq+XkXHZvgrd2d/ueSFgUjD
6vZpTtb4EuGD/mlZYKc6vMtPC7X3XnDzL1LSXwvOnZnz2vJ+XD4kvCFZ0v43v+s5
gJuXG4AGMghzBkf3fiPHplfeQsnNjDUCzBvgsBd88cRbcr9yhI/jqjbaYzhPwaEG
bJUk3wVfic/9ANMcYqZ9Mtl2+9HmfnnMM71Y5W9Rq9PWhOo1dZYtKiMYc7vWQhYA
-----END CERTIFICATE-----
