Certificate:
    Data:
        Version: 3 (0x2)
        Serial Number:
            73:dd:66:30:b3:bc:e3:36:7b:52:9f:5f:1b:22:63:08
        Signature Algorithm: sha256WithRSAEncryption
        Issuer: CN=team541-net
        Validity
            Not Before: Sep 13 03:26:15 2021 GMT
            Not After : Aug 28 03:26:15 2024 GMT
        Subject: CN=team541-server
        Subject Public Key Info:
            Public Key Algorithm: rsaEncryption
                RSA Public-Key: (2048 bit)
                Modulus:
                    00:c0:0e:17:0b:04:aa:d1:51:df:f5:ca:e5:21:86:
                    9c:57:2d:1a:80:6e:47:1d:15:8f:be:1b:88:6c:8f:
                    de:5e:c9:7e:f7:b2:06:00:bd:c7:d5:15:06:b6:c0:
                    76:f2:a9:44:11:cc:00:4e:34:68:9b:d1:34:86:0e:
                    d5:d6:0e:92:d4:59:e9:10:70:34:40:7c:5d:62:e0:
                    d3:40:d0:13:b4:a1:e4:39:62:03:58:58:57:d7:2c:
                    d0:7a:db:b8:39:cf:6e:f7:6c:06:64:d3:34:d8:42:
                    ae:5c:b8:bf:e0:4e:5b:d4:0f:84:43:78:50:18:ad:
                    8e:66:02:30:ec:cc:d0:ea:7f:62:11:8f:a6:49:6c:
                    1d:c4:52:ab:31:05:87:a2:0f:5a:0b:c0:73:ba:f1:
                    5d:fa:96:95:ec:f4:75:17:11:a4:ad:31:aa:94:1f:
                    53:2a:1f:bd:49:f8:da:99:f8:a9:53:0d:fc:bb:72:
                    d8:33:61:7b:b5:65:ba:9f:ef:fc:e4:fb:3a:57:61:
                    65:82:07:4c:6d:df:ab:65:af:87:a0:e6:88:6a:b6:
                    47:c6:b9:57:68:9c:db:31:80:c2:71:e1:d1:c2:1d:
                    66:1a:4b:36:c2:f7:d5:8a:eb:ce:11:95:70:b7:8b:
                    58:de:cb:a0:56:65:56:99:9b:05:ba:0b:e0:8b:ff:
                    38:1b
                Exponent: 65537 (0x10001)
        X509v3 extensions:
            X509v3 Basic Constraints: 
                CA:FALSE
            X509v3 Subject Key Identifier: 
                08:9E:12:50:63:E8:7B:95:86:CE:32:F7:C8:AE:5C:88:FE:63:F1:31
            X509v3 Authority Key Identifier: 
                keyid:63:0C:CD:E8:77:65:87:7C:DB:03:0C:38:1A:29:21:EF:F4:D9:D3:22
                DirName:/CN=team541-net
                serial:07:28:A1:2F:46:68:4F:43:8B:52:A9:52:1F:D1:E3:57:5C:E8:73:1F

            X509v3 Extended Key Usage: 
                TLS Web Server Authentication
            X509v3 Key Usage: 
                Digital Signature, Key Encipherment
            X509v3 Subject Alternative Name: 
                DNS:team541-server
    Signature Algorithm: sha256WithRSAEncryption
         09:93:ee:e6:58:8d:87:4d:d7:d1:ea:39:a0:e4:62:f5:42:15:
         c4:b3:5d:3f:fb:0b:5c:ba:75:3f:e0:4c:d8:b5:31:08:91:b0:
         8d:0b:43:e4:df:fa:bc:7e:1f:39:a8:72:1f:08:de:28:6b:83:
         66:d9:d3:3a:f5:24:a9:f4:c9:50:ac:b7:f9:bc:47:5a:db:16:
         c0:f6:0e:6a:68:52:2d:5a:18:e8:f7:0e:fa:fa:a2:e8:e9:ba:
         ca:4f:28:9c:87:ed:a7:2f:2b:09:b0:a1:c7:6e:82:fe:6c:5d:
         b1:a8:05:ef:4c:08:de:36:b3:9f:77:d9:31:2d:2b:83:01:3c:
         db:45:fe:0c:4c:2d:c8:f8:e7:74:e0:45:90:a8:7f:41:4b:40:
         3e:29:48:c3:00:64:4a:f1:3b:b1:c1:95:09:43:d1:ce:8a:24:
         85:5f:c4:de:f6:36:61:bd:cd:c6:02:22:00:f5:dc:ea:4a:85:
         eb:2d:60:9b:9f:3b:16:3b:cb:3e:22:f2:4e:a8:83:b3:19:b9:
         a0:72:49:2a:41:bc:25:5e:d2:8b:82:31:30:6e:2a:8d:95:e8:
         f6:09:58:d0:85:3d:bc:79:61:95:7a:71:6a:ff:72:38:9d:8f:
         c7:d5:7e:c8:e1:0d:d6:a5:27:96:35:b7:e7:e5:d3:cf:e5:a7:
         30:c5:a3:e1
-----BEGIN CERTIFICATE-----
MIIDdzCCAl+gAwIBAgIQc91mMLO84zZ7Up9fGyJjCDANBgkqhkiG9w0BAQsFADAW
MRQwEgYDVQQDDAt0ZWFtNTQxLW5ldDAeFw0yMTA5MTMwMzI2MTVaFw0yNDA4Mjgw
MzI2MTVaMBkxFzAVBgNVBAMMDnRlYW01NDEtc2VydmVyMIIBIjANBgkqhkiG9w0B
AQEFAAOCAQ8AMIIBCgKCAQEAwA4XCwSq0VHf9crlIYacVy0agG5HHRWPvhuIbI/e
Xsl+97IGAL3H1RUGtsB28qlEEcwATjRom9E0hg7V1g6S1FnpEHA0QHxdYuDTQNAT
tKHkOWIDWFhX1yzQetu4Oc9u92wGZNM02EKuXLi/4E5b1A+EQ3hQGK2OZgIw7MzQ
6n9iEY+mSWwdxFKrMQWHog9aC8BzuvFd+paV7PR1FxGkrTGqlB9TKh+9Sfjamfip
Uw38u3LYM2F7tWW6n+/85Ps6V2FlggdMbd+rZa+HoOaIarZHxrlXaJzbMYDCceHR
wh1mGks2wvfViuvOEZVwt4tY3sugVmVWmZsFugvgi/84GwIDAQABo4G9MIG6MAkG
A1UdEwQCMAAwHQYDVR0OBBYEFAieElBj6HuVhs4y98iuXIj+Y/ExMFEGA1UdIwRK
MEiAFGMMzeh3ZYd82wMMOBopIe/02dMioRqkGDAWMRQwEgYDVQQDDAt0ZWFtNTQx
LW5ldIIUByihL0ZoT0OLUqlSH9HjV1zocx8wEwYDVR0lBAwwCgYIKwYBBQUHAwEw
CwYDVR0PBAQDAgWgMBkGA1UdEQQSMBCCDnRlYW01NDEtc2VydmVyMA0GCSqGSIb3
DQEBCwUAA4IBAQAJk+7mWI2HTdfR6jmg5GL1QhXEs10/+wtcunU/4EzYtTEIkbCN
C0Pk3/q8fh85qHIfCN4oa4Nm2dM69SSp9MlQrLf5vEda2xbA9g5qaFItWhjo9w76
+qLo6brKTyich+2nLysJsKHHboL+bF2xqAXvTAjeNrOfd9kxLSuDATzbRf4MTC3I
+Od04EWQqH9BS0A+KUjDAGRK8TuxwZUJQ9HOiiSFX8Te9jZhvc3GAiIA9dzqSoXr
LWCbnzsWO8s+IvJOqIOzGbmgckkqQbwlXtKLgjEwbiqNlej2CVjQhT28eWGVenFq
/3I4nY/H1X7I4Q3WpSeWNbfn5dPP5acwxaPh
-----END CERTIFICATE-----
