Certificate:
    Data:
        Version: 3 (0x2)
        Serial Number:
            ed:5c:27:8d:b2:e0:ab:d5:3e:06:ca:29:1c:ae:cf:ad
        Signature Algorithm: sha256WithRSAEncryption
        Issuer: CN=team255-net
        Validity
            Not Before: Sep 13 01:05:13 2021 GMT
            Not After : Aug 28 01:05:13 2024 GMT
        Subject: CN=team255-client
        Subject Public Key Info:
            Public Key Algorithm: rsaEncryption
                RSA Public-Key: (2048 bit)
                Modulus:
                    00:d1:09:e2:81:b2:35:ed:2a:0a:8a:72:4e:34:68:
                    9f:5f:7a:02:d8:38:ac:0d:c9:4f:7d:1d:44:21:89:
                    01:6a:3f:14:38:e1:50:60:87:81:da:ec:ee:cc:67:
                    3d:e0:1b:f2:b8:cb:ee:c3:50:5f:e3:84:52:7d:07:
                    6c:11:3e:9a:9a:da:d8:43:6a:6f:cc:c2:b7:50:27:
                    30:22:df:30:fc:71:9e:8d:6e:c8:d0:59:f3:7c:79:
                    e6:7e:bc:5b:84:2f:24:f9:d9:56:15:ba:02:22:39:
                    2b:b3:0d:bb:05:28:a4:e8:a1:3a:41:69:ce:eb:50:
                    a7:02:2d:ab:22:f1:7e:b5:80:60:53:c3:06:6e:b6:
                    ad:34:e4:c6:14:9a:9c:06:23:70:8b:ec:23:e0:3e:
                    1a:cd:18:f4:1e:58:4e:bb:ab:af:f6:4d:75:31:77:
                    e5:aa:54:25:18:3b:d2:e0:31:f6:3f:f2:d1:ad:0b:
                    98:8c:10:e2:94:00:40:63:75:b4:76:c3:51:87:d4:
                    f1:5e:23:85:1e:54:1b:5a:94:6c:21:61:a6:6c:67:
                    b9:b1:a0:82:84:ba:5c:95:14:6a:e3:92:c5:ee:17:
                    cc:b3:34:fc:92:e0:d4:f6:46:eb:af:17:57:79:8c:
                    bd:dc:42:69:7f:95:3e:57:6f:06:c7:ae:42:5b:61:
                    91:8f
                Exponent: 65537 (0x10001)
        X509v3 extensions:
            X509v3 Basic Constraints: 
                CA:FALSE
            X509v3 Subject Key Identifier: 
                22:77:AE:5D:EC:C1:FA:2E:F2:D6:5C:CC:0E:2C:57:84:21:95:76:92
            X509v3 Authority Key Identifier: 
                keyid:1F:3D:32:22:21:1A:46:AC:5D:04:04:5C:CB:AE:3F:63:B5:A7:7F:96
                DirName:/CN=team255-net
                serial:18:01:4F:6B:C2:D8:81:55:56:CE:4A:15:65:51:55:41:A5:76:17:E9

            X509v3 Extended Key Usage: 
                TLS Web Client Authentication
            X509v3 Key Usage: 
                Digital Signature
    Signature Algorithm: sha256WithRSAEncryption
         76:4a:5a:3b:31:aa:55:e8:79:f1:da:fa:36:69:d0:1a:15:37:
         be:d4:0e:69:9d:71:53:fb:97:51:5b:b0:16:23:08:f4:81:4f:
         85:a7:5a:7a:52:f9:11:b1:5f:b8:f0:3a:73:45:43:ef:75:77:
         3e:96:47:ab:10:8a:ab:8f:33:21:49:42:07:6e:39:f0:24:1f:
         c7:f0:a1:7f:65:4e:d6:3e:71:28:63:9d:76:07:a9:69:23:30:
         f9:2a:6a:fe:41:ba:f1:c0:ee:71:18:91:f8:0b:f7:cd:1a:a8:
         aa:c6:c8:1a:a8:b9:c9:a2:71:ce:0d:4e:6f:b4:a8:7b:1c:b6:
         f2:5c:79:1d:d9:b5:a7:0b:b0:d3:5d:4e:3a:d7:46:f0:91:88:
         cb:5e:35:12:27:df:09:d9:c8:b3:07:cf:00:f2:fc:82:d6:c6:
         f7:0e:c9:58:25:7c:20:86:55:f4:bc:88:68:31:c1:4e:c4:e7:
         63:15:a9:2e:f4:af:0c:4c:22:8b:93:11:4f:e5:55:32:a0:4c:
         98:b9:f8:ac:fe:eb:dd:79:63:22:c0:4f:5d:57:a0:4e:f3:2a:
         5a:e5:fd:34:3d:c8:df:e6:86:93:ff:28:41:02:2a:87:ad:b1:
         3d:4d:8d:71:6b:5f:a1:4d:89:a8:97:40:0a:c8:c8:50:32:b5:
         89:e9:d0:4d
-----BEGIN CERTIFICATE-----
MIIDXTCCAkWgAwIBAgIRAO1cJ42y4KvVPgbKKRyuz60wDQYJKoZIhvcNAQELBQAw
FjEUMBIGA1UEAwwLdGVhbTI1NS1uZXQwHhcNMjEwOTEzMDEwNTEzWhcNMjQwODI4
MDEwNTEzWjAZMRcwFQYDVQQDDA50ZWFtMjU1LWNsaWVudDCCASIwDQYJKoZIhvcN
AQEBBQADggEPADCCAQoCggEBANEJ4oGyNe0qCopyTjRon196Atg4rA3JT30dRCGJ
AWo/FDjhUGCHgdrs7sxnPeAb8rjL7sNQX+OEUn0HbBE+mpra2ENqb8zCt1AnMCLf
MPxxno1uyNBZ83x55n68W4QvJPnZVhW6AiI5K7MNuwUopOihOkFpzutQpwItqyLx
frWAYFPDBm62rTTkxhSanAYjcIvsI+A+Gs0Y9B5YTrurr/ZNdTF35apUJRg70uAx
9j/y0a0LmIwQ4pQAQGN1tHbDUYfU8V4jhR5UG1qUbCFhpmxnubGggoS6XJUUauOS
xe4XzLM0/JLg1PZG668XV3mMvdxCaX+VPldvBseuQlthkY8CAwEAAaOBojCBnzAJ
BgNVHRMEAjAAMB0GA1UdDgQWBBQid65d7MH6LvLWXMwOLFeEIZV2kjBRBgNVHSME
SjBIgBQfPTIiIRpGrF0EBFzLrj9jtad/lqEapBgwFjEUMBIGA1UEAwwLdGVhbTI1
NS1uZXSCFBgBT2vC2IFVVs5KFWVRVUGldhfpMBMGA1UdJQQMMAoGCCsGAQUFBwMC
MAsGA1UdDwQEAwIHgDANBgkqhkiG9w0BAQsFAAOCAQEAdkpaOzGqVeh58dr6NmnQ
GhU3vtQOaZ1xU/uXUVuwFiMI9IFPhadaelL5EbFfuPA6c0VD73V3PpZHqxCKq48z
IUlCB2458CQfx/Chf2VO1j5xKGOddgepaSMw+Spq/kG68cDucRiR+Av3zRqoqsbI
Gqi5yaJxzg1Ob7Soexy28lx5Hdm1pwuw011OOtdG8JGIy141EiffCdnIswfPAPL8
gtbG9w7JWCV8IIZV9LyIaDHBTsTnYxWpLvSvDEwii5MRT+VVMqBMmLn4rP7r3Xlj
IsBPXVegTvMqWuX9ND3I3+aGk/8oQQIqh62xPU2NcWtfoU2JqJdACsjIUDK1ienQ
TQ==
-----END CERTIFICATE-----
