Certificate:
    Data:
        Version: 3 (0x2)
        Serial Number:
            10:a6:c7:19:cc:1d:a5:ef:39:77:38:10:38:7f:f5:44
        Signature Algorithm: sha256WithRSAEncryption
        Issuer: CN=team597-net
        Validity
            Not Before: Sep 13 04:13:11 2021 GMT
            Not After : Aug 28 04:13:11 2024 GMT
        Subject: CN=team597-server
        Subject Public Key Info:
            Public Key Algorithm: rsaEncryption
                RSA Public-Key: (2048 bit)
                Modulus:
                    00:e3:8e:99:c5:4b:6b:df:ed:6f:7f:c0:99:a5:b6:
                    74:44:0c:1c:9c:a7:8e:1f:6c:49:71:c9:b7:8a:8c:
                    08:21:c5:35:9c:1e:2c:34:5e:fd:de:7b:b1:9e:6d:
                    0a:a0:fd:fe:cc:27:3d:45:26:68:68:e2:ea:a7:70:
                    81:fc:8b:f0:73:05:92:01:75:6e:88:64:28:c2:fa:
                    b5:b6:8f:ca:cc:d8:40:7f:58:e8:7f:b0:60:b6:33:
                    56:6a:d7:2a:df:38:39:b8:4e:fb:7b:28:d8:ec:26:
                    5a:75:ee:cb:b1:9b:ec:9a:6e:0b:3a:3e:2f:46:87:
                    1e:0f:47:ef:b7:a2:da:b0:24:53:28:08:bc:94:ec:
                    fe:c0:03:34:77:43:39:cb:a7:91:e0:82:b5:63:5d:
                    c2:28:2c:f3:cd:54:68:7a:ef:4f:af:d2:d1:56:25:
                    f8:4d:21:84:45:67:b6:63:93:0b:e5:df:f3:85:7b:
                    49:29:66:1e:d2:30:e3:da:88:77:6c:df:5f:0e:99:
                    cc:18:e3:d3:3b:ee:74:9b:df:78:75:d5:f5:cc:b3:
                    1c:10:30:26:3f:16:76:49:6f:b4:ea:dd:e9:74:66:
                    45:83:cc:e0:81:e3:9f:5c:25:d0:b6:f4:7d:b6:cb:
                    ec:62:20:21:5b:87:1a:ef:32:c4:29:83:e9:4e:39:
                    35:4d
                Exponent: 65537 (0x10001)
        X509v3 extensions:
            X509v3 Basic Constraints: 
                CA:FALSE
            X509v3 Subject Key Identifier: 
                7A:B0:AD:47:8C:0F:42:16:EE:A7:87:26:65:EF:2C:7B:7D:7C:E1:35
            X509v3 Authority Key Identifier: 
                keyid:55:8E:73:99:E0:84:04:32:1B:DA:AE:E4:08:8F:8F:21:43:0D:BB:AE
                DirName:/CN=team597-net
                serial:49:9B:A7:88:8B:19:5C:B3:44:F8:EB:40:11:36:AE:04:8E:EF:33:70

            X509v3 Extended Key Usage: 
                TLS Web Server Authentication
            X509v3 Key Usage: 
                Digital Signature, Key Encipherment
            X509v3 Subject Alternative Name: 
                DNS:team597-server
    Signature Algorithm: sha256WithRSAEncryption
         6f:52:9c:8d:2d:0e:d9:d1:87:a4:e8:bf:88:b2:b5:a7:56:83:
         da:ed:34:95:5f:13:89:b2:bc:e3:59:f1:32:a0:8d:7d:fe:8f:
         a7:b7:2d:32:f7:a5:8e:82:19:8f:62:06:7b:bb:9d:d9:96:0a:
         4a:1d:6e:aa:df:98:1d:6e:59:47:6d:d6:34:60:2c:b6:48:59:
         1f:52:fd:a1:2b:6e:26:32:f6:4b:f3:d3:11:ff:9b:d6:27:68:
         af:c1:3c:7a:8a:08:0e:08:34:37:e0:23:d6:1b:b3:bd:a2:65:
         8e:e2:68:26:ab:ce:2b:b2:ab:9a:af:50:d5:8e:cc:98:07:43:
         b2:f4:63:bf:88:a1:51:7b:35:ce:ee:d3:da:e8:b5:24:11:f3:
         28:b6:91:98:5f:41:dc:7b:4e:70:95:cc:42:bc:f6:59:8b:0a:
         7a:64:d1:3f:cf:68:bd:60:0e:8e:8f:a6:e1:b4:74:fc:cf:da:
         e2:73:45:a5:dc:eb:65:9f:7d:49:a7:2c:39:90:93:2f:7e:57:
         6d:65:f4:1d:c7:5e:a0:0a:29:c4:4b:17:8f:65:56:df:32:90:
         95:45:bf:1b:04:e8:0f:5c:9b:75:71:9e:79:98:4a:98:f6:67:
         f4:c3:6c:e2:da:48:99:8f:4a:87:ec:1e:03:88:fb:6e:f2:9d:
         43:d6:2f:40
-----BEGIN CERTIFICATE-----
MIIDdzCCAl+gAwIBAgIQEKbHGcwdpe85dzgQOH/1RDANBgkqhkiG9w0BAQsFADAW
MRQwEgYDVQQDDAt0ZWFtNTk3LW5ldDAeFw0yMTA5MTMwNDEzMTFaFw0yNDA4Mjgw
NDEzMTFaMBkxFzAVBgNVBAMMDnRlYW01OTctc2VydmVyMIIBIjANBgkqhkiG9w0B
AQEFAAOCAQ8AMIIBCgKCAQEA446ZxUtr3+1vf8CZpbZ0RAwcnKeOH2xJccm3iowI
IcU1nB4sNF793nuxnm0KoP3+zCc9RSZoaOLqp3CB/IvwcwWSAXVuiGQowvq1to/K
zNhAf1jof7BgtjNWatcq3zg5uE77eyjY7CZade7LsZvsmm4LOj4vRoceD0fvt6La
sCRTKAi8lOz+wAM0d0M5y6eR4IK1Y13CKCzzzVRoeu9Pr9LRViX4TSGERWe2Y5ML
5d/zhXtJKWYe0jDj2oh3bN9fDpnMGOPTO+50m994ddX1zLMcEDAmPxZ2SW+06t3p
dGZFg8zggeOfXCXQtvR9tsvsYiAhW4ca7zLEKYPpTjk1TQIDAQABo4G9MIG6MAkG
A1UdEwQCMAAwHQYDVR0OBBYEFHqwrUeMD0IW7qeHJmXvLHt9fOE1MFEGA1UdIwRK
MEiAFFWOc5nghAQyG9qu5AiPjyFDDbuuoRqkGDAWMRQwEgYDVQQDDAt0ZWFtNTk3
LW5ldIIUSZuniIsZXLNE+OtAETauBI7vM3AwEwYDVR0lBAwwCgYIKwYBBQUHAwEw
CwYDVR0PBAQDAgWgMBkGA1UdEQQSMBCCDnRlYW01OTctc2VydmVyMA0GCSqGSIb3
DQEBCwUAA4IBAQBvUpyNLQ7Z0Yek6L+IsrWnVoPa7TSVXxOJsrzjWfEyoI19/o+n
ty0y96WOghmPYgZ7u53ZlgpKHW6q35gdbllHbdY0YCy2SFkfUv2hK24mMvZL89MR
/5vWJ2ivwTx6iggOCDQ34CPWG7O9omWO4mgmq84rsquar1DVjsyYB0Oy9GO/iKFR
ezXO7tPa6LUkEfMotpGYX0Hce05wlcxCvPZZiwp6ZNE/z2i9YA6Oj6bhtHT8z9ri
c0Wl3Otln31Jpyw5kJMvfldtZfQdx16gCinESxePZVbfMpCVRb8bBOgPXJt1cZ55
mEqY9mf0w2zi2kiZj0qH7B4DiPtu8p1D1i9A
-----END CERTIFICATE-----
