Certificate:
    Data:
        Version: 3 (0x2)
        Serial Number:
            63:36:de:59:00:9a:2a:27:06:3b:69:9c:b3:55:d3:ff
        Signature Algorithm: sha256WithRSAEncryption
        Issuer: CN=team162-net
        Validity
            Not Before: Sep 13 00:10:47 2021 GMT
            Not After : Aug 28 00:10:47 2024 GMT
        Subject: CN=team162-client
        Subject Public Key Info:
            Public Key Algorithm: rsaEncryption
                RSA Public-Key: (2048 bit)
                Modulus:
                    00:e9:c7:6f:58:42:0a:77:fb:9d:a1:64:0c:78:7c:
                    6c:e4:7c:9c:a8:cf:96:79:19:21:d6:c0:42:ba:79:
                    5d:07:a7:2c:32:bd:83:f1:95:dc:bf:67:0a:58:40:
                    3f:25:da:8e:29:0c:e1:f6:47:91:e8:82:36:8c:2c:
                    e8:a9:23:5c:cb:da:c1:dd:a2:43:81:49:ea:ea:9a:
                    7e:76:c6:8b:05:e1:05:85:43:ea:7e:f1:28:33:98:
                    0d:8d:2b:de:58:4d:2b:93:71:29:9f:bb:8e:15:4d:
                    33:b7:4c:35:f0:32:98:f1:d9:c8:4f:86:fa:48:9a:
                    32:d0:77:42:09:f5:30:5a:0b:9b:0e:7b:13:c0:58:
                    49:5f:2a:6a:c2:e9:d4:8f:b2:c3:a3:71:65:a8:ff:
                    e6:09:8e:86:ee:04:f0:c8:15:89:e1:dc:96:fb:f5:
                    bd:e0:a8:70:17:1c:cd:ef:00:e6:58:3b:65:0f:8c:
                    e4:f7:04:e9:1e:22:41:5f:6d:30:de:c7:70:92:ed:
                    b8:57:00:be:00:b5:b2:db:c6:31:2e:74:83:0c:f4:
                    a7:95:d1:e6:54:91:31:d4:e8:8f:3f:43:53:e2:11:
                    34:f4:db:59:c8:4c:1e:ca:b4:c4:a7:c1:65:fb:a7:
                    dc:19:88:fe:10:70:04:24:88:16:50:17:22:fa:b5:
                    16:cf
                Exponent: 65537 (0x10001)
        X509v3 extensions:
            X509v3 Basic Constraints: 
                CA:FALSE
            X509v3 Subject Key Identifier: 
                AA:00:00:45:DF:81:21:4F:09:1A:48:5D:29:2A:4F:E0:F5:45:6E:F6
            X509v3 Authority Key Identifier: 
                keyid:2F:36:57:C9:E6:7A:7E:2E:91:EC:EC:CD:63:50:52:08:3A:7F:DA:A9
                DirName:/CN=team162-net
                serial:07:20:46:D5:8D:37:E0:33:8A:F1:1D:11:16:7D:26:03:23:94:BE:CA

            X509v3 Extended Key Usage: 
                TLS Web Client Authentication
            X509v3 Key Usage: 
                Digital Signature
    Signature Algorithm: sha256WithRSAEncryption
         a1:9d:fa:61:47:75:f2:f2:5f:cb:23:56:53:bd:c4:24:d3:79:
         1f:c1:3d:05:98:18:b0:0b:5d:39:69:c2:bb:3e:f6:34:12:bc:
         b9:91:2e:43:3d:23:08:4b:f8:84:87:1f:ff:df:6a:ad:f4:64:
         7d:af:19:03:c4:f2:cc:59:9d:6b:61:d9:80:da:71:5a:c9:b4:
         cb:98:fa:4f:c6:61:f2:a6:45:a8:95:88:fb:45:3f:5f:3d:22:
         74:9c:84:fb:fe:af:d3:7a:38:a1:d5:a3:c8:49:04:e4:ea:0f:
         6c:78:e6:9d:9d:a4:bb:8f:61:ec:85:53:46:7e:d3:67:52:fb:
         59:1c:a4:86:3d:a4:07:a9:75:5c:d8:01:f6:f4:8a:c4:e9:db:
         6e:8d:41:c5:74:d0:0c:bd:d2:a4:33:06:68:71:a1:8d:c5:13:
         bf:78:6a:f5:24:14:e4:20:86:16:81:46:79:34:2a:18:0c:40:
         b0:4f:ee:58:a2:05:1c:14:24:f5:a0:2f:7b:f1:3d:2c:d3:62:
         9c:0b:15:43:87:a1:0c:5a:2f:63:8d:fb:4f:89:21:6e:3e:60:
         14:b5:0a:8c:40:bd:12:06:4f:96:f0:f1:4a:49:5c:fc:5d:ac:
         11:25:54:a3:7a:3f:39:f2:7b:6c:53:5e:7d:8c:11:13:8a:cb:
         2b:47:be:a5
-----BEGIN CERTIFICATE-----
MIIDXDCCAkSgAwIBAgIQYzbeWQCaKicGO2mcs1XT/zANBgkqhkiG9w0BAQsFADAW
MRQwEgYDVQQDDAt0ZWFtMTYyLW5ldDAeFw0yMTA5MTMwMDEwNDdaFw0yNDA4Mjgw
MDEwNDdaMBkxFzAVBgNVBAMMDnRlYW0xNjItY2xpZW50MIIBIjANBgkqhkiG9w0B
AQEFAAOCAQ8AMIIBCgKCAQEA6cdvWEIKd/udoWQMeHxs5HycqM+WeRkh1sBCunld
B6csMr2D8ZXcv2cKWEA/JdqOKQzh9keR6II2jCzoqSNcy9rB3aJDgUnq6pp+dsaL
BeEFhUPqfvEoM5gNjSveWE0rk3Epn7uOFU0zt0w18DKY8dnIT4b6SJoy0HdCCfUw
WgubDnsTwFhJXypqwunUj7LDo3FlqP/mCY6G7gTwyBWJ4dyW+/W94KhwFxzN7wDm
WDtlD4zk9wTpHiJBX20w3sdwku24VwC+ALWy28YxLnSDDPSnldHmVJEx1OiPP0NT
4hE09NtZyEweyrTEp8Fl+6fcGYj+EHAEJIgWUBci+rUWzwIDAQABo4GiMIGfMAkG
A1UdEwQCMAAwHQYDVR0OBBYEFKoAAEXfgSFPCRpIXSkqT+D1RW72MFEGA1UdIwRK
MEiAFC82V8nmen4ukezszWNQUgg6f9qpoRqkGDAWMRQwEgYDVQQDDAt0ZWFtMTYy
LW5ldIIUByBG1Y034DOK8R0RFn0mAyOUvsowEwYDVR0lBAwwCgYIKwYBBQUHAwIw
CwYDVR0PBAQDAgeAMA0GCSqGSIb3DQEBCwUAA4IBAQChnfphR3Xy8l/LI1ZTvcQk
03kfwT0FmBiwC105acK7PvY0Ery5kS5DPSMIS/iEhx//32qt9GR9rxkDxPLMWZ1r
YdmA2nFaybTLmPpPxmHypkWolYj7RT9fPSJ0nIT7/q/Tejih1aPISQTk6g9seOad
naS7j2HshVNGftNnUvtZHKSGPaQHqXVc2AH29IrE6dtujUHFdNAMvdKkMwZocaGN
xRO/eGr1JBTkIIYWgUZ5NCoYDECwT+5YogUcFCT1oC978T0s02KcCxVDh6EMWi9j
jftPiSFuPmAUtQqMQL0SBk+W8PFKSVz8XawRJVSjej858ntsU159jBETissrR76l
-----END CERTIFICATE-----
