Certificate:
    Data:
        Version: 3 (0x2)
        Serial Number:
            fc:9c:f6:4f:ca:a8:f1:16:e0:72:4b:8b:a4:28:53:74
        Signature Algorithm: sha256WithRSAEncryption
        Issuer: CN=team162-net
        Validity
            Not Before: Sep 13 00:10:48 2021 GMT
            Not After : Aug 28 00:10:48 2024 GMT
        Subject: CN=team162-server
        Subject Public Key Info:
            Public Key Algorithm: rsaEncryption
                RSA Public-Key: (2048 bit)
                Modulus:
                    00:d7:13:bc:9b:65:4d:ff:fd:3b:7c:8a:6d:e1:5b:
                    9d:73:07:aa:52:a4:d7:df:2d:f9:92:90:c0:ef:33:
                    9e:a5:0a:67:a3:c0:c4:8a:fc:02:1c:28:de:ad:9d:
                    f8:b4:03:93:2c:cd:d7:f9:b9:f7:f4:f7:5f:77:c3:
                    37:cb:62:ba:a5:a5:be:8b:eb:4c:b8:bb:c9:9a:0e:
                    4a:86:7b:76:91:55:07:b0:0b:60:b5:04:d7:12:a8:
                    d0:f0:9a:f9:2d:10:ec:05:9e:99:0d:c0:f5:7c:d5:
                    4a:ff:7d:e5:9f:78:74:3e:50:08:81:1d:82:a8:a1:
                    87:71:4f:cf:ce:90:48:2a:ca:8b:a1:5a:0a:47:be:
                    4f:db:29:aa:b2:51:9e:ed:ef:22:5a:6f:c2:7c:23:
                    12:ff:ab:f3:66:22:32:f6:ff:05:8b:c3:45:15:52:
                    34:a6:6c:05:cb:d8:45:32:96:95:8a:67:12:24:b3:
                    3a:e6:54:be:37:b2:66:30:76:61:1a:22:da:a2:c9:
                    54:a1:d7:31:3f:2e:e9:cf:81:4f:ed:fa:ee:32:f2:
                    72:7e:e1:a9:2b:db:cd:b8:4b:37:06:30:15:50:08:
                    22:6e:4c:89:43:e4:9f:e0:58:cb:f3:b5:9d:68:75:
                    6b:60:88:f7:b3:d1:d5:bd:3c:f7:d1:9f:c7:11:7f:
                    26:5d
                Exponent: 65537 (0x10001)
        X509v3 extensions:
            X509v3 Basic Constraints: 
                CA:FALSE
            X509v3 Subject Key Identifier: 
                D6:29:C0:BF:D9:92:27:4F:23:6C:B1:14:5D:3F:44:81:11:1E:B0:7B
            X509v3 Authority Key Identifier: 
                keyid:2F:36:57:C9:E6:7A:7E:2E:91:EC:EC:CD:63:50:52:08:3A:7F:DA:A9
                DirName:/CN=team162-net
                serial:07:20:46:D5:8D:37:E0:33:8A:F1:1D:11:16:7D:26:03:23:94:BE:CA

            X509v3 Extended Key Usage: 
                TLS Web Server Authentication
            X509v3 Key Usage: 
                Digital Signature, Key Encipherment
            X509v3 Subject Alternative Name: 
                DNS:team162-server
    Signature Algorithm: sha256WithRSAEncryption
         24:af:f9:c8:d5:4b:68:7c:64:20:81:77:a0:9e:38:f4:19:ad:
         c3:e8:5e:49:e3:dc:21:b3:b6:ce:3c:f6:cc:a3:85:17:6e:50:
         8e:f3:86:9f:4b:3d:5d:18:34:55:b3:5c:e2:02:4e:77:37:6e:
         4c:c3:a1:6e:be:24:ad:fa:d2:0e:9d:83:89:a7:60:0f:d8:f1:
         89:c1:80:da:9b:04:62:33:7f:59:61:41:24:3d:c0:97:0a:ee:
         d6:76:d2:99:06:d8:50:f9:2b:62:8a:51:04:46:d3:a7:67:ff:
         ba:f5:f8:d8:7a:8f:ab:25:c8:53:1c:18:a0:95:1a:fb:ad:4a:
         37:ed:3e:e3:aa:7e:44:a9:50:2b:25:15:9f:b1:0d:14:30:07:
         3e:ca:3a:ca:19:79:2d:c7:38:1c:fc:b3:61:ba:f3:23:43:96:
         13:d9:95:10:85:a4:da:60:40:a8:b4:a2:73:ea:82:1d:93:3d:
         bd:b0:14:25:d1:9b:f8:f3:54:ac:ba:8a:eb:06:c5:ff:07:19:
         58:e4:98:82:c6:7c:50:dc:53:8a:db:86:4e:52:71:6d:b8:95:
         68:d5:1b:61:94:ad:a4:63:7b:09:f8:9b:60:33:88:aa:a1:4e:
         ce:ab:36:b8:b6:6f:75:30:ef:f6:66:67:72:89:d8:30:ae:45:
         14:5b:81:2a
-----BEGIN CERTIFICATE-----
MIIDeDCCAmCgAwIBAgIRAPyc9k/KqPEW4HJLi6QoU3QwDQYJKoZIhvcNAQELBQAw
FjEUMBIGA1UEAwwLdGVhbTE2Mi1uZXQwHhcNMjEwOTEzMDAxMDQ4WhcNMjQwODI4
MDAxMDQ4WjAZMRcwFQYDVQQDDA50ZWFtMTYyLXNlcnZlcjCCASIwDQYJKoZIhvcN
AQEBBQADggEPADCCAQoCggEBANcTvJtlTf/9O3yKbeFbnXMHqlKk198t+ZKQwO8z
nqUKZ6PAxIr8Ahwo3q2d+LQDkyzN1/m59/T3X3fDN8tiuqWlvovrTLi7yZoOSoZ7
dpFVB7ALYLUE1xKo0PCa+S0Q7AWemQ3A9XzVSv995Z94dD5QCIEdgqihh3FPz86Q
SCrKi6FaCke+T9spqrJRnu3vIlpvwnwjEv+r82YiMvb/BYvDRRVSNKZsBcvYRTKW
lYpnEiSzOuZUvjeyZjB2YRoi2qLJVKHXMT8u6c+BT+367jLycn7hqSvbzbhLNwYw
FVAIIm5MiUPkn+BYy/O1nWh1a2CI97PR1b0899GfxxF/Jl0CAwEAAaOBvTCBujAJ
BgNVHRMEAjAAMB0GA1UdDgQWBBTWKcC/2ZInTyNssRRdP0SBER6wezBRBgNVHSME
SjBIgBQvNlfJ5np+LpHs7M1jUFIIOn/aqaEapBgwFjEUMBIGA1UEAwwLdGVhbTE2
Mi1uZXSCFAcgRtWNN+AzivEdERZ9JgMjlL7KMBMGA1UdJQQMMAoGCCsGAQUFBwMB
MAsGA1UdDwQEAwIFoDAZBgNVHREEEjAQgg50ZWFtMTYyLXNlcnZlcjANBgkqhkiG
9w0BAQsFAAOCAQEAJK/5yNVLaHxkIIF3oJ449Bmtw+heSePcIbO2zjz2zKOFF25Q
jvOGn0s9XRg0VbNc4gJOdzduTMOhbr4krfrSDp2DiadgD9jxicGA2psEYjN/WWFB
JD3Alwru1nbSmQbYUPkrYopRBEbTp2f/uvX42HqPqyXIUxwYoJUa+61KN+0+46p+
RKlQKyUVn7ENFDAHPso6yhl5Lcc4HPyzYbrzI0OWE9mVEIWk2mBAqLSic+qCHZM9
vbAUJdGb+PNUrLqK6wbF/wcZWOSYgsZ8UNxTituGTlJxbbiVaNUbYZStpGN7Cfib
YDOIqqFOzqs2uLZvdTDv9mZnconYMK5FFFuBKg==
-----END CERTIFICATE-----
