Certificate:
    Data:
        Version: 3 (0x2)
        Serial Number:
            fd:4b:e9:82:6b:19:f1:59:05:dc:83:4a:0b:ff:10:b8
        Signature Algorithm: sha256WithRSAEncryption
        Issuer: CN=team563-net
        Validity
            Not Before: Sep 13 03:37:55 2021 GMT
            Not After : Aug 28 03:37:55 2024 GMT
        Subject: CN=team563-server
        Subject Public Key Info:
            Public Key Algorithm: rsaEncryption
                RSA Public-Key: (2048 bit)
                Modulus:
                    00:98:09:84:78:7a:a7:e9:71:c6:c6:b1:0e:fa:25:
                    41:b9:e8:74:eb:3d:ce:a2:07:eb:82:d1:a6:cb:ff:
                    5e:50:d6:e9:99:61:8f:fe:f3:e0:70:14:1b:16:bf:
                    f5:4d:83:9e:3a:f9:c0:22:0b:52:29:e5:bf:95:52:
                    3f:52:0e:87:8a:d3:94:12:26:0d:3a:9a:de:4e:12:
                    e0:ce:fd:cb:35:06:68:ef:e5:66:49:40:33:6a:3d:
                    45:44:e0:36:93:48:ac:5d:ef:71:6e:70:46:2c:02:
                    a3:8a:a8:31:34:9f:0c:1e:da:e4:43:50:6a:0f:e9:
                    75:61:ba:b1:eb:f4:3b:f9:90:bd:3c:87:73:62:bb:
                    91:16:0a:13:fa:f8:56:48:fa:fa:51:1f:ca:54:99:
                    59:a0:72:db:23:c4:4d:1f:48:16:b7:01:fd:f8:86:
                    a1:73:4f:59:7b:d6:9d:aa:81:cf:c2:f7:55:4a:ee:
                    e4:50:76:f3:21:c2:ee:9a:80:f7:a6:ee:a4:d3:9f:
                    e0:ab:01:46:30:d8:82:8a:1a:ab:d9:f0:5e:8a:a0:
                    9c:59:56:ee:cd:88:33:ff:cb:1a:b0:e0:36:26:5b:
                    fd:32:56:9f:ca:cd:d6:59:99:26:22:f2:73:1f:21:
                    04:24:36:5c:96:16:b4:6b:81:96:02:20:3c:ba:08:
                    0d:89
                Exponent: 65537 (0x10001)
        X509v3 extensions:
            X509v3 Basic Constraints: 
                CA:FALSE
            X509v3 Subject Key Identifier: 
                3B:95:63:EE:9E:A8:9C:BC:AF:2F:CD:22:02:0E:7D:BE:D1:38:32:3C
            X509v3 Authority Key Identifier: 
                keyid:27:F6:A2:48:C8:E9:0D:76:79:FA:FE:23:C6:EF:92:2F:13:DC:86:CE
                DirName:/CN=team563-net
                serial:2C:57:75:FF:12:3A:F5:81:CE:11:16:4E:03:01:DD:79:BF:20:5F:A0

            X509v3 Extended Key Usage: 
                TLS Web Server Authentication
            X509v3 Key Usage: 
                Digital Signature, Key Encipherment
            X509v3 Subject Alternative Name: 
                DNS:team563-server
    Signature Algorithm: sha256WithRSAEncryption
         5b:02:6b:06:85:c0:b2:cc:0f:70:d0:16:29:c3:4f:ac:02:2c:
         38:a9:7d:73:79:9c:80:f9:e5:83:cf:f4:ca:70:2e:7a:12:cd:
         7c:38:c2:e7:a1:56:41:13:83:73:11:af:ba:70:61:c3:65:be:
         55:10:81:01:78:e8:ee:b8:d5:0a:26:a4:83:a0:33:1f:a3:e2:
         27:e7:df:29:56:50:e1:99:bf:ea:b7:a2:6d:e2:37:63:d9:ae:
         3b:7b:fb:f5:6e:77:9d:25:9f:9f:c1:8f:db:92:d9:3a:22:54:
         d4:ad:5b:c3:2a:c5:99:78:c1:0b:da:e9:69:66:3e:b7:21:2a:
         00:c9:5d:08:54:8c:75:c4:04:6e:fd:fd:44:94:d6:59:f5:f5:
         88:30:4e:77:7e:3c:e4:71:0f:01:ff:32:92:e8:a5:02:03:f7:
         6b:d6:b3:19:58:25:30:94:fc:50:3b:93:82:25:74:30:e2:a9:
         ac:d1:9d:02:c0:ab:c0:d1:a8:94:f3:fb:3c:b2:60:28:fd:65:
         a2:35:c0:38:91:77:83:2d:11:a8:a6:4f:79:07:49:d7:cc:04:
         06:17:59:89:d5:dc:e3:58:53:d5:f6:39:1a:29:ee:a6:26:3d:
         6f:d4:ab:3a:54:31:7d:90:2b:57:16:e1:ac:5f:17:c0:e4:57:
         e7:9f:e6:1a
-----BEGIN CERTIFICATE-----
MIIDeDCCAmCgAwIBAgIRAP1L6YJrGfFZBdyDSgv/ELgwDQYJKoZIhvcNAQELBQAw
FjEUMBIGA1UEAwwLdGVhbTU2My1uZXQwHhcNMjEwOTEzMDMzNzU1WhcNMjQwODI4
MDMzNzU1WjAZMRcwFQYDVQQDDA50ZWFtNTYzLXNlcnZlcjCCASIwDQYJKoZIhvcN
AQEBBQADggEPADCCAQoCggEBAJgJhHh6p+lxxsaxDvolQbnodOs9zqIH64LRpsv/
XlDW6Zlhj/7z4HAUGxa/9U2Dnjr5wCILUinlv5VSP1IOh4rTlBImDTqa3k4S4M79
yzUGaO/lZklAM2o9RUTgNpNIrF3vcW5wRiwCo4qoMTSfDB7a5ENQag/pdWG6sev0
O/mQvTyHc2K7kRYKE/r4Vkj6+lEfylSZWaBy2yPETR9IFrcB/fiGoXNPWXvWnaqB
z8L3VUru5FB28yHC7pqA96bupNOf4KsBRjDYgooaq9nwXoqgnFlW7s2IM//LGrDg
NiZb/TJWn8rN1lmZJiLycx8hBCQ2XJYWtGuBlgIgPLoIDYkCAwEAAaOBvTCBujAJ
BgNVHRMEAjAAMB0GA1UdDgQWBBQ7lWPunqicvK8vzSICDn2+0TgyPDBRBgNVHSME
SjBIgBQn9qJIyOkNdnn6/iPG75IvE9yGzqEapBgwFjEUMBIGA1UEAwwLdGVhbTU2
My1uZXSCFCxXdf8SOvWBzhEWTgMB3Xm/IF+gMBMGA1UdJQQMMAoGCCsGAQUFBwMB
MAsGA1UdDwQEAwIFoDAZBgNVHREEEjAQgg50ZWFtNTYzLXNlcnZlcjANBgkqhkiG
9w0BAQsFAAOCAQEAWwJrBoXAsswPcNAWKcNPrAIsOKl9c3mcgPnlg8/0ynAuehLN
fDjC56FWQRODcxGvunBhw2W+VRCBAXjo7rjVCiakg6AzH6PiJ+ffKVZQ4Zm/6rei
beI3Y9muO3v79W53nSWfn8GP25LZOiJU1K1bwyrFmXjBC9rpaWY+tyEqAMldCFSM
dcQEbv39RJTWWfX1iDBOd3485HEPAf8ykuilAgP3a9azGVglMJT8UDuTgiV0MOKp
rNGdAsCrwNGolPP7PLJgKP1lojXAOJF3gy0RqKZPeQdJ18wEBhdZidXc41hT1fY5
GinupiY9b9SrOlQxfZArVxbhrF8XwORX55/mGg==
-----END CERTIFICATE-----
