Certificate:
    Data:
        Version: 3 (0x2)
        Serial Number:
            92:86:d0:42:1b:5f:da:12:5f:ad:42:e1:0b:c7:f9:e7
        Signature Algorithm: sha256WithRSAEncryption
        Issuer: CN=team493-net
        Validity
            Not Before: Sep 13 03:11:33 2021 GMT
            Not After : Aug 28 03:11:33 2024 GMT
        Subject: CN=team493-client
        Subject Public Key Info:
            Public Key Algorithm: rsaEncryption
                RSA Public-Key: (2048 bit)
                Modulus:
                    00:c9:73:fa:d8:7c:f7:36:21:1f:42:d3:61:2d:c5:
                    48:c4:7f:b9:e2:c8:cc:05:97:a4:de:3c:ea:22:65:
                    5a:b6:ed:64:2d:41:06:a8:2d:30:12:5f:32:43:9f:
                    0b:df:bc:6b:7f:80:aa:ed:13:5b:9c:f5:3e:39:65:
                    f0:fd:9f:bb:3f:2f:b8:3d:64:55:98:f5:f4:c0:fb:
                    1d:da:76:c6:48:f1:6d:23:ea:1f:3e:31:c2:42:5b:
                    b8:65:97:dc:3c:eb:2f:f9:ab:c0:30:c3:cc:0c:d7:
                    2b:ae:ed:6b:25:cf:e2:c1:f5:49:f8:d8:1e:4c:25:
                    f7:06:f8:c9:e7:bb:aa:07:9a:fa:ca:55:26:8a:f7:
                    e3:e6:b0:8f:e0:eb:68:1a:64:33:9a:b1:e8:b9:09:
                    78:d8:0f:74:3a:d0:d9:d3:13:c6:3b:ed:28:6e:ad:
                    1c:30:aa:43:34:be:cf:f4:ef:7f:74:1e:cb:af:05:
                    08:95:79:10:2d:f5:cb:3a:4c:6f:02:2a:0d:d6:c4:
                    97:91:61:ab:76:29:10:3c:d1:6f:47:2a:f2:96:cd:
                    6e:8d:3a:52:0e:db:52:c9:bd:3f:f9:45:a0:8a:ff:
                    c1:2a:ee:9e:f1:5d:ee:c4:86:4d:39:77:2d:ff:9d:
                    3b:08:6f:1a:70:c2:f3:75:20:2a:ec:42:70:74:48:
                    e0:85
                Exponent: 65537 (0x10001)
        X509v3 extensions:
            X509v3 Basic Constraints: 
                CA:FALSE
            X509v3 Subject Key Identifier: 
                8F:F4:64:54:B0:05:4A:18:00:7F:A8:2D:F3:BF:75:42:50:FC:E3:CB
            X509v3 Authority Key Identifier: 
                keyid:93:1F:BB:20:66:70:B5:9C:AC:92:21:F0:6B:5E:6C:6B:15:F6:7A:50
                DirName:/CN=team493-net
                serial:7B:DC:EB:2D:93:FD:8F:D5:7D:44:5A:4E:08:F5:58:97:7D:1D:0B:6F

            X509v3 Extended Key Usage: 
                TLS Web Client Authentication
            X509v3 Key Usage: 
                Digital Signature
    Signature Algorithm: sha256WithRSAEncryption
         00:48:83:28:3e:22:27:7f:dd:c4:e7:f1:4a:ad:f0:70:5a:b9:
         19:5f:02:42:92:d9:22:bd:34:42:ed:58:d7:b4:ba:b7:39:5a:
         4b:01:fd:b1:8b:20:b7:cf:55:9f:43:62:15:2b:4b:52:1a:b6:
         ef:cc:b1:03:5e:b0:a3:5a:de:64:1b:cd:d4:c1:dc:99:78:ed:
         3b:ef:0f:e3:5e:2d:7b:c5:67:10:c1:f7:a1:9c:e5:bb:fc:9c:
         e0:7e:6f:3d:ce:bb:e8:7c:39:63:e3:f8:d0:18:67:0b:23:b1:
         9d:91:e8:02:7f:bc:17:a7:00:89:94:f0:80:ee:ac:7d:b8:99:
         fe:0b:1e:58:e7:27:f5:21:1d:c7:a7:b0:b7:a7:6f:7d:a6:70:
         f7:c5:3b:0f:21:f2:15:c6:c5:91:de:a5:7c:85:94:e7:a6:be:
         2c:66:78:27:ba:1f:1e:22:f6:7d:a0:d8:3c:31:31:24:d2:40:
         4c:17:93:07:7c:38:ab:0a:29:36:42:ef:94:d0:2e:9b:61:db:
         2b:83:8e:52:a8:a4:f1:aa:5e:cc:37:52:42:f4:38:9e:dc:55:
         98:e7:da:f8:74:23:cf:12:82:ab:c8:99:4f:1b:a9:4d:66:33:
         fe:34:8f:cb:f5:6b:70:6e:25:18:10:3d:17:fb:85:40:7a:c4:
         2f:67:56:68
-----BEGIN CERTIFICATE-----
MIIDXTCCAkWgAwIBAgIRAJKG0EIbX9oSX61C4QvH+ecwDQYJKoZIhvcNAQELBQAw
FjEUMBIGA1UEAwwLdGVhbTQ5My1uZXQwHhcNMjEwOTEzMDMxMTMzWhcNMjQwODI4
MDMxMTMzWjAZMRcwFQYDVQQDDA50ZWFtNDkzLWNsaWVudDCCASIwDQYJKoZIhvcN
AQEBBQADggEPADCCAQoCggEBAMlz+th89zYhH0LTYS3FSMR/ueLIzAWXpN486iJl
WrbtZC1BBqgtMBJfMkOfC9+8a3+Aqu0TW5z1Pjll8P2fuz8vuD1kVZj19MD7Hdp2
xkjxbSPqHz4xwkJbuGWX3DzrL/mrwDDDzAzXK67tayXP4sH1SfjYHkwl9wb4yee7
qgea+spVJor34+awj+DraBpkM5qx6LkJeNgPdDrQ2dMTxjvtKG6tHDCqQzS+z/Tv
f3Qey68FCJV5EC31yzpMbwIqDdbEl5Fhq3YpEDzRb0cq8pbNbo06Ug7bUsm9P/lF
oIr/wSrunvFd7sSGTTl3Lf+dOwhvGnDC83UgKuxCcHRI4IUCAwEAAaOBojCBnzAJ
BgNVHRMEAjAAMB0GA1UdDgQWBBSP9GRUsAVKGAB/qC3zv3VCUPzjyzBRBgNVHSME
SjBIgBSTH7sgZnC1nKySIfBrXmxrFfZ6UKEapBgwFjEUMBIGA1UEAwwLdGVhbTQ5
My1uZXSCFHvc6y2T/Y/VfURaTgj1WJd9HQtvMBMGA1UdJQQMMAoGCCsGAQUFBwMC
MAsGA1UdDwQEAwIHgDANBgkqhkiG9w0BAQsFAAOCAQEAAEiDKD4iJ3/dxOfxSq3w
cFq5GV8CQpLZIr00Qu1Y17S6tzlaSwH9sYsgt89Vn0NiFStLUhq278yxA16wo1re
ZBvN1MHcmXjtO+8P414te8VnEMH3oZzlu/yc4H5vPc676Hw5Y+P40BhnCyOxnZHo
An+8F6cAiZTwgO6sfbiZ/gseWOcn9SEdx6ewt6dvfaZw98U7DyHyFcbFkd6lfIWU
56a+LGZ4J7ofHiL2faDYPDExJNJATBeTB3w4qwopNkLvlNAum2HbK4OOUqik8ape
zDdSQvQ4ntxVmOfa+HQjzxKCq8iZTxupTWYz/jSPy/VrcG4lGBA9F/uFQHrEL2dW
aA==
-----END CERTIFICATE-----
