Certificate:
    Data:
        Version: 3 (0x2)
        Serial Number:
            bc:6f:59:5a:d3:a4:94:30:de:1a:7c:5e:b7:b7:ad:73
        Signature Algorithm: sha256WithRSAEncryption
        Issuer: CN=team285-net
        Validity
            Not Before: Sep 13 01:21:09 2021 GMT
            Not After : Aug 28 01:21:09 2024 GMT
        Subject: CN=team285-server
        Subject Public Key Info:
            Public Key Algorithm: rsaEncryption
                RSA Public-Key: (2048 bit)
                Modulus:
                    00:bb:e3:d5:12:a1:d5:2c:2e:ab:6a:a2:91:27:b1:
                    e7:f4:ef:a0:b5:fb:ad:3c:2f:8f:95:d3:a3:e6:9f:
                    97:24:81:11:b7:b8:6c:2a:e8:00:15:87:b0:50:24:
                    8d:97:3a:fc:26:f5:a5:92:10:e2:6e:2b:6c:48:36:
                    b6:88:2e:ac:dd:53:b2:8f:dc:6d:a1:e0:64:8d:70:
                    59:3d:af:63:a5:3e:1e:96:bf:9c:18:b4:0f:50:e0:
                    23:41:9e:e7:b1:92:04:a2:23:05:36:f7:7d:65:6c:
                    d6:51:df:bd:66:3a:c9:3c:29:54:d3:fc:eb:4c:b8:
                    9a:9e:56:30:a7:64:e2:f5:b6:bd:96:d4:d6:06:7a:
                    9f:c9:c6:08:51:6e:5f:c7:53:ba:65:df:34:fa:ba:
                    95:e1:51:e1:e0:b2:5f:bb:0e:5d:08:ce:38:80:1c:
                    57:cf:97:1e:0f:91:9f:fd:fb:17:b6:14:13:34:4b:
                    f2:70:a2:99:ad:dd:6e:25:08:43:31:a2:f2:ec:85:
                    96:ff:26:0b:0e:5b:21:fb:b6:e9:c8:8d:d7:87:f0:
                    0c:d7:54:0f:38:eb:b3:5a:6c:4b:29:cc:21:55:97:
                    1e:85:e6:79:06:78:b9:65:c8:14:c4:7c:43:1f:af:
                    78:09:41:c3:9f:1b:aa:44:af:f2:f4:f6:c4:b0:eb:
                    34:8d
                Exponent: 65537 (0x10001)
        X509v3 extensions:
            X509v3 Basic Constraints: 
                CA:FALSE
            X509v3 Subject Key Identifier: 
                D0:F4:A5:23:D9:16:CF:80:BA:A5:72:0B:38:D8:96:93:F2:BF:39:C4
            X509v3 Authority Key Identifier: 
                keyid:D4:9B:94:49:53:D5:B3:A2:CB:F7:21:0A:7E:C7:28:35:F9:C9:51:52
                DirName:/CN=team285-net
                serial:4D:73:28:83:51:F5:F7:57:E0:23:6E:49:04:DF:42:9E:E9:45:6F:18

            X509v3 Extended Key Usage: 
                TLS Web Server Authentication
            X509v3 Key Usage: 
                Digital Signature, Key Encipherment
            X509v3 Subject Alternative Name: 
                DNS:team285-server
    Signature Algorithm: sha256WithRSAEncryption
         10:b6:e8:c4:e8:a9:76:15:96:88:fc:f2:48:ce:11:f4:e8:72:
         f1:0f:61:7b:51:aa:02:a8:68:1c:cc:7d:01:15:03:fc:c6:0a:
         55:26:0e:50:b4:96:3c:c5:64:b0:a4:c0:ad:dd:b5:bc:ee:46:
         9b:75:dc:81:78:44:02:a3:4f:14:09:26:7b:ca:6f:10:d0:e8:
         44:56:f8:11:d5:1f:62:17:4b:6e:d1:37:e3:56:97:3e:82:54:
         18:20:12:ba:df:5a:38:dd:99:62:ea:cb:c1:18:29:8a:13:7c:
         fb:22:c1:67:40:5b:f7:c2:fe:eb:09:c0:c6:a4:69:83:c3:34:
         0c:0c:f5:d3:b7:5b:88:1a:9f:0f:1a:8d:21:b5:f5:b6:31:52:
         aa:b1:3d:c5:95:c9:2d:ca:9d:67:0e:b7:55:77:ea:4a:6b:6d:
         5d:2d:b6:70:a3:2b:86:b4:c2:6a:a9:63:10:55:69:6b:1e:7a:
         df:e5:61:13:a8:e1:7e:1b:21:b4:70:de:e8:6b:08:da:df:74:
         25:db:d5:3f:38:42:29:54:fc:5f:a1:87:e2:e4:dd:96:da:a8:
         51:bb:32:66:45:d5:9c:13:17:57:9d:7d:e3:66:ac:2e:15:cd:
         f6:80:65:0b:c2:29:65:23:e8:3a:17:16:2c:37:91:7e:7d:72:
         df:d9:8a:8b
-----BEGIN CERTIFICATE-----
MIIDeDCCAmCgAwIBAgIRALxvWVrTpJQw3hp8Xre3rXMwDQYJKoZIhvcNAQELBQAw
FjEUMBIGA1UEAwwLdGVhbTI4NS1uZXQwHhcNMjEwOTEzMDEyMTA5WhcNMjQwODI4
MDEyMTA5WjAZMRcwFQYDVQQDDA50ZWFtMjg1LXNlcnZlcjCCASIwDQYJKoZIhvcN
AQEBBQADggEPADCCAQoCggEBALvj1RKh1Swuq2qikSex5/TvoLX7rTwvj5XTo+af
lySBEbe4bCroABWHsFAkjZc6/Cb1pZIQ4m4rbEg2togurN1Tso/cbaHgZI1wWT2v
Y6U+Hpa/nBi0D1DgI0Ge57GSBKIjBTb3fWVs1lHfvWY6yTwpVNP860y4mp5WMKdk
4vW2vZbU1gZ6n8nGCFFuX8dTumXfNPq6leFR4eCyX7sOXQjOOIAcV8+XHg+Rn/37
F7YUEzRL8nCima3dbiUIQzGi8uyFlv8mCw5bIfu26ciN14fwDNdUDzjrs1psSynM
IVWXHoXmeQZ4uWXIFMR8Qx+veAlBw58bqkSv8vT2xLDrNI0CAwEAAaOBvTCBujAJ
BgNVHRMEAjAAMB0GA1UdDgQWBBTQ9KUj2RbPgLqlcgs42JaT8r85xDBRBgNVHSME
SjBIgBTUm5RJU9Wzosv3IQp+xyg1+clRUqEapBgwFjEUMBIGA1UEAwwLdGVhbTI4
NS1uZXSCFE1zKINR9fdX4CNuSQTfQp7pRW8YMBMGA1UdJQQMMAoGCCsGAQUFBwMB
MAsGA1UdDwQEAwIFoDAZBgNVHREEEjAQgg50ZWFtMjg1LXNlcnZlcjANBgkqhkiG
9w0BAQsFAAOCAQEAELboxOipdhWWiPzySM4R9Ohy8Q9he1GqAqhoHMx9ARUD/MYK
VSYOULSWPMVksKTArd21vO5Gm3XcgXhEAqNPFAkme8pvENDoRFb4EdUfYhdLbtE3
41aXPoJUGCASut9aON2ZYurLwRgpihN8+yLBZ0Bb98L+6wnAxqRpg8M0DAz107db
iBqfDxqNIbX1tjFSqrE9xZXJLcqdZw63VXfqSmttXS22cKMrhrTCaqljEFVpax56
3+VhE6jhfhshtHDe6GsI2t90JdvVPzhCKVT8X6GH4uTdltqoUbsyZkXVnBMXV519
42asLhXN9oBlC8IpZSPoOhcWLDeRfn1y39mKiw==
-----END CERTIFICATE-----
