Certificate:
    Data:
        Version: 3 (0x2)
        Serial Number:
            07:c6:bd:f7:1c:dd:47:6c:a6:58:93:04:8a:b8:4d:ab
        Signature Algorithm: sha256WithRSAEncryption
        Issuer: CN=team706-net
        Validity
            Not Before: Sep 13 04:53:07 2021 GMT
            Not After : Aug 28 04:53:07 2024 GMT
        Subject: CN=team706-server
        Subject Public Key Info:
            Public Key Algorithm: rsaEncryption
                RSA Public-Key: (2048 bit)
                Modulus:
                    00:ce:f6:1c:bf:ec:7e:06:14:ec:94:d4:1c:1e:dd:
                    8f:fb:cb:6e:47:31:a5:3c:d0:e1:83:2f:c7:8f:75:
                    2e:75:5a:e5:a3:69:49:5b:56:dd:ca:32:f7:16:40:
                    15:0e:5a:c3:01:a3:ea:69:0b:0f:f1:68:b6:1d:06:
                    96:52:0c:b4:11:44:c4:87:22:b9:22:f0:23:30:d7:
                    5c:e4:11:96:86:e8:01:4a:a1:07:fb:ee:ff:d3:1f:
                    86:13:66:36:7c:13:84:36:7a:8b:37:a6:af:0f:5a:
                    62:c4:36:9e:bc:fd:95:cf:c7:f3:a7:85:b6:fe:29:
                    4c:3d:c7:44:d1:31:4a:e0:2c:28:a8:3e:f8:5c:74:
                    f7:00:78:50:21:e8:e5:2f:12:c9:a0:77:52:a5:01:
                    32:87:3d:bf:41:99:fd:51:66:c9:45:c6:56:f1:53:
                    e6:f5:20:6e:d9:62:64:e7:97:2d:c0:d7:9e:49:6a:
                    6e:a0:38:80:1e:27:77:d7:34:da:32:59:2f:43:98:
                    2a:18:52:a5:3a:0b:ea:31:b4:dc:f8:6f:35:27:4c:
                    ce:1e:ba:07:4f:24:8c:15:ca:4c:27:c5:2c:36:88:
                    3a:cd:61:ff:4c:63:3e:b5:16:db:e4:ac:71:03:96:
                    9a:37:07:b8:2c:6b:aa:6d:76:e9:94:b3:24:f6:0f:
                    9f:75
                Exponent: 65537 (0x10001)
        X509v3 extensions:
            X509v3 Basic Constraints: 
                CA:FALSE
            X509v3 Subject Key Identifier: 
                67:37:4B:A1:D7:E6:EE:E2:A6:D8:A8:EF:30:3E:A4:BC:3E:C4:CE:C3
            X509v3 Authority Key Identifier: 
                keyid:E3:C1:72:AF:1A:F9:15:EF:BC:B0:4C:B4:F7:2A:39:0C:BA:CD:C6:ED
                DirName:/CN=team706-net
                serial:6B:18:FB:39:B9:55:CD:E0:78:6B:75:6D:E2:CF:9F:C1:A9:3E:7A:3A

            X509v3 Extended Key Usage: 
                TLS Web Server Authentication
            X509v3 Key Usage: 
                Digital Signature, Key Encipherment
            X509v3 Subject Alternative Name: 
                DNS:team706-server
    Signature Algorithm: sha256WithRSAEncryption
         2b:51:ae:b7:87:04:59:d1:1b:80:ca:ce:6e:85:2b:81:60:cf:
         83:42:5f:36:ee:5f:e6:49:c0:0b:fc:e6:61:f3:8b:2a:43:65:
         17:ab:f4:0c:52:d1:af:71:26:05:c0:50:a2:58:7f:b7:17:38:
         0b:b9:70:55:2d:83:21:5e:29:a2:eb:a2:2d:b9:e2:99:a7:9b:
         3b:6a:43:76:53:65:b5:73:fc:94:75:e8:97:6f:5a:e7:ee:f3:
         59:32:7d:bf:ce:40:26:ab:64:75:d0:24:de:a1:4d:07:1c:48:
         26:18:45:ef:b3:93:ac:26:d4:b0:58:f5:fa:d4:41:b0:4c:79:
         31:50:fb:0e:a2:7a:a2:e8:56:35:ca:5c:36:3c:a2:ac:56:d4:
         25:57:1d:26:ce:98:81:bb:2b:38:4d:da:a5:e1:f6:01:92:7e:
         66:93:03:4c:e2:23:c6:ba:84:c3:6d:63:5d:b5:7b:33:4d:f6:
         dd:d0:33:eb:0b:d6:1b:f5:0e:8d:dd:2d:65:4c:43:71:b4:ca:
         37:d0:72:13:69:e1:49:ff:3f:f8:12:45:2c:52:a8:41:10:cf:
         de:fd:8a:cd:c6:95:15:03:5b:e8:c2:c2:6c:67:6f:e2:19:57:
         0b:1c:72:97:11:8a:1e:28:26:6a:f5:a9:6c:7c:bb:d7:ee:e0:
         69:88:2b:cb
-----BEGIN CERTIFICATE-----
MIIDdzCCAl+gAwIBAgIQB8a99xzdR2ymWJMEirhNqzANBgkqhkiG9w0BAQsFADAW
MRQwEgYDVQQDDAt0ZWFtNzA2LW5ldDAeFw0yMTA5MTMwNDUzMDdaFw0yNDA4Mjgw
NDUzMDdaMBkxFzAVBgNVBAMMDnRlYW03MDYtc2VydmVyMIIBIjANBgkqhkiG9w0B
AQEFAAOCAQ8AMIIBCgKCAQEAzvYcv+x+BhTslNQcHt2P+8tuRzGlPNDhgy/Hj3Uu
dVrlo2lJW1bdyjL3FkAVDlrDAaPqaQsP8Wi2HQaWUgy0EUTEhyK5IvAjMNdc5BGW
hugBSqEH++7/0x+GE2Y2fBOENnqLN6avD1pixDaevP2Vz8fzp4W2/ilMPcdE0TFK
4CwoqD74XHT3AHhQIejlLxLJoHdSpQEyhz2/QZn9UWbJRcZW8VPm9SBu2WJk55ct
wNeeSWpuoDiAHid31zTaMlkvQ5gqGFKlOgvqMbTc+G81J0zOHroHTySMFcpMJ8Us
Nog6zWH/TGM+tRbb5KxxA5aaNwe4LGuqbXbplLMk9g+fdQIDAQABo4G9MIG6MAkG
A1UdEwQCMAAwHQYDVR0OBBYEFGc3S6HX5u7iptio7zA+pLw+xM7DMFEGA1UdIwRK
MEiAFOPBcq8a+RXvvLBMtPcqOQy6zcbtoRqkGDAWMRQwEgYDVQQDDAt0ZWFtNzA2
LW5ldIIUaxj7OblVzeB4a3Vt4s+fwak+ejowEwYDVR0lBAwwCgYIKwYBBQUHAwEw
CwYDVR0PBAQDAgWgMBkGA1UdEQQSMBCCDnRlYW03MDYtc2VydmVyMA0GCSqGSIb3
DQEBCwUAA4IBAQArUa63hwRZ0RuAys5uhSuBYM+DQl827l/mScAL/OZh84sqQ2UX
q/QMUtGvcSYFwFCiWH+3FzgLuXBVLYMhXimi66ItueKZp5s7akN2U2W1c/yUdeiX
b1rn7vNZMn2/zkAmq2R10CTeoU0HHEgmGEXvs5OsJtSwWPX61EGwTHkxUPsOonqi
6FY1ylw2PKKsVtQlVx0mzpiBuys4Tdql4fYBkn5mkwNM4iPGuoTDbWNdtXszTfbd
0DPrC9Yb9Q6N3S1lTENxtMo30HITaeFJ/z/4EkUsUqhBEM/e/YrNxpUVA1vowsJs
Z2/iGVcLHHKXEYoeKCZq9alsfLvX7uBpiCvL
-----END CERTIFICATE-----
