Certificate:
    Data:
        Version: 3 (0x2)
        Serial Number:
            f9:f9:f9:37:24:fa:4f:3f:65:be:6e:8a:dc:87:04:dc
        Signature Algorithm: sha256WithRSAEncryption
        Issuer: CN=team679-net
        Validity
            Not Before: Sep 13 05:08:30 2021 GMT
            Not After : Aug 28 05:08:30 2024 GMT
        Subject: CN=team679-client
        Subject Public Key Info:
            Public Key Algorithm: rsaEncryption
                RSA Public-Key: (2048 bit)
                Modulus:
                    00:c9:fd:e2:3f:a9:00:4c:4c:8b:88:1c:5b:27:c6:
                    9d:ae:1a:50:9a:cf:47:71:4a:e9:86:62:d4:6e:57:
                    cc:28:2e:dd:e3:61:18:00:c2:2b:38:5d:f5:37:5f:
                    3b:aa:a4:a6:7e:1b:bf:89:f0:c0:81:3c:f0:f2:3e:
                    69:c2:ed:90:d2:41:0f:f3:c5:01:c0:9b:f1:9c:ee:
                    05:65:91:f1:d0:43:f7:46:d5:d2:17:9d:94:41:3c:
                    35:a3:ab:6c:f6:89:c4:36:5b:6e:6b:76:80:ad:79:
                    02:39:9e:0e:38:70:97:0f:27:3e:93:da:3b:ab:d1:
                    e2:4b:da:d5:5b:13:08:f6:8c:e5:3a:ae:f2:75:8b:
                    dd:bd:9b:d9:6a:14:66:46:c3:9e:b8:56:37:5d:64:
                    68:c8:d2:3a:a7:35:02:04:15:d8:73:8f:22:f0:b9:
                    cc:38:93:aa:75:c5:37:29:ed:28:5a:74:ec:bf:22:
                    47:99:52:9d:a8:5b:d1:bc:8c:d2:a2:4e:09:61:84:
                    37:84:46:de:1d:ad:51:6f:ac:74:4c:16:6e:90:32:
                    c5:78:7c:12:75:25:a2:6b:bc:27:a1:b1:f2:e7:f7:
                    7d:0f:72:bc:4e:ac:73:eb:8a:44:03:9c:62:8c:7e:
                    58:00:a8:f7:ef:ab:26:d5:99:99:2b:f1:06:18:fb:
                    f1:69
                Exponent: 65537 (0x10001)
        X509v3 extensions:
            X509v3 Basic Constraints: 
                CA:FALSE
            X509v3 Subject Key Identifier: 
                1B:98:EB:2D:AA:3B:30:5C:30:E5:EF:B5:9F:3A:72:0C:B7:58:2D:92
            X509v3 Authority Key Identifier: 
                keyid:1E:B7:66:DD:68:77:B2:79:60:B3:36:8F:B8:0A:D7:58:B7:DD:1B:EA
                DirName:/CN=team679-net
                serial:3F:9F:0C:20:43:EE:2A:0C:E3:0B:E8:EA:53:6C:DD:E0:D7:DB:00:8F

            X509v3 Extended Key Usage: 
                TLS Web Client Authentication
            X509v3 Key Usage: 
                Digital Signature
    Signature Algorithm: sha256WithRSAEncryption
         ba:c5:2b:4c:5e:65:ab:40:77:01:a6:ab:70:10:9b:b5:1b:c2:
         f5:29:51:f4:81:1c:98:e1:e8:27:47:0c:ac:29:64:28:02:a5:
         af:dc:49:ec:bc:c0:c5:cc:3e:32:d0:b0:d7:74:4e:61:6f:6c:
         e7:ee:f3:17:6a:a9:b1:03:94:2d:6b:f8:4d:53:aa:12:16:76:
         ff:4b:58:9a:29:bf:f5:65:11:3e:18:3a:4b:40:b3:ec:71:0f:
         4b:db:c8:27:d4:8a:17:67:5b:0b:b2:49:20:0d:e6:22:27:c8:
         36:29:89:05:da:f3:58:10:93:f3:10:43:3c:44:3a:4f:fa:80:
         15:b1:51:1a:d4:01:c5:a8:9f:b8:5f:fe:63:cf:fb:19:ce:43:
         89:ee:dc:23:df:1a:e8:05:22:c9:3e:3f:b5:fd:02:19:a6:c1:
         43:05:a2:20:33:bf:78:53:43:81:29:f8:21:af:43:84:b8:bd:
         fa:32:05:13:2a:e1:f4:c0:47:2d:d0:32:cf:a8:d2:61:84:07:
         3a:bb:5f:4f:67:a9:28:7e:5e:73:89:5c:20:e1:19:d5:d4:da:
         4e:e9:21:e3:2a:28:a5:a9:ea:87:55:8b:3c:2b:3a:55:2c:8c:
         b3:fe:d2:58:ec:4d:90:1c:df:c7:fc:79:23:ee:d2:8f:e0:c1:
         9e:cd:74:f7
-----BEGIN CERTIFICATE-----
MIIDXTCCAkWgAwIBAgIRAPn5+Tck+k8/Zb5uityHBNwwDQYJKoZIhvcNAQELBQAw
FjEUMBIGA1UEAwwLdGVhbTY3OS1uZXQwHhcNMjEwOTEzMDUwODMwWhcNMjQwODI4
MDUwODMwWjAZMRcwFQYDVQQDDA50ZWFtNjc5LWNsaWVudDCCASIwDQYJKoZIhvcN
AQEBBQADggEPADCCAQoCggEBAMn94j+pAExMi4gcWyfGna4aUJrPR3FK6YZi1G5X
zCgu3eNhGADCKzhd9TdfO6qkpn4bv4nwwIE88PI+acLtkNJBD/PFAcCb8ZzuBWWR
8dBD90bV0hedlEE8NaOrbPaJxDZbbmt2gK15AjmeDjhwlw8nPpPaO6vR4kva1VsT
CPaM5Tqu8nWL3b2b2WoUZkbDnrhWN11kaMjSOqc1AgQV2HOPIvC5zDiTqnXFNynt
KFp07L8iR5lSnahb0byM0qJOCWGEN4RG3h2tUW+sdEwWbpAyxXh8EnUlomu8J6Gx
8uf3fQ9yvE6sc+uKRAOcYox+WACo9++rJtWZmSvxBhj78WkCAwEAAaOBojCBnzAJ
BgNVHRMEAjAAMB0GA1UdDgQWBBQbmOstqjswXDDl77WfOnIMt1gtkjBRBgNVHSME
SjBIgBQet2bdaHeyeWCzNo+4CtdYt90b6qEapBgwFjEUMBIGA1UEAwwLdGVhbTY3
OS1uZXSCFD+fDCBD7ioM4wvo6lNs3eDX2wCPMBMGA1UdJQQMMAoGCCsGAQUFBwMC
MAsGA1UdDwQEAwIHgDANBgkqhkiG9w0BAQsFAAOCAQEAusUrTF5lq0B3AaarcBCb
tRvC9SlR9IEcmOHoJ0cMrClkKAKlr9xJ7LzAxcw+MtCw13ROYW9s5+7zF2qpsQOU
LWv4TVOqEhZ2/0tYmim/9WURPhg6S0Cz7HEPS9vIJ9SKF2dbC7JJIA3mIifINimJ
BdrzWBCT8xBDPEQ6T/qAFbFRGtQBxaifuF/+Y8/7Gc5Die7cI98a6AUiyT4/tf0C
GabBQwWiIDO/eFNDgSn4Ia9DhLi9+jIFEyrh9MBHLdAyz6jSYYQHOrtfT2epKH5e
c4lcIOEZ1dTaTukh4yoopanqh1WLPCs6VSyMs/7SWOxNkBzfx/x5I+7Sj+DBns10
9w==
-----END CERTIFICATE-----
