Certificate:
    Data:
        Version: 3 (0x2)
        Serial Number:
            20:3f:f1:b3:e9:78:8a:20:95:6a:f2:9e:b1:e2:e1:a5
        Signature Algorithm: sha256WithRSAEncryption
        Issuer: CN=team278-net
        Validity
            Not Before: Sep 13 01:12:00 2021 GMT
            Not After : Aug 28 01:12:00 2024 GMT
        Subject: CN=team278-server
        Subject Public Key Info:
            Public Key Algorithm: rsaEncryption
                RSA Public-Key: (2048 bit)
                Modulus:
                    00:d7:a6:64:ad:04:0a:b2:10:e9:c1:48:16:91:da:
                    fc:4c:1c:2f:d0:ce:ec:3d:41:57:ca:d2:2d:b6:eb:
                    6f:17:8e:f7:bc:ca:20:94:39:a3:8d:c3:13:a7:6c:
                    4e:8e:47:28:e6:2e:5e:b0:7c:b9:f8:ac:6e:b6:f7:
                    59:4a:f3:16:92:88:21:f0:2d:db:d3:5d:99:b3:41:
                    31:4b:2b:1c:64:e8:5b:4f:02:46:19:17:b8:55:6f:
                    cf:26:40:89:d1:3e:aa:d9:ac:59:74:a4:b1:f2:9d:
                    02:1e:50:4d:53:9c:c5:9a:0d:f6:cb:0e:86:80:3a:
                    78:a6:79:80:fc:ee:00:78:2d:0b:e7:6d:a8:33:d2:
                    2b:d1:fc:47:af:56:31:68:41:39:05:47:c2:97:f2:
                    a2:94:f3:cb:3b:54:47:6d:90:ef:fa:10:52:02:f7:
                    04:ca:06:49:7a:e9:41:f4:73:06:65:a0:ba:f7:f6:
                    68:9d:26:21:05:52:9a:62:9b:9c:88:b8:a2:8d:7f:
                    a2:d4:be:ca:3f:8e:79:aa:a1:41:6c:1d:e8:42:ef:
                    66:b9:f7:fa:82:74:08:70:12:70:14:5e:05:08:65:
                    6a:1f:ae:6b:a5:6f:be:3c:ee:4e:cb:3d:27:7e:62:
                    07:13:fd:c8:e2:fc:78:a0:ed:cc:ff:1b:44:dd:0c:
                    21:95
                Exponent: 65537 (0x10001)
        X509v3 extensions:
            X509v3 Basic Constraints: 
                CA:FALSE
            X509v3 Subject Key Identifier: 
                B1:33:CC:D3:D6:99:4A:D9:11:05:25:35:84:28:3E:20:BF:2D:5B:11
            X509v3 Authority Key Identifier: 
                keyid:B5:FB:65:4F:0B:80:CF:E8:10:AD:64:CF:ED:CB:51:F6:C5:AC:0A:BE
                DirName:/CN=team278-net
                serial:46:7E:40:E9:09:F5:0D:E6:39:F4:9A:90:F2:52:C6:CC:05:14:27:2E

            X509v3 Extended Key Usage: 
                TLS Web Server Authentication
            X509v3 Key Usage: 
                Digital Signature, Key Encipherment
            X509v3 Subject Alternative Name: 
                DNS:team278-server
    Signature Algorithm: sha256WithRSAEncryption
         23:da:81:42:88:2c:6b:0b:32:f3:11:ed:54:b9:c2:b2:75:41:
         49:4d:22:0d:ee:ff:32:88:b5:31:a9:76:f5:a0:7f:23:9e:9f:
         bd:3d:f1:73:5f:b1:14:f5:48:17:2a:5b:b5:60:c7:26:05:14:
         b8:99:09:16:86:4d:84:f6:7e:f2:4c:21:72:28:7e:88:f2:fe:
         dd:e6:23:d8:81:0b:09:d1:8c:6e:d6:1d:07:e7:e4:ba:90:5c:
         32:93:24:e1:5f:b2:c6:04:b3:ff:ff:30:ab:27:87:dc:bc:de:
         32:4f:2e:92:96:54:8d:53:ed:38:4b:5d:ee:8b:14:30:8d:b6:
         47:65:17:76:a4:1f:0f:00:22:10:9e:9d:98:5f:b1:c2:1a:7f:
         6e:77:f9:f5:d9:0d:6b:cd:9c:21:f8:fa:27:20:70:17:0e:86:
         32:dc:e8:ad:a2:c6:a8:3b:5e:52:d1:5d:e3:76:38:f1:2c:33:
         35:96:93:29:4d:31:c7:b4:c8:8c:31:96:19:80:ee:cc:29:0e:
         95:35:c5:bc:2e:b8:68:39:8f:f2:d9:4f:b1:a1:97:db:97:4b:
         fc:8f:49:85:4e:67:9d:11:09:b1:aa:6c:20:a3:17:9e:01:ba:
         01:73:bd:2b:8c:ed:7b:f9:d7:8e:53:4e:6a:da:b6:2a:a5:08:
         a9:61:56:96
-----BEGIN CERTIFICATE-----
MIIDdzCCAl+gAwIBAgIQID/xs+l4iiCVavKeseLhpTANBgkqhkiG9w0BAQsFADAW
MRQwEgYDVQQDDAt0ZWFtMjc4LW5ldDAeFw0yMTA5MTMwMTEyMDBaFw0yNDA4Mjgw
MTEyMDBaMBkxFzAVBgNVBAMMDnRlYW0yNzgtc2VydmVyMIIBIjANBgkqhkiG9w0B
AQEFAAOCAQ8AMIIBCgKCAQEA16ZkrQQKshDpwUgWkdr8TBwv0M7sPUFXytIttutv
F473vMoglDmjjcMTp2xOjkco5i5esHy5+KxutvdZSvMWkogh8C3b012Zs0ExSysc
ZOhbTwJGGRe4VW/PJkCJ0T6q2axZdKSx8p0CHlBNU5zFmg32yw6GgDp4pnmA/O4A
eC0L522oM9Ir0fxHr1YxaEE5BUfCl/KilPPLO1RHbZDv+hBSAvcEygZJeulB9HMG
ZaC69/ZonSYhBVKaYpuciLiijX+i1L7KP455qqFBbB3oQu9muff6gnQIcBJwFF4F
CGVqH65rpW++PO5Oyz0nfmIHE/3I4vx4oO3M/xtE3QwhlQIDAQABo4G9MIG6MAkG
A1UdEwQCMAAwHQYDVR0OBBYEFLEzzNPWmUrZEQUlNYQoPiC/LVsRMFEGA1UdIwRK
MEiAFLX7ZU8LgM/oEK1kz+3LUfbFrAq+oRqkGDAWMRQwEgYDVQQDDAt0ZWFtMjc4
LW5ldIIURn5A6Qn1DeY59JqQ8lLGzAUUJy4wEwYDVR0lBAwwCgYIKwYBBQUHAwEw
CwYDVR0PBAQDAgWgMBkGA1UdEQQSMBCCDnRlYW0yNzgtc2VydmVyMA0GCSqGSIb3
DQEBCwUAA4IBAQAj2oFCiCxrCzLzEe1UucKydUFJTSIN7v8yiLUxqXb1oH8jnp+9
PfFzX7EU9UgXKlu1YMcmBRS4mQkWhk2E9n7yTCFyKH6I8v7d5iPYgQsJ0Yxu1h0H
5+S6kFwykyThX7LGBLP//zCrJ4fcvN4yTy6SllSNU+04S13uixQwjbZHZRd2pB8P
ACIQnp2YX7HCGn9ud/n12Q1rzZwh+PonIHAXDoYy3OitosaoO15S0V3jdjjxLDM1
lpMpTTHHtMiMMZYZgO7MKQ6VNcW8LrhoOY/y2U+xoZfbl0v8j0mFTmedEQmxqmwg
oxeeAboBc70rjO17+deOU05q2rYqpQipYVaW
-----END CERTIFICATE-----
