Certificate:
    Data:
        Version: 3 (0x2)
        Serial Number:
            ec:9b:30:24:15:bf:03:c1:03:f2:44:b1:ca:82:14:ee
        Signature Algorithm: sha256WithRSAEncryption
        Issuer: CN=team451-net
        Validity
            Not Before: Sep 13 02:42:47 2021 GMT
            Not After : Aug 28 02:42:47 2024 GMT
        Subject: CN=team451-client
        Subject Public Key Info:
            Public Key Algorithm: rsaEncryption
                RSA Public-Key: (2048 bit)
                Modulus:
                    00:ec:ed:e6:e2:84:b1:f4:9e:95:98:59:9c:b1:32:
                    fd:d8:49:fc:25:c9:db:b8:96:9c:63:0d:07:7d:be:
                    87:95:43:23:fd:98:ea:3c:5a:66:e2:cd:19:7f:69:
                    c9:01:ab:75:a4:a5:8b:bf:55:1c:ca:e2:3e:05:30:
                    99:1c:c2:03:ee:94:a5:12:b6:33:0d:f9:fd:c9:02:
                    43:fa:73:35:26:7e:fe:e1:16:cc:e3:4e:28:d1:f9:
                    d7:2f:51:bd:c1:4e:e4:e7:95:85:6d:96:90:b1:1e:
                    c3:7a:36:80:73:8a:79:7c:b2:aa:f9:63:c7:77:67:
                    eb:84:91:94:7e:65:b1:71:aa:d2:e6:d1:4a:b4:09:
                    f5:2b:e2:57:ae:16:3e:85:c0:16:17:41:df:06:cb:
                    f6:12:ab:f8:a6:05:bd:4e:29:cd:fe:ac:f9:87:09:
                    44:aa:17:6f:31:b6:0f:b0:5e:ad:32:59:ed:d9:02:
                    29:e3:bd:01:ea:b7:69:5b:07:de:b4:6e:e7:aa:72:
                    f1:6b:97:88:ed:64:07:95:e7:6a:98:b1:4f:eb:5c:
                    7f:65:d4:68:4c:1c:21:74:a1:e2:84:7a:bf:53:73:
                    d7:23:d4:d0:1f:ef:48:cb:f6:c4:de:17:9c:76:83:
                    13:dc:f0:1d:52:8b:3e:b3:c7:6d:74:d8:0f:60:22:
                    92:1f
                Exponent: 65537 (0x10001)
        X509v3 extensions:
            X509v3 Basic Constraints: 
                CA:FALSE
            X509v3 Subject Key Identifier: 
                26:1F:48:A6:EB:14:EB:CA:2E:7F:3E:10:D1:BE:D0:69:82:F3:2C:AF
            X509v3 Authority Key Identifier: 
                keyid:42:8E:04:2E:85:27:01:81:CE:E0:DE:1E:FD:5E:96:56:E8:B5:7A:E8
                DirName:/CN=team451-net
                serial:7E:76:DB:C2:B3:53:A2:37:16:7A:67:B4:9B:96:32:85:B7:62:E9:03

            X509v3 Extended Key Usage: 
                TLS Web Client Authentication
            X509v3 Key Usage: 
                Digital Signature
    Signature Algorithm: sha256WithRSAEncryption
         56:0e:01:78:a0:41:a9:3f:e4:d8:ae:43:d1:79:93:74:f2:10:
         88:e0:c8:ad:6a:3e:15:34:ff:90:fa:dd:ad:2a:38:c2:4a:9c:
         6a:d9:d2:b8:5a:af:68:54:a9:d7:b6:4a:de:da:d4:8c:1f:e2:
         c3:a9:06:23:47:cf:64:bd:5d:f1:12:ad:e9:73:a9:7e:2c:4a:
         cb:57:f7:e4:45:6b:71:5f:91:26:3c:1e:85:47:a8:33:c7:80:
         13:b6:3a:08:c1:82:dd:38:63:cb:e5:94:62:6f:78:74:a5:1b:
         9d:bf:22:59:37:61:d3:cd:4b:7c:da:88:24:93:cf:ed:e4:79:
         f6:69:57:1b:bf:0d:36:3d:bd:35:ca:c9:24:a4:32:7d:32:9f:
         80:3f:4c:ea:7b:c7:0c:e6:55:f6:4b:af:a1:ea:28:f3:21:cb:
         b2:89:9c:5d:16:6c:0c:85:3d:a9:bb:42:54:b1:3a:40:02:8c:
         11:a4:5e:43:36:5d:28:8d:dc:09:30:f7:c1:fe:64:d9:a0:47:
         8f:0b:4b:38:1b:c2:6e:11:38:41:00:82:85:54:f3:c8:b1:a4:
         41:16:2a:69:36:77:dc:84:4c:b4:01:d0:03:5a:30:c6:20:22:
         dc:d9:d6:23:e9:26:bc:1d:87:61:cc:d4:95:57:5b:ce:9a:cf:
         e4:34:33:41
-----BEGIN CERTIFICATE-----
MIIDXTCCAkWgAwIBAgIRAOybMCQVvwPBA/JEscqCFO4wDQYJKoZIhvcNAQELBQAw
FjEUMBIGA1UEAwwLdGVhbTQ1MS1uZXQwHhcNMjEwOTEzMDI0MjQ3WhcNMjQwODI4
MDI0MjQ3WjAZMRcwFQYDVQQDDA50ZWFtNDUxLWNsaWVudDCCASIwDQYJKoZIhvcN
AQEBBQADggEPADCCAQoCggEBAOzt5uKEsfSelZhZnLEy/dhJ/CXJ27iWnGMNB32+
h5VDI/2Y6jxaZuLNGX9pyQGrdaSli79VHMriPgUwmRzCA+6UpRK2Mw35/ckCQ/pz
NSZ+/uEWzONOKNH51y9RvcFO5OeVhW2WkLEew3o2gHOKeXyyqvljx3dn64SRlH5l
sXGq0ubRSrQJ9SviV64WPoXAFhdB3wbL9hKr+KYFvU4pzf6s+YcJRKoXbzG2D7Be
rTJZ7dkCKeO9Aeq3aVsH3rRu56py8WuXiO1kB5XnapixT+tcf2XUaEwcIXSh4oR6
v1Nz1yPU0B/vSMv2xN4XnHaDE9zwHVKLPrPHbXTYD2Aikh8CAwEAAaOBojCBnzAJ
BgNVHRMEAjAAMB0GA1UdDgQWBBQmH0im6xTryi5/PhDRvtBpgvMsrzBRBgNVHSME
SjBIgBRCjgQuhScBgc7g3h79XpZW6LV66KEapBgwFjEUMBIGA1UEAwwLdGVhbTQ1
MS1uZXSCFH5228KzU6I3FnpntJuWMoW3YukDMBMGA1UdJQQMMAoGCCsGAQUFBwMC
MAsGA1UdDwQEAwIHgDANBgkqhkiG9w0BAQsFAAOCAQEAVg4BeKBBqT/k2K5D0XmT
dPIQiODIrWo+FTT/kPrdrSo4wkqcatnSuFqvaFSp17ZK3trUjB/iw6kGI0fPZL1d
8RKt6XOpfixKy1f35EVrcV+RJjwehUeoM8eAE7Y6CMGC3Thjy+WUYm94dKUbnb8i
WTdh081LfNqIJJPP7eR59mlXG78NNj29NcrJJKQyfTKfgD9M6nvHDOZV9kuvoeoo
8yHLsomcXRZsDIU9qbtCVLE6QAKMEaReQzZdKI3cCTD3wf5k2aBHjwtLOBvCbhE4
QQCChVTzyLGkQRYqaTZ33IRMtAHQA1owxiAi3NnWI+kmvB2HYczUlVdbzprP5DQz
QQ==
-----END CERTIFICATE-----
