Certificate:
    Data:
        Version: 3 (0x2)
        Serial Number:
            c4:92:1c:32:df:5a:18:f9:a8:ae:e3:87:ff:08:aa:74
        Signature Algorithm: sha256WithRSAEncryption
        Issuer: CN=team84-net
        Validity
            Not Before: Sep 12 23:27:18 2021 GMT
            Not After : Aug 27 23:27:18 2024 GMT
        Subject: CN=team84-server
        Subject Public Key Info:
            Public Key Algorithm: rsaEncryption
                RSA Public-Key: (2048 bit)
                Modulus:
                    00:a0:2a:81:01:ea:5b:bb:92:0b:e8:1b:3c:ea:f6:
                    8e:f1:1a:d9:b8:95:13:cb:0f:07:56:fb:7d:95:82:
                    b0:43:6b:40:b9:5f:f9:0c:19:c8:31:0a:a2:c7:62:
                    49:3f:16:21:2d:8b:46:e8:d1:b7:45:a9:0d:e9:96:
                    02:19:79:49:eb:47:8d:2b:11:cb:71:8e:9c:eb:b1:
                    c3:aa:ad:ea:86:b9:24:8c:5f:a2:1e:7d:ac:b2:88:
                    85:cb:1e:e2:3f:83:15:86:49:90:19:73:cf:49:46:
                    38:ab:4a:39:af:1e:33:1a:6e:96:89:01:bb:e9:3c:
                    bc:4d:a8:74:23:c6:82:35:91:e5:f4:d2:d9:e7:e3:
                    5a:55:56:a7:3e:bf:ac:83:ac:73:98:01:1c:68:7d:
                    63:19:99:37:b2:e9:c5:d4:8d:b1:6d:e9:61:e8:6c:
                    41:9a:65:2d:37:98:65:c2:09:eb:eb:cd:5b:ff:82:
                    3a:23:e1:bb:a4:86:7f:03:81:0e:57:e0:e2:74:6a:
                    8c:92:c0:a5:44:4a:1c:86:84:ac:5c:3b:3a:5a:14:
                    d0:ec:a4:53:7c:0f:20:7a:02:97:8f:f9:66:98:49:
                    b8:2a:0b:f0:01:56:6c:0e:ad:18:ba:2d:9f:11:b1:
                    19:52:df:be:88:ff:13:f5:33:8b:7a:47:3c:46:7e:
                    45:07
                Exponent: 65537 (0x10001)
        X509v3 extensions:
            X509v3 Basic Constraints: 
                CA:FALSE
            X509v3 Subject Key Identifier: 
                47:67:59:F3:45:26:E2:7E:2D:1C:8A:63:EE:37:2E:A4:45:AE:AF:68
            X509v3 Authority Key Identifier: 
                keyid:24:9E:8A:DB:8A:F3:BB:79:B9:AD:E1:06:30:52:CD:55:46:3F:59:33
                DirName:/CN=team84-net
                serial:3D:FB:2C:F1:52:4B:E3:30:E4:D1:58:77:6A:A5:B8:C4:D1:F5:29:93

            X509v3 Extended Key Usage: 
                TLS Web Server Authentication
            X509v3 Key Usage: 
                Digital Signature, Key Encipherment
            X509v3 Subject Alternative Name: 
                DNS:team84-server
    Signature Algorithm: sha256WithRSAEncryption
         12:31:a5:f5:4b:7a:a2:ef:f3:aa:d4:17:c9:eb:c5:34:50:46:
         f6:cb:b4:d9:8d:57:e6:fe:7c:00:52:a7:4a:3d:14:c0:92:b6:
         97:1b:03:26:92:01:01:da:7c:25:60:00:82:67:e9:97:f8:ad:
         0b:cd:3c:39:73:3a:18:8f:34:d7:24:94:dc:79:16:50:26:29:
         64:02:04:00:ea:5f:bf:9f:60:ba:ee:88:ae:3f:79:bd:02:8e:
         3d:8d:95:bb:9a:d8:51:96:53:97:c7:ea:ef:46:8c:9c:70:6c:
         ae:0a:8d:32:6f:40:68:cb:7d:8e:46:4d:4f:14:b8:11:55:a8:
         c9:f9:8b:3c:d0:5c:dc:58:1d:c4:a4:f8:91:3a:6c:e6:a4:97:
         bc:8a:d3:bd:40:9c:e0:a9:c9:a5:91:46:d3:8e:0a:b7:c3:18:
         26:f6:72:21:66:e0:08:6c:6f:f3:04:96:fc:84:ae:80:1b:f8:
         56:38:f8:05:33:82:a4:bb:0b:15:16:fa:e7:1d:f3:05:2d:22:
         33:52:19:dd:67:59:91:53:f6:5f:f1:bb:ff:ce:0c:47:30:72:
         7e:d5:92:8e:a1:3d:7c:72:02:5e:b8:b7:7c:c4:3a:84:b1:3c:
         7c:57:d1:79:9c:92:c2:f1:2c:40:4d:04:7a:78:49:2c:b7:a7:
         50:b5:ff:59
-----BEGIN CERTIFICATE-----
MIIDdDCCAlygAwIBAgIRAMSSHDLfWhj5qK7jh/8IqnQwDQYJKoZIhvcNAQELBQAw
FTETMBEGA1UEAwwKdGVhbTg0LW5ldDAeFw0yMTA5MTIyMzI3MThaFw0yNDA4Mjcy
MzI3MThaMBgxFjAUBgNVBAMMDXRlYW04NC1zZXJ2ZXIwggEiMA0GCSqGSIb3DQEB
AQUAA4IBDwAwggEKAoIBAQCgKoEB6lu7kgvoGzzq9o7xGtm4lRPLDwdW+32VgrBD
a0C5X/kMGcgxCqLHYkk/FiEti0bo0bdFqQ3plgIZeUnrR40rEctxjpzrscOqreqG
uSSMX6IefayyiIXLHuI/gxWGSZAZc89JRjirSjmvHjMabpaJAbvpPLxNqHQjxoI1
keX00tnn41pVVqc+v6yDrHOYARxofWMZmTey6cXUjbFt6WHobEGaZS03mGXCCevr
zVv/gjoj4bukhn8DgQ5X4OJ0aoySwKVEShyGhKxcOzpaFNDspFN8DyB6ApeP+WaY
SbgqC/ABVmwOrRi6LZ8RsRlS376I/xP1M4t6RzxGfkUHAgMBAAGjgbswgbgwCQYD
VR0TBAIwADAdBgNVHQ4EFgQUR2dZ80Um4n4tHIpj7jcupEWur2gwUAYDVR0jBEkw
R4AUJJ6K24rzu3m5reEGMFLNVUY/WTOhGaQXMBUxEzARBgNVBAMMCnRlYW04NC1u
ZXSCFD37LPFSS+Mw5NFYd2qluMTR9SmTMBMGA1UdJQQMMAoGCCsGAQUFBwMBMAsG
A1UdDwQEAwIFoDAYBgNVHREEETAPgg10ZWFtODQtc2VydmVyMA0GCSqGSIb3DQEB
CwUAA4IBAQASMaX1S3qi7/Oq1BfJ68U0UEb2y7TZjVfm/nwAUqdKPRTAkraXGwMm
kgEB2nwlYACCZ+mX+K0LzTw5czoYjzTXJJTceRZQJilkAgQA6l+/n2C67oiuP3m9
Ao49jZW7mthRllOXx+rvRoyccGyuCo0yb0Boy32ORk1PFLgRVajJ+Ys80FzcWB3E
pPiROmzmpJe8itO9QJzgqcmlkUbTjgq3wxgm9nIhZuAIbG/zBJb8hK6AG/hWOPgF
M4KkuwsVFvrnHfMFLSIzUhndZ1mRU/Zf8bv/zgxHMHJ+1ZKOoT18cgJeuLd8xDqE
sTx8V9F5nJLC8SxATQR6eEkst6dQtf9Z
-----END CERTIFICATE-----
