Certificate:
    Data:
        Version: 3 (0x2)
        Serial Number:
            20:1b:4c:84:f5:e0:db:2b:f7:9b:73:6e:56:a0:26:73
        Signature Algorithm: sha256WithRSAEncryption
        Issuer: CN=team672-net
        Validity
            Not Before: Sep 13 05:03:25 2021 GMT
            Not After : Aug 28 05:03:25 2024 GMT
        Subject: CN=team672-client
        Subject Public Key Info:
            Public Key Algorithm: rsaEncryption
                RSA Public-Key: (2048 bit)
                Modulus:
                    00:c0:4c:ac:63:5b:d9:5a:7b:8e:3d:ff:fd:16:d3:
                    fc:0c:67:99:b8:5f:31:f6:9a:94:0a:4d:2e:09:0b:
                    67:36:86:4b:07:b4:0e:7b:ca:d5:e8:3d:87:12:a0:
                    81:73:83:9c:22:a0:d4:a7:2a:f6:62:61:a5:3c:69:
                    df:a8:d2:5f:87:0c:0e:6c:26:5f:00:00:81:94:78:
                    3a:95:7c:20:2b:61:fe:1a:a8:1c:ab:eb:d1:20:28:
                    8d:3d:4c:80:d4:f7:dc:4c:d1:d6:d9:31:4a:73:6d:
                    f6:84:a4:90:94:17:47:14:b0:7f:2b:4e:fd:7d:61:
                    4a:d7:e0:5e:b9:f6:47:a2:15:cc:37:c2:4b:ee:cc:
                    95:7d:14:4c:44:21:1c:98:48:fe:20:68:6c:bb:25:
                    1d:23:2e:81:6a:a4:5d:ac:a0:65:af:98:4b:95:cb:
                    2a:b7:2d:f2:4e:ce:98:98:46:b9:38:2c:99:ea:89:
                    96:71:55:bb:10:57:83:f5:1c:12:07:26:51:16:73:
                    08:6f:ac:fb:df:99:cd:44:d4:cf:0e:94:16:a9:71:
                    02:ed:4a:7a:3a:86:bf:aa:c2:f4:32:18:69:d3:37:
                    a1:1b:f8:15:a7:54:9d:6d:f1:32:c9:78:07:1f:ce:
                    d6:14:a1:a4:a7:05:da:c0:d3:49:45:fc:59:dc:f2:
                    d2:c1
                Exponent: 65537 (0x10001)
        X509v3 extensions:
            X509v3 Basic Constraints: 
                CA:FALSE
            X509v3 Subject Key Identifier: 
                3A:AE:C0:0C:0B:EA:21:10:15:EB:7C:AD:74:66:5D:7F:4B:6E:4E:D1
            X509v3 Authority Key Identifier: 
                keyid:5D:65:A8:FE:1E:28:F3:1A:88:EF:BF:D3:F5:90:16:BD:3B:C2:E7:3A
                DirName:/CN=team672-net
                serial:6F:F8:34:E0:83:DD:4F:01:B0:C7:45:22:57:DF:66:FC:43:3B:40:0C

            X509v3 Extended Key Usage: 
                TLS Web Client Authentication
            X509v3 Key Usage: 
                Digital Signature
    Signature Algorithm: sha256WithRSAEncryption
         5c:60:a8:ca:59:49:4e:d0:11:2d:97:e0:b7:ae:54:76:05:3e:
         12:e1:73:eb:3d:5d:7d:fd:b4:32:aa:57:73:53:28:cf:13:a9:
         1c:bd:1b:03:da:f4:7a:41:8c:fa:2c:1b:dc:0e:70:ee:17:aa:
         16:d8:8c:9e:c9:6f:e9:15:9a:65:4c:06:a4:c6:86:99:6f:de:
         79:90:0b:f3:bf:c9:e3:9b:ad:98:85:3b:89:aa:52:2e:69:27:
         5a:11:5b:1f:cd:e7:34:a5:08:0e:2b:50:dc:bc:dc:e0:49:a7:
         80:0d:6e:a7:de:74:e7:00:5a:0e:29:91:1b:82:da:c8:ff:e4:
         56:1b:fd:1e:1f:f5:23:e9:05:db:f0:06:9f:ee:98:9f:f7:ec:
         83:67:0b:ed:2f:73:f8:83:93:9f:b1:56:6e:76:22:a5:f9:d2:
         02:e2:54:55:4f:29:d7:67:3c:a4:bd:d8:b2:ff:c4:02:a8:29:
         b2:41:ab:07:10:98:e2:a4:49:be:8d:6e:41:37:ce:41:d5:3a:
         a1:09:f9:5e:af:ab:9b:78:bb:05:32:00:76:a4:35:b6:e0:8f:
         36:16:90:ba:27:c5:a5:85:11:96:34:84:10:6c:f0:1b:a5:17:
         6a:f1:90:6a:b4:77:de:7b:8b:f3:d4:a8:b1:eb:0c:51:b2:07:
         0e:20:ed:6f
-----BEGIN CERTIFICATE-----
MIIDXDCCAkSgAwIBAgIQIBtMhPXg2yv3m3NuVqAmczANBgkqhkiG9w0BAQsFADAW
MRQwEgYDVQQDDAt0ZWFtNjcyLW5ldDAeFw0yMTA5MTMwNTAzMjVaFw0yNDA4Mjgw
NTAzMjVaMBkxFzAVBgNVBAMMDnRlYW02NzItY2xpZW50MIIBIjANBgkqhkiG9w0B
AQEFAAOCAQ8AMIIBCgKCAQEAwEysY1vZWnuOPf/9FtP8DGeZuF8x9pqUCk0uCQtn
NoZLB7QOe8rV6D2HEqCBc4OcIqDUpyr2YmGlPGnfqNJfhwwObCZfAACBlHg6lXwg
K2H+Gqgcq+vRICiNPUyA1PfcTNHW2TFKc232hKSQlBdHFLB/K079fWFK1+BeufZH
ohXMN8JL7syVfRRMRCEcmEj+IGhsuyUdIy6BaqRdrKBlr5hLlcsqty3yTs6YmEa5
OCyZ6omWcVW7EFeD9RwSByZRFnMIb6z735nNRNTPDpQWqXEC7Up6Ooa/qsL0Mhhp
0zehG/gVp1SdbfEyyXgHH87WFKGkpwXawNNJRfxZ3PLSwQIDAQABo4GiMIGfMAkG
A1UdEwQCMAAwHQYDVR0OBBYEFDquwAwL6iEQFet8rXRmXX9Lbk7RMFEGA1UdIwRK
MEiAFF1lqP4eKPMaiO+/0/WQFr07wuc6oRqkGDAWMRQwEgYDVQQDDAt0ZWFtNjcy
LW5ldIIUb/g04IPdTwGwx0UiV99m/EM7QAwwEwYDVR0lBAwwCgYIKwYBBQUHAwIw
CwYDVR0PBAQDAgeAMA0GCSqGSIb3DQEBCwUAA4IBAQBcYKjKWUlO0BEtl+C3rlR2
BT4S4XPrPV19/bQyqldzUyjPE6kcvRsD2vR6QYz6LBvcDnDuF6oW2IyeyW/pFZpl
TAakxoaZb955kAvzv8njm62YhTuJqlIuaSdaEVsfzec0pQgOK1DcvNzgSaeADW6n
3nTnAFoOKZEbgtrI/+RWG/0eH/Uj6QXb8Aaf7pif9+yDZwvtL3P4g5OfsVZudiKl
+dIC4lRVTynXZzykvdiy/8QCqCmyQasHEJjipEm+jW5BN85B1TqhCfler6ubeLsF
MgB2pDW24I82FpC6J8WlhRGWNIQQbPAbpRdq8ZBqtHfee4vz1Kix6wxRsgcOIO1v
-----END CERTIFICATE-----
