Certificate:
    Data:
        Version: 3 (0x2)
        Serial Number:
            f1:83:1f:8f:c7:3c:a8:92:5f:ed:0d:99:e2:e7:40:2f
        Signature Algorithm: sha256WithRSAEncryption
        Issuer: CN=team496-net
        Validity
            Not Before: Sep 13 03:15:11 2021 GMT
            Not After : Aug 28 03:15:11 2024 GMT
        Subject: CN=team496-client
        Subject Public Key Info:
            Public Key Algorithm: rsaEncryption
                RSA Public-Key: (2048 bit)
                Modulus:
                    00:b7:bb:9f:23:12:68:6e:3c:1a:99:aa:f9:a2:e6:
                    12:ea:c8:b9:36:5a:0a:26:a1:23:72:b0:95:3d:52:
                    1e:7a:91:be:af:c4:46:ae:42:d6:13:03:5f:7e:c4:
                    73:6f:e4:b0:aa:b2:54:d5:8e:d3:3a:83:f2:84:27:
                    04:8a:3c:d3:a0:06:4d:96:4b:c3:9d:ef:ad:4b:3e:
                    63:4f:4a:02:ec:64:88:6a:65:f5:44:26:8a:e8:a6:
                    d4:e6:4b:ce:c9:a8:2c:3b:92:a2:ec:cb:e7:b7:e0:
                    76:4b:a5:53:11:d1:9a:a6:b8:39:7d:12:dc:47:0d:
                    1d:56:3a:c7:a1:c0:f3:4b:06:57:8a:4f:99:8c:dd:
                    4d:15:fb:81:90:e7:cf:30:16:6f:c1:94:49:d1:f8:
                    cc:38:d6:c7:90:6a:2f:aa:c0:bf:72:50:2f:71:34:
                    08:01:a3:f2:b6:b1:1f:58:96:04:6a:07:b7:1d:c2:
                    07:fa:23:ab:f6:ab:6e:c1:a4:5a:95:9a:42:22:4a:
                    d7:20:9f:b2:f8:c0:5f:f1:12:4e:fd:4c:37:74:c0:
                    cb:42:fb:3e:d5:71:84:8c:26:d9:51:ed:24:09:0a:
                    2d:10:17:b2:ca:16:81:cc:0f:69:cd:69:bf:2a:06:
                    b8:06:5c:ad:a9:6a:f4:d4:72:09:2a:77:23:1f:19:
                    ee:a7
                Exponent: 65537 (0x10001)
        X509v3 extensions:
            X509v3 Basic Constraints: 
                CA:FALSE
            X509v3 Subject Key Identifier: 
                02:57:D2:58:B3:80:47:75:73:AC:10:D5:5F:67:81:81:7D:1E:33:8C
            X509v3 Authority Key Identifier: 
                keyid:AD:61:4F:78:D6:4E:80:B0:0D:66:C7:E9:D3:F6:6E:33:FE:F8:D0:A0
                DirName:/CN=team496-net
                serial:4D:BE:B4:24:D8:C6:C9:8E:6D:A0:C8:0D:8C:C5:64:39:5A:49:DC:57

            X509v3 Extended Key Usage: 
                TLS Web Client Authentication
            X509v3 Key Usage: 
                Digital Signature
    Signature Algorithm: sha256WithRSAEncryption
         85:3d:ab:09:3c:30:7d:b3:36:06:0a:ca:e6:40:ed:4d:ad:ff:
         dc:10:6f:35:bf:4a:d6:a8:2e:3e:57:3a:23:ce:f0:f6:17:0e:
         d4:d6:09:17:17:48:90:2e:9f:bf:57:92:9f:df:45:d7:f8:66:
         23:67:9a:56:e8:0f:26:b8:81:a2:91:91:c2:0b:2c:c7:a0:11:
         43:a6:17:8c:f7:14:9f:2f:07:69:8d:df:f2:fa:f6:f3:e4:18:
         04:3e:a0:91:cf:4a:ab:97:11:ef:01:43:06:44:08:2c:7a:e3:
         39:8a:a8:45:09:85:77:07:f5:11:31:90:cb:e3:1c:26:db:b4:
         ad:4c:87:95:2c:87:ec:88:81:74:6d:bb:1d:fc:a4:a4:ba:0b:
         bb:9c:19:58:b5:71:5c:d5:cb:41:a7:d4:6f:5b:46:0f:51:6a:
         e7:21:e8:20:23:4c:49:6b:4b:e1:e0:91:a2:ed:10:02:01:da:
         2f:76:a0:40:35:44:e1:7e:55:90:bd:d6:d7:ba:a8:b0:3f:81:
         0e:19:9f:3c:df:ac:86:75:50:e6:03:a1:f6:48:91:e1:b5:c1:
         ae:af:2a:c5:61:a7:a4:c2:1b:77:68:52:d4:44:7a:b5:30:ad:
         2e:22:a5:d9:ca:09:4d:5f:0c:4f:19:c9:ca:23:8f:10:69:dd:
         81:86:80:9e
-----BEGIN CERTIFICATE-----
MIIDXTCCAkWgAwIBAgIRAPGDH4/HPKiSX+0NmeLnQC8wDQYJKoZIhvcNAQELBQAw
FjEUMBIGA1UEAwwLdGVhbTQ5Ni1uZXQwHhcNMjEwOTEzMDMxNTExWhcNMjQwODI4
MDMxNTExWjAZMRcwFQYDVQQDDA50ZWFtNDk2LWNsaWVudDCCASIwDQYJKoZIhvcN
AQEBBQADggEPADCCAQoCggEBALe7nyMSaG48Gpmq+aLmEurIuTZaCiahI3KwlT1S
HnqRvq/ERq5C1hMDX37Ec2/ksKqyVNWO0zqD8oQnBIo806AGTZZLw53vrUs+Y09K
AuxkiGpl9UQmiuim1OZLzsmoLDuSouzL57fgdkulUxHRmqa4OX0S3EcNHVY6x6HA
80sGV4pPmYzdTRX7gZDnzzAWb8GUSdH4zDjWx5BqL6rAv3JQL3E0CAGj8raxH1iW
BGoHtx3CB/ojq/arbsGkWpWaQiJK1yCfsvjAX/ESTv1MN3TAy0L7PtVxhIwm2VHt
JAkKLRAXssoWgcwPac1pvyoGuAZcralq9NRyCSp3Ix8Z7qcCAwEAAaOBojCBnzAJ
BgNVHRMEAjAAMB0GA1UdDgQWBBQCV9JYs4BHdXOsENVfZ4GBfR4zjDBRBgNVHSME
SjBIgBStYU941k6AsA1mx+nT9m4z/vjQoKEapBgwFjEUMBIGA1UEAwwLdGVhbTQ5
Ni1uZXSCFE2+tCTYxsmObaDIDYzFZDlaSdxXMBMGA1UdJQQMMAoGCCsGAQUFBwMC
MAsGA1UdDwQEAwIHgDANBgkqhkiG9w0BAQsFAAOCAQEAhT2rCTwwfbM2BgrK5kDt
Ta3/3BBvNb9K1qguPlc6I87w9hcO1NYJFxdIkC6fv1eSn99F1/hmI2eaVugPJriB
opGRwgssx6ARQ6YXjPcUny8HaY3f8vr28+QYBD6gkc9Kq5cR7wFDBkQILHrjOYqo
RQmFdwf1ETGQy+McJtu0rUyHlSyH7IiBdG27HfykpLoLu5wZWLVxXNXLQafUb1tG
D1Fq5yHoICNMSWtL4eCRou0QAgHaL3agQDVE4X5VkL3W17qosD+BDhmfPN+shnVQ
5gOh9kiR4bXBrq8qxWGnpMIbd2hS1ER6tTCtLiKl2coJTV8MTxnJyiOPEGndgYaA
ng==
-----END CERTIFICATE-----
