Certificate:
    Data:
        Version: 3 (0x2)
        Serial Number:
            df:26:72:e8:d5:19:48:c4:b5:ce:27:07:1b:ea:fa:6b
        Signature Algorithm: sha256WithRSAEncryption
        Issuer: CN=team92-net
        Validity
            Not Before: Sep 12 23:33:03 2021 GMT
            Not After : Aug 27 23:33:03 2024 GMT
        Subject: CN=team92-client
        Subject Public Key Info:
            Public Key Algorithm: rsaEncryption
                RSA Public-Key: (2048 bit)
                Modulus:
                    00:e3:9a:2e:99:64:6e:3c:60:d5:c4:91:f2:6d:e3:
                    a4:63:b4:14:71:f8:8f:bc:c1:a6:39:13:6f:42:7b:
                    52:a6:c7:36:66:10:47:17:10:1e:f6:4a:ef:5d:f6:
                    6e:73:b9:1f:d2:dd:02:60:bf:d8:40:66:7a:ce:8c:
                    f6:be:95:45:97:16:c4:24:c1:d5:8c:b5:e6:20:7d:
                    36:02:7a:fe:8d:91:13:60:5a:9f:1c:ae:fd:c0:13:
                    d1:f0:a3:58:e0:b1:62:7d:4c:8d:70:59:72:d1:c1:
                    1c:9a:9f:dc:5a:34:1e:d8:a5:a0:35:59:37:91:d7:
                    28:6d:fa:63:25:2b:6e:14:d8:1d:cd:52:eb:0b:59:
                    f3:f5:3e:30:11:eb:0f:17:ba:d2:c7:3a:6e:f1:17:
                    28:7b:90:0b:61:f0:2f:93:fa:bb:0a:43:74:62:8a:
                    ac:9b:40:34:98:35:fd:f8:65:4a:24:5a:0d:dd:92:
                    34:02:5d:69:2d:16:bb:af:0e:3f:ff:f3:5b:b0:1d:
                    2d:9a:99:9c:d6:16:df:f7:2e:ab:d5:00:61:a3:56:
                    e1:b5:74:c6:3f:59:4a:17:e8:cf:f8:0d:94:63:28:
                    d9:cc:67:10:f0:ec:70:98:00:24:fb:a3:03:8b:53:
                    59:aa:1e:8a:b1:7c:9c:0f:cd:5e:4d:8e:49:ea:e4:
                    98:2b
                Exponent: 65537 (0x10001)
        X509v3 extensions:
            X509v3 Basic Constraints: 
                CA:FALSE
            X509v3 Subject Key Identifier: 
                AF:96:D7:68:32:BE:81:2C:30:77:65:6F:0B:1F:A2:2E:EB:71:26:AE
            X509v3 Authority Key Identifier: 
                keyid:90:50:CF:11:85:B5:25:07:96:D5:AC:FB:13:D1:FD:3C:77:04:A2:E3
                DirName:/CN=team92-net
                serial:6A:C7:49:7C:87:F2:38:1E:D9:DD:58:0D:01:0D:D7:83:C7:93:ED:C0

            X509v3 Extended Key Usage: 
                TLS Web Client Authentication
            X509v3 Key Usage: 
                Digital Signature
    Signature Algorithm: sha256WithRSAEncryption
         ba:f3:ab:f0:c7:f8:b8:9c:b9:4d:96:dd:2c:7e:b2:de:42:a2:
         a5:c8:f0:69:cd:ef:6f:b9:8e:16:ee:5b:b5:cb:61:05:0d:a8:
         9d:30:92:b9:33:05:89:8f:7a:aa:27:83:8a:55:5f:53:40:e5:
         d9:8f:b2:af:7f:16:73:79:d7:45:b7:cf:d0:02:3b:e2:13:1b:
         63:1f:ee:28:4d:c2:57:cc:3d:f5:ad:9c:19:5a:95:40:a1:e0:
         78:02:71:aa:17:0f:6e:2c:c4:79:9e:db:bc:1f:1c:cd:4e:af:
         07:e5:0d:a5:25:e4:c6:3a:00:70:11:f2:60:9a:b0:7b:07:23:
         f2:1e:43:25:70:63:44:b4:7a:e4:2a:b5:78:ce:64:ed:74:5c:
         3f:52:f9:5a:d0:0e:c3:34:a9:8a:56:a9:a5:b1:0f:eb:c0:cf:
         11:a4:50:3f:87:a5:90:92:d4:71:10:6c:a9:df:7b:6d:54:73:
         a4:bf:d0:6b:b1:fc:09:25:75:de:81:a6:e4:7f:ba:49:36:a7:
         8c:60:7b:b9:36:26:a6:f5:6e:20:93:d8:f9:97:2f:8d:07:47:
         29:75:88:05:15:d5:09:19:92:a6:0b:f1:4a:f7:38:8e:70:b5:
         49:bc:3c:f5:18:53:bc:88:e7:6e:3b:e6:b2:a8:0f:d1:a1:64:
         64:80:a8:9f
-----BEGIN CERTIFICATE-----
MIIDWjCCAkKgAwIBAgIRAN8mcujVGUjEtc4nBxvq+mswDQYJKoZIhvcNAQELBQAw
FTETMBEGA1UEAwwKdGVhbTkyLW5ldDAeFw0yMTA5MTIyMzMzMDNaFw0yNDA4Mjcy
MzMzMDNaMBgxFjAUBgNVBAMMDXRlYW05Mi1jbGllbnQwggEiMA0GCSqGSIb3DQEB
AQUAA4IBDwAwggEKAoIBAQDjmi6ZZG48YNXEkfJt46RjtBRx+I+8waY5E29Ce1Km
xzZmEEcXEB72Su9d9m5zuR/S3QJgv9hAZnrOjPa+lUWXFsQkwdWMteYgfTYCev6N
kRNgWp8crv3AE9Hwo1jgsWJ9TI1wWXLRwRyan9xaNB7YpaA1WTeR1yht+mMlK24U
2B3NUusLWfP1PjAR6w8XutLHOm7xFyh7kAth8C+T+rsKQ3RiiqybQDSYNf34ZUok
Wg3dkjQCXWktFruvDj//81uwHS2amZzWFt/3LqvVAGGjVuG1dMY/WUoX6M/4DZRj
KNnMZxDw7HCYACT7owOLU1mqHoqxfJwPzV5Njknq5JgrAgMBAAGjgaEwgZ4wCQYD
VR0TBAIwADAdBgNVHQ4EFgQUr5bXaDK+gSwwd2VvCx+iLutxJq4wUAYDVR0jBEkw
R4AUkFDPEYW1JQeW1az7E9H9PHcEouOhGaQXMBUxEzARBgNVBAMMCnRlYW05Mi1u
ZXSCFGrHSXyH8jge2d1YDQEN14PHk+3AMBMGA1UdJQQMMAoGCCsGAQUFBwMCMAsG
A1UdDwQEAwIHgDANBgkqhkiG9w0BAQsFAAOCAQEAuvOr8Mf4uJy5TZbdLH6y3kKi
pcjwac3vb7mOFu5btcthBQ2onTCSuTMFiY96qieDilVfU0Dl2Y+yr38Wc3nXRbfP
0AI74hMbYx/uKE3CV8w99a2cGVqVQKHgeAJxqhcPbizEeZ7bvB8czU6vB+UNpSXk
xjoAcBHyYJqwewcj8h5DJXBjRLR65Cq1eM5k7XRcP1L5WtAOwzSpilappbEP68DP
EaRQP4elkJLUcRBsqd97bVRzpL/Qa7H8CSV13oGm5H+6STanjGB7uTYmpvVuIJPY
+ZcvjQdHKXWIBRXVCRmSpgvxSvc4jnC1Sbw89RhTvIjnbjvmsqgP0aFkZIConw==
-----END CERTIFICATE-----
