Certificate:
    Data:
        Version: 3 (0x2)
        Serial Number:
            3a:45:99:8e:4d:fb:8e:b0:79:30:32:75:ed:af:6c:b5
        Signature Algorithm: sha256WithRSAEncryption
        Issuer: CN=team291-net
        Validity
            Not Before: Sep 13 01:23:32 2021 GMT
            Not After : Aug 28 01:23:32 2024 GMT
        Subject: CN=team291-server
        Subject Public Key Info:
            Public Key Algorithm: rsaEncryption
                RSA Public-Key: (2048 bit)
                Modulus:
                    00:b8:ec:1b:59:81:c6:61:ca:e1:c7:c3:bb:22:74:
                    83:e4:68:97:54:57:8a:9d:6e:12:23:a7:fe:e6:5b:
                    53:3e:e8:f0:f8:c1:9d:ac:09:4c:75:36:9f:d6:5b:
                    52:fd:eb:83:bc:00:8b:4b:16:33:17:da:bc:92:94:
                    a5:0f:b7:b5:b3:6f:13:2b:a4:2f:4f:ae:ea:9a:a2:
                    23:80:62:f4:5b:3c:a6:66:0b:d3:dc:ba:ad:5b:c5:
                    0a:49:6c:62:e1:9b:45:43:60:59:e6:71:33:36:e6:
                    b1:a8:92:6b:be:03:bd:11:02:62:7a:39:74:2d:fb:
                    b7:d2:d1:66:16:1c:ca:62:27:ba:c9:4d:fc:55:11:
                    65:c6:96:70:ae:00:80:05:2e:d0:87:ac:8f:37:84:
                    b4:35:7c:f1:cf:03:d9:b4:92:8f:19:86:c4:09:7d:
                    36:e2:4a:9e:8f:55:da:8b:eb:0a:a8:86:81:cf:e8:
                    75:ee:6b:e0:91:db:c5:03:1c:7b:88:4d:6f:14:a6:
                    3c:f3:db:25:09:4e:dc:53:d1:4d:1a:3b:15:21:b1:
                    6b:0f:e2:ee:f8:cf:19:38:58:ae:b8:3e:e5:a6:3e:
                    55:c1:cf:a5:fb:1e:a0:0e:b9:07:9c:81:97:a6:26:
                    ca:25:42:ff:58:cc:1e:97:bc:54:1f:79:40:a5:49:
                    fc:8f
                Exponent: 65537 (0x10001)
        X509v3 extensions:
            X509v3 Basic Constraints: 
                CA:FALSE
            X509v3 Subject Key Identifier: 
                FB:8A:25:F7:D8:76:B9:66:09:6A:82:83:C7:04:A2:2F:99:74:F6:DA
            X509v3 Authority Key Identifier: 
                keyid:49:4E:C7:AC:43:78:D0:30:5D:DC:28:64:35:32:4D:2E:E8:4B:6E:E2
                DirName:/CN=team291-net
                serial:4B:DF:ED:7E:94:ED:B3:4D:AA:94:30:A3:7C:A2:B1:16:36:DE:04:88

            X509v3 Extended Key Usage: 
                TLS Web Server Authentication
            X509v3 Key Usage: 
                Digital Signature, Key Encipherment
            X509v3 Subject Alternative Name: 
                DNS:team291-server
    Signature Algorithm: sha256WithRSAEncryption
         25:56:c9:db:8c:35:1c:63:74:53:3b:76:20:97:d5:9f:ea:40:
         1c:fa:0d:0a:a7:eb:3e:4a:08:ee:b0:4e:99:7f:c8:67:73:ef:
         db:05:8d:c2:dd:62:82:80:ad:dc:b6:2e:d7:9c:45:f7:e0:35:
         09:7b:92:ef:8f:c6:ca:56:df:ca:1b:cd:9f:6c:20:23:0e:9b:
         29:97:18:93:a5:70:49:fa:83:72:d4:6d:10:6c:82:dd:52:2e:
         fc:f4:92:d5:c5:0b:0f:b2:91:5b:04:28:fa:34:fb:1a:79:0e:
         4e:b8:17:f1:20:4b:eb:37:56:08:4a:d4:8c:fb:8e:a7:ab:f4:
         11:22:f6:9d:14:87:08:0d:21:5a:af:bd:ac:b1:65:a5:19:ad:
         b6:01:23:d6:6d:72:41:60:bc:56:a4:28:54:3e:63:52:aa:33:
         ba:65:d1:70:33:17:6d:55:40:9d:f6:71:fb:26:39:07:6d:ed:
         c9:1a:f7:ec:19:8a:de:8a:64:26:7f:bf:b7:ed:69:0e:a1:9d:
         54:16:35:47:dc:c1:20:c8:7c:14:4a:c1:48:23:be:db:5f:13:
         24:fe:d9:19:0a:56:be:e2:99:5f:cc:a9:e3:d6:36:b2:a3:01:
         4d:86:60:12:b0:7b:93:3d:73:6e:85:ce:a8:89:84:b3:73:97:
         34:b0:e7:aa
-----BEGIN CERTIFICATE-----
MIIDdzCCAl+gAwIBAgIQOkWZjk37jrB5MDJ17a9stTANBgkqhkiG9w0BAQsFADAW
MRQwEgYDVQQDDAt0ZWFtMjkxLW5ldDAeFw0yMTA5MTMwMTIzMzJaFw0yNDA4Mjgw
MTIzMzJaMBkxFzAVBgNVBAMMDnRlYW0yOTEtc2VydmVyMIIBIjANBgkqhkiG9w0B
AQEFAAOCAQ8AMIIBCgKCAQEAuOwbWYHGYcrhx8O7InSD5GiXVFeKnW4SI6f+5ltT
Pujw+MGdrAlMdTaf1ltS/euDvACLSxYzF9q8kpSlD7e1s28TK6QvT67qmqIjgGL0
WzymZgvT3LqtW8UKSWxi4ZtFQ2BZ5nEzNuaxqJJrvgO9EQJiejl0Lfu30tFmFhzK
Yie6yU38VRFlxpZwrgCABS7Qh6yPN4S0NXzxzwPZtJKPGYbECX024kqej1Xai+sK
qIaBz+h17mvgkdvFAxx7iE1vFKY889slCU7cU9FNGjsVIbFrD+Lu+M8ZOFiuuD7l
pj5Vwc+l+x6gDrkHnIGXpibKJUL/WMwel7xUH3lApUn8jwIDAQABo4G9MIG6MAkG
A1UdEwQCMAAwHQYDVR0OBBYEFPuKJffYdrlmCWqCg8cEoi+ZdPbaMFEGA1UdIwRK
MEiAFElOx6xDeNAwXdwoZDUyTS7oS27ioRqkGDAWMRQwEgYDVQQDDAt0ZWFtMjkx
LW5ldIIUS9/tfpTts02qlDCjfKKxFjbeBIgwEwYDVR0lBAwwCgYIKwYBBQUHAwEw
CwYDVR0PBAQDAgWgMBkGA1UdEQQSMBCCDnRlYW0yOTEtc2VydmVyMA0GCSqGSIb3
DQEBCwUAA4IBAQAlVsnbjDUcY3RTO3Ygl9Wf6kAc+g0Kp+s+SgjusE6Zf8hnc+/b
BY3C3WKCgK3cti7XnEX34DUJe5Lvj8bKVt/KG82fbCAjDpsplxiTpXBJ+oNy1G0Q
bILdUi789JLVxQsPspFbBCj6NPsaeQ5OuBfxIEvrN1YIStSM+46nq/QRIvadFIcI
DSFar72ssWWlGa22ASPWbXJBYLxWpChUPmNSqjO6ZdFwMxdtVUCd9nH7JjkHbe3J
GvfsGYreimQmf7+37WkOoZ1UFjVH3MEgyHwUSsFII77bXxMk/tkZCla+4plfzKnj
1jayowFNhmASsHuTPXNuhc6oiYSzc5c0sOeq
-----END CERTIFICATE-----
