Certificate:
    Data:
        Version: 3 (0x2)
        Serial Number:
            fa:5c:18:d9:32:7f:05:ca:4e:ce:e8:94:1f:9b:42:1e
        Signature Algorithm: sha256WithRSAEncryption
        Issuer: CN=team177-net
        Validity
            Not Before: Sep 13 00:20:03 2021 GMT
            Not After : Aug 28 00:20:03 2024 GMT
        Subject: CN=team177-server
        Subject Public Key Info:
            Public Key Algorithm: rsaEncryption
                RSA Public-Key: (2048 bit)
                Modulus:
                    00:d7:33:2e:48:5b:7d:c4:f9:83:9d:8e:c6:d9:d5:
                    d4:29:63:88:f4:8a:34:c2:62:f1:58:31:b0:31:eb:
                    0f:af:5d:f5:17:38:bd:f2:10:c1:85:70:43:af:75:
                    30:2e:77:29:0f:25:60:4a:36:5e:59:d8:4d:09:98:
                    39:f4:d1:71:5c:89:ca:f5:f8:9e:f8:2d:e7:d3:19:
                    07:ab:9f:71:bd:62:53:7b:bc:93:80:f3:5d:0c:6a:
                    6e:02:93:47:dc:ea:2a:49:bf:31:d0:3f:9c:c8:e8:
                    13:07:c9:91:75:cf:6b:1f:23:1c:f9:c5:20:4d:92:
                    32:01:97:d1:86:35:f0:0f:48:10:e1:8f:1e:b3:d8:
                    fe:49:6c:ba:cd:b5:ee:6b:ee:a5:e4:24:13:93:77:
                    b2:65:86:6f:1f:5b:c1:17:1b:6a:b7:fc:31:db:a1:
                    5f:34:a5:52:00:f0:5d:2b:a7:a1:0e:c7:9b:07:ab:
                    c3:54:67:26:48:20:bd:64:b3:9b:2f:20:44:1a:f2:
                    6a:be:13:20:25:47:02:f7:0d:34:1e:83:7f:53:96:
                    c4:ca:ba:9e:b7:69:77:43:87:48:17:b2:90:c5:48:
                    71:3f:4d:40:6c:de:cf:d4:d2:b6:a8:d8:ec:3a:4f:
                    c9:37:d0:40:3f:02:ff:8a:50:e4:93:0f:7e:0b:9c:
                    10:4b
                Exponent: 65537 (0x10001)
        X509v3 extensions:
            X509v3 Basic Constraints: 
                CA:FALSE
            X509v3 Subject Key Identifier: 
                FE:E3:EA:32:45:36:71:85:1E:0D:55:5C:E7:EB:9F:0A:24:6B:74:74
            X509v3 Authority Key Identifier: 
                keyid:47:54:86:6D:B2:8A:83:D6:98:1C:EC:25:0C:3F:E4:52:62:9F:82:5B
                DirName:/CN=team177-net
                serial:69:32:07:A8:3B:2D:52:EF:ED:67:42:71:CD:70:FB:AF:9E:20:D4:C9

            X509v3 Extended Key Usage: 
                TLS Web Server Authentication
            X509v3 Key Usage: 
                Digital Signature, Key Encipherment
            X509v3 Subject Alternative Name: 
                DNS:team177-server
    Signature Algorithm: sha256WithRSAEncryption
         6f:61:c4:3e:09:8a:7b:05:ef:41:6f:b8:36:35:90:7e:e0:51:
         44:95:10:14:8a:20:dd:30:a0:c9:cb:00:67:bb:c2:99:8a:58:
         39:a0:bc:fe:b5:70:70:cb:24:d2:70:0f:5d:90:37:76:cf:79:
         22:8e:7b:ab:f7:a7:8f:45:7d:5d:21:b1:52:91:63:b3:f4:84:
         ba:96:c9:30:7e:23:07:c2:a0:2d:4e:c4:69:0f:b5:07:f8:3f:
         bb:90:94:9c:c7:35:de:90:71:76:e5:a1:d2:0f:7e:08:01:c1:
         db:3f:be:d3:d5:b3:d4:eb:c4:e3:42:97:85:75:05:64:63:20:
         2f:8c:9b:b7:e4:0e:62:4c:e5:de:99:c6:7b:ae:42:33:40:ec:
         15:8d:26:fe:5e:9d:9c:22:2d:07:35:07:79:40:88:91:56:ea:
         69:a4:25:4e:85:f1:f3:ae:fb:1c:41:8b:49:c2:bb:67:92:6b:
         e5:26:a0:37:62:dd:14:cf:74:38:fb:d3:dd:4b:05:19:e0:4e:
         9a:1e:5f:e6:8e:02:4e:58:2a:d8:5c:00:d1:2b:8e:d7:0c:72:
         1c:57:05:80:d2:78:cb:e5:50:a6:15:9e:36:74:dd:23:27:f5:
         a8:4e:fd:3b:e7:30:46:3e:6c:7a:f1:13:8c:e7:ea:3f:ef:d0:
         42:d9:bf:d8
-----BEGIN CERTIFICATE-----
MIIDeDCCAmCgAwIBAgIRAPpcGNkyfwXKTs7olB+bQh4wDQYJKoZIhvcNAQELBQAw
FjEUMBIGA1UEAwwLdGVhbTE3Ny1uZXQwHhcNMjEwOTEzMDAyMDAzWhcNMjQwODI4
MDAyMDAzWjAZMRcwFQYDVQQDDA50ZWFtMTc3LXNlcnZlcjCCASIwDQYJKoZIhvcN
AQEBBQADggEPADCCAQoCggEBANczLkhbfcT5g52OxtnV1CljiPSKNMJi8VgxsDHr
D69d9Rc4vfIQwYVwQ691MC53KQ8lYEo2XlnYTQmYOfTRcVyJyvX4nvgt59MZB6uf
cb1iU3u8k4DzXQxqbgKTR9zqKkm/MdA/nMjoEwfJkXXPax8jHPnFIE2SMgGX0YY1
8A9IEOGPHrPY/klsus217mvupeQkE5N3smWGbx9bwRcbarf8MduhXzSlUgDwXSun
oQ7Hmwerw1RnJkggvWSzmy8gRBryar4TICVHAvcNNB6Df1OWxMq6nrdpd0OHSBey
kMVIcT9NQGzez9TStqjY7DpPyTfQQD8C/4pQ5JMPfgucEEsCAwEAAaOBvTCBujAJ
BgNVHRMEAjAAMB0GA1UdDgQWBBT+4+oyRTZxhR4NVVzn658KJGt0dDBRBgNVHSME
SjBIgBRHVIZtsoqD1pgc7CUMP+RSYp+CW6EapBgwFjEUMBIGA1UEAwwLdGVhbTE3
Ny1uZXSCFGkyB6g7LVLv7WdCcc1w+6+eINTJMBMGA1UdJQQMMAoGCCsGAQUFBwMB
MAsGA1UdDwQEAwIFoDAZBgNVHREEEjAQgg50ZWFtMTc3LXNlcnZlcjANBgkqhkiG
9w0BAQsFAAOCAQEAb2HEPgmKewXvQW+4NjWQfuBRRJUQFIog3TCgycsAZ7vCmYpY
OaC8/rVwcMsk0nAPXZA3ds95Io57q/enj0V9XSGxUpFjs/SEupbJMH4jB8KgLU7E
aQ+1B/g/u5CUnMc13pBxduWh0g9+CAHB2z++09Wz1OvE40KXhXUFZGMgL4ybt+QO
Ykzl3pnGe65CM0DsFY0m/l6dnCItBzUHeUCIkVbqaaQlToXx8677HEGLScK7Z5Jr
5SagN2LdFM90OPvT3UsFGeBOmh5f5o4CTlgq2FwA0SuO1wxyHFcFgNJ4y+VQphWe
NnTdIyf1qE79O+cwRj5sevETjOfqP+/QQtm/2A==
-----END CERTIFICATE-----
