Certificate:
    Data:
        Version: 3 (0x2)
        Serial Number:
            d6:69:66:ce:94:a3:cc:46:3e:64:be:02:88:32:b1:a3
        Signature Algorithm: sha256WithRSAEncryption
        Issuer: CN=team276-net
        Validity
            Not Before: Sep 13 01:18:03 2021 GMT
            Not After : Aug 28 01:18:03 2024 GMT
        Subject: CN=team276-client
        Subject Public Key Info:
            Public Key Algorithm: rsaEncryption
                RSA Public-Key: (2048 bit)
                Modulus:
                    00:d0:23:2e:a6:93:1d:29:51:46:87:0b:db:2a:a9:
                    ac:3d:64:a7:fa:e7:4f:a4:2b:f4:56:46:1e:69:88:
                    5d:fe:73:7d:a7:33:77:87:af:8d:7f:fc:b4:f1:0e:
                    e1:09:a5:6c:ea:52:61:6d:9f:fe:22:04:62:f8:c7:
                    00:e0:34:a7:96:6d:f4:a2:65:63:04:21:2a:87:51:
                    02:f1:6a:27:2a:48:59:94:d9:9e:fe:cb:7e:89:3f:
                    4e:35:31:90:a1:3f:fb:4a:17:7b:cf:4e:46:d6:cc:
                    ef:c7:11:9e:92:0a:57:24:1e:c2:18:bb:16:f4:c4:
                    88:1d:f3:5b:f2:7b:a5:57:33:8e:7e:c0:30:71:96:
                    5c:42:4a:fd:f9:b1:de:c2:53:00:18:07:f0:be:9f:
                    af:44:c8:0c:39:4f:02:3e:9a:f1:69:01:37:d5:22:
                    bc:ca:2c:e8:ff:9b:bc:38:68:fb:5f:8a:e6:95:57:
                    bb:5f:a4:fc:02:9a:08:85:22:6e:38:08:01:ef:a1:
                    ed:64:2e:9a:8f:5c:36:4f:14:f7:0c:f1:bc:98:85:
                    4d:76:90:69:6b:59:21:a7:ca:f2:37:fc:80:52:a4:
                    2c:97:d9:1f:cc:d5:50:41:e7:55:b5:4c:f1:de:fd:
                    6c:01:28:ee:dd:35:4e:a4:c7:fb:d6:b0:dc:2a:f3:
                    15:69
                Exponent: 65537 (0x10001)
        X509v3 extensions:
            X509v3 Basic Constraints: 
                CA:FALSE
            X509v3 Subject Key Identifier: 
                89:2E:E9:D9:3A:1D:60:E8:E0:EB:14:AB:9E:3A:97:B2:FE:91:84:CD
            X509v3 Authority Key Identifier: 
                keyid:71:1C:B6:67:5F:C4:FB:9A:FA:F3:47:D7:B4:42:5E:07:22:52:C2:EB
                DirName:/CN=team276-net
                serial:6F:B0:7A:32:54:E1:2F:5B:F4:88:B2:17:E0:C4:F9:0B:50:EA:A8:27

            X509v3 Extended Key Usage: 
                TLS Web Client Authentication
            X509v3 Key Usage: 
                Digital Signature
    Signature Algorithm: sha256WithRSAEncryption
         8e:8d:a2:aa:e9:5c:d2:1e:0b:d0:63:f0:4f:f7:cd:a1:e5:f3:
         f8:b1:d7:da:d2:15:9b:c3:3e:57:6e:c7:ff:6e:52:fb:88:74:
         ed:19:8d:64:db:a0:da:e8:50:cf:d7:b7:13:cd:02:12:41:98:
         cf:bf:da:53:09:9b:e7:6e:b3:74:95:e8:b9:73:cb:b7:83:db:
         56:32:a4:93:b8:a0:73:44:ab:65:bb:08:eb:4b:5c:15:5e:59:
         63:f0:bf:e2:32:f2:2b:00:77:56:0d:c9:ee:c7:c9:36:f4:a6:
         a7:59:36:eb:dd:ff:89:2f:95:7d:97:75:b9:08:54:4c:60:e2:
         07:92:62:09:94:a6:74:37:2c:f0:a3:c5:e1:47:af:63:25:12:
         21:87:60:b5:40:36:a4:b3:a1:fe:86:28:77:36:30:7d:bb:95:
         1f:60:9d:28:d7:d1:8f:5a:8e:26:1a:94:52:ee:5b:8e:5b:0f:
         fd:87:66:d0:16:b6:a1:d8:e6:5b:e9:f3:d0:f7:8b:0a:28:af:
         63:5b:f9:24:9c:0f:3d:e4:b1:bc:23:bd:03:4b:8b:1d:da:f9:
         a8:cc:ec:f9:0e:80:19:2c:32:78:35:e4:8c:eb:c1:42:09:be:
         57:c0:4e:6f:79:5e:d2:0a:00:a0:65:7e:07:c8:0b:ee:49:28:
         27:10:3e:1b
-----BEGIN CERTIFICATE-----
MIIDXTCCAkWgAwIBAgIRANZpZs6Uo8xGPmS+AogysaMwDQYJKoZIhvcNAQELBQAw
FjEUMBIGA1UEAwwLdGVhbTI3Ni1uZXQwHhcNMjEwOTEzMDExODAzWhcNMjQwODI4
MDExODAzWjAZMRcwFQYDVQQDDA50ZWFtMjc2LWNsaWVudDCCASIwDQYJKoZIhvcN
AQEBBQADggEPADCCAQoCggEBANAjLqaTHSlRRocL2yqprD1kp/rnT6Qr9FZGHmmI
Xf5zfaczd4evjX/8tPEO4QmlbOpSYW2f/iIEYvjHAOA0p5Zt9KJlYwQhKodRAvFq
JypIWZTZnv7Lfok/TjUxkKE/+0oXe89ORtbM78cRnpIKVyQewhi7FvTEiB3zW/J7
pVczjn7AMHGWXEJK/fmx3sJTABgH8L6fr0TIDDlPAj6a8WkBN9UivMos6P+bvDho
+1+K5pVXu1+k/AKaCIUibjgIAe+h7WQumo9cNk8U9wzxvJiFTXaQaWtZIafK8jf8
gFKkLJfZH8zVUEHnVbVM8d79bAEo7t01TqTH+9aw3CrzFWkCAwEAAaOBojCBnzAJ
BgNVHRMEAjAAMB0GA1UdDgQWBBSJLunZOh1g6ODrFKueOpey/pGEzTBRBgNVHSME
SjBIgBRxHLZnX8T7mvrzR9e0Ql4HIlLC66EapBgwFjEUMBIGA1UEAwwLdGVhbTI3
Ni1uZXSCFG+wejJU4S9b9IiyF+DE+QtQ6qgnMBMGA1UdJQQMMAoGCCsGAQUFBwMC
MAsGA1UdDwQEAwIHgDANBgkqhkiG9w0BAQsFAAOCAQEAjo2iqulc0h4L0GPwT/fN
oeXz+LHX2tIVm8M+V27H/25S+4h07RmNZNug2uhQz9e3E80CEkGYz7/aUwmb526z
dJXouXPLt4PbVjKkk7igc0SrZbsI60tcFV5ZY/C/4jLyKwB3Vg3J7sfJNvSmp1k2
693/iS+VfZd1uQhUTGDiB5JiCZSmdDcs8KPF4UevYyUSIYdgtUA2pLOh/oYodzYw
fbuVH2CdKNfRj1qOJhqUUu5bjlsP/Ydm0Ba2odjmW+nz0PeLCiivY1v5JJwPPeSx
vCO9A0uLHdr5qMzs+Q6AGSwyeDXkjOvBQgm+V8BOb3le0goAoGV+B8gL7kkoJxA+
Gw==
-----END CERTIFICATE-----
