Certificate:
    Data:
        Version: 3 (0x2)
        Serial Number:
            f2:52:cb:00:33:52:8c:68:3e:1b:e4:83:62:cf:f2:7e
        Signature Algorithm: sha256WithRSAEncryption
        Issuer: CN=team542-net
        Validity
            Not Before: Sep 13 03:26:47 2021 GMT
            Not After : Aug 28 03:26:47 2024 GMT
        Subject: CN=team542-client
        Subject Public Key Info:
            Public Key Algorithm: rsaEncryption
                RSA Public-Key: (2048 bit)
                Modulus:
                    00:a5:e4:7d:2b:24:56:46:f2:ef:24:1d:1d:0d:e6:
                    1e:7e:b0:96:d4:04:57:6a:37:1f:5e:fb:9f:05:f3:
                    86:4a:8c:e9:f3:79:ed:11:e4:22:48:77:1e:6d:48:
                    23:dd:ef:e1:95:06:af:46:8a:95:9e:7c:19:e3:a9:
                    c7:ac:b0:cb:23:8e:fb:8a:c1:f8:6b:36:04:2b:c0:
                    97:2e:d4:01:c9:bc:98:85:60:f8:4c:fc:cd:73:54:
                    74:eb:bf:01:ab:9b:ac:43:3a:ad:5f:10:20:7a:65:
                    b9:4b:1d:6d:86:ac:34:a4:31:f4:4e:26:8e:c1:e7:
                    d7:81:89:56:43:41:57:f8:71:f9:ee:b2:7a:c8:ce:
                    3c:4a:ab:1b:f2:46:ae:3d:4a:35:00:76:89:2e:53:
                    01:09:3c:46:16:81:8c:1f:16:c1:10:e9:0d:c3:97:
                    13:fa:57:19:6d:75:3e:47:14:07:79:d3:e8:95:6f:
                    fa:82:24:3c:89:14:a6:de:31:99:b6:57:42:ae:d6:
                    20:32:92:46:2d:26:27:be:d4:54:9a:30:3b:da:23:
                    b7:28:72:ea:6d:45:49:ff:0e:19:6d:b2:3a:2c:15:
                    37:cb:16:fe:bf:d5:ea:a8:84:82:d1:bb:07:04:ab:
                    dc:cc:e4:ed:6d:3d:74:df:f3:97:83:59:a1:43:cf:
                    5e:3f
                Exponent: 65537 (0x10001)
        X509v3 extensions:
            X509v3 Basic Constraints: 
                CA:FALSE
            X509v3 Subject Key Identifier: 
                81:79:DF:F8:A4:B6:E4:B8:E6:F3:AE:00:CE:C7:94:59:81:DB:46:A3
            X509v3 Authority Key Identifier: 
                keyid:DB:14:26:42:0B:30:D4:5D:53:B7:C4:CC:02:62:E5:FE:B4:94:1F:F5
                DirName:/CN=team542-net
                serial:78:41:E5:57:5F:3E:D0:A7:50:C5:12:AE:51:97:64:88:60:39:35:F2

            X509v3 Extended Key Usage: 
                TLS Web Client Authentication
            X509v3 Key Usage: 
                Digital Signature
    Signature Algorithm: sha256WithRSAEncryption
         2e:32:c6:06:1b:cf:07:83:ce:59:5f:3c:c8:cb:50:ef:6d:0f:
         e7:26:68:fa:66:f2:3c:ee:a0:23:52:0e:1a:0f:6c:4f:20:ad:
         8f:8f:b7:85:77:52:ef:0a:cf:ba:8f:54:40:e9:7b:3e:c0:61:
         8a:ac:fa:e0:7b:12:17:6d:9f:50:a0:7f:9f:8f:0a:7c:ee:53:
         f8:57:7c:f6:c6:cb:78:e7:90:2a:c6:83:c0:69:7e:85:6c:da:
         de:2c:b4:6b:b6:38:e2:ba:e0:e5:4b:62:55:27:63:da:58:a3:
         e1:d3:39:fb:e3:cf:74:42:47:0e:48:c7:76:e2:b1:27:59:a8:
         01:be:92:1c:9e:e8:89:f8:dd:52:d5:f6:5b:5d:c7:26:48:bb:
         08:22:59:e1:74:bc:3c:50:a4:f4:fd:c6:84:27:f3:b6:25:cb:
         f4:07:3d:a5:f5:e0:39:fc:0b:63:9b:aa:28:b1:c9:49:cd:d2:
         2a:24:4b:7e:d8:68:56:66:75:ef:ff:57:95:9e:e9:b5:4f:d1:
         a9:96:62:6a:8d:bc:06:f2:68:6a:4a:4e:28:6f:f1:ea:f3:ff:
         c6:d1:cd:bf:93:3c:60:33:57:f4:8d:2e:c9:b9:ec:72:d9:72:
         1d:74:1c:1c:49:50:d0:51:04:a4:84:5e:c7:72:09:4b:fd:2a:
         ee:31:0f:84
-----BEGIN CERTIFICATE-----
MIIDXTCCAkWgAwIBAgIRAPJSywAzUoxoPhvkg2LP8n4wDQYJKoZIhvcNAQELBQAw
FjEUMBIGA1UEAwwLdGVhbTU0Mi1uZXQwHhcNMjEwOTEzMDMyNjQ3WhcNMjQwODI4
MDMyNjQ3WjAZMRcwFQYDVQQDDA50ZWFtNTQyLWNsaWVudDCCASIwDQYJKoZIhvcN
AQEBBQADggEPADCCAQoCggEBAKXkfSskVkby7yQdHQ3mHn6wltQEV2o3H177nwXz
hkqM6fN57RHkIkh3Hm1II93v4ZUGr0aKlZ58GeOpx6ywyyOO+4rB+Gs2BCvAly7U
Acm8mIVg+Ez8zXNUdOu/AaubrEM6rV8QIHpluUsdbYasNKQx9E4mjsHn14GJVkNB
V/hx+e6yesjOPEqrG/JGrj1KNQB2iS5TAQk8RhaBjB8WwRDpDcOXE/pXGW11PkcU
B3nT6JVv+oIkPIkUpt4xmbZXQq7WIDKSRi0mJ77UVJowO9ojtyhy6m1FSf8OGW2y
OiwVN8sW/r/V6qiEgtG7BwSr3Mzk7W09dN/zl4NZoUPPXj8CAwEAAaOBojCBnzAJ
BgNVHRMEAjAAMB0GA1UdDgQWBBSBed/4pLbkuObzrgDOx5RZgdtGozBRBgNVHSME
SjBIgBTbFCZCCzDUXVO3xMwCYuX+tJQf9aEapBgwFjEUMBIGA1UEAwwLdGVhbTU0
Mi1uZXSCFHhB5VdfPtCnUMUSrlGXZIhgOTXyMBMGA1UdJQQMMAoGCCsGAQUFBwMC
MAsGA1UdDwQEAwIHgDANBgkqhkiG9w0BAQsFAAOCAQEALjLGBhvPB4POWV88yMtQ
720P5yZo+mbyPO6gI1IOGg9sTyCtj4+3hXdS7wrPuo9UQOl7PsBhiqz64HsSF22f
UKB/n48KfO5T+Fd89sbLeOeQKsaDwGl+hWza3iy0a7Y44rrg5UtiVSdj2lij4dM5
++PPdEJHDkjHduKxJ1moAb6SHJ7oifjdUtX2W13HJki7CCJZ4XS8PFCk9P3GhCfz
tiXL9Ac9pfXgOfwLY5uqKLHJSc3SKiRLfthoVmZ17/9XlZ7ptU/RqZZiao28BvJo
akpOKG/x6vP/xtHNv5M8YDNX9I0uybnsctlyHXQcHElQ0FEEpIRex3IJS/0q7jEP
hA==
-----END CERTIFICATE-----
