Certificate:
    Data:
        Version: 3 (0x2)
        Serial Number:
            0e:e1:d3:c4:dd:ba:6d:eb:01:41:72:89:d2:0d:b8:06
        Signature Algorithm: sha256WithRSAEncryption
        Issuer: CN=team4-net
        Validity
            Not Before: Sep 12 22:40:41 2021 GMT
            Not After : Aug 27 22:40:41 2024 GMT
        Subject: CN=team4-server
        Subject Public Key Info:
            Public Key Algorithm: rsaEncryption
                RSA Public-Key: (2048 bit)
                Modulus:
                    00:b8:53:b3:a2:1f:bd:cb:8e:97:6b:30:53:02:b8:
                    0a:6b:ff:11:0d:e5:ca:1c:90:0b:a8:1c:94:13:f7:
                    d0:ef:68:c1:31:1f:51:c7:bb:1b:72:0b:cb:b0:e1:
                    cf:21:97:40:e1:e7:e8:db:e3:35:a2:97:42:dd:a6:
                    c3:dd:74:0e:41:eb:0a:10:4c:ce:4e:a9:39:c9:8a:
                    38:d9:33:33:72:3d:c0:1d:3d:19:7a:02:47:7f:7c:
                    6e:b3:06:5d:56:89:73:82:35:84:f2:b1:1c:07:55:
                    d8:2e:ec:c6:c8:95:99:5e:52:4e:b1:28:3d:89:5c:
                    90:bd:5f:17:18:79:58:d5:4e:cf:22:cf:cd:34:98:
                    df:81:a9:ea:c9:23:cf:c2:45:40:d5:4a:ad:b0:5f:
                    5b:43:bd:dc:b6:19:1b:84:f1:41:3c:84:9f:9a:63:
                    83:99:59:08:39:56:80:21:72:91:06:01:20:22:52:
                    a8:e5:9d:bc:7c:0a:d8:2f:2e:d5:e1:9e:ef:e5:67:
                    b9:4b:20:d4:00:4e:2c:bf:a8:45:65:ef:2a:79:a0:
                    09:9f:b8:ee:25:34:2b:94:35:91:d7:c5:b3:5e:4f:
                    c3:0a:4e:18:79:b2:78:48:4c:b5:4e:58:1b:9d:08:
                    8b:c8:79:10:1c:d9:e6:4f:e5:3d:aa:78:de:1b:7c:
                    22:73
                Exponent: 65537 (0x10001)
        X509v3 extensions:
            X509v3 Basic Constraints: 
                CA:FALSE
            X509v3 Subject Key Identifier: 
                A3:38:DE:8C:C1:70:15:9F:94:D9:71:22:0C:D0:E0:63:CF:CD:63:DD
            X509v3 Authority Key Identifier: 
                keyid:70:14:F5:3E:DC:51:3C:68:BF:B2:28:AC:01:55:FD:27:69:17:3C:74
                DirName:/CN=team4-net
                serial:6D:04:D8:EC:3D:BA:F3:77:86:F2:06:F7:CA:4C:92:CE:89:E1:C7:BB

            X509v3 Extended Key Usage: 
                TLS Web Server Authentication
            X509v3 Key Usage: 
                Digital Signature, Key Encipherment
            X509v3 Subject Alternative Name: 
                DNS:team4-server
    Signature Algorithm: sha256WithRSAEncryption
         6e:0b:eb:7d:0d:78:86:18:9b:f9:7c:eb:02:20:e8:79:e1:15:
         77:5e:55:66:2d:ef:a6:47:da:4f:d6:09:23:0d:36:62:b1:1a:
         39:44:ac:74:1c:a4:d1:3c:e4:66:82:29:c7:39:b6:f6:04:45:
         f5:31:83:09:c3:43:7c:5b:e4:ea:bf:bb:13:ff:49:26:45:d4:
         68:b4:5c:62:34:e3:c3:68:4f:a4:dd:6c:61:86:f6:ab:ac:21:
         e6:0c:3d:6d:9b:66:39:55:8c:23:d0:fa:1d:26:f1:96:bf:f0:
         fa:58:e8:5a:47:c3:d8:90:52:f3:26:36:21:70:4a:45:c0:2b:
         7a:44:46:9b:28:71:c0:3d:08:92:7d:69:db:ff:fd:07:3d:6a:
         75:62:df:ba:d4:fa:bc:dc:ba:59:fe:19:92:19:11:95:6c:e3:
         5f:c9:09:a2:e9:0d:64:35:fc:df:5f:21:67:61:f8:bb:d2:89:
         1f:cb:e7:83:08:ed:98:56:5b:cd:11:7e:aa:31:6b:ac:82:7c:
         e3:ad:5d:fd:51:dd:57:c9:83:79:80:61:37:7b:0a:6f:e0:ed:
         cd:e5:2f:5c:d0:50:71:b3:30:cb:f8:2a:88:76:36:18:98:71:
         e3:f5:ce:a4:a7:41:25:fd:d8:0e:a5:ba:a0:18:33:aa:82:10:
         9f:cf:d0:fc
-----BEGIN CERTIFICATE-----
MIIDbzCCAlegAwIBAgIQDuHTxN26besBQXKJ0g24BjANBgkqhkiG9w0BAQsFADAU
MRIwEAYDVQQDDAl0ZWFtNC1uZXQwHhcNMjEwOTEyMjI0MDQxWhcNMjQwODI3MjI0
MDQxWjAXMRUwEwYDVQQDDAx0ZWFtNC1zZXJ2ZXIwggEiMA0GCSqGSIb3DQEBAQUA
A4IBDwAwggEKAoIBAQC4U7OiH73LjpdrMFMCuApr/xEN5cockAuoHJQT99DvaMEx
H1HHuxtyC8uw4c8hl0Dh5+jb4zWil0LdpsPddA5B6woQTM5OqTnJijjZMzNyPcAd
PRl6Akd/fG6zBl1WiXOCNYTysRwHVdgu7MbIlZleUk6xKD2JXJC9XxcYeVjVTs8i
z800mN+BqerJI8/CRUDVSq2wX1tDvdy2GRuE8UE8hJ+aY4OZWQg5VoAhcpEGASAi
Uqjlnbx8CtgvLtXhnu/lZ7lLINQATiy/qEVl7yp5oAmfuO4lNCuUNZHXxbNeT8MK
Thh5snhITLVOWBudCIvIeRAc2eZP5T2qeN4bfCJzAgMBAAGjgbkwgbYwCQYDVR0T
BAIwADAdBgNVHQ4EFgQUozjejMFwFZ+U2XEiDNDgY8/NY90wTwYDVR0jBEgwRoAU
cBT1PtxRPGi/siisAVX9J2kXPHShGKQWMBQxEjAQBgNVBAMMCXRlYW00LW5ldIIU
bQTY7D2683eG8gb3ykySzonhx7swEwYDVR0lBAwwCgYIKwYBBQUHAwEwCwYDVR0P
BAQDAgWgMBcGA1UdEQQQMA6CDHRlYW00LXNlcnZlcjANBgkqhkiG9w0BAQsFAAOC
AQEAbgvrfQ14hhib+XzrAiDoeeEVd15VZi3vpkfaT9YJIw02YrEaOUSsdByk0Tzk
ZoIpxzm29gRF9TGDCcNDfFvk6r+7E/9JJkXUaLRcYjTjw2hPpN1sYYb2q6wh5gw9
bZtmOVWMI9D6HSbxlr/w+ljoWkfD2JBS8yY2IXBKRcArekRGmyhxwD0Ikn1p2//9
Bz1qdWLfutT6vNy6Wf4ZkhkRlWzjX8kJoukNZDX8318hZ2H4u9KJH8vngwjtmFZb
zRF+qjFrrIJ8461d/VHdV8mDeYBhN3sKb+DtzeUvXNBQcbMwy/gqiHY2GJhx4/XO
pKdBJf3YDqW6oBgzqoIQn8/Q/A==
-----END CERTIFICATE-----
