Certificate:
    Data:
        Version: 3 (0x2)
        Serial Number:
            50:a8:42:35:c9:93:3a:9b:cf:ea:d6:bb:46:71:fd:77
        Signature Algorithm: sha256WithRSAEncryption
        Issuer: CN=team4-net
        Validity
            Not Before: Sep 12 22:40:41 2021 GMT
            Not After : Aug 27 22:40:41 2024 GMT
        Subject: CN=team4-client
        Subject Public Key Info:
            Public Key Algorithm: rsaEncryption
                RSA Public-Key: (2048 bit)
                Modulus:
                    00:ca:5a:5c:98:64:b2:5a:a5:30:17:5a:8c:b4:1a:
                    46:5e:94:5f:03:ec:5d:cb:a2:51:6b:33:d1:e9:49:
                    15:4c:2a:ad:56:19:24:7e:51:23:ba:ea:d6:bf:d9:
                    de:50:ba:14:29:be:a3:a9:06:a9:ed:a1:ad:c7:bc:
                    34:f2:b5:2f:f5:f0:60:77:fe:a1:19:ff:1b:2e:f3:
                    20:06:45:4c:a6:4f:fd:1c:8c:2f:49:12:40:72:d4:
                    d2:fb:78:fc:6e:64:94:26:7b:e6:d1:fb:22:03:4f:
                    79:8a:e8:b6:85:c0:01:c7:f3:3d:e7:39:0f:99:73:
                    d4:ca:f0:1f:49:ff:0b:12:61:4e:74:0a:ad:91:49:
                    a7:e7:7f:37:0e:27:40:4e:ae:ba:9e:28:eb:33:7b:
                    69:4e:be:4c:00:59:76:a3:df:d5:0d:58:8c:d9:c6:
                    36:81:1d:81:6d:49:61:c1:99:da:e8:de:0f:65:bc:
                    03:91:8b:76:08:b7:86:1f:e5:4c:2f:bf:d9:10:ab:
                    fe:21:6b:24:d3:fa:66:1f:54:c8:e3:87:b8:25:eb:
                    6a:79:be:0b:e2:ad:d6:15:1f:3a:69:9c:41:b8:ee:
                    6c:a4:13:dd:e1:91:66:41:d0:74:34:b8:1e:b2:78:
                    14:03:0d:5b:42:31:c2:f1:d4:e5:8f:8c:e9:0f:f6:
                    39:ab
                Exponent: 65537 (0x10001)
        X509v3 extensions:
            X509v3 Basic Constraints: 
                CA:FALSE
            X509v3 Subject Key Identifier: 
                84:60:05:E0:7C:C0:15:89:FD:39:80:B1:E0:80:9C:42:2B:87:17:3C
            X509v3 Authority Key Identifier: 
                keyid:70:14:F5:3E:DC:51:3C:68:BF:B2:28:AC:01:55:FD:27:69:17:3C:74
                DirName:/CN=team4-net
                serial:6D:04:D8:EC:3D:BA:F3:77:86:F2:06:F7:CA:4C:92:CE:89:E1:C7:BB

            X509v3 Extended Key Usage: 
                TLS Web Client Authentication
            X509v3 Key Usage: 
                Digital Signature
    Signature Algorithm: sha256WithRSAEncryption
         11:3b:71:13:ac:7c:eb:6a:30:55:04:a5:ee:5f:10:95:c8:86:
         d9:96:39:8f:ae:de:7b:35:06:92:21:94:ad:e5:a1:c8:23:ec:
         0e:02:57:be:2a:e2:dc:47:0f:00:54:2c:34:7d:5b:6d:54:bc:
         fa:47:a0:37:e7:03:01:68:a2:58:10:6b:45:9a:8a:8d:1a:01:
         d8:f5:d8:73:02:2e:b1:14:a9:c2:de:80:d0:4f:90:ca:e0:c0:
         1e:fa:23:2f:04:7a:38:c8:0f:ad:31:d0:c7:1b:91:c4:4b:3b:
         0c:5b:3d:6c:dc:64:3c:fd:d8:46:c0:26:b7:c8:4b:d1:8e:1f:
         eb:ee:8b:f2:36:57:9d:e0:f9:ee:93:a9:12:9a:1e:46:85:f7:
         71:5c:a8:50:91:a0:f7:66:00:a4:20:79:62:75:dd:63:5b:18:
         34:3d:30:66:b4:9d:33:df:0b:5b:97:57:85:a6:db:13:ea:45:
         9f:63:bc:49:2a:2c:a2:f9:4f:6d:87:a9:04:02:44:f4:9c:7b:
         82:b6:e4:9a:83:80:9e:5b:94:24:20:e5:07:71:90:04:be:db:
         b8:1c:fb:d0:51:18:72:1c:d7:2b:9e:4b:19:65:27:af:1b:11:
         b3:e6:94:ff:93:c7:53:4b:7a:96:7d:e3:83:ac:b2:55:58:e8:
         96:c7:6d:39
-----BEGIN CERTIFICATE-----
MIIDVjCCAj6gAwIBAgIQUKhCNcmTOpvP6ta7RnH9dzANBgkqhkiG9w0BAQsFADAU
MRIwEAYDVQQDDAl0ZWFtNC1uZXQwHhcNMjEwOTEyMjI0MDQxWhcNMjQwODI3MjI0
MDQxWjAXMRUwEwYDVQQDDAx0ZWFtNC1jbGllbnQwggEiMA0GCSqGSIb3DQEBAQUA
A4IBDwAwggEKAoIBAQDKWlyYZLJapTAXWoy0GkZelF8D7F3LolFrM9HpSRVMKq1W
GSR+USO66ta/2d5QuhQpvqOpBqntoa3HvDTytS/18GB3/qEZ/xsu8yAGRUymT/0c
jC9JEkBy1NL7ePxuZJQme+bR+yIDT3mK6LaFwAHH8z3nOQ+Zc9TK8B9J/wsSYU50
Cq2RSafnfzcOJ0BOrrqeKOsze2lOvkwAWXaj39UNWIzZxjaBHYFtSWHBmdro3g9l
vAORi3YIt4Yf5Uwvv9kQq/4hayTT+mYfVMjjh7gl62p5vgvirdYVHzppnEG47myk
E93hkWZB0HQ0uB6yeBQDDVtCMcLx1OWPjOkP9jmrAgMBAAGjgaAwgZ0wCQYDVR0T
BAIwADAdBgNVHQ4EFgQUhGAF4HzAFYn9OYCx4ICcQiuHFzwwTwYDVR0jBEgwRoAU
cBT1PtxRPGi/siisAVX9J2kXPHShGKQWMBQxEjAQBgNVBAMMCXRlYW00LW5ldIIU
bQTY7D2683eG8gb3ykySzonhx7swEwYDVR0lBAwwCgYIKwYBBQUHAwIwCwYDVR0P
BAQDAgeAMA0GCSqGSIb3DQEBCwUAA4IBAQARO3ETrHzrajBVBKXuXxCVyIbZljmP
rt57NQaSIZSt5aHII+wOAle+KuLcRw8AVCw0fVttVLz6R6A35wMBaKJYEGtFmoqN
GgHY9dhzAi6xFKnC3oDQT5DK4MAe+iMvBHo4yA+tMdDHG5HESzsMWz1s3GQ8/dhG
wCa3yEvRjh/r7ovyNled4Pnuk6kSmh5GhfdxXKhQkaD3ZgCkIHlidd1jWxg0PTBm
tJ0z3wtbl1eFptsT6kWfY7xJKiyi+U9th6kEAkT0nHuCtuSag4CeW5QkIOUHcZAE
vtu4HPvQURhyHNcrnksZZSevGxGz5pT/k8dTS3qWfeODrLJVWOiWx205
-----END CERTIFICATE-----
