Certificate:
    Data:
        Version: 3 (0x2)
        Serial Number:
            84:04:ce:67:18:13:ea:2c:a2:8d:b7:fe:fc:81:fc:ce
        Signature Algorithm: sha256WithRSAEncryption
        Issuer: CN=team546-net
        Validity
            Not Before: Sep 13 03:29:28 2021 GMT
            Not After : Aug 28 03:29:28 2024 GMT
        Subject: CN=team546-client
        Subject Public Key Info:
            Public Key Algorithm: rsaEncryption
                RSA Public-Key: (2048 bit)
                Modulus:
                    00:b5:08:e9:d8:f1:e4:94:f1:25:6c:79:a3:b6:e3:
                    4b:c8:6a:ec:2d:0e:76:f8:6b:fa:bd:de:00:b6:c4:
                    0c:05:80:ca:e4:5d:41:99:3a:30:c0:1b:05:b7:f1:
                    98:e1:56:92:17:9f:2c:b6:32:26:ea:61:eb:2a:f4:
                    f6:93:fd:80:de:af:82:27:22:3e:eb:30:65:a9:86:
                    68:31:c1:ba:4d:be:43:4d:1b:36:16:2b:05:16:d7:
                    b6:d4:e3:72:df:dc:b8:e1:dd:5f:8c:58:4f:97:79:
                    cc:48:38:c7:37:9b:2a:eb:5a:3b:71:cf:28:9e:56:
                    92:e6:d9:77:bc:32:e4:10:52:67:18:f1:e7:5c:3f:
                    ca:ff:1b:d4:ba:f2:96:5c:0e:5f:54:76:92:ac:c9:
                    6e:05:34:b5:48:25:c1:18:0e:8c:0e:9d:ef:62:e6:
                    4a:1d:9e:2c:b6:6e:8d:6b:7c:a4:d2:fd:93:c8:8f:
                    f9:2c:c8:15:96:cc:43:29:6d:42:b8:fa:cd:36:2a:
                    b2:cc:88:04:ef:24:8c:fe:01:e8:60:af:36:5f:c5:
                    81:00:3c:aa:83:44:40:c0:fb:fd:4e:df:db:71:48:
                    43:52:cb:1e:a5:02:9c:4e:7f:cd:27:43:55:17:a0:
                    5b:08:9a:84:32:2e:9d:56:01:f6:14:8e:dc:c0:35:
                    b7:b7
                Exponent: 65537 (0x10001)
        X509v3 extensions:
            X509v3 Basic Constraints: 
                CA:FALSE
            X509v3 Subject Key Identifier: 
                8E:44:F1:57:FB:15:F4:36:9F:15:98:46:83:14:E9:47:29:C0:2B:02
            X509v3 Authority Key Identifier: 
                keyid:AB:90:E7:B6:A9:97:48:EB:E3:F2:E9:62:03:92:93:3F:6D:48:7E:C1
                DirName:/CN=team546-net
                serial:35:8D:E4:F9:6F:62:ED:EE:9C:7C:1B:77:4B:5D:A7:FA:35:9A:38:6D

            X509v3 Extended Key Usage: 
                TLS Web Client Authentication
            X509v3 Key Usage: 
                Digital Signature
    Signature Algorithm: sha256WithRSAEncryption
         93:41:8f:e5:74:67:9c:49:42:d8:6f:32:91:fa:97:12:74:bc:
         2c:c2:64:9d:a2:e5:2c:8b:3c:44:90:bd:01:06:83:72:46:18:
         bf:76:08:23:35:83:78:6a:d6:75:cc:fb:43:32:b3:ce:cc:18:
         73:ab:33:4f:f7:8e:34:c6:10:f3:3e:d2:2c:b8:46:0a:85:ca:
         5b:75:94:9f:09:11:58:b7:dd:3d:c7:33:98:81:1b:cd:3c:4d:
         b5:0b:ec:52:00:f0:30:8c:42:b8:88:85:b9:1e:b4:64:e3:79:
         19:3a:54:47:6d:dc:e2:65:ff:06:1b:66:58:6c:9e:3f:f9:69:
         92:55:8d:6a:d7:59:92:2c:cc:ff:9e:c6:0e:c6:d8:db:11:d6:
         d2:31:bc:58:e5:83:bd:ba:cb:0a:e3:be:cb:a8:44:4d:97:80:
         ab:ff:b5:7f:cd:7a:03:17:31:ca:f8:89:3f:39:b1:26:24:81:
         58:77:31:b2:fb:d5:c3:f7:5a:d7:02:06:03:f6:b5:2e:b9:da:
         83:18:91:cf:23:b2:f1:7c:ad:34:25:c2:6d:6f:46:f8:06:6f:
         4d:e9:fa:64:45:a2:f4:3e:ec:87:a2:0e:d0:21:0e:23:ed:67:
         3b:30:e4:7e:12:ea:b2:10:a6:9f:4b:13:a8:a8:ed:de:db:cb:
         00:ee:56:5b
-----BEGIN CERTIFICATE-----
MIIDXTCCAkWgAwIBAgIRAIQEzmcYE+osoo23/vyB/M4wDQYJKoZIhvcNAQELBQAw
FjEUMBIGA1UEAwwLdGVhbTU0Ni1uZXQwHhcNMjEwOTEzMDMyOTI4WhcNMjQwODI4
MDMyOTI4WjAZMRcwFQYDVQQDDA50ZWFtNTQ2LWNsaWVudDCCASIwDQYJKoZIhvcN
AQEBBQADggEPADCCAQoCggEBALUI6djx5JTxJWx5o7bjS8hq7C0Odvhr+r3eALbE
DAWAyuRdQZk6MMAbBbfxmOFWkhefLLYyJuph6yr09pP9gN6vgiciPuswZamGaDHB
uk2+Q00bNhYrBRbXttTjct/cuOHdX4xYT5d5zEg4xzebKutaO3HPKJ5WkubZd7wy
5BBSZxjx51w/yv8b1LryllwOX1R2kqzJbgU0tUglwRgOjA6d72LmSh2eLLZujWt8
pNL9k8iP+SzIFZbMQyltQrj6zTYqssyIBO8kjP4B6GCvNl/FgQA8qoNEQMD7/U7f
23FIQ1LLHqUCnE5/zSdDVRegWwiahDIunVYB9hSO3MA1t7cCAwEAAaOBojCBnzAJ
BgNVHRMEAjAAMB0GA1UdDgQWBBSORPFX+xX0Np8VmEaDFOlHKcArAjBRBgNVHSME
SjBIgBSrkOe2qZdI6+Py6WIDkpM/bUh+waEapBgwFjEUMBIGA1UEAwwLdGVhbTU0
Ni1uZXSCFDWN5PlvYu3unHwbd0tdp/o1mjhtMBMGA1UdJQQMMAoGCCsGAQUFBwMC
MAsGA1UdDwQEAwIHgDANBgkqhkiG9w0BAQsFAAOCAQEAk0GP5XRnnElC2G8ykfqX
EnS8LMJknaLlLIs8RJC9AQaDckYYv3YIIzWDeGrWdcz7QzKzzswYc6szT/eONMYQ
8z7SLLhGCoXKW3WUnwkRWLfdPcczmIEbzTxNtQvsUgDwMIxCuIiFuR60ZON5GTpU
R23c4mX/BhtmWGyeP/lpklWNatdZkizM/57GDsbY2xHW0jG8WOWDvbrLCuO+y6hE
TZeAq/+1f816AxcxyviJPzmxJiSBWHcxsvvVw/da1wIGA/a1LrnagxiRzyOy8Xyt
NCXCbW9G+AZvTen6ZEWi9D7sh6IO0CEOI+1nOzDkfhLqshCmn0sTqKjt3tvLAO5W
Ww==
-----END CERTIFICATE-----
