Certificate:
    Data:
        Version: 3 (0x2)
        Serial Number:
            77:c6:9a:80:95:5b:b2:73:c3:07:fd:06:f6:cc:4d:59
        Signature Algorithm: sha256WithRSAEncryption
        Issuer: CN=team765-net
        Validity
            Not Before: Sep 13 05:19:58 2021 GMT
            Not After : Aug 28 05:19:58 2024 GMT
        Subject: CN=team765-server
        Subject Public Key Info:
            Public Key Algorithm: rsaEncryption
                RSA Public-Key: (2048 bit)
                Modulus:
                    00:bb:6c:df:fc:90:33:cb:d1:7d:5e:cb:e6:24:dd:
                    a2:24:fe:19:3f:5c:7a:3c:cf:ff:35:83:8c:c1:85:
                    eb:91:41:5f:47:5a:99:e2:db:32:80:25:59:1f:89:
                    a1:33:89:78:33:f0:41:03:e1:36:4c:d2:36:c0:95:
                    d0:4d:90:33:c4:d4:cd:19:fb:04:2f:55:f6:b7:39:
                    9d:27:e2:fc:79:97:59:63:cb:50:a4:15:f6:1f:90:
                    b4:64:f7:2d:f1:ba:b4:66:9f:60:90:7f:ac:1a:39:
                    ca:d8:49:9f:5d:d6:28:d0:b8:32:26:fa:1b:65:cf:
                    48:d3:e7:c5:00:13:bc:b9:a6:b3:81:ab:36:30:20:
                    ab:8c:1a:80:4c:b0:04:7d:39:c0:b7:b0:1f:6b:1d:
                    3f:4c:83:78:72:a6:2a:b7:0a:88:4e:e6:90:11:94:
                    50:9d:c9:05:c4:d2:c0:43:e8:22:c0:4b:c3:1f:93:
                    be:97:0a:b5:72:eb:67:50:a0:e5:42:37:7e:85:91:
                    d6:93:ae:65:b7:cd:83:83:3d:2c:d8:11:02:b3:3b:
                    67:9a:b8:01:49:62:a6:00:24:ee:60:af:8f:08:b0:
                    8c:1f:32:bc:99:e8:9e:f0:00:5a:fc:5a:59:98:6d:
                    a1:3b:89:60:75:8d:44:ed:ab:52:6d:a9:4e:2c:5a:
                    45:af
                Exponent: 65537 (0x10001)
        X509v3 extensions:
            X509v3 Basic Constraints: 
                CA:FALSE
            X509v3 Subject Key Identifier: 
                8D:34:36:06:38:86:3E:13:0C:3F:44:26:20:02:6A:FC:28:1A:7F:E8
            X509v3 Authority Key Identifier: 
                keyid:E0:BA:EA:83:BE:62:9C:8E:8E:71:2A:AD:25:BE:6A:1A:B4:21:46:13
                DirName:/CN=team765-net
                serial:5B:69:54:24:80:BE:27:94:D5:4B:C6:95:46:E6:12:44:B8:9C:12:2D

            X509v3 Extended Key Usage: 
                TLS Web Server Authentication
            X509v3 Key Usage: 
                Digital Signature, Key Encipherment
            X509v3 Subject Alternative Name: 
                DNS:team765-server
    Signature Algorithm: sha256WithRSAEncryption
         56:cc:ef:64:68:c2:b3:07:7e:3c:20:e5:0f:37:01:83:35:f4:
         ec:1b:b2:c8:cb:cb:b5:bb:a7:30:44:5b:f6:df:26:b6:31:0e:
         e1:f6:d2:ec:a5:6d:e9:1c:92:e0:d4:16:01:ea:ca:dd:f0:6f:
         4d:00:eb:bf:fa:8a:35:a4:7e:38:84:e3:9e:7d:e3:64:80:a9:
         a9:a4:b5:f4:03:17:f8:f3:4a:9d:6d:3d:51:dc:a5:a8:d1:51:
         8c:91:3c:43:3a:a4:49:40:9a:65:8c:ba:37:d8:8b:1d:ca:0a:
         26:ad:95:95:ff:2e:ae:ec:1d:9a:66:54:f0:6e:1f:b7:37:db:
         59:77:05:57:30:9e:d6:51:2a:47:28:db:8a:bf:28:9b:24:df:
         05:f3:64:82:2e:c4:d7:c1:ce:0b:21:4f:f1:91:d3:3e:fd:52:
         6d:7f:77:84:80:2e:12:0f:1a:35:a1:bf:cc:c2:dd:9f:5c:f2:
         2b:12:a1:18:ef:1f:bd:be:d9:be:d3:c2:2b:34:33:a9:52:00:
         46:e6:41:1a:4f:89:68:b0:f9:16:55:d2:1e:7c:76:b3:aa:e0:
         25:4b:d8:c2:a6:a4:7c:9a:8b:0d:7a:a0:36:fd:b3:6c:8b:5c:
         b6:83:fc:a5:69:54:72:47:ea:e0:fc:bf:c7:22:6b:a4:28:68:
         f9:e0:b1:d0
-----BEGIN CERTIFICATE-----
MIIDdzCCAl+gAwIBAgIQd8aagJVbsnPDB/0G9sxNWTANBgkqhkiG9w0BAQsFADAW
MRQwEgYDVQQDDAt0ZWFtNzY1LW5ldDAeFw0yMTA5MTMwNTE5NThaFw0yNDA4Mjgw
NTE5NThaMBkxFzAVBgNVBAMMDnRlYW03NjUtc2VydmVyMIIBIjANBgkqhkiG9w0B
AQEFAAOCAQ8AMIIBCgKCAQEAu2zf/JAzy9F9XsvmJN2iJP4ZP1x6PM//NYOMwYXr
kUFfR1qZ4tsygCVZH4mhM4l4M/BBA+E2TNI2wJXQTZAzxNTNGfsEL1X2tzmdJ+L8
eZdZY8tQpBX2H5C0ZPct8bq0Zp9gkH+sGjnK2EmfXdYo0LgyJvobZc9I0+fFABO8
uaazgas2MCCrjBqATLAEfTnAt7Afax0/TIN4cqYqtwqITuaQEZRQnckFxNLAQ+gi
wEvDH5O+lwq1cutnUKDlQjd+hZHWk65lt82Dgz0s2BECsztnmrgBSWKmACTuYK+P
CLCMHzK8meie8ABa/FpZmG2hO4lgdY1E7atSbalOLFpFrwIDAQABo4G9MIG6MAkG
A1UdEwQCMAAwHQYDVR0OBBYEFI00NgY4hj4TDD9EJiACavwoGn/oMFEGA1UdIwRK
MEiAFOC66oO+YpyOjnEqrSW+ahq0IUYToRqkGDAWMRQwEgYDVQQDDAt0ZWFtNzY1
LW5ldIIUW2lUJIC+J5TVS8aVRuYSRLicEi0wEwYDVR0lBAwwCgYIKwYBBQUHAwEw
CwYDVR0PBAQDAgWgMBkGA1UdEQQSMBCCDnRlYW03NjUtc2VydmVyMA0GCSqGSIb3
DQEBCwUAA4IBAQBWzO9kaMKzB348IOUPNwGDNfTsG7LIy8u1u6cwRFv23ya2MQ7h
9tLspW3pHJLg1BYB6srd8G9NAOu/+oo1pH44hOOefeNkgKmppLX0Axf480qdbT1R
3KWo0VGMkTxDOqRJQJpljLo32IsdygomrZWV/y6u7B2aZlTwbh+3N9tZdwVXMJ7W
USpHKNuKvyibJN8F82SCLsTXwc4LIU/xkdM+/VJtf3eEgC4SDxo1ob/Mwt2fXPIr
EqEY7x+9vtm+08IrNDOpUgBG5kEaT4losPkWVdIefHazquAlS9jCpqR8mosNeqA2
/bNsi1y2g/ylaVRyR+rg/L/HImukKGj54LHQ
-----END CERTIFICATE-----
