Certificate:
    Data:
        Version: 3 (0x2)
        Serial Number:
            cc:33:48:5e:6e:dc:26:a5:fe:d7:9e:d5:60:36:4a:a6
        Signature Algorithm: sha256WithRSAEncryption
        Issuer: CN=team654-net
        Validity
            Not Before: Sep 13 04:51:53 2021 GMT
            Not After : Aug 28 04:51:53 2024 GMT
        Subject: CN=team654-server
        Subject Public Key Info:
            Public Key Algorithm: rsaEncryption
                RSA Public-Key: (2048 bit)
                Modulus:
                    00:be:d2:ef:d6:63:68:2b:09:1d:79:62:e8:ec:94:
                    8f:38:73:a1:6c:b1:34:a8:6b:46:26:8a:14:26:73:
                    a2:7f:ad:3f:62:6c:0f:ba:db:02:48:6c:2b:81:33:
                    be:2c:cb:ca:90:bf:04:2c:93:59:81:59:cc:4a:d6:
                    79:30:37:7e:60:90:93:dd:6a:5d:42:3c:b6:a8:98:
                    a5:fa:4c:5d:89:5c:5b:6e:2a:32:09:5c:db:da:b6:
                    cf:b3:1b:39:21:15:4f:9a:8b:8a:1e:1a:f4:76:30:
                    fc:90:23:42:00:f9:97:aa:e7:6c:91:9b:3a:5c:cd:
                    e1:bb:86:d8:b5:b2:d1:33:a9:1a:32:5d:b6:7b:fb:
                    b4:1a:a9:bd:0f:a3:4b:5a:14:0f:f5:5e:d4:97:7b:
                    70:9d:3a:d7:c5:62:5e:53:a9:13:7c:ba:63:fe:c9:
                    1e:ac:1d:18:3f:83:28:44:40:4d:f3:33:ba:bb:6d:
                    14:b8:4c:df:2d:1f:ad:c7:21:80:e7:1c:14:19:88:
                    d8:c4:36:5a:6c:ed:f4:e1:8e:94:98:28:2c:7f:ee:
                    fe:5c:ff:9e:65:29:1c:d9:a3:a2:e0:22:b9:11:73:
                    4f:c4:d5:3b:4f:c0:88:09:33:4f:5f:0c:4f:dc:0e:
                    fb:08:1d:17:e3:8e:28:08:f7:8b:db:54:19:5c:42:
                    c6:9b
                Exponent: 65537 (0x10001)
        X509v3 extensions:
            X509v3 Basic Constraints: 
                CA:FALSE
            X509v3 Subject Key Identifier: 
                C4:50:F2:BF:ED:FB:84:EE:6E:BC:91:F9:08:31:77:02:35:FE:1C:D2
            X509v3 Authority Key Identifier: 
                keyid:54:8A:6F:64:20:54:7C:6C:98:8B:3C:8E:68:D2:AB:45:BB:94:5D:0F
                DirName:/CN=team654-net
                serial:4E:C2:70:3E:A1:4D:B6:F1:0F:81:FC:96:41:BA:EA:9F:37:7B:63:03

            X509v3 Extended Key Usage: 
                TLS Web Server Authentication
            X509v3 Key Usage: 
                Digital Signature, Key Encipherment
            X509v3 Subject Alternative Name: 
                DNS:team654-server
    Signature Algorithm: sha256WithRSAEncryption
         94:d3:6e:7d:c8:c4:9c:dd:e5:76:db:b2:38:7d:47:e2:9a:39:
         88:ea:6f:23:a2:f4:30:db:11:e1:4d:fc:74:e9:04:b4:9c:97:
         4e:40:fc:3a:7a:4b:70:d2:5b:1d:f4:39:df:27:18:81:c1:eb:
         08:a3:7f:4f:28:9c:0b:10:b1:bb:4b:3f:a4:43:3a:08:14:65:
         68:5f:88:dd:b0:f4:ef:3d:97:4f:8f:2b:2e:f9:84:83:6e:45:
         fd:9c:e4:3f:77:fb:80:5a:79:46:9e:45:40:c1:85:b5:43:ba:
         36:37:4a:4d:3a:1c:ac:67:3c:4e:af:32:2d:8a:f3:43:57:80:
         0e:4a:aa:59:fe:b9:b5:5d:49:1b:67:40:0d:4d:4e:b8:53:3d:
         09:85:66:f6:dd:43:96:6b:e1:0c:67:4a:7f:9c:41:5b:7b:2d:
         66:ca:3f:99:d0:92:97:db:d5:c0:b1:6b:63:ba:51:cd:35:2c:
         57:e3:72:3d:17:54:73:2b:be:37:f3:11:41:d8:3e:93:90:ae:
         0f:ac:5b:cb:f2:7d:3e:2d:ca:40:21:5d:c3:ee:86:d9:0e:9c:
         00:c9:73:76:83:ea:7f:d6:a5:d3:a2:de:0a:5e:2b:1f:ae:5b:
         82:7a:25:87:7c:28:35:e8:4e:36:a2:21:89:59:52:0a:85:e1:
         b4:ee:12:f9
-----BEGIN CERTIFICATE-----
MIIDeDCCAmCgAwIBAgIRAMwzSF5u3Cal/tee1WA2SqYwDQYJKoZIhvcNAQELBQAw
FjEUMBIGA1UEAwwLdGVhbTY1NC1uZXQwHhcNMjEwOTEzMDQ1MTUzWhcNMjQwODI4
MDQ1MTUzWjAZMRcwFQYDVQQDDA50ZWFtNjU0LXNlcnZlcjCCASIwDQYJKoZIhvcN
AQEBBQADggEPADCCAQoCggEBAL7S79ZjaCsJHXli6OyUjzhzoWyxNKhrRiaKFCZz
on+tP2JsD7rbAkhsK4EzvizLypC/BCyTWYFZzErWeTA3fmCQk91qXUI8tqiYpfpM
XYlcW24qMglc29q2z7MbOSEVT5qLih4a9HYw/JAjQgD5l6rnbJGbOlzN4buG2LWy
0TOpGjJdtnv7tBqpvQ+jS1oUD/Ve1Jd7cJ0618ViXlOpE3y6Y/7JHqwdGD+DKERA
TfMzurttFLhM3y0frcchgOccFBmI2MQ2Wmzt9OGOlJgoLH/u/lz/nmUpHNmjouAi
uRFzT8TVO0/AiAkzT18MT9wO+wgdF+OOKAj3i9tUGVxCxpsCAwEAAaOBvTCBujAJ
BgNVHRMEAjAAMB0GA1UdDgQWBBTEUPK/7fuE7m68kfkIMXcCNf4c0jBRBgNVHSME
SjBIgBRUim9kIFR8bJiLPI5o0qtFu5RdD6EapBgwFjEUMBIGA1UEAwwLdGVhbTY1
NC1uZXSCFE7CcD6hTbbxD4H8lkG66p83e2MDMBMGA1UdJQQMMAoGCCsGAQUFBwMB
MAsGA1UdDwQEAwIFoDAZBgNVHREEEjAQgg50ZWFtNjU0LXNlcnZlcjANBgkqhkiG
9w0BAQsFAAOCAQEAlNNufcjEnN3ldtuyOH1H4po5iOpvI6L0MNsR4U38dOkEtJyX
TkD8OnpLcNJbHfQ53ycYgcHrCKN/TyicCxCxu0s/pEM6CBRlaF+I3bD07z2XT48r
LvmEg25F/ZzkP3f7gFp5Rp5FQMGFtUO6NjdKTTocrGc8Tq8yLYrzQ1eADkqqWf65
tV1JG2dADU1OuFM9CYVm9t1DlmvhDGdKf5xBW3stZso/mdCSl9vVwLFrY7pRzTUs
V+NyPRdUcyu+N/MRQdg+k5CuD6xby/J9Pi3KQCFdw+6G2Q6cAMlzdoPqf9al06Le
Cl4rH65bgnolh3woNehONqIhiVlSCoXhtO4S+Q==
-----END CERTIFICATE-----
