Certificate:
    Data:
        Version: 3 (0x2)
        Serial Number:
            92:df:16:a1:26:67:3b:bc:49:5f:30:22:21:39:1a:8d
        Signature Algorithm: sha256WithRSAEncryption
        Issuer: CN=team372-net
        Validity
            Not Before: Sep 13 02:09:00 2021 GMT
            Not After : Aug 28 02:09:00 2024 GMT
        Subject: CN=team372-client
        Subject Public Key Info:
            Public Key Algorithm: rsaEncryption
                RSA Public-Key: (2048 bit)
                Modulus:
                    00:da:d2:68:8a:50:c3:51:6f:a6:20:df:8a:85:9f:
                    1b:f0:aa:c9:46:ab:55:14:de:97:92:db:24:22:cf:
                    92:81:7f:e7:b2:be:32:ef:0b:82:ef:df:3d:b0:08:
                    25:3d:c5:14:ee:55:c5:a6:2c:57:eb:ec:aa:eb:16:
                    67:c9:a4:8c:ce:ab:1e:3f:5f:df:2d:1e:6c:a7:4a:
                    46:a1:36:45:55:3a:fc:8c:fa:96:08:ba:0c:17:51:
                    f1:fa:18:e0:96:62:70:96:3b:9b:cf:d8:20:f7:c3:
                    45:93:ea:c5:69:8b:ac:0a:d5:ee:d5:32:8f:91:36:
                    c4:79:ae:48:6e:e0:07:a5:e7:ea:26:d0:1d:79:94:
                    48:e7:bc:0f:bb:a7:7d:e3:ae:85:4d:34:03:97:3f:
                    ca:8a:64:e0:e8:d5:a8:d9:3e:15:62:97:2d:ca:29:
                    11:5e:1c:7b:85:3b:8a:38:36:9c:af:90:3f:44:6f:
                    4b:19:ed:8f:e2:63:df:b3:0a:87:d4:34:de:a2:93:
                    dd:4a:a1:9b:8f:85:9a:96:0e:4a:10:15:fc:f8:ba:
                    3a:3b:b1:f8:dd:f0:dc:b6:d6:6a:f1:7d:80:b0:56:
                    2f:a6:49:d3:04:cb:94:35:2f:24:29:42:4b:31:4e:
                    1d:f2:04:b6:95:06:56:0a:8f:2e:d8:13:32:b1:1a:
                    b3:4f
                Exponent: 65537 (0x10001)
        X509v3 extensions:
            X509v3 Basic Constraints: 
                CA:FALSE
            X509v3 Subject Key Identifier: 
                88:03:2D:F0:EF:17:B5:B4:53:A1:C9:D2:CF:5B:77:6E:F0:8C:F9:39
            X509v3 Authority Key Identifier: 
                keyid:0E:9A:D6:02:D9:62:C8:EC:32:92:04:6F:9C:4F:00:1C:2C:B5:87:D1
                DirName:/CN=team372-net
                serial:64:B8:60:A4:EC:50:C6:07:A5:30:52:4E:89:BA:CE:D5:59:B6:64:1E

            X509v3 Extended Key Usage: 
                TLS Web Client Authentication
            X509v3 Key Usage: 
                Digital Signature
    Signature Algorithm: sha256WithRSAEncryption
         7e:f6:5a:37:d5:53:8f:48:7e:61:9f:c9:a4:96:b1:93:3b:67:
         bd:85:cf:05:b9:03:19:58:20:97:d0:db:7d:2f:e7:c4:f9:eb:
         31:68:e8:56:8a:c2:00:5d:58:39:c5:8f:e6:ca:63:fa:1c:90:
         d2:27:94:57:d8:a9:92:f5:3a:7f:7f:5e:64:a7:d7:dd:22:9f:
         d7:92:b5:c8:14:10:e4:12:d3:09:a3:4f:a1:0c:c5:5e:c4:14:
         11:67:be:69:71:01:96:61:5c:7e:76:92:fe:4d:ef:32:ab:a2:
         3e:9c:40:57:e3:88:69:51:71:10:75:2f:bf:73:48:b8:44:5b:
         bd:1d:5b:bb:b5:ab:c2:0f:4c:6b:dd:71:19:39:9c:95:ca:fe:
         2f:3a:8c:9e:f0:a2:f3:89:a7:39:cf:ac:42:c1:20:b3:6a:ab:
         b8:58:7c:62:5d:d2:03:8c:d1:f0:6a:57:90:c0:d1:d8:37:eb:
         82:21:54:b7:42:72:5c:73:7e:71:46:f1:58:4e:28:24:42:32:
         b1:f1:5e:b6:ec:09:bf:65:b4:e9:93:42:c1:37:2a:26:2f:ab:
         51:84:d2:40:f0:1f:4b:fc:eb:16:a4:15:0b:5e:9c:71:0f:90:
         d0:26:47:60:22:49:52:db:1a:6b:98:db:7b:88:9e:20:79:f3:
         79:bf:a6:67
-----BEGIN CERTIFICATE-----
MIIDXTCCAkWgAwIBAgIRAJLfFqEmZzu8SV8wIiE5Go0wDQYJKoZIhvcNAQELBQAw
FjEUMBIGA1UEAwwLdGVhbTM3Mi1uZXQwHhcNMjEwOTEzMDIwOTAwWhcNMjQwODI4
MDIwOTAwWjAZMRcwFQYDVQQDDA50ZWFtMzcyLWNsaWVudDCCASIwDQYJKoZIhvcN
AQEBBQADggEPADCCAQoCggEBANrSaIpQw1FvpiDfioWfG/CqyUarVRTel5LbJCLP
koF/57K+Mu8Lgu/fPbAIJT3FFO5VxaYsV+vsqusWZ8mkjM6rHj9f3y0ebKdKRqE2
RVU6/Iz6lgi6DBdR8foY4JZicJY7m8/YIPfDRZPqxWmLrArV7tUyj5E2xHmuSG7g
B6Xn6ibQHXmUSOe8D7unfeOuhU00A5c/yopk4OjVqNk+FWKXLcopEV4ce4U7ijg2
nK+QP0RvSxntj+Jj37MKh9Q03qKT3Uqhm4+FmpYOShAV/Pi6Ojux+N3w3LbWavF9
gLBWL6ZJ0wTLlDUvJClCSzFOHfIEtpUGVgqPLtgTMrEas08CAwEAAaOBojCBnzAJ
BgNVHRMEAjAAMB0GA1UdDgQWBBSIAy3w7xe1tFOhydLPW3du8Iz5OTBRBgNVHSME
SjBIgBQOmtYC2WLI7DKSBG+cTwAcLLWH0aEapBgwFjEUMBIGA1UEAwwLdGVhbTM3
Mi1uZXSCFGS4YKTsUMYHpTBSTom6ztVZtmQeMBMGA1UdJQQMMAoGCCsGAQUFBwMC
MAsGA1UdDwQEAwIHgDANBgkqhkiG9w0BAQsFAAOCAQEAfvZaN9VTj0h+YZ/JpJax
kztnvYXPBbkDGVggl9DbfS/nxPnrMWjoVorCAF1YOcWP5spj+hyQ0ieUV9ipkvU6
f39eZKfX3SKf15K1yBQQ5BLTCaNPoQzFXsQUEWe+aXEBlmFcfnaS/k3vMquiPpxA
V+OIaVFxEHUvv3NIuERbvR1bu7Wrwg9Ma91xGTmclcr+LzqMnvCi84mnOc+sQsEg
s2qruFh8Yl3SA4zR8GpXkMDR2DfrgiFUt0JyXHN+cUbxWE4oJEIysfFetuwJv2W0
6ZNCwTcqJi+rUYTSQPAfS/zrFqQVC16ccQ+Q0CZHYCJJUtsaa5jbe4ieIHnzeb+m
Zw==
-----END CERTIFICATE-----
