Certificate:
    Data:
        Version: 3 (0x2)
        Serial Number:
            37:f9:f5:89:59:67:cb:9e:1a:c4:de:6a:ef:0a:46:df
        Signature Algorithm: sha256WithRSAEncryption
        Issuer: CN=team460-net
        Validity
            Not Before: Sep 13 02:54:19 2021 GMT
            Not After : Aug 28 02:54:19 2024 GMT
        Subject: CN=team460-server
        Subject Public Key Info:
            Public Key Algorithm: rsaEncryption
                RSA Public-Key: (2048 bit)
                Modulus:
                    00:a5:99:37:4b:3b:a4:36:df:00:ee:0c:30:cb:67:
                    83:b1:ef:42:22:fc:c6:41:0f:37:7e:65:14:55:8a:
                    a0:72:be:0e:e8:ec:d5:d2:da:76:b7:23:49:99:00:
                    b1:42:8d:6a:98:ae:19:04:3b:8f:7e:46:e1:fc:e7:
                    cf:21:7e:26:eb:8e:3a:8d:6d:8e:4f:41:43:39:66:
                    2e:24:da:93:66:7a:f8:54:44:6f:3e:ed:7d:86:38:
                    0a:76:17:09:e7:b8:61:93:32:47:a6:8c:96:0a:e2:
                    c8:04:6b:3f:2b:c4:79:8d:60:4f:88:bf:fc:f7:ba:
                    01:ba:81:df:0f:66:d0:a8:ea:db:bf:74:6c:57:e5:
                    a4:12:db:2f:1f:f1:6c:bc:29:37:7e:e4:d0:90:4d:
                    fa:00:f3:a5:6c:65:8a:ae:83:f6:54:aa:0f:4d:30:
                    6c:a5:fc:06:32:6e:dc:2d:35:25:2b:d4:20:02:60:
                    de:3e:ad:6e:a5:de:66:3c:e0:bc:49:e4:73:25:99:
                    06:b6:6a:3a:56:40:dc:41:6b:04:e2:38:87:8b:d2:
                    73:b2:4d:d1:32:7d:bc:8d:d4:f5:62:36:c0:1c:de:
                    b4:d1:3c:e2:b2:80:81:a2:d1:21:68:f9:ab:2d:ad:
                    54:84:56:1d:57:01:08:e8:69:aa:9d:39:68:53:ea:
                    cc:b7
                Exponent: 65537 (0x10001)
        X509v3 extensions:
            X509v3 Basic Constraints: 
                CA:FALSE
            X509v3 Subject Key Identifier: 
                C0:DA:1E:33:0E:8E:31:AB:8C:01:7D:71:18:02:96:27:89:E8:F3:6C
            X509v3 Authority Key Identifier: 
                keyid:31:13:5B:D8:1B:37:81:36:F6:24:51:13:ED:8D:DB:EE:A5:22:65:C1
                DirName:/CN=team460-net
                serial:3E:23:F1:05:42:47:0C:05:6A:5B:18:FE:30:60:7D:36:C6:E5:E9:88

            X509v3 Extended Key Usage: 
                TLS Web Server Authentication
            X509v3 Key Usage: 
                Digital Signature, Key Encipherment
            X509v3 Subject Alternative Name: 
                DNS:team460-server
    Signature Algorithm: sha256WithRSAEncryption
         a9:dd:13:2c:4c:57:8f:62:34:44:03:c3:db:9c:21:05:98:2e:
         30:d7:71:c0:97:36:30:7f:ae:43:ca:f7:ec:ca:1d:b8:a3:8c:
         a8:91:6c:20:f8:57:ce:f3:dd:f1:e8:8e:6c:68:f4:35:ad:ba:
         8a:0a:e3:56:68:d7:ec:8c:5b:e9:65:46:ba:26:f5:a7:04:f0:
         c5:58:9a:a7:14:b7:2f:a4:ba:68:98:0b:6c:42:db:a0:2e:df:
         1e:b7:21:30:a6:8d:7a:3c:4d:30:22:2c:45:54:b4:57:4a:eb:
         28:25:88:0b:27:29:be:27:ea:3e:aa:7c:6d:d8:90:3d:12:c0:
         c8:53:a1:66:2f:80:f9:c8:83:9f:3d:09:64:bf:e0:3c:5b:6c:
         7f:c6:93:7c:b6:35:e9:d8:e5:72:0d:7b:12:65:ad:34:34:12:
         e1:bd:16:24:26:ef:d1:17:03:63:1e:7e:21:5f:ae:bc:c9:4d:
         12:55:9a:71:6d:16:d8:50:bd:7e:2c:78:fe:27:f9:73:05:9a:
         d6:6f:f7:90:98:74:27:15:43:1a:ca:78:07:82:50:d7:b9:3d:
         7c:b9:64:f5:64:3f:e5:88:cf:73:e2:10:50:c6:53:35:d1:7c:
         6a:5b:29:d8:48:4b:06:80:f6:98:f9:48:32:ce:c1:81:e6:04:
         cd:75:76:d8
-----BEGIN CERTIFICATE-----
MIIDdzCCAl+gAwIBAgIQN/n1iVlny54axN5q7wpG3zANBgkqhkiG9w0BAQsFADAW
MRQwEgYDVQQDDAt0ZWFtNDYwLW5ldDAeFw0yMTA5MTMwMjU0MTlaFw0yNDA4Mjgw
MjU0MTlaMBkxFzAVBgNVBAMMDnRlYW00NjAtc2VydmVyMIIBIjANBgkqhkiG9w0B
AQEFAAOCAQ8AMIIBCgKCAQEApZk3SzukNt8A7gwwy2eDse9CIvzGQQ83fmUUVYqg
cr4O6OzV0tp2tyNJmQCxQo1qmK4ZBDuPfkbh/OfPIX4m6446jW2OT0FDOWYuJNqT
Znr4VERvPu19hjgKdhcJ57hhkzJHpoyWCuLIBGs/K8R5jWBPiL/897oBuoHfD2bQ
qOrbv3RsV+WkEtsvH/FsvCk3fuTQkE36APOlbGWKroP2VKoPTTBspfwGMm7cLTUl
K9QgAmDePq1upd5mPOC8SeRzJZkGtmo6VkDcQWsE4jiHi9Jzsk3RMn28jdT1YjbA
HN600TzisoCBotEhaPmrLa1UhFYdVwEI6GmqnTloU+rMtwIDAQABo4G9MIG6MAkG
A1UdEwQCMAAwHQYDVR0OBBYEFMDaHjMOjjGrjAF9cRgClieJ6PNsMFEGA1UdIwRK
MEiAFDETW9gbN4E29iRRE+2N2+6lImXBoRqkGDAWMRQwEgYDVQQDDAt0ZWFtNDYw
LW5ldIIUPiPxBUJHDAVqWxj+MGB9Nsbl6YgwEwYDVR0lBAwwCgYIKwYBBQUHAwEw
CwYDVR0PBAQDAgWgMBkGA1UdEQQSMBCCDnRlYW00NjAtc2VydmVyMA0GCSqGSIb3
DQEBCwUAA4IBAQCp3RMsTFePYjREA8PbnCEFmC4w13HAlzYwf65Dyvfsyh24o4yo
kWwg+FfO893x6I5saPQ1rbqKCuNWaNfsjFvpZUa6JvWnBPDFWJqnFLcvpLpomAts
QtugLt8etyEwpo16PE0wIixFVLRXSusoJYgLJym+J+o+qnxt2JA9EsDIU6FmL4D5
yIOfPQlkv+A8W2x/xpN8tjXp2OVyDXsSZa00NBLhvRYkJu/RFwNjHn4hX668yU0S
VZpxbRbYUL1+LHj+J/lzBZrWb/eQmHQnFUMayngHglDXuT18uWT1ZD/liM9z4hBQ
xlM10XxqWynYSEsGgPaY+UgyzsGB5gTNdXbY
-----END CERTIFICATE-----
