Certificate:
    Data:
        Version: 3 (0x2)
        Serial Number:
            57:20:1f:9f:f9:ea:d1:fd:d7:21:5c:d2:d8:85:da:1d
        Signature Algorithm: sha256WithRSAEncryption
        Issuer: CN=team646-net
        Validity
            Not Before: Sep 13 04:22:39 2021 GMT
            Not After : Aug 28 04:22:39 2024 GMT
        Subject: CN=team646-client
        Subject Public Key Info:
            Public Key Algorithm: rsaEncryption
                RSA Public-Key: (2048 bit)
                Modulus:
                    00:bc:22:8d:22:c2:ca:90:a9:ba:3a:47:b9:fe:bd:
                    fb:c5:21:7f:f1:8f:37:0e:42:6d:d4:4c:c6:51:2c:
                    13:4e:7d:09:d2:66:f2:fd:2a:60:dc:76:54:42:aa:
                    31:c6:8b:e2:6f:f6:80:d5:b3:43:db:4f:0d:79:da:
                    a4:e6:13:b8:96:24:e2:18:9e:fd:fa:7b:b5:8c:66:
                    00:93:e4:5e:a9:ae:f0:78:a6:e9:be:e5:dc:46:ed:
                    17:04:11:5a:ea:0e:66:ba:c0:82:e6:de:13:4c:ed:
                    b5:05:d9:8c:b0:35:fb:37:d8:3a:d2:08:08:94:f5:
                    0a:7f:51:19:05:00:57:48:43:df:4d:a9:d5:00:ef:
                    e9:69:d2:33:66:90:8d:90:32:d9:52:e4:bd:ff:8c:
                    06:cd:9c:fc:eb:dc:e1:a4:c8:8a:19:d9:f3:0c:ba:
                    6a:66:f7:cc:48:86:5f:a0:e9:ec:e4:f0:1e:83:b8:
                    66:db:57:37:6f:be:c7:64:3e:70:e2:21:71:e4:7c:
                    df:07:bf:ef:1d:0c:e6:49:b8:39:7b:cd:75:81:30:
                    6e:8a:f2:86:3a:f1:b1:e7:c3:5d:94:0b:03:52:83:
                    54:bc:5e:58:ee:5d:04:dc:18:d6:82:c9:4f:a3:38:
                    94:e0:f6:a7:ca:b2:d4:52:0f:1b:18:e4:25:3f:35:
                    0a:19
                Exponent: 65537 (0x10001)
        X509v3 extensions:
            X509v3 Basic Constraints: 
                CA:FALSE
            X509v3 Subject Key Identifier: 
                B7:A4:F4:E8:0B:8E:B8:95:AE:24:FE:19:68:83:56:65:3E:D5:47:65
            X509v3 Authority Key Identifier: 
                keyid:52:F0:6D:8C:51:7A:5C:CC:3C:CB:4C:AA:28:AC:1A:00:4E:0D:E5:78
                DirName:/CN=team646-net
                serial:5A:9C:C3:7F:CC:FC:1A:8A:51:17:80:AB:F5:35:28:63:40:EF:B6:51

            X509v3 Extended Key Usage: 
                TLS Web Client Authentication
            X509v3 Key Usage: 
                Digital Signature
    Signature Algorithm: sha256WithRSAEncryption
         2a:51:f3:53:82:33:e2:fb:e3:43:98:d3:59:6e:8c:b8:1e:6d:
         c7:0b:32:35:4a:da:d5:4a:7a:ae:a0:7a:6f:67:72:c1:20:9c:
         03:03:71:cf:ed:b9:65:55:e0:10:5f:e2:09:74:18:db:48:26:
         fc:ed:e2:51:8c:b0:f4:02:4a:b2:69:80:20:c9:e0:af:5f:7f:
         4e:26:45:f7:c8:ca:2a:14:b2:13:5d:3b:41:04:ff:db:94:ce:
         00:80:eb:c6:61:05:26:43:63:49:9a:75:77:89:0f:1b:34:5f:
         8e:a0:fe:d5:08:ba:bc:6f:ac:a5:78:ec:09:d0:53:a7:3f:49:
         83:88:23:ed:57:19:a4:07:49:7a:32:83:41:cd:c2:0a:79:9f:
         9c:68:80:76:9b:90:18:45:11:8a:ca:99:a5:08:61:2c:e2:7b:
         cc:2f:d1:44:df:00:43:95:d5:99:ca:0d:af:64:8b:f0:fe:17:
         6b:f8:d1:6c:17:7b:05:6b:de:fa:04:4b:b4:b5:9e:fd:0a:98:
         0c:bf:30:32:0d:b8:d0:80:4c:09:1c:c8:ac:9c:d9:f4:bc:12:
         09:7f:ca:be:8e:34:9b:0d:5b:4b:e9:c5:6d:1b:d8:ea:19:0b:
         51:a8:2b:8e:69:0a:5c:5e:63:1b:65:9c:4c:86:74:92:99:e1:
         e1:66:f0:9d
-----BEGIN CERTIFICATE-----
MIIDXDCCAkSgAwIBAgIQVyAfn/nq0f3XIVzS2IXaHTANBgkqhkiG9w0BAQsFADAW
MRQwEgYDVQQDDAt0ZWFtNjQ2LW5ldDAeFw0yMTA5MTMwNDIyMzlaFw0yNDA4Mjgw
NDIyMzlaMBkxFzAVBgNVBAMMDnRlYW02NDYtY2xpZW50MIIBIjANBgkqhkiG9w0B
AQEFAAOCAQ8AMIIBCgKCAQEAvCKNIsLKkKm6Oke5/r37xSF/8Y83DkJt1EzGUSwT
Tn0J0mby/Spg3HZUQqoxxovib/aA1bND208Nedqk5hO4liTiGJ79+nu1jGYAk+Re
qa7weKbpvuXcRu0XBBFa6g5musCC5t4TTO21BdmMsDX7N9g60ggIlPUKf1EZBQBX
SEPfTanVAO/padIzZpCNkDLZUuS9/4wGzZz869zhpMiKGdnzDLpqZvfMSIZfoOns
5PAeg7hm21c3b77HZD5w4iFx5HzfB7/vHQzmSbg5e811gTBuivKGOvGx58NdlAsD
UoNUvF5Y7l0E3BjWgslPoziU4PanyrLUUg8bGOQlPzUKGQIDAQABo4GiMIGfMAkG
A1UdEwQCMAAwHQYDVR0OBBYEFLek9OgLjriVriT+GWiDVmU+1UdlMFEGA1UdIwRK
MEiAFFLwbYxRelzMPMtMqiisGgBODeV4oRqkGDAWMRQwEgYDVQQDDAt0ZWFtNjQ2
LW5ldIIUWpzDf8z8GopRF4Cr9TUoY0DvtlEwEwYDVR0lBAwwCgYIKwYBBQUHAwIw
CwYDVR0PBAQDAgeAMA0GCSqGSIb3DQEBCwUAA4IBAQAqUfNTgjPi++NDmNNZboy4
Hm3HCzI1StrVSnquoHpvZ3LBIJwDA3HP7bllVeAQX+IJdBjbSCb87eJRjLD0Akqy
aYAgyeCvX39OJkX3yMoqFLITXTtBBP/blM4AgOvGYQUmQ2NJmnV3iQ8bNF+OoP7V
CLq8b6yleOwJ0FOnP0mDiCPtVxmkB0l6MoNBzcIKeZ+caIB2m5AYRRGKypmlCGEs
4nvML9FE3wBDldWZyg2vZIvw/hdr+NFsF3sFa976BEu0tZ79CpgMvzAyDbjQgEwJ
HMisnNn0vBIJf8q+jjSbDVtL6cVtG9jqGQtRqCuOaQpcXmMbZZxMhnSSmeHhZvCd
-----END CERTIFICATE-----
