Certificate:
    Data:
        Version: 3 (0x2)
        Serial Number:
            22:17:ad:1c:cf:bd:76:0a:30:45:e8:f7:f0:d9:e3:67
        Signature Algorithm: sha256WithRSAEncryption
        Issuer: CN=team171-net
        Validity
            Not Before: Sep 13 00:23:52 2021 GMT
            Not After : Aug 28 00:23:52 2024 GMT
        Subject: CN=team171-client
        Subject Public Key Info:
            Public Key Algorithm: rsaEncryption
                RSA Public-Key: (2048 bit)
                Modulus:
                    00:ad:f9:df:95:35:cc:62:fa:c6:13:57:54:4a:e5:
                    3a:87:37:c5:b0:d2:4e:d4:c1:16:c0:73:76:4c:af:
                    98:49:cf:9e:df:53:05:8a:22:4e:89:cd:a2:63:29:
                    cb:07:dd:8f:42:75:65:42:f3:fa:bf:6d:6a:2d:60:
                    5a:d5:5d:c8:30:c7:37:a6:6b:d9:08:05:12:dc:4c:
                    e4:d0:98:68:65:a8:55:f3:f5:03:36:a5:cd:26:cf:
                    0c:59:8c:15:07:42:81:53:29:98:c7:a5:8a:a9:7e:
                    a3:52:02:53:df:6d:f2:89:d2:11:02:71:b0:fd:ef:
                    59:d1:ac:bb:14:6a:2b:5e:3d:03:49:20:f0:06:13:
                    5f:79:7c:94:f5:75:95:23:08:ab:86:50:96:01:a4:
                    d1:0b:ca:66:5e:90:a1:b3:e6:ff:ea:08:43:cb:32:
                    45:b4:8c:c7:31:8c:6d:b8:ee:c2:98:21:ad:31:5d:
                    95:f8:55:20:d9:ba:2f:88:b1:d1:56:1f:df:b4:17:
                    26:92:9a:4f:61:f4:00:b1:02:b0:f1:e7:83:48:d5:
                    79:59:ab:07:88:9e:56:ac:da:01:5b:be:54:bc:f0:
                    49:6f:ba:6a:ce:01:c2:06:2e:c0:88:4d:45:08:27:
                    f9:48:66:de:22:b6:26:87:8a:35:a0:13:e1:be:27:
                    b4:89
                Exponent: 65537 (0x10001)
        X509v3 extensions:
            X509v3 Basic Constraints: 
                CA:FALSE
            X509v3 Subject Key Identifier: 
                3D:7A:07:E0:4B:18:4D:12:81:03:4D:1A:1D:B6:7A:39:63:F8:FA:5B
            X509v3 Authority Key Identifier: 
                keyid:2A:A6:F7:F1:E6:2A:8B:87:3F:71:42:1B:A5:09:D9:D1:B5:8C:57:DA
                DirName:/CN=team171-net
                serial:3F:EB:0D:71:8E:B7:41:A3:67:CF:6F:21:E7:6F:86:41:E9:36:B1:F6

            X509v3 Extended Key Usage: 
                TLS Web Client Authentication
            X509v3 Key Usage: 
                Digital Signature
    Signature Algorithm: sha256WithRSAEncryption
         4e:fb:19:2d:d9:fb:82:ac:9b:45:c6:c9:e4:5f:82:48:82:90:
         dc:e9:5f:ce:80:35:5d:6d:44:bf:b7:df:8d:85:91:57:f1:03:
         27:b9:c8:a4:aa:86:f7:2b:00:5d:59:ba:82:38:39:ed:5a:aa:
         b3:a1:7a:84:6d:8e:8e:b4:e3:a4:9c:62:4c:5f:f4:74:07:db:
         ff:76:d9:07:01:3d:f5:47:74:63:ef:b5:b4:40:e6:bd:5c:9b:
         d9:26:f6:3c:06:8b:d1:14:37:b6:f6:91:f1:5f:45:cc:35:da:
         b5:37:3e:a0:d4:b5:15:e4:42:6a:0f:7a:1e:ca:26:d5:2a:31:
         57:75:36:25:80:15:c0:5e:7b:db:2c:ec:8a:ff:07:54:14:be:
         3c:2d:6f:19:e1:b7:61:d1:3c:28:11:3f:a8:5e:28:d2:ae:c5:
         df:3f:70:8d:89:94:d8:e2:36:e3:9d:2c:58:f9:a8:f0:51:36:
         fa:81:a6:31:09:79:61:5c:b9:ae:c1:61:cd:e1:e3:52:c1:78:
         8b:3d:e0:49:be:0e:f2:d7:81:1f:ef:45:d1:ef:f2:04:5b:91:
         f5:b8:a7:a7:5c:54:05:02:ab:2a:fe:86:1f:bc:6d:a5:16:ce:
         47:06:c9:c0:7f:ca:f6:64:96:6f:e7:eb:a0:10:f7:80:a7:a9:
         59:a7:c3:f7
-----BEGIN CERTIFICATE-----
MIIDXDCCAkSgAwIBAgIQIhetHM+9dgowRej38NnjZzANBgkqhkiG9w0BAQsFADAW
MRQwEgYDVQQDDAt0ZWFtMTcxLW5ldDAeFw0yMTA5MTMwMDIzNTJaFw0yNDA4Mjgw
MDIzNTJaMBkxFzAVBgNVBAMMDnRlYW0xNzEtY2xpZW50MIIBIjANBgkqhkiG9w0B
AQEFAAOCAQ8AMIIBCgKCAQEArfnflTXMYvrGE1dUSuU6hzfFsNJO1MEWwHN2TK+Y
Sc+e31MFiiJOic2iYynLB92PQnVlQvP6v21qLWBa1V3IMMc3pmvZCAUS3Ezk0Jho
ZahV8/UDNqXNJs8MWYwVB0KBUymYx6WKqX6jUgJT323yidIRAnGw/e9Z0ay7FGor
Xj0DSSDwBhNfeXyU9XWVIwirhlCWAaTRC8pmXpChs+b/6ghDyzJFtIzHMYxtuO7C
mCGtMV2V+FUg2boviLHRVh/ftBcmkppPYfQAsQKw8eeDSNV5WasHiJ5WrNoBW75U
vPBJb7pqzgHCBi7AiE1FCCf5SGbeIrYmh4o1oBPhvie0iQIDAQABo4GiMIGfMAkG
A1UdEwQCMAAwHQYDVR0OBBYEFD16B+BLGE0SgQNNGh22ejlj+PpbMFEGA1UdIwRK
MEiAFCqm9/HmKouHP3FCG6UJ2dG1jFfaoRqkGDAWMRQwEgYDVQQDDAt0ZWFtMTcx
LW5ldIIUP+sNcY63QaNnz28h52+GQek2sfYwEwYDVR0lBAwwCgYIKwYBBQUHAwIw
CwYDVR0PBAQDAgeAMA0GCSqGSIb3DQEBCwUAA4IBAQBO+xkt2fuCrJtFxsnkX4JI
gpDc6V/OgDVdbUS/t9+NhZFX8QMnucikqob3KwBdWbqCODntWqqzoXqEbY6OtOOk
nGJMX/R0B9v/dtkHAT31R3Rj77W0QOa9XJvZJvY8BovRFDe29pHxX0XMNdq1Nz6g
1LUV5EJqD3oeyibVKjFXdTYlgBXAXnvbLOyK/wdUFL48LW8Z4bdh0TwoET+oXijS
rsXfP3CNiZTY4jbjnSxY+ajwUTb6gaYxCXlhXLmuwWHN4eNSwXiLPeBJvg7y14Ef
70XR7/IEW5H1uKenXFQFAqsq/oYfvG2lFs5HBsnAf8r2ZJZv5+ugEPeAp6lZp8P3
-----END CERTIFICATE-----
