Certificate:
    Data:
        Version: 3 (0x2)
        Serial Number:
            2e:14:4d:82:a5:93:e8:38:9d:96:a0:61:b8:f7:d0:9c
        Signature Algorithm: sha256WithRSAEncryption
        Issuer: CN=team506-net
        Validity
            Not Before: Sep 13 03:21:49 2021 GMT
            Not After : Aug 28 03:21:49 2024 GMT
        Subject: CN=team506-client
        Subject Public Key Info:
            Public Key Algorithm: rsaEncryption
                RSA Public-Key: (2048 bit)
                Modulus:
                    00:e7:38:b7:23:de:0e:11:1c:f8:3c:75:6e:8e:98:
                    a3:ea:36:13:52:d0:a5:ec:1c:64:e2:a8:46:1d:76:
                    f6:3a:1a:06:a6:6d:7d:c8:49:04:ff:89:ac:0e:59:
                    4b:91:33:16:d0:19:7e:93:cb:20:08:d1:eb:e3:9b:
                    7f:44:9f:fb:21:23:07:07:05:6c:31:3b:df:46:83:
                    64:11:7d:f2:f0:0d:1b:fa:fc:51:1f:63:dc:9b:e0:
                    be:48:f8:1e:4a:48:dc:c7:9a:84:fe:ce:9d:10:4a:
                    02:43:8c:70:02:9d:05:72:a3:c2:d1:65:55:4b:2e:
                    6a:ce:2f:79:e0:ec:4b:82:02:f2:06:af:61:b7:d1:
                    65:80:e7:d9:29:78:b2:02:88:1b:7b:a8:af:aa:ba:
                    3c:70:7c:5a:39:f9:78:bb:09:43:0f:a8:2e:71:c0:
                    3e:06:ed:06:5e:8a:03:03:d7:4d:ac:31:e9:a5:18:
                    8f:6b:e8:9a:b8:0e:c7:bc:5d:b3:9e:7c:4e:a6:2e:
                    95:2c:ed:03:46:78:8a:a6:63:c3:e4:1c:19:82:6d:
                    52:34:cb:0d:af:4b:05:5b:bf:4a:45:39:5f:87:c4:
                    51:b4:bb:cd:95:82:ff:e8:e9:e8:c6:69:f2:34:2e:
                    37:6d:de:f1:1d:2e:70:39:e9:79:7e:c6:35:06:16:
                    d3:55
                Exponent: 65537 (0x10001)
        X509v3 extensions:
            X509v3 Basic Constraints: 
                CA:FALSE
            X509v3 Subject Key Identifier: 
                0C:C2:55:21:DD:24:C4:BE:23:17:BD:9E:7B:E0:A5:F7:8C:0B:2E:C2
            X509v3 Authority Key Identifier: 
                keyid:EB:8B:EC:F5:90:97:EC:C8:4E:D9:93:AC:89:F9:82:4C:A0:83:83:A6
                DirName:/CN=team506-net
                serial:44:AB:2C:F6:B0:C0:55:0E:82:BE:95:96:C2:6C:62:1A:53:3C:0F:FE

            X509v3 Extended Key Usage: 
                TLS Web Client Authentication
            X509v3 Key Usage: 
                Digital Signature
    Signature Algorithm: sha256WithRSAEncryption
         59:03:01:14:0a:36:27:76:ec:8c:88:c1:5a:1a:58:34:21:f1:
         08:5c:42:20:9b:35:09:9e:dd:67:a0:7b:86:fb:3f:c1:ef:e9:
         5e:2d:a0:b6:94:48:fb:2a:b3:12:b8:84:13:16:3f:1e:fe:9e:
         e3:d1:8a:0a:a3:0d:fc:81:3c:fc:5f:0d:08:24:f5:93:28:5e:
         b0:2d:41:0f:2b:f4:0d:8e:4f:37:72:ba:dc:3b:dd:af:92:fa:
         a2:1b:65:7f:9a:a4:ae:dc:a7:df:ce:1c:a2:83:70:32:66:66:
         53:f4:66:a3:a7:19:83:7a:75:aa:15:64:bb:be:b6:5c:60:0f:
         11:d3:fd:f0:b1:cf:f8:12:a1:96:72:bd:a8:15:fa:b6:ed:d2:
         6b:9e:7c:32:c3:c1:88:eb:fc:df:4f:51:e4:9e:5c:59:1f:a9:
         cc:c8:e0:25:6f:f0:42:2d:95:21:97:56:19:dc:cd:d5:33:5f:
         3d:c8:95:a4:b8:77:c1:2f:9d:1e:fe:21:23:7c:45:03:45:98:
         01:db:15:cc:bd:99:8c:09:71:9b:45:d2:5e:08:10:37:08:9a:
         b4:37:25:44:29:f0:61:e6:95:30:b5:a4:20:a2:09:65:4b:e6:
         9f:9f:ee:d9:c4:00:76:77:39:b3:8e:8e:6c:e6:f5:df:a8:05:
         d4:9c:03:21
-----BEGIN CERTIFICATE-----
MIIDXDCCAkSgAwIBAgIQLhRNgqWT6DidlqBhuPfQnDANBgkqhkiG9w0BAQsFADAW
MRQwEgYDVQQDDAt0ZWFtNTA2LW5ldDAeFw0yMTA5MTMwMzIxNDlaFw0yNDA4Mjgw
MzIxNDlaMBkxFzAVBgNVBAMMDnRlYW01MDYtY2xpZW50MIIBIjANBgkqhkiG9w0B
AQEFAAOCAQ8AMIIBCgKCAQEA5zi3I94OERz4PHVujpij6jYTUtCl7Bxk4qhGHXb2
OhoGpm19yEkE/4msDllLkTMW0Bl+k8sgCNHr45t/RJ/7ISMHBwVsMTvfRoNkEX3y
8A0b+vxRH2Pcm+C+SPgeSkjcx5qE/s6dEEoCQ4xwAp0FcqPC0WVVSy5qzi954OxL
ggLyBq9ht9FlgOfZKXiyAogbe6ivqro8cHxaOfl4uwlDD6guccA+Bu0GXooDA9dN
rDHppRiPa+iauA7HvF2znnxOpi6VLO0DRniKpmPD5BwZgm1SNMsNr0sFW79KRTlf
h8RRtLvNlYL/6OnoxmnyNC43bd7xHS5wOel5fsY1BhbTVQIDAQABo4GiMIGfMAkG
A1UdEwQCMAAwHQYDVR0OBBYEFAzCVSHdJMS+Ixe9nnvgpfeMCy7CMFEGA1UdIwRK
MEiAFOuL7PWQl+zITtmTrIn5gkygg4OmoRqkGDAWMRQwEgYDVQQDDAt0ZWFtNTA2
LW5ldIIURKss9rDAVQ6CvpWWwmxiGlM8D/4wEwYDVR0lBAwwCgYIKwYBBQUHAwIw
CwYDVR0PBAQDAgeAMA0GCSqGSIb3DQEBCwUAA4IBAQBZAwEUCjYnduyMiMFaGlg0
IfEIXEIgmzUJnt1noHuG+z/B7+leLaC2lEj7KrMSuIQTFj8e/p7j0YoKow38gTz8
Xw0IJPWTKF6wLUEPK/QNjk83crrcO92vkvqiG2V/mqSu3Kffzhyig3AyZmZT9Gaj
pxmDenWqFWS7vrZcYA8R0/3wsc/4EqGWcr2oFfq27dJrnnwyw8GI6/zfT1HknlxZ
H6nMyOAlb/BCLZUhl1YZ3M3VM189yJWkuHfBL50e/iEjfEUDRZgB2xXMvZmMCXGb
RdJeCBA3CJq0NyVEKfBh5pUwtaQgogllS+afn+7ZxAB2dzmzjo5s5vXfqAXUnAMh
-----END CERTIFICATE-----
