Certificate:
    Data:
        Version: 3 (0x2)
        Serial Number:
            b4:e2:ba:79:23:09:29:02:c6:dd:09:85:9f:5c:e3:83
        Signature Algorithm: sha256WithRSAEncryption
        Issuer: CN=team214-net
        Validity
            Not Before: Sep 13 00:44:31 2021 GMT
            Not After : Aug 28 00:44:31 2024 GMT
        Subject: CN=team214-client
        Subject Public Key Info:
            Public Key Algorithm: rsaEncryption
                RSA Public-Key: (2048 bit)
                Modulus:
                    00:d9:72:db:f5:69:3d:46:a0:87:ba:6f:32:2d:4e:
                    04:cd:4b:e2:c1:d3:9e:54:55:50:7a:82:73:bc:91:
                    5a:48:8e:fd:04:e6:8d:05:8a:09:3b:bf:c8:d4:da:
                    2c:9d:ab:ed:4e:f5:c7:8a:71:b1:89:c1:19:d6:b6:
                    b5:11:43:35:3f:33:1b:22:fa:98:3c:ce:77:a3:17:
                    d7:b6:a9:2d:12:35:af:67:2f:10:71:60:b3:48:af:
                    65:47:62:fd:a9:d6:01:06:dc:bb:64:64:01:1e:5c:
                    ae:de:43:21:4c:26:83:d4:6e:ef:27:9a:87:18:83:
                    2d:6c:22:2b:07:3f:07:3a:da:bd:0b:77:27:5e:9c:
                    11:e1:2f:c6:e5:87:fd:63:e7:0e:da:f7:43:63:dc:
                    e3:10:37:f6:78:38:25:71:e6:c8:0d:d7:42:c0:fb:
                    d6:9c:7e:15:98:75:81:6e:b6:24:e4:76:9c:93:92:
                    e6:80:1b:8a:02:f9:98:4c:c3:e7:fe:1c:53:ef:0c:
                    19:e1:65:0a:d2:7c:bb:7b:ee:5a:14:f4:07:0a:26:
                    ec:f0:8d:ae:0b:9d:c8:68:47:17:85:87:b3:56:fc:
                    cf:72:5b:3e:07:50:15:84:19:d7:5a:82:c4:52:a1:
                    71:b0:95:be:ce:94:eb:55:81:ee:19:9c:b9:f8:1f:
                    82:dd
                Exponent: 65537 (0x10001)
        X509v3 extensions:
            X509v3 Basic Constraints: 
                CA:FALSE
            X509v3 Subject Key Identifier: 
                6C:56:FA:69:22:8F:52:F0:D4:BF:32:44:7F:5B:36:02:C0:B0:E2:BB
            X509v3 Authority Key Identifier: 
                keyid:08:6F:11:7C:CB:16:E0:C1:3D:8C:3C:1B:10:F3:5A:9E:A8:2F:AB:D3
                DirName:/CN=team214-net
                serial:37:0A:50:9F:EF:D3:0C:6A:7D:68:1B:58:BE:3A:05:A7:1E:A9:2C:0B

            X509v3 Extended Key Usage: 
                TLS Web Client Authentication
            X509v3 Key Usage: 
                Digital Signature
    Signature Algorithm: sha256WithRSAEncryption
         3e:fa:e1:53:f2:5e:22:59:56:95:a3:9e:a4:ba:ef:83:44:6b:
         02:4e:a9:a5:f3:1a:ef:6c:b8:c2:0d:f8:35:1b:25:5f:b2:d7:
         20:f4:52:43:72:37:b0:b9:6a:80:fb:e1:aa:c9:24:08:de:f4:
         84:1e:c1:f8:cb:e1:c4:32:91:51:b6:26:8a:fe:35:4c:05:93:
         15:2a:1d:c0:3f:54:fe:b8:0e:9e:98:30:d2:36:88:66:7d:de:
         04:cc:13:f5:a2:63:31:b5:33:d8:c6:d3:18:20:2a:ee:a8:4b:
         42:ad:d1:3d:5d:44:ac:c6:aa:99:53:c5:59:0c:11:43:83:95:
         1b:e0:93:26:95:ee:c8:3d:25:b2:60:1d:cb:09:99:42:7e:54:
         5e:2e:30:64:1f:e7:88:ac:13:79:fb:22:78:f0:a1:cc:cb:35:
         26:31:52:2a:c1:0e:14:eb:10:c8:22:2e:87:47:1c:f5:8d:06:
         80:96:c3:52:ea:95:7d:d6:06:ad:c3:5d:2c:55:da:45:2d:4b:
         16:0d:9e:c4:90:1a:3d:11:28:c0:28:6b:71:8e:58:6b:ac:94:
         fa:34:c0:9c:3c:42:9e:58:71:dd:86:74:16:3e:7c:21:63:40:
         7b:1b:ae:f9:2e:5d:20:57:19:37:b5:04:c1:9c:ee:55:93:61:
         73:fa:52:5f
-----BEGIN CERTIFICATE-----
MIIDXTCCAkWgAwIBAgIRALTiunkjCSkCxt0JhZ9c44MwDQYJKoZIhvcNAQELBQAw
FjEUMBIGA1UEAwwLdGVhbTIxNC1uZXQwHhcNMjEwOTEzMDA0NDMxWhcNMjQwODI4
MDA0NDMxWjAZMRcwFQYDVQQDDA50ZWFtMjE0LWNsaWVudDCCASIwDQYJKoZIhvcN
AQEBBQADggEPADCCAQoCggEBANly2/VpPUagh7pvMi1OBM1L4sHTnlRVUHqCc7yR
WkiO/QTmjQWKCTu/yNTaLJ2r7U71x4pxsYnBGda2tRFDNT8zGyL6mDzOd6MX17ap
LRI1r2cvEHFgs0ivZUdi/anWAQbcu2RkAR5crt5DIUwmg9Ru7yeahxiDLWwiKwc/
BzravQt3J16cEeEvxuWH/WPnDtr3Q2Pc4xA39ng4JXHmyA3XQsD71px+FZh1gW62
JOR2nJOS5oAbigL5mEzD5/4cU+8MGeFlCtJ8u3vuWhT0Bwom7PCNrgudyGhHF4WH
s1b8z3JbPgdQFYQZ11qCxFKhcbCVvs6U61WB7hmcufgfgt0CAwEAAaOBojCBnzAJ
BgNVHRMEAjAAMB0GA1UdDgQWBBRsVvppIo9S8NS/MkR/WzYCwLDiuzBRBgNVHSME
SjBIgBQIbxF8yxbgwT2MPBsQ81qeqC+r06EapBgwFjEUMBIGA1UEAwwLdGVhbTIx
NC1uZXSCFDcKUJ/v0wxqfWgbWL46BaceqSwLMBMGA1UdJQQMMAoGCCsGAQUFBwMC
MAsGA1UdDwQEAwIHgDANBgkqhkiG9w0BAQsFAAOCAQEAPvrhU/JeIllWlaOepLrv
g0RrAk6ppfMa72y4wg34NRslX7LXIPRSQ3I3sLlqgPvhqskkCN70hB7B+MvhxDKR
UbYmiv41TAWTFSodwD9U/rgOnpgw0jaIZn3eBMwT9aJjMbUz2MbTGCAq7qhLQq3R
PV1ErMaqmVPFWQwRQ4OVG+CTJpXuyD0lsmAdywmZQn5UXi4wZB/niKwTefsiePCh
zMs1JjFSKsEOFOsQyCIuh0cc9Y0GgJbDUuqVfdYGrcNdLFXaRS1LFg2exJAaPREo
wChrcY5Ya6yU+jTAnDxCnlhx3YZ0Fj58IWNAexuu+S5dIFcZN7UEwZzuVZNhc/pS
Xw==
-----END CERTIFICATE-----
