Certificate:
    Data:
        Version: 3 (0x2)
        Serial Number:
            d0:3b:8d:cc:82:8a:ea:d4:50:1a:8e:5a:be:21:3a:a5
        Signature Algorithm: sha256WithRSAEncryption
        Issuer: CN=team224-net
        Validity
            Not Before: Sep 13 00:35:48 2021 GMT
            Not After : Aug 28 00:35:48 2024 GMT
        Subject: CN=team224-client
        Subject Public Key Info:
            Public Key Algorithm: rsaEncryption
                RSA Public-Key: (2048 bit)
                Modulus:
                    00:a1:7a:b7:f7:20:c1:ea:4b:42:3d:4d:6b:f7:24:
                    4a:63:7b:18:e1:28:ba:ae:f4:cb:af:06:1e:f7:6e:
                    29:2c:b1:0b:6f:55:9d:f3:30:ac:96:0d:45:b0:33:
                    4e:ef:97:8d:05:f9:99:a6:6f:dc:84:4a:a5:07:33:
                    87:ca:59:b3:f8:f9:8b:bf:c6:d6:85:9d:06:f9:e6:
                    18:3a:9d:f9:a1:45:7d:6e:d5:9c:95:68:ef:c7:e8:
                    3e:4c:46:28:0b:0a:44:71:eb:e4:78:48:a4:d2:57:
                    10:c7:c5:c2:a5:d3:b5:48:bd:f6:21:b7:49:d0:ca:
                    16:b7:0e:c8:bc:11:4e:46:c4:c9:b8:76:3d:fe:92:
                    d5:e1:9d:94:83:7a:02:8f:2f:d5:be:21:e0:90:51:
                    6e:d9:1a:23:33:fe:ce:38:0a:d6:de:74:4a:a2:48:
                    8d:8c:3f:64:ef:67:2f:93:74:47:6e:19:4a:dc:24:
                    be:cb:61:b6:8b:cf:67:1e:b4:79:a6:03:7d:09:aa:
                    8a:4a:39:94:d3:0f:5c:7f:59:0e:85:1a:ca:71:9c:
                    ec:68:0e:ac:3a:92:38:3c:f9:90:c7:73:82:2c:53:
                    a2:5c:57:f1:fd:9d:34:8f:57:09:ab:8d:80:a5:e9:
                    45:c9:cc:68:04:2f:9c:86:c3:a1:53:c0:82:52:77:
                    e4:4f
                Exponent: 65537 (0x10001)
        X509v3 extensions:
            X509v3 Basic Constraints: 
                CA:FALSE
            X509v3 Subject Key Identifier: 
                80:01:46:71:B4:5A:30:94:A9:25:28:09:97:61:C5:59:59:46:40:58
            X509v3 Authority Key Identifier: 
                keyid:94:84:35:72:2E:22:21:52:25:F0:E7:0E:48:BC:84:ED:94:7A:9F:4D
                DirName:/CN=team224-net
                serial:5E:3C:61:F0:F8:CD:AB:D4:10:F2:89:1B:84:B0:F9:7B:73:E8:E1:1A

            X509v3 Extended Key Usage: 
                TLS Web Client Authentication
            X509v3 Key Usage: 
                Digital Signature
    Signature Algorithm: sha256WithRSAEncryption
         19:1a:8c:fa:71:ff:1e:08:61:a3:73:ca:0e:95:5a:f0:d4:f3:
         d2:4e:e2:df:ee:ad:20:05:cc:de:af:f1:1f:d5:94:62:e9:8e:
         88:de:5a:1e:28:d5:2d:d4:3a:61:40:83:23:d6:a4:90:d2:66:
         a6:79:f0:32:04:75:8c:5a:bc:1e:33:ac:3e:a7:8f:bc:04:6e:
         56:a4:33:39:f2:9b:eb:82:4a:e2:3b:b0:56:bb:14:55:ed:9c:
         e1:50:30:c4:13:93:43:64:0e:47:70:4d:b3:69:38:7e:9a:d7:
         af:69:5f:4d:c2:c8:dc:c5:a6:91:45:a5:ef:ca:ba:56:8b:3e:
         ca:c8:5b:d9:b8:43:4b:06:e9:56:37:64:20:9f:60:b5:db:69:
         27:c5:2a:21:75:20:8f:1d:ad:6d:e3:eb:e7:17:85:8e:ac:54:
         37:cd:3f:8d:87:81:d3:2d:2f:a6:b2:05:ac:33:e0:61:07:4f:
         1c:57:37:33:c0:0e:80:e1:40:b6:02:0f:77:43:19:87:fa:a0:
         b3:32:17:b5:76:f0:12:66:ee:dd:b8:1a:ec:61:f2:26:52:b0:
         49:9d:60:17:93:56:e9:d6:04:db:e6:f6:e1:14:ff:2a:ad:fa:
         25:bd:02:c6:ae:1e:ba:40:af:9d:68:6b:fb:ee:30:5b:fc:28:
         b4:f1:a0:ea
-----BEGIN CERTIFICATE-----
MIIDXTCCAkWgAwIBAgIRANA7jcyCiurUUBqOWr4hOqUwDQYJKoZIhvcNAQELBQAw
FjEUMBIGA1UEAwwLdGVhbTIyNC1uZXQwHhcNMjEwOTEzMDAzNTQ4WhcNMjQwODI4
MDAzNTQ4WjAZMRcwFQYDVQQDDA50ZWFtMjI0LWNsaWVudDCCASIwDQYJKoZIhvcN
AQEBBQADggEPADCCAQoCggEBAKF6t/cgwepLQj1Na/ckSmN7GOEouq70y68GHvdu
KSyxC29VnfMwrJYNRbAzTu+XjQX5maZv3IRKpQczh8pZs/j5i7/G1oWdBvnmGDqd
+aFFfW7VnJVo78foPkxGKAsKRHHr5HhIpNJXEMfFwqXTtUi99iG3SdDKFrcOyLwR
TkbEybh2Pf6S1eGdlIN6Ao8v1b4h4JBRbtkaIzP+zjgK1t50SqJIjYw/ZO9nL5N0
R24ZStwkvsthtovPZx60eaYDfQmqiko5lNMPXH9ZDoUaynGc7GgOrDqSODz5kMdz
gixTolxX8f2dNI9XCauNgKXpRcnMaAQvnIbDoVPAglJ35E8CAwEAAaOBojCBnzAJ
BgNVHRMEAjAAMB0GA1UdDgQWBBSAAUZxtFowlKklKAmXYcVZWUZAWDBRBgNVHSME
SjBIgBSUhDVyLiIhUiXw5w5IvITtlHqfTaEapBgwFjEUMBIGA1UEAwwLdGVhbTIy
NC1uZXSCFF48YfD4zavUEPKJG4Sw+Xtz6OEaMBMGA1UdJQQMMAoGCCsGAQUFBwMC
MAsGA1UdDwQEAwIHgDANBgkqhkiG9w0BAQsFAAOCAQEAGRqM+nH/Hghho3PKDpVa
8NTz0k7i3+6tIAXM3q/xH9WUYumOiN5aHijVLdQ6YUCDI9akkNJmpnnwMgR1jFq8
HjOsPqePvARuVqQzOfKb64JK4juwVrsUVe2c4VAwxBOTQ2QOR3BNs2k4fprXr2lf
TcLI3MWmkUWl78q6Vos+yshb2bhDSwbpVjdkIJ9gtdtpJ8UqIXUgjx2tbePr5xeF
jqxUN80/jYeB0y0vprIFrDPgYQdPHFc3M8AOgOFAtgIPd0MZh/qgszIXtXbwEmbu
3bga7GHyJlKwSZ1gF5NW6dYE2+b24RT/Kq36Jb0Cxq4eukCvnWhr++4wW/wotPGg
6g==
-----END CERTIFICATE-----
