Certificate:
    Data:
        Version: 3 (0x2)
        Serial Number:
            ad:4f:64:8f:cd:80:b8:d8:31:c0:4e:bc:02:a5:1f:01
        Signature Algorithm: sha256WithRSAEncryption
        Issuer: CN=team30-net
        Validity
            Not Before: Sep 12 23:01:14 2021 GMT
            Not After : Aug 27 23:01:14 2024 GMT
        Subject: CN=team30-server
        Subject Public Key Info:
            Public Key Algorithm: rsaEncryption
                RSA Public-Key: (2048 bit)
                Modulus:
                    00:e1:d0:d1:69:ef:f7:42:3e:e6:cc:2c:d6:18:0b:
                    01:4e:fa:b6:db:9e:9f:a1:92:1f:66:b7:b9:bc:9b:
                    12:6a:81:dd:5e:0b:a8:ea:0d:75:67:d4:d3:3b:fb:
                    00:d9:af:fd:06:34:11:a8:6e:7f:fd:40:69:05:57:
                    64:83:2b:b6:87:10:38:1c:1a:a1:11:f0:df:54:50:
                    76:44:14:d0:3b:5c:44:79:e0:e1:8f:33:49:6d:90:
                    00:82:d4:b0:b0:71:7c:19:c9:c4:e5:c0:a9:ae:0a:
                    03:ea:04:2d:39:68:28:f4:08:2d:c5:dc:74:ef:ee:
                    90:5b:62:7e:bf:7a:8b:d0:5f:85:66:32:ef:16:16:
                    bb:3f:69:ad:1c:f3:07:54:49:7c:ed:24:25:8c:b3:
                    c3:30:96:bf:e8:e3:fc:44:d3:0c:a8:04:ee:b7:67:
                    66:fd:0d:27:77:aa:4f:d3:f6:4d:26:39:ee:30:64:
                    5b:d5:23:de:09:37:f6:49:5f:f3:49:de:ee:93:48:
                    4a:b3:86:63:bc:81:40:54:a9:9e:61:f9:8d:e4:fb:
                    fd:05:d8:db:b1:84:19:13:4d:18:3a:37:2e:e1:dd:
                    fe:5b:a4:d1:38:bf:66:a1:81:e5:fa:82:93:d3:37:
                    cb:94:e9:af:3d:77:53:80:8a:1f:c6:e5:49:b8:7d:
                    be:03
                Exponent: 65537 (0x10001)
        X509v3 extensions:
            X509v3 Basic Constraints: 
                CA:FALSE
            X509v3 Subject Key Identifier: 
                20:C9:B8:08:65:2A:A6:FC:D5:C9:DB:BB:75:6E:7C:7C:D2:3E:90:AE
            X509v3 Authority Key Identifier: 
                keyid:A2:5F:90:AD:C9:F9:FA:FD:CE:1B:FD:E5:49:5F:38:83:46:6D:AE:68
                DirName:/CN=team30-net
                serial:6E:82:21:00:92:02:BF:01:70:2A:A4:FD:07:61:B0:77:D1:D7:82:11

            X509v3 Extended Key Usage: 
                TLS Web Server Authentication
            X509v3 Key Usage: 
                Digital Signature, Key Encipherment
            X509v3 Subject Alternative Name: 
                DNS:team30-server
    Signature Algorithm: sha256WithRSAEncryption
         5d:04:27:1e:02:28:ac:54:27:5f:46:a9:b0:c0:73:e0:29:c6:
         f0:bf:cf:7b:9f:02:fa:6a:e4:b6:05:38:bf:ec:73:d3:36:be:
         34:6f:6d:ab:7c:44:f0:1c:c1:d5:11:dd:2a:b5:d0:04:a7:8c:
         9e:d1:bb:aa:c4:85:56:d8:c4:82:ef:59:3e:be:6a:40:cb:35:
         29:2c:49:bf:a1:89:86:86:3a:b9:31:5c:36:7e:ed:23:08:ea:
         85:ea:7b:60:90:34:b5:c4:8e:94:d1:ae:08:95:ef:86:ff:f5:
         bd:f3:cb:b8:83:76:50:1a:19:39:3d:12:c3:62:f0:8b:42:b1:
         6b:6e:40:88:5b:f1:00:ef:1c:86:84:a6:f1:64:16:4d:ae:b1:
         fd:91:25:50:ad:ed:ca:7f:59:27:bb:92:fe:fc:01:b9:7e:15:
         ab:37:6a:ab:14:17:ab:56:1e:a9:88:55:4e:51:d0:b8:6a:c7:
         34:bf:85:34:4a:47:98:e1:ff:e6:66:a4:1e:85:75:a9:f7:9d:
         68:e3:0c:39:e6:b0:3e:cc:4b:99:be:22:ea:6a:77:70:e2:bf:
         c6:f0:01:a2:65:b4:34:3b:e2:88:4d:7e:9a:01:82:63:1a:23:
         f5:d2:3e:61:82:02:72:18:54:c7:d5:30:c3:04:f1:59:38:79:
         1b:b5:ca:7c
-----BEGIN CERTIFICATE-----
MIIDdDCCAlygAwIBAgIRAK1PZI/NgLjYMcBOvAKlHwEwDQYJKoZIhvcNAQELBQAw
FTETMBEGA1UEAwwKdGVhbTMwLW5ldDAeFw0yMTA5MTIyMzAxMTRaFw0yNDA4Mjcy
MzAxMTRaMBgxFjAUBgNVBAMMDXRlYW0zMC1zZXJ2ZXIwggEiMA0GCSqGSIb3DQEB
AQUAA4IBDwAwggEKAoIBAQDh0NFp7/dCPubMLNYYCwFO+rbbnp+hkh9mt7m8mxJq
gd1eC6jqDXVn1NM7+wDZr/0GNBGobn/9QGkFV2SDK7aHEDgcGqER8N9UUHZEFNA7
XER54OGPM0ltkACC1LCwcXwZycTlwKmuCgPqBC05aCj0CC3F3HTv7pBbYn6/eovQ
X4VmMu8WFrs/aa0c8wdUSXztJCWMs8Mwlr/o4/xE0wyoBO63Z2b9DSd3qk/T9k0m
Oe4wZFvVI94JN/ZJX/NJ3u6TSEqzhmO8gUBUqZ5h+Y3k+/0F2NuxhBkTTRg6Ny7h
3f5bpNE4v2ahgeX6gpPTN8uU6a89d1OAih/G5Um4fb4DAgMBAAGjgbswgbgwCQYD
VR0TBAIwADAdBgNVHQ4EFgQUIMm4CGUqpvzVydu7dW58fNI+kK4wUAYDVR0jBEkw
R4AUol+Qrcn5+v3OG/3lSV84g0ZtrmihGaQXMBUxEzARBgNVBAMMCnRlYW0zMC1u
ZXSCFG6CIQCSAr8BcCqk/QdhsHfR14IRMBMGA1UdJQQMMAoGCCsGAQUFBwMBMAsG
A1UdDwQEAwIFoDAYBgNVHREEETAPgg10ZWFtMzAtc2VydmVyMA0GCSqGSIb3DQEB
CwUAA4IBAQBdBCceAiisVCdfRqmwwHPgKcbwv897nwL6auS2BTi/7HPTNr40b22r
fETwHMHVEd0qtdAEp4ye0buqxIVW2MSC71k+vmpAyzUpLEm/oYmGhjq5MVw2fu0j
COqF6ntgkDS1xI6U0a4Ile+G//W988u4g3ZQGhk5PRLDYvCLQrFrbkCIW/EA7xyG
hKbxZBZNrrH9kSVQre3Kf1knu5L+/AG5fhWrN2qrFBerVh6piFVOUdC4asc0v4U0
SkeY4f/mZqQehXWp951o4ww55rA+zEuZviLqandw4r/G8AGiZbQ0O+KITX6aAYJj
GiP10j5hggJyGFTH1TDDBPFZOHkbtcp8
-----END CERTIFICATE-----
