Certificate:
    Data:
        Version: 3 (0x2)
        Serial Number:
            26:f5:42:9f:82:63:d9:0b:99:e3:82:74:a6:bb:6d:8f
        Signature Algorithm: sha256WithRSAEncryption
        Issuer: CN=team597-net
        Validity
            Not Before: Sep 13 04:00:53 2021 GMT
            Not After : Aug 28 04:00:53 2024 GMT
        Subject: CN=team597-server
        Subject Public Key Info:
            Public Key Algorithm: rsaEncryption
                RSA Public-Key: (2048 bit)
                Modulus:
                    00:e7:29:b0:1d:6b:6a:25:e6:67:09:a4:4f:f4:70:
                    18:b8:c1:ce:52:9a:b0:dc:3d:e9:c4:be:bb:3d:c7:
                    3d:3a:b5:94:82:97:d2:0b:cd:9a:a3:14:77:23:10:
                    2e:9f:9b:ba:4f:6f:a0:27:d6:55:2c:ee:b1:99:14:
                    87:cd:26:01:8b:7c:0a:24:b7:bd:a9:03:3e:a0:0b:
                    e1:4f:9b:e2:81:9d:5e:98:1c:4e:1a:27:2a:9c:e4:
                    b1:4c:47:f8:36:2a:27:2d:34:8d:c1:87:71:44:65:
                    14:a4:5a:41:3e:10:89:80:55:19:f4:1b:76:81:44:
                    3b:5d:02:26:93:5f:a5:03:e8:ce:dc:34:d6:5d:40:
                    b5:39:91:dd:74:02:17:57:d8:c1:d9:c7:91:f2:7b:
                    c9:af:c8:5a:b4:3b:36:9c:43:0a:e5:e8:b9:5a:2f:
                    4d:95:82:5b:6f:f9:35:6d:f7:d0:e6:98:80:58:15:
                    55:97:26:17:6d:9f:81:12:44:f5:6a:3a:17:6f:b1:
                    78:27:28:2b:61:f2:4a:8f:15:43:97:1a:82:5d:15:
                    b2:df:3d:2e:3c:ff:74:2f:07:cc:a9:99:28:c6:04:
                    4c:36:18:67:7c:10:64:c3:56:0e:c4:1d:39:ce:01:
                    fb:81:cd:31:ac:32:45:66:26:77:fe:0c:06:31:e5:
                    71:2d
                Exponent: 65537 (0x10001)
        X509v3 extensions:
            X509v3 Basic Constraints: 
                CA:FALSE
            X509v3 Subject Key Identifier: 
                00:71:74:A8:E5:A5:68:F7:FD:8B:78:EB:13:21:D6:C4:E6:40:1A:5A
            X509v3 Authority Key Identifier: 
                keyid:7A:0D:B0:8F:76:A2:7B:9C:45:2E:AE:1F:22:3F:38:A2:36:57:4E:79
                DirName:/CN=team597-net
                serial:0F:A6:F2:F3:93:8B:3F:0E:B2:F2:CE:01:5C:A9:7A:2E:F8:1F:31:A7

            X509v3 Extended Key Usage: 
                TLS Web Server Authentication
            X509v3 Key Usage: 
                Digital Signature, Key Encipherment
            X509v3 Subject Alternative Name: 
                DNS:team597-server
    Signature Algorithm: sha256WithRSAEncryption
         a0:dd:a0:69:98:73:04:e8:ae:fb:87:f5:22:48:a8:ea:85:a8:
         72:87:95:07:3c:59:03:bb:21:75:ab:5a:f6:1e:3d:0d:49:64:
         9f:83:5e:fc:ad:88:cf:f8:61:4d:fc:07:e6:81:5f:0a:0d:1d:
         6e:6d:c0:2c:9f:07:1f:7d:78:ee:8d:93:4c:96:54:1d:68:8b:
         65:dc:c8:4c:f1:e2:19:94:34:ff:47:1b:3b:fa:f0:9e:69:5f:
         2e:3a:51:9f:0a:ad:3c:50:12:07:a7:1b:85:d9:8f:20:43:cb:
         b3:96:7e:f3:78:de:49:1a:69:5b:38:80:a7:ba:47:02:5d:f4:
         b4:c7:70:dd:28:ba:e2:3c:76:e6:ef:01:76:76:d1:2c:c8:bb:
         37:ec:64:42:a2:d4:1a:22:3f:e6:46:11:68:bd:9f:3d:38:5f:
         10:52:1c:40:6c:2f:35:f0:a8:fa:cc:e7:7b:83:92:cc:c7:26:
         76:15:57:c3:16:2b:a3:be:50:e1:b3:67:37:78:3d:33:e3:22:
         aa:d6:84:34:de:2c:76:5f:39:47:62:bd:a1:27:98:c6:fe:b2:
         47:75:09:60:5d:a4:09:ce:0c:55:7b:30:9d:25:27:f3:78:e1:
         24:9c:cb:1a:ec:4c:8d:28:ad:cf:f9:ee:5c:9d:24:0b:6a:7a:
         d0:f0:94:b2
-----BEGIN CERTIFICATE-----
MIIDdzCCAl+gAwIBAgIQJvVCn4Jj2QuZ44J0prttjzANBgkqhkiG9w0BAQsFADAW
MRQwEgYDVQQDDAt0ZWFtNTk3LW5ldDAeFw0yMTA5MTMwNDAwNTNaFw0yNDA4Mjgw
NDAwNTNaMBkxFzAVBgNVBAMMDnRlYW01OTctc2VydmVyMIIBIjANBgkqhkiG9w0B
AQEFAAOCAQ8AMIIBCgKCAQEA5ymwHWtqJeZnCaRP9HAYuMHOUpqw3D3pxL67Pcc9
OrWUgpfSC82aoxR3IxAun5u6T2+gJ9ZVLO6xmRSHzSYBi3wKJLe9qQM+oAvhT5vi
gZ1emBxOGicqnOSxTEf4NionLTSNwYdxRGUUpFpBPhCJgFUZ9Bt2gUQ7XQImk1+l
A+jO3DTWXUC1OZHddAIXV9jB2ceR8nvJr8hatDs2nEMK5ei5Wi9NlYJbb/k1bffQ
5piAWBVVlyYXbZ+BEkT1ajoXb7F4JygrYfJKjxVDlxqCXRWy3z0uPP90LwfMqZko
xgRMNhhnfBBkw1YOxB05zgH7gc0xrDJFZiZ3/gwGMeVxLQIDAQABo4G9MIG6MAkG
A1UdEwQCMAAwHQYDVR0OBBYEFABxdKjlpWj3/Yt46xMh1sTmQBpaMFEGA1UdIwRK
MEiAFHoNsI92onucRS6uHyI/OKI2V055oRqkGDAWMRQwEgYDVQQDDAt0ZWFtNTk3
LW5ldIIUD6by85OLPw6y8s4BXKl6LvgfMacwEwYDVR0lBAwwCgYIKwYBBQUHAwEw
CwYDVR0PBAQDAgWgMBkGA1UdEQQSMBCCDnRlYW01OTctc2VydmVyMA0GCSqGSIb3
DQEBCwUAA4IBAQCg3aBpmHME6K77h/UiSKjqhahyh5UHPFkDuyF1q1r2Hj0NSWSf
g178rYjP+GFN/AfmgV8KDR1ubcAsnwcffXjujZNMllQdaItl3MhM8eIZlDT/Rxs7
+vCeaV8uOlGfCq08UBIHpxuF2Y8gQ8uzln7zeN5JGmlbOICnukcCXfS0x3DdKLri
PHbm7wF2dtEsyLs37GRCotQaIj/mRhFovZ89OF8QUhxAbC818Kj6zOd7g5LMxyZ2
FVfDFiujvlDhs2c3eD0z4yKq1oQ03ix2XzlHYr2hJ5jG/rJHdQlgXaQJzgxVezCd
JSfzeOEknMsa7EyNKK3P+e5cnSQLanrQ8JSy
-----END CERTIFICATE-----
