Certificate:
    Data:
        Version: 3 (0x2)
        Serial Number:
            bd:3e:d7:1e:36:5b:f7:35:f2:56:e6:ea:92:34:06:4a
        Signature Algorithm: sha256WithRSAEncryption
        Issuer: CN=team597-net
        Validity
            Not Before: Sep 13 04:00:53 2021 GMT
            Not After : Aug 28 04:00:53 2024 GMT
        Subject: CN=team597-client
        Subject Public Key Info:
            Public Key Algorithm: rsaEncryption
                RSA Public-Key: (2048 bit)
                Modulus:
                    00:c7:3b:e7:26:01:65:b7:e3:a1:76:e6:ff:3a:c7:
                    02:81:4c:7d:37:c4:e8:19:9d:e0:8a:c8:85:9b:b3:
                    39:fc:4a:51:8e:02:71:83:53:b5:5d:9d:7a:4c:fb:
                    87:fa:dd:68:29:f9:3d:2e:db:70:c2:a0:9c:4c:06:
                    21:40:01:f1:79:d5:a0:75:dd:7c:c9:fc:83:18:88:
                    5f:2c:85:8a:3b:7a:15:b7:c9:15:f0:f4:d6:65:2c:
                    89:5d:ea:8b:81:d9:b8:d7:b1:ab:dc:20:8e:1a:4c:
                    db:56:45:11:3b:56:54:93:ef:aa:b1:d1:4e:aa:43:
                    42:52:49:9c:db:11:33:09:da:3b:bd:96:48:4c:c8:
                    72:ca:76:64:b8:f3:03:85:e1:da:14:cb:93:3d:aa:
                    e4:44:b6:15:70:06:b7:34:47:d7:cd:e0:b6:40:33:
                    2d:63:88:4e:cc:56:5c:25:8f:93:df:03:14:10:65:
                    8c:40:dc:ba:2b:7d:73:4c:27:af:55:4c:41:4a:bd:
                    a5:2c:78:9b:74:48:77:fe:28:3f:10:b6:e1:1e:bd:
                    9d:c1:2f:4a:64:f5:d6:30:9e:7a:a6:49:cf:d3:95:
                    d5:6c:d6:28:bc:7d:b0:d7:94:15:d3:d3:5e:91:48:
                    34:bf:99:d0:cb:a8:e6:b0:1f:4c:16:d6:06:6f:43:
                    d7:af
                Exponent: 65537 (0x10001)
        X509v3 extensions:
            X509v3 Basic Constraints: 
                CA:FALSE
            X509v3 Subject Key Identifier: 
                E0:5E:E9:E7:60:71:64:0F:8F:F2:23:6C:87:E4:AF:C5:07:D4:D4:FB
            X509v3 Authority Key Identifier: 
                keyid:7A:0D:B0:8F:76:A2:7B:9C:45:2E:AE:1F:22:3F:38:A2:36:57:4E:79
                DirName:/CN=team597-net
                serial:0F:A6:F2:F3:93:8B:3F:0E:B2:F2:CE:01:5C:A9:7A:2E:F8:1F:31:A7

            X509v3 Extended Key Usage: 
                TLS Web Client Authentication
            X509v3 Key Usage: 
                Digital Signature
    Signature Algorithm: sha256WithRSAEncryption
         71:c1:f3:6d:c4:63:c4:fb:d7:68:f3:07:cd:89:61:06:61:f1:
         3d:21:cd:84:31:c2:aa:f1:e4:79:50:dc:93:f4:ca:f7:cc:73:
         4f:f1:ab:b8:0b:5a:59:1a:05:d5:6a:20:93:18:1a:3b:78:7d:
         5f:96:db:5e:de:cd:1a:4d:e1:c6:47:db:cd:ac:9a:01:d7:87:
         62:4c:f2:2d:fb:bf:9a:62:d4:13:07:d5:00:ac:25:95:ee:53:
         4c:71:7a:f8:c5:f0:16:08:ed:9f:76:85:b8:1e:00:e4:52:75:
         ea:a0:ad:2d:94:25:f7:76:99:ff:51:b9:ed:08:06:d2:57:b8:
         3a:f2:69:6f:20:6d:58:cf:1f:89:6a:5a:fb:ad:62:28:d5:b2:
         eb:76:58:8a:5b:a5:17:a3:f2:14:1f:6d:c5:a8:6b:e4:1b:1e:
         73:99:aa:59:40:17:5d:14:ce:bd:82:2a:0c:38:df:a3:3d:e4:
         ad:81:9e:a7:97:d2:99:d4:f1:f1:e6:a2:9f:4e:88:19:ba:60:
         8e:bd:7d:f9:c9:1b:11:1a:cc:30:ad:41:de:02:2a:e3:7c:66:
         5a:14:cd:17:73:ef:f2:96:12:d3:31:7e:5c:85:63:e9:c1:21:
         0d:9b:b8:24:dc:51:36:44:95:fe:d1:29:55:30:de:fe:12:2d:
         a9:f7:73:f3
-----BEGIN CERTIFICATE-----
MIIDXTCCAkWgAwIBAgIRAL0+1x42W/c18lbm6pI0BkowDQYJKoZIhvcNAQELBQAw
FjEUMBIGA1UEAwwLdGVhbTU5Ny1uZXQwHhcNMjEwOTEzMDQwMDUzWhcNMjQwODI4
MDQwMDUzWjAZMRcwFQYDVQQDDA50ZWFtNTk3LWNsaWVudDCCASIwDQYJKoZIhvcN
AQEBBQADggEPADCCAQoCggEBAMc75yYBZbfjoXbm/zrHAoFMfTfE6Bmd4IrIhZuz
OfxKUY4CcYNTtV2dekz7h/rdaCn5PS7bcMKgnEwGIUAB8XnVoHXdfMn8gxiIXyyF
ijt6FbfJFfD01mUsiV3qi4HZuNexq9wgjhpM21ZFETtWVJPvqrHRTqpDQlJJnNsR
MwnaO72WSEzIcsp2ZLjzA4Xh2hTLkz2q5ES2FXAGtzRH183gtkAzLWOITsxWXCWP
k98DFBBljEDcuit9c0wnr1VMQUq9pSx4m3RId/4oPxC24R69ncEvSmT11jCeeqZJ
z9OV1WzWKLx9sNeUFdPTXpFINL+Z0Muo5rAfTBbWBm9D168CAwEAAaOBojCBnzAJ
BgNVHRMEAjAAMB0GA1UdDgQWBBTgXunnYHFkD4/yI2yH5K/FB9TU+zBRBgNVHSME
SjBIgBR6DbCPdqJ7nEUurh8iPziiNldOeaEapBgwFjEUMBIGA1UEAwwLdGVhbTU5
Ny1uZXSCFA+m8vOTiz8OsvLOAVypei74HzGnMBMGA1UdJQQMMAoGCCsGAQUFBwMC
MAsGA1UdDwQEAwIHgDANBgkqhkiG9w0BAQsFAAOCAQEAccHzbcRjxPvXaPMHzYlh
BmHxPSHNhDHCqvHkeVDck/TK98xzT/GruAtaWRoF1WogkxgaO3h9X5bbXt7NGk3h
xkfbzayaAdeHYkzyLfu/mmLUEwfVAKwlle5TTHF6+MXwFgjtn3aFuB4A5FJ16qCt
LZQl93aZ/1G57QgG0le4OvJpbyBtWM8fiWpa+61iKNWy63ZYilulF6PyFB9txahr
5Bsec5mqWUAXXRTOvYIqDDjfoz3krYGep5fSmdTx8eain06IGbpgjr19+ckbERrM
MK1B3gIq43xmWhTNF3Pv8pYS0zF+XIVj6cEhDZu4JNxRNkSV/tEpVTDe/hItqfdz
8w==
-----END CERTIFICATE-----
