Certificate:
    Data:
        Version: 3 (0x2)
        Serial Number:
            61:ed:f8:ea:d8:bf:82:35:59:4f:4f:1d:76:ed:61:28
        Signature Algorithm: sha256WithRSAEncryption
        Issuer: CN=team61-net
        Validity
            Not Before: Sep 12 23:15:24 2021 GMT
            Not After : Aug 27 23:15:24 2024 GMT
        Subject: CN=team61-client
        Subject Public Key Info:
            Public Key Algorithm: rsaEncryption
                RSA Public-Key: (2048 bit)
                Modulus:
                    00:b9:8f:b9:5e:26:ea:81:4f:a3:49:ca:36:36:0d:
                    85:c4:41:7a:22:e6:f8:7e:e0:66:e0:a0:ba:1e:69:
                    be:3f:0d:a5:9a:0f:6a:06:89:c1:39:a1:71:ae:a5:
                    91:28:54:3e:19:db:35:91:5a:3a:4c:da:62:27:d8:
                    7d:3a:2f:89:ac:bc:e0:ca:7d:d9:17:d9:0c:fa:d0:
                    ab:76:d7:3c:bc:90:19:ce:f7:6e:dc:51:c0:ec:18:
                    2d:f5:db:25:bf:4a:85:c8:2b:32:2a:b3:62:4d:92:
                    cb:41:e6:0a:d2:fe:e1:27:d2:10:cb:eb:a0:32:90:
                    2f:c2:ee:67:ec:ab:7b:6d:91:3e:10:2c:cc:27:38:
                    03:9f:3d:47:f6:44:ee:5d:ab:63:b6:8d:98:70:1d:
                    a4:ec:ab:66:a5:67:dc:cd:4f:cd:33:a7:62:fb:ab:
                    30:bd:94:09:8f:c1:aa:e5:7b:8c:4b:2d:2d:f6:13:
                    86:7c:0e:fe:da:18:ad:1b:71:65:d2:e8:92:4c:86:
                    cd:0d:e2:c2:a9:3c:a3:47:bb:87:9f:01:87:bc:07:
                    a4:2b:2d:5e:d5:a9:7a:6c:ef:89:c7:bf:99:d8:26:
                    28:d0:ef:55:0f:40:66:de:9c:a8:d1:61:1b:f3:b5:
                    17:a7:32:9a:7a:30:a9:12:fc:2a:5d:0e:7a:53:f9:
                    8a:eb
                Exponent: 65537 (0x10001)
        X509v3 extensions:
            X509v3 Basic Constraints: 
                CA:FALSE
            X509v3 Subject Key Identifier: 
                A4:4B:8C:D5:44:04:8E:02:51:91:E0:61:22:CB:28:45:FD:54:18:49
            X509v3 Authority Key Identifier: 
                keyid:9A:AD:82:04:FB:15:23:CD:6A:20:95:64:F1:2E:5C:C6:DC:3C:00:47
                DirName:/CN=team61-net
                serial:3D:B9:3B:63:97:20:31:37:14:FD:A5:67:17:4A:CB:FB:B1:13:C2:E9

            X509v3 Extended Key Usage: 
                TLS Web Client Authentication
            X509v3 Key Usage: 
                Digital Signature
    Signature Algorithm: sha256WithRSAEncryption
         af:32:8b:4e:aa:2f:53:84:39:c6:69:03:fd:9a:c2:ed:a4:26:
         24:0b:b9:05:3f:e4:13:30:1b:81:38:a1:f2:6d:c9:b6:ed:21:
         5a:f7:d9:76:1f:26:de:70:80:8f:41:ca:39:31:de:5a:44:70:
         79:db:e4:85:00:63:7f:99:84:cd:96:22:71:52:94:ba:3b:22:
         1f:03:74:c6:19:aa:87:5a:83:65:7c:df:38:06:b9:3d:fd:17:
         d1:ef:11:3a:cd:e2:cd:33:7e:b8:29:84:64:e4:8e:4d:b7:04:
         c6:40:86:58:96:ed:a9:4a:68:66:c4:18:35:50:fe:d9:80:98:
         04:d4:35:25:29:b0:74:6e:2a:da:98:fe:10:5c:00:a8:74:f3:
         c7:a0:6f:c4:a0:43:a7:79:d8:11:07:8b:94:59:58:62:60:39:
         e4:41:c8:58:7b:09:88:12:b2:ec:8f:56:ca:30:25:47:b4:2c:
         a6:d9:e9:f4:52:77:48:80:8d:3d:09:d1:03:dd:7f:32:3b:bf:
         69:2b:6e:4c:79:fd:4c:86:37:b7:e1:f3:b1:91:ee:af:88:d5:
         cf:1d:e6:ad:73:90:00:38:e5:07:a3:7c:e1:82:0f:d4:0d:ad:
         86:fe:8b:f3:f0:8a:49:23:05:59:1a:2a:e2:b6:c4:4d:97:b2:
         75:9b:4e:6c
-----BEGIN CERTIFICATE-----
MIIDWTCCAkGgAwIBAgIQYe346ti/gjVZT08ddu1hKDANBgkqhkiG9w0BAQsFADAV
MRMwEQYDVQQDDAp0ZWFtNjEtbmV0MB4XDTIxMDkxMjIzMTUyNFoXDTI0MDgyNzIz
MTUyNFowGDEWMBQGA1UEAwwNdGVhbTYxLWNsaWVudDCCASIwDQYJKoZIhvcNAQEB
BQADggEPADCCAQoCggEBALmPuV4m6oFPo0nKNjYNhcRBeiLm+H7gZuCguh5pvj8N
pZoPagaJwTmhca6lkShUPhnbNZFaOkzaYifYfToviay84Mp92RfZDPrQq3bXPLyQ
Gc73btxRwOwYLfXbJb9KhcgrMiqzYk2Sy0HmCtL+4SfSEMvroDKQL8LuZ+yre22R
PhAszCc4A589R/ZE7l2rY7aNmHAdpOyrZqVn3M1PzTOnYvurML2UCY/BquV7jEst
LfYThnwO/toYrRtxZdLokkyGzQ3iwqk8o0e7h58Bh7wHpCstXtWpemzvice/mdgm
KNDvVQ9AZt6cqNFhG/O1F6cymnowqRL8Kl0OelP5iusCAwEAAaOBoTCBnjAJBgNV
HRMEAjAAMB0GA1UdDgQWBBSkS4zVRASOAlGR4GEiyyhF/VQYSTBQBgNVHSMESTBH
gBSarYIE+xUjzWoglWTxLlzG3DwAR6EZpBcwFTETMBEGA1UEAwwKdGVhbTYxLW5l
dIIUPbk7Y5cgMTcU/aVnF0rL+7ETwukwEwYDVR0lBAwwCgYIKwYBBQUHAwIwCwYD
VR0PBAQDAgeAMA0GCSqGSIb3DQEBCwUAA4IBAQCvMotOqi9ThDnGaQP9msLtpCYk
C7kFP+QTMBuBOKHybcm27SFa99l2HybecICPQco5Md5aRHB52+SFAGN/mYTNliJx
UpS6OyIfA3TGGaqHWoNlfN84Brk9/RfR7xE6zeLNM364KYRk5I5NtwTGQIZYlu2p
SmhmxBg1UP7ZgJgE1DUlKbB0biramP4QXACodPPHoG/EoEOnedgRB4uUWVhiYDnk
QchYewmIErLsj1bKMCVHtCym2en0UndIgI09CdED3X8yO79pK25Mef1Mhje34fOx
ke6viNXPHeatc5AAOOUHo3zhgg/UDa2G/ovz8IpJIwVZGiritsRNl7J1m05s
-----END CERTIFICATE-----
