Certificate:
    Data:
        Version: 3 (0x2)
        Serial Number:
            8e:45:67:c7:a1:65:78:03:7d:cc:eb:5a:28:a3:8d:6c
        Signature Algorithm: sha256WithRSAEncryption
        Issuer: CN=team322-net
        Validity
            Not Before: Sep 13 01:38:48 2021 GMT
            Not After : Aug 28 01:38:48 2024 GMT
        Subject: CN=team322-client
        Subject Public Key Info:
            Public Key Algorithm: rsaEncryption
                RSA Public-Key: (2048 bit)
                Modulus:
                    00:93:01:cc:ea:40:1a:48:c4:a8:9b:97:0f:fa:f1:
                    a7:f1:b5:af:a6:6e:a1:0b:de:14:4c:07:e2:ef:85:
                    15:54:50:39:70:fa:0f:2a:66:66:6e:7d:c9:ea:21:
                    a0:fa:25:46:35:a0:6f:2f:d1:2c:65:b3:d3:1f:df:
                    93:d5:15:37:17:6a:dd:e2:e7:2a:49:1d:60:b0:ab:
                    1a:0a:f7:a0:10:b1:90:2d:c8:50:44:0e:34:4e:0c:
                    ce:2e:ed:bd:19:e4:f8:85:c7:6b:86:82:11:cc:d6:
                    da:b1:c2:2b:2e:f8:3e:b1:22:d4:f0:c2:46:84:a0:
                    d9:9d:67:16:0c:74:2c:64:bd:2c:63:14:6b:1f:3f:
                    f1:ac:81:3a:4e:31:7f:36:64:68:77:2b:c5:20:23:
                    0a:f4:d2:4e:12:f1:a9:dd:ef:71:fe:5d:fd:3d:60:
                    a7:22:d3:46:bf:92:e7:a2:1b:4e:7f:e5:ad:69:c0:
                    f6:68:4b:af:83:bf:15:8b:4d:15:99:e7:94:bc:2e:
                    a7:77:1b:d6:6f:28:22:33:24:51:8e:c2:f4:b3:1c:
                    64:72:0e:57:8f:d3:bc:2b:ec:09:1f:34:13:90:c8:
                    00:3b:70:b0:15:0d:02:81:e1:15:70:12:e1:9b:53:
                    c6:1b:c8:55:7a:e0:6c:2a:5a:64:e1:02:e9:64:9d:
                    46:fd
                Exponent: 65537 (0x10001)
        X509v3 extensions:
            X509v3 Basic Constraints: 
                CA:FALSE
            X509v3 Subject Key Identifier: 
                05:3A:47:14:93:23:5A:3F:AE:54:DC:D6:D0:86:11:CC:4B:87:E7:98
            X509v3 Authority Key Identifier: 
                keyid:0E:79:4A:2F:2C:70:01:4F:29:E1:EC:71:54:59:FE:C3:1B:B5:81:74
                DirName:/CN=team322-net
                serial:29:F3:65:54:2D:2B:D8:2D:82:9A:D3:46:BA:47:87:E0:81:6B:9C:16

            X509v3 Extended Key Usage: 
                TLS Web Client Authentication
            X509v3 Key Usage: 
                Digital Signature
    Signature Algorithm: sha256WithRSAEncryption
         a8:31:f7:f5:ae:60:bb:92:0b:d6:e4:9e:8a:83:93:c6:6e:b2:
         a4:3e:b4:6c:09:e4:e2:86:58:f9:4e:e8:8f:d3:c3:79:04:f1:
         b7:36:00:71:78:e1:16:b3:71:65:b6:5d:e8:f3:00:a3:45:2e:
         59:2b:46:3f:6a:96:6c:13:63:94:fb:18:7f:1d:92:12:b8:04:
         2c:8f:a9:72:36:15:d2:47:86:13:49:a6:f3:74:2f:6f:a2:5a:
         f5:75:d1:b0:18:b7:f3:e3:23:27:c0:44:61:e1:2c:0c:e8:18:
         40:3e:81:f6:af:21:ef:a3:66:ef:28:f2:b2:0c:3b:88:f7:0a:
         a0:18:e8:dc:99:50:3b:cc:90:96:74:1a:f9:ca:0c:84:06:f3:
         d9:b8:df:33:2e:07:e8:b7:d0:c8:98:49:aa:64:25:69:0f:87:
         36:9c:9b:27:7d:ee:4f:dc:4d:23:c9:63:cb:e4:2b:71:7d:2d:
         03:b7:fa:ae:9d:7e:ef:cd:db:fd:82:e7:69:95:27:dc:a4:d7:
         60:f2:71:bb:52:9e:49:f1:40:ee:6b:38:07:79:40:5d:1d:9e:
         a7:8c:46:c8:b8:dd:1b:8c:4e:4b:41:b6:d4:54:0e:46:cf:1a:
         b5:d3:66:77:85:f0:94:48:d1:2e:d4:f8:14:60:c7:6d:8b:2d:
         f1:2c:a7:da
-----BEGIN CERTIFICATE-----
MIIDXTCCAkWgAwIBAgIRAI5FZ8ehZXgDfczrWiijjWwwDQYJKoZIhvcNAQELBQAw
FjEUMBIGA1UEAwwLdGVhbTMyMi1uZXQwHhcNMjEwOTEzMDEzODQ4WhcNMjQwODI4
MDEzODQ4WjAZMRcwFQYDVQQDDA50ZWFtMzIyLWNsaWVudDCCASIwDQYJKoZIhvcN
AQEBBQADggEPADCCAQoCggEBAJMBzOpAGkjEqJuXD/rxp/G1r6ZuoQveFEwH4u+F
FVRQOXD6DypmZm59yeohoPolRjWgby/RLGWz0x/fk9UVNxdq3eLnKkkdYLCrGgr3
oBCxkC3IUEQONE4Mzi7tvRnk+IXHa4aCEczW2rHCKy74PrEi1PDCRoSg2Z1nFgx0
LGS9LGMUax8/8ayBOk4xfzZkaHcrxSAjCvTSThLxqd3vcf5d/T1gpyLTRr+S56Ib
Tn/lrWnA9mhLr4O/FYtNFZnnlLwup3cb1m8oIjMkUY7C9LMcZHIOV4/TvCvsCR80
E5DIADtwsBUNAoHhFXAS4ZtTxhvIVXrgbCpaZOEC6WSdRv0CAwEAAaOBojCBnzAJ
BgNVHRMEAjAAMB0GA1UdDgQWBBQFOkcUkyNaP65U3NbQhhHMS4fnmDBRBgNVHSME
SjBIgBQOeUovLHABTynh7HFUWf7DG7WBdKEapBgwFjEUMBIGA1UEAwwLdGVhbTMy
Mi1uZXSCFCnzZVQtK9gtgprTRrpHh+CBa5wWMBMGA1UdJQQMMAoGCCsGAQUFBwMC
MAsGA1UdDwQEAwIHgDANBgkqhkiG9w0BAQsFAAOCAQEAqDH39a5gu5IL1uSeioOT
xm6ypD60bAnk4oZY+U7oj9PDeQTxtzYAcXjhFrNxZbZd6PMAo0UuWStGP2qWbBNj
lPsYfx2SErgELI+pcjYV0keGE0mm83Qvb6Ja9XXRsBi38+MjJ8BEYeEsDOgYQD6B
9q8h76Nm7yjysgw7iPcKoBjo3JlQO8yQlnQa+coMhAbz2bjfMy4H6LfQyJhJqmQl
aQ+HNpybJ33uT9xNI8ljy+QrcX0tA7f6rp1+783b/YLnaZUn3KTXYPJxu1KeSfFA
7ms4B3lAXR2ep4xGyLjdG4xOS0G21FQORs8atdNmd4XwlEjRLtT4FGDHbYst8Syn
2g==
-----END CERTIFICATE-----
