Certificate:
    Data:
        Version: 3 (0x2)
        Serial Number:
            ab:b2:8e:dc:7b:cc:08:0c:cf:59:31:49:94:c3:13:14
        Signature Algorithm: sha256WithRSAEncryption
        Issuer: CN=team236-net
        Validity
            Not Before: Sep 13 00:56:19 2021 GMT
            Not After : Aug 28 00:56:19 2024 GMT
        Subject: CN=team236-server
        Subject Public Key Info:
            Public Key Algorithm: rsaEncryption
                RSA Public-Key: (2048 bit)
                Modulus:
                    00:c9:fd:46:43:7a:ee:03:e3:0b:06:1f:2c:bb:0a:
                    31:e0:29:5c:79:ee:28:50:74:0e:42:68:d9:a9:02:
                    35:4f:ad:14:f7:24:ad:5f:aa:d4:ae:da:79:3f:db:
                    c7:6a:8d:d2:45:c8:6b:d0:40:dd:e7:0c:57:38:50:
                    fc:d0:66:d8:d4:8b:7f:d2:70:f2:23:84:4f:13:76:
                    47:96:eb:be:92:5f:da:76:d7:be:49:72:e1:42:85:
                    57:57:ef:9d:42:f9:c6:84:ea:5e:a7:ec:c6:3a:59:
                    33:02:dd:f2:73:36:a8:15:5f:b6:ae:55:1e:25:cb:
                    a4:7d:30:f4:09:54:12:1f:16:d8:d3:d6:8b:d7:81:
                    31:34:7a:14:95:9c:6b:64:c9:f5:db:b3:8a:4b:b8:
                    3c:35:fb:50:93:a7:f6:6d:45:80:59:1d:64:7e:65:
                    59:1f:b7:b6:1a:1d:b5:3e:87:36:5f:5f:67:49:0c:
                    22:ba:41:69:45:5b:62:97:1f:07:89:76:c0:89:67:
                    b1:2f:e0:3f:33:fb:1b:a1:d2:69:a8:3e:4f:51:d5:
                    b8:9d:a6:ec:27:13:31:1e:ec:24:08:c3:bd:ff:57:
                    21:89:7c:82:f7:c4:ad:10:c2:42:f3:89:d1:e3:00:
                    ef:fc:f5:40:16:a4:0d:58:e0:69:53:50:a7:bc:66:
                    5e:91
                Exponent: 65537 (0x10001)
        X509v3 extensions:
            X509v3 Basic Constraints: 
                CA:FALSE
            X509v3 Subject Key Identifier: 
                5A:08:D7:E0:E1:34:96:00:59:AB:91:48:43:DC:0D:47:5E:4F:57:A1
            X509v3 Authority Key Identifier: 
                keyid:14:55:A5:9C:8D:99:5F:56:15:89:92:DB:D9:47:31:8C:60:69:69:87
                DirName:/CN=team236-net
                serial:67:04:72:2C:35:E3:10:A9:A6:A5:81:7D:BC:89:90:DD:AC:53:21:02

            X509v3 Extended Key Usage: 
                TLS Web Server Authentication
            X509v3 Key Usage: 
                Digital Signature, Key Encipherment
            X509v3 Subject Alternative Name: 
                DNS:team236-server
    Signature Algorithm: sha256WithRSAEncryption
         5e:0a:27:7c:5d:53:7b:d1:bf:d5:62:88:9f:61:8d:34:ec:3b:
         a8:30:15:9f:6d:6b:a9:a3:00:e3:26:3e:f2:3b:8a:7d:c2:c6:
         dd:20:e6:87:6f:6b:3a:9a:57:59:c0:e6:82:a5:3d:c7:c0:ee:
         50:47:16:31:c5:49:e6:56:e3:97:60:03:37:eb:25:db:a3:53:
         6c:05:68:74:f3:d0:70:d4:c3:72:cc:2a:0d:ee:61:16:e1:65:
         8a:cd:f7:e8:6a:a4:e1:99:5d:c6:a7:8b:c1:9a:c6:2e:bb:1f:
         69:ea:0c:9b:7c:21:ae:0a:bb:bb:22:2f:fd:73:85:5d:a6:81:
         32:58:2d:68:0e:dc:6c:30:bb:cf:c7:99:df:71:64:e5:90:6d:
         76:04:1c:e8:dd:63:1e:20:39:9e:b1:bf:1a:15:80:05:57:9b:
         0e:fa:3f:f3:ef:95:b9:5a:28:e4:04:07:bb:c1:90:73:08:06:
         46:a8:45:85:5e:12:2f:52:de:09:0f:bf:8c:f1:22:f0:98:6c:
         6a:66:8d:81:1a:b3:f1:63:2b:1c:bb:41:82:e3:04:a2:32:d4:
         d5:52:42:98:09:49:dd:f3:29:aa:25:9d:84:c4:4d:39:bc:14:
         57:56:02:07:e1:ed:da:c3:f2:79:0f:d3:4c:bf:27:d8:51:c0:
         2b:e5:60:c9
-----BEGIN CERTIFICATE-----
MIIDeDCCAmCgAwIBAgIRAKuyjtx7zAgMz1kxSZTDExQwDQYJKoZIhvcNAQELBQAw
FjEUMBIGA1UEAwwLdGVhbTIzNi1uZXQwHhcNMjEwOTEzMDA1NjE5WhcNMjQwODI4
MDA1NjE5WjAZMRcwFQYDVQQDDA50ZWFtMjM2LXNlcnZlcjCCASIwDQYJKoZIhvcN
AQEBBQADggEPADCCAQoCggEBAMn9RkN67gPjCwYfLLsKMeApXHnuKFB0DkJo2akC
NU+tFPckrV+q1K7aeT/bx2qN0kXIa9BA3ecMVzhQ/NBm2NSLf9Jw8iOETxN2R5br
vpJf2nbXvkly4UKFV1fvnUL5xoTqXqfsxjpZMwLd8nM2qBVftq5VHiXLpH0w9AlU
Eh8W2NPWi9eBMTR6FJWca2TJ9duziku4PDX7UJOn9m1FgFkdZH5lWR+3thodtT6H
Nl9fZ0kMIrpBaUVbYpcfB4l2wIlnsS/gPzP7G6HSaag+T1HVuJ2m7CcTMR7sJAjD
vf9XIYl8gvfErRDCQvOJ0eMA7/z1QBakDVjgaVNQp7xmXpECAwEAAaOBvTCBujAJ
BgNVHRMEAjAAMB0GA1UdDgQWBBRaCNfg4TSWAFmrkUhD3A1HXk9XoTBRBgNVHSME
SjBIgBQUVaWcjZlfVhWJktvZRzGMYGlph6EapBgwFjEUMBIGA1UEAwwLdGVhbTIz
Ni1uZXSCFGcEciw14xCppqWBfbyJkN2sUyECMBMGA1UdJQQMMAoGCCsGAQUFBwMB
MAsGA1UdDwQEAwIFoDAZBgNVHREEEjAQgg50ZWFtMjM2LXNlcnZlcjANBgkqhkiG
9w0BAQsFAAOCAQEAXgonfF1Te9G/1WKIn2GNNOw7qDAVn21rqaMA4yY+8juKfcLG
3SDmh29rOppXWcDmgqU9x8DuUEcWMcVJ5lbjl2ADN+sl26NTbAVodPPQcNTDcswq
De5hFuFlis336Gqk4ZldxqeLwZrGLrsfaeoMm3whrgq7uyIv/XOFXaaBMlgtaA7c
bDC7z8eZ33Fk5ZBtdgQc6N1jHiA5nrG/GhWABVebDvo/8++VuVoo5AQHu8GQcwgG
RqhFhV4SL1LeCQ+/jPEi8JhsamaNgRqz8WMrHLtBguMEojLU1VJCmAlJ3fMpqiWd
hMRNObwUV1YCB+Ht2sPyeQ/TTL8n2FHAK+VgyQ==
-----END CERTIFICATE-----
