Certificate:
    Data:
        Version: 3 (0x2)
        Serial Number:
            94:cb:92:31:00:27:9d:ec:cb:9c:b0:c1:e5:62:f9:f8
        Signature Algorithm: sha256WithRSAEncryption
        Issuer: CN=team549-net
        Validity
            Not Before: Sep 13 03:30:41 2021 GMT
            Not After : Aug 28 03:30:41 2024 GMT
        Subject: CN=team549-server
        Subject Public Key Info:
            Public Key Algorithm: rsaEncryption
                RSA Public-Key: (2048 bit)
                Modulus:
                    00:c5:1f:6e:45:e1:d4:02:1b:8e:e9:bf:65:e9:28:
                    bd:fd:92:85:35:a2:fb:af:ca:75:0f:c9:fb:8a:e2:
                    02:76:b9:d1:bb:f5:01:62:74:9d:e7:3c:66:96:ff:
                    7f:ab:5a:3a:df:45:42:e3:c0:fd:d1:a8:7a:a5:56:
                    f0:b1:95:3c:4c:3c:00:67:8a:ff:9a:5c:f1:10:64:
                    d3:08:95:2b:01:73:28:73:61:b9:cd:90:6c:a2:57:
                    02:b5:94:28:0b:3b:18:ce:e4:5e:8a:6a:c5:b2:16:
                    a2:84:7d:35:b8:15:84:35:b4:b5:b2:66:33:64:ed:
                    dc:55:56:3d:2a:0b:01:db:6d:90:c5:43:b9:6b:42:
                    4e:0b:f8:9e:fe:55:c2:33:10:ac:bd:64:95:5e:15:
                    43:b2:19:81:f6:4e:2d:ea:17:c3:26:28:34:bf:e1:
                    b3:b0:c5:c8:b4:80:a0:5e:3f:1a:58:70:06:5a:72:
                    ce:ee:a2:e1:1c:c9:fc:83:0c:91:93:9d:21:50:8d:
                    ed:df:7c:73:78:9a:66:d4:06:e6:3d:51:2f:91:0d:
                    2c:1e:b0:b7:af:c0:75:7b:a7:bf:c4:55:68:53:e8:
                    fa:4e:36:23:20:16:99:56:8f:d8:4f:65:ea:db:4b:
                    36:58:9d:04:40:85:fc:62:91:e6:01:c5:e1:0e:93:
                    bd:f1
                Exponent: 65537 (0x10001)
        X509v3 extensions:
            X509v3 Basic Constraints: 
                CA:FALSE
            X509v3 Subject Key Identifier: 
                36:5B:5F:27:D1:37:CD:0D:D3:3A:AD:B0:54:E6:A1:AF:74:CE:BF:3F
            X509v3 Authority Key Identifier: 
                keyid:A0:5E:B0:49:7C:51:14:71:48:40:7A:04:CC:2D:EA:A3:0A:88:DC:D4
                DirName:/CN=team549-net
                serial:2C:CB:D8:A7:7D:AC:8A:BE:F2:2F:61:27:23:EA:3E:88:F4:4B:B6:49

            X509v3 Extended Key Usage: 
                TLS Web Server Authentication
            X509v3 Key Usage: 
                Digital Signature, Key Encipherment
            X509v3 Subject Alternative Name: 
                DNS:team549-server
    Signature Algorithm: sha256WithRSAEncryption
         70:fb:53:9f:f2:25:b0:8b:d3:e0:41:9b:c0:63:94:c9:d3:a9:
         89:d2:e5:65:99:9d:af:81:68:8f:43:92:07:85:6f:19:46:99:
         6e:bd:6b:72:1a:af:1c:39:92:cc:42:3d:81:ee:17:e1:e9:6f:
         1e:a1:da:dc:43:19:c9:60:91:20:8f:a6:92:df:47:0c:68:f9:
         fd:0a:7b:1f:16:4f:b8:00:50:b8:81:39:1c:21:74:cf:1f:16:
         70:40:66:5f:e3:3c:d6:68:14:4d:1b:01:f2:b3:f7:3f:75:ed:
         78:f1:ef:3a:7f:58:8d:17:71:8a:b8:13:fe:85:0f:3d:57:cd:
         f6:01:75:9d:85:e8:30:8c:49:54:c8:31:68:75:b0:01:4a:64:
         b6:d2:3e:2a:6e:ce:08:c1:63:82:b0:03:77:ae:c7:4a:a3:e7:
         a7:f6:92:5f:30:a3:6a:39:40:e7:7a:83:7a:e5:93:85:1b:b0:
         d9:a0:d3:b8:ea:f4:ec:c0:5e:79:62:5e:d4:d4:05:25:33:0d:
         b6:ad:fd:7b:ae:a5:56:fd:3f:d4:2d:35:7b:9f:82:02:21:ca:
         e4:14:35:73:8f:9a:6c:28:06:73:0f:69:e1:aa:7f:73:59:f4:
         ee:a3:5a:56:44:d1:5d:90:9a:f4:cd:ba:44:28:2b:a3:64:f0:
         81:3b:45:cf
-----BEGIN CERTIFICATE-----
MIIDeDCCAmCgAwIBAgIRAJTLkjEAJ53sy5ywweVi+fgwDQYJKoZIhvcNAQELBQAw
FjEUMBIGA1UEAwwLdGVhbTU0OS1uZXQwHhcNMjEwOTEzMDMzMDQxWhcNMjQwODI4
MDMzMDQxWjAZMRcwFQYDVQQDDA50ZWFtNTQ5LXNlcnZlcjCCASIwDQYJKoZIhvcN
AQEBBQADggEPADCCAQoCggEBAMUfbkXh1AIbjum/Zekovf2ShTWi+6/KdQ/J+4ri
Ana50bv1AWJ0nec8Zpb/f6taOt9FQuPA/dGoeqVW8LGVPEw8AGeK/5pc8RBk0wiV
KwFzKHNhuc2QbKJXArWUKAs7GM7kXopqxbIWooR9NbgVhDW0tbJmM2Tt3FVWPSoL
AdttkMVDuWtCTgv4nv5VwjMQrL1klV4VQ7IZgfZOLeoXwyYoNL/hs7DFyLSAoF4/
GlhwBlpyzu6i4RzJ/IMMkZOdIVCN7d98c3iaZtQG5j1RL5ENLB6wt6/AdXunv8RV
aFPo+k42IyAWmVaP2E9l6ttLNlidBECF/GKR5gHF4Q6TvfECAwEAAaOBvTCBujAJ
BgNVHRMEAjAAMB0GA1UdDgQWBBQ2W18n0TfNDdM6rbBU5qGvdM6/PzBRBgNVHSME
SjBIgBSgXrBJfFEUcUhAegTMLeqjCojc1KEapBgwFjEUMBIGA1UEAwwLdGVhbTU0
OS1uZXSCFCzL2Kd9rIq+8i9hJyPqPoj0S7ZJMBMGA1UdJQQMMAoGCCsGAQUFBwMB
MAsGA1UdDwQEAwIFoDAZBgNVHREEEjAQgg50ZWFtNTQ5LXNlcnZlcjANBgkqhkiG
9w0BAQsFAAOCAQEAcPtTn/IlsIvT4EGbwGOUydOpidLlZZmdr4Foj0OSB4VvGUaZ
br1rchqvHDmSzEI9ge4X4elvHqHa3EMZyWCRII+mkt9HDGj5/Qp7HxZPuABQuIE5
HCF0zx8WcEBmX+M81mgUTRsB8rP3P3XtePHvOn9YjRdxirgT/oUPPVfN9gF1nYXo
MIxJVMgxaHWwAUpkttI+Km7OCMFjgrADd67HSqPnp/aSXzCjajlA53qDeuWThRuw
2aDTuOr07MBeeWJe1NQFJTMNtq39e66lVv0/1C01e5+CAiHK5BQ1c4+abCgGcw9p
4ap/c1n07qNaVkTRXZCa9M26RCgro2TwgTtFzw==
-----END CERTIFICATE-----
