Certificate:
    Data:
        Version: 3 (0x2)
        Serial Number:
            98:52:99:3a:d6:33:87:8e:5a:79:bd:06:62:2c:17:3f
        Signature Algorithm: sha256WithRSAEncryption
        Issuer: CN=team330-net
        Validity
            Not Before: Sep 13 01:44:34 2021 GMT
            Not After : Aug 28 01:44:34 2024 GMT
        Subject: CN=team330-client
        Subject Public Key Info:
            Public Key Algorithm: rsaEncryption
                RSA Public-Key: (2048 bit)
                Modulus:
                    00:d9:70:3b:5d:5d:3c:31:31:38:ae:2e:ab:aa:09:
                    6d:25:b8:f8:0e:15:60:16:fc:e1:b5:b7:de:e0:0a:
                    64:63:80:df:0f:9e:f0:0e:06:5a:1a:10:0d:89:33:
                    e6:eb:7c:34:dc:1d:28:33:bb:cd:10:f9:0f:d0:3f:
                    49:0e:8c:87:29:1a:94:a6:e5:94:fa:64:6d:5e:9a:
                    90:71:a2:21:bb:20:1e:da:54:d4:e2:32:8f:b3:c1:
                    4f:97:49:69:40:d8:74:cf:b0:af:e5:68:73:38:d4:
                    51:69:49:14:6d:ff:4d:68:47:b3:f0:6a:4f:e5:ef:
                    7e:c2:ab:ca:d2:fc:9a:c3:79:74:99:d2:d1:8a:31:
                    4d:9b:b8:3f:e9:21:fa:ba:91:b9:3d:d4:b3:c1:72:
                    6c:7e:a1:05:ab:4f:8b:7e:89:10:8e:31:17:bd:b2:
                    8b:10:7c:a2:8a:9a:ae:66:33:15:96:25:00:c8:39:
                    22:b5:b5:78:74:81:13:58:74:3b:7a:5f:f8:a1:a5:
                    2d:94:b6:d6:f4:5c:21:f4:53:11:40:57:80:36:64:
                    3e:8a:a5:94:d6:e5:4d:bd:38:22:7e:55:49:f4:92:
                    47:df:6d:63:96:6d:d5:1b:26:ac:5f:58:90:34:7b:
                    59:d6:43:29:30:42:bc:71:07:f5:a2:cd:20:39:97:
                    1f:e5
                Exponent: 65537 (0x10001)
        X509v3 extensions:
            X509v3 Basic Constraints: 
                CA:FALSE
            X509v3 Subject Key Identifier: 
                2F:82:8D:09:D0:79:E2:96:01:7D:54:D4:C5:53:F8:27:6E:FF:C0:6F
            X509v3 Authority Key Identifier: 
                keyid:1A:42:07:EE:8A:34:FC:20:13:A5:3D:C5:FA:AB:82:4D:00:C9:ED:E0
                DirName:/CN=team330-net
                serial:50:C9:84:4E:7D:C4:3E:AA:3C:EA:2D:7E:1B:24:A4:E1:B1:EF:EE:B1

            X509v3 Extended Key Usage: 
                TLS Web Client Authentication
            X509v3 Key Usage: 
                Digital Signature
    Signature Algorithm: sha256WithRSAEncryption
         af:f5:fb:99:d6:2f:6e:95:0d:aa:b7:7c:c6:f3:e2:6f:6a:3d:
         40:06:9e:0b:bd:be:5a:03:ab:7d:32:75:51:16:2f:c7:a9:65:
         6f:d4:a1:f2:cc:56:dd:59:ad:4c:2c:4c:c3:a1:ae:ab:92:ee:
         bd:65:c2:5d:8b:7c:51:de:a7:5f:98:e8:4f:e5:a6:7e:51:17:
         44:83:8d:bb:0b:9e:13:e9:95:31:d9:52:0a:07:d8:9d:11:97:
         63:86:ed:58:b1:50:cd:45:6b:0d:ad:35:aa:d4:32:6a:74:70:
         e0:af:6c:01:e8:81:6a:37:4f:ba:41:9c:d9:1e:62:1e:4c:f8:
         b9:52:3a:7d:54:49:dc:e1:3a:f9:b1:ba:9f:e6:c5:93:48:16:
         6c:05:f1:59:3b:48:f7:72:3f:16:01:e4:a9:6a:d0:3d:01:5b:
         cb:0f:6b:db:ad:a1:f5:fb:8e:92:31:84:bf:28:f3:c7:73:ce:
         e5:0e:6a:6e:bf:6d:90:bd:7c:bc:ff:d3:a2:b5:fb:d8:a1:42:
         4f:73:d1:26:43:3d:19:2a:d3:80:30:f7:3f:ff:0b:e2:34:04:
         70:66:66:5b:f1:f2:87:3d:1d:3e:57:d2:2e:16:06:57:aa:db:
         e4:f0:ba:8d:22:7f:49:58:eb:86:a2:ba:ed:90:a1:f8:bc:67:
         6e:85:22:f2
-----BEGIN CERTIFICATE-----
MIIDXTCCAkWgAwIBAgIRAJhSmTrWM4eOWnm9BmIsFz8wDQYJKoZIhvcNAQELBQAw
FjEUMBIGA1UEAwwLdGVhbTMzMC1uZXQwHhcNMjEwOTEzMDE0NDM0WhcNMjQwODI4
MDE0NDM0WjAZMRcwFQYDVQQDDA50ZWFtMzMwLWNsaWVudDCCASIwDQYJKoZIhvcN
AQEBBQADggEPADCCAQoCggEBANlwO11dPDExOK4uq6oJbSW4+A4VYBb84bW33uAK
ZGOA3w+e8A4GWhoQDYkz5ut8NNwdKDO7zRD5D9A/SQ6MhykalKbllPpkbV6akHGi
IbsgHtpU1OIyj7PBT5dJaUDYdM+wr+VoczjUUWlJFG3/TWhHs/BqT+XvfsKrytL8
msN5dJnS0YoxTZu4P+kh+rqRuT3Us8FybH6hBatPi36JEI4xF72yixB8ooqarmYz
FZYlAMg5IrW1eHSBE1h0O3pf+KGlLZS21vRcIfRTEUBXgDZkPoqllNblTb04In5V
SfSSR99tY5Zt1RsmrF9YkDR7WdZDKTBCvHEH9aLNIDmXH+UCAwEAAaOBojCBnzAJ
BgNVHRMEAjAAMB0GA1UdDgQWBBQvgo0J0HnilgF9VNTFU/gnbv/AbzBRBgNVHSME
SjBIgBQaQgfuijT8IBOlPcX6q4JNAMnt4KEapBgwFjEUMBIGA1UEAwwLdGVhbTMz
MC1uZXSCFFDJhE59xD6qPOotfhskpOGx7+6xMBMGA1UdJQQMMAoGCCsGAQUFBwMC
MAsGA1UdDwQEAwIHgDANBgkqhkiG9w0BAQsFAAOCAQEAr/X7mdYvbpUNqrd8xvPi
b2o9QAaeC72+WgOrfTJ1URYvx6llb9Sh8sxW3VmtTCxMw6Guq5LuvWXCXYt8Ud6n
X5joT+WmflEXRIONuwueE+mVMdlSCgfYnRGXY4btWLFQzUVrDa01qtQyanRw4K9s
AeiBajdPukGc2R5iHkz4uVI6fVRJ3OE6+bG6n+bFk0gWbAXxWTtI93I/FgHkqWrQ
PQFbyw9r262h9fuOkjGEvyjzx3PO5Q5qbr9tkL18vP/TorX72KFCT3PRJkM9GSrT
gDD3P/8L4jQEcGZmW/Hyhz0dPlfSLhYGV6rb5PC6jSJ/SVjrhqK67ZCh+LxnboUi
8g==
-----END CERTIFICATE-----
