Certificate:
    Data:
        Version: 3 (0x2)
        Serial Number:
            dd:34:58:24:d0:d3:44:5f:ca:2e:99:4a:eb:16:ea:1d
        Signature Algorithm: sha256WithRSAEncryption
        Issuer: CN=team283-net
        Validity
            Not Before: Sep 13 01:14:07 2021 GMT
            Not After : Aug 28 01:14:07 2024 GMT
        Subject: CN=team283-client
        Subject Public Key Info:
            Public Key Algorithm: rsaEncryption
                RSA Public-Key: (2048 bit)
                Modulus:
                    00:d9:d9:f6:87:33:08:56:3e:14:3b:fb:ff:28:21:
                    85:65:e7:49:38:50:7f:12:f9:0e:d2:42:fb:d5:ad:
                    08:02:7f:b9:86:98:21:27:c3:bf:1d:e2:93:48:cb:
                    63:55:7e:4a:e3:9c:f8:62:7d:2b:98:7e:e4:2d:4f:
                    eb:4f:3c:9b:07:39:33:f2:b7:63:3b:58:e6:91:ae:
                    98:51:40:7d:d2:f7:02:14:60:f1:91:21:79:3d:82:
                    04:15:bf:a1:ab:3e:b5:cf:d4:da:63:15:35:af:2f:
                    52:07:d6:c8:c5:f7:81:c6:01:bc:ba:83:56:ad:3a:
                    36:d2:60:4e:1c:7d:33:e9:16:b3:86:21:03:db:a8:
                    00:0f:e7:fe:4e:8c:23:4c:14:4a:92:48:dd:7c:1d:
                    cd:2e:92:2d:1b:a8:54:3c:79:39:8b:06:fa:97:da:
                    66:19:78:83:44:fe:f5:27:b6:5a:10:88:92:b9:72:
                    cf:fd:7a:c1:22:d8:79:65:82:4b:24:74:f3:56:79:
                    17:1f:df:24:45:1d:78:db:d9:d4:99:a7:94:d8:00:
                    47:26:c6:a1:15:4d:e6:a0:af:b5:b9:21:aa:d2:87:
                    44:cd:9c:6c:31:55:22:d4:ab:12:b6:a6:6e:58:25:
                    0f:a0:f3:87:3c:7e:48:0e:ad:db:c6:1c:a6:a5:95:
                    e6:49
                Exponent: 65537 (0x10001)
        X509v3 extensions:
            X509v3 Basic Constraints: 
                CA:FALSE
            X509v3 Subject Key Identifier: 
                68:C6:FF:7D:93:5F:23:07:E5:E9:23:65:5E:AF:9A:A2:14:4B:59:94
            X509v3 Authority Key Identifier: 
                keyid:FA:10:49:9E:F7:BC:5A:65:49:30:7C:8D:53:C9:E3:F6:57:A5:A3:CF
                DirName:/CN=team283-net
                serial:2A:0F:22:BE:5C:C3:62:A9:86:D7:B9:5A:3A:9B:A8:CC:2B:39:EE:36

            X509v3 Extended Key Usage: 
                TLS Web Client Authentication
            X509v3 Key Usage: 
                Digital Signature
    Signature Algorithm: sha256WithRSAEncryption
         96:95:89:8b:ac:e9:1e:a0:4a:4f:91:a3:95:d4:f9:36:59:5d:
         5b:76:50:9c:41:d4:6a:bc:fd:54:c0:38:70:ab:97:cb:fa:9a:
         13:33:05:35:ce:4a:8e:39:54:3a:6a:07:1b:96:7d:71:b0:61:
         70:9e:9b:1c:3a:05:75:a7:b5:73:89:01:b0:c7:1b:b5:ff:99:
         e7:45:cf:64:c5:cb:b3:75:4a:1b:b5:67:95:65:81:72:16:7c:
         38:d4:1f:19:6f:7a:b2:5f:ec:9c:a4:5a:3b:84:ed:e0:6a:3f:
         59:9e:ec:c0:5a:b4:ba:ee:15:27:cd:26:ad:97:9b:5b:be:4e:
         1f:1c:2e:c8:e2:bc:c8:88:f7:1b:b6:2a:25:34:5b:20:6e:65:
         6b:bc:b3:5a:9d:42:31:cd:44:a8:19:7e:56:58:ba:85:a9:cf:
         95:7f:0a:cf:86:70:b1:a3:b9:52:10:25:fb:ef:e3:2d:0e:58:
         8b:41:ea:cd:a0:83:63:16:34:f1:5a:53:64:9a:38:01:64:c3:
         79:17:1d:01:ad:15:6e:ca:9d:41:27:fc:4c:95:bb:58:96:06:
         5e:55:bb:b5:3e:57:02:09:83:35:54:32:71:4d:7a:27:ca:ae:
         c6:59:4d:ae:86:eb:ef:57:30:0a:c2:a1:9b:dc:9e:0a:99:85:
         fb:e6:51:5b
-----BEGIN CERTIFICATE-----
MIIDXTCCAkWgAwIBAgIRAN00WCTQ00Rfyi6ZSusW6h0wDQYJKoZIhvcNAQELBQAw
FjEUMBIGA1UEAwwLdGVhbTI4My1uZXQwHhcNMjEwOTEzMDExNDA3WhcNMjQwODI4
MDExNDA3WjAZMRcwFQYDVQQDDA50ZWFtMjgzLWNsaWVudDCCASIwDQYJKoZIhvcN
AQEBBQADggEPADCCAQoCggEBANnZ9oczCFY+FDv7/yghhWXnSThQfxL5DtJC+9Wt
CAJ/uYaYISfDvx3ik0jLY1V+SuOc+GJ9K5h+5C1P6088mwc5M/K3YztY5pGumFFA
fdL3AhRg8ZEheT2CBBW/oas+tc/U2mMVNa8vUgfWyMX3gcYBvLqDVq06NtJgThx9
M+kWs4YhA9uoAA/n/k6MI0wUSpJI3XwdzS6SLRuoVDx5OYsG+pfaZhl4g0T+9Se2
WhCIkrlyz/16wSLYeWWCSyR081Z5Fx/fJEUdeNvZ1JmnlNgARybGoRVN5qCvtbkh
qtKHRM2cbDFVItSrEramblglD6Dzhzx+SA6t28YcpqWV5kkCAwEAAaOBojCBnzAJ
BgNVHRMEAjAAMB0GA1UdDgQWBBRoxv99k18jB+XpI2Ver5qiFEtZlDBRBgNVHSME
SjBIgBT6EEme97xaZUkwfI1TyeP2V6Wjz6EapBgwFjEUMBIGA1UEAwwLdGVhbTI4
My1uZXSCFCoPIr5cw2Kphte5WjqbqMwrOe42MBMGA1UdJQQMMAoGCCsGAQUFBwMC
MAsGA1UdDwQEAwIHgDANBgkqhkiG9w0BAQsFAAOCAQEAlpWJi6zpHqBKT5GjldT5
NlldW3ZQnEHUarz9VMA4cKuXy/qaEzMFNc5KjjlUOmoHG5Z9cbBhcJ6bHDoFdae1
c4kBsMcbtf+Z50XPZMXLs3VKG7VnlWWBchZ8ONQfGW96sl/snKRaO4Tt4Go/WZ7s
wFq0uu4VJ80mrZebW75OHxwuyOK8yIj3G7YqJTRbIG5la7yzWp1CMc1EqBl+Vli6
hanPlX8Kz4ZwsaO5UhAl++/jLQ5Yi0HqzaCDYxY08VpTZJo4AWTDeRcdAa0Vbsqd
QSf8TJW7WJYGXlW7tT5XAgmDNVQycU16J8quxllNrobr71cwCsKhm9yeCpmF++ZR
Ww==
-----END CERTIFICATE-----
