Certificate:
    Data:
        Version: 3 (0x2)
        Serial Number:
            f7:46:a4:f1:ec:4c:a2:2c:7c:fc:f7:f0:e7:71:80:96
        Signature Algorithm: sha256WithRSAEncryption
        Issuer: CN=team212-net
        Validity
            Not Before: Sep 13 00:32:23 2021 GMT
            Not After : Aug 28 00:32:23 2024 GMT
        Subject: CN=team212-client
        Subject Public Key Info:
            Public Key Algorithm: rsaEncryption
                RSA Public-Key: (2048 bit)
                Modulus:
                    00:9f:ff:71:a0:4a:48:10:19:65:33:77:e6:c9:e9:
                    29:df:4c:5c:ed:a9:fc:83:e8:a3:7f:68:ad:15:71:
                    ea:f7:e3:85:46:53:37:82:35:24:6a:9d:fc:ef:e9:
                    2d:38:c0:55:72:29:52:59:be:68:33:c4:ae:fd:ac:
                    f1:6e:0e:0a:f3:be:27:f0:1b:55:74:51:a5:8d:47:
                    65:36:63:d7:03:0f:d2:8c:d5:54:11:f7:43:e0:fa:
                    9a:51:92:61:e6:e9:91:a1:75:6c:91:0e:33:bd:c4:
                    c5:c1:a3:1a:d7:68:58:96:b9:0e:ac:50:88:84:de:
                    d2:f6:4d:18:20:2d:c9:df:cb:e7:27:bb:48:aa:52:
                    1f:09:33:6b:b0:1d:b8:30:24:f2:a9:6a:c5:5b:4d:
                    8f:2c:0e:ba:77:07:03:b2:f5:e7:89:84:2d:13:90:
                    2f:80:24:0c:bb:d4:0e:22:63:f1:2d:17:9d:63:9b:
                    d9:d9:6d:b4:ba:11:b4:f4:6c:5e:d2:b0:be:fd:7a:
                    16:0a:bb:9f:8a:2a:ae:b0:f9:e1:1a:16:89:c1:5a:
                    11:e7:50:4f:87:dd:57:59:c1:dd:f9:f4:c1:0b:4b:
                    b0:55:3b:47:20:bb:9e:b9:8a:49:8d:80:0c:ae:3a:
                    2d:97:24:5f:0a:a1:3a:74:b0:f1:b9:60:f8:1a:2d:
                    c1:a5
                Exponent: 65537 (0x10001)
        X509v3 extensions:
            X509v3 Basic Constraints: 
                CA:FALSE
            X509v3 Subject Key Identifier: 
                61:54:4D:6E:C7:20:D7:D0:F0:BE:8C:3D:10:7C:B8:91:1E:E7:43:54
            X509v3 Authority Key Identifier: 
                keyid:28:FA:15:20:0A:53:A9:DE:3B:8D:51:5A:E4:69:0B:5E:75:8E:77:3D
                DirName:/CN=team212-net
                serial:56:03:3F:9F:CD:6C:2C:BD:3A:20:FD:52:58:FD:2B:D0:4C:7C:DF:26

            X509v3 Extended Key Usage: 
                TLS Web Client Authentication
            X509v3 Key Usage: 
                Digital Signature
    Signature Algorithm: sha256WithRSAEncryption
         58:66:67:53:49:a0:00:f0:e5:2b:a3:c6:85:90:05:31:94:3d:
         a9:2c:da:d9:5b:95:71:91:f6:6e:90:38:f7:23:94:2d:16:1d:
         b3:08:a9:07:2c:7a:d1:c0:e6:62:ac:0b:03:15:46:48:50:48:
         ef:de:2f:52:76:64:fb:67:0a:1c:d4:58:e5:31:92:24:55:1c:
         97:51:8f:98:52:b6:42:ce:b2:ab:df:de:0f:3e:79:93:b0:e2:
         c4:f5:d7:f4:ee:1d:2c:50:37:bb:92:ad:95:3b:5a:a0:95:1a:
         a7:eb:00:92:3f:9f:75:07:8b:51:4f:84:71:e4:c4:50:8f:30:
         c9:cd:6f:63:c9:78:85:f6:af:f6:6b:66:97:a6:5d:58:55:b3:
         34:2d:9b:d5:46:aa:0d:38:a4:da:d5:d7:0a:f7:59:f4:d2:9b:
         10:48:95:51:dd:14:eb:79:f9:42:e8:3c:53:11:e9:7b:f7:61:
         f6:1d:12:4d:b9:9e:15:ca:d6:11:7a:db:ab:43:e5:52:4b:8b:
         34:78:a3:0f:b9:d2:4c:70:98:69:4d:0b:0d:32:61:41:4e:94:
         4e:a6:bf:48:78:e5:59:1f:81:96:52:4c:6d:e9:0a:82:7f:03:
         5c:65:fe:d0:ee:0c:c2:f8:3f:0a:d5:5f:f2:07:9e:a2:08:2e:
         93:3a:6c:3c
-----BEGIN CERTIFICATE-----
MIIDXTCCAkWgAwIBAgIRAPdGpPHsTKIsfPz38OdxgJYwDQYJKoZIhvcNAQELBQAw
FjEUMBIGA1UEAwwLdGVhbTIxMi1uZXQwHhcNMjEwOTEzMDAzMjIzWhcNMjQwODI4
MDAzMjIzWjAZMRcwFQYDVQQDDA50ZWFtMjEyLWNsaWVudDCCASIwDQYJKoZIhvcN
AQEBBQADggEPADCCAQoCggEBAJ//caBKSBAZZTN35snpKd9MXO2p/IPoo39orRVx
6vfjhUZTN4I1JGqd/O/pLTjAVXIpUlm+aDPErv2s8W4OCvO+J/AbVXRRpY1HZTZj
1wMP0ozVVBH3Q+D6mlGSYebpkaF1bJEOM73ExcGjGtdoWJa5DqxQiITe0vZNGCAt
yd/L5ye7SKpSHwkza7AduDAk8qlqxVtNjywOuncHA7L154mELROQL4AkDLvUDiJj
8S0XnWOb2dlttLoRtPRsXtKwvv16Fgq7n4oqrrD54RoWicFaEedQT4fdV1nB3fn0
wQtLsFU7RyC7nrmKSY2ADK46LZckXwqhOnSw8blg+BotwaUCAwEAAaOBojCBnzAJ
BgNVHRMEAjAAMB0GA1UdDgQWBBRhVE1uxyDX0PC+jD0QfLiRHudDVDBRBgNVHSME
SjBIgBQo+hUgClOp3juNUVrkaQtedY53PaEapBgwFjEUMBIGA1UEAwwLdGVhbTIx
Mi1uZXSCFFYDP5/NbCy9OiD9Ulj9K9BMfN8mMBMGA1UdJQQMMAoGCCsGAQUFBwMC
MAsGA1UdDwQEAwIHgDANBgkqhkiG9w0BAQsFAAOCAQEAWGZnU0mgAPDlK6PGhZAF
MZQ9qSza2VuVcZH2bpA49yOULRYdswipByx60cDmYqwLAxVGSFBI794vUnZk+2cK
HNRY5TGSJFUcl1GPmFK2Qs6yq9/eDz55k7DixPXX9O4dLFA3u5KtlTtaoJUap+sA
kj+fdQeLUU+EceTEUI8wyc1vY8l4hfav9mtml6ZdWFWzNC2b1UaqDTik2tXXCvdZ
9NKbEEiVUd0U63n5Qug8UxHpe/dh9h0STbmeFcrWEXrbq0PlUkuLNHijD7nSTHCY
aU0LDTJhQU6UTqa/SHjlWR+BllJMbekKgn8DXGX+0O4Mwvg/CtVf8geeoggukzps
PA==
-----END CERTIFICATE-----
