Certificate:
    Data:
        Version: 3 (0x2)
        Serial Number:
            72:02:c1:5d:57:b5:32:92:d3:75:0c:f7:44:30:d8:a8
        Signature Algorithm: sha256WithRSAEncryption
        Issuer: CN=team729-net
        Validity
            Not Before: Sep 13 05:38:46 2021 GMT
            Not After : Aug 28 05:38:46 2024 GMT
        Subject: CN=team729-client
        Subject Public Key Info:
            Public Key Algorithm: rsaEncryption
                RSA Public-Key: (2048 bit)
                Modulus:
                    00:ed:11:94:74:b2:cc:75:77:c7:b4:df:de:f0:fc:
                    4e:78:ea:d6:41:64:d8:32:d0:63:66:7a:df:2b:f9:
                    ec:b3:7c:dc:ad:95:92:24:19:20:15:fe:d7:f6:b7:
                    99:9e:cd:e9:3f:96:9d:68:4e:a6:a9:c1:fe:d0:cd:
                    2b:05:da:a2:2d:70:4a:3f:33:40:c2:be:b1:cd:02:
                    33:55:df:ea:70:bf:41:6b:26:20:df:40:0b:14:1b:
                    57:f8:bf:ec:d2:fd:c7:02:e9:ed:88:10:b7:3d:67:
                    dc:ae:bd:e5:f2:da:46:ae:29:58:d8:d6:ff:bf:f9:
                    a1:ab:53:6e:a8:be:91:43:48:c7:e0:69:58:76:98:
                    28:93:8c:a1:db:57:e6:e2:35:6f:fd:66:88:b2:6e:
                    de:b1:46:dc:0b:be:72:01:1d:87:c4:d8:99:9c:95:
                    89:8e:0f:78:98:ee:ac:65:cd:28:5a:f7:ca:64:ac:
                    4a:bb:1f:d3:56:2b:8f:dc:5f:8e:ca:af:83:b8:2a:
                    9e:11:3b:cf:36:a8:36:33:32:48:81:1a:76:ab:e6:
                    81:f5:4c:c5:d4:14:66:a2:82:54:5d:85:0a:14:93:
                    78:e3:51:97:3c:58:6c:cc:7f:2a:8f:46:69:12:d5:
                    a7:ec:39:e2:54:4d:b9:db:80:d3:00:54:f3:0a:dc:
                    46:07
                Exponent: 65537 (0x10001)
        X509v3 extensions:
            X509v3 Basic Constraints: 
                CA:FALSE
            X509v3 Subject Key Identifier: 
                1E:5E:20:C9:37:40:CA:64:7E:FD:28:FD:12:8E:85:17:B4:C2:3E:5A
            X509v3 Authority Key Identifier: 
                keyid:C9:38:F8:D6:24:82:B6:EF:D6:2C:58:BA:1F:47:88:67:3E:79:2C:0E
                DirName:/CN=team729-net
                serial:27:6B:1B:C8:69:6C:37:A6:ED:28:B6:89:E8:AD:77:08:E9:C4:87:45

            X509v3 Extended Key Usage: 
                TLS Web Client Authentication
            X509v3 Key Usage: 
                Digital Signature
    Signature Algorithm: sha256WithRSAEncryption
         7d:2b:56:7a:ca:69:f2:8d:ef:c8:da:ae:ee:a4:a4:e8:5f:0b:
         42:23:ff:a9:8c:80:7e:22:ed:df:c1:b7:8a:5f:ce:88:1e:2a:
         7c:e1:22:b6:1d:4a:2e:9e:f1:87:af:82:6a:53:70:d8:61:ff:
         06:43:5e:8b:9a:e9:7b:15:48:19:26:c2:37:3c:ff:ff:13:91:
         f7:65:26:2d:ea:02:9f:ab:03:13:61:cf:31:c5:74:c8:d6:b3:
         b1:6b:8b:52:83:61:9c:70:2c:fb:cd:3a:f3:52:08:95:f6:f7:
         ae:e4:9c:22:b9:48:b1:1c:2f:2c:42:1c:59:b1:0d:65:d2:9c:
         47:ec:18:3e:a9:ac:01:ac:1e:f0:1f:19:02:27:d3:fe:c9:a8:
         6a:60:4f:97:02:75:32:d9:94:5f:36:19:4c:51:3a:4f:fb:9c:
         44:7e:c4:fc:02:e8:c8:88:59:a3:bd:06:4f:a9:ae:42:ba:8f:
         af:b5:59:42:4d:c2:fb:c4:24:3c:38:09:0a:4a:20:13:96:ca:
         d0:be:1a:e1:42:ee:bc:52:da:22:c2:8f:98:d7:19:7e:ec:e0:
         5b:a9:90:d3:35:4a:99:10:bd:0f:cb:54:8d:d3:ff:e7:8b:59:
         05:c0:e8:0e:89:5d:5e:1c:27:9e:73:6a:54:2f:6a:32:2d:7c:
         de:6d:f1:b9
-----BEGIN CERTIFICATE-----
MIIDXDCCAkSgAwIBAgIQcgLBXVe1MpLTdQz3RDDYqDANBgkqhkiG9w0BAQsFADAW
MRQwEgYDVQQDDAt0ZWFtNzI5LW5ldDAeFw0yMTA5MTMwNTM4NDZaFw0yNDA4Mjgw
NTM4NDZaMBkxFzAVBgNVBAMMDnRlYW03MjktY2xpZW50MIIBIjANBgkqhkiG9w0B
AQEFAAOCAQ8AMIIBCgKCAQEA7RGUdLLMdXfHtN/e8PxOeOrWQWTYMtBjZnrfK/ns
s3zcrZWSJBkgFf7X9reZns3pP5adaE6mqcH+0M0rBdqiLXBKPzNAwr6xzQIzVd/q
cL9BayYg30ALFBtX+L/s0v3HAuntiBC3PWfcrr3l8tpGrilY2Nb/v/mhq1NuqL6R
Q0jH4GlYdpgok4yh21fm4jVv/WaIsm7esUbcC75yAR2HxNiZnJWJjg94mO6sZc0o
WvfKZKxKux/TViuP3F+Oyq+DuCqeETvPNqg2MzJIgRp2q+aB9UzF1BRmooJUXYUK
FJN441GXPFhszH8qj0ZpEtWn7DniVE2524DTAFTzCtxGBwIDAQABo4GiMIGfMAkG
A1UdEwQCMAAwHQYDVR0OBBYEFB5eIMk3QMpkfv0o/RKOhRe0wj5aMFEGA1UdIwRK
MEiAFMk4+NYkgrbv1ixYuh9HiGc+eSwOoRqkGDAWMRQwEgYDVQQDDAt0ZWFtNzI5
LW5ldIIUJ2sbyGlsN6btKLaJ6K13COnEh0UwEwYDVR0lBAwwCgYIKwYBBQUHAwIw
CwYDVR0PBAQDAgeAMA0GCSqGSIb3DQEBCwUAA4IBAQB9K1Z6ymnyje/I2q7upKTo
XwtCI/+pjIB+Iu3fwbeKX86IHip84SK2HUounvGHr4JqU3DYYf8GQ16Lmul7FUgZ
JsI3PP//E5H3ZSYt6gKfqwMTYc8xxXTI1rOxa4tSg2GccCz7zTrzUgiV9veu5Jwi
uUixHC8sQhxZsQ1l0pxH7Bg+qawBrB7wHxkCJ9P+yahqYE+XAnUy2ZRfNhlMUTpP
+5xEfsT8AujIiFmjvQZPqa5Cuo+vtVlCTcL7xCQ8OAkKSiATlsrQvhrhQu68Utoi
wo+Y1xl+7OBbqZDTNUqZEL0Py1SN0//ni1kFwOgOiV1eHCeec2pUL2oyLXzebfG5
-----END CERTIFICATE-----
