Certificate:
    Data:
        Version: 3 (0x2)
        Serial Number:
            b8:bb:c9:f3:39:72:ac:46:9c:f0:37:26:2c:ea:5d:6f
        Signature Algorithm: sha256WithRSAEncryption
        Issuer: CN=team764-net
        Validity
            Not Before: Sep 13 05:19:42 2021 GMT
            Not After : Aug 28 05:19:42 2024 GMT
        Subject: CN=team764-server
        Subject Public Key Info:
            Public Key Algorithm: rsaEncryption
                RSA Public-Key: (2048 bit)
                Modulus:
                    00:a7:d3:27:cb:8f:aa:9c:91:af:56:78:2f:1e:3d:
                    ee:f7:f0:75:37:68:71:fd:db:19:cd:38:de:10:c0:
                    89:02:d9:f8:44:40:07:0c:ee:d6:1e:7a:fe:36:e8:
                    9b:a4:c6:f3:11:8a:86:7e:18:17:1d:c3:a2:95:27:
                    67:6f:2e:ee:33:01:99:10:1f:f3:c4:b9:68:79:6b:
                    aa:3e:25:ad:23:15:9c:5b:de:44:64:94:1c:61:17:
                    57:6d:1f:da:68:99:6a:4a:d4:bf:69:5d:f9:5e:30:
                    a6:cc:d4:dd:ad:26:12:9e:d8:43:85:3b:4e:22:a7:
                    89:c7:a4:7c:2e:20:bc:45:22:d3:33:85:c6:3f:25:
                    be:ba:9d:42:b0:18:5b:75:37:a9:66:a9:01:60:20:
                    c5:c7:ce:8b:6b:5a:a1:59:89:be:ac:c8:b5:5a:ef:
                    dd:4d:ca:98:e7:80:2e:4f:30:bd:2b:19:6b:e2:e7:
                    4a:b2:c1:42:73:a0:83:74:bd:c5:01:ca:e8:e1:18:
                    58:42:fe:21:0f:98:1c:9e:b1:11:87:4f:2e:6a:56:
                    1e:08:fb:b3:c7:14:79:e3:49:4b:95:33:ed:8c:62:
                    4e:05:cd:5d:09:16:e1:69:57:ca:b3:5a:d7:3f:02:
                    99:00:95:95:81:40:05:0b:70:4b:b8:19:ca:33:a6:
                    d3:7b
                Exponent: 65537 (0x10001)
        X509v3 extensions:
            X509v3 Basic Constraints: 
                CA:FALSE
            X509v3 Subject Key Identifier: 
                74:AA:39:40:06:14:94:CA:26:93:8A:63:C2:67:D2:7A:91:86:07:E0
            X509v3 Authority Key Identifier: 
                keyid:77:70:77:E4:41:49:B1:96:24:82:90:07:D4:39:37:0D:ED:5B:A2:09
                DirName:/CN=team764-net
                serial:1B:DF:24:20:4B:EE:A6:63:55:64:5B:83:2C:8B:85:56:51:13:BF:F1

            X509v3 Extended Key Usage: 
                TLS Web Server Authentication
            X509v3 Key Usage: 
                Digital Signature, Key Encipherment
            X509v3 Subject Alternative Name: 
                DNS:team764-server
    Signature Algorithm: sha256WithRSAEncryption
         7c:67:f5:a9:ed:ee:ce:af:79:37:24:25:36:cd:d7:b4:0f:e6:
         1a:34:19:d3:4d:09:bb:8f:d5:b0:17:ef:03:55:f9:7c:34:5e:
         f5:f9:f3:b6:3b:84:84:a3:c9:fe:08:bd:e9:a1:ea:83:bd:fd:
         cc:ac:8b:bd:2c:f4:cc:db:59:e8:17:8b:28:c7:28:04:18:38:
         e0:29:2a:de:f8:4b:4c:5b:22:2e:e6:ec:8f:50:a7:f7:c3:20:
         3c:fc:0c:23:7e:ec:31:32:68:5a:1f:35:58:14:36:1b:84:02:
         9f:dc:43:ad:06:12:51:a7:5c:c8:5e:a5:21:15:07:4e:26:e2:
         1c:26:67:c4:d6:b2:45:eb:05:fc:7b:da:56:57:ef:86:5b:07:
         c2:94:14:8f:0a:1d:6d:cd:76:be:20:b7:6d:fe:88:fa:35:b8:
         4e:ff:c0:0e:dc:49:f1:2c:65:3e:93:1d:c3:24:ab:7c:dc:aa:
         a1:b0:24:84:27:e5:da:af:9f:cd:69:f1:73:9b:fa:db:47:81:
         ff:01:80:95:08:74:66:46:6f:cf:3b:fc:10:28:97:60:85:27:
         e0:93:f7:ef:78:de:cc:a1:5f:46:b8:01:a0:b3:da:f4:61:22:
         3f:61:18:ac:42:8e:32:df:9c:b4:c0:a5:14:1b:65:08:cf:14:
         7b:00:78:96
-----BEGIN CERTIFICATE-----
MIIDeDCCAmCgAwIBAgIRALi7yfM5cqxGnPA3JizqXW8wDQYJKoZIhvcNAQELBQAw
FjEUMBIGA1UEAwwLdGVhbTc2NC1uZXQwHhcNMjEwOTEzMDUxOTQyWhcNMjQwODI4
MDUxOTQyWjAZMRcwFQYDVQQDDA50ZWFtNzY0LXNlcnZlcjCCASIwDQYJKoZIhvcN
AQEBBQADggEPADCCAQoCggEBAKfTJ8uPqpyRr1Z4Lx497vfwdTdocf3bGc043hDA
iQLZ+ERABwzu1h56/jbom6TG8xGKhn4YFx3DopUnZ28u7jMBmRAf88S5aHlrqj4l
rSMVnFveRGSUHGEXV20f2miZakrUv2ld+V4wpszU3a0mEp7YQ4U7TiKnicekfC4g
vEUi0zOFxj8lvrqdQrAYW3U3qWapAWAgxcfOi2taoVmJvqzItVrv3U3KmOeALk8w
vSsZa+LnSrLBQnOgg3S9xQHK6OEYWEL+IQ+YHJ6xEYdPLmpWHgj7s8cUeeNJS5Uz
7YxiTgXNXQkW4WlXyrNa1z8CmQCVlYFABQtwS7gZyjOm03sCAwEAAaOBvTCBujAJ
BgNVHRMEAjAAMB0GA1UdDgQWBBR0qjlABhSUyiaTimPCZ9J6kYYH4DBRBgNVHSME
SjBIgBR3cHfkQUmxliSCkAfUOTcN7VuiCaEapBgwFjEUMBIGA1UEAwwLdGVhbTc2
NC1uZXSCFBvfJCBL7qZjVWRbgyyLhVZRE7/xMBMGA1UdJQQMMAoGCCsGAQUFBwMB
MAsGA1UdDwQEAwIFoDAZBgNVHREEEjAQgg50ZWFtNzY0LXNlcnZlcjANBgkqhkiG
9w0BAQsFAAOCAQEAfGf1qe3uzq95NyQlNs3XtA/mGjQZ000Ju4/VsBfvA1X5fDRe
9fnztjuEhKPJ/gi96aHqg739zKyLvSz0zNtZ6BeLKMcoBBg44Ckq3vhLTFsiLubs
j1Cn98MgPPwMI37sMTJoWh81WBQ2G4QCn9xDrQYSUadcyF6lIRUHTibiHCZnxNay
ResF/HvaVlfvhlsHwpQUjwodbc12viC3bf6I+jW4Tv/ADtxJ8SxlPpMdwySrfNyq
obAkhCfl2q+fzWnxc5v620eB/wGAlQh0ZkZvzzv8ECiXYIUn4JP373jezKFfRrgB
oLPa9GEiP2EYrEKOMt+ctMClFBtlCM8UewB4lg==
-----END CERTIFICATE-----
