Certificate:
    Data:
        Version: 3 (0x2)
        Serial Number:
            61:ae:6b:7f:49:b5:f7:d8:d1:4e:61:96:a3:12:f1:e7
        Signature Algorithm: sha256WithRSAEncryption
        Issuer: CN=team650-net
        Validity
            Not Before: Sep 13 04:49:39 2021 GMT
            Not After : Aug 28 04:49:39 2024 GMT
        Subject: CN=team650-client
        Subject Public Key Info:
            Public Key Algorithm: rsaEncryption
                RSA Public-Key: (2048 bit)
                Modulus:
                    00:d4:72:bd:0c:4f:da:20:f1:40:4a:b7:ea:51:4f:
                    a2:34:79:da:4f:bc:69:ea:6e:18:9a:ac:8f:c4:f3:
                    ed:88:7d:68:9b:88:69:0f:99:59:be:94:86:b2:d6:
                    b4:ed:e4:e6:ff:10:18:0b:51:6e:33:33:34:d4:7d:
                    8e:02:6d:38:3b:4b:4a:1a:9e:37:bd:49:43:03:a2:
                    48:2c:0e:5e:85:0d:23:bc:c8:28:86:55:d0:ff:9e:
                    42:eb:95:e1:95:42:2d:98:b4:7e:e0:52:82:81:f9:
                    ea:86:50:12:4b:e1:4a:84:0a:bd:55:fd:9f:54:a8:
                    e4:23:a0:37:38:19:0a:db:1f:ea:2e:1e:f1:58:bf:
                    b0:c3:49:5b:58:dd:3f:d9:21:93:e8:ab:70:0c:f5:
                    2a:4d:c3:b2:84:ee:60:af:eb:a4:b3:66:1f:5f:52:
                    d2:32:48:35:bb:dc:fe:54:5f:d5:11:a5:24:fe:5f:
                    49:fc:a3:c8:62:b6:e2:bd:76:58:60:46:da:78:13:
                    89:5e:34:e9:76:22:e2:72:4f:f8:b8:50:37:b5:21:
                    64:c9:3c:36:9e:2c:60:b6:b4:98:d8:7a:b6:37:d5:
                    76:6e:ee:f3:c6:dc:c4:1d:86:cf:6e:72:d6:1c:81:
                    51:70:67:fc:9e:dc:63:5a:51:9d:83:31:a1:6a:07:
                    35:cf
                Exponent: 65537 (0x10001)
        X509v3 extensions:
            X509v3 Basic Constraints: 
                CA:FALSE
            X509v3 Subject Key Identifier: 
                B8:F3:60:0C:98:14:24:78:31:39:9E:73:E4:78:46:3D:F1:EA:EF:BF
            X509v3 Authority Key Identifier: 
                keyid:30:24:1F:5C:84:42:B0:BC:79:28:72:DE:63:E7:56:C8:F2:2C:C2:05
                DirName:/CN=team650-net
                serial:15:9D:8A:16:3B:52:2B:10:8D:F1:F2:F5:18:E2:06:63:57:C7:C8:9E

            X509v3 Extended Key Usage: 
                TLS Web Client Authentication
            X509v3 Key Usage: 
                Digital Signature
    Signature Algorithm: sha256WithRSAEncryption
         89:b5:3f:73:76:d1:0e:53:d1:6a:61:1c:07:59:4c:78:d1:56:
         70:79:8b:ee:d6:ef:2c:eb:97:ee:18:57:f8:00:aa:53:b6:e6:
         d4:09:4a:08:47:a8:76:b3:17:2e:ee:63:79:15:21:7b:ce:46:
         d3:7b:35:51:4f:71:7c:f5:7b:c0:e9:ad:2d:cc:ec:5d:86:48:
         08:79:e4:b0:0f:d0:ed:94:32:96:a6:98:6f:76:bb:09:b4:72:
         e2:0d:94:67:c4:c0:01:e2:2a:8a:96:5c:be:0d:e2:9b:a4:35:
         7b:e9:3b:21:73:21:cb:d9:e9:f5:0b:04:d4:34:00:a4:48:bf:
         74:03:50:64:79:3b:73:ec:db:b3:68:75:7d:fc:d6:b3:12:50:
         c6:f2:e2:b2:cc:89:e5:de:61:7b:e3:3a:59:60:1f:f7:e4:c0:
         52:32:2a:54:d8:27:79:e6:98:dd:37:99:3b:60:49:bb:15:99:
         6b:f9:50:fd:5d:cb:08:d8:9b:8e:78:85:5f:cb:e0:2e:f1:b8:
         71:0f:42:d0:45:fe:bc:2e:5a:21:aa:24:9f:bd:60:f4:e6:ed:
         99:48:cb:61:0c:8e:07:11:f4:47:45:4d:73:62:62:7e:5d:f9:
         36:2e:c9:b0:39:f0:b0:e0:4a:9d:50:4e:3f:ec:f0:34:a5:1b:
         d2:ac:8a:2f
-----BEGIN CERTIFICATE-----
MIIDXDCCAkSgAwIBAgIQYa5rf0m199jRTmGWoxLx5zANBgkqhkiG9w0BAQsFADAW
MRQwEgYDVQQDDAt0ZWFtNjUwLW5ldDAeFw0yMTA5MTMwNDQ5MzlaFw0yNDA4Mjgw
NDQ5MzlaMBkxFzAVBgNVBAMMDnRlYW02NTAtY2xpZW50MIIBIjANBgkqhkiG9w0B
AQEFAAOCAQ8AMIIBCgKCAQEA1HK9DE/aIPFASrfqUU+iNHnaT7xp6m4YmqyPxPPt
iH1om4hpD5lZvpSGsta07eTm/xAYC1FuMzM01H2OAm04O0tKGp43vUlDA6JILA5e
hQ0jvMgohlXQ/55C65XhlUItmLR+4FKCgfnqhlASS+FKhAq9Vf2fVKjkI6A3OBkK
2x/qLh7xWL+ww0lbWN0/2SGT6KtwDPUqTcOyhO5gr+uks2YfX1LSMkg1u9z+VF/V
EaUk/l9J/KPIYrbivXZYYEbaeBOJXjTpdiLick/4uFA3tSFkyTw2nixgtrSY2Hq2
N9V2bu7zxtzEHYbPbnLWHIFRcGf8ntxjWlGdgzGhagc1zwIDAQABo4GiMIGfMAkG
A1UdEwQCMAAwHQYDVR0OBBYEFLjzYAyYFCR4MTmec+R4Rj3x6u+/MFEGA1UdIwRK
MEiAFDAkH1yEQrC8eShy3mPnVsjyLMIFoRqkGDAWMRQwEgYDVQQDDAt0ZWFtNjUw
LW5ldIIUFZ2KFjtSKxCN8fL1GOIGY1fHyJ4wEwYDVR0lBAwwCgYIKwYBBQUHAwIw
CwYDVR0PBAQDAgeAMA0GCSqGSIb3DQEBCwUAA4IBAQCJtT9zdtEOU9FqYRwHWUx4
0VZweYvu1u8s65fuGFf4AKpTtubUCUoIR6h2sxcu7mN5FSF7zkbTezVRT3F89XvA
6a0tzOxdhkgIeeSwD9DtlDKWpphvdrsJtHLiDZRnxMAB4iqKlly+DeKbpDV76Tsh
cyHL2en1CwTUNACkSL90A1BkeTtz7NuzaHV9/NazElDG8uKyzInl3mF74zpZYB/3
5MBSMipU2Cd55pjdN5k7YEm7FZlr+VD9XcsI2JuOeIVfy+Au8bhxD0LQRf68Lloh
qiSfvWD05u2ZSMthDI4HEfRHRU1zYmJ+Xfk2LsmwOfCw4EqdUE4/7PA0pRvSrIov
-----END CERTIFICATE-----
