Certificate:
    Data:
        Version: 3 (0x2)
        Serial Number:
            bd:fa:2c:7a:39:69:bb:88:86:61:23:12:01:8e:60:43
        Signature Algorithm: sha256WithRSAEncryption
        Issuer: CN=team368-net
        Validity
            Not Before: Sep 13 02:03:18 2021 GMT
            Not After : Aug 28 02:03:18 2024 GMT
        Subject: CN=team368-server
        Subject Public Key Info:
            Public Key Algorithm: rsaEncryption
                RSA Public-Key: (2048 bit)
                Modulus:
                    00:c1:32:0f:eb:ae:a6:15:2b:a1:9a:39:cb:3f:c8:
                    69:19:19:e0:68:0b:91:b5:fe:69:25:ca:ff:aa:40:
                    6f:49:9a:d0:76:c9:4b:61:70:d0:4e:6f:d9:5e:10:
                    63:bd:1e:04:95:8e:cd:83:ed:9a:a7:23:cb:81:df:
                    4f:7f:4e:5f:de:40:e7:ed:64:3a:8b:ab:9e:d4:c5:
                    e2:64:bd:c7:e4:a2:7c:9e:89:c1:51:7b:1d:2c:8a:
                    91:fe:a5:a1:2c:3f:e4:e1:54:8c:7d:8a:77:77:06:
                    03:33:ad:6f:ff:b2:0e:eb:5b:e8:41:8d:c8:e1:3c:
                    5b:c9:b1:bf:b4:81:8e:14:58:1f:b6:c7:5b:58:5e:
                    e5:23:80:ef:4b:59:a3:ca:9c:53:a7:59:38:8c:83:
                    02:fb:31:59:e2:94:35:a8:91:45:3a:e0:76:50:23:
                    80:ad:0d:b4:bb:5c:63:aa:9b:ad:cc:ae:dc:f5:cc:
                    63:26:3d:e5:da:f1:13:07:fc:ef:63:0b:a1:a0:20:
                    e2:8d:a1:64:8c:5c:a0:c8:4d:21:df:32:27:dc:50:
                    d9:ea:88:ff:c7:38:fd:f8:c0:35:ce:9e:68:6a:a4:
                    78:7d:7d:cc:2f:6e:a1:1b:62:f9:a7:80:40:b1:c9:
                    f0:ca:e2:66:4b:1d:8c:18:59:8a:9c:6d:af:3f:22:
                    e7:67
                Exponent: 65537 (0x10001)
        X509v3 extensions:
            X509v3 Basic Constraints: 
                CA:FALSE
            X509v3 Subject Key Identifier: 
                CE:19:5F:99:E4:71:3C:60:09:DA:43:FC:0A:2D:E9:50:D7:26:F3:4E
            X509v3 Authority Key Identifier: 
                keyid:23:58:BF:68:86:7A:EC:A9:18:9E:E9:58:3B:37:C7:00:30:85:0A:A9
                DirName:/CN=team368-net
                serial:43:8C:9A:4D:D5:05:3D:72:78:81:02:15:D9:62:76:17:90:FE:DB:DD

            X509v3 Extended Key Usage: 
                TLS Web Server Authentication
            X509v3 Key Usage: 
                Digital Signature, Key Encipherment
            X509v3 Subject Alternative Name: 
                DNS:team368-server
    Signature Algorithm: sha256WithRSAEncryption
         8c:ce:33:78:82:21:67:8d:9a:83:5e:37:da:7d:e9:ee:d0:d2:
         d8:97:64:bf:4e:ea:7c:65:ba:d7:37:0b:f2:e0:fa:db:40:a3:
         93:f4:bb:41:12:bc:df:53:84:32:a4:26:97:30:91:ba:55:08:
         be:59:1e:2d:24:3b:c2:20:fa:cc:b9:4c:30:1c:26:fe:14:61:
         3f:03:4d:91:68:bc:37:f3:19:8b:d2:0b:d9:b9:30:4b:36:aa:
         ff:aa:95:9a:38:91:e3:d3:e2:e3:01:18:92:12:7b:83:a0:96:
         a3:ee:10:54:75:2b:c7:46:49:60:16:78:99:16:c1:fc:bc:b3:
         75:9e:c9:e0:c6:9a:50:8b:b8:e7:86:3a:92:3c:15:58:7e:99:
         4f:b0:ba:08:ee:23:a9:fd:78:53:86:d2:9e:c2:ff:b5:fb:fd:
         a0:95:e2:8f:76:6d:7b:e5:b5:11:01:9a:df:55:21:13:83:c6:
         e6:92:ac:f3:14:d4:6c:8d:1f:ea:84:ba:c5:9d:4a:02:14:88:
         e7:e8:2d:ae:df:ac:58:e2:43:a8:a8:44:42:0b:71:d4:d8:5b:
         5a:aa:eb:e9:e7:67:d7:ec:ab:5c:df:9e:3b:24:49:ab:7f:f4:
         32:e9:a3:46:82:ef:b5:f6:57:bf:70:f8:73:18:e0:47:7d:a1:
         34:82:b8:a5
-----BEGIN CERTIFICATE-----
MIIDeDCCAmCgAwIBAgIRAL36LHo5abuIhmEjEgGOYEMwDQYJKoZIhvcNAQELBQAw
FjEUMBIGA1UEAwwLdGVhbTM2OC1uZXQwHhcNMjEwOTEzMDIwMzE4WhcNMjQwODI4
MDIwMzE4WjAZMRcwFQYDVQQDDA50ZWFtMzY4LXNlcnZlcjCCASIwDQYJKoZIhvcN
AQEBBQADggEPADCCAQoCggEBAMEyD+uuphUroZo5yz/IaRkZ4GgLkbX+aSXK/6pA
b0ma0HbJS2Fw0E5v2V4QY70eBJWOzYPtmqcjy4HfT39OX95A5+1kOourntTF4mS9
x+SifJ6JwVF7HSyKkf6loSw/5OFUjH2Kd3cGAzOtb/+yDutb6EGNyOE8W8mxv7SB
jhRYH7bHW1he5SOA70tZo8qcU6dZOIyDAvsxWeKUNaiRRTrgdlAjgK0NtLtcY6qb
rcyu3PXMYyY95drxEwf872MLoaAg4o2hZIxcoMhNId8yJ9xQ2eqI/8c4/fjANc6e
aGqkeH19zC9uoRti+aeAQLHJ8MriZksdjBhZipxtrz8i52cCAwEAAaOBvTCBujAJ
BgNVHRMEAjAAMB0GA1UdDgQWBBTOGV+Z5HE8YAnaQ/wKLelQ1ybzTjBRBgNVHSME
SjBIgBQjWL9ohnrsqRie6Vg7N8cAMIUKqaEapBgwFjEUMBIGA1UEAwwLdGVhbTM2
OC1uZXSCFEOMmk3VBT1yeIECFdlidheQ/tvdMBMGA1UdJQQMMAoGCCsGAQUFBwMB
MAsGA1UdDwQEAwIFoDAZBgNVHREEEjAQgg50ZWFtMzY4LXNlcnZlcjANBgkqhkiG
9w0BAQsFAAOCAQEAjM4zeIIhZ42ag1432n3p7tDS2Jdkv07qfGW61zcL8uD620Cj
k/S7QRK831OEMqQmlzCRulUIvlkeLSQ7wiD6zLlMMBwm/hRhPwNNkWi8N/MZi9IL
2bkwSzaq/6qVmjiR49Pi4wEYkhJ7g6CWo+4QVHUrx0ZJYBZ4mRbB/LyzdZ7J4Maa
UIu454Y6kjwVWH6ZT7C6CO4jqf14U4bSnsL/tfv9oJXij3Zte+W1EQGa31UhE4PG
5pKs8xTUbI0f6oS6xZ1KAhSI5+gtrt+sWOJDqKhEQgtx1NhbWqrr6edn1+yrXN+e
OyRJq3/0MumjRoLvtfZXv3D4cxjgR32hNIK4pQ==
-----END CERTIFICATE-----
