Certificate:
    Data:
        Version: 3 (0x2)
        Serial Number:
            2e:cb:51:21:01:3f:8e:18:c2:5a:42:09:ad:05:25:f9
        Signature Algorithm: sha256WithRSAEncryption
        Issuer: CN=team319-net
        Validity
            Not Before: Sep 13 01:37:36 2021 GMT
            Not After : Aug 28 01:37:36 2024 GMT
        Subject: CN=team319-client
        Subject Public Key Info:
            Public Key Algorithm: rsaEncryption
                RSA Public-Key: (2048 bit)
                Modulus:
                    00:a2:64:a5:59:80:7d:87:83:68:54:b7:52:6b:e6:
                    c5:7d:d7:e5:4e:8b:89:8e:45:49:d4:a8:44:50:30:
                    0f:65:38:66:d8:8b:ac:8d:62:78:1a:3d:23:7b:b5:
                    e0:e3:f9:2a:24:10:cf:1e:90:53:ba:c7:94:c1:2b:
                    e7:3c:02:4d:4d:76:b2:28:5b:52:4f:0c:f7:5f:aa:
                    c8:62:c5:91:69:d9:4a:78:a6:02:37:c3:06:e8:83:
                    b1:74:f8:fc:89:69:86:82:09:9a:1c:06:1e:34:c0:
                    58:ef:88:ff:d3:d8:48:d4:2d:d6:59:fb:18:5e:a6:
                    9e:a9:ec:59:72:c0:33:f4:30:55:bf:83:dc:f6:d7:
                    10:58:18:59:a9:40:0c:cb:e6:e7:8b:6d:64:9b:d7:
                    5c:e4:a5:c9:94:7f:9b:fb:cf:ac:b8:f9:21:5d:d4:
                    ff:6e:ae:f1:b0:3a:06:8c:bf:2c:e6:5a:35:54:11:
                    3b:d4:07:b4:c9:a6:05:e7:c8:94:bc:06:62:7d:16:
                    ca:4b:c2:0e:9f:e6:2a:4a:d7:1b:d2:21:46:ea:b1:
                    1d:43:bf:2a:4d:e1:0d:4b:c4:b4:45:5e:d2:0d:af:
                    b4:6f:6f:63:dd:5b:19:61:9c:73:d3:27:88:c1:b8:
                    5c:ce:e1:3d:6b:6a:99:da:83:21:78:21:a9:90:db:
                    2e:e9
                Exponent: 65537 (0x10001)
        X509v3 extensions:
            X509v3 Basic Constraints: 
                CA:FALSE
            X509v3 Subject Key Identifier: 
                96:9C:9E:FF:B3:C0:68:DE:B3:AD:C1:94:55:B8:CB:1C:55:F9:D5:8E
            X509v3 Authority Key Identifier: 
                keyid:C8:E3:46:EC:38:60:7C:DC:1F:BC:9C:67:1E:FC:A4:E6:08:63:34:A1
                DirName:/CN=team319-net
                serial:2B:CA:C5:ED:51:05:8E:BC:87:FE:63:20:26:63:4F:D1:C0:73:9B:17

            X509v3 Extended Key Usage: 
                TLS Web Client Authentication
            X509v3 Key Usage: 
                Digital Signature
    Signature Algorithm: sha256WithRSAEncryption
         30:a2:96:a5:c8:47:bd:5e:39:43:00:dd:9d:25:c0:bb:a7:ca:
         a7:da:3d:34:5a:50:a3:fd:9e:ce:3b:81:6f:0e:0b:8e:3d:65:
         ef:74:27:1f:cf:9d:3e:49:20:67:d8:7b:3d:8f:a6:66:da:fe:
         16:21:80:96:24:2e:fa:85:13:18:e0:a4:31:b4:1a:2a:c6:1f:
         00:8a:43:fb:0c:30:e1:5c:ff:db:4f:27:f6:61:5a:85:15:77:
         54:90:9a:23:74:01:8d:d6:f2:21:51:0b:d9:a4:45:60:e4:e5:
         49:a4:75:46:d9:d1:bf:a4:30:b7:42:a0:c1:9a:fb:02:17:4c:
         07:8b:04:d1:b7:6b:df:20:6f:5f:ad:f8:6f:02:5a:de:2f:56:
         4a:38:6b:b3:a1:0d:a2:ea:0d:2e:9c:19:6f:10:9a:0c:6d:53:
         44:51:89:b5:f2:ef:ea:23:ed:75:b5:f5:be:2d:d2:75:3c:7c:
         0a:76:38:43:89:50:0a:32:99:ae:79:6a:a0:0b:57:f0:0d:97:
         1d:4b:cd:25:3d:df:2b:08:cc:09:4a:a6:d3:b3:25:53:f1:c8:
         17:e5:08:11:7f:f0:f6:81:ad:25:ac:7d:79:e3:88:0d:c7:69:
         f8:9f:8a:39:8b:44:64:39:86:e8:85:52:c6:4a:c1:e8:48:7f:
         d7:37:7f:de
-----BEGIN CERTIFICATE-----
MIIDXDCCAkSgAwIBAgIQLstRIQE/jhjCWkIJrQUl+TANBgkqhkiG9w0BAQsFADAW
MRQwEgYDVQQDDAt0ZWFtMzE5LW5ldDAeFw0yMTA5MTMwMTM3MzZaFw0yNDA4Mjgw
MTM3MzZaMBkxFzAVBgNVBAMMDnRlYW0zMTktY2xpZW50MIIBIjANBgkqhkiG9w0B
AQEFAAOCAQ8AMIIBCgKCAQEAomSlWYB9h4NoVLdSa+bFfdflTouJjkVJ1KhEUDAP
ZThm2IusjWJ4Gj0je7Xg4/kqJBDPHpBTuseUwSvnPAJNTXayKFtSTwz3X6rIYsWR
adlKeKYCN8MG6IOxdPj8iWmGggmaHAYeNMBY74j/09hI1C3WWfsYXqaeqexZcsAz
9DBVv4Pc9tcQWBhZqUAMy+bni21km9dc5KXJlH+b+8+suPkhXdT/bq7xsDoGjL8s
5lo1VBE71Ae0yaYF58iUvAZifRbKS8IOn+YqStcb0iFG6rEdQ78qTeENS8S0RV7S
Da+0b29j3VsZYZxz0yeIwbhczuE9a2qZ2oMheCGpkNsu6QIDAQABo4GiMIGfMAkG
A1UdEwQCMAAwHQYDVR0OBBYEFJacnv+zwGjes63BlFW4yxxV+dWOMFEGA1UdIwRK
MEiAFMjjRuw4YHzcH7ycZx78pOYIYzShoRqkGDAWMRQwEgYDVQQDDAt0ZWFtMzE5
LW5ldIIUK8rF7VEFjryH/mMgJmNP0cBzmxcwEwYDVR0lBAwwCgYIKwYBBQUHAwIw
CwYDVR0PBAQDAgeAMA0GCSqGSIb3DQEBCwUAA4IBAQAwopalyEe9XjlDAN2dJcC7
p8qn2j00WlCj/Z7OO4FvDguOPWXvdCcfz50+SSBn2Hs9j6Zm2v4WIYCWJC76hRMY
4KQxtBoqxh8AikP7DDDhXP/bTyf2YVqFFXdUkJojdAGN1vIhUQvZpEVg5OVJpHVG
2dG/pDC3QqDBmvsCF0wHiwTRt2vfIG9frfhvAlreL1ZKOGuzoQ2i6g0unBlvEJoM
bVNEUYm18u/qI+11tfW+LdJ1PHwKdjhDiVAKMpmueWqgC1fwDZcdS80lPd8rCMwJ
SqbTsyVT8cgX5QgRf/D2ga0lrH1544gNx2n4n4o5i0RkOYbohVLGSsHoSH/XN3/e
-----END CERTIFICATE-----
