Certificate:
    Data:
        Version: 3 (0x2)
        Serial Number:
            ac:02:19:18:11:04:40:41:99:ab:f6:ad:3a:f6:df:24
        Signature Algorithm: sha256WithRSAEncryption
        Issuer: CN=team33-net
        Validity
            Not Before: Sep 12 23:01:45 2021 GMT
            Not After : Aug 27 23:01:45 2024 GMT
        Subject: CN=team33-client
        Subject Public Key Info:
            Public Key Algorithm: rsaEncryption
                RSA Public-Key: (2048 bit)
                Modulus:
                    00:fa:e6:4f:85:09:31:fe:2c:85:13:28:a3:a7:be:
                    1c:ce:13:88:78:d5:18:b2:25:88:66:f2:66:13:4e:
                    ac:65:48:cb:87:0a:ad:ea:fa:f7:07:a4:f4:36:dc:
                    c5:ed:a9:c2:34:28:3d:c8:b1:96:84:33:12:a5:1e:
                    c1:75:fe:02:27:50:8a:f4:21:4b:87:1a:fa:da:40:
                    9a:83:b6:3e:d3:a9:f8:67:81:f5:85:07:7d:ad:48:
                    51:55:a6:83:ec:65:cd:74:b6:37:a9:69:46:68:f2:
                    d9:a4:77:45:f9:29:3b:08:7d:6a:af:83:c9:10:5a:
                    7b:ea:64:dc:ed:07:c2:7c:6f:8e:bf:10:70:f0:1e:
                    b6:89:3e:8c:fb:88:62:97:0d:48:53:aa:53:f6:42:
                    b0:51:3d:ed:e7:5c:38:ac:1d:58:77:fd:04:c9:65:
                    24:86:45:f1:2b:6e:c3:1d:8d:66:cd:2f:2c:fc:eb:
                    91:fd:86:25:a3:10:cd:97:de:3a:e0:79:3a:9b:e7:
                    00:63:bc:bf:04:4c:aa:88:e0:72:fc:67:58:ed:64:
                    cb:3c:c3:52:c1:df:c4:4c:07:07:49:83:bd:3d:8c:
                    78:a5:19:52:42:84:17:74:54:65:d9:e3:d6:a6:15:
                    c1:89:d1:46:a9:26:c8:ce:23:19:c9:9d:cf:4e:e4:
                    9f:d5
                Exponent: 65537 (0x10001)
        X509v3 extensions:
            X509v3 Basic Constraints: 
                CA:FALSE
            X509v3 Subject Key Identifier: 
                D1:CE:CE:C3:A3:F5:8B:FD:00:C4:FF:EF:9F:26:E5:7B:F7:61:1A:B8
            X509v3 Authority Key Identifier: 
                keyid:F2:A2:2F:56:96:01:FD:58:E8:36:26:9B:CA:32:54:D3:E5:BF:83:70
                DirName:/CN=team33-net
                serial:45:3A:74:B3:CF:CD:6D:27:65:D9:07:59:AF:76:8C:6C:1D:E1:65:9E

            X509v3 Extended Key Usage: 
                TLS Web Client Authentication
            X509v3 Key Usage: 
                Digital Signature
    Signature Algorithm: sha256WithRSAEncryption
         1b:99:c8:c7:ac:64:86:3f:32:83:6f:2e:d7:10:9e:b3:4a:c8:
         50:e7:ce:a4:cd:13:18:9f:7b:1b:80:13:0a:28:a3:1e:f5:8b:
         35:ca:d2:4a:25:ef:3f:36:d5:e9:07:a1:75:39:4a:ac:12:d9:
         6b:e3:10:fd:31:6f:a3:f6:13:b3:0d:2e:99:5e:09:47:c7:08:
         1d:37:98:fe:0b:64:7d:2b:b8:81:fd:cf:f4:a4:1d:63:8e:b6:
         a5:c6:86:e1:d4:3e:9a:0e:2c:56:21:95:2d:52:98:88:4b:fe:
         d5:1e:37:77:4a:a2:d1:81:61:da:5e:d6:e6:a8:62:c4:97:67:
         bf:51:23:4e:3c:53:95:53:9e:05:87:de:aa:ec:14:93:e3:bb:
         af:f7:97:b0:9b:4f:01:f8:3d:03:84:97:63:64:09:3e:1c:96:
         32:4d:1b:3a:6b:c9:5f:bb:bf:4d:f5:4b:ca:2b:f9:58:4f:3d:
         8a:e5:80:5f:a4:b3:cc:48:29:b9:f1:ab:4e:33:61:07:32:80:
         39:96:48:f0:81:11:e6:47:6b:1e:c0:1b:4d:a3:02:34:e5:f1:
         dd:b1:27:9c:a4:4a:a7:1e:e4:98:bc:18:fb:6f:e0:65:65:80:
         55:f8:2d:8b:8d:f4:f6:3c:e4:0f:14:11:75:27:cd:5b:5d:5f:
         b0:23:7f:4e
-----BEGIN CERTIFICATE-----
MIIDWjCCAkKgAwIBAgIRAKwCGRgRBEBBmav2rTr23yQwDQYJKoZIhvcNAQELBQAw
FTETMBEGA1UEAwwKdGVhbTMzLW5ldDAeFw0yMTA5MTIyMzAxNDVaFw0yNDA4Mjcy
MzAxNDVaMBgxFjAUBgNVBAMMDXRlYW0zMy1jbGllbnQwggEiMA0GCSqGSIb3DQEB
AQUAA4IBDwAwggEKAoIBAQD65k+FCTH+LIUTKKOnvhzOE4h41RiyJYhm8mYTTqxl
SMuHCq3q+vcHpPQ23MXtqcI0KD3IsZaEMxKlHsF1/gInUIr0IUuHGvraQJqDtj7T
qfhngfWFB32tSFFVpoPsZc10tjepaUZo8tmkd0X5KTsIfWqvg8kQWnvqZNztB8J8
b46/EHDwHraJPoz7iGKXDUhTqlP2QrBRPe3nXDisHVh3/QTJZSSGRfErbsMdjWbN
Lyz865H9hiWjEM2X3jrgeTqb5wBjvL8ETKqI4HL8Z1jtZMs8w1LB38RMBwdJg709
jHilGVJChBd0VGXZ49amFcGJ0UapJsjOIxnJnc9O5J/VAgMBAAGjgaEwgZ4wCQYD
VR0TBAIwADAdBgNVHQ4EFgQU0c7Ow6P1i/0AxP/vnyble/dhGrgwUAYDVR0jBEkw
R4AU8qIvVpYB/VjoNiabyjJU0+W/g3ChGaQXMBUxEzARBgNVBAMMCnRlYW0zMy1u
ZXSCFEU6dLPPzW0nZdkHWa92jGwd4WWeMBMGA1UdJQQMMAoGCCsGAQUFBwMCMAsG
A1UdDwQEAwIHgDANBgkqhkiG9w0BAQsFAAOCAQEAG5nIx6xkhj8yg28u1xCes0rI
UOfOpM0TGJ97G4ATCiijHvWLNcrSSiXvPzbV6QehdTlKrBLZa+MQ/TFvo/YTsw0u
mV4JR8cIHTeY/gtkfSu4gf3P9KQdY462pcaG4dQ+mg4sViGVLVKYiEv+1R43d0qi
0YFh2l7W5qhixJdnv1EjTjxTlVOeBYfequwUk+O7r/eXsJtPAfg9A4SXY2QJPhyW
Mk0bOmvJX7u/TfVLyiv5WE89iuWAX6SzzEgpufGrTjNhBzKAOZZI8IER5kdrHsAb
TaMCNOXx3bEnnKRKpx7kmLwY+2/gZWWAVfgti4309jzkDxQRdSfNW11fsCN/Tg==
-----END CERTIFICATE-----
