Certificate:
    Data:
        Version: 3 (0x2)
        Serial Number:
            47:93:06:b4:dc:4d:58:2b:bd:09:2a:7f:f2:ba:fe:d4
        Signature Algorithm: sha256WithRSAEncryption
        Issuer: CN=team372-net
        Validity
            Not Before: Sep 13 02:09:00 2021 GMT
            Not After : Aug 28 02:09:00 2024 GMT
        Subject: CN=team372-server
        Subject Public Key Info:
            Public Key Algorithm: rsaEncryption
                RSA Public-Key: (2048 bit)
                Modulus:
                    00:a4:f1:f9:1f:80:48:ea:3a:33:53:29:ba:94:ae:
                    df:47:bc:47:6e:76:b8:ee:7b:6b:8c:d5:a7:80:54:
                    a2:a1:8f:2a:3e:75:ab:97:20:28:8c:5f:6a:4e:0b:
                    3d:4f:29:02:60:3e:fe:be:52:62:c9:6e:14:44:f1:
                    f0:13:1a:76:ae:81:5d:97:dc:3f:5a:fe:43:64:23:
                    f1:66:99:f4:42:69:6e:95:0c:02:ee:11:f6:59:6b:
                    a8:a3:ae:ac:17:1f:fc:c2:7c:bc:37:b3:ad:a0:65:
                    35:dd:20:d1:98:63:61:9c:6a:05:f4:8c:9d:b5:26:
                    c6:1b:b9:4f:a1:3f:93:02:22:5f:92:60:d6:23:42:
                    1f:88:0e:de:c4:d9:26:3d:f4:5c:7c:ef:db:45:a1:
                    6d:b6:29:e3:8e:20:9c:25:71:eb:81:74:da:66:38:
                    83:27:b4:5f:89:b4:1c:fa:cd:eb:8b:f9:a4:52:74:
                    c2:47:84:51:16:2d:24:b4:ad:ef:18:ca:21:1e:4f:
                    6c:dc:6b:38:41:a5:8b:7b:bc:c6:de:9f:c5:a3:19:
                    27:81:33:d3:3f:23:59:a0:f0:3b:2b:30:72:fb:92:
                    43:16:f0:29:97:b0:72:2a:f3:53:91:3e:9d:53:81:
                    4f:e6:b7:9e:bd:a3:1f:73:41:e1:89:18:5a:7a:64:
                    8d:9f
                Exponent: 65537 (0x10001)
        X509v3 extensions:
            X509v3 Basic Constraints: 
                CA:FALSE
            X509v3 Subject Key Identifier: 
                C6:7A:AA:F8:3E:E3:53:2D:49:61:57:C7:3E:5B:5B:F5:1A:24:71:19
            X509v3 Authority Key Identifier: 
                keyid:0E:9A:D6:02:D9:62:C8:EC:32:92:04:6F:9C:4F:00:1C:2C:B5:87:D1
                DirName:/CN=team372-net
                serial:64:B8:60:A4:EC:50:C6:07:A5:30:52:4E:89:BA:CE:D5:59:B6:64:1E

            X509v3 Extended Key Usage: 
                TLS Web Server Authentication
            X509v3 Key Usage: 
                Digital Signature, Key Encipherment
            X509v3 Subject Alternative Name: 
                DNS:team372-server
    Signature Algorithm: sha256WithRSAEncryption
         55:14:56:ea:d2:f7:13:6b:10:dc:d9:02:60:5d:43:38:7b:8b:
         5f:63:9a:64:27:48:c9:af:5e:bf:68:b7:88:9b:7b:46:88:6b:
         74:22:11:5a:00:93:c2:60:82:51:0a:79:c8:bf:2c:39:34:1a:
         e7:80:5e:b9:f4:9b:4b:84:67:b2:31:eb:4a:df:2e:48:00:7d:
         72:12:60:a2:c1:48:be:ee:b8:fd:aa:06:7d:b2:d5:28:83:f3:
         3b:59:b8:42:bc:d2:92:92:14:fa:b3:92:1a:15:81:f0:01:62:
         6b:64:13:81:c3:ac:9f:ec:aa:75:39:3c:71:bc:20:35:af:80:
         3f:69:35:77:11:e4:e5:73:6c:5c:83:5b:e2:46:85:3b:59:76:
         00:3d:15:2f:d0:7d:83:f8:8d:46:e8:87:45:2a:4f:17:a5:db:
         a1:b7:ab:c3:f7:6f:b3:52:c1:af:8d:9b:61:35:5c:d9:16:e3:
         05:fd:0a:af:a3:f4:66:ca:51:2f:a7:99:10:82:b5:c9:ae:7a:
         08:8c:81:6f:44:c2:c9:3c:31:39:87:f5:72:1a:33:8c:04:6f:
         53:16:d9:10:c9:46:19:49:0f:7e:69:a0:ac:27:e2:25:88:b1:
         9c:37:08:1f:30:e3:13:ec:0b:f0:dd:a4:38:ab:dd:5d:fc:f2:
         2a:e8:02:e8
-----BEGIN CERTIFICATE-----
MIIDdzCCAl+gAwIBAgIQR5MGtNxNWCu9CSp/8rr+1DANBgkqhkiG9w0BAQsFADAW
MRQwEgYDVQQDDAt0ZWFtMzcyLW5ldDAeFw0yMTA5MTMwMjA5MDBaFw0yNDA4Mjgw
MjA5MDBaMBkxFzAVBgNVBAMMDnRlYW0zNzItc2VydmVyMIIBIjANBgkqhkiG9w0B
AQEFAAOCAQ8AMIIBCgKCAQEApPH5H4BI6jozUym6lK7fR7xHbna47ntrjNWngFSi
oY8qPnWrlyAojF9qTgs9TykCYD7+vlJiyW4URPHwExp2roFdl9w/Wv5DZCPxZpn0
QmlulQwC7hH2WWuoo66sFx/8wny8N7OtoGU13SDRmGNhnGoF9IydtSbGG7lPoT+T
AiJfkmDWI0IfiA7exNkmPfRcfO/bRaFttinjjiCcJXHrgXTaZjiDJ7RfibQc+s3r
i/mkUnTCR4RRFi0ktK3vGMohHk9s3Gs4QaWLe7zG3p/FoxkngTPTPyNZoPA7KzBy
+5JDFvApl7ByKvNTkT6dU4FP5reevaMfc0HhiRhaemSNnwIDAQABo4G9MIG6MAkG
A1UdEwQCMAAwHQYDVR0OBBYEFMZ6qvg+41MtSWFXxz5bW/UaJHEZMFEGA1UdIwRK
MEiAFA6a1gLZYsjsMpIEb5xPABwstYfRoRqkGDAWMRQwEgYDVQQDDAt0ZWFtMzcy
LW5ldIIUZLhgpOxQxgelMFJOibrO1Vm2ZB4wEwYDVR0lBAwwCgYIKwYBBQUHAwEw
CwYDVR0PBAQDAgWgMBkGA1UdEQQSMBCCDnRlYW0zNzItc2VydmVyMA0GCSqGSIb3
DQEBCwUAA4IBAQBVFFbq0vcTaxDc2QJgXUM4e4tfY5pkJ0jJr16/aLeIm3tGiGt0
IhFaAJPCYIJRCnnIvyw5NBrngF659JtLhGeyMetK3y5IAH1yEmCiwUi+7rj9qgZ9
stUog/M7WbhCvNKSkhT6s5IaFYHwAWJrZBOBw6yf7Kp1OTxxvCA1r4A/aTV3EeTl
c2xcg1viRoU7WXYAPRUv0H2D+I1G6IdFKk8Xpduht6vD92+zUsGvjZthNVzZFuMF
/Qqvo/RmylEvp5kQgrXJrnoIjIFvRMLJPDE5h/VyGjOMBG9TFtkQyUYZSQ9+aaCs
J+IliLGcNwgfMOMT7Avw3aQ4q91d/PIq6ALo
-----END CERTIFICATE-----
