Certificate:
    Data:
        Version: 3 (0x2)
        Serial Number:
            34:03:f6:e1:76:8e:a9:c4:df:3e:30:83:b5:79:38:57
        Signature Algorithm: sha256WithRSAEncryption
        Issuer: CN=team170-net
        Validity
            Not Before: Sep 13 00:14:11 2021 GMT
            Not After : Aug 28 00:14:11 2024 GMT
        Subject: CN=team170-server
        Subject Public Key Info:
            Public Key Algorithm: rsaEncryption
                RSA Public-Key: (2048 bit)
                Modulus:
                    00:bc:c5:44:7a:9b:c1:eb:66:ec:db:f5:95:6e:17:
                    de:89:9c:e8:d1:8c:41:6e:a1:1c:6f:ee:30:8c:ae:
                    26:52:e2:40:58:62:b3:97:4b:9d:6c:60:6f:f8:e2:
                    a8:51:49:62:dc:1a:b8:f5:40:10:75:6d:e5:9c:2f:
                    4f:da:10:3b:0a:b9:0e:73:e0:24:00:51:12:b6:f1:
                    06:c0:23:4c:67:a1:4c:ae:e2:4a:0e:ca:b7:b1:f3:
                    10:8c:88:bd:36:df:b9:59:1c:98:08:2e:b2:f7:2d:
                    66:10:5d:6d:d7:9c:fe:49:28:da:5c:ff:00:eb:c0:
                    07:c2:dd:e2:74:9c:14:d2:d1:ae:cf:59:c6:a9:fc:
                    66:cd:0d:15:12:7f:ad:08:69:dc:e6:2b:bd:0d:77:
                    02:c3:b2:03:55:a1:d2:81:0f:ce:b8:7f:98:fe:9a:
                    48:9d:bd:5f:bb:60:6c:9c:73:c4:47:0d:e4:4e:34:
                    9f:90:be:17:b2:eb:c3:65:3a:56:d0:f8:fe:c0:6d:
                    13:65:85:ba:60:5d:91:3f:e1:3f:8e:e4:a2:ba:5c:
                    23:ee:d6:29:69:4c:3c:ba:b3:c9:50:95:f6:44:36:
                    75:6d:62:e7:e1:34:b5:04:99:f7:2d:09:2c:3f:df:
                    01:7b:61:4e:75:c2:91:6c:c0:5b:8c:6e:fd:2f:7b:
                    e2:c1
                Exponent: 65537 (0x10001)
        X509v3 extensions:
            X509v3 Basic Constraints: 
                CA:FALSE
            X509v3 Subject Key Identifier: 
                03:7E:16:18:82:0F:0C:0E:4A:18:70:29:37:85:90:7E:C0:BF:90:AF
            X509v3 Authority Key Identifier: 
                keyid:8E:49:ED:D9:17:2D:32:EA:B1:C8:D2:81:43:BF:CA:1D:94:06:09:56
                DirName:/CN=team170-net
                serial:66:D9:33:FE:FC:7E:85:AA:F5:71:DF:D1:50:36:E3:99:B5:88:C7:8A

            X509v3 Extended Key Usage: 
                TLS Web Server Authentication
            X509v3 Key Usage: 
                Digital Signature, Key Encipherment
            X509v3 Subject Alternative Name: 
                DNS:team170-server
    Signature Algorithm: sha256WithRSAEncryption
         b2:ac:8a:01:2f:cd:75:bb:d9:77:e5:97:ad:9b:74:9f:5e:09:
         a3:5e:f9:15:4e:f8:c2:0c:e0:9c:ca:39:09:b5:59:87:9e:81:
         df:73:c2:8c:dc:0e:1e:52:20:a1:fc:e8:15:5d:26:5b:dc:48:
         a3:65:56:97:6a:1c:81:d9:8b:65:7d:13:27:78:c9:0c:8c:40:
         1b:47:eb:3b:5a:04:f9:dc:95:c1:45:1b:f5:94:c0:ab:5d:3e:
         b6:a6:53:c8:53:e7:ff:3a:74:17:96:75:a4:94:a6:08:17:d5:
         d4:80:0c:cd:40:1a:80:b5:a9:97:f5:f7:33:84:0b:21:2f:1f:
         cf:25:05:d8:5d:81:8a:b1:a5:e3:25:a9:70:1e:83:ea:99:44:
         33:49:05:12:25:93:69:d9:0b:ca:7d:78:0f:57:89:5b:b3:47:
         77:90:25:97:82:28:dd:b7:f4:9c:8b:76:22:ee:63:77:0b:6d:
         d8:c8:92:22:e7:83:fb:1f:a1:bd:b5:47:00:fa:7f:ff:af:b9:
         a8:be:b7:65:72:85:6a:b3:3e:10:c2:fc:61:6b:6d:cc:05:60:
         c9:cc:91:af:28:12:6d:43:ba:38:47:b1:73:90:5a:d9:b7:65:
         0d:15:63:60:15:55:a3:0a:4b:a5:5f:1c:53:f2:72:d7:8f:5c:
         7e:a1:db:3b
-----BEGIN CERTIFICATE-----
MIIDdzCCAl+gAwIBAgIQNAP24XaOqcTfPjCDtXk4VzANBgkqhkiG9w0BAQsFADAW
MRQwEgYDVQQDDAt0ZWFtMTcwLW5ldDAeFw0yMTA5MTMwMDE0MTFaFw0yNDA4Mjgw
MDE0MTFaMBkxFzAVBgNVBAMMDnRlYW0xNzAtc2VydmVyMIIBIjANBgkqhkiG9w0B
AQEFAAOCAQ8AMIIBCgKCAQEAvMVEepvB62bs2/WVbhfeiZzo0YxBbqEcb+4wjK4m
UuJAWGKzl0udbGBv+OKoUUli3Bq49UAQdW3lnC9P2hA7CrkOc+AkAFEStvEGwCNM
Z6FMruJKDsq3sfMQjIi9Nt+5WRyYCC6y9y1mEF1t15z+SSjaXP8A68AHwt3idJwU
0tGuz1nGqfxmzQ0VEn+tCGnc5iu9DXcCw7IDVaHSgQ/OuH+Y/ppInb1fu2BsnHPE
Rw3kTjSfkL4XsuvDZTpW0Pj+wG0TZYW6YF2RP+E/juSiulwj7tYpaUw8urPJUJX2
RDZ1bWLn4TS1BJn3LQksP98Be2FOdcKRbMBbjG79L3viwQIDAQABo4G9MIG6MAkG
A1UdEwQCMAAwHQYDVR0OBBYEFAN+FhiCDwwOShhwKTeFkH7Av5CvMFEGA1UdIwRK
MEiAFI5J7dkXLTLqscjSgUO/yh2UBglWoRqkGDAWMRQwEgYDVQQDDAt0ZWFtMTcw
LW5ldIIUZtkz/vx+har1cd/RUDbjmbWIx4owEwYDVR0lBAwwCgYIKwYBBQUHAwEw
CwYDVR0PBAQDAgWgMBkGA1UdEQQSMBCCDnRlYW0xNzAtc2VydmVyMA0GCSqGSIb3
DQEBCwUAA4IBAQCyrIoBL811u9l35Zetm3SfXgmjXvkVTvjCDOCcyjkJtVmHnoHf
c8KM3A4eUiCh/OgVXSZb3EijZVaXahyB2YtlfRMneMkMjEAbR+s7WgT53JXBRRv1
lMCrXT62plPIU+f/OnQXlnWklKYIF9XUgAzNQBqAtamX9fczhAshLx/PJQXYXYGK
saXjJalwHoPqmUQzSQUSJZNp2QvKfXgPV4lbs0d3kCWXgijdt/Sci3Yi7mN3C23Y
yJIi54P7H6G9tUcA+n//r7movrdlcoVqsz4Qwvxha23MBWDJzJGvKBJtQ7o4R7Fz
kFrZt2UNFWNgFVWjCkulXxxT8nLXj1x+ods7
-----END CERTIFICATE-----
