Certificate:
    Data:
        Version: 3 (0x2)
        Serial Number:
            de:f6:24:f6:57:fa:97:0d:9f:3e:1e:c5:c2:42:6e:99
        Signature Algorithm: sha256WithRSAEncryption
        Issuer: CN=team170-net
        Validity
            Not Before: Sep 13 00:14:11 2021 GMT
            Not After : Aug 28 00:14:11 2024 GMT
        Subject: CN=team170-client
        Subject Public Key Info:
            Public Key Algorithm: rsaEncryption
                RSA Public-Key: (2048 bit)
                Modulus:
                    00:b4:3f:4f:57:9c:92:c7:80:2e:97:72:71:2c:0e:
                    7f:4c:b1:81:c9:2a:fa:f3:a8:4f:e6:f1:5d:69:11:
                    73:5b:c3:71:2a:ad:4b:cc:8a:5d:10:ec:96:1b:fb:
                    5f:0d:4d:20:24:78:e1:a5:0f:f0:e8:27:e5:e6:8a:
                    14:e4:da:63:39:6d:87:97:eb:63:42:ff:00:a9:23:
                    39:1c:d5:aa:6b:c7:40:b0:4f:3b:cb:ab:86:fa:b1:
                    57:62:da:6e:86:a3:5b:20:32:c9:a7:d7:ba:6d:88:
                    12:7b:e5:d2:72:32:29:51:f5:a7:21:f3:1b:31:a1:
                    d2:ed:0d:85:41:41:c8:24:71:07:78:3f:90:88:96:
                    64:b1:78:19:73:eb:5c:58:54:5d:2b:04:4e:07:ef:
                    5c:a2:ff:f3:33:9e:cd:ba:29:f4:e6:b0:33:6a:71:
                    be:a0:4c:ac:69:48:93:06:dd:1d:73:42:4f:85:6d:
                    34:9d:b0:33:6c:96:31:c9:36:f3:36:3b:75:69:82:
                    18:83:0e:22:9c:67:23:ab:3a:80:67:e4:d6:92:c8:
                    d1:9d:36:2d:07:3c:cb:62:bf:7a:20:44:cf:17:f8:
                    1e:cb:4f:00:5d:22:66:34:6c:9d:b0:fa:d9:95:26:
                    ea:72:68:d0:24:72:64:23:eb:0d:c6:44:d0:13:a5:
                    e2:0f
                Exponent: 65537 (0x10001)
        X509v3 extensions:
            X509v3 Basic Constraints: 
                CA:FALSE
            X509v3 Subject Key Identifier: 
                BC:09:7F:C1:D9:A2:8F:D6:F0:41:22:C6:FE:91:AC:AB:72:8F:96:58
            X509v3 Authority Key Identifier: 
                keyid:8E:49:ED:D9:17:2D:32:EA:B1:C8:D2:81:43:BF:CA:1D:94:06:09:56
                DirName:/CN=team170-net
                serial:66:D9:33:FE:FC:7E:85:AA:F5:71:DF:D1:50:36:E3:99:B5:88:C7:8A

            X509v3 Extended Key Usage: 
                TLS Web Client Authentication
            X509v3 Key Usage: 
                Digital Signature
    Signature Algorithm: sha256WithRSAEncryption
         1b:61:26:bf:33:63:e0:34:69:c3:8a:6a:95:a2:27:23:07:11:
         6f:87:b5:56:18:d1:42:1c:ae:00:43:b2:6d:07:b1:07:dd:bf:
         15:c8:ab:19:99:56:26:64:d2:01:3e:ab:1d:14:20:fc:a4:37:
         0c:00:38:c2:d1:9f:54:34:a1:19:b4:84:2c:20:0b:be:c9:db:
         7a:3c:34:d3:42:70:71:87:bc:1c:ee:5b:35:c3:80:69:8a:1c:
         f6:24:11:99:8e:91:d7:43:b1:fc:10:70:09:f7:3a:03:4c:be:
         7d:8a:db:b5:ba:e9:59:23:76:72:be:5b:57:a0:c9:83:c2:bf:
         31:65:cc:fd:c1:9c:3c:7b:20:3b:8f:bc:b5:e8:1b:3f:04:ab:
         9f:c0:92:56:44:56:33:c3:f0:81:5d:e9:4a:76:c9:84:af:46:
         90:ef:8c:9b:a2:5e:23:a0:a0:ea:e7:11:e7:94:e0:79:ab:f4:
         a5:25:4e:c8:fc:ad:67:d6:56:e9:d4:77:1c:0c:47:b2:20:51:
         65:a6:c6:a3:16:49:85:47:71:68:70:b1:a3:5b:ba:24:ea:17:
         1a:1b:83:ba:43:7b:d4:b0:cd:b7:07:0d:7d:21:cf:d9:57:8d:
         ed:b6:06:80:e9:50:c7:94:84:e9:7b:cd:f4:88:8e:24:31:9f:
         74:27:67:b1
-----BEGIN CERTIFICATE-----
MIIDXTCCAkWgAwIBAgIRAN72JPZX+pcNnz4excJCbpkwDQYJKoZIhvcNAQELBQAw
FjEUMBIGA1UEAwwLdGVhbTE3MC1uZXQwHhcNMjEwOTEzMDAxNDExWhcNMjQwODI4
MDAxNDExWjAZMRcwFQYDVQQDDA50ZWFtMTcwLWNsaWVudDCCASIwDQYJKoZIhvcN
AQEBBQADggEPADCCAQoCggEBALQ/T1eckseALpdycSwOf0yxgckq+vOoT+bxXWkR
c1vDcSqtS8yKXRDslhv7Xw1NICR44aUP8Ogn5eaKFOTaYzlth5frY0L/AKkjORzV
qmvHQLBPO8urhvqxV2LaboajWyAyyafXum2IEnvl0nIyKVH1pyHzGzGh0u0NhUFB
yCRxB3g/kIiWZLF4GXPrXFhUXSsETgfvXKL/8zOezbop9OawM2pxvqBMrGlIkwbd
HXNCT4VtNJ2wM2yWMck28zY7dWmCGIMOIpxnI6s6gGfk1pLI0Z02LQc8y2K/eiBE
zxf4HstPAF0iZjRsnbD62ZUm6nJo0CRyZCPrDcZE0BOl4g8CAwEAAaOBojCBnzAJ
BgNVHRMEAjAAMB0GA1UdDgQWBBS8CX/B2aKP1vBBIsb+kayrco+WWDBRBgNVHSME
SjBIgBSOSe3ZFy0y6rHI0oFDv8odlAYJVqEapBgwFjEUMBIGA1UEAwwLdGVhbTE3
MC1uZXSCFGbZM/78foWq9XHf0VA245m1iMeKMBMGA1UdJQQMMAoGCCsGAQUFBwMC
MAsGA1UdDwQEAwIHgDANBgkqhkiG9w0BAQsFAAOCAQEAG2EmvzNj4DRpw4pqlaIn
IwcRb4e1VhjRQhyuAEOybQexB92/FcirGZlWJmTSAT6rHRQg/KQ3DAA4wtGfVDSh
GbSELCALvsnbejw000JwcYe8HO5bNcOAaYoc9iQRmY6R10Ox/BBwCfc6A0y+fYrb
tbrpWSN2cr5bV6DJg8K/MWXM/cGcPHsgO4+8tegbPwSrn8CSVkRWM8PwgV3pSnbJ
hK9GkO+Mm6JeI6Cg6ucR55Tgeav0pSVOyPytZ9ZW6dR3HAxHsiBRZabGoxZJhUdx
aHCxo1u6JOoXGhuDukN71LDNtwcNfSHP2VeN7bYGgOlQx5SE6XvN9IiOJDGfdCdn
sQ==
-----END CERTIFICATE-----
