Certificate:
    Data:
        Version: 3 (0x2)
        Serial Number:
            37:32:a8:b8:8b:51:02:12:a1:11:a4:da:1e:0c:8f:fb
        Signature Algorithm: sha256WithRSAEncryption
        Issuer: CN=team448-net
        Validity
            Not Before: Sep 13 02:50:53 2021 GMT
            Not After : Aug 28 02:50:53 2024 GMT
        Subject: CN=team448-client
        Subject Public Key Info:
            Public Key Algorithm: rsaEncryption
                RSA Public-Key: (2048 bit)
                Modulus:
                    00:e1:7d:80:c4:14:25:31:9b:ab:57:30:41:62:a9:
                    35:b1:2f:f4:91:93:99:a9:81:ca:95:f6:1e:1f:93:
                    c8:97:61:88:ec:b4:ea:5f:af:6c:0a:85:4f:43:ec:
                    23:df:00:9a:fd:18:ec:41:27:94:1b:33:fd:a4:57:
                    10:de:70:4d:16:ff:51:62:71:ff:69:56:62:5a:bc:
                    19:df:d9:eb:a8:0c:2f:84:2a:be:3d:49:f8:ed:36:
                    74:ab:9c:01:e4:f3:1d:ae:40:33:3b:29:34:60:3d:
                    68:85:e6:45:c9:4d:95:21:72:a6:a7:0f:57:bf:a4:
                    2f:16:fe:42:1e:1b:1d:cd:f0:61:a3:a4:41:4f:93:
                    d8:27:1c:ce:27:e3:6f:46:98:d9:9b:a6:73:f7:45:
                    a5:e1:88:93:1e:63:9d:2f:d0:38:db:91:d0:a9:fe:
                    bf:6b:99:90:a6:86:94:1b:73:95:09:8e:1d:e2:fa:
                    cc:41:c0:b8:86:b2:3a:72:7b:3f:f4:71:23:d6:25:
                    5b:12:c2:a3:37:39:15:d5:ff:8a:8d:61:23:29:0b:
                    0e:0a:b9:ab:ce:7f:e6:f3:0b:fb:82:cb:4b:0a:f5:
                    80:68:71:18:f0:ad:10:8d:68:1d:03:64:30:0f:b8:
                    1c:04:64:e4:44:31:4f:e2:28:5e:05:b7:01:18:cf:
                    46:b9
                Exponent: 65537 (0x10001)
        X509v3 extensions:
            X509v3 Basic Constraints: 
                CA:FALSE
            X509v3 Subject Key Identifier: 
                C9:4C:14:88:85:FC:50:C2:02:41:09:D5:D7:99:F1:A5:9F:AB:21:1A
            X509v3 Authority Key Identifier: 
                keyid:60:EF:6F:FD:AC:AA:D1:7C:FA:AD:A4:9A:F6:2B:B3:42:2B:DB:69:BA
                DirName:/CN=team448-net
                serial:2E:73:95:3D:86:D7:53:8E:A3:4C:E0:58:FC:26:D7:FB:73:E0:97:28

            X509v3 Extended Key Usage: 
                TLS Web Client Authentication
            X509v3 Key Usage: 
                Digital Signature
    Signature Algorithm: sha256WithRSAEncryption
         6b:af:e3:7d:1c:de:2a:58:e6:ee:e1:95:26:2d:4b:cd:33:94:
         4f:fe:4d:53:75:13:e6:88:f0:64:f0:a9:0c:55:7a:0d:d9:16:
         53:2c:99:4c:0d:2d:53:ec:e0:68:05:af:38:8f:ee:e0:19:de:
         65:5b:53:f3:d2:ed:29:b8:b9:c8:c1:d7:88:28:71:44:c4:b5:
         b5:61:eb:b1:a2:0d:3a:fc:88:ba:0a:fb:6e:7d:79:69:a0:a3:
         a6:9a:d5:15:e3:d0:f1:3d:a0:61:8a:16:46:a6:53:7c:f0:6e:
         16:cf:2c:cc:26:71:e3:e4:65:78:44:b2:af:d7:27:10:11:69:
         59:7e:75:4b:40:eb:58:0a:08:23:75:06:b8:0b:5b:eb:4e:c3:
         98:ca:64:40:cd:35:99:7d:0b:39:45:4d:44:bb:10:93:9e:5c:
         61:c4:d3:2b:60:04:f9:6d:a5:a6:1e:7e:19:fc:bf:97:d2:5e:
         05:00:ca:aa:9f:3f:3c:de:58:73:ba:49:f3:5a:cd:d3:c6:bf:
         2c:6a:58:39:24:2a:14:81:33:35:b9:48:af:bd:b4:53:ff:0d:
         e4:0a:af:d0:18:1f:f7:cc:15:01:25:d2:cd:ef:3f:ec:d7:fa:
         6f:01:7c:0f:90:c3:b7:6d:ac:72:7d:ba:b5:eb:a2:86:a2:c7:
         d0:38:53:45
-----BEGIN CERTIFICATE-----
MIIDXDCCAkSgAwIBAgIQNzKouItRAhKhEaTaHgyP+zANBgkqhkiG9w0BAQsFADAW
MRQwEgYDVQQDDAt0ZWFtNDQ4LW5ldDAeFw0yMTA5MTMwMjUwNTNaFw0yNDA4Mjgw
MjUwNTNaMBkxFzAVBgNVBAMMDnRlYW00NDgtY2xpZW50MIIBIjANBgkqhkiG9w0B
AQEFAAOCAQ8AMIIBCgKCAQEA4X2AxBQlMZurVzBBYqk1sS/0kZOZqYHKlfYeH5PI
l2GI7LTqX69sCoVPQ+wj3wCa/RjsQSeUGzP9pFcQ3nBNFv9RYnH/aVZiWrwZ39nr
qAwvhCq+PUn47TZ0q5wB5PMdrkAzOyk0YD1oheZFyU2VIXKmpw9Xv6QvFv5CHhsd
zfBho6RBT5PYJxzOJ+NvRpjZm6Zz90Wl4YiTHmOdL9A425HQqf6/a5mQpoaUG3OV
CY4d4vrMQcC4hrI6cns/9HEj1iVbEsKjNzkV1f+KjWEjKQsOCrmrzn/m8wv7gstL
CvWAaHEY8K0QjWgdA2QwD7gcBGTkRDFP4iheBbcBGM9GuQIDAQABo4GiMIGfMAkG
A1UdEwQCMAAwHQYDVR0OBBYEFMlMFIiF/FDCAkEJ1deZ8aWfqyEaMFEGA1UdIwRK
MEiAFGDvb/2sqtF8+q2kmvYrs0Ir22m6oRqkGDAWMRQwEgYDVQQDDAt0ZWFtNDQ4
LW5ldIIULnOVPYbXU46jTOBY/CbX+3PglygwEwYDVR0lBAwwCgYIKwYBBQUHAwIw
CwYDVR0PBAQDAgeAMA0GCSqGSIb3DQEBCwUAA4IBAQBrr+N9HN4qWObu4ZUmLUvN
M5RP/k1TdRPmiPBk8KkMVXoN2RZTLJlMDS1T7OBoBa84j+7gGd5lW1Pz0u0puLnI
wdeIKHFExLW1Yeuxog06/Ii6CvtufXlpoKOmmtUV49DxPaBhihZGplN88G4WzyzM
JnHj5GV4RLKv1ycQEWlZfnVLQOtYCggjdQa4C1vrTsOYymRAzTWZfQs5RU1EuxCT
nlxhxNMrYAT5baWmHn4Z/L+X0l4FAMqqnz883lhzuknzWs3Txr8salg5JCoUgTM1
uUivvbRT/w3kCq/QGB/3zBUBJdLN7z/s1/pvAXwPkMO3baxyfbq166KGosfQOFNF
-----END CERTIFICATE-----
