Certificate:
    Data:
        Version: 3 (0x2)
        Serial Number:
            db:89:81:3d:df:ce:cf:10:43:c7:40:ff:ff:fd:b0:dd
        Signature Algorithm: sha256WithRSAEncryption
        Issuer: CN=team182-net
        Validity
            Not Before: Sep 13 00:30:15 2021 GMT
            Not After : Aug 28 00:30:15 2024 GMT
        Subject: CN=team182-server
        Subject Public Key Info:
            Public Key Algorithm: rsaEncryption
                RSA Public-Key: (2048 bit)
                Modulus:
                    00:a9:65:eb:57:22:7f:2b:91:1e:96:eb:95:a3:75:
                    17:ee:1a:98:dc:23:4a:e0:96:27:43:40:4e:75:5b:
                    21:bf:50:47:de:d8:77:5c:b8:a9:43:8b:37:42:71:
                    63:bc:40:70:ad:88:77:6d:35:a9:4e:55:79:53:f2:
                    e5:f7:e4:20:fc:a0:27:dc:f7:d3:9f:17:e5:02:d3:
                    dc:14:57:42:1a:88:f1:94:6b:f4:36:b5:48:84:a1:
                    8a:d7:be:29:8a:33:85:ff:77:7c:36:bb:a6:b6:98:
                    28:9a:bc:2c:5e:4d:ac:50:f2:2f:36:eb:c8:f0:b2:
                    35:01:ac:c5:70:fa:3c:f1:c9:42:e8:7d:b9:8c:18:
                    ba:d4:70:6f:26:27:23:af:45:89:33:27:ea:3a:71:
                    0b:30:7f:2c:8f:a0:f0:1a:b0:4c:a2:90:d4:e8:af:
                    e6:05:ef:23:29:41:03:3b:e5:ab:94:a2:ad:5b:98:
                    15:17:4c:cd:c2:0e:ab:ba:5a:15:c4:06:80:62:35:
                    19:89:a4:8a:78:8e:ce:ab:fd:fd:d8:77:fb:83:2f:
                    99:69:dd:b0:b0:cb:e3:35:f3:85:7a:d9:dc:60:4a:
                    ac:c6:c5:1c:a8:eb:1b:f7:f2:1e:91:21:1b:a1:b9:
                    2f:92:f5:39:79:2f:0a:c5:6a:b6:7c:3e:f9:2f:fd:
                    3c:b3
                Exponent: 65537 (0x10001)
        X509v3 extensions:
            X509v3 Basic Constraints: 
                CA:FALSE
            X509v3 Subject Key Identifier: 
                9E:FB:39:E0:A2:82:D1:64:F7:69:34:06:FF:96:EC:3C:17:6F:04:79
            X509v3 Authority Key Identifier: 
                keyid:4C:14:95:C0:1D:72:89:21:76:DC:7B:9B:BB:3E:D0:DC:E6:13:AC:7F
                DirName:/CN=team182-net
                serial:45:2D:34:24:A2:B4:C5:C4:7F:F5:6B:7A:C3:11:31:AE:12:BD:93:4E

            X509v3 Extended Key Usage: 
                TLS Web Server Authentication
            X509v3 Key Usage: 
                Digital Signature, Key Encipherment
            X509v3 Subject Alternative Name: 
                DNS:team182-server
    Signature Algorithm: sha256WithRSAEncryption
         18:51:ca:ae:49:c4:40:d4:f3:eb:ef:5d:da:b5:63:0b:16:b9:
         95:27:ec:a3:b8:22:d8:70:1a:d1:ea:46:04:f7:80:bd:31:36:
         88:6c:70:42:f1:f9:f6:70:bc:0b:45:f9:68:43:ee:2a:9a:6e:
         e7:46:60:72:43:8a:fc:1f:6d:fd:91:ad:85:99:09:96:8f:e8:
         df:03:27:a6:74:44:f9:91:ce:b9:1d:fa:67:8a:0b:5f:b2:ee:
         b0:05:0f:b8:08:a2:8e:9c:e6:35:c4:91:ab:53:74:0b:6e:8b:
         da:89:55:da:fc:64:bd:bd:d0:65:ee:3b:8f:4a:8b:e2:30:46:
         49:91:f3:c3:c0:71:3d:f5:dd:28:c5:6a:75:bc:6e:ff:65:37:
         50:be:f7:1f:9f:20:46:81:e1:f9:f9:00:22:78:8a:b4:c3:b9:
         1f:38:35:18:6e:59:47:b1:e9:0f:77:e2:ae:b1:c2:e0:c0:0c:
         b0:6e:fa:99:f0:42:7c:26:f6:95:d1:66:94:85:50:b4:b7:f7:
         09:61:25:f5:92:4f:b1:c2:17:9c:44:f4:38:94:22:c0:e5:5b:
         da:73:bc:3c:30:a7:6e:16:7e:89:81:f6:63:58:a1:f7:41:16:
         6b:1e:43:e2:b7:5f:7b:67:18:1a:cc:3d:80:bb:1a:10:93:dc:
         1a:27:28:1e
-----BEGIN CERTIFICATE-----
MIIDeDCCAmCgAwIBAgIRANuJgT3fzs8QQ8dA///9sN0wDQYJKoZIhvcNAQELBQAw
FjEUMBIGA1UEAwwLdGVhbTE4Mi1uZXQwHhcNMjEwOTEzMDAzMDE1WhcNMjQwODI4
MDAzMDE1WjAZMRcwFQYDVQQDDA50ZWFtMTgyLXNlcnZlcjCCASIwDQYJKoZIhvcN
AQEBBQADggEPADCCAQoCggEBAKll61cifyuRHpbrlaN1F+4amNwjSuCWJ0NATnVb
Ib9QR97Yd1y4qUOLN0JxY7xAcK2Id201qU5VeVPy5ffkIPygJ9z3058X5QLT3BRX
QhqI8ZRr9Da1SIShite+KYozhf93fDa7praYKJq8LF5NrFDyLzbryPCyNQGsxXD6
PPHJQuh9uYwYutRwbyYnI69FiTMn6jpxCzB/LI+g8BqwTKKQ1Oiv5gXvIylBAzvl
q5SirVuYFRdMzcIOq7paFcQGgGI1GYmkiniOzqv9/dh3+4MvmWndsLDL4zXzhXrZ
3GBKrMbFHKjrG/fyHpEhG6G5L5L1OXkvCsVqtnw++S/9PLMCAwEAAaOBvTCBujAJ
BgNVHRMEAjAAMB0GA1UdDgQWBBSe+zngooLRZPdpNAb/luw8F28EeTBRBgNVHSME
SjBIgBRMFJXAHXKJIXbce5u7PtDc5hOsf6EapBgwFjEUMBIGA1UEAwwLdGVhbTE4
Mi1uZXSCFEUtNCSitMXEf/VresMRMa4SvZNOMBMGA1UdJQQMMAoGCCsGAQUFBwMB
MAsGA1UdDwQEAwIFoDAZBgNVHREEEjAQgg50ZWFtMTgyLXNlcnZlcjANBgkqhkiG
9w0BAQsFAAOCAQEAGFHKrknEQNTz6+9d2rVjCxa5lSfso7gi2HAa0epGBPeAvTE2
iGxwQvH59nC8C0X5aEPuKppu50ZgckOK/B9t/ZGthZkJlo/o3wMnpnRE+ZHOuR36
Z4oLX7LusAUPuAiijpzmNcSRq1N0C26L2olV2vxkvb3QZe47j0qL4jBGSZHzw8Bx
PfXdKMVqdbxu/2U3UL73H58gRoHh+fkAIniKtMO5Hzg1GG5ZR7HpD3firrHC4MAM
sG76mfBCfCb2ldFmlIVQtLf3CWEl9ZJPscIXnET0OJQiwOVb2nO8PDCnbhZ+iYH2
Y1ih90EWax5D4rdfe2cYGsw9gLsaEJPcGicoHg==
-----END CERTIFICATE-----
