Certificate:
    Data:
        Version: 3 (0x2)
        Serial Number:
            fc:87:cf:0c:ff:c6:95:ca:43:83:ad:1c:b6:4c:1d:a6
        Signature Algorithm: sha256WithRSAEncryption
        Issuer: CN=team657-net
        Validity
            Not Before: Sep 13 04:25:50 2021 GMT
            Not After : Aug 28 04:25:50 2024 GMT
        Subject: CN=team657-server
        Subject Public Key Info:
            Public Key Algorithm: rsaEncryption
                RSA Public-Key: (2048 bit)
                Modulus:
                    00:b6:b1:f7:ed:29:ad:19:e2:60:c5:41:6e:68:d4:
                    14:22:aa:54:4c:b7:e7:5c:e3:c3:01:aa:dc:ff:59:
                    31:6f:ec:1e:05:9b:6c:b1:48:26:6c:74:f4:e5:46:
                    f0:c7:19:75:93:05:ee:03:84:11:a5:35:2a:06:e1:
                    32:57:28:ec:68:95:9a:49:bb:1e:63:40:db:b8:ea:
                    20:eb:4a:7b:4f:f7:25:96:f6:a1:49:16:43:a5:5e:
                    38:e5:f9:39:71:51:a6:e7:cb:56:fb:d1:ec:74:cf:
                    f1:87:d8:05:66:b8:83:77:59:c3:ea:70:9d:e1:29:
                    26:55:9a:9b:d4:cf:00:8a:81:af:97:3e:49:28:a1:
                    c4:8b:85:1f:4c:eb:4b:a8:d5:14:98:04:e9:8f:f4:
                    a7:2a:09:da:ac:5e:a2:72:17:17:4b:1e:8a:04:23:
                    5d:62:86:91:b1:89:00:8b:6e:5c:4d:bb:01:01:0e:
                    cf:34:25:b3:9f:74:4f:49:73:3e:20:cd:a0:06:4f:
                    6f:1f:9a:a1:89:b1:f4:c2:9e:74:ef:e5:e4:f5:a9:
                    8e:6d:07:17:f3:ce:77:2f:6e:e0:7e:73:db:bf:80:
                    5b:d3:60:0a:cd:a0:fa:e7:f1:f0:b9:3b:7d:61:bc:
                    8b:8a:34:a5:16:2e:29:a7:bf:98:72:b9:98:96:a1:
                    0a:33
                Exponent: 65537 (0x10001)
        X509v3 extensions:
            X509v3 Basic Constraints: 
                CA:FALSE
            X509v3 Subject Key Identifier: 
                E1:F5:88:C8:6C:82:51:8E:E3:E6:EB:D8:EA:8B:A1:E7:E4:07:F0:9C
            X509v3 Authority Key Identifier: 
                keyid:DD:12:20:3C:AB:03:DC:D2:47:DB:62:A6:40:31:A9:79:4F:66:E4:AD
                DirName:/CN=team657-net
                serial:09:5E:46:77:F0:F4:CE:F1:FA:88:A8:A9:36:12:20:98:20:7E:C6:15

            X509v3 Extended Key Usage: 
                TLS Web Server Authentication
            X509v3 Key Usage: 
                Digital Signature, Key Encipherment
            X509v3 Subject Alternative Name: 
                DNS:team657-server
    Signature Algorithm: sha256WithRSAEncryption
         39:4b:57:42:ed:18:75:81:5f:52:9a:a3:33:1f:c2:86:7f:a2:
         1d:27:b3:d2:77:3e:c7:a9:05:50:6f:32:50:2a:e9:b9:0a:a2:
         69:e4:ca:0a:0a:b3:1c:30:db:a3:ed:e6:cd:0a:6c:66:1f:75:
         35:a0:ba:ce:ed:2e:22:a5:ae:7e:70:93:e7:e5:d1:c4:f3:56:
         6e:85:54:cd:46:50:65:c0:f2:8b:73:fe:37:01:b5:58:22:d4:
         f5:7c:c6:1b:1e:e8:da:cd:29:ac:27:dc:d5:e7:8b:1d:e0:ae:
         f0:8b:99:78:da:8f:7b:03:34:5a:2a:31:77:e0:ba:c2:fa:65:
         ab:08:16:63:32:3d:72:98:1c:3f:bf:0b:4c:ae:e3:f0:6a:13:
         b3:25:c2:20:4d:8e:94:6d:9d:13:ef:69:0f:32:07:b8:1d:ac:
         31:e4:74:64:a0:a4:c7:1c:6d:5a:b8:30:fe:15:94:f1:a0:36:
         32:0b:12:e0:d2:93:09:c4:09:7b:2f:85:a2:6e:84:ee:8e:cf:
         35:0e:f1:0f:8b:b4:8e:3c:bf:18:a4:04:f9:09:f9:a7:ea:fe:
         02:0b:28:3e:79:78:c3:b2:6a:a9:30:de:8f:f7:51:08:47:3e:
         24:b3:5b:e3:fb:06:20:94:ac:78:eb:07:a6:c5:af:67:c6:72:
         08:6f:f9:f6
-----BEGIN CERTIFICATE-----
MIIDeDCCAmCgAwIBAgIRAPyHzwz/xpXKQ4OtHLZMHaYwDQYJKoZIhvcNAQELBQAw
FjEUMBIGA1UEAwwLdGVhbTY1Ny1uZXQwHhcNMjEwOTEzMDQyNTUwWhcNMjQwODI4
MDQyNTUwWjAZMRcwFQYDVQQDDA50ZWFtNjU3LXNlcnZlcjCCASIwDQYJKoZIhvcN
AQEBBQADggEPADCCAQoCggEBALax9+0prRniYMVBbmjUFCKqVEy351zjwwGq3P9Z
MW/sHgWbbLFIJmx09OVG8McZdZMF7gOEEaU1KgbhMlco7GiVmkm7HmNA27jqIOtK
e0/3JZb2oUkWQ6VeOOX5OXFRpufLVvvR7HTP8YfYBWa4g3dZw+pwneEpJlWam9TP
AIqBr5c+SSihxIuFH0zrS6jVFJgE6Y/0pyoJ2qxeonIXF0seigQjXWKGkbGJAItu
XE27AQEOzzQls590T0lzPiDNoAZPbx+aoYmx9MKedO/l5PWpjm0HF/POdy9u4H5z
27+AW9NgCs2g+ufx8Lk7fWG8i4o0pRYuKae/mHK5mJahCjMCAwEAAaOBvTCBujAJ
BgNVHRMEAjAAMB0GA1UdDgQWBBTh9YjIbIJRjuPm69jqi6Hn5AfwnDBRBgNVHSME
SjBIgBTdEiA8qwPc0kfbYqZAMal5T2bkraEapBgwFjEUMBIGA1UEAwwLdGVhbTY1
Ny1uZXSCFAleRnfw9M7x+oioqTYSIJggfsYVMBMGA1UdJQQMMAoGCCsGAQUFBwMB
MAsGA1UdDwQEAwIFoDAZBgNVHREEEjAQgg50ZWFtNjU3LXNlcnZlcjANBgkqhkiG
9w0BAQsFAAOCAQEAOUtXQu0YdYFfUpqjMx/Chn+iHSez0nc+x6kFUG8yUCrpuQqi
aeTKCgqzHDDbo+3mzQpsZh91NaC6zu0uIqWufnCT5+XRxPNWboVUzUZQZcDyi3P+
NwG1WCLU9XzGGx7o2s0prCfc1eeLHeCu8IuZeNqPewM0Wioxd+C6wvplqwgWYzI9
cpgcP78LTK7j8GoTsyXCIE2OlG2dE+9pDzIHuB2sMeR0ZKCkxxxtWrgw/hWU8aA2
MgsS4NKTCcQJey+Fom6E7o7PNQ7xD4u0jjy/GKQE+Qn5p+r+AgsoPnl4w7JqqTDe
j/dRCEc+JLNb4/sGIJSseOsHpsWvZ8ZyCG/59g==
-----END CERTIFICATE-----
