Certificate:
    Data:
        Version: 3 (0x2)
        Serial Number:
            02:64:24:20:a3:7b:83:b9:a2:1a:b3:d7:5a:64:29:1c
        Signature Algorithm: sha256WithRSAEncryption
        Issuer: CN=team432-net
        Validity
            Not Before: Sep 13 02:41:44 2021 GMT
            Not After : Aug 28 02:41:44 2024 GMT
        Subject: CN=team432-server
        Subject Public Key Info:
            Public Key Algorithm: rsaEncryption
                RSA Public-Key: (2048 bit)
                Modulus:
                    00:b9:b2:35:5e:83:8b:17:2e:2a:d3:82:c3:d5:47:
                    6c:75:d1:40:a9:a1:04:e9:7c:60:37:cb:da:44:6a:
                    9c:a0:54:0a:15:df:68:23:8a:65:c1:d5:7a:32:d9:
                    08:6e:93:57:b6:e8:5b:c7:c3:35:20:78:27:0b:7f:
                    77:8e:76:5e:b6:6e:11:76:5b:68:45:8f:2e:ea:95:
                    d8:4a:67:7e:09:4c:97:07:6c:5f:e3:e8:93:7e:a8:
                    10:d2:f6:3e:dd:cb:2e:d6:f5:38:1f:57:3e:65:0f:
                    14:79:47:4d:c7:91:1a:88:c8:f9:80:bc:1b:85:d6:
                    d3:68:b1:00:08:b7:8e:5c:8f:3f:29:6c:5d:a3:0f:
                    a0:1a:42:c1:66:5b:87:1c:29:63:18:ca:cc:82:71:
                    1b:52:3c:b8:b5:27:85:6c:c7:ee:29:4d:1c:74:50:
                    25:0b:69:61:1d:50:4d:8a:ee:3e:31:73:1d:03:7e:
                    26:2d:36:39:c4:a2:2e:13:56:d8:b6:0d:c8:5f:cf:
                    35:c8:b0:16:50:65:ce:f8:b2:90:b3:af:87:ab:62:
                    07:4c:9f:f3:65:cf:e4:98:56:39:93:9a:c4:01:37:
                    e4:09:9a:41:12:9d:a7:c4:5e:96:6e:9c:cd:4b:2e:
                    0d:95:7b:59:ca:89:1b:44:7a:47:e8:b4:9a:9a:14:
                    95:99
                Exponent: 65537 (0x10001)
        X509v3 extensions:
            X509v3 Basic Constraints: 
                CA:FALSE
            X509v3 Subject Key Identifier: 
                FD:B0:7A:B6:15:4F:9A:44:5B:15:24:B3:B3:AF:FF:26:C8:F8:17:BC
            X509v3 Authority Key Identifier: 
                keyid:9B:2F:57:72:02:74:F5:A8:BF:57:7D:A8:52:AB:C7:63:A5:30:D1:12
                DirName:/CN=team432-net
                serial:3F:49:F0:09:D3:DF:4A:C3:B7:90:74:28:C8:2A:A1:1E:6D:71:5E:D7

            X509v3 Extended Key Usage: 
                TLS Web Server Authentication
            X509v3 Key Usage: 
                Digital Signature, Key Encipherment
            X509v3 Subject Alternative Name: 
                DNS:team432-server
    Signature Algorithm: sha256WithRSAEncryption
         24:70:9f:b0:61:4e:1e:47:53:6e:75:a0:8a:5e:f7:2b:0b:dd:
         eb:db:43:c4:da:25:df:d5:76:4a:98:d6:e8:e9:7d:af:fd:ed:
         77:61:27:de:1c:18:8e:08:55:df:26:63:de:be:11:96:4c:64:
         9b:87:f5:83:20:ab:ad:f6:93:d5:09:c1:d3:a2:a6:cd:16:f1:
         83:36:a0:d4:54:ec:45:5b:a4:b8:cf:50:1f:36:1e:31:c3:a7:
         26:b9:70:b9:5e:81:d1:ce:ab:d7:56:0e:3e:76:ce:a0:7e:08:
         86:8f:8f:3e:43:df:23:00:c9:7c:cb:5b:0a:3f:da:61:2e:32:
         e9:de:a6:df:d6:c3:2e:33:c0:e7:2f:b8:6b:68:35:66:80:b5:
         61:c5:b3:72:4c:4c:5c:da:40:5b:d8:14:ca:0d:d2:e3:a4:09:
         36:8c:1b:b0:8a:f0:6f:e5:11:77:fd:d7:e7:86:c5:8d:b0:34:
         10:b5:54:17:8e:d3:5d:57:f2:0d:d1:7a:03:b1:b3:6e:27:1e:
         14:b5:ea:ac:69:26:e7:6d:ec:94:3e:64:e9:6e:31:e9:2f:58:
         8f:54:81:d7:e2:40:ee:da:1f:43:db:87:4d:7a:01:8e:97:26:
         83:fa:7c:2f:d9:29:9d:06:6b:3f:47:a7:1c:5a:cd:14:46:99:
         23:9a:26:fc
-----BEGIN CERTIFICATE-----
MIIDdzCCAl+gAwIBAgIQAmQkIKN7g7miGrPXWmQpHDANBgkqhkiG9w0BAQsFADAW
MRQwEgYDVQQDDAt0ZWFtNDMyLW5ldDAeFw0yMTA5MTMwMjQxNDRaFw0yNDA4Mjgw
MjQxNDRaMBkxFzAVBgNVBAMMDnRlYW00MzItc2VydmVyMIIBIjANBgkqhkiG9w0B
AQEFAAOCAQ8AMIIBCgKCAQEAubI1XoOLFy4q04LD1UdsddFAqaEE6XxgN8vaRGqc
oFQKFd9oI4plwdV6MtkIbpNXtuhbx8M1IHgnC393jnZetm4RdltoRY8u6pXYSmd+
CUyXB2xf4+iTfqgQ0vY+3csu1vU4H1c+ZQ8UeUdNx5EaiMj5gLwbhdbTaLEACLeO
XI8/KWxdow+gGkLBZluHHCljGMrMgnEbUjy4tSeFbMfuKU0cdFAlC2lhHVBNiu4+
MXMdA34mLTY5xKIuE1bYtg3IX881yLAWUGXO+LKQs6+Hq2IHTJ/zZc/kmFY5k5rE
ATfkCZpBEp2nxF6WbpzNSy4NlXtZyokbRHpH6LSamhSVmQIDAQABo4G9MIG6MAkG
A1UdEwQCMAAwHQYDVR0OBBYEFP2werYVT5pEWxUks7Ov/ybI+Be8MFEGA1UdIwRK
MEiAFJsvV3ICdPWov1d9qFKrx2OlMNESoRqkGDAWMRQwEgYDVQQDDAt0ZWFtNDMy
LW5ldIIUP0nwCdPfSsO3kHQoyCqhHm1xXtcwEwYDVR0lBAwwCgYIKwYBBQUHAwEw
CwYDVR0PBAQDAgWgMBkGA1UdEQQSMBCCDnRlYW00MzItc2VydmVyMA0GCSqGSIb3
DQEBCwUAA4IBAQAkcJ+wYU4eR1NudaCKXvcrC93r20PE2iXf1XZKmNbo6X2v/e13
YSfeHBiOCFXfJmPevhGWTGSbh/WDIKut9pPVCcHToqbNFvGDNqDUVOxFW6S4z1Af
Nh4xw6cmuXC5XoHRzqvXVg4+ds6gfgiGj48+Q98jAMl8y1sKP9phLjLp3qbf1sMu
M8DnL7hraDVmgLVhxbNyTExc2kBb2BTKDdLjpAk2jBuwivBv5RF3/dfnhsWNsDQQ
tVQXjtNdV/IN0XoDsbNuJx4UteqsaSbnbeyUPmTpbjHpL1iPVIHX4kDu2h9D24dN
egGOlyaD+nwv2SmdBms/R6ccWs0URpkjmib8
-----END CERTIFICATE-----
