Certificate:
    Data:
        Version: 3 (0x2)
        Serial Number:
            99:e6:63:02:62:a8:f6:e8:75:b9:12:c0:43:55:7c:ef
        Signature Algorithm: sha256WithRSAEncryption
        Issuer: CN=team168-net
        Validity
            Not Before: Sep 13 00:22:54 2021 GMT
            Not After : Aug 28 00:22:54 2024 GMT
        Subject: CN=team168-client
        Subject Public Key Info:
            Public Key Algorithm: rsaEncryption
                RSA Public-Key: (2048 bit)
                Modulus:
                    00:e9:e7:ad:0d:71:52:77:12:ad:47:16:14:ca:72:
                    2e:78:b8:3f:72:e2:55:9b:dd:f2:77:26:48:24:e2:
                    65:bd:21:80:b6:4b:73:c6:4b:7b:a1:6d:4a:95:de:
                    29:ad:e9:48:7b:de:eb:1f:c1:72:47:95:cd:6e:15:
                    70:d3:46:e3:be:09:b0:fb:e9:2d:b8:91:f4:32:01:
                    c9:bc:10:dd:8a:ea:c1:39:9e:cd:7e:88:e3:58:55:
                    e5:a9:7d:a0:00:4f:ca:c4:dd:ff:0a:07:4d:e1:65:
                    6b:d2:d1:1d:68:8f:7a:5a:65:91:b7:65:f6:de:3b:
                    4b:9b:d8:08:de:5a:d7:35:9b:26:0e:54:cb:94:c4:
                    5e:4e:74:34:ed:41:21:85:f4:26:fa:1d:2e:11:90:
                    ca:66:3d:e9:fc:cd:42:df:d8:e9:5b:14:77:3c:a5:
                    f7:4c:08:12:9e:41:1e:c7:87:6c:c9:41:2a:f5:f5:
                    f6:9b:dc:62:de:3a:00:ad:b9:57:13:a7:97:c8:d7:
                    99:25:1c:1b:3b:8e:e4:6a:c3:34:7b:95:5c:4c:37:
                    83:d7:bc:dc:86:c8:d7:fd:51:42:0d:31:d1:9b:83:
                    d1:97:74:32:52:53:71:32:9e:5f:b4:c5:81:f8:93:
                    7d:4f:40:d8:04:6c:d6:07:49:fb:b6:a8:0f:4e:31:
                    c1:83
                Exponent: 65537 (0x10001)
        X509v3 extensions:
            X509v3 Basic Constraints: 
                CA:FALSE
            X509v3 Subject Key Identifier: 
                FD:AB:A3:2F:96:2F:99:19:52:7A:BA:7C:DA:0F:E2:9E:22:8E:FD:74
            X509v3 Authority Key Identifier: 
                keyid:B8:32:D5:38:82:A9:B6:6A:A1:CD:FA:3A:7F:4E:19:38:B9:03:51:32
                DirName:/CN=team168-net
                serial:70:4B:A3:B3:30:9B:F5:A8:4B:4B:20:20:C9:0B:AC:C7:0F:76:AB:BF

            X509v3 Extended Key Usage: 
                TLS Web Client Authentication
            X509v3 Key Usage: 
                Digital Signature
    Signature Algorithm: sha256WithRSAEncryption
         25:95:98:f1:83:12:83:b4:cc:cd:04:09:59:aa:c2:26:97:78:
         26:25:38:03:85:fc:7f:23:79:c5:cb:9d:48:54:a7:62:7c:16:
         b2:33:ad:ca:9e:7f:c2:76:65:67:eb:84:d3:42:9e:e6:93:c6:
         5a:6c:44:2a:9d:39:ae:d0:7a:c2:08:2e:5c:87:24:3b:e3:3c:
         3b:75:bf:27:37:08:d3:27:5c:1c:ba:4a:0e:9b:00:3f:11:91:
         1c:40:0b:b2:56:58:0a:e2:2f:5a:a5:39:d3:8b:e5:b3:93:a3:
         31:b9:77:de:c9:6a:b2:ab:84:97:7a:d9:99:e2:d5:4b:6b:52:
         ce:54:90:ff:2b:eb:af:cb:5e:8b:cc:47:0a:30:dd:f7:4c:cb:
         f7:ba:13:12:0b:f6:95:a5:32:5f:0c:37:59:aa:a5:d8:2e:05:
         43:b7:80:e2:b3:f2:ed:3e:67:f7:f7:65:b4:6e:6e:ec:5c:fe:
         ca:20:5a:38:a8:b6:19:df:c1:62:35:94:02:13:0a:e4:81:9f:
         d5:b2:35:f8:2f:75:8e:6a:6c:44:4e:42:f4:a2:8e:42:8e:92:
         05:9e:ef:0a:6e:7e:9d:b1:11:68:8b:d3:a8:e9:9e:8c:d1:e3:
         d6:be:74:d2:34:71:b9:29:5b:06:69:6e:b5:d2:ff:75:9d:8b:
         79:60:16:5b
-----BEGIN CERTIFICATE-----
MIIDXTCCAkWgAwIBAgIRAJnmYwJiqPbodbkSwENVfO8wDQYJKoZIhvcNAQELBQAw
FjEUMBIGA1UEAwwLdGVhbTE2OC1uZXQwHhcNMjEwOTEzMDAyMjU0WhcNMjQwODI4
MDAyMjU0WjAZMRcwFQYDVQQDDA50ZWFtMTY4LWNsaWVudDCCASIwDQYJKoZIhvcN
AQEBBQADggEPADCCAQoCggEBAOnnrQ1xUncSrUcWFMpyLni4P3LiVZvd8ncmSCTi
Zb0hgLZLc8ZLe6FtSpXeKa3pSHve6x/BckeVzW4VcNNG474JsPvpLbiR9DIBybwQ
3YrqwTmezX6I41hV5al9oABPysTd/woHTeFla9LRHWiPelplkbdl9t47S5vYCN5a
1zWbJg5Uy5TEXk50NO1BIYX0JvodLhGQymY96fzNQt/Y6VsUdzyl90wIEp5BHseH
bMlBKvX19pvcYt46AK25VxOnl8jXmSUcGzuO5GrDNHuVXEw3g9e83IbI1/1RQg0x
0ZuD0Zd0MlJTcTKeX7TFgfiTfU9A2ARs1gdJ+7aoD04xwYMCAwEAAaOBojCBnzAJ
BgNVHRMEAjAAMB0GA1UdDgQWBBT9q6Mvli+ZGVJ6unzaD+KeIo79dDBRBgNVHSME
SjBIgBS4MtU4gqm2aqHN+jp/Thk4uQNRMqEapBgwFjEUMBIGA1UEAwwLdGVhbTE2
OC1uZXSCFHBLo7Mwm/WoS0sgIMkLrMcPdqu/MBMGA1UdJQQMMAoGCCsGAQUFBwMC
MAsGA1UdDwQEAwIHgDANBgkqhkiG9w0BAQsFAAOCAQEAJZWY8YMSg7TMzQQJWarC
Jpd4JiU4A4X8fyN5xcudSFSnYnwWsjOtyp5/wnZlZ+uE00Ke5pPGWmxEKp05rtB6
wgguXIckO+M8O3W/JzcI0ydcHLpKDpsAPxGRHEALslZYCuIvWqU504vls5OjMbl3
3slqsquEl3rZmeLVS2tSzlSQ/yvrr8tei8xHCjDd90zL97oTEgv2laUyXww3Waql
2C4FQ7eA4rPy7T5n9/dltG5u7Fz+yiBaOKi2Gd/BYjWUAhMK5IGf1bI1+C91jmps
RE5C9KKOQo6SBZ7vCm5+nbERaIvTqOmejNHj1r500jRxuSlbBmlutdL/dZ2LeWAW
Ww==
-----END CERTIFICATE-----
