Certificate:
    Data:
        Version: 3 (0x2)
        Serial Number:
            cf:6e:9f:03:b3:af:72:2f:67:48:2f:e1:4f:57:f4:2c
        Signature Algorithm: sha256WithRSAEncryption
        Issuer: CN=team168-net
        Validity
            Not Before: Sep 13 00:22:54 2021 GMT
            Not After : Aug 28 00:22:54 2024 GMT
        Subject: CN=team168-server
        Subject Public Key Info:
            Public Key Algorithm: rsaEncryption
                RSA Public-Key: (2048 bit)
                Modulus:
                    00:d4:31:c3:93:15:d6:5b:eb:ac:3d:df:b2:b6:60:
                    5d:3b:bb:4e:f9:a7:11:78:2d:b0:94:91:41:d2:ac:
                    21:85:70:75:35:87:17:a8:57:f3:43:5c:e2:21:72:
                    6f:41:46:e5:ba:04:8a:f2:58:bc:ff:e9:9c:e1:bf:
                    a8:fa:f6:b5:3c:20:59:3c:43:c7:1f:ad:06:77:7a:
                    5b:4a:eb:e9:a7:2b:3f:83:b2:93:95:83:f0:00:8a:
                    c3:4a:16:7b:15:5f:71:23:e3:8a:95:2b:81:f0:00:
                    a9:08:29:61:f5:04:b0:f2:e4:56:9e:58:34:f7:27:
                    65:e7:77:8c:6e:aa:ec:a3:24:2d:01:27:89:fa:5a:
                    aa:49:59:1c:8b:73:eb:60:9f:97:76:4f:4d:d5:a4:
                    e2:30:fc:d7:a4:5a:b0:2f:c9:8c:46:98:0c:58:34:
                    9e:35:34:f3:1f:cc:57:1d:ca:d3:0f:1e:af:23:45:
                    69:14:88:df:44:46:3f:f2:fb:93:7f:1c:a7:67:c8:
                    52:58:83:32:af:58:4c:1e:10:fd:24:1c:7b:32:71:
                    e8:29:ed:80:99:29:cb:4e:c2:9d:e7:1e:89:2a:e6:
                    0c:06:a2:5c:24:df:c0:7f:93:c9:e0:67:5f:cc:24:
                    91:0f:cd:23:ed:b1:c4:1b:b1:c1:a4:71:89:52:25:
                    15:97
                Exponent: 65537 (0x10001)
        X509v3 extensions:
            X509v3 Basic Constraints: 
                CA:FALSE
            X509v3 Subject Key Identifier: 
                2E:DC:E2:5E:9A:A4:2F:D1:AF:56:A9:14:0F:B1:79:22:68:F3:18:B6
            X509v3 Authority Key Identifier: 
                keyid:B8:32:D5:38:82:A9:B6:6A:A1:CD:FA:3A:7F:4E:19:38:B9:03:51:32
                DirName:/CN=team168-net
                serial:70:4B:A3:B3:30:9B:F5:A8:4B:4B:20:20:C9:0B:AC:C7:0F:76:AB:BF

            X509v3 Extended Key Usage: 
                TLS Web Server Authentication
            X509v3 Key Usage: 
                Digital Signature, Key Encipherment
            X509v3 Subject Alternative Name: 
                DNS:team168-server
    Signature Algorithm: sha256WithRSAEncryption
         74:8b:e3:d0:55:a1:5e:39:73:3f:b6:d2:1c:5f:1c:bc:07:86:
         72:db:a1:61:3b:ee:c5:0d:b2:07:0a:aa:10:ca:67:ea:b5:5b:
         3e:26:82:27:e8:67:57:06:52:88:ea:b5:08:28:42:2e:b4:f9:
         e6:d2:1f:c5:aa:78:21:93:52:82:a6:d8:00:3e:b2:b3:2d:2e:
         c1:d2:63:9c:30:99:75:b4:bd:eb:eb:14:56:79:fe:3e:4e:9a:
         b8:e6:6f:4c:e2:02:bb:78:59:40:2b:ee:7f:71:7b:ee:6a:f3:
         06:09:e7:e9:e9:3e:6b:75:cc:0f:9a:b2:32:16:3b:a6:92:f9:
         55:9d:0f:ac:4a:d7:25:13:c4:bd:2b:ba:c2:6f:8f:34:91:b6:
         a7:f9:08:94:8a:79:8b:1a:fe:c7:72:22:30:a7:a1:d3:68:25:
         77:df:32:ff:f8:cc:3e:63:14:c8:03:19:90:00:73:95:48:1d:
         d4:ef:f8:e8:ee:89:67:98:09:06:f5:7f:33:b6:b2:2a:e3:61:
         d1:c3:8f:73:f0:fb:d3:d2:23:3d:86:5c:d7:b9:05:e7:ea:a5:
         e3:47:bc:64:52:a5:3b:c7:b1:ea:fa:c3:46:05:77:47:7b:8e:
         72:c5:fa:b6:a4:11:64:36:04:a5:e0:66:c5:bd:1d:45:f4:5b:
         fd:e5:81:2b
-----BEGIN CERTIFICATE-----
MIIDeDCCAmCgAwIBAgIRAM9unwOzr3IvZ0gv4U9X9CwwDQYJKoZIhvcNAQELBQAw
FjEUMBIGA1UEAwwLdGVhbTE2OC1uZXQwHhcNMjEwOTEzMDAyMjU0WhcNMjQwODI4
MDAyMjU0WjAZMRcwFQYDVQQDDA50ZWFtMTY4LXNlcnZlcjCCASIwDQYJKoZIhvcN
AQEBBQADggEPADCCAQoCggEBANQxw5MV1lvrrD3fsrZgXTu7TvmnEXgtsJSRQdKs
IYVwdTWHF6hX80Nc4iFyb0FG5boEivJYvP/pnOG/qPr2tTwgWTxDxx+tBnd6W0rr
6acrP4Oyk5WD8ACKw0oWexVfcSPjipUrgfAAqQgpYfUEsPLkVp5YNPcnZed3jG6q
7KMkLQEnifpaqklZHItz62Cfl3ZPTdWk4jD816RasC/JjEaYDFg0njU08x/MVx3K
0w8eryNFaRSI30RGP/L7k38cp2fIUliDMq9YTB4Q/SQcezJx6CntgJkpy07Cnece
iSrmDAaiXCTfwH+TyeBnX8wkkQ/NI+2xxBuxwaRxiVIlFZcCAwEAAaOBvTCBujAJ
BgNVHRMEAjAAMB0GA1UdDgQWBBQu3OJemqQv0a9WqRQPsXkiaPMYtjBRBgNVHSME
SjBIgBS4MtU4gqm2aqHN+jp/Thk4uQNRMqEapBgwFjEUMBIGA1UEAwwLdGVhbTE2
OC1uZXSCFHBLo7Mwm/WoS0sgIMkLrMcPdqu/MBMGA1UdJQQMMAoGCCsGAQUFBwMB
MAsGA1UdDwQEAwIFoDAZBgNVHREEEjAQgg50ZWFtMTY4LXNlcnZlcjANBgkqhkiG
9w0BAQsFAAOCAQEAdIvj0FWhXjlzP7bSHF8cvAeGctuhYTvuxQ2yBwqqEMpn6rVb
PiaCJ+hnVwZSiOq1CChCLrT55tIfxap4IZNSgqbYAD6ysy0uwdJjnDCZdbS96+sU
Vnn+Pk6auOZvTOICu3hZQCvuf3F77mrzBgnn6ek+a3XMD5qyMhY7ppL5VZ0PrErX
JRPEvSu6wm+PNJG2p/kIlIp5ixr+x3IiMKeh02gld98y//jMPmMUyAMZkABzlUgd
1O/46O6JZ5gJBvV/M7ayKuNh0cOPc/D709IjPYZc17kF5+ql40e8ZFKlO8ex6vrD
RgV3R3uOcsX6tqQRZDYEpeBmxb0dRfRb/eWBKw==
-----END CERTIFICATE-----
