Certificate:
    Data:
        Version: 3 (0x2)
        Serial Number:
            ec:10:64:61:a4:1a:a2:e6:db:7a:36:0a:25:47:9a:10
        Signature Algorithm: sha256WithRSAEncryption
        Issuer: CN=team671-net
        Validity
            Not Before: Sep 13 05:02:18 2021 GMT
            Not After : Aug 28 05:02:18 2024 GMT
        Subject: CN=team671-server
        Subject Public Key Info:
            Public Key Algorithm: rsaEncryption
                RSA Public-Key: (2048 bit)
                Modulus:
                    00:a1:b6:9f:25:98:07:b0:95:a1:d3:9b:cb:73:5e:
                    79:a5:44:72:a3:41:ad:4c:8a:f7:84:00:54:28:20:
                    fc:cd:44:5a:80:21:8d:83:52:47:d6:65:5f:dd:20:
                    c6:94:0a:d8:3e:74:14:53:82:65:93:68:13:67:b8:
                    b2:d0:ff:ec:49:a3:0e:be:8e:36:0c:81:05:c4:35:
                    ea:1a:96:5d:86:86:19:7a:99:17:64:2d:52:06:16:
                    4a:04:ad:f6:d3:7e:f4:87:63:8a:8b:d3:15:60:d3:
                    78:b6:71:4f:fe:ab:85:1d:17:c4:4f:52:3d:ac:a0:
                    7a:a3:4c:ce:4b:b6:c4:9a:82:13:cd:33:4d:b7:6c:
                    26:88:8d:3b:3d:4e:5e:dd:0c:2e:6c:6c:26:d3:3e:
                    4d:71:65:10:4b:1a:c1:31:c6:64:ff:49:00:a6:67:
                    6b:d7:34:bf:a2:1b:c8:f9:ad:70:2e:6f:b1:1a:a0:
                    77:ed:ca:73:34:e7:61:75:84:83:a8:4c:f9:7e:62:
                    14:a5:b3:a6:99:62:16:a7:f4:42:6a:82:16:4d:88:
                    03:15:b7:e8:6a:66:2c:a3:ad:f7:a9:c8:2a:e5:fc:
                    8d:bc:10:09:a2:71:4b:f9:5e:c8:6c:ab:18:76:95:
                    38:af:cf:bd:70:e6:40:58:5d:b2:bf:eb:15:5c:ae:
                    90:b1
                Exponent: 65537 (0x10001)
        X509v3 extensions:
            X509v3 Basic Constraints: 
                CA:FALSE
            X509v3 Subject Key Identifier: 
                EE:07:47:6E:9B:BB:1C:A4:37:FD:5E:26:19:BE:B3:0F:C5:EB:A8:FE
            X509v3 Authority Key Identifier: 
                keyid:D9:EA:19:60:3C:30:4A:12:B9:E8:D5:41:49:CF:93:87:93:7D:8B:B4
                DirName:/CN=team671-net
                serial:58:77:E5:21:70:04:B9:76:E6:F8:E2:37:90:D0:69:9F:ED:3D:67:93

            X509v3 Extended Key Usage: 
                TLS Web Server Authentication
            X509v3 Key Usage: 
                Digital Signature, Key Encipherment
            X509v3 Subject Alternative Name: 
                DNS:team671-server
    Signature Algorithm: sha256WithRSAEncryption
         7e:84:5d:e1:50:b4:de:3c:81:5f:c1:5b:1c:b0:95:9a:ab:3e:
         88:5f:b4:46:bb:81:5c:9a:a1:a1:b8:3b:58:6e:93:21:bb:0f:
         2e:3d:de:2b:86:37:5b:16:80:c4:35:02:f8:3f:6d:bb:c9:37:
         5b:bb:66:2c:de:69:02:9e:49:46:80:f4:db:4f:32:73:ff:66:
         58:62:6f:b7:be:a3:79:6e:d5:49:cc:c7:1b:91:43:db:0a:c9:
         a8:02:bb:ec:3f:d1:0d:14:7c:51:4c:71:ef:dd:8f:57:cf:99:
         03:8c:91:a7:e8:c3:52:61:b3:b0:e9:19:c3:6f:4f:e5:23:3a:
         c0:42:67:97:74:c9:73:e4:c4:95:a1:e8:6a:c8:0f:35:8a:f5:
         a1:00:57:15:12:e7:4a:11:d1:aa:57:f3:80:f0:60:b2:ef:6b:
         b6:a2:34:6a:c3:66:50:4c:f2:61:92:e7:5b:00:d1:5a:01:39:
         10:e2:86:4f:b6:2a:ff:60:94:2e:10:15:20:9d:dc:9f:b8:20:
         b9:c1:c3:1a:13:d0:a6:43:45:d2:4b:17:c5:10:81:55:05:14:
         b2:5e:4b:63:78:fb:0b:c9:a9:9f:a0:cf:0e:47:3f:b1:7f:2f:
         11:43:be:57:0d:13:6c:a6:87:92:e4:fa:70:a4:9a:d9:f7:a4:
         9e:17:c7:23
-----BEGIN CERTIFICATE-----
MIIDeDCCAmCgAwIBAgIRAOwQZGGkGqLm23o2CiVHmhAwDQYJKoZIhvcNAQELBQAw
FjEUMBIGA1UEAwwLdGVhbTY3MS1uZXQwHhcNMjEwOTEzMDUwMjE4WhcNMjQwODI4
MDUwMjE4WjAZMRcwFQYDVQQDDA50ZWFtNjcxLXNlcnZlcjCCASIwDQYJKoZIhvcN
AQEBBQADggEPADCCAQoCggEBAKG2nyWYB7CVodOby3NeeaVEcqNBrUyK94QAVCgg
/M1EWoAhjYNSR9ZlX90gxpQK2D50FFOCZZNoE2e4stD/7EmjDr6ONgyBBcQ16hqW
XYaGGXqZF2QtUgYWSgSt9tN+9IdjiovTFWDTeLZxT/6rhR0XxE9SPaygeqNMzku2
xJqCE80zTbdsJoiNOz1OXt0MLmxsJtM+TXFlEEsawTHGZP9JAKZna9c0v6IbyPmt
cC5vsRqgd+3KczTnYXWEg6hM+X5iFKWzppliFqf0QmqCFk2IAxW36GpmLKOt96nI
KuX8jbwQCaJxS/leyGyrGHaVOK/PvXDmQFhdsr/rFVyukLECAwEAAaOBvTCBujAJ
BgNVHRMEAjAAMB0GA1UdDgQWBBTuB0dum7scpDf9XiYZvrMPxeuo/jBRBgNVHSME
SjBIgBTZ6hlgPDBKErno1UFJz5OHk32LtKEapBgwFjEUMBIGA1UEAwwLdGVhbTY3
MS1uZXSCFFh35SFwBLl25vjiN5DQaZ/tPWeTMBMGA1UdJQQMMAoGCCsGAQUFBwMB
MAsGA1UdDwQEAwIFoDAZBgNVHREEEjAQgg50ZWFtNjcxLXNlcnZlcjANBgkqhkiG
9w0BAQsFAAOCAQEAfoRd4VC03jyBX8FbHLCVmqs+iF+0RruBXJqhobg7WG6TIbsP
Lj3eK4Y3WxaAxDUC+D9tu8k3W7tmLN5pAp5JRoD0208yc/9mWGJvt76jeW7VSczH
G5FD2wrJqAK77D/RDRR8UUxx792PV8+ZA4yRp+jDUmGzsOkZw29P5SM6wEJnl3TJ
c+TElaHoasgPNYr1oQBXFRLnShHRqlfzgPBgsu9rtqI0asNmUEzyYZLnWwDRWgE5
EOKGT7Yq/2CULhAVIJ3cn7ggucHDGhPQpkNF0ksXxRCBVQUUsl5LY3j7C8mpn6DP
Dkc/sX8vEUO+Vw0TbKaHkuT6cKSa2feknhfHIw==
-----END CERTIFICATE-----
