Certificate:
    Data:
        Version: 3 (0x2)
        Serial Number:
            85:5d:81:9b:ce:f2:13:38:e5:e0:77:ac:4a:37:08:10
        Signature Algorithm: sha256WithRSAEncryption
        Issuer: CN=team536-net
        Validity
            Not Before: Sep 13 03:24:23 2021 GMT
            Not After : Aug 28 03:24:23 2024 GMT
        Subject: CN=team536-server
        Subject Public Key Info:
            Public Key Algorithm: rsaEncryption
                RSA Public-Key: (2048 bit)
                Modulus:
                    00:b6:1a:b2:aa:3b:82:7f:22:b2:44:9b:00:03:7b:
                    1e:cd:2f:b1:52:84:a4:df:53:21:e4:60:87:d3:c7:
                    2b:bd:af:d4:e3:55:24:b2:e7:6a:7f:57:a0:8c:99:
                    62:03:76:c8:12:a0:71:f4:fe:6d:99:72:d7:d0:0c:
                    88:e9:18:55:0b:c6:39:13:01:34:b6:0b:5d:97:51:
                    56:46:13:42:2a:94:0d:86:4f:fe:c7:93:b7:8f:ce:
                    6b:71:fa:b2:5a:d7:1e:2e:96:c0:39:3d:51:e7:71:
                    55:cf:5f:47:5c:af:4a:03:91:49:a2:66:3c:7c:d0:
                    54:d7:84:77:32:4a:e3:36:99:3c:a2:eb:e7:60:2f:
                    e9:09:db:b2:cc:34:14:8d:de:aa:6c:0a:bd:3c:78:
                    5c:0d:eb:17:7e:a2:4d:b1:2b:39:44:b6:8c:e9:7a:
                    cf:09:17:0a:33:6e:9d:5b:73:16:bb:75:4f:91:9d:
                    08:a4:1c:76:46:b6:39:ea:68:bd:c8:0c:ad:bd:e9:
                    19:f5:d2:e5:f4:83:e4:c1:a7:c3:14:69:8d:83:18:
                    5b:16:1a:cb:ee:f6:2b:bf:f5:c8:1a:42:29:3c:a0:
                    c7:da:77:30:c6:96:2c:e4:93:80:56:2f:5f:17:c9:
                    d0:42:ed:b9:06:f2:5a:01:32:63:af:8f:12:e9:00:
                    0d:91
                Exponent: 65537 (0x10001)
        X509v3 extensions:
            X509v3 Basic Constraints: 
                CA:FALSE
            X509v3 Subject Key Identifier: 
                09:48:B6:CE:EC:AB:69:32:39:C8:88:DF:46:15:39:84:CF:2B:D1:08
            X509v3 Authority Key Identifier: 
                keyid:19:C2:14:1A:15:F0:F7:D2:98:48:50:99:D5:71:E6:B4:F3:3A:BD:D0
                DirName:/CN=team536-net
                serial:4E:B0:EA:BC:D8:A9:F2:B5:B3:6F:BD:87:69:E5:79:16:1D:2D:CB:62

            X509v3 Extended Key Usage: 
                TLS Web Server Authentication
            X509v3 Key Usage: 
                Digital Signature, Key Encipherment
            X509v3 Subject Alternative Name: 
                DNS:team536-server
    Signature Algorithm: sha256WithRSAEncryption
         19:b9:12:e9:b0:9d:13:fe:10:ee:7c:fb:6c:b3:df:4a:22:4b:
         95:78:ca:5a:82:95:2f:08:49:47:86:b4:8f:a5:70:c5:a9:da:
         57:d6:7c:62:f6:b7:6c:5a:4e:eb:da:28:21:ff:cf:e7:25:18:
         d9:86:00:2a:14:e0:c7:79:be:25:1d:7f:b5:e8:07:46:9f:84:
         dd:89:1b:4a:05:01:44:f4:d7:fb:7f:29:fe:df:c9:42:6b:4c:
         41:89:95:34:f6:4f:e4:93:ee:4c:db:7c:c3:a3:54:da:88:97:
         49:48:d6:32:dd:47:28:e8:a3:c4:f0:0c:75:0d:42:66:67:e0:
         a3:67:06:ae:74:72:1e:bb:cb:d1:2a:bd:29:c3:6d:8b:01:38:
         51:d5:49:af:ed:58:e9:9b:dd:85:f5:7e:bb:98:0e:cd:8a:d6:
         c4:2e:c1:0c:e5:94:80:06:37:8d:1f:6f:05:92:78:4c:5e:d3:
         d4:63:92:99:fb:8e:55:03:5f:8b:b9:77:57:aa:6c:ac:e6:95:
         a0:33:06:97:e0:c9:2f:b9:b9:14:2b:00:3f:bc:83:45:ee:62:
         92:74:26:a7:4a:09:a0:8e:8d:e7:88:be:b4:a8:0b:ff:32:b6:
         f7:df:74:46:5e:17:31:af:fd:37:dd:2c:1f:9d:c0:be:f2:63:
         a7:f0:95:a0
-----BEGIN CERTIFICATE-----
MIIDeDCCAmCgAwIBAgIRAIVdgZvO8hM45eB3rEo3CBAwDQYJKoZIhvcNAQELBQAw
FjEUMBIGA1UEAwwLdGVhbTUzNi1uZXQwHhcNMjEwOTEzMDMyNDIzWhcNMjQwODI4
MDMyNDIzWjAZMRcwFQYDVQQDDA50ZWFtNTM2LXNlcnZlcjCCASIwDQYJKoZIhvcN
AQEBBQADggEPADCCAQoCggEBALYasqo7gn8iskSbAAN7Hs0vsVKEpN9TIeRgh9PH
K72v1ONVJLLnan9XoIyZYgN2yBKgcfT+bZly19AMiOkYVQvGORMBNLYLXZdRVkYT
QiqUDYZP/seTt4/Oa3H6slrXHi6WwDk9UedxVc9fR1yvSgORSaJmPHzQVNeEdzJK
4zaZPKLr52Av6Qnbssw0FI3eqmwKvTx4XA3rF36iTbErOUS2jOl6zwkXCjNunVtz
Frt1T5GdCKQcdka2OepovcgMrb3pGfXS5fSD5MGnwxRpjYMYWxYay+72K7/1yBpC
KTygx9p3MMaWLOSTgFYvXxfJ0ELtuQbyWgEyY6+PEukADZECAwEAAaOBvTCBujAJ
BgNVHRMEAjAAMB0GA1UdDgQWBBQJSLbO7KtpMjnIiN9GFTmEzyvRCDBRBgNVHSME
SjBIgBQZwhQaFfD30phIUJnVcea08zq90KEapBgwFjEUMBIGA1UEAwwLdGVhbTUz
Ni1uZXSCFE6w6rzYqfK1s2+9h2nleRYdLctiMBMGA1UdJQQMMAoGCCsGAQUFBwMB
MAsGA1UdDwQEAwIFoDAZBgNVHREEEjAQgg50ZWFtNTM2LXNlcnZlcjANBgkqhkiG
9w0BAQsFAAOCAQEAGbkS6bCdE/4Q7nz7bLPfSiJLlXjKWoKVLwhJR4a0j6Vwxana
V9Z8Yva3bFpO69ooIf/P5yUY2YYAKhTgx3m+JR1/tegHRp+E3YkbSgUBRPTX+38p
/t/JQmtMQYmVNPZP5JPuTNt8w6NU2oiXSUjWMt1HKOijxPAMdQ1CZmfgo2cGrnRy
HrvL0Sq9KcNtiwE4UdVJr+1Y6ZvdhfV+u5gOzYrWxC7BDOWUgAY3jR9vBZJ4TF7T
1GOSmfuOVQNfi7l3V6psrOaVoDMGl+DJL7m5FCsAP7yDRe5iknQmp0oJoI6N54i+
tKgL/zK29990Rl4XMa/9N90sH53AvvJjp/CVoA==
-----END CERTIFICATE-----
