Certificate:
    Data:
        Version: 3 (0x2)
        Serial Number:
            9d:de:58:be:2d:d1:4c:56:3b:f5:3c:27:d1:7f:fe:55
        Signature Algorithm: sha256WithRSAEncryption
        Issuer: CN=team306-net
        Validity
            Not Before: Sep 13 01:28:43 2021 GMT
            Not After : Aug 28 01:28:43 2024 GMT
        Subject: CN=team306-client
        Subject Public Key Info:
            Public Key Algorithm: rsaEncryption
                RSA Public-Key: (2048 bit)
                Modulus:
                    00:cd:b1:bf:51:0c:80:2e:d0:8d:76:b6:ac:69:c1:
                    07:39:df:2f:c1:db:35:7a:40:ea:98:de:d9:7d:f9:
                    06:10:15:07:59:47:2a:94:52:19:ce:5b:37:1a:f1:
                    4b:0a:27:ca:71:42:1f:6c:a6:5b:39:c3:8c:38:cf:
                    cd:08:d5:1f:39:85:e6:1f:2b:ad:11:e2:30:f8:78:
                    a3:bf:80:a0:4d:57:f8:cf:d2:01:19:c3:3c:a8:74:
                    46:99:58:59:dc:3b:cb:f8:ec:45:62:20:49:7d:8b:
                    f5:3e:23:88:82:bf:ee:d9:47:6f:5a:4e:08:e9:c5:
                    91:d7:9b:30:e8:01:d1:e2:fe:b4:b4:d8:f1:c1:14:
                    bf:83:eb:c3:b1:ed:7e:b0:94:ac:8a:ab:51:32:aa:
                    60:dd:21:b3:94:b8:c4:98:f2:dc:46:3f:77:da:90:
                    ae:d4:71:fb:cb:0b:60:56:bc:4f:00:37:bd:62:93:
                    a7:59:c0:45:02:71:b1:74:c7:38:3d:fe:56:60:d4:
                    43:9f:8f:e1:6a:1e:6d:26:3d:c3:da:40:56:78:13:
                    89:2b:b3:70:ef:75:16:3c:7a:5e:7f:40:76:d7:7b:
                    0e:f6:c2:42:29:b4:a6:96:b9:2c:f9:48:49:48:b7:
                    13:3e:0d:50:c5:a4:9a:fc:c7:53:9a:4e:91:36:1b:
                    8e:77
                Exponent: 65537 (0x10001)
        X509v3 extensions:
            X509v3 Basic Constraints: 
                CA:FALSE
            X509v3 Subject Key Identifier: 
                6D:D2:A0:38:1F:BA:96:A8:08:69:B9:B5:96:B7:55:7B:02:8C:33:1F
            X509v3 Authority Key Identifier: 
                keyid:CB:C5:7D:12:23:B6:2F:9F:63:EC:BD:3F:4F:99:9F:A5:13:D7:C7:A8
                DirName:/CN=team306-net
                serial:49:8F:05:F3:14:86:40:B6:83:19:3B:A3:83:0F:53:D1:C9:B2:4B:E0

            X509v3 Extended Key Usage: 
                TLS Web Client Authentication
            X509v3 Key Usage: 
                Digital Signature
    Signature Algorithm: sha256WithRSAEncryption
         14:4b:5f:04:10:d2:98:74:98:26:a3:c5:ee:46:74:de:d2:cf:
         ab:dd:e8:e6:33:63:ee:76:6d:49:e0:78:ed:5d:fe:6a:28:99:
         5d:8e:3f:bd:28:81:bc:b1:a2:c8:b9:a4:82:f2:8e:c9:66:d1:
         ad:e6:6d:d8:a9:b3:ee:96:28:b0:14:1d:6d:2d:0b:17:70:68:
         a6:b2:85:9b:96:ec:5b:44:3a:56:f8:8b:a7:68:8e:2b:15:a3:
         bb:ea:ee:a1:b2:f3:2c:b5:54:d6:29:f8:f1:cf:60:5f:79:1c:
         51:33:12:34:2c:74:c3:83:89:37:87:3d:d5:3c:18:d6:92:25:
         af:42:64:3f:38:46:9e:eb:5a:5d:57:76:b4:cd:af:56:c4:7b:
         15:02:95:6c:b7:30:36:43:97:70:33:88:68:4f:5d:fd:9f:2d:
         01:16:64:19:06:6f:1d:ab:4f:38:1a:42:36:1f:11:18:17:f1:
         d8:dd:d9:d8:e6:75:eb:2d:6b:d2:2d:5b:6a:91:4d:a3:a0:af:
         d9:c8:80:68:02:c7:8a:cf:c5:b9:b5:4d:20:72:3d:50:e9:88:
         41:88:fe:4e:9f:c2:3f:f9:1b:70:98:49:a8:85:f2:fc:59:ec:
         bd:6c:2c:68:37:16:13:d9:9f:ba:9e:d7:8d:c1:3d:fe:6a:50:
         38:36:e8:c1
-----BEGIN CERTIFICATE-----
MIIDXTCCAkWgAwIBAgIRAJ3eWL4t0UxWO/U8J9F//lUwDQYJKoZIhvcNAQELBQAw
FjEUMBIGA1UEAwwLdGVhbTMwNi1uZXQwHhcNMjEwOTEzMDEyODQzWhcNMjQwODI4
MDEyODQzWjAZMRcwFQYDVQQDDA50ZWFtMzA2LWNsaWVudDCCASIwDQYJKoZIhvcN
AQEBBQADggEPADCCAQoCggEBAM2xv1EMgC7QjXa2rGnBBznfL8HbNXpA6pje2X35
BhAVB1lHKpRSGc5bNxrxSwonynFCH2ymWznDjDjPzQjVHzmF5h8rrRHiMPh4o7+A
oE1X+M/SARnDPKh0RplYWdw7y/jsRWIgSX2L9T4jiIK/7tlHb1pOCOnFkdebMOgB
0eL+tLTY8cEUv4Prw7HtfrCUrIqrUTKqYN0hs5S4xJjy3EY/d9qQrtRx+8sLYFa8
TwA3vWKTp1nARQJxsXTHOD3+VmDUQ5+P4WoebSY9w9pAVngTiSuzcO91Fjx6Xn9A
dtd7DvbCQim0ppa5LPlISUi3Ez4NUMWkmvzHU5pOkTYbjncCAwEAAaOBojCBnzAJ
BgNVHRMEAjAAMB0GA1UdDgQWBBRt0qA4H7qWqAhpubWWt1V7AowzHzBRBgNVHSME
SjBIgBTLxX0SI7Yvn2PsvT9PmZ+lE9fHqKEapBgwFjEUMBIGA1UEAwwLdGVhbTMw
Ni1uZXSCFEmPBfMUhkC2gxk7o4MPU9HJskvgMBMGA1UdJQQMMAoGCCsGAQUFBwMC
MAsGA1UdDwQEAwIHgDANBgkqhkiG9w0BAQsFAAOCAQEAFEtfBBDSmHSYJqPF7kZ0
3tLPq93o5jNj7nZtSeB47V3+aiiZXY4/vSiBvLGiyLmkgvKOyWbRreZt2Kmz7pYo
sBQdbS0LF3BoprKFm5bsW0Q6VviLp2iOKxWju+ruobLzLLVU1in48c9gX3kcUTMS
NCx0w4OJN4c91TwY1pIlr0JkPzhGnutaXVd2tM2vVsR7FQKVbLcwNkOXcDOIaE9d
/Z8tARZkGQZvHatPOBpCNh8RGBfx2N3Z2OZ16y1r0i1bapFNo6Cv2ciAaALHis/F
ubVNIHI9UOmIQYj+Tp/CP/kbcJhJqIXy/FnsvWwsaDcWE9mfup7XjcE9/mpQODbo
wQ==
-----END CERTIFICATE-----
