Certificate:
    Data:
        Version: 3 (0x2)
        Serial Number:
            ae:27:b0:6c:58:2f:a8:21:1a:7a:a3:97:47:67:d2:c5
        Signature Algorithm: sha256WithRSAEncryption
        Issuer: CN=team576-net
        Validity
            Not Before: Sep 13 04:02:58 2021 GMT
            Not After : Aug 28 04:02:58 2024 GMT
        Subject: CN=team576-server
        Subject Public Key Info:
            Public Key Algorithm: rsaEncryption
                RSA Public-Key: (2048 bit)
                Modulus:
                    00:d2:24:f0:a5:d7:ff:31:58:c6:b0:8d:4a:5d:79:
                    9e:a1:d9:b5:15:5d:8f:43:e0:56:1c:e2:5b:07:14:
                    32:58:f1:14:6b:e9:8b:59:a0:15:4d:3f:6f:79:e6:
                    f7:af:f7:27:4a:5e:c1:74:6e:77:1d:90:c7:44:62:
                    68:d8:d8:97:f7:fd:1e:e8:7e:fe:ef:83:47:a8:86:
                    48:ff:8d:3d:ba:eb:bc:51:53:56:ae:a9:bf:61:e2:
                    8c:4e:a7:fd:94:f3:65:71:8b:3c:61:34:bb:19:48:
                    92:4f:28:46:aa:1c:45:4b:9f:6f:5c:34:18:21:d4:
                    d7:2e:a4:f6:21:f4:ca:e0:bf:1c:d9:39:e0:8d:d9:
                    47:eb:5f:99:3a:71:b1:42:63:86:0b:19:f4:66:db:
                    0a:d0:cc:a1:16:03:84:84:0f:8f:b6:fd:20:7a:1d:
                    e2:02:04:6a:c3:99:f7:78:a7:07:98:28:43:a5:97:
                    b7:0f:a7:74:dd:3c:ac:e0:70:a6:8c:8b:1e:9f:15:
                    c6:20:a7:91:97:f7:0a:6f:dc:5d:33:2c:b3:14:4e:
                    2e:e0:f6:3b:27:52:f8:b8:ce:63:01:f8:46:04:ec:
                    15:57:a0:b7:83:23:9d:78:38:26:86:92:a3:ba:dd:
                    1a:fb:5e:81:11:b4:51:7e:d3:98:30:ef:db:d9:e9:
                    cc:57
                Exponent: 65537 (0x10001)
        X509v3 extensions:
            X509v3 Basic Constraints: 
                CA:FALSE
            X509v3 Subject Key Identifier: 
                EA:11:3C:D1:8B:0E:6E:0E:0C:5D:DB:BA:64:DD:D9:55:FB:43:16:B6
            X509v3 Authority Key Identifier: 
                keyid:1E:22:04:DB:94:FD:64:A8:04:66:B0:13:16:FF:13:CB:90:AC:C2:D7
                DirName:/CN=team576-net
                serial:68:71:94:4B:77:9E:54:E9:29:67:5E:A3:77:19:B9:EF:35:16:D0:2B

            X509v3 Extended Key Usage: 
                TLS Web Server Authentication
            X509v3 Key Usage: 
                Digital Signature, Key Encipherment
            X509v3 Subject Alternative Name: 
                DNS:team576-server
    Signature Algorithm: sha256WithRSAEncryption
         9a:da:2a:13:50:44:f6:0b:4b:a2:25:f4:fe:2e:b7:8a:08:bc:
         5a:d6:ae:d3:65:e5:ec:ff:4e:41:bc:c3:19:70:7b:5d:dd:39:
         38:29:90:b1:44:96:b1:36:75:5a:33:91:7f:17:2e:37:6f:e8:
         c7:1b:e2:28:fd:03:85:5a:c6:f0:f9:82:67:52:85:a3:ba:12:
         3d:a6:d7:59:65:2d:1d:d8:6e:44:5c:29:11:73:de:e3:e2:41:
         13:b3:e1:47:91:d1:8f:46:b7:b0:8e:aa:aa:cd:4b:54:e1:48:
         30:4b:17:d1:37:27:cd:85:cb:56:84:b2:ff:5b:e7:bd:5c:71:
         3d:34:38:12:da:f3:01:ae:ea:7a:dc:fe:c3:3e:22:66:81:4a:
         34:60:67:a4:30:f1:25:a6:3f:01:ac:0e:15:4a:69:2d:9f:4c:
         32:dd:72:31:a4:83:45:df:1d:c1:61:4c:70:f8:b4:8d:43:0b:
         13:2b:4c:02:ed:77:a9:80:6c:af:9f:1f:28:01:e6:a9:ab:25:
         5a:d1:a2:46:ea:93:6f:14:d0:c8:63:3b:49:35:f8:9a:ec:72:
         bf:f0:c7:01:12:2d:76:cb:6d:e9:fe:c3:ed:ff:c9:0a:7c:06:
         55:3f:2b:c2:3a:3f:fc:0b:f0:5b:5f:21:7c:db:0e:0b:9f:73:
         20:49:fe:65
-----BEGIN CERTIFICATE-----
MIIDeDCCAmCgAwIBAgIRAK4nsGxYL6ghGnqjl0dn0sUwDQYJKoZIhvcNAQELBQAw
FjEUMBIGA1UEAwwLdGVhbTU3Ni1uZXQwHhcNMjEwOTEzMDQwMjU4WhcNMjQwODI4
MDQwMjU4WjAZMRcwFQYDVQQDDA50ZWFtNTc2LXNlcnZlcjCCASIwDQYJKoZIhvcN
AQEBBQADggEPADCCAQoCggEBANIk8KXX/zFYxrCNSl15nqHZtRVdj0PgVhziWwcU
MljxFGvpi1mgFU0/b3nm96/3J0pewXRudx2Qx0RiaNjYl/f9Huh+/u+DR6iGSP+N
PbrrvFFTVq6pv2HijE6n/ZTzZXGLPGE0uxlIkk8oRqocRUufb1w0GCHU1y6k9iH0
yuC/HNk54I3ZR+tfmTpxsUJjhgsZ9GbbCtDMoRYDhIQPj7b9IHod4gIEasOZ93in
B5goQ6WXtw+ndN08rOBwpoyLHp8VxiCnkZf3Cm/cXTMssxROLuD2OydS+LjOYwH4
RgTsFVegt4MjnXg4JoaSo7rdGvtegRG0UX7TmDDv29npzFcCAwEAAaOBvTCBujAJ
BgNVHRMEAjAAMB0GA1UdDgQWBBTqETzRiw5uDgxd27pk3dlV+0MWtjBRBgNVHSME
SjBIgBQeIgTblP1kqARmsBMW/xPLkKzC16EapBgwFjEUMBIGA1UEAwwLdGVhbTU3
Ni1uZXSCFGhxlEt3nlTpKWdeo3cZue81FtArMBMGA1UdJQQMMAoGCCsGAQUFBwMB
MAsGA1UdDwQEAwIFoDAZBgNVHREEEjAQgg50ZWFtNTc2LXNlcnZlcjANBgkqhkiG
9w0BAQsFAAOCAQEAmtoqE1BE9gtLoiX0/i63igi8Wtau02Xl7P9OQbzDGXB7Xd05
OCmQsUSWsTZ1WjORfxcuN2/oxxviKP0DhVrG8PmCZ1KFo7oSPabXWWUtHdhuRFwp
EXPe4+JBE7PhR5HRj0a3sI6qqs1LVOFIMEsX0TcnzYXLVoSy/1vnvVxxPTQ4Etrz
Aa7qetz+wz4iZoFKNGBnpDDxJaY/AawOFUppLZ9MMt1yMaSDRd8dwWFMcPi0jUML
EytMAu13qYBsr58fKAHmqaslWtGiRuqTbxTQyGM7STX4muxyv/DHARItdstt6f7D
7f/JCnwGVT8rwjo//AvwW18hfNsOC59zIEn+ZQ==
-----END CERTIFICATE-----
