Certificate:
    Data:
        Version: 3 (0x2)
        Serial Number:
            63:61:ba:dd:32:74:e0:34:e8:14:d4:5a:28:da:c7:9b
        Signature Algorithm: sha256WithRSAEncryption
        Issuer: CN=team104-net
        Validity
            Not Before: Sep 12 23:42:01 2021 GMT
            Not After : Aug 27 23:42:01 2024 GMT
        Subject: CN=team104-client
        Subject Public Key Info:
            Public Key Algorithm: rsaEncryption
                RSA Public-Key: (2048 bit)
                Modulus:
                    00:bd:8f:03:0c:84:80:17:3d:68:50:91:f7:d9:ca:
                    aa:f8:0f:d1:47:01:9a:d0:6b:a7:19:df:9e:e5:20:
                    78:ab:ac:66:08:ce:83:31:2c:f8:05:74:06:52:70:
                    4f:b7:7a:77:8f:1c:7f:c5:0d:4e:37:32:f8:d8:96:
                    2c:16:ed:74:6d:63:f5:a2:22:5f:e9:ba:e7:7d:94:
                    03:e2:91:af:5e:56:77:1f:14:c5:29:72:8f:f8:31:
                    72:21:b5:a1:ae:2a:56:79:70:8a:3f:b1:4b:9a:e3:
                    0d:7b:77:66:ae:97:90:3e:77:36:1d:9a:2d:44:7e:
                    3d:5f:e3:c7:15:a4:97:1f:8e:a7:53:44:62:e3:7c:
                    b3:93:ae:a7:6a:c8:8f:d4:ca:4c:20:21:1b:fe:8a:
                    87:25:11:46:e5:e9:5a:ba:a8:0a:00:70:4e:d9:c2:
                    73:dd:88:aa:4e:61:b6:3c:e6:df:b4:6b:4b:89:12:
                    b8:7d:85:eb:ec:f9:63:0b:3a:7c:0f:24:33:c8:c2:
                    1c:31:38:f2:38:c7:10:b7:c8:9d:74:07:7f:f3:65:
                    dd:c1:2c:7d:fe:aa:65:04:c1:12:2c:e5:37:cc:4e:
                    75:f9:b2:74:6c:2c:79:bb:15:f8:c4:a7:df:3a:b3:
                    0c:93:5c:b2:75:bc:47:90:f4:91:79:1b:1a:98:85:
                    90:a7
                Exponent: 65537 (0x10001)
        X509v3 extensions:
            X509v3 Basic Constraints: 
                CA:FALSE
            X509v3 Subject Key Identifier: 
                5B:06:56:E3:E4:F9:E2:15:2F:1E:83:1A:36:FC:14:07:45:A6:29:36
            X509v3 Authority Key Identifier: 
                keyid:C2:0A:33:A7:7D:95:D3:7F:7F:8A:E7:DB:33:08:6A:42:A5:86:FF:5A
                DirName:/CN=team104-net
                serial:49:15:77:87:66:70:A3:43:B3:86:12:10:70:F5:2A:8B:9A:5F:B3:AE

            X509v3 Extended Key Usage: 
                TLS Web Client Authentication
            X509v3 Key Usage: 
                Digital Signature
    Signature Algorithm: sha256WithRSAEncryption
         14:b3:c9:fb:dc:bd:97:2a:3d:f3:b8:54:ae:36:8f:58:40:a5:
         4c:0f:7e:22:0c:65:94:2b:f2:e8:c0:92:96:cd:d1:83:53:8e:
         93:64:2d:09:b4:ab:12:71:f6:ec:ff:b3:8e:6d:b0:c8:a7:a1:
         b9:39:c7:c7:a3:96:5a:0a:1a:7b:42:4e:8e:5f:af:06:e6:08:
         34:f5:20:e8:44:fe:6e:01:16:00:7d:31:db:aa:91:3c:f0:a1:
         64:d3:ad:7a:ec:33:0e:88:3a:c4:74:69:a3:02:6a:22:bc:e2:
         69:f2:55:dc:5d:a9:88:c4:49:9b:17:1d:6c:4c:ac:56:ac:2e:
         6f:fd:c8:9f:6c:79:fa:75:7d:02:29:c4:7e:2c:e3:c6:53:00:
         46:01:d0:d1:72:df:36:93:09:73:52:3e:ea:d0:85:3c:cf:d6:
         13:a2:bd:61:00:b5:4f:f7:c8:75:a2:74:0c:a9:8c:bf:74:2b:
         bc:85:af:9a:c5:81:77:ab:6c:25:e9:96:05:37:e5:c7:c7:71:
         8e:e9:62:bc:e5:66:26:4c:0d:80:e8:ae:2c:84:25:6f:3d:66:
         e0:d5:9f:7f:63:b8:15:fc:3b:0d:6f:bd:03:9b:64:27:9a:68:
         e6:d1:fc:f3:3e:4f:d9:42:06:a6:c7:15:6f:4b:06:cd:17:b4:
         29:39:76:24
-----BEGIN CERTIFICATE-----
MIIDXDCCAkSgAwIBAgIQY2G63TJ04DToFNRaKNrHmzANBgkqhkiG9w0BAQsFADAW
MRQwEgYDVQQDDAt0ZWFtMTA0LW5ldDAeFw0yMTA5MTIyMzQyMDFaFw0yNDA4Mjcy
MzQyMDFaMBkxFzAVBgNVBAMMDnRlYW0xMDQtY2xpZW50MIIBIjANBgkqhkiG9w0B
AQEFAAOCAQ8AMIIBCgKCAQEAvY8DDISAFz1oUJH32cqq+A/RRwGa0GunGd+e5SB4
q6xmCM6DMSz4BXQGUnBPt3p3jxx/xQ1ONzL42JYsFu10bWP1oiJf6brnfZQD4pGv
XlZ3HxTFKXKP+DFyIbWhripWeXCKP7FLmuMNe3dmrpeQPnc2HZotRH49X+PHFaSX
H46nU0Ri43yzk66nasiP1MpMICEb/oqHJRFG5elauqgKAHBO2cJz3YiqTmG2PObf
tGtLiRK4fYXr7PljCzp8DyQzyMIcMTjyOMcQt8iddAd/82XdwSx9/qplBMESLOU3
zE51+bJ0bCx5uxX4xKffOrMMk1yydbxHkPSReRsamIWQpwIDAQABo4GiMIGfMAkG
A1UdEwQCMAAwHQYDVR0OBBYEFFsGVuPk+eIVLx6DGjb8FAdFpik2MFEGA1UdIwRK
MEiAFMIKM6d9ldN/f4rn2zMIakKlhv9aoRqkGDAWMRQwEgYDVQQDDAt0ZWFtMTA0
LW5ldIIUSRV3h2Zwo0OzhhIQcPUqi5pfs64wEwYDVR0lBAwwCgYIKwYBBQUHAwIw
CwYDVR0PBAQDAgeAMA0GCSqGSIb3DQEBCwUAA4IBAQAUs8n73L2XKj3zuFSuNo9Y
QKVMD34iDGWUK/LowJKWzdGDU46TZC0JtKsScfbs/7OObbDIp6G5OcfHo5ZaChp7
Qk6OX68G5gg09SDoRP5uARYAfTHbqpE88KFk06167DMOiDrEdGmjAmoivOJp8lXc
XamIxEmbFx1sTKxWrC5v/cifbHn6dX0CKcR+LOPGUwBGAdDRct82kwlzUj7q0IU8
z9YTor1hALVP98h1onQMqYy/dCu8ha+axYF3q2wl6ZYFN+XHx3GO6WK85WYmTA2A
6K4shCVvPWbg1Z9/Y7gV/DsNb70Dm2Qnmmjm0fzzPk/ZQgamxxVvSwbNF7QpOXYk
-----END CERTIFICATE-----
