Certificate:
    Data:
        Version: 3 (0x2)
        Serial Number:
            06:a3:16:06:b5:bd:5a:b2:e1:7f:fc:d1:b2:c9:60:0d
        Signature Algorithm: sha256WithRSAEncryption
        Issuer: CN=team316-net
        Validity
            Not Before: Sep 13 01:38:59 2021 GMT
            Not After : Aug 28 01:38:59 2024 GMT
        Subject: CN=team316-server
        Subject Public Key Info:
            Public Key Algorithm: rsaEncryption
                RSA Public-Key: (2048 bit)
                Modulus:
                    00:cc:6b:e9:43:b0:b3:3b:2a:df:14:fd:01:c3:a2:
                    90:4b:7f:e5:de:36:1c:13:c8:b9:f3:75:26:58:5a:
                    ee:82:d6:98:33:ca:f1:e0:ab:48:6c:a8:2b:c7:5a:
                    61:69:95:5f:83:8e:89:4a:3e:e9:a4:b1:fd:d8:b7:
                    2d:67:fc:26:4c:9c:00:d9:14:11:0a:91:6d:d8:98:
                    a8:e8:48:b9:9a:b1:4b:60:aa:7a:f7:6e:89:ad:82:
                    6a:69:4c:87:91:35:99:5b:e4:83:c9:58:dd:9b:98:
                    a5:be:87:c2:5a:c5:63:5d:f9:e6:42:00:21:9d:65:
                    0e:3b:fe:6b:7f:4b:ee:2d:aa:58:57:0a:8c:b8:3f:
                    ef:a9:20:14:cf:c4:07:24:bc:d9:4c:2b:c9:41:97:
                    cb:c1:b4:2f:dd:64:4d:7e:ab:df:0c:56:c6:d1:5f:
                    65:7b:87:47:5f:16:99:87:56:25:23:33:66:28:cd:
                    39:fe:b2:92:14:5e:8d:29:13:77:d5:69:bf:fd:00:
                    60:86:a8:79:08:c4:24:2b:8e:7d:eb:d6:7b:02:9b:
                    18:f0:55:36:c8:a1:58:f1:a4:6b:46:06:37:8e:57:
                    44:8f:99:29:cb:b3:fb:21:dc:93:a6:97:30:b4:36:
                    c0:ba:4d:4b:b1:3f:83:c3:13:96:0d:ed:04:0d:02:
                    91:41
                Exponent: 65537 (0x10001)
        X509v3 extensions:
            X509v3 Basic Constraints: 
                CA:FALSE
            X509v3 Subject Key Identifier: 
                3C:08:08:02:A1:AA:2B:98:21:B2:F4:4E:79:54:CA:A0:32:66:0C:F5
            X509v3 Authority Key Identifier: 
                keyid:66:AC:88:E5:CA:5B:07:01:36:74:F1:76:3B:F6:A8:4D:FE:73:74:1C
                DirName:/CN=team316-net
                serial:17:3F:3E:B7:4B:06:BF:B6:CD:F5:AF:73:39:0E:3F:9A:84:FB:A1:3D

            X509v3 Extended Key Usage: 
                TLS Web Server Authentication
            X509v3 Key Usage: 
                Digital Signature, Key Encipherment
            X509v3 Subject Alternative Name: 
                DNS:team316-server
    Signature Algorithm: sha256WithRSAEncryption
         5b:16:9c:58:7a:c3:1a:85:6b:d8:7f:67:02:df:9b:c6:ac:3b:
         f0:cc:10:f0:9d:87:77:f2:ea:03:2c:23:fb:c7:b5:3a:d8:52:
         a3:67:e0:09:98:c9:72:ed:a8:f4:fd:ee:71:c9:4b:3f:ab:be:
         52:4f:f9:7f:54:40:99:2c:f4:d8:a2:5c:e3:28:70:2d:a8:bd:
         34:19:bd:c1:24:c5:51:c3:67:8a:49:76:af:9f:ac:df:6f:1a:
         37:f4:c9:9b:d6:d2:4a:13:c6:e8:2c:b1:30:e3:8c:cb:22:a6:
         93:13:ef:e4:b7:5b:fb:77:f1:ea:6d:ad:8a:eb:05:50:bf:60:
         97:78:cb:06:58:6d:21:98:0b:59:d4:c4:9e:ac:f8:4f:bd:c9:
         46:64:e3:1b:77:3c:68:46:b2:4b:4d:f6:ab:76:b9:ce:74:f1:
         9e:5f:b9:f8:79:44:6f:bd:96:26:3b:2b:33:34:4d:88:8a:f8:
         57:04:c4:96:03:3d:dd:3b:72:d5:be:86:16:50:10:c5:f8:b2:
         94:35:ad:3a:38:98:f4:37:35:7d:c8:71:4a:4b:b8:e4:f4:e7:
         01:7d:24:45:ed:9b:0e:b1:2c:49:7e:e8:35:a8:a1:92:f4:29:
         2b:3f:90:87:02:20:a8:2d:ef:f2:b8:bb:e0:5b:43:66:d7:36:
         5f:d7:77:2c
-----BEGIN CERTIFICATE-----
MIIDdzCCAl+gAwIBAgIQBqMWBrW9WrLhf/zRsslgDTANBgkqhkiG9w0BAQsFADAW
MRQwEgYDVQQDDAt0ZWFtMzE2LW5ldDAeFw0yMTA5MTMwMTM4NTlaFw0yNDA4Mjgw
MTM4NTlaMBkxFzAVBgNVBAMMDnRlYW0zMTYtc2VydmVyMIIBIjANBgkqhkiG9w0B
AQEFAAOCAQ8AMIIBCgKCAQEAzGvpQ7CzOyrfFP0Bw6KQS3/l3jYcE8i583UmWFru
gtaYM8rx4KtIbKgrx1phaZVfg46JSj7ppLH92LctZ/wmTJwA2RQRCpFt2Jio6Ei5
mrFLYKp6926JrYJqaUyHkTWZW+SDyVjdm5ilvofCWsVjXfnmQgAhnWUOO/5rf0vu
LapYVwqMuD/vqSAUz8QHJLzZTCvJQZfLwbQv3WRNfqvfDFbG0V9le4dHXxaZh1Yl
IzNmKM05/rKSFF6NKRN31Wm//QBghqh5CMQkK45969Z7ApsY8FU2yKFY8aRrRgY3
jldEj5kpy7P7IdyTppcwtDbAuk1LsT+DwxOWDe0EDQKRQQIDAQABo4G9MIG6MAkG
A1UdEwQCMAAwHQYDVR0OBBYEFDwICAKhqiuYIbL0TnlUyqAyZgz1MFEGA1UdIwRK
MEiAFGasiOXKWwcBNnTxdjv2qE3+c3QcoRqkGDAWMRQwEgYDVQQDDAt0ZWFtMzE2
LW5ldIIUFz8+t0sGv7bN9a9zOQ4/moT7oT0wEwYDVR0lBAwwCgYIKwYBBQUHAwEw
CwYDVR0PBAQDAgWgMBkGA1UdEQQSMBCCDnRlYW0zMTYtc2VydmVyMA0GCSqGSIb3
DQEBCwUAA4IBAQBbFpxYesMahWvYf2cC35vGrDvwzBDwnYd38uoDLCP7x7U62FKj
Z+AJmMly7aj0/e5xyUs/q75ST/l/VECZLPTYolzjKHAtqL00Gb3BJMVRw2eKSXav
n6zfbxo39Mmb1tJKE8boLLEw44zLIqaTE+/kt1v7d/Hqba2K6wVQv2CXeMsGWG0h
mAtZ1MSerPhPvclGZOMbdzxoRrJLTfardrnOdPGeX7n4eURvvZYmOyszNE2IivhX
BMSWAz3dO3LVvoYWUBDF+LKUNa06OJj0NzV9yHFKS7jk9OcBfSRF7ZsOsSxJfug1
qKGS9CkrP5CHAiCoLe/yuLvgW0Nm1zZf13cs
-----END CERTIFICATE-----
