Certificate:
    Data:
        Version: 3 (0x2)
        Serial Number:
            87:67:91:dc:14:e6:00:51:15:86:26:81:e5:2e:a4:79
        Signature Algorithm: sha256WithRSAEncryption
        Issuer: CN=team751-net
        Validity
            Not Before: Sep 13 05:13:25 2021 GMT
            Not After : Aug 28 05:13:25 2024 GMT
        Subject: CN=team751-client
        Subject Public Key Info:
            Public Key Algorithm: rsaEncryption
                RSA Public-Key: (2048 bit)
                Modulus:
                    00:ca:a6:4f:f0:e5:88:e2:52:a1:e2:fc:fa:1b:dc:
                    c8:66:87:23:e0:1b:73:9e:39:40:62:b3:81:fb:24:
                    8a:44:f2:5a:e2:82:c7:97:af:b0:8f:55:aa:a0:84:
                    23:05:db:ed:e8:ed:80:fe:f1:9e:55:40:f5:9b:c9:
                    bf:0d:6a:48:7f:ee:d3:6c:55:40:34:3a:b8:13:f8:
                    9e:67:79:f8:49:75:ef:b4:d5:a7:17:e0:ec:9d:e0:
                    20:1b:2a:90:32:b9:7c:8f:9d:bd:08:15:b9:c0:66:
                    6e:67:5e:a5:04:14:f1:75:16:d0:21:9a:a4:d9:48:
                    ed:1a:a5:04:c4:5e:42:29:c9:9c:25:ed:11:d0:5a:
                    88:12:82:5f:5f:8d:70:28:05:3f:59:00:0a:34:d6:
                    d2:e0:39:fc:1d:d8:85:cf:39:c9:09:06:34:5e:02:
                    3c:44:1f:54:89:31:fa:2a:77:d0:1e:80:2e:1d:2e:
                    f3:c4:84:f3:a7:5e:95:81:c3:f6:36:d3:03:fb:f0:
                    af:37:20:f2:ca:ba:53:71:da:73:4f:73:fd:c2:19:
                    ca:1c:31:19:58:7b:9e:0e:ae:80:1f:73:db:39:f0:
                    b7:04:49:f9:e9:02:87:90:b4:17:c3:bb:e4:a7:1a:
                    6b:09:29:6b:3e:82:eb:20:e0:f9:15:cd:19:89:f4:
                    97:c1
                Exponent: 65537 (0x10001)
        X509v3 extensions:
            X509v3 Basic Constraints: 
                CA:FALSE
            X509v3 Subject Key Identifier: 
                A5:38:55:96:16:4D:B1:2F:9A:38:F8:3E:B4:92:E6:6F:D7:A3:09:D4
            X509v3 Authority Key Identifier: 
                keyid:2B:61:07:D1:1D:F2:A7:F9:A0:A0:1C:98:F5:2F:6F:6E:16:33:18:F8
                DirName:/CN=team751-net
                serial:49:90:C8:F1:D0:E3:7B:CC:E1:95:23:4F:3B:89:B4:D3:BF:A8:67:7B

            X509v3 Extended Key Usage: 
                TLS Web Client Authentication
            X509v3 Key Usage: 
                Digital Signature
    Signature Algorithm: sha256WithRSAEncryption
         32:e4:df:9d:5f:e0:2e:9b:45:35:26:56:51:c5:8b:e2:22:c0:
         cb:be:5a:b8:09:49:5f:2f:e0:32:a5:a4:ba:ed:d6:db:f7:26:
         3d:a6:0f:d8:86:9e:eb:06:e5:95:4c:04:40:30:06:a6:7c:7b:
         cb:46:99:41:92:3d:54:70:52:58:9e:68:78:7a:44:78:8b:f7:
         59:50:82:4c:b5:fd:9e:6d:a6:70:86:f0:fc:07:b8:35:1e:fa:
         67:5d:93:88:a0:cb:b1:a4:f5:0e:1b:b4:f2:36:1d:5c:b2:53:
         96:84:07:8c:7e:d7:a3:21:0d:95:5c:e2:bb:bb:6b:d7:af:21:
         d4:69:c0:30:09:61:ea:7a:ad:9b:10:17:28:86:53:bf:e2:1c:
         e9:8e:40:61:00:89:e9:e1:ea:85:32:f5:6e:40:2a:c0:fa:4b:
         f5:13:08:99:e1:89:82:e4:fd:0d:8c:a3:6c:17:a0:a1:05:32:
         92:9f:ef:58:a1:06:73:d6:1d:41:4a:4a:c2:4d:ec:df:45:1a:
         62:2e:28:a4:90:f1:72:56:ab:52:57:2c:7d:8c:b1:62:81:59:
         4a:b2:e6:1e:72:31:61:44:86:19:63:df:82:8d:3c:74:a7:31:
         f5:62:52:46:54:06:75:33:b2:52:65:39:57:af:38:1e:3a:b3:
         42:95:ae:47
-----BEGIN CERTIFICATE-----
MIIDXTCCAkWgAwIBAgIRAIdnkdwU5gBRFYYmgeUupHkwDQYJKoZIhvcNAQELBQAw
FjEUMBIGA1UEAwwLdGVhbTc1MS1uZXQwHhcNMjEwOTEzMDUxMzI1WhcNMjQwODI4
MDUxMzI1WjAZMRcwFQYDVQQDDA50ZWFtNzUxLWNsaWVudDCCASIwDQYJKoZIhvcN
AQEBBQADggEPADCCAQoCggEBAMqmT/DliOJSoeL8+hvcyGaHI+Abc545QGKzgfsk
ikTyWuKCx5evsI9VqqCEIwXb7ejtgP7xnlVA9ZvJvw1qSH/u02xVQDQ6uBP4nmd5
+El177TVpxfg7J3gIBsqkDK5fI+dvQgVucBmbmdepQQU8XUW0CGapNlI7RqlBMRe
QinJnCXtEdBaiBKCX1+NcCgFP1kACjTW0uA5/B3Yhc85yQkGNF4CPEQfVIkx+ip3
0B6ALh0u88SE86delYHD9jbTA/vwrzcg8sq6U3Hac09z/cIZyhwxGVh7ng6ugB9z
2znwtwRJ+ekCh5C0F8O75Kcaawkpaz6C6yDg+RXNGYn0l8ECAwEAAaOBojCBnzAJ
BgNVHRMEAjAAMB0GA1UdDgQWBBSlOFWWFk2xL5o4+D60kuZv16MJ1DBRBgNVHSME
SjBIgBQrYQfRHfKn+aCgHJj1L29uFjMY+KEapBgwFjEUMBIGA1UEAwwLdGVhbTc1
MS1uZXSCFEmQyPHQ43vM4ZUjTzuJtNO/qGd7MBMGA1UdJQQMMAoGCCsGAQUFBwMC
MAsGA1UdDwQEAwIHgDANBgkqhkiG9w0BAQsFAAOCAQEAMuTfnV/gLptFNSZWUcWL
4iLAy75auAlJXy/gMqWkuu3W2/cmPaYP2Iae6wbllUwEQDAGpnx7y0aZQZI9VHBS
WJ5oeHpEeIv3WVCCTLX9nm2mcIbw/Ae4NR76Z12TiKDLsaT1Dhu08jYdXLJTloQH
jH7XoyENlVziu7tr168h1GnAMAlh6nqtmxAXKIZTv+Ic6Y5AYQCJ6eHqhTL1bkAq
wPpL9RMImeGJguT9DYyjbBegoQUykp/vWKEGc9YdQUpKwk3s30UaYi4opJDxclar
UlcsfYyxYoFZSrLmHnIxYUSGGWPfgo08dKcx9WJSRlQGdTOyUmU5V684HjqzQpWu
Rw==
-----END CERTIFICATE-----
