Certificate:
    Data:
        Version: 3 (0x2)
        Serial Number:
            41:9f:e3:27:a2:0a:63:68:67:ea:85:a9:ad:a8:5d:a3
        Signature Algorithm: sha256WithRSAEncryption
        Issuer: CN=team375-net
        Validity
            Not Before: Sep 13 02:06:25 2021 GMT
            Not After : Aug 28 02:06:25 2024 GMT
        Subject: CN=team375-client
        Subject Public Key Info:
            Public Key Algorithm: rsaEncryption
                RSA Public-Key: (2048 bit)
                Modulus:
                    00:bc:a9:10:09:7c:9d:16:35:db:70:18:b7:8d:3d:
                    40:33:bc:e6:1e:67:60:cf:8c:15:0c:26:20:d4:e5:
                    c8:b3:d2:98:de:3a:3b:9a:06:70:8f:3b:3c:90:c3:
                    33:64:ef:db:c8:bd:55:85:45:75:11:6f:31:89:e9:
                    8b:8b:cf:85:12:01:01:c4:27:17:61:04:28:93:c3:
                    a8:ca:b8:f2:bf:5f:5f:48:3a:18:47:e0:a1:1c:15:
                    7b:f5:17:60:8a:bc:61:e4:bd:e6:6a:70:9a:a9:03:
                    e2:7d:25:bd:f6:1b:f4:d9:dd:86:10:06:e4:2f:7c:
                    ba:5d:aa:95:af:d7:91:c5:a1:c5:31:7a:51:d7:3f:
                    db:33:5e:36:b4:c7:ec:51:f6:35:01:10:cb:a5:3c:
                    54:cb:01:1c:86:34:d6:a5:21:9d:71:9a:e2:45:f4:
                    86:f3:e7:97:6d:c5:3a:f9:fe:fc:ce:33:c7:23:1c:
                    d6:0a:99:fe:f4:ab:b6:ef:df:e7:89:2c:be:0f:a8:
                    32:8f:b6:90:97:36:79:5a:b2:e1:7e:1c:30:d8:95:
                    5f:b0:65:6a:5d:13:9f:d1:ba:01:27:4f:bc:9f:d8:
                    72:54:16:05:cc:2d:c3:6d:da:e0:f4:2c:c1:90:7c:
                    3d:0b:ef:b3:d7:bc:15:ac:a9:c5:1a:07:b0:4b:a9:
                    7c:bf
                Exponent: 65537 (0x10001)
        X509v3 extensions:
            X509v3 Basic Constraints: 
                CA:FALSE
            X509v3 Subject Key Identifier: 
                BE:1D:B7:5E:7C:A7:6E:60:13:3A:8B:7C:1F:CC:D3:AA:AD:EC:CF:B1
            X509v3 Authority Key Identifier: 
                keyid:34:6C:93:EF:FB:BA:70:5C:D5:B9:C0:90:2F:40:E0:97:45:CE:8B:65
                DirName:/CN=team375-net
                serial:02:EB:56:25:D9:53:09:2F:0B:08:3A:EB:C9:48:3F:B6:FA:EB:75:CB

            X509v3 Extended Key Usage: 
                TLS Web Client Authentication
            X509v3 Key Usage: 
                Digital Signature
    Signature Algorithm: sha256WithRSAEncryption
         55:8a:27:01:ed:d7:7e:78:69:48:c4:87:80:02:01:5d:35:45:
         a8:e6:27:96:e3:ce:8c:c8:3b:5d:b2:1b:07:2c:f0:12:1e:6e:
         0d:f9:2d:04:8b:fb:e9:7e:d1:7b:f5:c7:f8:fe:2a:84:70:c2:
         49:8b:e5:cf:ea:a1:67:9a:b6:cf:33:03:0a:b4:2e:c9:8c:83:
         0a:2e:4e:9e:f7:ff:94:23:18:1b:1c:97:a4:a5:f3:a0:d1:63:
         3d:87:ad:ce:2c:7d:73:82:89:ce:e8:3b:8f:24:91:28:6b:ee:
         0d:6a:e4:ff:ab:c4:0c:0c:7b:39:76:fd:ee:4c:cf:0f:64:8f:
         e3:b6:6b:5d:f7:e9:b5:4d:d8:93:82:dd:1a:29:b6:7a:03:bc:
         09:92:e8:7f:52:af:ce:87:6f:04:84:6b:a2:2f:7d:d4:84:b7:
         5e:78:05:61:64:24:7d:37:ef:f7:e0:68:a4:f0:5c:c7:6d:1d:
         f4:fe:dd:ff:9a:e8:77:2f:b0:ac:58:9a:04:93:44:90:83:75:
         64:9b:e2:52:70:b1:d4:cc:14:5c:87:2a:31:94:47:a4:63:21:
         e9:e6:dd:9b:07:81:32:68:77:da:2b:3f:fb:18:89:16:3c:e4:
         c7:08:e0:98:d7:7f:bd:0f:36:45:fd:ac:16:3f:4c:20:a8:59:
         c3:ef:50:32
-----BEGIN CERTIFICATE-----
MIIDXDCCAkSgAwIBAgIQQZ/jJ6IKY2hn6oWprahdozANBgkqhkiG9w0BAQsFADAW
MRQwEgYDVQQDDAt0ZWFtMzc1LW5ldDAeFw0yMTA5MTMwMjA2MjVaFw0yNDA4Mjgw
MjA2MjVaMBkxFzAVBgNVBAMMDnRlYW0zNzUtY2xpZW50MIIBIjANBgkqhkiG9w0B
AQEFAAOCAQ8AMIIBCgKCAQEAvKkQCXydFjXbcBi3jT1AM7zmHmdgz4wVDCYg1OXI
s9KY3jo7mgZwjzs8kMMzZO/byL1VhUV1EW8xiemLi8+FEgEBxCcXYQQok8Ooyrjy
v19fSDoYR+ChHBV79Rdgirxh5L3manCaqQPifSW99hv02d2GEAbkL3y6XaqVr9eR
xaHFMXpR1z/bM142tMfsUfY1ARDLpTxUywEchjTWpSGdcZriRfSG8+eXbcU6+f78
zjPHIxzWCpn+9Ku279/niSy+D6gyj7aQlzZ5WrLhfhww2JVfsGVqXROf0boBJ0+8
n9hyVBYFzC3Dbdrg9CzBkHw9C++z17wVrKnFGgewS6l8vwIDAQABo4GiMIGfMAkG
A1UdEwQCMAAwHQYDVR0OBBYEFL4dt158p25gEzqLfB/M06qt7M+xMFEGA1UdIwRK
MEiAFDRsk+/7unBc1bnAkC9A4JdFzotloRqkGDAWMRQwEgYDVQQDDAt0ZWFtMzc1
LW5ldIIUAutWJdlTCS8LCDrryUg/tvrrdcswEwYDVR0lBAwwCgYIKwYBBQUHAwIw
CwYDVR0PBAQDAgeAMA0GCSqGSIb3DQEBCwUAA4IBAQBViicB7dd+eGlIxIeAAgFd
NUWo5ieW486MyDtdshsHLPASHm4N+S0Ei/vpftF79cf4/iqEcMJJi+XP6qFnmrbP
MwMKtC7JjIMKLk6e9/+UIxgbHJekpfOg0WM9h63OLH1zgonO6DuPJJEoa+4NauT/
q8QMDHs5dv3uTM8PZI/jtmtd9+m1TdiTgt0aKbZ6A7wJkuh/Uq/Oh28EhGuiL33U
hLdeeAVhZCR9N+/34Gik8FzHbR30/t3/muh3L7CsWJoEk0SQg3Vkm+JScLHUzBRc
hyoxlEekYyHp5t2bB4EyaHfaKz/7GIkWPOTHCOCY13+9DzZF/awWP0wgqFnD71Ay
-----END CERTIFICATE-----
