Certificate:
    Data:
        Version: 3 (0x2)
        Serial Number:
            1e:8f:f2:83:56:2d:6b:56:5b:55:42:4b:a8:70:62:8e
        Signature Algorithm: sha256WithRSAEncryption
        Issuer: CN=team564-net
        Validity
            Not Before: Sep 13 03:54:24 2021 GMT
            Not After : Aug 28 03:54:24 2024 GMT
        Subject: CN=team564-client
        Subject Public Key Info:
            Public Key Algorithm: rsaEncryption
                RSA Public-Key: (2048 bit)
                Modulus:
                    00:e5:c6:d4:45:1c:1d:c9:69:f3:51:45:ad:bb:29:
                    37:b3:bb:9a:ca:df:df:26:af:de:2b:28:8a:c4:c8:
                    4b:58:79:01:82:f5:2f:f3:71:b3:46:89:92:4f:1c:
                    19:59:6f:45:31:49:2a:e1:9b:42:73:fa:3d:09:ee:
                    ed:d1:d8:dd:e3:de:86:c9:44:01:3c:07:cf:90:49:
                    7d:49:a9:cb:8a:27:4a:09:ea:fb:07:74:8d:ed:ab:
                    cd:29:30:70:ce:2e:ad:e4:82:43:b2:63:d9:9d:63:
                    16:90:aa:12:bb:6c:e0:6f:e6:a4:0a:00:5c:5e:d6:
                    5f:f6:03:1f:0b:67:21:fe:22:0d:f9:fc:d0:34:e8:
                    87:12:eb:48:82:6d:2a:8e:85:bf:f3:a8:49:da:7b:
                    37:cf:63:cd:5a:1f:c5:78:2d:1d:1b:d3:9f:ab:a3:
                    28:57:d2:4e:f8:62:8b:74:13:88:e0:39:a9:a7:25:
                    65:df:5b:ea:d6:1a:8f:77:3b:2d:6b:9c:be:c4:e2:
                    4b:14:e9:aa:db:19:15:22:28:dd:a9:cb:6c:34:96:
                    66:1a:9b:87:54:13:2b:73:34:a7:1f:af:65:07:b0:
                    54:51:39:23:bd:6b:43:33:60:05:60:d6:ec:f8:d3:
                    fe:c6:23:de:8c:6e:07:83:5c:02:17:42:0c:70:2c:
                    5d:25
                Exponent: 65537 (0x10001)
        X509v3 extensions:
            X509v3 Basic Constraints: 
                CA:FALSE
            X509v3 Subject Key Identifier: 
                74:FA:DE:6B:22:D9:12:CE:DC:A8:7C:51:D7:B7:54:EA:FD:22:A1:C3
            X509v3 Authority Key Identifier: 
                keyid:FA:D9:63:3B:E8:AD:28:A9:C6:34:55:FC:82:38:06:BE:3C:47:EA:BD
                DirName:/CN=team564-net
                serial:03:E1:62:F3:99:19:95:06:50:11:FD:28:8F:A9:77:06:26:7E:8C:DA

            X509v3 Extended Key Usage: 
                TLS Web Client Authentication
            X509v3 Key Usage: 
                Digital Signature
    Signature Algorithm: sha256WithRSAEncryption
         a3:bf:a4:da:b9:d4:36:23:04:f0:8f:d8:65:e8:ad:d5:08:46:
         b8:02:a6:cc:f5:19:d9:16:79:45:f3:eb:5a:e5:89:c4:ab:0e:
         6d:fa:64:d5:81:e8:f2:b3:c3:a6:b1:f2:dd:6d:d8:64:e7:dc:
         14:78:26:bf:76:c6:9e:77:50:0c:80:99:56:a9:2b:47:7f:86:
         a4:95:a1:44:a9:b7:f7:0a:c0:90:30:3b:3b:e2:9b:72:db:5d:
         f0:e1:9b:df:71:9d:f3:80:e6:32:9d:5a:65:18:dd:0c:32:f6:
         de:27:3c:63:a2:d1:1a:02:ed:0c:f6:55:ba:f3:2d:1c:0a:36:
         c4:fe:01:9e:f1:05:06:98:b3:83:7f:cc:a7:94:e9:39:45:b9:
         0b:55:56:5b:b6:bb:d4:29:d1:aa:1a:cd:c9:7d:7a:72:9a:8e:
         42:b3:77:66:16:46:60:ac:98:b1:fd:98:7e:14:29:ba:4e:e7:
         c7:b5:27:f2:7d:cf:fd:96:33:9c:07:2f:bc:7a:f3:6e:a0:3b:
         3a:68:43:92:ac:50:b7:71:bc:08:f4:c0:a5:df:fb:29:a2:e6:
         22:46:75:77:34:1d:e9:a7:b2:d6:17:28:36:7a:5e:4d:ce:65:
         1e:22:fb:82:91:5d:b3:e2:e1:7d:38:58:cb:19:87:f4:22:ec:
         5b:35:84:dd
-----BEGIN CERTIFICATE-----
MIIDXDCCAkSgAwIBAgIQHo/yg1Yta1ZbVUJLqHBijjANBgkqhkiG9w0BAQsFADAW
MRQwEgYDVQQDDAt0ZWFtNTY0LW5ldDAeFw0yMTA5MTMwMzU0MjRaFw0yNDA4Mjgw
MzU0MjRaMBkxFzAVBgNVBAMMDnRlYW01NjQtY2xpZW50MIIBIjANBgkqhkiG9w0B
AQEFAAOCAQ8AMIIBCgKCAQEA5cbURRwdyWnzUUWtuyk3s7uayt/fJq/eKyiKxMhL
WHkBgvUv83GzRomSTxwZWW9FMUkq4ZtCc/o9Ce7t0djd496GyUQBPAfPkEl9SanL
iidKCer7B3SN7avNKTBwzi6t5IJDsmPZnWMWkKoSu2zgb+akCgBcXtZf9gMfC2ch
/iIN+fzQNOiHEutIgm0qjoW/86hJ2ns3z2PNWh/FeC0dG9Ofq6MoV9JO+GKLdBOI
4DmppyVl31vq1hqPdzsta5y+xOJLFOmq2xkVIijdqctsNJZmGpuHVBMrczSnH69l
B7BUUTkjvWtDM2AFYNbs+NP+xiPejG4Hg1wCF0IMcCxdJQIDAQABo4GiMIGfMAkG
A1UdEwQCMAAwHQYDVR0OBBYEFHT63msi2RLO3Kh8Ude3VOr9IqHDMFEGA1UdIwRK
MEiAFPrZYzvorSipxjRV/II4Br48R+q9oRqkGDAWMRQwEgYDVQQDDAt0ZWFtNTY0
LW5ldIIUA+Fi85kZlQZQEf0oj6l3BiZ+jNowEwYDVR0lBAwwCgYIKwYBBQUHAwIw
CwYDVR0PBAQDAgeAMA0GCSqGSIb3DQEBCwUAA4IBAQCjv6TaudQ2IwTwj9hl6K3V
CEa4AqbM9RnZFnlF8+ta5YnEqw5t+mTVgejys8OmsfLdbdhk59wUeCa/dsaed1AM
gJlWqStHf4aklaFEqbf3CsCQMDs74pty213w4ZvfcZ3zgOYynVplGN0MMvbeJzxj
otEaAu0M9lW68y0cCjbE/gGe8QUGmLODf8ynlOk5RbkLVVZbtrvUKdGqGs3JfXpy
mo5Cs3dmFkZgrJix/Zh+FCm6TufHtSfyfc/9ljOcBy+8evNuoDs6aEOSrFC3cbwI
9MCl3/spouYiRnV3NB3pp7LWFyg2el5NzmUeIvuCkV2z4uF9OFjLGYf0IuxbNYTd
-----END CERTIFICATE-----
