Certificate:
    Data:
        Version: 3 (0x2)
        Serial Number:
            08:d6:ee:01:cc:b9:c0:c3:a8:c2:f3:ee:f7:67:91:84
        Signature Algorithm: sha256WithRSAEncryption
        Issuer: CN=team231-net
        Validity
            Not Before: Sep 13 00:53:11 2021 GMT
            Not After : Aug 28 00:53:11 2024 GMT
        Subject: CN=team231-server
        Subject Public Key Info:
            Public Key Algorithm: rsaEncryption
                RSA Public-Key: (2048 bit)
                Modulus:
                    00:ab:2b:dd:fd:f5:3b:83:a6:ea:f8:f1:0b:3e:ff:
                    ab:01:9c:b1:af:f7:cb:c6:c7:c1:b8:4c:e2:ca:3a:
                    93:bf:0c:61:fd:43:af:cd:a4:b0:98:28:fa:1c:3b:
                    e2:d4:3f:c6:71:6e:c5:d2:db:d9:26:21:7b:6f:b5:
                    0c:b8:09:ff:b2:c3:4f:6f:f0:d4:d5:01:79:71:5d:
                    ea:7d:06:df:dc:44:d4:a6:55:88:29:63:37:69:36:
                    9e:14:5f:66:1f:e7:e7:d5:fa:10:36:bb:13:ef:6a:
                    ad:0b:e8:c0:3f:98:c1:78:66:ad:2c:7e:b4:42:44:
                    d0:14:b1:5b:71:d2:10:47:fd:bc:88:f3:9e:71:b1:
                    1a:cc:f0:ee:9e:76:64:c7:7c:5f:89:ab:ac:48:e1:
                    bf:7d:c9:aa:a4:60:c5:62:20:4e:1e:20:15:38:4a:
                    41:91:db:31:e1:c0:14:be:28:0f:22:b5:b4:47:47:
                    f5:7a:ac:63:91:e9:c2:7b:be:ba:4e:64:51:72:53:
                    76:1a:bb:18:3e:51:eb:d8:aa:a9:63:f9:30:6d:63:
                    ef:a9:f6:fb:57:e8:e5:64:f7:6d:0b:4f:95:02:6e:
                    fa:1e:47:4b:88:12:fd:69:50:6b:f6:d4:a4:af:57:
                    bf:6b:fa:93:de:7e:a9:05:51:49:5b:a6:4f:12:20:
                    e2:37
                Exponent: 65537 (0x10001)
        X509v3 extensions:
            X509v3 Basic Constraints: 
                CA:FALSE
            X509v3 Subject Key Identifier: 
                B6:31:1A:A5:F2:21:68:F2:7C:B1:E7:52:CA:5D:8E:12:F1:86:F6:44
            X509v3 Authority Key Identifier: 
                keyid:EC:FE:06:8C:FE:CD:F0:12:CC:A4:13:0E:D4:B1:ED:76:59:E9:07:D5
                DirName:/CN=team231-net
                serial:27:AF:D1:E8:0C:89:06:2A:20:78:03:03:66:05:7B:95:30:DD:34:8D

            X509v3 Extended Key Usage: 
                TLS Web Server Authentication
            X509v3 Key Usage: 
                Digital Signature, Key Encipherment
            X509v3 Subject Alternative Name: 
                DNS:team231-server
    Signature Algorithm: sha256WithRSAEncryption
         7f:b6:9a:ae:06:bc:cb:0d:ac:a7:0c:f4:c7:aa:f3:32:4b:e0:
         84:91:48:6c:e0:3c:d5:9f:18:2e:ee:c1:0c:80:7e:40:8e:df:
         6e:d5:cd:88:4f:93:38:30:f8:75:a7:4e:7b:f6:d7:ec:f6:b9:
         ee:a5:ab:1e:3e:33:df:56:79:14:7a:a8:79:51:ff:56:e6:c3:
         49:72:54:bb:e0:91:71:da:18:c0:a8:6a:cb:f6:cb:b6:6b:7c:
         fd:3a:ca:f4:46:e6:9a:cf:30:a0:e3:a1:88:8c:c9:c4:20:bc:
         c7:46:06:a5:db:59:4b:65:b5:f6:6f:66:44:77:7a:4c:1e:f9:
         9e:37:2b:81:7e:46:94:25:e9:b2:e1:0f:08:66:cf:84:37:bb:
         55:58:4e:58:87:bc:18:42:ae:2f:55:ad:7a:b4:01:1c:22:3f:
         e8:0b:d9:2a:94:84:5b:8b:73:42:6d:2d:bc:82:b4:8f:82:49:
         dd:1d:ef:0d:8f:2b:b6:cb:f2:e0:8d:29:f4:e8:3f:43:52:ee:
         e3:79:5e:9c:85:e3:68:f3:90:32:68:4c:ed:a4:ef:3d:9d:8c:
         e5:f6:eb:ff:c4:76:e8:cc:37:28:ec:87:b3:1b:71:2c:98:2f:
         eb:ca:ac:ad:33:be:07:6d:e0:c1:ae:68:f2:92:53:a0:e0:0e:
         62:0c:86:4b
-----BEGIN CERTIFICATE-----
MIIDdzCCAl+gAwIBAgIQCNbuAcy5wMOowvPu92eRhDANBgkqhkiG9w0BAQsFADAW
MRQwEgYDVQQDDAt0ZWFtMjMxLW5ldDAeFw0yMTA5MTMwMDUzMTFaFw0yNDA4Mjgw
MDUzMTFaMBkxFzAVBgNVBAMMDnRlYW0yMzEtc2VydmVyMIIBIjANBgkqhkiG9w0B
AQEFAAOCAQ8AMIIBCgKCAQEAqyvd/fU7g6bq+PELPv+rAZyxr/fLxsfBuEziyjqT
vwxh/UOvzaSwmCj6HDvi1D/GcW7F0tvZJiF7b7UMuAn/ssNPb/DU1QF5cV3qfQbf
3ETUplWIKWM3aTaeFF9mH+fn1foQNrsT72qtC+jAP5jBeGatLH60QkTQFLFbcdIQ
R/28iPOecbEazPDunnZkx3xfiausSOG/fcmqpGDFYiBOHiAVOEpBkdsx4cAUvigP
IrW0R0f1eqxjkenCe766TmRRclN2GrsYPlHr2KqpY/kwbWPvqfb7V+jlZPdtC0+V
Am76HkdLiBL9aVBr9tSkr1e/a/qT3n6pBVFJW6ZPEiDiNwIDAQABo4G9MIG6MAkG
A1UdEwQCMAAwHQYDVR0OBBYEFLYxGqXyIWjyfLHnUspdjhLxhvZEMFEGA1UdIwRK
MEiAFOz+Boz+zfASzKQTDtSx7XZZ6QfVoRqkGDAWMRQwEgYDVQQDDAt0ZWFtMjMx
LW5ldIIUJ6/R6AyJBiogeAMDZgV7lTDdNI0wEwYDVR0lBAwwCgYIKwYBBQUHAwEw
CwYDVR0PBAQDAgWgMBkGA1UdEQQSMBCCDnRlYW0yMzEtc2VydmVyMA0GCSqGSIb3
DQEBCwUAA4IBAQB/tpquBrzLDaynDPTHqvMyS+CEkUhs4DzVnxgu7sEMgH5Ajt9u
1c2IT5M4MPh1p0579tfs9rnupasePjPfVnkUeqh5Uf9W5sNJclS74JFx2hjAqGrL
9su2a3z9Osr0RuaazzCg46GIjMnEILzHRgal21lLZbX2b2ZEd3pMHvmeNyuBfkaU
Jemy4Q8IZs+EN7tVWE5Yh7wYQq4vVa16tAEcIj/oC9kqlIRbi3NCbS28grSPgknd
He8Njyu2y/LgjSn06D9DUu7jeV6cheNo85AyaEztpO89nYzl9uv/xHbozDco7Iez
G3EsmC/ryqytM74HbeDBrmjyklOg4A5iDIZL
-----END CERTIFICATE-----
