Certificate:
    Data:
        Version: 3 (0x2)
        Serial Number:
            eb:b7:94:3e:aa:45:16:81:8a:37:18:1b:8d:c7:ef:ec
        Signature Algorithm: sha256WithRSAEncryption
        Issuer: CN=team627-net
        Validity
            Not Before: Sep 13 04:12:37 2021 GMT
            Not After : Aug 28 04:12:37 2024 GMT
        Subject: CN=team627-client
        Subject Public Key Info:
            Public Key Algorithm: rsaEncryption
                RSA Public-Key: (2048 bit)
                Modulus:
                    00:c0:99:84:9a:e9:34:82:69:49:6d:b2:97:a2:93:
                    e3:ec:73:9e:89:06:29:82:51:44:5f:2a:3b:a8:e3:
                    5b:ab:93:80:04:79:7c:b3:27:6f:0d:f6:d5:95:45:
                    00:29:c3:b8:9a:b4:4a:e6:b2:9d:4e:9a:7f:7c:70:
                    23:06:0b:ba:60:26:cd:c5:f7:87:c5:b1:ab:ae:82:
                    ba:10:f9:d7:4d:bf:7d:27:de:bf:1b:23:21:1f:ea:
                    5a:3a:4f:44:3b:1c:b3:25:35:df:42:14:11:64:9b:
                    1c:e4:51:67:b2:21:ef:25:a0:b2:74:d9:46:95:97:
                    67:e5:f9:03:41:97:5e:15:fc:d8:07:3f:39:5f:1b:
                    97:a2:f0:40:2a:26:08:87:c6:ce:c8:09:e0:a4:42:
                    91:e1:23:83:83:03:1c:3e:e7:43:55:25:dc:34:70:
                    57:e2:79:3c:a2:0a:97:1f:1c:60:c8:69:d9:9d:9a:
                    8b:2e:84:45:df:04:db:4e:1a:db:22:43:1a:0e:76:
                    7c:a3:2a:7d:c7:58:eb:24:e9:29:4b:08:50:86:d5:
                    fb:bd:74:bd:55:9e:3c:27:33:a7:e4:af:09:a2:b0:
                    e1:ef:5e:84:8f:40:2e:5b:9d:ab:69:be:b8:6b:43:
                    e0:b5:ba:38:f5:61:1d:32:17:97:07:c6:1f:f8:b9:
                    95:09
                Exponent: 65537 (0x10001)
        X509v3 extensions:
            X509v3 Basic Constraints: 
                CA:FALSE
            X509v3 Subject Key Identifier: 
                6D:EC:57:2A:92:0E:DA:62:9D:64:BE:47:B1:0F:41:EA:C4:80:47:56
            X509v3 Authority Key Identifier: 
                keyid:02:08:62:6D:9D:82:77:7C:44:0C:7D:22:19:16:DA:52:DA:9B:B4:13
                DirName:/CN=team627-net
                serial:31:45:D6:5E:E1:C3:FF:E2:6F:2C:96:76:0F:78:33:88:28:33:2B:24

            X509v3 Extended Key Usage: 
                TLS Web Client Authentication
            X509v3 Key Usage: 
                Digital Signature
    Signature Algorithm: sha256WithRSAEncryption
         8d:cd:32:84:88:f1:cb:93:9d:b8:4c:cf:b3:f9:d5:54:41:86:
         2c:84:f2:e4:61:9b:f8:98:a7:fa:92:b0:f1:f8:9b:52:88:29:
         8d:38:27:1b:2a:37:2c:10:b9:27:2a:ae:b9:f8:2d:ed:7c:83:
         87:ee:1d:80:25:75:19:8e:30:34:5b:54:6c:54:3b:2f:2a:5a:
         4b:c1:81:77:01:26:a7:c8:eb:51:45:8a:a2:c7:c7:38:fc:8e:
         67:99:60:ce:2b:38:8a:e1:b6:61:c4:25:e0:a5:07:e4:e3:27:
         3a:36:cd:d4:c4:b9:aa:fe:3d:bc:e5:bd:6c:d5:44:d1:b5:c0:
         1a:18:a2:6a:2c:48:cc:c0:40:31:f1:7f:49:c1:c1:bf:dd:99:
         06:d5:29:c6:cd:9b:38:f0:ba:31:c0:5f:0c:9f:90:6c:07:c9:
         6e:15:cc:cf:f6:54:f4:8c:3e:45:e5:28:e8:0f:a5:1d:55:62:
         8f:64:cd:a5:a1:1f:d9:dc:e8:97:b7:94:70:b7:b7:ae:1d:a4:
         7c:3a:19:6d:a8:3f:91:00:8c:09:8f:45:92:cc:e4:de:ac:7d:
         f9:09:7f:8a:f0:76:f4:12:10:42:ce:1a:c8:aa:3f:ec:50:bc:
         c5:4b:94:3b:88:a7:0f:0c:a7:7f:c3:b0:d9:39:99:f7:6c:47:
         d6:59:0d:09
-----BEGIN CERTIFICATE-----
MIIDXTCCAkWgAwIBAgIRAOu3lD6qRRaBijcYG43H7+wwDQYJKoZIhvcNAQELBQAw
FjEUMBIGA1UEAwwLdGVhbTYyNy1uZXQwHhcNMjEwOTEzMDQxMjM3WhcNMjQwODI4
MDQxMjM3WjAZMRcwFQYDVQQDDA50ZWFtNjI3LWNsaWVudDCCASIwDQYJKoZIhvcN
AQEBBQADggEPADCCAQoCggEBAMCZhJrpNIJpSW2yl6KT4+xznokGKYJRRF8qO6jj
W6uTgAR5fLMnbw321ZVFACnDuJq0SuaynU6af3xwIwYLumAmzcX3h8Wxq66CuhD5
102/fSfevxsjIR/qWjpPRDscsyU130IUEWSbHORRZ7Ih7yWgsnTZRpWXZ+X5A0GX
XhX82Ac/OV8bl6LwQComCIfGzsgJ4KRCkeEjg4MDHD7nQ1Ul3DRwV+J5PKIKlx8c
YMhp2Z2aiy6ERd8E204a2yJDGg52fKMqfcdY6yTpKUsIUIbV+710vVWePCczp+Sv
CaKw4e9ehI9ALludq2m+uGtD4LW6OPVhHTIXlwfGH/i5lQkCAwEAAaOBojCBnzAJ
BgNVHRMEAjAAMB0GA1UdDgQWBBRt7Fcqkg7aYp1kvkexD0HqxIBHVjBRBgNVHSME
SjBIgBQCCGJtnYJ3fEQMfSIZFtpS2pu0E6EapBgwFjEUMBIGA1UEAwwLdGVhbTYy
Ny1uZXSCFDFF1l7hw//ibyyWdg94M4goMyskMBMGA1UdJQQMMAoGCCsGAQUFBwMC
MAsGA1UdDwQEAwIHgDANBgkqhkiG9w0BAQsFAAOCAQEAjc0yhIjxy5OduEzPs/nV
VEGGLITy5GGb+Jin+pKw8fibUogpjTgnGyo3LBC5Jyquufgt7XyDh+4dgCV1GY4w
NFtUbFQ7LypaS8GBdwEmp8jrUUWKosfHOPyOZ5lgzis4iuG2YcQl4KUH5OMnOjbN
1MS5qv49vOW9bNVE0bXAGhiiaixIzMBAMfF/ScHBv92ZBtUpxs2bOPC6McBfDJ+Q
bAfJbhXMz/ZU9Iw+ReUo6A+lHVVij2TNpaEf2dzol7eUcLe3rh2kfDoZbag/kQCM
CY9Fkszk3qx9+Ql/ivB29BIQQs4ayKo/7FC8xUuUO4inDwynf8Ow2TmZ92xH1lkN
CQ==
-----END CERTIFICATE-----
