Certificate:
    Data:
        Version: 3 (0x2)
        Serial Number:
            ce:cf:0a:a7:01:e1:6c:db:5d:82:38:46:81:66:e7:6d
        Signature Algorithm: sha256WithRSAEncryption
        Issuer: CN=team741-net
        Validity
            Not Before: Sep 13 05:08:04 2021 GMT
            Not After : Aug 28 05:08:04 2024 GMT
        Subject: CN=team741-server
        Subject Public Key Info:
            Public Key Algorithm: rsaEncryption
                RSA Public-Key: (2048 bit)
                Modulus:
                    00:d0:0b:89:bc:13:ff:e9:92:54:35:48:ae:c8:c9:
                    a5:de:d6:cf:d5:81:3c:6f:96:2c:29:22:34:d2:a0:
                    f9:f0:88:aa:81:02:27:41:f2:aa:b5:9c:ac:c4:44:
                    8a:0c:9f:9a:14:97:4f:5d:60:09:b1:62:8b:d3:9f:
                    da:b6:f6:94:50:28:82:46:8f:b9:ef:d6:a1:eb:0f:
                    ee:c5:cc:23:47:6b:ad:db:0a:2e:3e:6e:1e:b6:18:
                    c0:4d:43:dc:7b:4a:07:16:ea:98:9f:aa:5b:de:3d:
                    08:4d:5b:40:82:93:67:ff:0b:ca:64:a8:98:b0:d9:
                    27:78:68:e6:d0:03:02:d7:d5:a2:14:1f:9f:bc:c5:
                    97:e2:0d:aa:d5:a6:65:41:33:ca:af:ac:f1:13:0a:
                    b9:76:07:11:03:fc:1e:98:a0:fb:98:6c:40:cb:3e:
                    6f:e1:a6:97:eb:b8:64:4f:42:3f:48:2b:c0:e0:e9:
                    f2:78:8f:f5:1d:7a:4d:5f:72:2e:90:d1:cf:87:1a:
                    9e:7f:0d:3f:a3:47:69:08:70:39:d5:f6:58:0d:b1:
                    32:3c:b0:a7:7d:60:19:e0:78:72:d1:3d:cd:1f:80:
                    f7:ec:94:df:6d:95:76:bc:fa:b3:3a:42:26:25:37:
                    92:2c:4a:86:b2:02:6b:1c:de:57:49:3a:3e:22:5d:
                    1e:2b
                Exponent: 65537 (0x10001)
        X509v3 extensions:
            X509v3 Basic Constraints: 
                CA:FALSE
            X509v3 Subject Key Identifier: 
                6A:CD:12:E5:68:E2:E5:44:9A:83:99:AE:8D:74:C8:00:0A:B8:B4:AD
            X509v3 Authority Key Identifier: 
                keyid:BD:19:C3:93:5F:F0:60:4E:27:0E:A9:3F:45:A5:B9:39:B4:37:4F:55
                DirName:/CN=team741-net
                serial:42:01:D1:8F:29:22:D2:FB:D7:3C:63:97:47:53:90:6F:71:03:6C:4E

            X509v3 Extended Key Usage: 
                TLS Web Server Authentication
            X509v3 Key Usage: 
                Digital Signature, Key Encipherment
            X509v3 Subject Alternative Name: 
                DNS:team741-server
    Signature Algorithm: sha256WithRSAEncryption
         24:4a:64:f2:7a:02:35:63:77:64:63:9e:82:d1:9f:fd:6e:0a:
         dc:48:a1:b5:0d:c7:99:b7:3e:08:24:f7:3b:b3:64:ea:72:1e:
         02:9b:87:25:b0:a3:c0:c1:6e:69:4e:81:ab:6f:1a:d0:66:84:
         53:53:7a:b0:9e:7b:ca:87:66:dc:d4:43:7d:19:0c:a3:f5:66:
         68:fe:5e:de:63:dc:63:86:7a:f9:29:ea:8e:8b:a6:0e:bb:a2:
         55:bf:e2:1d:e7:d0:36:e5:ce:25:28:b1:c4:08:1c:2b:68:17:
         f9:6f:be:97:df:2a:6a:e1:1d:f7:cf:18:7a:ee:52:01:b7:ea:
         f6:9c:c6:77:c8:a8:f4:10:7a:eb:43:7c:13:f6:cc:fe:a1:d4:
         28:64:f1:06:57:78:0d:8f:b1:48:11:31:eb:1d:62:8f:79:56:
         47:02:b1:47:30:c4:82:9e:93:37:e6:06:80:71:3a:1a:c8:fe:
         55:b9:75:3e:c5:4c:97:80:93:ea:13:3b:db:e9:99:f5:01:f1:
         6a:2d:e1:b7:af:5c:2d:41:56:da:15:d1:07:01:d1:9f:dc:7a:
         db:c7:cc:47:3a:09:d1:8d:a6:11:63:c7:45:e8:fd:d8:56:ac:
         c5:9f:6c:68:38:92:0d:fb:88:c8:28:7e:83:24:b3:17:9e:ca:
         51:96:30:7c
-----BEGIN CERTIFICATE-----
MIIDeDCCAmCgAwIBAgIRAM7PCqcB4WzbXYI4RoFm520wDQYJKoZIhvcNAQELBQAw
FjEUMBIGA1UEAwwLdGVhbTc0MS1uZXQwHhcNMjEwOTEzMDUwODA0WhcNMjQwODI4
MDUwODA0WjAZMRcwFQYDVQQDDA50ZWFtNzQxLXNlcnZlcjCCASIwDQYJKoZIhvcN
AQEBBQADggEPADCCAQoCggEBANALibwT/+mSVDVIrsjJpd7Wz9WBPG+WLCkiNNKg
+fCIqoECJ0HyqrWcrMREigyfmhSXT11gCbFii9Of2rb2lFAogkaPue/WoesP7sXM
I0drrdsKLj5uHrYYwE1D3HtKBxbqmJ+qW949CE1bQIKTZ/8LymSomLDZJ3ho5tAD
AtfVohQfn7zFl+INqtWmZUEzyq+s8RMKuXYHEQP8Hpig+5hsQMs+b+Gml+u4ZE9C
P0grwODp8niP9R16TV9yLpDRz4cann8NP6NHaQhwOdX2WA2xMjywp31gGeB4ctE9
zR+A9+yU322Vdrz6szpCJiU3kixKhrICaxzeV0k6PiJdHisCAwEAAaOBvTCBujAJ
BgNVHRMEAjAAMB0GA1UdDgQWBBRqzRLlaOLlRJqDma6NdMgACri0rTBRBgNVHSME
SjBIgBS9GcOTX/BgTicOqT9Fpbk5tDdPVaEapBgwFjEUMBIGA1UEAwwLdGVhbTc0
MS1uZXSCFEIB0Y8pItL71zxjl0dTkG9xA2xOMBMGA1UdJQQMMAoGCCsGAQUFBwMB
MAsGA1UdDwQEAwIFoDAZBgNVHREEEjAQgg50ZWFtNzQxLXNlcnZlcjANBgkqhkiG
9w0BAQsFAAOCAQEAJEpk8noCNWN3ZGOegtGf/W4K3EihtQ3Hmbc+CCT3O7Nk6nIe
ApuHJbCjwMFuaU6Bq28a0GaEU1N6sJ57yodm3NRDfRkMo/VmaP5e3mPcY4Z6+Snq
joumDruiVb/iHefQNuXOJSixxAgcK2gX+W++l98qauEd988Yeu5SAbfq9pzGd8io
9BB660N8E/bM/qHUKGTxBld4DY+xSBEx6x1ij3lWRwKxRzDEgp6TN+YGgHE6Gsj+
Vbl1PsVMl4CT6hM72+mZ9QHxai3ht69cLUFW2hXRBwHRn9x628fMRzoJ0Y2mEWPH
Rej92FasxZ9saDiSDfuIyCh+gySzF57KUZYwfA==
-----END CERTIFICATE-----
