Certificate:
    Data:
        Version: 3 (0x2)
        Serial Number:
            54:d4:53:48:69:13:d0:e7:8f:d7:cc:72:f5:43:15:cd
        Signature Algorithm: sha256WithRSAEncryption
        Issuer: CN=team601-net
        Validity
            Not Before: Sep 13 04:19:38 2021 GMT
            Not After : Aug 28 04:19:38 2024 GMT
        Subject: CN=team601-client
        Subject Public Key Info:
            Public Key Algorithm: rsaEncryption
                RSA Public-Key: (2048 bit)
                Modulus:
                    00:98:17:ce:6c:01:29:91:6b:ab:fe:af:bc:19:5a:
                    f3:24:2b:c1:6f:a0:78:f3:03:a6:4d:2e:c6:e6:48:
                    87:df:8b:ef:9b:33:7f:55:d2:22:eb:83:27:2f:4d:
                    4d:6c:98:80:bf:f1:65:02:ac:d3:82:10:88:f8:03:
                    63:d1:f8:13:8d:29:60:b3:fa:28:45:7f:bb:63:0d:
                    85:02:19:a8:f3:07:3d:21:f8:1e:84:01:dc:9b:eb:
                    4a:6c:25:7f:0a:8e:89:1c:c1:ef:a9:3f:ba:4c:10:
                    ff:ec:d5:98:8c:57:96:a6:59:fa:e8:a9:41:e1:4d:
                    eb:6b:44:9b:25:0d:b8:d6:63:32:8e:5f:28:b9:37:
                    8a:45:8e:90:2e:8c:4d:20:33:e1:cf:32:59:13:f4:
                    51:cf:05:dd:71:6a:e4:33:b7:90:80:27:f2:4d:c1:
                    bd:25:3a:bd:29:2c:a6:d4:8e:ea:2e:90:83:56:74:
                    cd:e6:a2:1a:18:ed:40:b5:94:de:40:30:73:99:f9:
                    bc:6e:37:3b:09:fc:ec:13:a5:55:4b:ba:c4:25:63:
                    6b:ae:fd:a8:4e:94:41:9d:27:55:ba:9e:dd:b1:11:
                    53:65:f2:b9:95:ab:75:8e:66:70:4d:6d:b1:96:32:
                    b4:f8:97:be:2f:29:f2:f0:53:1b:15:31:80:6b:af:
                    73:9f
                Exponent: 65537 (0x10001)
        X509v3 extensions:
            X509v3 Basic Constraints: 
                CA:FALSE
            X509v3 Subject Key Identifier: 
                9B:27:23:8B:89:20:06:EA:1A:52:BB:75:26:55:2B:B9:F3:6C:B7:2E
            X509v3 Authority Key Identifier: 
                keyid:4F:20:6D:7C:98:A7:7F:6A:E2:28:F1:B2:53:E9:5E:3A:C9:D9:7B:EF
                DirName:/CN=team601-net
                serial:36:58:51:38:CC:AE:C3:6A:87:5B:38:E0:39:77:2C:AB:E7:D9:08:84

            X509v3 Extended Key Usage: 
                TLS Web Client Authentication
            X509v3 Key Usage: 
                Digital Signature
    Signature Algorithm: sha256WithRSAEncryption
         92:1f:31:6c:3a:a1:8a:1e:67:c7:fb:b2:42:22:13:8e:e2:91:
         15:3e:df:1b:86:0b:1f:c9:fa:68:68:0c:9c:f0:07:29:6c:af:
         ff:d3:2c:42:41:fb:d3:cd:af:6f:17:e7:f7:8d:55:51:e1:b2:
         55:8e:ec:6d:40:c1:4a:dd:b5:dc:0b:61:dc:7c:bc:56:96:af:
         be:6e:33:97:42:35:65:ee:de:97:d0:79:68:1f:5e:ba:2f:fd:
         9a:b7:be:24:22:73:ca:a6:c6:02:b6:1a:23:18:9e:ed:cf:b4:
         eb:fc:c9:31:07:09:16:67:6c:e3:12:30:59:fe:f4:fc:1c:4b:
         41:17:97:6f:3d:98:b6:20:85:35:82:30:dd:5c:44:2a:51:52:
         c1:01:f0:06:cf:11:bc:96:4d:8d:0b:02:2a:90:90:a9:94:90:
         66:e9:ea:23:c1:90:d1:18:47:fa:e7:8e:06:b5:c7:3f:d1:e4:
         86:42:d2:67:49:c5:92:63:15:e6:5d:a8:8b:fe:2f:34:45:e6:
         c3:48:1a:c1:de:da:f9:b2:26:ae:56:6e:ad:c6:a7:a6:63:f0:
         e0:5c:20:63:7b:ba:77:3e:ca:11:c8:3f:e7:a0:5f:fc:49:4c:
         ad:95:93:f9:d5:30:bf:0b:c6:4d:9f:d2:d5:90:fd:b6:3f:76:
         33:83:37:e2
-----BEGIN CERTIFICATE-----
MIIDXDCCAkSgAwIBAgIQVNRTSGkT0OeP18xy9UMVzTANBgkqhkiG9w0BAQsFADAW
MRQwEgYDVQQDDAt0ZWFtNjAxLW5ldDAeFw0yMTA5MTMwNDE5MzhaFw0yNDA4Mjgw
NDE5MzhaMBkxFzAVBgNVBAMMDnRlYW02MDEtY2xpZW50MIIBIjANBgkqhkiG9w0B
AQEFAAOCAQ8AMIIBCgKCAQEAmBfObAEpkWur/q+8GVrzJCvBb6B48wOmTS7G5kiH
34vvmzN/VdIi64MnL01NbJiAv/FlAqzTghCI+ANj0fgTjSlgs/ooRX+7Yw2FAhmo
8wc9IfgehAHcm+tKbCV/Co6JHMHvqT+6TBD/7NWYjFeWpln66KlB4U3ra0SbJQ24
1mMyjl8ouTeKRY6QLoxNIDPhzzJZE/RRzwXdcWrkM7eQgCfyTcG9JTq9KSym1I7q
LpCDVnTN5qIaGO1AtZTeQDBzmfm8bjc7CfzsE6VVS7rEJWNrrv2oTpRBnSdVup7d
sRFTZfK5lat1jmZwTW2xljK0+Je+Lyny8FMbFTGAa69znwIDAQABo4GiMIGfMAkG
A1UdEwQCMAAwHQYDVR0OBBYEFJsnI4uJIAbqGlK7dSZVK7nzbLcuMFEGA1UdIwRK
MEiAFE8gbXyYp39q4ijxslPpXjrJ2XvvoRqkGDAWMRQwEgYDVQQDDAt0ZWFtNjAx
LW5ldIIUNlhROMyuw2qHWzjgOXcsq+fZCIQwEwYDVR0lBAwwCgYIKwYBBQUHAwIw
CwYDVR0PBAQDAgeAMA0GCSqGSIb3DQEBCwUAA4IBAQCSHzFsOqGKHmfH+7JCIhOO
4pEVPt8bhgsfyfpoaAyc8AcpbK//0yxCQfvTza9vF+f3jVVR4bJVjuxtQMFK3bXc
C2HcfLxWlq++bjOXQjVl7t6X0HloH166L/2at74kInPKpsYCthojGJ7tz7Tr/Mkx
BwkWZ2zjEjBZ/vT8HEtBF5dvPZi2IIU1gjDdXEQqUVLBAfAGzxG8lk2NCwIqkJCp
lJBm6eojwZDRGEf6544Gtcc/0eSGQtJnScWSYxXmXaiL/i80RebDSBrB3tr5siau
Vm6txqemY/DgXCBje7p3PsoRyD/noF/8SUytlZP51TC/C8ZNn9LVkP22P3Yzgzfi
-----END CERTIFICATE-----
