Certificate:
    Data:
        Version: 3 (0x2)
        Serial Number:
            45:96:c7:f5:07:a9:93:0c:d3:e7:8a:02:ef:3f:2c:de
        Signature Algorithm: sha256WithRSAEncryption
        Issuer: CN=team574-net
        Validity
            Not Before: Sep 13 04:01:37 2021 GMT
            Not After : Aug 28 04:01:37 2024 GMT
        Subject: CN=team574-client
        Subject Public Key Info:
            Public Key Algorithm: rsaEncryption
                RSA Public-Key: (2048 bit)
                Modulus:
                    00:98:2b:d3:bc:b6:52:12:55:5f:49:3e:92:c3:6e:
                    93:ed:d6:19:17:b7:d0:8d:e0:c6:84:ca:76:c7:fc:
                    11:cd:9d:81:fc:5b:d4:88:d3:ad:7b:44:21:69:b6:
                    36:fd:51:aa:d8:1d:38:81:51:43:9e:76:61:a9:5b:
                    5f:1f:07:58:b6:87:45:f5:9a:c8:8f:c6:de:16:28:
                    96:87:33:0f:09:f9:9d:60:10:d4:48:97:60:20:52:
                    b9:36:f2:f3:0e:41:7c:97:5a:5f:6e:de:c8:35:09:
                    c3:88:89:79:e1:86:e2:0a:e0:ad:64:fd:1d:64:23:
                    32:f0:43:03:99:d9:30:35:5a:53:3b:17:ee:a6:ba:
                    4f:80:4c:4f:55:a2:85:b6:31:13:44:5f:d6:c9:3a:
                    06:99:3a:d1:df:9d:32:c3:0a:3c:ce:2e:c2:d4:f2:
                    84:28:fb:85:32:4c:20:b3:dc:6c:4d:78:c5:80:fe:
                    de:20:45:00:2f:04:be:0b:99:dc:84:9f:7a:93:e5:
                    d1:38:43:85:b9:d1:5c:fa:0f:31:f6:a2:1e:eb:0a:
                    20:44:3a:69:43:f2:14:ee:d1:68:d1:b2:0e:02:f4:
                    cc:e8:15:6e:ae:eb:a1:76:9b:39:8a:37:e8:c5:04:
                    3d:05:21:e2:81:1a:37:3c:d7:c5:14:55:36:e6:b5:
                    ec:27
                Exponent: 65537 (0x10001)
        X509v3 extensions:
            X509v3 Basic Constraints: 
                CA:FALSE
            X509v3 Subject Key Identifier: 
                92:BA:57:50:12:9E:3B:56:55:72:8F:98:14:A9:A7:6F:B7:3B:03:BA
            X509v3 Authority Key Identifier: 
                keyid:DB:4C:BF:20:BF:99:80:EA:EA:27:0D:F9:B3:D3:4E:A4:12:4D:5A:45
                DirName:/CN=team574-net
                serial:20:FC:B2:F2:92:03:CC:CB:4A:EC:9F:BD:4D:9A:3E:63:2F:F8:C1:C5

            X509v3 Extended Key Usage: 
                TLS Web Client Authentication
            X509v3 Key Usage: 
                Digital Signature
    Signature Algorithm: sha256WithRSAEncryption
         87:92:7d:a7:1c:a4:f5:70:e7:aa:bf:78:c8:24:a3:7b:d6:c3:
         77:84:e1:11:6f:bf:ed:06:51:66:49:e7:4c:a7:65:93:fb:b1:
         bf:8f:9b:0e:ba:0c:21:34:14:82:99:b0:85:f9:bb:ff:b5:49:
         b7:d9:2c:b7:90:bc:01:f4:b5:fb:cb:30:fe:1b:17:ce:8a:91:
         99:fe:58:ab:bf:3e:62:a6:eb:af:38:98:53:cd:88:1f:5a:61:
         73:92:ee:8c:c5:7a:25:63:fb:85:7d:cb:c6:03:9a:4b:3c:a3:
         61:94:31:e5:89:6f:9f:70:2a:c0:07:03:84:c9:76:82:40:c7:
         15:2f:f7:a2:df:08:63:d0:f6:2a:b1:1e:2c:a7:0f:13:1a:1d:
         6c:38:91:89:32:43:f4:8d:4e:79:2d:3e:f0:58:e4:e1:0b:1d:
         da:0a:cf:4f:70:c8:60:cf:28:d8:32:1d:61:d3:41:dd:85:a1:
         28:f9:5c:16:52:e2:2c:c4:60:5c:db:ca:72:c4:96:11:07:1f:
         d0:72:75:c3:1c:eb:d8:5f:c9:37:21:a9:c7:55:33:30:24:c3:
         12:db:ae:8e:df:0e:e7:57:b6:7b:93:60:e7:45:c9:89:4e:4d:
         5c:b4:8a:63:29:bb:88:83:81:5c:66:3f:f2:d0:22:85:1c:4c:
         ab:84:9c:b1
-----BEGIN CERTIFICATE-----
MIIDXDCCAkSgAwIBAgIQRZbH9QepkwzT54oC7z8s3jANBgkqhkiG9w0BAQsFADAW
MRQwEgYDVQQDDAt0ZWFtNTc0LW5ldDAeFw0yMTA5MTMwNDAxMzdaFw0yNDA4Mjgw
NDAxMzdaMBkxFzAVBgNVBAMMDnRlYW01NzQtY2xpZW50MIIBIjANBgkqhkiG9w0B
AQEFAAOCAQ8AMIIBCgKCAQEAmCvTvLZSElVfST6Sw26T7dYZF7fQjeDGhMp2x/wR
zZ2B/FvUiNOte0QhabY2/VGq2B04gVFDnnZhqVtfHwdYtodF9ZrIj8beFiiWhzMP
CfmdYBDUSJdgIFK5NvLzDkF8l1pfbt7INQnDiIl54YbiCuCtZP0dZCMy8EMDmdkw
NVpTOxfuprpPgExPVaKFtjETRF/WyToGmTrR350ywwo8zi7C1PKEKPuFMkwgs9xs
TXjFgP7eIEUALwS+C5nchJ96k+XROEOFudFc+g8x9qIe6wogRDppQ/IU7tFo0bIO
AvTM6BVuruuhdps5ijfoxQQ9BSHigRo3PNfFFFU25rXsJwIDAQABo4GiMIGfMAkG
A1UdEwQCMAAwHQYDVR0OBBYEFJK6V1ASnjtWVXKPmBSpp2+3OwO6MFEGA1UdIwRK
MEiAFNtMvyC/mYDq6icN+bPTTqQSTVpFoRqkGDAWMRQwEgYDVQQDDAt0ZWFtNTc0
LW5ldIIUIPyy8pIDzMtK7J+9TZo+Yy/4wcUwEwYDVR0lBAwwCgYIKwYBBQUHAwIw
CwYDVR0PBAQDAgeAMA0GCSqGSIb3DQEBCwUAA4IBAQCHkn2nHKT1cOeqv3jIJKN7
1sN3hOERb7/tBlFmSedMp2WT+7G/j5sOugwhNBSCmbCF+bv/tUm32Sy3kLwB9LX7
yzD+GxfOipGZ/lirvz5ipuuvOJhTzYgfWmFzku6MxXolY/uFfcvGA5pLPKNhlDHl
iW+fcCrABwOEyXaCQMcVL/ei3whj0PYqsR4spw8TGh1sOJGJMkP0jU55LT7wWOTh
Cx3aCs9PcMhgzyjYMh1h00HdhaEo+VwWUuIsxGBc28pyxJYRBx/QcnXDHOvYX8k3
IanHVTMwJMMS266O3w7nV7Z7k2DnRcmJTk1ctIpjKbuIg4FcZj/y0CKFHEyrhJyx
-----END CERTIFICATE-----
