Certificate:
    Data:
        Version: 3 (0x2)
        Serial Number:
            34:49:25:a0:37:9b:c5:86:cb:e9:4e:e8:44:be:36:e6
        Signature Algorithm: sha256WithRSAEncryption
        Issuer: CN=team49-net
        Validity
            Not Before: Sep 12 23:08:14 2021 GMT
            Not After : Aug 27 23:08:14 2024 GMT
        Subject: CN=team49-client
        Subject Public Key Info:
            Public Key Algorithm: rsaEncryption
                RSA Public-Key: (2048 bit)
                Modulus:
                    00:af:b0:13:d4:91:e3:c8:55:08:b4:96:2b:16:a2:
                    7d:38:5c:21:4c:3c:86:7b:00:76:9d:e0:cd:2f:37:
                    8d:0f:97:f4:d5:fc:76:83:34:58:95:5a:7a:88:81:
                    07:9d:92:7f:4e:9b:b1:62:a0:a0:cd:ee:9a:8a:71:
                    85:ca:43:9a:91:01:ba:f0:05:bc:c3:ad:26:23:98:
                    5e:1e:79:29:77:9e:6b:2c:63:1c:16:ec:4b:21:91:
                    fb:5f:51:4c:85:f5:13:d2:8b:ed:60:8d:38:19:94:
                    20:e8:4f:95:9c:7a:08:b9:dd:ec:68:26:8e:64:4f:
                    a1:ce:10:00:b9:df:e7:2d:55:95:d9:2f:30:89:d2:
                    7d:50:6c:54:9e:3d:c7:b2:d4:ed:b2:b3:de:d6:33:
                    bf:51:2b:0b:30:27:6d:7a:fb:1d:bd:eb:29:e6:48:
                    aa:0f:11:0e:52:80:a3:0c:33:16:f9:40:62:ea:9f:
                    71:b0:42:65:05:23:09:67:45:2f:f0:2d:0f:3f:01:
                    f2:02:7a:f7:e0:17:d5:a0:2b:79:93:09:21:a4:b8:
                    c3:83:6e:fd:fa:2e:a7:76:40:5c:d5:32:3a:15:e1:
                    f5:2d:57:d2:22:4f:6e:7e:26:fa:0c:ea:0c:b3:44:
                    e5:94:c5:94:a9:96:24:47:67:33:c2:e9:ae:42:87:
                    2c:83
                Exponent: 65537 (0x10001)
        X509v3 extensions:
            X509v3 Basic Constraints: 
                CA:FALSE
            X509v3 Subject Key Identifier: 
                96:A4:BF:82:EF:36:30:5E:8D:E3:AB:80:58:F6:97:FD:C5:29:8B:B7
            X509v3 Authority Key Identifier: 
                keyid:DD:D3:FA:F3:92:DA:22:04:74:0C:86:B9:E4:84:DB:87:5B:07:55:49
                DirName:/CN=team49-net
                serial:1A:54:AF:89:0E:1E:FC:A4:34:4E:2F:FF:0E:D1:DB:3E:A5:95:07:D0

            X509v3 Extended Key Usage: 
                TLS Web Client Authentication
            X509v3 Key Usage: 
                Digital Signature
    Signature Algorithm: sha256WithRSAEncryption
         44:b8:d3:9f:0a:15:66:58:38:a4:0c:9d:aa:e3:f8:3d:af:f4:
         8e:bc:1d:e4:47:e5:eb:04:73:c0:bd:c9:16:f7:4c:23:07:ab:
         dd:dc:ea:d3:93:43:97:c9:fd:24:b1:21:44:09:06:f8:96:d6:
         70:a7:f5:20:36:43:26:dc:11:fa:8e:4f:0c:86:86:61:69:64:
         62:30:a7:32:e9:19:28:16:6b:73:4a:84:8c:5d:60:eb:8b:96:
         42:08:f9:57:df:31:a0:54:b9:3d:b7:ba:b4:1c:70:f3:16:7f:
         29:f9:de:0f:58:36:07:5b:12:ed:45:0f:01:30:a1:ab:22:39:
         2d:19:db:08:21:38:7b:3b:fc:75:10:99:17:c4:9f:7a:8c:de:
         69:c2:8d:42:e6:0f:9e:b7:16:3a:c5:03:5e:bf:ef:45:11:9c:
         93:4f:fc:b9:25:fe:bd:b5:21:2f:95:af:ef:65:69:21:0e:1d:
         a0:aa:3c:f4:cc:b8:eb:44:a0:2b:0c:52:ae:58:5d:dd:fd:10:
         46:b4:3e:c3:fe:0d:79:96:4c:d0:e3:49:27:9c:f3:78:d9:f9:
         d1:f8:5e:f8:f9:5c:94:59:8a:ea:58:9b:72:dc:d9:e5:b6:06:
         6f:30:d5:70:a2:2a:00:b8:bf:8d:d3:81:7c:ac:31:69:7c:30:
         ce:af:18:67
-----BEGIN CERTIFICATE-----
MIIDWTCCAkGgAwIBAgIQNEkloDebxYbL6U7oRL425jANBgkqhkiG9w0BAQsFADAV
MRMwEQYDVQQDDAp0ZWFtNDktbmV0MB4XDTIxMDkxMjIzMDgxNFoXDTI0MDgyNzIz
MDgxNFowGDEWMBQGA1UEAwwNdGVhbTQ5LWNsaWVudDCCASIwDQYJKoZIhvcNAQEB
BQADggEPADCCAQoCggEBAK+wE9SR48hVCLSWKxaifThcIUw8hnsAdp3gzS83jQ+X
9NX8doM0WJVaeoiBB52Sf06bsWKgoM3umopxhcpDmpEBuvAFvMOtJiOYXh55KXee
ayxjHBbsSyGR+19RTIX1E9KL7WCNOBmUIOhPlZx6CLnd7GgmjmRPoc4QALnf5y1V
ldkvMInSfVBsVJ49x7LU7bKz3tYzv1ErCzAnbXr7Hb3rKeZIqg8RDlKAowwzFvlA
YuqfcbBCZQUjCWdFL/AtDz8B8gJ69+AX1aAreZMJIaS4w4Nu/foup3ZAXNUyOhXh
9S1X0iJPbn4m+gzqDLNE5ZTFlKmWJEdnM8LprkKHLIMCAwEAAaOBoTCBnjAJBgNV
HRMEAjAAMB0GA1UdDgQWBBSWpL+C7zYwXo3jq4BY9pf9xSmLtzBQBgNVHSMESTBH
gBTd0/rzktoiBHQMhrnkhNuHWwdVSaEZpBcwFTETMBEGA1UEAwwKdGVhbTQ5LW5l
dIIUGlSviQ4e/KQ0Ti//DtHbPqWVB9AwEwYDVR0lBAwwCgYIKwYBBQUHAwIwCwYD
VR0PBAQDAgeAMA0GCSqGSIb3DQEBCwUAA4IBAQBEuNOfChVmWDikDJ2q4/g9r/SO
vB3kR+XrBHPAvckW90wjB6vd3OrTk0OXyf0ksSFECQb4ltZwp/UgNkMm3BH6jk8M
hoZhaWRiMKcy6RkoFmtzSoSMXWDri5ZCCPlX3zGgVLk9t7q0HHDzFn8p+d4PWDYH
WxLtRQ8BMKGrIjktGdsIITh7O/x1EJkXxJ96jN5pwo1C5g+etxY6xQNev+9FEZyT
T/y5Jf69tSEvla/vZWkhDh2gqjz0zLjrRKArDFKuWF3d/RBGtD7D/g15lkzQ40kn
nPN42fnR+F74+VyUWYrqWJty3NnltgZvMNVwoioAuL+N04F8rDFpfDDOrxhn
-----END CERTIFICATE-----
