Certificate:
    Data:
        Version: 3 (0x2)
        Serial Number:
            be:01:bb:26:29:bc:34:de:1a:5a:d9:39:6b:12:d5:5f
        Signature Algorithm: sha256WithRSAEncryption
        Issuer: CN=team156-net
        Validity
            Not Before: Sep 13 00:15:28 2021 GMT
            Not After : Aug 28 00:15:28 2024 GMT
        Subject: CN=team156-client
        Subject Public Key Info:
            Public Key Algorithm: rsaEncryption
                RSA Public-Key: (2048 bit)
                Modulus:
                    00:9b:4f:9a:f3:4f:ef:f0:3a:87:09:18:c2:e1:14:
                    62:d2:16:d0:e2:28:6c:45:b9:0a:f7:6d:e5:99:d0:
                    f9:4a:25:d3:f2:aa:e4:05:83:50:d3:68:83:b7:d0:
                    e1:94:53:d5:ed:55:08:50:d0:7a:a3:86:c2:98:c6:
                    0d:9f:29:7e:e5:d2:f5:25:e8:ad:06:35:dc:23:6d:
                    2b:b9:aa:a8:1b:ab:e3:b1:27:61:16:3d:18:87:63:
                    b3:99:f5:84:89:92:af:62:80:6e:f1:21:09:57:ae:
                    23:57:80:f7:15:59:4d:a9:2d:26:03:33:8c:88:24:
                    01:25:74:ed:25:7e:2c:c6:2e:06:78:76:b1:d6:9b:
                    02:5a:a0:d7:db:3f:ae:ed:a2:79:d8:96:56:77:a0:
                    5f:9e:69:1c:71:f9:f6:55:04:31:92:64:13:2b:50:
                    66:62:3b:24:16:47:70:d8:f2:c5:e2:b4:aa:fd:e4:
                    fc:4c:70:b6:7d:13:9b:d8:0f:66:d9:2c:e4:61:ae:
                    6e:e1:a4:db:59:b0:db:49:66:3d:61:7b:47:eb:29:
                    52:e0:fb:56:d9:53:53:03:37:7c:f8:52:26:ac:3a:
                    3b:3a:ed:d1:3a:f0:eb:be:17:74:8e:87:8f:0b:0c:
                    93:e1:82:fb:68:47:30:cb:62:51:2f:6f:92:1d:9b:
                    bb:47
                Exponent: 65537 (0x10001)
        X509v3 extensions:
            X509v3 Basic Constraints: 
                CA:FALSE
            X509v3 Subject Key Identifier: 
                25:9D:DA:5D:EA:50:C6:53:86:E2:06:16:E2:2B:7F:39:72:9C:DA:58
            X509v3 Authority Key Identifier: 
                keyid:3C:82:25:E6:05:B8:A1:43:BB:76:64:FC:90:81:03:A5:75:16:66:CF
                DirName:/CN=team156-net
                serial:2E:8E:0B:E0:E8:91:E5:87:86:60:B3:CB:C8:F5:36:7F:AE:E7:D0:57

            X509v3 Extended Key Usage: 
                TLS Web Client Authentication
            X509v3 Key Usage: 
                Digital Signature
    Signature Algorithm: sha256WithRSAEncryption
         0a:ed:e2:7a:ee:7b:41:31:85:08:da:ac:aa:c3:9a:93:04:7f:
         30:0e:81:2a:76:92:38:28:c4:ea:85:9b:8c:fe:5d:65:f4:e7:
         5d:08:91:fa:8e:5d:ae:92:e8:d7:d0:81:3f:7d:d5:dc:ad:d4:
         48:81:38:1c:d3:ee:b4:d5:fa:4d:17:23:aa:23:f0:56:2e:ee:
         17:6e:17:d1:16:de:0c:79:81:79:53:01:7a:fb:2e:73:09:0f:
         e5:1e:f4:e0:01:ca:9c:3e:a7:64:94:a9:37:cc:0a:63:e9:43:
         0a:b0:0d:a7:88:ae:08:2b:9e:14:c6:05:73:0b:b1:cb:6d:63:
         13:b9:ee:9c:55:69:fa:3f:93:9d:89:fd:78:20:2f:8c:03:3d:
         0f:98:f3:da:2c:83:b7:cd:2c:19:70:c1:f8:90:aa:f5:bb:c7:
         89:24:c3:c4:09:56:dc:11:25:9d:94:7f:91:6e:26:e9:f1:b8:
         0f:0b:2f:98:3a:8c:eb:f2:11:98:18:ac:a7:c8:b6:bd:05:0e:
         da:5c:59:84:2b:d6:92:95:9a:b1:2f:ec:d8:04:77:25:18:45:
         89:7f:d8:57:d4:89:c6:b8:3f:c8:15:6b:56:36:37:d0:75:76:
         92:3a:87:d5:f3:3f:2a:c6:ac:26:6a:64:2d:88:65:8c:ee:74:
         a9:1a:c8:6c
-----BEGIN CERTIFICATE-----
MIIDXTCCAkWgAwIBAgIRAL4BuyYpvDTeGlrZOWsS1V8wDQYJKoZIhvcNAQELBQAw
FjEUMBIGA1UEAwwLdGVhbTE1Ni1uZXQwHhcNMjEwOTEzMDAxNTI4WhcNMjQwODI4
MDAxNTI4WjAZMRcwFQYDVQQDDA50ZWFtMTU2LWNsaWVudDCCASIwDQYJKoZIhvcN
AQEBBQADggEPADCCAQoCggEBAJtPmvNP7/A6hwkYwuEUYtIW0OIobEW5Cvdt5ZnQ
+Uol0/Kq5AWDUNNog7fQ4ZRT1e1VCFDQeqOGwpjGDZ8pfuXS9SXorQY13CNtK7mq
qBur47EnYRY9GIdjs5n1hImSr2KAbvEhCVeuI1eA9xVZTaktJgMzjIgkASV07SV+
LMYuBnh2sdabAlqg19s/ru2iediWVnegX55pHHH59lUEMZJkEytQZmI7JBZHcNjy
xeK0qv3k/Exwtn0Tm9gPZtks5GGubuGk21mw20lmPWF7R+spUuD7VtlTUwM3fPhS
Jqw6Ozrt0Trw674XdI6HjwsMk+GC+2hHMMtiUS9vkh2bu0cCAwEAAaOBojCBnzAJ
BgNVHRMEAjAAMB0GA1UdDgQWBBQlndpd6lDGU4biBhbiK385cpzaWDBRBgNVHSME
SjBIgBQ8giXmBbihQ7t2ZPyQgQOldRZmz6EapBgwFjEUMBIGA1UEAwwLdGVhbTE1
Ni1uZXSCFC6OC+DokeWHhmCzy8j1Nn+u59BXMBMGA1UdJQQMMAoGCCsGAQUFBwMC
MAsGA1UdDwQEAwIHgDANBgkqhkiG9w0BAQsFAAOCAQEACu3ieu57QTGFCNqsqsOa
kwR/MA6BKnaSOCjE6oWbjP5dZfTnXQiR+o5drpLo19CBP33V3K3USIE4HNPutNX6
TRcjqiPwVi7uF24X0RbeDHmBeVMBevsucwkP5R704AHKnD6nZJSpN8wKY+lDCrAN
p4iuCCueFMYFcwuxy21jE7nunFVp+j+TnYn9eCAvjAM9D5jz2iyDt80sGXDB+JCq
9bvHiSTDxAlW3BElnZR/kW4m6fG4DwsvmDqM6/IRmBisp8i2vQUO2lxZhCvWkpWa
sS/s2AR3JRhFiX/YV9SJxrg/yBVrVjY30HV2kjqH1fM/KsasJmpkLYhljO50qRrI
bA==
-----END CERTIFICATE-----
