Certificate:
    Data:
        Version: 3 (0x2)
        Serial Number:
            3d:11:22:8f:55:0a:57:b5:79:05:32:d3:75:03:fd:b5
        Signature Algorithm: sha256WithRSAEncryption
        Issuer: CN=team393-net
        Validity
            Not Before: Sep 13 02:19:07 2021 GMT
            Not After : Aug 28 02:19:07 2024 GMT
        Subject: CN=team393-server
        Subject Public Key Info:
            Public Key Algorithm: rsaEncryption
                RSA Public-Key: (2048 bit)
                Modulus:
                    00:ba:b7:d7:e4:83:a7:9f:f1:cc:bc:0f:4a:f6:31:
                    0d:f0:6c:aa:77:56:2f:7b:29:86:d2:96:15:18:14:
                    eb:85:c9:d3:de:ba:d4:ac:ed:af:ab:0e:d0:5a:d2:
                    6f:99:61:30:e7:ab:29:fa:be:ea:55:ec:0f:df:db:
                    e8:fe:fe:40:eb:19:39:0b:db:5e:70:44:7c:47:3b:
                    d6:5a:d8:ad:6c:20:e0:bc:2e:42:59:f9:fc:1f:a2:
                    b5:66:4c:6d:91:0d:f9:8c:18:60:3b:11:4c:81:94:
                    88:39:eb:66:bc:30:3b:51:72:d2:58:b9:74:32:1d:
                    87:37:ff:86:16:0d:4a:df:da:83:fe:dc:df:35:4f:
                    81:7a:2d:56:73:c0:93:3b:cf:8f:69:23:11:fd:70:
                    64:a2:9a:13:a2:8d:45:99:06:0c:a0:87:59:fa:3e:
                    c1:c6:0a:45:4c:db:cf:df:08:60:61:43:40:12:c7:
                    41:22:f6:20:41:84:1a:c3:c0:e8:94:cd:83:b4:12:
                    a7:42:62:52:12:81:79:4b:90:72:cf:05:de:81:f2:
                    0d:78:26:e6:8d:d7:2c:d1:b7:93:c2:13:d6:d8:dc:
                    f7:fc:c6:35:a4:e8:a1:c8:e6:94:7b:b2:7a:dc:a9:
                    2d:93:e1:26:b5:69:86:59:ed:25:db:8d:7c:57:68:
                    40:a3
                Exponent: 65537 (0x10001)
        X509v3 extensions:
            X509v3 Basic Constraints: 
                CA:FALSE
            X509v3 Subject Key Identifier: 
                AD:AE:4B:FA:F1:2C:74:58:F6:51:65:3F:B9:F2:C7:AE:E3:77:9E:DB
            X509v3 Authority Key Identifier: 
                keyid:0C:8A:AD:D5:9D:11:21:0A:47:A4:C5:54:F1:10:5A:C2:11:8D:AB:18
                DirName:/CN=team393-net
                serial:1D:FF:48:1A:74:4D:F6:61:A9:7C:8D:5D:B5:82:5A:18:31:39:3D:BC

            X509v3 Extended Key Usage: 
                TLS Web Server Authentication
            X509v3 Key Usage: 
                Digital Signature, Key Encipherment
            X509v3 Subject Alternative Name: 
                DNS:team393-server
    Signature Algorithm: sha256WithRSAEncryption
         37:4b:10:30:6f:2f:ea:41:ce:59:fc:a8:a3:e2:94:f3:a8:49:
         5d:2b:63:9e:96:3f:2b:d9:ea:4b:21:7a:5d:65:a0:e8:0b:ca:
         b6:bd:4b:9c:80:f0:fd:2b:3a:01:57:2e:bc:da:aa:d7:bf:81:
         85:e5:f8:cf:9b:b6:30:25:24:c5:1f:a7:48:3a:ab:8b:4b:59:
         ae:26:e6:97:92:32:eb:a2:5d:37:f9:4b:11:b2:0d:37:e0:ce:
         1f:26:bb:c8:35:45:5b:44:09:34:45:3f:ce:21:26:e9:73:e4:
         67:3f:88:1e:d7:58:f3:8e:25:9f:6e:32:d7:6f:31:df:eb:41:
         23:6b:2a:4b:c8:a2:77:f6:93:ab:32:c4:16:b6:4c:b8:13:2e:
         d9:64:1c:2a:2d:f4:13:6d:74:69:c6:5c:a1:30:5b:1d:34:23:
         03:0d:9c:17:1d:02:b4:bf:0e:ed:ce:e7:39:6a:bf:6c:f1:c3:
         68:b9:09:41:0a:cb:75:13:ec:0d:b4:91:64:e8:98:4a:8f:51:
         25:94:32:26:0c:b1:98:b0:2e:00:22:40:a7:d0:71:fa:70:7e:
         d1:cb:77:c1:41:cf:4a:65:3c:70:4b:44:f4:26:52:41:25:84:
         15:30:5f:42:a2:ee:17:c5:9d:c7:a6:ce:4a:33:23:94:bf:c1:
         1e:b6:c2:2b
-----BEGIN CERTIFICATE-----
MIIDdzCCAl+gAwIBAgIQPREij1UKV7V5BTLTdQP9tTANBgkqhkiG9w0BAQsFADAW
MRQwEgYDVQQDDAt0ZWFtMzkzLW5ldDAeFw0yMTA5MTMwMjE5MDdaFw0yNDA4Mjgw
MjE5MDdaMBkxFzAVBgNVBAMMDnRlYW0zOTMtc2VydmVyMIIBIjANBgkqhkiG9w0B
AQEFAAOCAQ8AMIIBCgKCAQEAurfX5IOnn/HMvA9K9jEN8Gyqd1YveymG0pYVGBTr
hcnT3rrUrO2vqw7QWtJvmWEw56sp+r7qVewP39vo/v5A6xk5C9tecER8RzvWWtit
bCDgvC5CWfn8H6K1ZkxtkQ35jBhgOxFMgZSIOetmvDA7UXLSWLl0Mh2HN/+GFg1K
39qD/tzfNU+Bei1Wc8CTO8+PaSMR/XBkopoToo1FmQYMoIdZ+j7BxgpFTNvP3whg
YUNAEsdBIvYgQYQaw8DolM2DtBKnQmJSEoF5S5ByzwXegfINeCbmjdcs0beTwhPW
2Nz3/MY1pOihyOaUe7J63Kktk+EmtWmGWe0l2418V2hAowIDAQABo4G9MIG6MAkG
A1UdEwQCMAAwHQYDVR0OBBYEFK2uS/rxLHRY9lFlP7nyx67jd57bMFEGA1UdIwRK
MEiAFAyKrdWdESEKR6TFVPEQWsIRjasYoRqkGDAWMRQwEgYDVQQDDAt0ZWFtMzkz
LW5ldIIUHf9IGnRN9mGpfI1dtYJaGDE5PbwwEwYDVR0lBAwwCgYIKwYBBQUHAwEw
CwYDVR0PBAQDAgWgMBkGA1UdEQQSMBCCDnRlYW0zOTMtc2VydmVyMA0GCSqGSIb3
DQEBCwUAA4IBAQA3SxAwby/qQc5Z/Kij4pTzqEldK2Oelj8r2epLIXpdZaDoC8q2
vUucgPD9KzoBVy682qrXv4GF5fjPm7YwJSTFH6dIOquLS1muJuaXkjLrol03+UsR
sg034M4fJrvINUVbRAk0RT/OISbpc+RnP4ge11jzjiWfbjLXbzHf60EjaypLyKJ3
9pOrMsQWtky4Ey7ZZBwqLfQTbXRpxlyhMFsdNCMDDZwXHQK0vw7tzuc5ar9s8cNo
uQlBCst1E+wNtJFk6JhKj1EllDImDLGYsC4AIkCn0HH6cH7Ry3fBQc9KZTxwS0T0
JlJBJYQVMF9Cou4XxZ3Hps5KMyOUv8EetsIr
-----END CERTIFICATE-----
