Certificate:
    Data:
        Version: 3 (0x2)
        Serial Number:
            bc:f1:e7:de:06:9f:a5:f8:61:f2:fb:05:83:57:ca:70
        Signature Algorithm: sha256WithRSAEncryption
        Issuer: CN=team74-net
        Validity
            Not Before: Sep 12 23:21:29 2021 GMT
            Not After : Aug 27 23:21:29 2024 GMT
        Subject: CN=team74-server
        Subject Public Key Info:
            Public Key Algorithm: rsaEncryption
                RSA Public-Key: (2048 bit)
                Modulus:
                    00:bc:ae:50:64:75:eb:f7:a7:32:5e:2c:4a:54:b8:
                    b5:7b:09:5c:d8:01:6b:a8:02:9f:ca:14:6a:43:53:
                    96:da:00:a6:8a:1c:b3:71:6b:03:e4:0c:0d:40:bc:
                    5d:db:91:1a:42:07:cc:90:0a:37:e2:11:04:13:72:
                    e8:f3:e7:f4:af:36:8e:ce:3e:13:7c:ae:2b:89:7c:
                    0a:c8:b9:3c:db:4b:df:bc:01:84:22:60:f3:d9:14:
                    7c:88:d1:85:c8:af:89:91:e2:67:7b:1a:09:16:e6:
                    56:85:40:fe:41:33:f5:57:da:40:fb:43:29:70:ed:
                    59:6e:f6:2d:df:4e:6f:ff:ac:9c:f9:ad:98:52:a3:
                    60:b9:ea:02:24:26:f9:9e:ee:e6:ae:25:15:34:cc:
                    2f:00:c8:6b:15:4a:0a:2e:e6:55:0b:ad:3d:32:59:
                    71:6d:65:6f:1b:30:b0:19:9a:67:b8:c1:a9:38:f2:
                    60:55:71:08:62:eb:37:13:6b:49:eb:6f:d2:31:e3:
                    33:3b:e9:da:11:54:ac:7f:f6:32:f7:6f:ba:c6:60:
                    02:74:ee:83:6e:f8:18:fa:4a:28:8f:89:68:0a:f2:
                    0a:6f:b5:98:51:11:16:ba:30:b5:3d:c1:32:34:d0:
                    51:d3:df:37:c6:bc:c5:03:4d:8b:0a:dd:dd:7c:2c:
                    ff:3f
                Exponent: 65537 (0x10001)
        X509v3 extensions:
            X509v3 Basic Constraints: 
                CA:FALSE
            X509v3 Subject Key Identifier: 
                13:57:BD:FF:03:77:53:57:1C:E9:94:DD:C9:6B:17:A6:55:96:C9:20
            X509v3 Authority Key Identifier: 
                keyid:FE:92:20:A4:AD:35:31:B7:91:F4:C9:CB:D4:C6:B3:4D:FF:25:12:3F
                DirName:/CN=team74-net
                serial:02:A3:CD:33:EC:66:BA:2D:2B:C8:7B:E6:86:11:05:62:AC:3E:4A:31

            X509v3 Extended Key Usage: 
                TLS Web Server Authentication
            X509v3 Key Usage: 
                Digital Signature, Key Encipherment
            X509v3 Subject Alternative Name: 
                DNS:team74-server
    Signature Algorithm: sha256WithRSAEncryption
         a1:b2:3a:44:b8:74:b2:9e:4d:3c:72:48:e3:3e:e2:55:ed:1e:
         41:94:69:ee:aa:8f:5d:4e:da:ee:15:4d:ca:0c:d7:be:0f:14:
         b9:c8:53:64:20:17:a9:67:94:b0:b8:00:9e:d8:6e:9a:be:bd:
         b2:f2:02:e6:c0:98:a8:4d:8c:1b:79:f3:15:84:69:da:01:fe:
         93:3a:67:d0:92:b9:28:22:bb:fb:3a:c1:be:0c:1d:45:ab:b2:
         d6:d5:31:08:d2:14:89:d1:86:b6:4b:82:00:76:a6:a9:a0:56:
         34:40:c1:11:21:28:ad:05:59:f5:dc:5e:5c:9f:3b:ee:ac:f0:
         04:b1:c9:6b:2b:22:6e:25:74:3a:53:bc:e0:14:81:90:c1:96:
         b0:af:5f:37:96:98:70:9e:71:8e:d1:ff:02:21:cf:3c:45:26:
         84:1e:b0:12:ee:24:0b:31:08:32:dd:fd:6b:56:3a:73:0c:16:
         2a:dd:f9:98:a0:bf:1b:03:84:f2:cb:bd:77:c2:17:9d:19:14:
         e7:20:8c:96:68:60:56:7a:8a:d3:d9:e0:dd:10:cd:34:87:37:
         03:a7:89:e6:c5:df:24:05:05:fa:52:bf:22:2b:9d:ab:c5:13:
         1a:ea:44:4c:30:70:0f:4b:59:f6:f4:43:f0:a9:9b:34:31:59:
         e8:d0:c9:c0
-----BEGIN CERTIFICATE-----
MIIDdDCCAlygAwIBAgIRALzx594Gn6X4YfL7BYNXynAwDQYJKoZIhvcNAQELBQAw
FTETMBEGA1UEAwwKdGVhbTc0LW5ldDAeFw0yMTA5MTIyMzIxMjlaFw0yNDA4Mjcy
MzIxMjlaMBgxFjAUBgNVBAMMDXRlYW03NC1zZXJ2ZXIwggEiMA0GCSqGSIb3DQEB
AQUAA4IBDwAwggEKAoIBAQC8rlBkdev3pzJeLEpUuLV7CVzYAWuoAp/KFGpDU5ba
AKaKHLNxawPkDA1AvF3bkRpCB8yQCjfiEQQTcujz5/SvNo7OPhN8riuJfArIuTzb
S9+8AYQiYPPZFHyI0YXIr4mR4md7GgkW5laFQP5BM/VX2kD7Qylw7Vlu9i3fTm//
rJz5rZhSo2C56gIkJvme7uauJRU0zC8AyGsVSgou5lULrT0yWXFtZW8bMLAZmme4
wak48mBVcQhi6zcTa0nrb9Ix4zM76doRVKx/9jL3b7rGYAJ07oNu+Bj6SiiPiWgK
8gpvtZhRERa6MLU9wTI00FHT3zfGvMUDTYsK3d18LP8/AgMBAAGjgbswgbgwCQYD
VR0TBAIwADAdBgNVHQ4EFgQUE1e9/wN3U1cc6ZTdyWsXplWWySAwUAYDVR0jBEkw
R4AU/pIgpK01MbeR9MnL1MazTf8lEj+hGaQXMBUxEzARBgNVBAMMCnRlYW03NC1u
ZXSCFAKjzTPsZrotK8h75oYRBWKsPkoxMBMGA1UdJQQMMAoGCCsGAQUFBwMBMAsG
A1UdDwQEAwIFoDAYBgNVHREEETAPgg10ZWFtNzQtc2VydmVyMA0GCSqGSIb3DQEB
CwUAA4IBAQChsjpEuHSynk08ckjjPuJV7R5BlGnuqo9dTtruFU3KDNe+DxS5yFNk
IBepZ5SwuACe2G6avr2y8gLmwJioTYwbefMVhGnaAf6TOmfQkrkoIrv7OsG+DB1F
q7LW1TEI0hSJ0Ya2S4IAdqapoFY0QMERISitBVn13F5cnzvurPAEsclrKyJuJXQ6
U7zgFIGQwZawr183lphwnnGO0f8CIc88RSaEHrAS7iQLMQgy3f1rVjpzDBYq3fmY
oL8bA4Tyy713whedGRTnIIyWaGBWeorT2eDdEM00hzcDp4nmxd8kBQX6Ur8iK52r
xRMa6kRMMHAPS1n29EPwqZs0MVno0MnA
-----END CERTIFICATE-----
