Certificate:
    Data:
        Version: 3 (0x2)
        Serial Number:
            4d:d4:db:67:df:af:e9:a8:94:17:d9:ee:59:b4:fc:94
        Signature Algorithm: sha256WithRSAEncryption
        Issuer: CN=team638-net
        Validity
            Not Before: Sep 13 04:42:43 2021 GMT
            Not After : Aug 28 04:42:43 2024 GMT
        Subject: CN=team638-client
        Subject Public Key Info:
            Public Key Algorithm: rsaEncryption
                RSA Public-Key: (2048 bit)
                Modulus:
                    00:9e:82:50:6d:fc:21:9f:67:76:4b:a0:55:46:2c:
                    1a:9b:53:f2:11:56:ac:54:c5:17:4b:2d:c0:c8:73:
                    43:88:ca:7d:8a:47:77:aa:e1:c8:c0:db:cd:36:e1:
                    0d:49:66:8c:40:69:b6:fb:7b:bb:18:0c:b5:80:b4:
                    b4:a8:d5:ac:54:22:9b:27:66:e8:59:a0:4d:d8:32:
                    2f:07:1e:c1:82:7c:d5:b3:a2:a0:53:b8:49:61:ac:
                    ac:87:5b:25:b2:25:7e:eb:cf:c5:fd:f9:ee:de:01:
                    ad:4b:ba:ff:fd:ca:29:ed:05:bc:8a:d2:e9:5b:97:
                    08:cf:4c:25:bb:19:fe:27:6b:37:6e:d4:01:f2:0d:
                    77:60:88:73:2b:84:13:a3:9e:26:74:ce:f5:80:6d:
                    5e:2a:e1:ab:16:7f:9f:b7:b9:27:91:31:e4:e7:a8:
                    78:f3:4d:c3:63:8c:7f:0f:98:00:d1:6d:7e:3a:86:
                    32:26:c6:f8:47:a4:08:fe:c7:ec:0a:5c:f5:de:15:
                    55:57:78:ab:0a:83:5e:f3:5b:5b:7f:6d:ee:06:20:
                    26:5b:4b:a8:2e:05:ab:2f:d5:85:e2:43:61:cc:e3:
                    30:dc:51:45:ef:e1:b4:4b:f9:32:22:30:06:e0:9b:
                    7c:45:83:1d:50:fd:f8:96:1c:c4:a8:f3:3b:ee:40:
                    4a:d5
                Exponent: 65537 (0x10001)
        X509v3 extensions:
            X509v3 Basic Constraints: 
                CA:FALSE
            X509v3 Subject Key Identifier: 
                81:37:32:35:C2:53:B5:10:85:AC:D9:96:55:FA:B7:F9:74:1E:3F:96
            X509v3 Authority Key Identifier: 
                keyid:12:82:0F:00:F3:B5:44:FC:C1:20:E2:5D:1D:9C:FE:0E:B1:57:3E:E8
                DirName:/CN=team638-net
                serial:3A:88:11:C6:7B:3B:DF:E6:60:0F:10:94:1B:21:33:D7:46:D0:1D:33

            X509v3 Extended Key Usage: 
                TLS Web Client Authentication
            X509v3 Key Usage: 
                Digital Signature
    Signature Algorithm: sha256WithRSAEncryption
         b8:2e:ae:e5:fd:d1:96:f2:52:84:2b:19:6d:d8:cb:7c:3e:68:
         e8:0c:18:7d:6e:92:4b:78:ab:c1:0f:f8:37:f9:fe:f0:85:09:
         d0:44:50:91:57:93:d3:ce:02:6a:be:a5:d1:28:e5:b9:fc:da:
         04:41:94:5d:17:f7:17:a9:ed:7b:e9:94:ee:ba:ad:9a:d4:60:
         76:d1:00:d8:3d:52:b3:f8:87:bd:d8:d3:38:f3:39:c5:4b:72:
         f4:9b:95:c8:ee:aa:3f:0f:c0:de:d3:46:ba:91:c3:16:bd:55:
         b7:7d:6b:8e:f5:1b:46:c9:ac:bf:27:95:2f:98:1a:6a:78:f5:
         46:eb:f3:d5:9c:e3:c8:e6:42:f9:4d:90:5e:b5:cd:dd:36:d9:
         01:6a:8b:4e:52:12:92:a2:78:7c:db:51:f0:dc:cc:93:98:db:
         02:e9:92:88:5b:52:c9:54:41:83:40:bb:5b:09:74:0e:69:34:
         b6:8e:0e:c9:7f:4f:84:9f:15:3f:c3:ee:57:28:d7:24:16:a0:
         2d:ee:aa:74:cf:19:78:28:36:69:f1:79:59:14:04:06:d7:45:
         9f:07:ed:cb:91:21:81:4a:be:19:39:08:6b:2e:f0:d1:7f:62:
         b0:8b:0b:29:e1:25:72:5b:36:62:82:5d:a0:24:ca:58:35:d7:
         0c:55:74:88
-----BEGIN CERTIFICATE-----
MIIDXDCCAkSgAwIBAgIQTdTbZ9+v6aiUF9nuWbT8lDANBgkqhkiG9w0BAQsFADAW
MRQwEgYDVQQDDAt0ZWFtNjM4LW5ldDAeFw0yMTA5MTMwNDQyNDNaFw0yNDA4Mjgw
NDQyNDNaMBkxFzAVBgNVBAMMDnRlYW02MzgtY2xpZW50MIIBIjANBgkqhkiG9w0B
AQEFAAOCAQ8AMIIBCgKCAQEAnoJQbfwhn2d2S6BVRiwam1PyEVasVMUXSy3AyHND
iMp9ikd3quHIwNvNNuENSWaMQGm2+3u7GAy1gLS0qNWsVCKbJ2boWaBN2DIvBx7B
gnzVs6KgU7hJYaysh1slsiV+68/F/fnu3gGtS7r//cop7QW8itLpW5cIz0wluxn+
J2s3btQB8g13YIhzK4QTo54mdM71gG1eKuGrFn+ft7knkTHk56h4803DY4x/D5gA
0W1+OoYyJsb4R6QI/sfsClz13hVVV3irCoNe81tbf23uBiAmW0uoLgWrL9WF4kNh
zOMw3FFF7+G0S/kyIjAG4Jt8RYMdUP34lhzEqPM77kBK1QIDAQABo4GiMIGfMAkG
A1UdEwQCMAAwHQYDVR0OBBYEFIE3MjXCU7UQhazZllX6t/l0Hj+WMFEGA1UdIwRK
MEiAFBKCDwDztUT8wSDiXR2c/g6xVz7ooRqkGDAWMRQwEgYDVQQDDAt0ZWFtNjM4
LW5ldIIUOogRxns73+ZgDxCUGyEz10bQHTMwEwYDVR0lBAwwCgYIKwYBBQUHAwIw
CwYDVR0PBAQDAgeAMA0GCSqGSIb3DQEBCwUAA4IBAQC4Lq7l/dGW8lKEKxlt2Mt8
PmjoDBh9bpJLeKvBD/g3+f7whQnQRFCRV5PTzgJqvqXRKOW5/NoEQZRdF/cXqe17
6ZTuuq2a1GB20QDYPVKz+Ie92NM48znFS3L0m5XI7qo/D8De00a6kcMWvVW3fWuO
9RtGyay/J5UvmBpqePVG6/PVnOPI5kL5TZBetc3dNtkBaotOUhKSonh821Hw3MyT
mNsC6ZKIW1LJVEGDQLtbCXQOaTS2jg7Jf0+EnxU/w+5XKNckFqAt7qp0zxl4KDZp
8XlZFAQG10WfB+3LkSGBSr4ZOQhrLvDRf2Kwiwsp4SVyWzZigl2gJMpYNdcMVXSI
-----END CERTIFICATE-----
