Certificate:
    Data:
        Version: 3 (0x2)
        Serial Number:
            d8:e2:f1:77:92:9d:ab:1b:5d:d8:20:f8:28:64:c2:1d
        Signature Algorithm: sha256WithRSAEncryption
        Issuer: CN=team50-net
        Validity
            Not Before: Sep 12 23:09:04 2021 GMT
            Not After : Aug 27 23:09:04 2024 GMT
        Subject: CN=team50-client
        Subject Public Key Info:
            Public Key Algorithm: rsaEncryption
                RSA Public-Key: (2048 bit)
                Modulus:
                    00:c6:58:05:05:f4:c4:fc:6f:c3:ba:16:5a:92:41:
                    f3:0c:d8:ce:5f:eb:73:2a:3a:07:bf:e6:9c:d9:35:
                    1d:fe:33:89:d1:33:7d:8c:08:38:af:26:f0:e5:81:
                    f4:02:eb:87:87:d3:07:27:0f:ee:43:c7:c1:f0:69:
                    18:27:4b:35:53:ec:df:56:e7:9d:73:d6:28:bb:82:
                    f7:25:12:c8:f4:b1:8e:4c:d1:eb:04:9e:0c:91:51:
                    03:80:61:74:16:59:b0:8c:56:48:4e:6f:de:b8:4e:
                    32:cc:a8:04:6d:db:dc:fd:93:9a:9e:7a:76:68:91:
                    87:48:c9:aa:09:a1:7d:5f:dd:a5:f2:92:56:51:63:
                    fe:32:44:19:9e:b9:61:04:49:56:aa:3c:b6:83:49:
                    c1:22:18:b8:b8:f1:d8:4c:65:d1:7c:c8:a0:3e:52:
                    e3:d6:03:a3:f0:58:90:35:d3:a6:f0:5c:d8:8f:85:
                    43:5e:49:97:d1:ac:0b:a1:cb:81:29:bf:d1:a1:4b:
                    1e:5a:c5:14:9f:ea:bf:04:03:2b:f4:d2:5d:3b:29:
                    96:08:7f:0b:ac:d9:08:65:9e:2c:d0:53:84:f1:23:
                    95:a6:8a:a9:36:bc:64:2e:3d:8a:cb:8e:8d:c5:92:
                    c1:d7:9d:2e:2e:c9:b7:f3:d9:c8:a4:89:e5:89:02:
                    03:63
                Exponent: 65537 (0x10001)
        X509v3 extensions:
            X509v3 Basic Constraints: 
                CA:FALSE
            X509v3 Subject Key Identifier: 
                60:4B:65:CB:A6:27:EE:10:8D:B0:0D:8C:94:18:71:55:F7:02:45:E4
            X509v3 Authority Key Identifier: 
                keyid:E0:67:2C:07:D0:9B:26:29:5D:A8:37:42:9E:D6:AB:64:E7:60:92:2F
                DirName:/CN=team50-net
                serial:7A:60:CB:BE:A7:68:C7:CA:60:7E:20:3B:D9:FA:47:FF:18:E9:37:6A

            X509v3 Extended Key Usage: 
                TLS Web Client Authentication
            X509v3 Key Usage: 
                Digital Signature
    Signature Algorithm: sha256WithRSAEncryption
         5f:0f:89:41:e4:ab:4c:f9:c7:50:04:5a:86:a4:25:91:90:82:
         8f:40:47:b5:5a:79:69:71:b2:92:3f:42:e8:27:76:cd:b6:a1:
         da:72:76:9c:02:55:98:00:de:71:11:ed:cf:24:51:2d:53:63:
         77:36:f0:13:03:81:b8:e5:a8:b2:69:73:83:a0:18:e6:81:95:
         a9:87:2b:98:cf:5e:69:e1:51:3c:4f:03:0a:4c:86:cb:36:56:
         6f:ca:bf:39:19:88:9a:90:36:e2:0d:7b:46:8a:72:1c:e7:ac:
         12:41:a9:76:4f:47:db:ee:1f:e9:c1:1e:a5:c1:5c:a2:06:63:
         08:56:03:ea:0f:96:38:66:32:f3:43:95:0f:f9:98:b7:33:d6:
         e6:71:74:81:57:35:5a:fd:e2:6e:fa:63:0c:0f:58:11:01:00:
         24:d0:f7:a8:75:58:cb:b8:f5:dd:ce:8e:de:fd:c2:13:c6:cb:
         04:7e:69:2c:bb:7b:8c:c5:67:3d:9b:7f:3d:c8:4c:fe:18:d5:
         70:38:00:4e:c1:77:cf:5e:3a:f0:8d:0b:a1:ee:c1:94:da:69:
         e2:2b:ce:93:2a:29:2f:16:f5:32:9c:f8:2f:aa:fc:7c:db:99:
         d3:98:dc:79:3a:78:dd:c3:d4:1a:14:b8:a4:21:15:bc:ab:5a:
         7f:4e:05:ca
-----BEGIN CERTIFICATE-----
MIIDWjCCAkKgAwIBAgIRANji8XeSnasbXdgg+Chkwh0wDQYJKoZIhvcNAQELBQAw
FTETMBEGA1UEAwwKdGVhbTUwLW5ldDAeFw0yMTA5MTIyMzA5MDRaFw0yNDA4Mjcy
MzA5MDRaMBgxFjAUBgNVBAMMDXRlYW01MC1jbGllbnQwggEiMA0GCSqGSIb3DQEB
AQUAA4IBDwAwggEKAoIBAQDGWAUF9MT8b8O6FlqSQfMM2M5f63MqOge/5pzZNR3+
M4nRM32MCDivJvDlgfQC64eH0wcnD+5Dx8HwaRgnSzVT7N9W551z1ii7gvclEsj0
sY5M0esEngyRUQOAYXQWWbCMVkhOb964TjLMqARt29z9k5qeenZokYdIyaoJoX1f
3aXyklZRY/4yRBmeuWEESVaqPLaDScEiGLi48dhMZdF8yKA+UuPWA6PwWJA106bw
XNiPhUNeSZfRrAuhy4Epv9GhSx5axRSf6r8EAyv00l07KZYIfwus2QhlnizQU4Tx
I5Wmiqk2vGQuPYrLjo3FksHXnS4uybfz2cikieWJAgNjAgMBAAGjgaEwgZ4wCQYD
VR0TBAIwADAdBgNVHQ4EFgQUYEtly6Yn7hCNsA2MlBhxVfcCReQwUAYDVR0jBEkw
R4AU4GcsB9CbJildqDdCntarZOdgki+hGaQXMBUxEzARBgNVBAMMCnRlYW01MC1u
ZXSCFHpgy76naMfKYH4gO9n6R/8Y6TdqMBMGA1UdJQQMMAoGCCsGAQUFBwMCMAsG
A1UdDwQEAwIHgDANBgkqhkiG9w0BAQsFAAOCAQEAXw+JQeSrTPnHUARahqQlkZCC
j0BHtVp5aXGykj9C6Cd2zbah2nJ2nAJVmADecRHtzyRRLVNjdzbwEwOBuOWosmlz
g6AY5oGVqYcrmM9eaeFRPE8DCkyGyzZWb8q/ORmImpA24g17RopyHOesEkGpdk9H
2+4f6cEepcFcogZjCFYD6g+WOGYy80OVD/mYtzPW5nF0gVc1Wv3ibvpjDA9YEQEA
JND3qHVYy7j13c6O3v3CE8bLBH5pLLt7jMVnPZt/PchM/hjVcDgATsF3z1468I0L
oe7BlNpp4ivOkyopLxb1Mpz4L6r8fNuZ05jceTp43cPUGhS4pCEVvKtaf04Fyg==
-----END CERTIFICATE-----
