Certificate:
    Data:
        Version: 3 (0x2)
        Serial Number:
            8e:9d:91:2e:6d:f8:4f:b7:60:23:65:aa:9e:55:22:4f
        Signature Algorithm: sha256WithRSAEncryption
        Issuer: CN=team615-net
        Validity
            Not Before: Sep 13 04:30:19 2021 GMT
            Not After : Aug 28 04:30:19 2024 GMT
        Subject: CN=team615-server
        Subject Public Key Info:
            Public Key Algorithm: rsaEncryption
                RSA Public-Key: (2048 bit)
                Modulus:
                    00:c2:1e:5c:cd:b9:01:b1:a9:b8:c0:38:b9:41:af:
                    cc:a5:8d:3a:98:5c:c9:b6:8d:b5:74:79:9a:96:14:
                    aa:35:9c:f0:96:17:db:39:c6:32:23:46:95:e2:bf:
                    93:77:46:8c:2b:fc:86:f8:b3:05:77:c5:b3:f9:3c:
                    43:6a:08:c0:f3:42:9e:26:3d:10:49:53:91:ec:fc:
                    6d:e5:e6:a0:32:e3:e6:6a:20:c6:19:2b:fd:f4:6f:
                    6d:f5:68:c1:a5:78:e4:de:c7:20:2e:c6:bc:87:a3:
                    8a:04:59:42:ff:21:18:89:c8:cc:0d:ab:9e:d5:c8:
                    69:f2:08:9c:32:01:43:75:86:12:d7:a5:7c:e9:4c:
                    4a:c8:95:6c:df:0a:d5:ce:65:d0:81:44:6b:e0:cc:
                    9f:fc:45:05:24:b8:37:d4:6f:80:c3:a1:9e:eb:46:
                    6b:1f:4f:31:4c:40:32:1c:a5:17:56:58:02:fd:86:
                    2c:a6:5e:c5:46:ec:eb:90:d0:b9:60:e8:53:b5:ab:
                    37:fb:e6:d6:a9:54:13:dc:d4:f8:1a:99:1a:58:40:
                    a4:3a:48:e8:92:67:92:67:33:84:bc:b8:50:7b:47:
                    5f:54:1e:35:29:eb:4d:de:a2:12:d4:b3:97:e0:b7:
                    69:9d:8f:d0:7c:fd:3a:24:70:ad:e4:a2:5a:75:ba:
                    17:c5
                Exponent: 65537 (0x10001)
        X509v3 extensions:
            X509v3 Basic Constraints: 
                CA:FALSE
            X509v3 Subject Key Identifier: 
                48:8A:A0:3F:02:6B:63:6B:3E:1B:39:1F:29:E7:8C:85:19:92:7C:0F
            X509v3 Authority Key Identifier: 
                keyid:56:55:BD:ED:D8:66:A7:CE:A9:D6:A5:CB:84:F2:73:35:92:C6:A0:06
                DirName:/CN=team615-net
                serial:46:36:27:C3:6F:D8:3D:B9:BF:B6:26:CC:4F:81:DE:4E:D6:75:ED:CF

            X509v3 Extended Key Usage: 
                TLS Web Server Authentication
            X509v3 Key Usage: 
                Digital Signature, Key Encipherment
            X509v3 Subject Alternative Name: 
                DNS:team615-server
    Signature Algorithm: sha256WithRSAEncryption
         69:fb:b3:80:58:30:d9:21:21:cf:42:a9:e9:3a:bf:6b:df:e3:
         2d:27:3f:3f:a7:96:17:22:9f:b3:4d:00:73:50:a5:12:15:aa:
         d8:91:33:9c:b7:f0:da:0f:a4:e6:a4:df:61:57:1c:9e:cf:b8:
         58:60:47:ba:9e:dd:66:d8:8b:cc:29:22:85:2f:01:29:95:98:
         52:50:91:f1:ca:c5:0e:3f:82:93:d3:8c:90:e1:e9:4d:09:6d:
         ed:e4:14:71:cb:6d:3b:6f:ab:26:41:e2:57:a5:d6:d1:07:51:
         db:b2:82:ac:0b:3f:16:59:46:13:f0:26:d6:b3:8e:fa:37:8e:
         c7:82:b8:c3:01:db:fd:a6:c9:13:cf:52:ae:cd:40:2d:6a:5b:
         f4:9a:ad:92:9a:b2:b4:b8:49:95:4e:18:36:72:0c:c7:f6:63:
         0f:55:e4:ca:18:02:6d:a6:ff:00:9d:f2:e9:d9:a9:62:81:7a:
         a1:61:d7:c0:96:6f:a6:62:c9:bb:10:fd:a5:2b:f6:45:a5:cd:
         10:cc:1b:34:a9:4e:eb:80:99:4c:7c:12:63:a1:3d:e4:16:97:
         54:d1:06:83:96:45:79:59:5c:29:e8:6d:cf:5b:6c:19:ca:17:
         e4:7e:f2:7a:0f:f3:14:f1:97:4b:f1:c4:5e:04:18:20:fd:8f:
         58:34:bd:10
-----BEGIN CERTIFICATE-----
MIIDeDCCAmCgAwIBAgIRAI6dkS5t+E+3YCNlqp5VIk8wDQYJKoZIhvcNAQELBQAw
FjEUMBIGA1UEAwwLdGVhbTYxNS1uZXQwHhcNMjEwOTEzMDQzMDE5WhcNMjQwODI4
MDQzMDE5WjAZMRcwFQYDVQQDDA50ZWFtNjE1LXNlcnZlcjCCASIwDQYJKoZIhvcN
AQEBBQADggEPADCCAQoCggEBAMIeXM25AbGpuMA4uUGvzKWNOphcybaNtXR5mpYU
qjWc8JYX2znGMiNGleK/k3dGjCv8hvizBXfFs/k8Q2oIwPNCniY9EElTkez8beXm
oDLj5mogxhkr/fRvbfVowaV45N7HIC7GvIejigRZQv8hGInIzA2rntXIafIInDIB
Q3WGEtelfOlMSsiVbN8K1c5l0IFEa+DMn/xFBSS4N9RvgMOhnutGax9PMUxAMhyl
F1ZYAv2GLKZexUbs65DQuWDoU7WrN/vm1qlUE9zU+BqZGlhApDpI6JJnkmczhLy4
UHtHX1QeNSnrTd6iEtSzl+C3aZ2P0Hz9OiRwreSiWnW6F8UCAwEAAaOBvTCBujAJ
BgNVHRMEAjAAMB0GA1UdDgQWBBRIiqA/Amtjaz4bOR8p54yFGZJ8DzBRBgNVHSME
SjBIgBRWVb3t2GanzqnWpcuE8nM1ksagBqEapBgwFjEUMBIGA1UEAwwLdGVhbTYx
NS1uZXSCFEY2J8Nv2D25v7YmzE+B3k7Wde3PMBMGA1UdJQQMMAoGCCsGAQUFBwMB
MAsGA1UdDwQEAwIFoDAZBgNVHREEEjAQgg50ZWFtNjE1LXNlcnZlcjANBgkqhkiG
9w0BAQsFAAOCAQEAafuzgFgw2SEhz0Kp6Tq/a9/jLSc/P6eWFyKfs00Ac1ClEhWq
2JEznLfw2g+k5qTfYVccns+4WGBHup7dZtiLzCkihS8BKZWYUlCR8crFDj+Ck9OM
kOHpTQlt7eQUccttO2+rJkHiV6XW0QdR27KCrAs/FllGE/Am1rOO+jeOx4K4wwHb
/abJE89Srs1ALWpb9JqtkpqytLhJlU4YNnIMx/ZjD1XkyhgCbab/AJ3y6dmpYoF6
oWHXwJZvpmLJuxD9pSv2RaXNEMwbNKlO64CZTHwSY6E95BaXVNEGg5ZFeVlcKeht
z1tsGcoX5H7yeg/zFPGXS/HEXgQYIP2PWDS9EA==
-----END CERTIFICATE-----
