Certificate:
    Data:
        Version: 3 (0x2)
        Serial Number:
            c2:e7:81:cf:ad:c8:3a:5f:96:a1:c7:c1:24:a1:fa:dc
        Signature Algorithm: sha256WithRSAEncryption
        Issuer: CN=team318-net
        Validity
            Not Before: Sep 13 01:39:48 2021 GMT
            Not After : Aug 28 01:39:48 2024 GMT
        Subject: CN=team318-server
        Subject Public Key Info:
            Public Key Algorithm: rsaEncryption
                RSA Public-Key: (2048 bit)
                Modulus:
                    00:cb:f3:5c:f2:ee:3b:44:08:b9:ae:6f:06:d1:90:
                    17:fb:c5:7a:ee:25:7f:4d:9e:63:c9:f4:3d:5b:47:
                    e9:ba:77:95:9d:0e:f9:2e:97:9d:af:8c:b4:05:f9:
                    67:4b:91:f5:8d:97:52:46:5b:d3:d0:a1:ac:38:7d:
                    a8:6f:8b:58:2d:87:e8:a1:ee:86:1e:35:6e:d4:14:
                    b3:6a:63:38:89:31:6c:e7:62:46:c3:25:20:4b:64:
                    1e:90:0b:d7:71:70:4a:c2:ea:5d:e0:2e:78:08:15:
                    66:b4:bf:5b:1b:05:a5:c2:21:43:d5:37:3f:10:26:
                    25:83:35:e4:e6:3b:8b:e0:22:80:39:ee:73:39:db:
                    87:33:2e:ac:c3:f3:44:02:f7:ed:0b:00:0e:70:8a:
                    d8:c0:5e:6a:8d:cd:f7:95:a7:28:cb:75:40:86:60:
                    92:2f:c0:a3:5b:bd:43:41:11:df:19:c6:e4:24:5f:
                    65:7a:4a:6b:5c:a4:c3:f7:03:e3:64:b5:cf:cd:f8:
                    d7:89:25:5b:62:07:85:3c:6c:24:ba:6f:01:6d:c5:
                    34:ed:0b:ec:02:47:88:4c:da:42:4a:92:3d:1b:1a:
                    b5:27:fb:dd:a3:63:4b:e0:9b:4d:a4:0a:8e:24:ef:
                    cc:79:7e:bd:de:e3:c7:37:29:f2:a7:08:40:d5:07:
                    09:cb
                Exponent: 65537 (0x10001)
        X509v3 extensions:
            X509v3 Basic Constraints: 
                CA:FALSE
            X509v3 Subject Key Identifier: 
                E6:FD:8E:DD:A7:D9:F2:CE:DD:0C:7D:47:75:F9:AE:A2:7B:F7:C4:28
            X509v3 Authority Key Identifier: 
                keyid:3B:E0:F3:1F:A3:2E:6D:CE:2B:7B:F4:BB:DA:61:70:34:94:4D:F0:D5
                DirName:/CN=team318-net
                serial:03:76:F1:6A:12:DD:AA:E4:8E:1F:5D:40:2A:06:18:EF:9F:6D:E3:70

            X509v3 Extended Key Usage: 
                TLS Web Server Authentication
            X509v3 Key Usage: 
                Digital Signature, Key Encipherment
            X509v3 Subject Alternative Name: 
                DNS:team318-server
    Signature Algorithm: sha256WithRSAEncryption
         03:e3:b4:5f:fd:01:63:b9:76:f4:4a:95:15:b9:ff:bf:58:ec:
         54:e0:a0:e7:cb:41:df:49:b3:bf:e6:2d:88:3f:38:90:ce:b0:
         56:43:4b:f3:fb:b0:3e:52:8a:00:49:68:da:17:8a:49:17:4d:
         03:91:99:dd:af:d1:aa:ea:f2:9f:34:b3:a2:fd:0b:01:43:b6:
         78:89:15:88:8e:a4:c9:c3:d6:e9:b1:34:8b:fd:e4:c8:49:d1:
         05:9f:9e:26:62:88:b9:2d:52:42:d7:6d:66:34:07:fd:6f:1e:
         3d:e2:3b:e4:7a:8f:32:3e:d3:e2:66:a1:be:1b:c3:a0:8e:41:
         f8:0c:13:96:1b:27:a3:18:17:cd:02:b0:15:37:29:9d:ac:7f:
         52:8a:32:58:0d:eb:9e:d9:9f:e0:94:72:0b:ba:d6:0b:0e:95:
         e3:94:36:ef:09:92:29:63:e6:a7:e0:21:ac:86:28:08:21:d4:
         42:a7:1e:60:36:c8:5b:76:05:f6:56:78:29:48:cd:f1:d1:48:
         02:6b:5d:be:01:20:e6:17:9f:de:2c:4d:f7:1d:f1:9b:af:75:
         ca:b4:13:aa:79:8b:02:96:d6:c7:0a:96:86:8c:ed:7d:56:0d:
         82:c8:83:63:ee:89:93:62:1f:86:24:76:6a:56:85:09:17:14:
         82:38:6a:88
-----BEGIN CERTIFICATE-----
MIIDeDCCAmCgAwIBAgIRAMLngc+tyDpflqHHwSSh+twwDQYJKoZIhvcNAQELBQAw
FjEUMBIGA1UEAwwLdGVhbTMxOC1uZXQwHhcNMjEwOTEzMDEzOTQ4WhcNMjQwODI4
MDEzOTQ4WjAZMRcwFQYDVQQDDA50ZWFtMzE4LXNlcnZlcjCCASIwDQYJKoZIhvcN
AQEBBQADggEPADCCAQoCggEBAMvzXPLuO0QIua5vBtGQF/vFeu4lf02eY8n0PVtH
6bp3lZ0O+S6Xna+MtAX5Z0uR9Y2XUkZb09ChrDh9qG+LWC2H6KHuhh41btQUs2pj
OIkxbOdiRsMlIEtkHpAL13FwSsLqXeAueAgVZrS/WxsFpcIhQ9U3PxAmJYM15OY7
i+AigDnucznbhzMurMPzRAL37QsADnCK2MBeao3N95WnKMt1QIZgki/Ao1u9Q0ER
3xnG5CRfZXpKa1ykw/cD42S1z83414klW2IHhTxsJLpvAW3FNO0L7AJHiEzaQkqS
PRsatSf73aNjS+CbTaQKjiTvzHl+vd7jxzcp8qcIQNUHCcsCAwEAAaOBvTCBujAJ
BgNVHRMEAjAAMB0GA1UdDgQWBBTm/Y7dp9nyzt0MfUd1+a6ie/fEKDBRBgNVHSME
SjBIgBQ74PMfoy5tzit79LvaYXA0lE3w1aEapBgwFjEUMBIGA1UEAwwLdGVhbTMx
OC1uZXSCFAN28WoS3arkjh9dQCoGGO+fbeNwMBMGA1UdJQQMMAoGCCsGAQUFBwMB
MAsGA1UdDwQEAwIFoDAZBgNVHREEEjAQgg50ZWFtMzE4LXNlcnZlcjANBgkqhkiG
9w0BAQsFAAOCAQEAA+O0X/0BY7l29EqVFbn/v1jsVOCg58tB30mzv+YtiD84kM6w
VkNL8/uwPlKKAElo2heKSRdNA5GZ3a/RqurynzSzov0LAUO2eIkViI6kycPW6bE0
i/3kyEnRBZ+eJmKIuS1SQtdtZjQH/W8ePeI75HqPMj7T4mahvhvDoI5B+AwTlhsn
oxgXzQKwFTcpnax/UooyWA3rntmf4JRyC7rWCw6V45Q27wmSKWPmp+AhrIYoCCHU
QqceYDbIW3YF9lZ4KUjN8dFIAmtdvgEg5hef3ixN9x3xm691yrQTqnmLApbWxwqW
hoztfVYNgsiDY+6Jk2IfhiR2alaFCRcUgjhqiA==
-----END CERTIFICATE-----
