Certificate:
    Data:
        Version: 3 (0x2)
        Serial Number:
            c9:b0:20:92:0e:0b:a3:e5:f8:8d:66:ce:d9:6c:a7:f3
        Signature Algorithm: sha256WithRSAEncryption
        Issuer: CN=team430-net
        Validity
            Not Before: Sep 13 02:32:53 2021 GMT
            Not After : Aug 28 02:32:53 2024 GMT
        Subject: CN=team430-server
        Subject Public Key Info:
            Public Key Algorithm: rsaEncryption
                RSA Public-Key: (2048 bit)
                Modulus:
                    00:bf:45:46:42:21:de:84:bb:a0:21:40:8b:8f:f3:
                    bb:bf:5f:2a:a0:ce:58:b4:a9:cd:43:13:fd:3e:32:
                    74:b0:77:43:cd:dd:aa:90:1d:4a:92:9f:94:a9:48:
                    1a:fb:47:c4:f1:a3:e9:7e:d7:13:fe:47:06:a6:3c:
                    74:65:62:9f:fd:90:62:cc:3c:bc:a9:11:55:fb:7d:
                    e3:e4:d0:47:fb:33:fc:96:24:d5:e4:2d:b0:21:a5:
                    77:f3:ea:e8:fe:be:18:02:5e:5d:7b:69:21:b6:09:
                    64:dd:5e:37:3a:0c:48:46:18:3d:70:76:9a:0d:03:
                    5a:81:56:1c:67:e9:01:47:05:65:55:ea:80:ac:ee:
                    27:b5:a2:fb:fe:0c:9f:6c:12:c5:c3:34:38:3d:93:
                    72:25:2b:df:c4:3d:4e:8a:e5:25:4d:49:07:4a:51:
                    3a:0f:e1:70:38:1c:19:3b:40:69:69:56:97:3a:54:
                    5e:ba:17:0b:0a:24:84:0f:6a:cb:48:bd:4a:e7:40:
                    26:cd:12:c7:02:8e:a5:2f:19:ba:74:6d:41:cd:c3:
                    e3:57:6a:c0:5c:89:94:23:40:59:aa:6f:74:64:72:
                    90:cb:a3:02:0c:26:e7:14:dd:61:06:77:b3:51:4a:
                    d9:58:73:29:ae:d6:85:7d:50:c3:ff:29:2e:7a:e8:
                    87:fd
                Exponent: 65537 (0x10001)
        X509v3 extensions:
            X509v3 Basic Constraints: 
                CA:FALSE
            X509v3 Subject Key Identifier: 
                05:27:3D:96:33:C5:B9:52:9B:D1:AC:03:D7:33:3E:12:4A:E0:E8:41
            X509v3 Authority Key Identifier: 
                keyid:8F:3E:92:37:8C:3D:AD:3A:F4:1D:DF:A6:4D:0C:18:21:E9:3A:26:38
                DirName:/CN=team430-net
                serial:5B:0C:A8:F6:53:51:5F:88:40:09:D1:54:50:7D:86:C2:2D:54:40:17

            X509v3 Extended Key Usage: 
                TLS Web Server Authentication
            X509v3 Key Usage: 
                Digital Signature, Key Encipherment
            X509v3 Subject Alternative Name: 
                DNS:team430-server
    Signature Algorithm: sha256WithRSAEncryption
         46:79:6d:c1:ff:34:8b:09:3c:f5:e5:c8:8f:32:12:4c:c5:48:
         ca:03:62:f5:51:bf:8e:7d:4a:fc:ab:aa:1b:38:05:0a:26:bc:
         82:2b:10:95:54:a4:f4:02:85:ff:b1:68:29:05:93:32:38:28:
         cd:06:48:fe:b8:8d:02:4a:d4:cd:78:9f:68:6e:7f:c8:70:b7:
         8c:dd:05:41:1f:06:26:e6:f2:37:d9:03:8f:53:7a:7a:1f:d9:
         5d:44:66:12:73:2a:e6:e0:96:dd:5b:8a:8e:40:97:54:26:88:
         90:bc:1e:a6:81:a5:ec:5e:8c:5d:de:8f:4f:42:7d:dc:95:df:
         1d:df:88:1f:c9:96:3e:7b:4e:1e:4b:29:5c:36:30:05:f0:3f:
         cd:32:ae:13:82:fa:ee:48:cc:4b:3b:aa:7c:5c:73:3c:15:c3:
         89:68:28:42:d1:16:a6:a2:11:30:6b:62:47:85:7d:b6:5b:89:
         4d:d2:5b:f0:f8:8b:db:72:77:23:0e:28:c5:89:1f:42:a8:88:
         9b:c3:19:fc:92:04:0b:e0:8b:9d:fa:bc:7c:7e:61:0d:42:00:
         7a:51:c3:26:ca:d1:67:87:f1:d2:1c:ad:8f:cb:b6:a1:43:6c:
         52:64:ba:1c:c2:d6:ca:0f:03:b4:1e:04:cc:9b:50:61:19:85:
         7a:90:ca:5c
-----BEGIN CERTIFICATE-----
MIIDeDCCAmCgAwIBAgIRAMmwIJIOC6Pl+I1mztlsp/MwDQYJKoZIhvcNAQELBQAw
FjEUMBIGA1UEAwwLdGVhbTQzMC1uZXQwHhcNMjEwOTEzMDIzMjUzWhcNMjQwODI4
MDIzMjUzWjAZMRcwFQYDVQQDDA50ZWFtNDMwLXNlcnZlcjCCASIwDQYJKoZIhvcN
AQEBBQADggEPADCCAQoCggEBAL9FRkIh3oS7oCFAi4/zu79fKqDOWLSpzUMT/T4y
dLB3Q83dqpAdSpKflKlIGvtHxPGj6X7XE/5HBqY8dGVin/2QYsw8vKkRVft94+TQ
R/sz/JYk1eQtsCGld/Pq6P6+GAJeXXtpIbYJZN1eNzoMSEYYPXB2mg0DWoFWHGfp
AUcFZVXqgKzuJ7Wi+/4Mn2wSxcM0OD2TciUr38Q9TorlJU1JB0pROg/hcDgcGTtA
aWlWlzpUXroXCwokhA9qy0i9SudAJs0SxwKOpS8ZunRtQc3D41dqwFyJlCNAWapv
dGRykMujAgwm5xTdYQZ3s1FK2VhzKa7WhX1Qw/8pLnroh/0CAwEAAaOBvTCBujAJ
BgNVHRMEAjAAMB0GA1UdDgQWBBQFJz2WM8W5UpvRrAPXMz4SSuDoQTBRBgNVHSME
SjBIgBSPPpI3jD2tOvQd36ZNDBgh6TomOKEapBgwFjEUMBIGA1UEAwwLdGVhbTQz
MC1uZXSCFFsMqPZTUV+IQAnRVFB9hsItVEAXMBMGA1UdJQQMMAoGCCsGAQUFBwMB
MAsGA1UdDwQEAwIFoDAZBgNVHREEEjAQgg50ZWFtNDMwLXNlcnZlcjANBgkqhkiG
9w0BAQsFAAOCAQEARnltwf80iwk89eXIjzISTMVIygNi9VG/jn1K/KuqGzgFCia8
gisQlVSk9AKF/7FoKQWTMjgozQZI/riNAkrUzXifaG5/yHC3jN0FQR8GJubyN9kD
j1N6eh/ZXURmEnMq5uCW3VuKjkCXVCaIkLwepoGl7F6MXd6PT0J93JXfHd+IH8mW
PntOHkspXDYwBfA/zTKuE4L67kjMSzuqfFxzPBXDiWgoQtEWpqIRMGtiR4V9tluJ
TdJb8PiL23J3Iw4oxYkfQqiIm8MZ/JIEC+CLnfq8fH5hDUIAelHDJsrRZ4fx0hyt
j8u2oUNsUmS6HMLWyg8DtB4EzJtQYRmFepDKXA==
-----END CERTIFICATE-----
