Certificate:
    Data:
        Version: 3 (0x2)
        Serial Number:
            3d:d1:51:bd:20:bb:b2:a4:1e:ca:10:35:d1:b6:19:fc
        Signature Algorithm: sha256WithRSAEncryption
        Issuer: CN=team529-net
        Validity
            Not Before: Sep 13 03:21:28 2021 GMT
            Not After : Aug 28 03:21:28 2024 GMT
        Subject: CN=team529-client
        Subject Public Key Info:
            Public Key Algorithm: rsaEncryption
                RSA Public-Key: (2048 bit)
                Modulus:
                    00:ef:cf:b8:96:cd:18:a1:d4:4b:a2:a6:a8:ae:71:
                    1f:c6:62:f4:aa:69:a1:5b:0b:ef:1e:57:57:d5:ca:
                    29:45:dc:8a:ba:86:cd:eb:f7:da:25:34:5a:d6:40:
                    69:be:44:94:de:95:6b:a8:2e:ce:13:f2:01:21:ab:
                    2b:ba:c0:6b:c5:df:b5:85:94:9b:28:0d:a9:b7:f9:
                    82:75:c5:97:b2:4a:a4:00:6c:39:08:25:43:7c:60:
                    53:9c:06:ff:e2:7a:7b:8a:8a:1c:a6:b6:0f:9e:66:
                    5c:1a:18:ec:f4:3e:81:91:cb:a2:df:c5:27:8f:d0:
                    59:a1:c1:08:fa:2f:d4:c3:13:21:1d:28:37:d2:5d:
                    45:fc:ed:77:06:d3:8a:66:f8:61:09:cf:6b:df:3d:
                    34:38:92:a7:04:0d:b4:56:7a:ad:6b:c1:de:1b:e4:
                    3d:d9:0a:1d:c2:e5:a3:3a:a7:42:ed:9e:56:cb:bd:
                    6d:4e:8c:ee:6d:ac:a4:ec:ee:db:5b:4e:79:c6:6f:
                    ba:05:85:ac:d6:8e:96:fb:af:c2:58:9f:76:7c:e6:
                    f3:ac:3b:71:8e:8c:51:f2:24:06:c0:bc:00:68:77:
                    0c:33:6c:a1:40:38:e9:e8:19:69:0f:26:d4:1d:2d:
                    45:80:40:2c:81:98:8a:b0:95:48:41:71:12:d5:98:
                    de:15
                Exponent: 65537 (0x10001)
        X509v3 extensions:
            X509v3 Basic Constraints: 
                CA:FALSE
            X509v3 Subject Key Identifier: 
                A6:27:1C:0E:89:EE:2E:A2:5D:B3:2B:73:E3:EC:84:C7:9A:B0:38:80
            X509v3 Authority Key Identifier: 
                keyid:9C:F8:1B:74:C1:8D:5C:91:5D:64:3A:05:AD:66:63:83:92:AD:90:C0
                DirName:/CN=team529-net
                serial:3A:55:A9:27:07:6A:E0:E9:FB:AB:5C:54:5D:5C:E9:5D:0B:99:60:FC

            X509v3 Extended Key Usage: 
                TLS Web Client Authentication
            X509v3 Key Usage: 
                Digital Signature
    Signature Algorithm: sha256WithRSAEncryption
         3a:d6:ee:9c:70:05:60:78:59:03:d0:ee:e7:d2:e0:c2:ad:6a:
         ed:73:62:ac:46:d0:92:30:be:93:14:91:43:50:92:5e:53:3e:
         e0:fb:d0:9c:7b:0c:32:31:c4:30:7b:cd:7d:3c:8d:8b:76:01:
         83:be:49:84:3f:7c:96:26:9b:30:6c:20:e6:39:77:f0:d8:46:
         e4:b7:79:91:a3:20:00:bd:67:38:9f:c6:85:04:02:19:95:87:
         06:65:58:8a:37:02:1d:34:29:b1:71:78:f6:7d:ea:4e:73:e6:
         d2:94:19:3e:9d:c4:da:c9:a7:b3:55:0d:8b:ee:5d:41:6c:a9:
         0b:93:0c:7f:66:c1:10:e0:8c:08:05:2b:8f:a2:5f:de:c9:7a:
         0b:9b:f6:ab:4e:8a:7b:27:22:da:ff:32:ae:4e:55:aa:83:fe:
         1d:35:59:a2:53:cd:8d:4f:bf:cf:a4:e6:bf:b5:21:23:cf:ac:
         80:af:08:ff:42:ce:ad:a1:ee:47:e9:8b:e0:b3:da:ec:54:6a:
         8d:18:0b:e8:57:3d:34:cc:0d:2b:46:ed:c9:50:bf:14:0f:47:
         8c:31:70:47:cc:fa:27:1e:0c:55:c2:5b:21:c0:37:f5:a4:9e:
         21:bc:0f:9d:b3:d1:72:07:ad:59:59:ec:0a:77:27:73:45:22:
         61:14:24:ac
-----BEGIN CERTIFICATE-----
MIIDXDCCAkSgAwIBAgIQPdFRvSC7sqQeyhA10bYZ/DANBgkqhkiG9w0BAQsFADAW
MRQwEgYDVQQDDAt0ZWFtNTI5LW5ldDAeFw0yMTA5MTMwMzIxMjhaFw0yNDA4Mjgw
MzIxMjhaMBkxFzAVBgNVBAMMDnRlYW01MjktY2xpZW50MIIBIjANBgkqhkiG9w0B
AQEFAAOCAQ8AMIIBCgKCAQEA78+4ls0YodRLoqaornEfxmL0qmmhWwvvHldX1cop
RdyKuobN6/faJTRa1kBpvkSU3pVrqC7OE/IBIasrusBrxd+1hZSbKA2pt/mCdcWX
skqkAGw5CCVDfGBTnAb/4np7ioocprYPnmZcGhjs9D6Bkcui38Unj9BZocEI+i/U
wxMhHSg30l1F/O13BtOKZvhhCc9r3z00OJKnBA20Vnqta8HeG+Q92QodwuWjOqdC
7Z5Wy71tTozubayk7O7bW055xm+6BYWs1o6W+6/CWJ92fObzrDtxjoxR8iQGwLwA
aHcMM2yhQDjp6BlpDybUHS1FgEAsgZiKsJVIQXES1ZjeFQIDAQABo4GiMIGfMAkG
A1UdEwQCMAAwHQYDVR0OBBYEFKYnHA6J7i6iXbMrc+PshMeasDiAMFEGA1UdIwRK
MEiAFJz4G3TBjVyRXWQ6Ba1mY4OSrZDAoRqkGDAWMRQwEgYDVQQDDAt0ZWFtNTI5
LW5ldIIUOlWpJwdq4On7q1xUXVzpXQuZYPwwEwYDVR0lBAwwCgYIKwYBBQUHAwIw
CwYDVR0PBAQDAgeAMA0GCSqGSIb3DQEBCwUAA4IBAQA61u6ccAVgeFkD0O7n0uDC
rWrtc2KsRtCSML6TFJFDUJJeUz7g+9CcewwyMcQwe819PI2LdgGDvkmEP3yWJpsw
bCDmOXfw2Ebkt3mRoyAAvWc4n8aFBAIZlYcGZViKNwIdNCmxcXj2fepOc+bSlBk+
ncTayaezVQ2L7l1BbKkLkwx/ZsEQ4IwIBSuPol/eyXoLm/arTop7JyLa/zKuTlWq
g/4dNVmiU82NT7/PpOa/tSEjz6yArwj/Qs6toe5H6Yvgs9rsVGqNGAvoVz00zA0r
Ru3JUL8UD0eMMXBHzPonHgxVwlshwDf1pJ4hvA+ds9FyB61ZWewKdydzRSJhFCSs
-----END CERTIFICATE-----
