Certificate:
    Data:
        Version: 3 (0x2)
        Serial Number:
            ec:ce:d2:5c:94:13:d2:50:b3:c7:44:0a:91:62:da:58
        Signature Algorithm: sha256WithRSAEncryption
        Issuer: CN=team240-net
        Validity
            Not Before: Sep 13 00:57:29 2021 GMT
            Not After : Aug 28 00:57:29 2024 GMT
        Subject: CN=team240-server
        Subject Public Key Info:
            Public Key Algorithm: rsaEncryption
                RSA Public-Key: (2048 bit)
                Modulus:
                    00:a5:5d:58:5c:3c:01:a5:53:e8:d3:fa:c7:67:68:
                    c0:d3:86:d1:17:b2:ba:4c:72:b1:bd:12:b6:29:51:
                    e1:6b:fc:92:88:8b:38:80:71:61:8e:ec:c8:39:21:
                    08:7e:37:5f:5f:79:a2:4b:42:b0:b6:21:82:19:4d:
                    06:96:d6:24:f3:36:52:5d:e1:68:98:5f:ca:65:bd:
                    43:b5:2a:5e:34:bb:6e:91:48:0d:63:c1:11:10:b4:
                    06:b8:a2:4f:d9:49:96:ce:08:bb:f4:9c:a4:6f:de:
                    9a:37:b1:f6:a4:d8:8d:67:29:87:78:1f:d0:4e:a6:
                    e6:2b:6a:d4:8f:d3:34:15:1e:72:70:c7:16:bd:2b:
                    7b:c3:24:1d:f2:f6:83:2b:0e:4b:c7:84:d3:f9:55:
                    81:95:8f:41:49:4e:d7:8a:7e:a7:a9:98:cb:5b:99:
                    46:df:13:26:42:95:7b:3f:65:27:2a:82:0a:26:0a:
                    7a:d4:aa:5c:ea:ae:1d:eb:bb:32:03:cf:83:8d:ba:
                    49:ed:5b:23:65:4d:f6:fd:12:9e:da:d0:82:d8:77:
                    b3:d5:12:b3:2d:5b:f3:9d:44:6f:6e:1d:85:ae:79:
                    bd:73:d2:a9:28:25:34:c9:97:4b:f0:35:0d:0e:70:
                    64:80:30:b7:d5:ef:66:8e:4f:4b:e6:ef:4b:84:38:
                    d6:f9
                Exponent: 65537 (0x10001)
        X509v3 extensions:
            X509v3 Basic Constraints: 
                CA:FALSE
            X509v3 Subject Key Identifier: 
                58:E2:58:DD:FE:6F:AF:01:C4:31:87:1B:6A:08:A6:3D:5A:03:22:4D
            X509v3 Authority Key Identifier: 
                keyid:5A:17:0A:0A:19:C3:6C:34:20:26:73:FE:39:AF:4D:14:4E:B9:C0:D6
                DirName:/CN=team240-net
                serial:65:80:33:D1:96:59:3A:05:E3:AB:15:BE:96:4B:BF:93:C3:29:62:4C

            X509v3 Extended Key Usage: 
                TLS Web Server Authentication
            X509v3 Key Usage: 
                Digital Signature, Key Encipherment
            X509v3 Subject Alternative Name: 
                DNS:team240-server
    Signature Algorithm: sha256WithRSAEncryption
         c1:da:f2:42:50:82:46:cc:49:c9:f9:c8:04:32:e3:e2:9e:1d:
         53:d2:5f:94:86:92:a6:fc:0a:a7:41:cd:9e:74:af:bd:2a:26:
         9a:1f:f0:f8:43:be:00:85:d0:d7:03:cd:fe:be:63:be:38:74:
         3d:64:e1:b9:35:95:a6:fa:c0:91:d8:c4:19:c4:b4:3e:ab:fb:
         54:9d:14:17:31:3b:fc:f8:06:78:cd:9c:97:1e:b4:e9:62:12:
         53:bf:f4:93:d3:42:92:ff:33:28:85:b0:14:50:43:ae:cf:fe:
         62:a2:02:c5:29:4b:f3:57:8a:7b:f9:cb:65:c0:67:6e:19:4b:
         2e:a0:09:7c:e9:46:b4:a0:68:83:c2:4c:9e:a7:59:91:79:57:
         75:57:41:10:95:b9:fc:91:a1:00:73:22:dd:4c:22:9d:50:7c:
         f8:3f:e7:be:60:64:0b:ad:c6:2f:bd:4f:a7:1a:3b:2e:ec:d5:
         b0:d2:05:03:9a:fd:93:78:2d:61:a9:6f:a9:89:8f:42:b3:ae:
         8b:fc:cb:e7:53:ba:d0:0a:9d:2f:e8:2b:b8:0b:3e:48:80:53:
         4c:0a:1a:90:c6:02:cf:56:8b:72:fe:29:c3:9c:7d:d5:52:fe:
         10:46:03:7d:27:08:1e:e2:83:85:75:fa:87:6f:28:a9:7f:6d:
         03:d0:21:ca
-----BEGIN CERTIFICATE-----
MIIDeDCCAmCgAwIBAgIRAOzO0lyUE9JQs8dECpFi2lgwDQYJKoZIhvcNAQELBQAw
FjEUMBIGA1UEAwwLdGVhbTI0MC1uZXQwHhcNMjEwOTEzMDA1NzI5WhcNMjQwODI4
MDA1NzI5WjAZMRcwFQYDVQQDDA50ZWFtMjQwLXNlcnZlcjCCASIwDQYJKoZIhvcN
AQEBBQADggEPADCCAQoCggEBAKVdWFw8AaVT6NP6x2dowNOG0Reyukxysb0StilR
4Wv8koiLOIBxYY7syDkhCH43X195oktCsLYhghlNBpbWJPM2Ul3haJhfymW9Q7Uq
XjS7bpFIDWPBERC0BriiT9lJls4Iu/ScpG/emjex9qTYjWcph3gf0E6m5itq1I/T
NBUecnDHFr0re8MkHfL2gysOS8eE0/lVgZWPQUlO14p+p6mYy1uZRt8TJkKVez9l
JyqCCiYKetSqXOquHeu7MgPPg426Se1bI2VN9v0SntrQgth3s9USsy1b851Eb24d
ha55vXPSqSglNMmXS/A1DQ5wZIAwt9XvZo5PS+bvS4Q41vkCAwEAAaOBvTCBujAJ
BgNVHRMEAjAAMB0GA1UdDgQWBBRY4ljd/m+vAcQxhxtqCKY9WgMiTTBRBgNVHSME
SjBIgBRaFwoKGcNsNCAmc/45r00UTrnA1qEapBgwFjEUMBIGA1UEAwwLdGVhbTI0
MC1uZXSCFGWAM9GWWToF46sVvpZLv5PDKWJMMBMGA1UdJQQMMAoGCCsGAQUFBwMB
MAsGA1UdDwQEAwIFoDAZBgNVHREEEjAQgg50ZWFtMjQwLXNlcnZlcjANBgkqhkiG
9w0BAQsFAAOCAQEAwdryQlCCRsxJyfnIBDLj4p4dU9JflIaSpvwKp0HNnnSvvSom
mh/w+EO+AIXQ1wPN/r5jvjh0PWThuTWVpvrAkdjEGcS0Pqv7VJ0UFzE7/PgGeM2c
lx606WISU7/0k9NCkv8zKIWwFFBDrs/+YqICxSlL81eKe/nLZcBnbhlLLqAJfOlG
tKBog8JMnqdZkXlXdVdBEJW5/JGhAHMi3UwinVB8+D/nvmBkC63GL71Ppxo7LuzV
sNIFA5r9k3gtYalvqYmPQrOui/zL51O60AqdL+gruAs+SIBTTAoakMYCz1aLcv4p
w5x91VL+EEYDfScIHuKDhXX6h28oqX9tA9Ahyg==
-----END CERTIFICATE-----
