Certificate:
    Data:
        Version: 3 (0x2)
        Serial Number:
            f6:17:a9:1a:fe:c1:e1:38:4c:30:27:e5:16:94:56:05
        Signature Algorithm: sha256WithRSAEncryption
        Issuer: CN=team86-net
        Validity
            Not Before: Sep 12 23:26:24 2021 GMT
            Not After : Aug 27 23:26:24 2024 GMT
        Subject: CN=team86-server
        Subject Public Key Info:
            Public Key Algorithm: rsaEncryption
                RSA Public-Key: (2048 bit)
                Modulus:
                    00:ac:09:df:3e:27:cf:2f:eb:6d:ec:09:6e:90:83:
                    57:bf:72:7e:52:5e:88:19:95:ea:59:f7:e6:6c:75:
                    a3:95:3b:b7:1e:a5:80:74:7f:7a:e5:93:ab:02:54:
                    d4:80:96:84:93:28:bd:db:1d:d0:fa:eb:94:31:4c:
                    fe:b2:9f:3d:6f:58:ea:0c:56:b5:a5:49:eb:dd:19:
                    26:5e:e4:13:2d:cf:e7:a8:f1:1c:63:bb:92:e2:4f:
                    e2:8f:f7:65:7c:bc:41:78:d8:9f:55:2e:76:9c:c7:
                    b0:e1:49:e2:c8:c3:cf:73:5c:e9:52:1d:f6:f5:f6:
                    01:b8:9f:b3:39:f3:4c:f1:4c:4b:78:36:fc:9e:45:
                    74:fd:67:45:e3:aa:4d:9e:dd:1c:90:dc:de:8c:7b:
                    08:20:91:9d:f9:3e:96:63:46:57:94:57:7d:c4:a3:
                    8b:17:4c:73:19:8a:c0:35:ef:d1:ad:b5:c0:68:65:
                    6c:fc:55:00:17:eb:9e:46:be:a0:e3:b4:f3:a1:c4:
                    a7:6f:34:2e:d9:38:d1:db:a6:4b:e7:6c:ad:f9:c7:
                    6f:ba:68:01:f5:90:21:c7:77:82:13:6c:cd:a6:b8:
                    73:e9:c3:7c:28:63:1d:d2:41:84:48:86:8a:56:73:
                    c9:3d:aa:9d:5b:fc:56:f0:8d:8d:fe:73:14:8d:4e:
                    f2:f7
                Exponent: 65537 (0x10001)
        X509v3 extensions:
            X509v3 Basic Constraints: 
                CA:FALSE
            X509v3 Subject Key Identifier: 
                80:C6:E2:30:CC:04:86:9A:1E:15:FA:98:33:D8:89:4B:0D:04:CF:AD
            X509v3 Authority Key Identifier: 
                keyid:CA:80:4E:94:04:23:73:BD:F6:5C:AE:C5:14:D3:99:EB:2A:A5:2D:3B
                DirName:/CN=team86-net
                serial:23:12:9D:4E:B6:EE:D3:0E:82:DB:84:D4:01:E4:ED:B8:5D:50:41:75

            X509v3 Extended Key Usage: 
                TLS Web Server Authentication
            X509v3 Key Usage: 
                Digital Signature, Key Encipherment
            X509v3 Subject Alternative Name: 
                DNS:team86-server
    Signature Algorithm: sha256WithRSAEncryption
         ae:b6:f3:ab:a0:c4:06:5c:b3:4d:2d:72:fe:9f:6c:e6:34:56:
         39:36:53:ee:ca:43:ce:9a:88:a6:74:18:df:d8:31:00:8f:72:
         47:3c:f2:5d:f4:88:62:e1:f7:d0:ba:ad:da:88:ff:b4:b3:ae:
         99:5e:4b:65:5d:4c:a5:75:f5:75:98:a0:96:c2:a6:22:08:d4:
         72:b1:92:c5:4b:2f:8e:6b:1f:1e:b1:38:5a:e7:22:6d:d6:93:
         1f:a6:ee:6a:ad:c0:0b:20:c3:d3:9e:a8:68:b5:a5:8b:97:1f:
         86:62:55:d5:27:60:cd:87:5a:d7:bb:be:d6:9f:08:99:cc:a4:
         e8:49:d8:c8:d5:09:88:69:58:56:26:0a:8a:33:e2:d8:4a:95:
         fc:76:fc:11:42:9b:bc:69:5e:e1:21:22:1f:d6:18:63:79:d6:
         9f:cf:d5:95:b8:1c:fd:6d:bb:c2:c9:a1:4c:81:16:72:49:43:
         44:43:7a:48:a9:86:89:42:ff:3d:52:9f:33:a2:c0:cf:3b:19:
         2a:d4:a6:fd:3f:d1:cf:7b:42:a5:b3:63:95:c2:20:cc:0f:b1:
         73:2f:2d:a4:67:48:0c:23:31:46:26:f2:59:48:b4:c7:5a:34:
         29:65:55:f8:2a:26:da:34:b2:25:6c:27:88:2c:d7:5e:1a:3c:
         d6:7d:f9:1f
-----BEGIN CERTIFICATE-----
MIIDdDCCAlygAwIBAgIRAPYXqRr+weE4TDAn5RaUVgUwDQYJKoZIhvcNAQELBQAw
FTETMBEGA1UEAwwKdGVhbTg2LW5ldDAeFw0yMTA5MTIyMzI2MjRaFw0yNDA4Mjcy
MzI2MjRaMBgxFjAUBgNVBAMMDXRlYW04Ni1zZXJ2ZXIwggEiMA0GCSqGSIb3DQEB
AQUAA4IBDwAwggEKAoIBAQCsCd8+J88v623sCW6Qg1e/cn5SXogZlepZ9+ZsdaOV
O7cepYB0f3rlk6sCVNSAloSTKL3bHdD665QxTP6ynz1vWOoMVrWlSevdGSZe5BMt
z+eo8Rxju5LiT+KP92V8vEF42J9VLnacx7DhSeLIw89zXOlSHfb19gG4n7M580zx
TEt4NvyeRXT9Z0Xjqk2e3RyQ3N6MewggkZ35PpZjRleUV33Eo4sXTHMZisA179Gt
tcBoZWz8VQAX655GvqDjtPOhxKdvNC7ZONHbpkvnbK35x2+6aAH1kCHHd4ITbM2m
uHPpw3woYx3SQYRIhopWc8k9qp1b/FbwjY3+cxSNTvL3AgMBAAGjgbswgbgwCQYD
VR0TBAIwADAdBgNVHQ4EFgQUgMbiMMwEhpoeFfqYM9iJSw0Ez60wUAYDVR0jBEkw
R4AUyoBOlAQjc732XK7FFNOZ6yqlLTuhGaQXMBUxEzARBgNVBAMMCnRlYW04Ni1u
ZXSCFCMSnU627tMOgtuE1AHk7bhdUEF1MBMGA1UdJQQMMAoGCCsGAQUFBwMBMAsG
A1UdDwQEAwIFoDAYBgNVHREEETAPgg10ZWFtODYtc2VydmVyMA0GCSqGSIb3DQEB
CwUAA4IBAQCutvOroMQGXLNNLXL+n2zmNFY5NlPuykPOmoimdBjf2DEAj3JHPPJd
9Ihi4ffQuq3aiP+0s66ZXktlXUyldfV1mKCWwqYiCNRysZLFSy+Oax8esTha5yJt
1pMfpu5qrcALIMPTnqhotaWLlx+GYlXVJ2DNh1rXu77WnwiZzKToSdjI1QmIaVhW
JgqKM+LYSpX8dvwRQpu8aV7hISIf1hhjedafz9WVuBz9bbvCyaFMgRZySUNEQ3pI
qYaJQv89Up8zosDPOxkq1Kb9P9HPe0Kls2OVwiDMD7FzLy2kZ0gMIzFGJvJZSLTH
WjQpZVX4KibaNLIlbCeILNdeGjzWffkf
-----END CERTIFICATE-----
