Certificate:
    Data:
        Version: 3 (0x2)
        Serial Number:
            84:1b:eb:92:7a:50:40:82:6c:16:8e:9c:61:63:5e:c4
        Signature Algorithm: sha256WithRSAEncryption
        Issuer: CN=team718-net
        Validity
            Not Before: Sep 13 05:32:14 2021 GMT
            Not After : Aug 28 05:32:14 2024 GMT
        Subject: CN=team718-client
        Subject Public Key Info:
            Public Key Algorithm: rsaEncryption
                RSA Public-Key: (2048 bit)
                Modulus:
                    00:b5:6e:60:d5:be:94:6c:7b:b7:83:85:d7:6d:3d:
                    1f:f6:c7:d5:47:91:11:ae:13:dd:e9:22:ea:a5:2f:
                    fb:7f:cf:08:eb:1e:af:2c:83:08:20:95:bf:5d:fe:
                    6d:51:5c:4d:5d:ab:84:82:29:0c:3a:da:33:df:e0:
                    eb:33:73:0f:58:94:15:f8:fb:57:62:49:51:5c:26:
                    57:c8:fd:16:b4:93:ee:86:40:f1:3b:dc:9d:50:a1:
                    e9:32:ef:60:08:00:f9:8b:2b:df:96:65:b9:e9:64:
                    de:c4:1b:07:9f:34:ac:9d:bc:a7:15:77:7a:2c:51:
                    2e:3e:db:01:74:82:b4:3b:4f:6c:51:7b:b6:a2:98:
                    d3:96:ac:9b:ae:23:ac:20:51:76:e9:dc:58:4d:cd:
                    b8:b5:43:21:19:d7:b5:94:d3:93:85:91:90:bc:0b:
                    a4:15:e8:02:e2:d9:ef:ae:9c:62:b6:c6:83:80:78:
                    8e:f9:cb:47:0e:cb:28:59:ed:a1:58:b9:5e:46:de:
                    ff:e2:bd:70:9a:20:b9:a0:59:5b:f6:b0:91:3e:80:
                    b5:d7:af:bc:b2:f1:86:fb:61:43:a4:1c:f5:24:5b:
                    7b:f8:af:55:3f:d7:f2:ba:36:2d:29:f6:0a:e9:21:
                    ab:f4:08:d5:f0:c5:30:6a:ba:4a:89:ca:6d:74:a9:
                    c9:b1
                Exponent: 65537 (0x10001)
        X509v3 extensions:
            X509v3 Basic Constraints: 
                CA:FALSE
            X509v3 Subject Key Identifier: 
                EB:C6:89:A6:EA:DF:57:B1:91:2F:72:8C:8C:C1:0A:AD:F2:56:7A:0A
            X509v3 Authority Key Identifier: 
                keyid:9A:80:35:E8:F1:3E:F3:BC:13:F6:34:55:D8:7F:23:FF:44:8C:F6:D7
                DirName:/CN=team718-net
                serial:2F:75:1E:A5:CE:65:4A:A1:ED:26:C5:76:60:C8:1F:BA:02:D5:88:DC

            X509v3 Extended Key Usage: 
                TLS Web Client Authentication
            X509v3 Key Usage: 
                Digital Signature
    Signature Algorithm: sha256WithRSAEncryption
         8e:99:27:d9:40:50:b2:87:c1:83:a1:96:cc:83:b1:9b:67:8e:
         b7:a4:cc:79:ab:93:87:64:25:14:cd:ef:b6:0a:df:e6:81:45:
         b4:e7:66:bb:22:4a:70:85:8b:0a:ff:02:fd:9b:08:2d:8d:1c:
         9f:a9:6f:53:88:c7:c4:df:69:4b:c7:ca:36:9e:f4:3a:61:b3:
         2c:76:10:04:e2:1c:59:2a:47:3a:83:a5:6d:78:eb:1c:7f:99:
         8a:8d:ad:38:9a:24:c0:75:03:54:45:46:0e:9b:dd:e0:1c:e1:
         17:31:34:d6:88:a0:f4:31:cc:ea:c2:13:08:a6:67:07:8c:4d:
         ae:3c:12:e2:4e:d7:52:df:18:ef:3c:7d:0f:9a:a2:ef:85:f1:
         56:46:29:a5:b9:81:59:ba:76:db:03:30:e6:28:39:a3:8a:97:
         96:ba:ce:41:17:49:e8:21:4a:45:ff:4e:bc:1b:d0:bb:62:e9:
         4d:e6:05:71:f3:a4:25:68:a8:24:44:68:8d:76:10:24:48:57:
         0f:43:45:19:84:ae:8f:49:88:dc:0d:98:1d:de:18:4a:21:da:
         a4:f8:28:dd:fd:dc:58:53:39:7e:98:2c:05:72:e1:5b:25:ce:
         3e:7f:57:31:53:95:06:6b:fc:12:76:90:84:48:ec:12:c0:a0:
         6c:67:40:a4
-----BEGIN CERTIFICATE-----
MIIDXTCCAkWgAwIBAgIRAIQb65J6UECCbBaOnGFjXsQwDQYJKoZIhvcNAQELBQAw
FjEUMBIGA1UEAwwLdGVhbTcxOC1uZXQwHhcNMjEwOTEzMDUzMjE0WhcNMjQwODI4
MDUzMjE0WjAZMRcwFQYDVQQDDA50ZWFtNzE4LWNsaWVudDCCASIwDQYJKoZIhvcN
AQEBBQADggEPADCCAQoCggEBALVuYNW+lGx7t4OF1209H/bH1UeREa4T3eki6qUv
+3/PCOseryyDCCCVv13+bVFcTV2rhIIpDDraM9/g6zNzD1iUFfj7V2JJUVwmV8j9
FrST7oZA8TvcnVCh6TLvYAgA+Ysr35Zluelk3sQbB580rJ28pxV3eixRLj7bAXSC
tDtPbFF7tqKY05asm64jrCBRduncWE3NuLVDIRnXtZTTk4WRkLwLpBXoAuLZ766c
YrbGg4B4jvnLRw7LKFntoVi5Xkbe/+K9cJoguaBZW/awkT6AtdevvLLxhvthQ6Qc
9SRbe/ivVT/X8ro2LSn2Cukhq/QI1fDFMGq6SonKbXSpybECAwEAAaOBojCBnzAJ
BgNVHRMEAjAAMB0GA1UdDgQWBBTrxomm6t9XsZEvcoyMwQqt8lZ6CjBRBgNVHSME
SjBIgBSagDXo8T7zvBP2NFXYfyP/RIz216EapBgwFjEUMBIGA1UEAwwLdGVhbTcx
OC1uZXSCFC91HqXOZUqh7SbFdmDIH7oC1YjcMBMGA1UdJQQMMAoGCCsGAQUFBwMC
MAsGA1UdDwQEAwIHgDANBgkqhkiG9w0BAQsFAAOCAQEAjpkn2UBQsofBg6GWzIOx
m2eOt6TMeauTh2QlFM3vtgrf5oFFtOdmuyJKcIWLCv8C/ZsILY0cn6lvU4jHxN9p
S8fKNp70OmGzLHYQBOIcWSpHOoOlbXjrHH+Zio2tOJokwHUDVEVGDpvd4BzhFzE0
1oig9DHM6sITCKZnB4xNrjwS4k7XUt8Y7zx9D5qi74XxVkYppbmBWbp22wMw5ig5
o4qXlrrOQRdJ6CFKRf9OvBvQu2LpTeYFcfOkJWioJERojXYQJEhXD0NFGYSuj0mI
3A2YHd4YSiHapPgo3f3cWFM5fpgsBXLhWyXOPn9XMVOVBmv8EnaQhEjsEsCgbGdA
pA==
-----END CERTIFICATE-----
