Certificate:
    Data:
        Version: 3 (0x2)
        Serial Number:
            d0:47:6d:73:b4:7d:be:44:2c:de:61:27:6d:fe:78:54
        Signature Algorithm: sha256WithRSAEncryption
        Issuer: CN=team721-net
        Validity
            Not Before: Sep 13 05:34:34 2021 GMT
            Not After : Aug 28 05:34:34 2024 GMT
        Subject: CN=team721-client
        Subject Public Key Info:
            Public Key Algorithm: rsaEncryption
                RSA Public-Key: (2048 bit)
                Modulus:
                    00:ab:fc:09:dc:e8:bf:9d:05:43:48:63:88:9f:cf:
                    c1:54:b9:67:71:fd:e4:dd:05:b9:54:1a:8e:37:e8:
                    5b:b5:37:79:5e:f1:70:cf:b2:e6:4e:7b:ba:12:74:
                    59:f5:70:50:3f:9e:a3:cb:c5:77:87:7f:b0:d3:4e:
                    f6:1a:70:57:fe:81:e6:6a:01:9b:65:73:a9:45:57:
                    dd:8d:f6:d4:04:4f:78:bf:79:19:fc:bc:e2:2d:10:
                    f1:2d:21:8f:9d:97:ba:69:12:71:48:8d:4e:f1:9c:
                    0c:4f:8f:34:84:d3:62:39:29:eb:10:3c:0b:1e:4e:
                    cc:ef:5a:07:93:8b:3c:a9:5c:2b:5e:2f:a8:46:11:
                    a5:74:59:2e:56:db:80:ad:b3:49:a1:99:5d:a7:42:
                    d9:68:a5:3d:95:97:ae:d6:6b:26:df:6c:99:10:af:
                    fe:b6:33:0a:b2:bc:8b:3b:95:5d:f2:5c:01:80:58:
                    eb:f3:bf:35:56:fa:fe:61:7f:8e:1b:5c:2e:29:80:
                    51:15:fc:f1:81:cd:b4:c0:73:1a:37:04:cc:db:63:
                    8f:4b:79:a7:3b:3f:2a:da:ed:ea:7f:aa:e8:29:2a:
                    47:46:fa:99:a9:eb:fc:d2:2c:02:db:09:55:ae:2a:
                    a4:14:9c:3f:98:f6:29:25:4a:98:89:2a:37:5c:44:
                    f0:49
                Exponent: 65537 (0x10001)
        X509v3 extensions:
            X509v3 Basic Constraints: 
                CA:FALSE
            X509v3 Subject Key Identifier: 
                92:8E:A9:AC:51:8F:7D:68:85:38:6D:D3:03:66:BB:81:F8:99:53:BD
            X509v3 Authority Key Identifier: 
                keyid:59:0B:05:98:90:75:C6:9F:FD:A8:AF:15:83:FD:EF:B1:2D:15:01:FB
                DirName:/CN=team721-net
                serial:04:CE:63:EC:BE:A4:77:2E:FB:21:BE:F9:4C:3B:08:66:51:BE:CE:6A

            X509v3 Extended Key Usage: 
                TLS Web Client Authentication
            X509v3 Key Usage: 
                Digital Signature
    Signature Algorithm: sha256WithRSAEncryption
         6e:34:0d:12:ce:ae:ca:2d:62:56:43:4a:a5:76:11:31:3f:db:
         ca:18:d7:35:0d:bb:84:01:7d:06:6d:f2:e4:04:6d:3c:e4:bd:
         10:ab:07:0c:e0:4a:46:e6:3d:60:26:b4:81:a0:35:db:ad:9f:
         a1:2c:50:d0:8b:67:dd:cf:94:f2:59:d4:d8:9e:35:b8:5d:65:
         09:91:3a:c4:73:cb:2a:44:7a:84:da:26:fd:33:d2:38:9b:b3:
         2f:29:8f:a4:8c:82:a4:78:37:08:28:fe:f4:6d:29:8c:3d:81:
         a4:ee:e1:62:96:ea:79:8a:e8:31:95:d9:0f:cf:50:c7:53:de:
         46:e4:f1:e9:62:6f:5c:79:5a:e9:74:ab:69:59:f1:b9:59:5e:
         b5:d3:7b:71:e3:b4:38:f7:a5:68:57:0d:48:17:dd:89:1e:dd:
         3a:b9:03:95:96:b0:32:9a:6a:99:01:9c:68:c5:ac:dc:74:cc:
         35:8e:99:2a:69:dd:32:32:0c:06:77:fb:a7:96:41:83:9e:b5:
         ed:1a:08:65:2e:2e:55:79:19:83:62:b6:ba:e2:c1:ee:23:57:
         04:e8:7e:8e:50:a3:75:ce:d8:da:34:9d:1b:2a:40:98:b9:ee:
         a6:e1:a6:c3:97:69:df:70:b4:d2:49:b5:0a:d4:dc:5d:f9:9c:
         41:10:f0:63
-----BEGIN CERTIFICATE-----
MIIDXTCCAkWgAwIBAgIRANBHbXO0fb5ELN5hJ23+eFQwDQYJKoZIhvcNAQELBQAw
FjEUMBIGA1UEAwwLdGVhbTcyMS1uZXQwHhcNMjEwOTEzMDUzNDM0WhcNMjQwODI4
MDUzNDM0WjAZMRcwFQYDVQQDDA50ZWFtNzIxLWNsaWVudDCCASIwDQYJKoZIhvcN
AQEBBQADggEPADCCAQoCggEBAKv8Cdzov50FQ0hjiJ/PwVS5Z3H95N0FuVQajjfo
W7U3eV7xcM+y5k57uhJ0WfVwUD+eo8vFd4d/sNNO9hpwV/6B5moBm2VzqUVX3Y32
1ARPeL95Gfy84i0Q8S0hj52XumkScUiNTvGcDE+PNITTYjkp6xA8Cx5OzO9aB5OL
PKlcK14vqEYRpXRZLlbbgK2zSaGZXadC2WilPZWXrtZrJt9smRCv/rYzCrK8izuV
XfJcAYBY6/O/NVb6/mF/jhtcLimAURX88YHNtMBzGjcEzNtjj0t5pzs/Ktrt6n+q
6CkqR0b6manr/NIsAtsJVa4qpBScP5j2KSVKmIkqN1xE8EkCAwEAAaOBojCBnzAJ
BgNVHRMEAjAAMB0GA1UdDgQWBBSSjqmsUY99aIU4bdMDZruB+JlTvTBRBgNVHSME
SjBIgBRZCwWYkHXGn/2orxWD/e+xLRUB+6EapBgwFjEUMBIGA1UEAwwLdGVhbTcy
MS1uZXSCFATOY+y+pHcu+yG++Uw7CGZRvs5qMBMGA1UdJQQMMAoGCCsGAQUFBwMC
MAsGA1UdDwQEAwIHgDANBgkqhkiG9w0BAQsFAAOCAQEAbjQNEs6uyi1iVkNKpXYR
MT/byhjXNQ27hAF9Bm3y5ARtPOS9EKsHDOBKRuY9YCa0gaA1262foSxQ0Itn3c+U
8lnU2J41uF1lCZE6xHPLKkR6hNom/TPSOJuzLymPpIyCpHg3CCj+9G0pjD2BpO7h
YpbqeYroMZXZD89Qx1PeRuTx6WJvXHla6XSraVnxuVletdN7ceO0OPelaFcNSBfd
iR7dOrkDlZawMppqmQGcaMWs3HTMNY6ZKmndMjIMBnf7p5ZBg5617RoIZS4uVXkZ
g2K2uuLB7iNXBOh+jlCjdc7Y2jSdGypAmLnupuGmw5dp33C00km1CtTcXfmcQRDw
Yw==
-----END CERTIFICATE-----
