Certificate:
    Data:
        Version: 3 (0x2)
        Serial Number:
            da:5c:c9:92:71:6b:12:48:5d:64:3c:88:26:1a:c8:6e
        Signature Algorithm: sha256WithRSAEncryption
        Issuer: CN=team338-net
        Validity
            Not Before: Sep 13 01:54:24 2021 GMT
            Not After : Aug 28 01:54:24 2024 GMT
        Subject: CN=team338-server
        Subject Public Key Info:
            Public Key Algorithm: rsaEncryption
                RSA Public-Key: (2048 bit)
                Modulus:
                    00:c4:1b:9e:18:34:f4:cb:44:f0:f6:c1:2a:16:ca:
                    75:0d:7b:10:66:c6:61:f5:91:37:a5:3f:2e:2a:f0:
                    91:21:75:40:4f:5f:81:4a:53:f6:27:62:f9:0b:03:
                    10:1e:e1:d2:62:82:39:49:0a:9c:4a:8c:20:9b:e7:
                    37:0e:25:e3:86:2b:f4:84:b9:84:23:a6:e5:de:b6:
                    ab:95:15:62:a5:2b:d9:43:b9:17:fc:e1:43:5b:35:
                    e3:08:b1:c9:28:a8:ab:6a:8d:31:ce:00:44:b1:f4:
                    df:b5:9c:ff:94:55:0e:24:07:49:b5:71:bf:20:4f:
                    38:9a:f5:8e:ae:b6:ed:00:0d:81:75:f2:9d:47:90:
                    1e:99:37:a1:21:07:d9:29:1e:0f:6c:bb:11:22:11:
                    35:e6:ce:f4:74:91:43:93:0e:1d:6a:fe:70:a4:77:
                    50:2a:e4:ea:bc:2b:eb:1c:0f:07:25:bb:ea:f2:48:
                    3b:c3:b2:0f:90:cf:ea:9d:8d:1a:98:d0:cf:8c:c9:
                    d7:f3:10:e9:e1:95:3f:c5:14:2e:66:c7:5c:bd:e5:
                    b8:91:7c:f2:d1:56:67:74:52:bc:86:30:f6:71:f7:
                    a6:0a:6c:c4:b8:13:f2:cf:cf:ca:f0:f2:d2:3d:80:
                    f3:97:7c:f1:89:97:6b:78:31:76:a5:a5:53:fb:10:
                    ef:27
                Exponent: 65537 (0x10001)
        X509v3 extensions:
            X509v3 Basic Constraints: 
                CA:FALSE
            X509v3 Subject Key Identifier: 
                72:BF:65:7C:96:A1:82:0F:50:0E:AB:64:91:D2:1F:29:7B:1F:49:0A
            X509v3 Authority Key Identifier: 
                keyid:4A:D7:04:03:1C:66:F5:CE:35:7F:3B:E2:72:02:88:5F:AD:B5:DF:54
                DirName:/CN=team338-net
                serial:0D:8E:4D:17:22:32:F5:97:C8:A3:C4:F5:B5:A3:F0:96:32:3C:D2:4B

            X509v3 Extended Key Usage: 
                TLS Web Server Authentication
            X509v3 Key Usage: 
                Digital Signature, Key Encipherment
            X509v3 Subject Alternative Name: 
                DNS:team338-server
    Signature Algorithm: sha256WithRSAEncryption
         6d:bb:d7:9e:60:18:65:91:f5:0f:ac:55:61:51:17:90:f4:9a:
         cf:c8:f7:c7:c1:c9:eb:28:f0:a5:a9:90:1e:da:8b:c0:44:80:
         37:58:23:31:88:c1:15:78:0f:06:a3:d9:41:f6:d5:53:e3:a9:
         ed:bd:29:9c:8c:48:27:79:8d:de:e2:69:cb:a1:e4:6e:02:82:
         ab:71:43:6c:55:17:05:ea:34:ff:6f:dd:4d:9a:24:ce:85:95:
         ff:a0:43:09:0c:c5:b1:1f:d3:5b:bc:a8:6c:ec:59:0b:59:f6:
         9b:65:92:08:8c:46:b2:de:0c:7f:f4:61:2c:f6:d5:6d:d1:2c:
         21:a5:75:9a:16:51:bd:2b:5a:eb:4d:cc:b6:36:17:28:e9:ea:
         50:e1:7f:ed:c9:88:99:65:f1:35:83:08:9b:32:f4:3a:7b:cb:
         fa:1a:dd:a9:8d:69:4e:6d:b1:29:a2:fa:0c:f2:55:f7:77:40:
         53:10:f3:e0:f7:9f:0b:c3:e2:78:10:8f:e0:f8:9f:29:34:e9:
         c3:ad:47:20:87:0e:b3:af:db:1e:76:50:e1:58:c8:a1:33:48:
         98:cb:fe:2b:c5:c9:a3:e0:ec:59:73:8b:ab:56:38:35:89:31:
         b9:ec:90:68:c5:ae:c8:e8:66:52:f9:25:58:9b:cf:42:5f:98:
         4e:8f:95:81
-----BEGIN CERTIFICATE-----
MIIDeDCCAmCgAwIBAgIRANpcyZJxaxJIXWQ8iCYayG4wDQYJKoZIhvcNAQELBQAw
FjEUMBIGA1UEAwwLdGVhbTMzOC1uZXQwHhcNMjEwOTEzMDE1NDI0WhcNMjQwODI4
MDE1NDI0WjAZMRcwFQYDVQQDDA50ZWFtMzM4LXNlcnZlcjCCASIwDQYJKoZIhvcN
AQEBBQADggEPADCCAQoCggEBAMQbnhg09MtE8PbBKhbKdQ17EGbGYfWRN6U/Lirw
kSF1QE9fgUpT9idi+QsDEB7h0mKCOUkKnEqMIJvnNw4l44Yr9IS5hCOm5d62q5UV
YqUr2UO5F/zhQ1s14wixySioq2qNMc4ARLH037Wc/5RVDiQHSbVxvyBPOJr1jq62
7QANgXXynUeQHpk3oSEH2SkeD2y7ESIRNebO9HSRQ5MOHWr+cKR3UCrk6rwr6xwP
ByW76vJIO8OyD5DP6p2NGpjQz4zJ1/MQ6eGVP8UULmbHXL3luJF88tFWZ3RSvIYw
9nH3pgpsxLgT8s/PyvDy0j2A85d88YmXa3gxdqWlU/sQ7ycCAwEAAaOBvTCBujAJ
BgNVHRMEAjAAMB0GA1UdDgQWBBRyv2V8lqGCD1AOq2SR0h8pex9JCjBRBgNVHSME
SjBIgBRK1wQDHGb1zjV/O+JyAohfrbXfVKEapBgwFjEUMBIGA1UEAwwLdGVhbTMz
OC1uZXSCFA2OTRciMvWXyKPE9bWj8JYyPNJLMBMGA1UdJQQMMAoGCCsGAQUFBwMB
MAsGA1UdDwQEAwIFoDAZBgNVHREEEjAQgg50ZWFtMzM4LXNlcnZlcjANBgkqhkiG
9w0BAQsFAAOCAQEAbbvXnmAYZZH1D6xVYVEXkPSaz8j3x8HJ6yjwpamQHtqLwESA
N1gjMYjBFXgPBqPZQfbVU+Op7b0pnIxIJ3mN3uJpy6HkbgKCq3FDbFUXBeo0/2/d
TZokzoWV/6BDCQzFsR/TW7yobOxZC1n2m2WSCIxGst4Mf/RhLPbVbdEsIaV1mhZR
vSta603MtjYXKOnqUOF/7cmImWXxNYMImzL0OnvL+hrdqY1pTm2xKaL6DPJV93dA
UxDz4PefC8PieBCP4PifKTTpw61HIIcOs6/bHnZQ4VjIoTNImMv+K8XJo+DsWXOL
q1Y4NYkxueyQaMWuyOhmUvklWJvPQl+YTo+VgQ==
-----END CERTIFICATE-----
