Certificate:
    Data:
        Version: 3 (0x2)
        Serial Number:
            b6:c6:0d:d5:1b:9b:8d:30:7b:e2:f5:f8:1c:ec:b1:2c
        Signature Algorithm: sha256WithRSAEncryption
        Issuer: CN=team14-net
        Validity
            Not Before: Sep 12 22:48:49 2021 GMT
            Not After : Aug 27 22:48:49 2024 GMT
        Subject: CN=team14-server
        Subject Public Key Info:
            Public Key Algorithm: rsaEncryption
                RSA Public-Key: (2048 bit)
                Modulus:
                    00:d3:9c:8f:86:b4:19:e8:8a:3a:0a:e2:67:55:34:
                    8c:12:bb:ad:f6:5c:ca:b0:d9:b3:62:31:56:bd:81:
                    14:d3:09:62:a4:6b:02:e4:db:6f:77:ed:6e:f8:90:
                    76:12:44:41:c4:58:4f:ed:32:d8:46:34:47:8b:4d:
                    a0:bd:d9:0e:24:64:26:2a:07:d5:7d:54:77:1f:2e:
                    e3:cb:a8:6f:bf:77:4d:98:d9:38:e6:83:c0:06:04:
                    ab:86:2a:e8:ae:1a:03:b2:58:29:50:8d:c9:b0:cb:
                    f1:ca:31:e6:c9:c9:33:63:24:02:63:ca:94:3e:bc:
                    3f:b8:4d:44:b7:b5:9f:6f:2f:d7:58:d6:83:f3:3e:
                    83:0b:c7:8c:76:af:ca:ef:e9:53:3c:3e:9c:d1:46:
                    a5:ed:aa:41:1b:5c:3f:6f:14:c2:fa:60:41:55:64:
                    21:71:14:5f:01:26:c0:c8:55:95:91:ff:03:a7:89:
                    2a:84:11:28:79:fc:59:17:00:1a:9c:21:1d:5d:d7:
                    bd:d0:9e:9c:cb:30:14:c6:88:b2:76:02:26:52:7c:
                    c2:1d:61:d0:f8:c7:d7:da:e5:38:7f:ac:e5:84:5a:
                    af:8d:c4:8b:df:c1:1b:ce:25:e2:eb:35:7c:83:7b:
                    81:9a:7c:fe:70:eb:b7:52:c4:bb:c9:dd:d7:09:23:
                    13:05
                Exponent: 65537 (0x10001)
        X509v3 extensions:
            X509v3 Basic Constraints: 
                CA:FALSE
            X509v3 Subject Key Identifier: 
                B4:7F:05:8E:54:11:D2:76:CA:D0:CD:57:24:CF:EF:EF:27:CB:5D:E4
            X509v3 Authority Key Identifier: 
                keyid:D6:EE:31:EC:0E:C5:C4:95:43:A5:08:0A:96:90:27:B5:23:16:5A:33
                DirName:/CN=team14-net
                serial:0D:04:E2:B8:17:7C:0C:E0:0B:1F:96:6B:B7:49:94:78:59:71:1B:9A

            X509v3 Extended Key Usage: 
                TLS Web Server Authentication
            X509v3 Key Usage: 
                Digital Signature, Key Encipherment
            X509v3 Subject Alternative Name: 
                DNS:team14-server
    Signature Algorithm: sha256WithRSAEncryption
         20:0a:d1:f3:3e:b1:7a:5c:c3:4e:4b:c0:82:93:f5:81:f8:1b:
         50:93:6b:ac:99:36:de:d1:36:ae:ce:64:c5:49:2f:83:12:8b:
         31:51:32:f6:59:2c:d5:c4:80:e4:2f:1a:c0:05:6b:b2:17:e7:
         da:16:43:b2:ae:32:83:bf:74:ca:89:5a:74:08:85:08:f1:08:
         8f:11:08:e7:79:53:7a:9c:a4:a4:9d:93:a9:97:45:05:af:27:
         02:ca:52:57:c6:f3:26:c0:d5:62:bc:eb:21:06:31:61:7c:8e:
         d7:48:ad:b5:96:aa:c0:a1:e6:66:ea:9c:2d:b9:74:27:8c:8b:
         7a:8f:d4:2d:e5:88:cb:27:7c:97:e6:dc:21:43:43:bc:61:6e:
         eb:d8:d6:d8:80:87:fe:13:c9:19:05:3d:f0:79:bc:b1:3f:49:
         a9:8d:f0:94:79:f2:f2:20:09:7b:50:be:30:9a:61:77:84:fc:
         dd:94:35:d3:a4:51:30:40:29:ec:f2:27:9c:4c:d6:f6:2b:2e:
         b4:64:30:9b:0c:cc:52:c6:d7:0b:de:bf:9e:14:b8:6f:2c:f7:
         f4:d2:a0:a5:17:6f:b2:5b:a0:ae:d9:42:88:65:5a:36:7c:79:
         aa:b2:43:69:fc:c5:e2:0f:da:49:41:ea:f9:96:d9:36:46:b6:
         b2:ca:48:f8
-----BEGIN CERTIFICATE-----
MIIDdDCCAlygAwIBAgIRALbGDdUbm40we+L1+BzssSwwDQYJKoZIhvcNAQELBQAw
FTETMBEGA1UEAwwKdGVhbTE0LW5ldDAeFw0yMTA5MTIyMjQ4NDlaFw0yNDA4Mjcy
MjQ4NDlaMBgxFjAUBgNVBAMMDXRlYW0xNC1zZXJ2ZXIwggEiMA0GCSqGSIb3DQEB
AQUAA4IBDwAwggEKAoIBAQDTnI+GtBnoijoK4mdVNIwSu632XMqw2bNiMVa9gRTT
CWKkawLk22937W74kHYSREHEWE/tMthGNEeLTaC92Q4kZCYqB9V9VHcfLuPLqG+/
d02Y2Tjmg8AGBKuGKuiuGgOyWClQjcmwy/HKMebJyTNjJAJjypQ+vD+4TUS3tZ9v
L9dY1oPzPoMLx4x2r8rv6VM8PpzRRqXtqkEbXD9vFML6YEFVZCFxFF8BJsDIVZWR
/wOniSqEESh5/FkXABqcIR1d173QnpzLMBTGiLJ2AiZSfMIdYdD4x9fa5Th/rOWE
Wq+NxIvfwRvOJeLrNXyDe4GafP5w67dSxLvJ3dcJIxMFAgMBAAGjgbswgbgwCQYD
VR0TBAIwADAdBgNVHQ4EFgQUtH8FjlQR0nbK0M1XJM/v7yfLXeQwUAYDVR0jBEkw
R4AU1u4x7A7FxJVDpQgKlpAntSMWWjOhGaQXMBUxEzARBgNVBAMMCnRlYW0xNC1u
ZXSCFA0E4rgXfAzgCx+Wa7dJlHhZcRuaMBMGA1UdJQQMMAoGCCsGAQUFBwMBMAsG
A1UdDwQEAwIFoDAYBgNVHREEETAPgg10ZWFtMTQtc2VydmVyMA0GCSqGSIb3DQEB
CwUAA4IBAQAgCtHzPrF6XMNOS8CCk/WB+BtQk2usmTbe0TauzmTFSS+DEosxUTL2
WSzVxIDkLxrABWuyF+faFkOyrjKDv3TKiVp0CIUI8QiPEQjneVN6nKSknZOpl0UF
rycCylJXxvMmwNVivOshBjFhfI7XSK21lqrAoeZm6pwtuXQnjIt6j9Qt5YjLJ3yX
5twhQ0O8YW7r2NbYgIf+E8kZBT3webyxP0mpjfCUefLyIAl7UL4wmmF3hPzdlDXT
pFEwQCns8iecTNb2Ky60ZDCbDMxSxtcL3r+eFLhvLPf00qClF2+yW6Cu2UKIZVo2
fHmqskNp/MXiD9pJQer5ltk2Rrayykj4
-----END CERTIFICATE-----
