Certificate:
    Data:
        Version: 3 (0x2)
        Serial Number:
            d8:b9:8e:8c:0b:34:71:a2:c2:02:2e:70:33:ce:66:4f
        Signature Algorithm: sha256WithRSAEncryption
        Issuer: CN=team14-net
        Validity
            Not Before: Sep 12 22:48:49 2021 GMT
            Not After : Aug 27 22:48:49 2024 GMT
        Subject: CN=team14-client
        Subject Public Key Info:
            Public Key Algorithm: rsaEncryption
                RSA Public-Key: (2048 bit)
                Modulus:
                    00:c3:46:ad:78:44:c7:4c:ca:db:2b:95:74:17:0a:
                    10:e2:0d:f4:8c:ed:0b:b3:88:ea:da:bc:d8:06:1f:
                    6c:00:d8:02:83:65:95:a2:bf:87:bb:f7:26:e8:10:
                    54:23:74:68:0e:e6:79:d0:d4:4b:6c:1a:b4:3b:a0:
                    2f:f8:aa:e2:95:f8:ed:1b:46:84:fa:2a:2c:66:6f:
                    7a:bd:0f:a8:1e:8b:cf:aa:00:0f:74:29:40:8e:47:
                    93:f8:2a:9f:51:e1:3b:49:da:87:f9:65:c5:d6:1b:
                    f8:79:19:62:a3:6b:c2:c0:31:ad:3d:7a:43:65:10:
                    bd:4d:a9:84:78:bb:e7:09:c1:9f:83:f1:d6:cb:9e:
                    8c:cb:af:1b:a5:fd:76:4d:27:30:99:37:d4:1a:5f:
                    4f:c5:61:ea:dc:ce:ba:f2:fd:8a:60:19:73:60:0a:
                    0f:c3:84:dc:c9:cd:5c:ee:9d:c1:03:a3:e0:67:95:
                    5d:8b:2b:bc:78:ca:a9:48:f2:eb:05:68:44:78:8f:
                    87:c4:2c:7c:c9:0d:cb:20:63:5f:23:2d:96:58:41:
                    ae:6f:ad:d2:12:b3:eb:3d:b4:4c:49:ae:d4:5b:2e:
                    8a:b9:5c:9c:b2:9b:4f:51:d9:59:ad:55:15:b9:39:
                    fa:18:ed:c6:19:2d:55:63:a4:72:7d:bb:3b:f9:65:
                    64:71
                Exponent: 65537 (0x10001)
        X509v3 extensions:
            X509v3 Basic Constraints: 
                CA:FALSE
            X509v3 Subject Key Identifier: 
                C5:DB:10:2C:35:B8:AC:76:1F:2F:CB:87:6A:46:A1:DC:10:0D:B6:3A
            X509v3 Authority Key Identifier: 
                keyid:D6:EE:31:EC:0E:C5:C4:95:43:A5:08:0A:96:90:27:B5:23:16:5A:33
                DirName:/CN=team14-net
                serial:0D:04:E2:B8:17:7C:0C:E0:0B:1F:96:6B:B7:49:94:78:59:71:1B:9A

            X509v3 Extended Key Usage: 
                TLS Web Client Authentication
            X509v3 Key Usage: 
                Digital Signature
    Signature Algorithm: sha256WithRSAEncryption
         7e:de:98:37:ab:ce:6d:ae:78:64:db:3f:d6:0b:fe:92:14:42:
         08:04:78:74:65:cf:fd:c6:1a:84:f3:2f:8f:32:19:61:b5:db:
         93:87:82:53:26:d5:e1:28:42:8e:9d:50:56:fc:41:47:0f:42:
         b0:00:59:9d:45:b1:d3:29:8f:b5:3c:6f:12:8f:84:d9:8e:4d:
         ea:8e:a4:fc:97:af:40:d5:b1:8d:65:11:11:c5:be:58:28:a0:
         fb:4d:21:ee:95:9b:f5:74:42:12:1d:bc:da:80:0f:0e:a4:e8:
         b9:c2:30:f1:18:a2:58:62:12:bb:b4:43:0b:3e:50:b5:cf:19:
         9f:b9:4b:32:6f:40:ce:bf:b6:0d:cb:ff:39:49:1f:ac:78:92:
         34:b6:12:32:de:05:62:c3:ff:54:48:1e:b3:32:2e:e9:8e:01:
         30:b7:12:42:b0:66:3d:12:8c:c4:c1:17:c1:a1:96:9f:cb:22:
         ed:49:25:74:e6:f3:a7:fa:26:e3:cd:2b:07:1f:c0:a4:0a:e7:
         fb:17:93:38:4b:9c:50:8f:68:37:3e:8c:f0:48:3b:69:b4:96:
         76:be:ae:18:4d:9e:4c:76:b0:64:3b:10:ac:13:46:1a:69:92:
         55:68:8c:e6:a8:58:69:5e:b9:d6:b6:3f:53:9f:e5:be:57:59:
         b0:16:3a:3b
-----BEGIN CERTIFICATE-----
MIIDWjCCAkKgAwIBAgIRANi5jowLNHGiwgIucDPOZk8wDQYJKoZIhvcNAQELBQAw
FTETMBEGA1UEAwwKdGVhbTE0LW5ldDAeFw0yMTA5MTIyMjQ4NDlaFw0yNDA4Mjcy
MjQ4NDlaMBgxFjAUBgNVBAMMDXRlYW0xNC1jbGllbnQwggEiMA0GCSqGSIb3DQEB
AQUAA4IBDwAwggEKAoIBAQDDRq14RMdMytsrlXQXChDiDfSM7QuziOravNgGH2wA
2AKDZZWiv4e79yboEFQjdGgO5nnQ1EtsGrQ7oC/4quKV+O0bRoT6Kixmb3q9D6ge
i8+qAA90KUCOR5P4Kp9R4TtJ2of5ZcXWG/h5GWKja8LAMa09ekNlEL1NqYR4u+cJ
wZ+D8dbLnozLrxul/XZNJzCZN9QaX0/FYerczrry/YpgGXNgCg/DhNzJzVzuncED
o+BnlV2LK7x4yqlI8usFaER4j4fELHzJDcsgY18jLZZYQa5vrdISs+s9tExJrtRb
Loq5XJyym09R2VmtVRW5OfoY7cYZLVVjpHJ9uzv5ZWRxAgMBAAGjgaEwgZ4wCQYD
VR0TBAIwADAdBgNVHQ4EFgQUxdsQLDW4rHYfL8uHakah3BANtjowUAYDVR0jBEkw
R4AU1u4x7A7FxJVDpQgKlpAntSMWWjOhGaQXMBUxEzARBgNVBAMMCnRlYW0xNC1u
ZXSCFA0E4rgXfAzgCx+Wa7dJlHhZcRuaMBMGA1UdJQQMMAoGCCsGAQUFBwMCMAsG
A1UdDwQEAwIHgDANBgkqhkiG9w0BAQsFAAOCAQEAft6YN6vOba54ZNs/1gv+khRC
CAR4dGXP/cYahPMvjzIZYbXbk4eCUybV4ShCjp1QVvxBRw9CsABZnUWx0ymPtTxv
Eo+E2Y5N6o6k/JevQNWxjWUREcW+WCig+00h7pWb9XRCEh282oAPDqToucIw8Rii
WGISu7RDCz5Qtc8Zn7lLMm9Azr+2Dcv/OUkfrHiSNLYSMt4FYsP/VEgeszIu6Y4B
MLcSQrBmPRKMxMEXwaGWn8si7UkldObzp/om480rBx/ApArn+xeTOEucUI9oNz6M
8Eg7abSWdr6uGE2eTHawZDsQrBNGGmmSVWiM5qhYaV651rY/U5/lvldZsBY6Ow==
-----END CERTIFICATE-----
