Certificate:
    Data:
        Version: 3 (0x2)
        Serial Number:
            04:55:45:ea:19:a1:b8:81:a2:a6:8b:65:9d:13:b9:34
        Signature Algorithm: sha256WithRSAEncryption
        Issuer: CN=team310-net
        Validity
            Not Before: Sep 13 01:32:39 2021 GMT
            Not After : Aug 28 01:32:39 2024 GMT
        Subject: CN=team310-server
        Subject Public Key Info:
            Public Key Algorithm: rsaEncryption
                RSA Public-Key: (2048 bit)
                Modulus:
                    00:d3:4e:95:cf:37:39:fa:dd:ab:01:a4:b9:7c:f8:
                    0a:e1:b3:ad:d1:68:3b:ba:6e:36:11:c6:ee:86:8c:
                    5d:2c:83:06:a5:62:63:b5:e5:0d:01:b1:9f:36:4e:
                    42:88:23:ba:be:48:97:97:39:8a:04:21:aa:46:99:
                    8c:52:fe:9b:5f:d2:a9:5d:05:f8:e6:cd:fa:1d:83:
                    37:ce:50:a4:22:fb:46:8b:3f:54:cf:5e:5a:fa:b9:
                    52:24:51:a8:1b:2f:a2:ef:ea:14:ee:8a:44:a2:e2:
                    b0:e5:55:ba:f2:31:81:77:65:8b:d8:c1:ba:f6:53:
                    89:45:22:0b:27:c0:a8:07:c4:0d:54:db:66:01:f1:
                    c8:12:9f:21:aa:81:5b:c9:d6:c6:79:8e:21:97:89:
                    eb:7f:d4:86:fd:4f:34:0e:db:3e:5c:93:9f:15:81:
                    79:e8:ec:3a:ba:09:41:58:33:65:58:57:d3:b6:7e:
                    1d:d4:73:bb:29:0f:80:06:c6:7a:76:34:1f:73:4d:
                    2d:a1:33:5b:c8:2d:91:b1:23:5a:a3:a4:bf:fa:ab:
                    bb:41:04:3f:26:db:19:bd:8a:30:64:05:9e:24:f7:
                    73:6c:36:01:16:56:d9:c0:5c:3d:0e:d4:1a:f6:81:
                    a3:c0:5f:2d:fe:b8:84:af:bf:09:2c:01:92:15:94:
                    c6:49
                Exponent: 65537 (0x10001)
        X509v3 extensions:
            X509v3 Basic Constraints: 
                CA:FALSE
            X509v3 Subject Key Identifier: 
                0D:A5:29:2E:E0:AA:9C:8E:AC:0A:7D:96:65:F2:EB:00:41:48:61:EF
            X509v3 Authority Key Identifier: 
                keyid:E0:FD:E0:E8:90:E2:1B:BD:F8:98:3F:1D:2D:FF:EF:3C:82:FA:28:85
                DirName:/CN=team310-net
                serial:51:3A:D8:2C:E0:C3:F5:2D:D3:BA:0A:60:A9:AA:F5:8D:06:2D:EE:46

            X509v3 Extended Key Usage: 
                TLS Web Server Authentication
            X509v3 Key Usage: 
                Digital Signature, Key Encipherment
            X509v3 Subject Alternative Name: 
                DNS:team310-server
    Signature Algorithm: sha256WithRSAEncryption
         ac:35:b1:60:e6:d3:16:16:7c:5b:a7:6c:11:1f:25:75:68:84:
         3d:55:8d:18:f8:d0:e4:52:49:b5:f7:c9:cd:6e:7d:9a:5e:72:
         f0:8a:1b:d1:f9:91:fa:55:d6:6f:c7:57:7d:af:45:5d:af:79:
         3f:02:0a:77:5d:d0:dc:e7:f5:db:e9:02:16:8b:da:27:43:4e:
         c1:70:85:e3:79:5d:78:36:98:09:24:50:a0:64:38:28:99:81:
         a5:5e:99:b3:c6:d6:b7:10:be:16:2c:6e:4c:3a:6f:fe:b7:9a:
         cd:d0:48:f7:ce:70:3d:36:fb:02:cb:78:88:b1:7b:1f:b3:03:
         0f:ac:b4:38:45:80:bb:b0:1f:03:1b:d5:60:ee:78:27:b5:dd:
         c3:9b:53:61:ba:b4:47:36:87:49:3e:8d:fa:7d:fb:74:6e:f4:
         f9:c2:3d:a3:02:3d:f9:92:c1:19:19:68:e3:52:60:0f:e1:9e:
         93:e0:96:62:47:c6:33:57:ab:4a:f9:9b:90:26:fe:d2:d7:41:
         c5:df:49:0c:68:c0:30:c5:98:ef:f7:59:58:a0:c8:4c:af:94:
         ac:44:4f:cb:e2:8f:d6:9e:17:72:fa:66:7b:10:56:80:99:77:
         4f:fd:b5:94:44:c9:e1:20:45:48:84:77:89:04:31:e9:d0:cb:
         36:1c:da:e5
-----BEGIN CERTIFICATE-----
MIIDdzCCAl+gAwIBAgIQBFVF6hmhuIGipotlnRO5NDANBgkqhkiG9w0BAQsFADAW
MRQwEgYDVQQDDAt0ZWFtMzEwLW5ldDAeFw0yMTA5MTMwMTMyMzlaFw0yNDA4Mjgw
MTMyMzlaMBkxFzAVBgNVBAMMDnRlYW0zMTAtc2VydmVyMIIBIjANBgkqhkiG9w0B
AQEFAAOCAQ8AMIIBCgKCAQEA006Vzzc5+t2rAaS5fPgK4bOt0Wg7um42Ecbuhoxd
LIMGpWJjteUNAbGfNk5CiCO6vkiXlzmKBCGqRpmMUv6bX9KpXQX45s36HYM3zlCk
IvtGiz9Uz15a+rlSJFGoGy+i7+oU7opEouKw5VW68jGBd2WL2MG69lOJRSILJ8Co
B8QNVNtmAfHIEp8hqoFbydbGeY4hl4nrf9SG/U80Dts+XJOfFYF56Ow6uglBWDNl
WFfTtn4d1HO7KQ+ABsZ6djQfc00toTNbyC2RsSNao6S/+qu7QQQ/JtsZvYowZAWe
JPdzbDYBFlbZwFw9DtQa9oGjwF8t/riEr78JLAGSFZTGSQIDAQABo4G9MIG6MAkG
A1UdEwQCMAAwHQYDVR0OBBYEFA2lKS7gqpyOrAp9lmXy6wBBSGHvMFEGA1UdIwRK
MEiAFOD94OiQ4hu9+Jg/HS3/7zyC+iiFoRqkGDAWMRQwEgYDVQQDDAt0ZWFtMzEw
LW5ldIIUUTrYLODD9S3Tugpgqar1jQYt7kYwEwYDVR0lBAwwCgYIKwYBBQUHAwEw
CwYDVR0PBAQDAgWgMBkGA1UdEQQSMBCCDnRlYW0zMTAtc2VydmVyMA0GCSqGSIb3
DQEBCwUAA4IBAQCsNbFg5tMWFnxbp2wRHyV1aIQ9VY0Y+NDkUkm198nNbn2aXnLw
ihvR+ZH6VdZvx1d9r0Vdr3k/Agp3XdDc5/Xb6QIWi9onQ07BcIXjeV14NpgJJFCg
ZDgomYGlXpmzxta3EL4WLG5MOm/+t5rN0Ej3znA9NvsCy3iIsXsfswMPrLQ4RYC7
sB8DG9Vg7ngntd3Dm1NhurRHNodJPo36fft0bvT5wj2jAj35ksEZGWjjUmAP4Z6T
4JZiR8YzV6tK+ZuQJv7S10HF30kMaMAwxZjv91lYoMhMr5SsRE/L4o/Wnhdy+mZ7
EFaAmXdP/bWURMnhIEVIhHeJBDHp0Ms2HNrl
-----END CERTIFICATE-----
