Certificate:
    Data:
        Version: 3 (0x2)
        Serial Number:
            a1:75:81:01:ac:db:7f:d0:df:91:5b:f6:68:a6:b6:2e
        Signature Algorithm: sha256WithRSAEncryption
        Issuer: CN=team421-net
        Validity
            Not Before: Sep 13 02:35:11 2021 GMT
            Not After : Aug 28 02:35:11 2024 GMT
        Subject: CN=team421-client
        Subject Public Key Info:
            Public Key Algorithm: rsaEncryption
                RSA Public-Key: (2048 bit)
                Modulus:
                    00:b5:38:dc:26:a1:8c:23:8a:5c:7e:32:a9:aa:b5:
                    e6:76:51:d1:09:6d:73:bb:21:73:3a:8f:f8:60:ee:
                    df:be:f5:d7:fc:b6:f6:f4:cd:68:5f:9f:ac:5a:df:
                    8c:b7:85:f5:8d:14:ab:3f:1e:46:22:35:5a:e7:4c:
                    db:ba:87:97:3d:50:b4:20:df:6e:bd:75:63:6e:fd:
                    f1:e9:8d:67:fb:52:86:f3:57:af:14:db:20:65:22:
                    f4:90:d5:6f:d1:57:c0:c9:58:42:7f:d0:eb:d2:96:
                    49:f2:17:10:15:25:07:9b:57:5f:56:de:93:8a:e2:
                    44:8a:81:ee:d3:93:7f:40:c4:02:3d:33:ce:a3:74:
                    2b:3a:7f:0d:e8:f9:fc:f6:39:47:bc:7b:6c:f1:aa:
                    db:40:39:79:4e:41:7d:76:ed:17:61:b3:aa:0c:96:
                    7a:c1:67:b6:0b:fa:74:64:ea:3a:09:28:53:43:00:
                    d3:ab:7e:db:76:2d:b8:0f:7c:a0:de:de:31:38:4e:
                    c1:5c:1b:c7:4d:a5:f7:1e:0d:a7:a9:eb:2b:84:b7:
                    eb:53:98:17:fe:24:0c:62:9a:28:65:69:9e:38:e5:
                    b7:56:4d:21:e7:b5:99:93:db:92:c5:1c:e2:c5:04:
                    2d:96:e0:fc:72:48:cf:6a:84:48:9d:32:94:42:6b:
                    d7:e5
                Exponent: 65537 (0x10001)
        X509v3 extensions:
            X509v3 Basic Constraints: 
                CA:FALSE
            X509v3 Subject Key Identifier: 
                B4:44:F4:3F:6E:E5:25:66:8E:EE:4C:3B:38:88:99:B9:8A:20:E6:A4
            X509v3 Authority Key Identifier: 
                keyid:7C:5F:C6:34:76:FC:77:5B:2B:CA:F0:5E:87:DB:EC:55:58:5D:02:83
                DirName:/CN=team421-net
                serial:6A:1D:F5:E6:0E:F8:D1:76:F2:CF:7C:DC:73:67:26:B0:6A:A0:60:5B

            X509v3 Extended Key Usage: 
                TLS Web Client Authentication
            X509v3 Key Usage: 
                Digital Signature
    Signature Algorithm: sha256WithRSAEncryption
         6a:62:3e:ce:33:04:4b:ba:5a:71:e0:cb:24:aa:b7:cc:98:a6:
         5f:a4:fb:65:f2:c8:79:01:83:52:f0:11:2b:a4:d4:6c:74:aa:
         c7:09:c6:04:1d:35:cb:95:88:87:07:ad:0d:9e:3c:7d:e0:f6:
         c2:cb:d8:8c:7f:f2:ae:8c:a8:99:55:5a:cf:f9:59:ef:c4:0d:
         69:c4:f7:35:bd:48:ba:4f:b7:28:cd:fd:6f:9d:81:46:66:d2:
         d4:21:7f:ce:61:ff:d3:de:98:3d:7c:5d:be:12:28:00:6c:38:
         b0:11:0b:4a:19:67:15:13:50:75:c8:56:b2:7e:1e:e3:f2:ec:
         14:b1:be:7e:0f:7b:24:e1:26:8f:71:eb:7a:ca:05:fc:70:af:
         23:33:53:93:15:14:79:96:05:ec:c2:d6:16:56:7c:3d:31:08:
         e2:cc:d7:07:15:91:9d:70:3a:c2:c0:ac:5c:5c:79:b8:a7:ba:
         70:e1:18:ae:ca:b1:75:cb:4a:ed:6d:0a:6e:5a:f5:f9:f8:5b:
         62:df:44:4b:c3:bf:4f:3b:7b:45:b4:ce:48:70:3e:53:6c:2d:
         d8:32:c9:66:7c:c8:9b:57:45:30:7f:40:b3:f9:13:bc:dc:a2:
         55:8c:42:af:e9:dd:85:2a:1c:38:5b:a0:ac:0e:81:99:b1:60:
         a9:fa:99:53
-----BEGIN CERTIFICATE-----
MIIDXTCCAkWgAwIBAgIRAKF1gQGs23/Q35Fb9mimti4wDQYJKoZIhvcNAQELBQAw
FjEUMBIGA1UEAwwLdGVhbTQyMS1uZXQwHhcNMjEwOTEzMDIzNTExWhcNMjQwODI4
MDIzNTExWjAZMRcwFQYDVQQDDA50ZWFtNDIxLWNsaWVudDCCASIwDQYJKoZIhvcN
AQEBBQADggEPADCCAQoCggEBALU43CahjCOKXH4yqaq15nZR0Qltc7shczqP+GDu
37711/y29vTNaF+frFrfjLeF9Y0Uqz8eRiI1WudM27qHlz1QtCDfbr11Y2798emN
Z/tShvNXrxTbIGUi9JDVb9FXwMlYQn/Q69KWSfIXEBUlB5tXX1bek4riRIqB7tOT
f0DEAj0zzqN0Kzp/Dej5/PY5R7x7bPGq20A5eU5BfXbtF2GzqgyWesFntgv6dGTq
OgkoU0MA06t+23YtuA98oN7eMThOwVwbx02l9x4Np6nrK4S361OYF/4kDGKaKGVp
njjlt1ZNIee1mZPbksUc4sUELZbg/HJIz2qESJ0ylEJr1+UCAwEAAaOBojCBnzAJ
BgNVHRMEAjAAMB0GA1UdDgQWBBS0RPQ/buUlZo7uTDs4iJm5iiDmpDBRBgNVHSME
SjBIgBR8X8Y0dvx3WyvK8F6H2+xVWF0Cg6EapBgwFjEUMBIGA1UEAwwLdGVhbTQy
MS1uZXSCFGod9eYO+NF28s983HNnJrBqoGBbMBMGA1UdJQQMMAoGCCsGAQUFBwMC
MAsGA1UdDwQEAwIHgDANBgkqhkiG9w0BAQsFAAOCAQEAamI+zjMES7paceDLJKq3
zJimX6T7ZfLIeQGDUvARK6TUbHSqxwnGBB01y5WIhwetDZ48feD2wsvYjH/yroyo
mVVaz/lZ78QNacT3Nb1Iuk+3KM39b52BRmbS1CF/zmH/096YPXxdvhIoAGw4sBEL
ShlnFRNQdchWsn4e4/LsFLG+fg97JOEmj3HresoF/HCvIzNTkxUUeZYF7MLWFlZ8
PTEI4szXBxWRnXA6wsCsXFx5uKe6cOEYrsqxdctK7W0Kblr1+fhbYt9ES8O/Tzt7
RbTOSHA+U2wt2DLJZnzIm1dFMH9As/kTvNyiVYxCr+ndhSocOFugrA6BmbFgqfqZ
Uw==
-----END CERTIFICATE-----
