Certificate:
    Data:
        Version: 3 (0x2)
        Serial Number:
            12:c7:12:25:88:b5:2c:71:05:fc:3e:1c:2f:fa:8e:23
        Signature Algorithm: sha256WithRSAEncryption
        Issuer: CN=team624-net
        Validity
            Not Before: Sep 13 04:36:21 2021 GMT
            Not After : Aug 28 04:36:21 2024 GMT
        Subject: CN=team624-client
        Subject Public Key Info:
            Public Key Algorithm: rsaEncryption
                RSA Public-Key: (2048 bit)
                Modulus:
                    00:b7:20:bf:cf:a5:a4:19:3a:60:b7:12:d2:fe:d2:
                    df:d1:1b:ea:4f:2d:97:6e:df:79:ff:81:87:a6:1f:
                    9d:60:34:d8:c3:16:7c:49:b0:8e:2d:44:8a:0f:0e:
                    e6:29:ea:1e:00:80:60:47:33:96:72:b0:a2:11:28:
                    9a:cb:88:74:1f:02:4b:9b:6e:18:a8:dd:64:53:dd:
                    b7:70:ef:ab:d5:68:5b:ac:2c:f0:ea:5c:c9:86:dc:
                    15:bd:83:10:cf:29:42:76:bf:de:95:3b:c6:bc:38:
                    eb:04:c2:dc:dc:f5:23:4c:f1:eb:fa:8f:69:e0:cb:
                    e9:b3:dd:a3:6a:9f:d5:0e:4b:51:15:ee:66:a7:83:
                    5b:d8:da:e2:7b:a5:b0:7f:41:25:9b:31:80:7f:74:
                    30:8b:d0:de:b8:81:9d:d2:48:01:f0:10:f7:4a:22:
                    62:0d:4b:9b:21:cc:b7:92:ea:35:bd:4f:ef:d6:e3:
                    48:d3:19:9a:26:49:f3:c1:80:91:e8:ad:50:bd:85:
                    85:c6:e0:7b:44:67:74:89:90:3e:1f:84:07:38:5b:
                    ea:a1:1b:86:f9:15:4b:39:20:2f:32:53:56:39:09:
                    e3:17:6f:c6:e6:45:87:87:b4:2a:b7:0c:b0:6c:6d:
                    40:b1:bf:15:a8:01:22:99:99:5c:24:fd:45:5d:11:
                    fe:47
                Exponent: 65537 (0x10001)
        X509v3 extensions:
            X509v3 Basic Constraints: 
                CA:FALSE
            X509v3 Subject Key Identifier: 
                8C:C7:DB:19:3F:56:6E:D2:A8:D5:79:12:6E:C5:A1:FC:59:95:DB:E1
            X509v3 Authority Key Identifier: 
                keyid:DF:28:9E:E3:35:87:29:F8:2D:E6:AA:27:DC:73:0F:CE:D1:09:39:81
                DirName:/CN=team624-net
                serial:51:66:92:C2:B0:A7:F9:27:24:E4:79:7F:36:34:B3:FC:D5:A7:48:D2

            X509v3 Extended Key Usage: 
                TLS Web Client Authentication
            X509v3 Key Usage: 
                Digital Signature
    Signature Algorithm: sha256WithRSAEncryption
         45:11:45:81:5e:dc:a5:1d:88:4a:b4:d7:43:b4:63:ae:67:e7:
         d8:86:e2:1c:fa:77:d8:7a:68:e1:44:9f:99:0a:b7:70:c8:bb:
         81:aa:8c:97:10:7a:f2:7a:ba:e6:00:a3:3e:24:e5:8f:8e:33:
         2f:48:a9:f4:ec:e5:be:8e:ee:4a:f4:ac:25:24:16:49:09:9d:
         10:f7:3a:dd:38:4e:61:d2:b1:4f:52:83:7c:cb:85:26:1c:41:
         c0:4d:a8:98:47:86:b0:44:9a:d7:78:db:e2:e5:77:06:41:67:
         f6:1c:fe:2b:46:40:7c:c1:14:ce:67:f1:11:e8:a7:fd:e8:92:
         04:7a:06:65:bf:19:99:5f:69:3e:c1:17:94:59:6c:d8:ae:fb:
         1f:f1:82:47:25:7e:21:4a:63:51:7d:c5:16:6c:06:e5:73:bd:
         ca:cd:e9:03:2d:b4:63:ff:33:b1:0e:a8:16:71:27:71:d8:76:
         fa:b1:47:a1:e6:06:56:60:61:8a:2e:2b:fe:33:a1:f0:70:a3:
         6f:05:83:e7:b1:1e:62:59:bb:3e:8a:f3:13:20:b3:f5:92:3e:
         ce:39:33:92:88:60:31:23:26:f5:90:d4:12:ec:d9:0b:02:45:
         ff:0b:85:24:95:30:70:46:8e:19:2d:68:cb:a7:38:4f:c7:41:
         0b:b1:10:36
-----BEGIN CERTIFICATE-----
MIIDXDCCAkSgAwIBAgIQEscSJYi1LHEF/D4cL/qOIzANBgkqhkiG9w0BAQsFADAW
MRQwEgYDVQQDDAt0ZWFtNjI0LW5ldDAeFw0yMTA5MTMwNDM2MjFaFw0yNDA4Mjgw
NDM2MjFaMBkxFzAVBgNVBAMMDnRlYW02MjQtY2xpZW50MIIBIjANBgkqhkiG9w0B
AQEFAAOCAQ8AMIIBCgKCAQEAtyC/z6WkGTpgtxLS/tLf0RvqTy2Xbt95/4GHph+d
YDTYwxZ8SbCOLUSKDw7mKeoeAIBgRzOWcrCiESiay4h0HwJLm24YqN1kU923cO+r
1WhbrCzw6lzJhtwVvYMQzylCdr/elTvGvDjrBMLc3PUjTPHr+o9p4Mvps92jap/V
DktRFe5mp4Nb2Nrie6Wwf0ElmzGAf3Qwi9DeuIGd0kgB8BD3SiJiDUubIcy3kuo1
vU/v1uNI0xmaJknzwYCR6K1QvYWFxuB7RGd0iZA+H4QHOFvqoRuG+RVLOSAvMlNW
OQnjF2/G5kWHh7QqtwywbG1Asb8VqAEimZlcJP1FXRH+RwIDAQABo4GiMIGfMAkG
A1UdEwQCMAAwHQYDVR0OBBYEFIzH2xk/Vm7SqNV5Em7FofxZldvhMFEGA1UdIwRK
MEiAFN8onuM1hyn4LeaqJ9xzD87RCTmBoRqkGDAWMRQwEgYDVQQDDAt0ZWFtNjI0
LW5ldIIUUWaSwrCn+Sck5Hl/NjSz/NWnSNIwEwYDVR0lBAwwCgYIKwYBBQUHAwIw
CwYDVR0PBAQDAgeAMA0GCSqGSIb3DQEBCwUAA4IBAQBFEUWBXtylHYhKtNdDtGOu
Z+fYhuIc+nfYemjhRJ+ZCrdwyLuBqoyXEHryerrmAKM+JOWPjjMvSKn07OW+ju5K
9KwlJBZJCZ0Q9zrdOE5h0rFPUoN8y4UmHEHATaiYR4awRJrXeNvi5XcGQWf2HP4r
RkB8wRTOZ/ER6Kf96JIEegZlvxmZX2k+wReUWWzYrvsf8YJHJX4hSmNRfcUWbAbl
c73KzekDLbRj/zOxDqgWcSdx2Hb6sUeh5gZWYGGKLiv+M6HwcKNvBYPnsR5iWbs+
ivMTILP1kj7OOTOSiGAxIyb1kNQS7NkLAkX/C4UklTBwRo4ZLWjLpzhPx0ELsRA2
-----END CERTIFICATE-----
