Certificate:
    Data:
        Version: 3 (0x2)
        Serial Number:
            1c:e9:74:f0:7b:0b:1e:4c:b3:5b:68:e5:d8:66:ed:9f
        Signature Algorithm: sha256WithRSAEncryption
        Issuer: CN=team332-net
        Validity
            Not Before: Sep 13 01:49:15 2021 GMT
            Not After : Aug 28 01:49:15 2024 GMT
        Subject: CN=team332-client
        Subject Public Key Info:
            Public Key Algorithm: rsaEncryption
                RSA Public-Key: (2048 bit)
                Modulus:
                    00:b6:7b:77:a1:01:29:21:0e:9e:9c:e3:6a:dc:1a:
                    52:8f:93:65:c1:95:e9:66:15:75:75:9c:86:0e:54:
                    4b:fe:27:70:07:00:15:1e:aa:ac:a5:19:b0:69:cd:
                    5e:14:38:4d:71:2b:75:34:b6:9d:6c:cc:e0:22:33:
                    6a:6e:d1:b8:e2:be:68:7b:21:cd:9b:ac:0e:52:02:
                    90:30:d9:65:a9:46:25:d8:14:69:35:fe:da:74:28:
                    3d:91:73:d5:ea:cf:3b:af:db:1c:24:2b:a6:83:c2:
                    40:87:5c:43:8f:c0:3c:de:6f:53:2d:dd:0f:c1:5d:
                    96:0f:d6:a0:87:fe:d4:62:4c:99:1c:2f:0f:25:2b:
                    46:59:17:b9:79:e8:49:18:6f:1e:97:96:e7:01:aa:
                    54:ff:da:01:7d:6a:12:ae:4c:49:26:b3:88:a2:83:
                    b2:97:3f:c3:e5:fb:78:aa:3b:39:b3:b1:bb:28:9e:
                    71:24:18:93:74:3a:4c:2a:7a:7d:d5:9f:2d:f6:2f:
                    d2:94:bd:ab:aa:b8:f1:86:a1:17:bb:50:ff:c4:c9:
                    c9:5f:18:79:bd:e2:17:d5:74:b6:80:e6:5c:06:ee:
                    76:6a:7d:b1:dc:c1:11:6b:fc:0f:bb:3f:0f:c8:b2:
                    14:48:64:81:0d:a4:7c:f1:e7:89:73:76:6e:43:4a:
                    47:eb
                Exponent: 65537 (0x10001)
        X509v3 extensions:
            X509v3 Basic Constraints: 
                CA:FALSE
            X509v3 Subject Key Identifier: 
                69:AD:CC:03:FF:75:97:7A:F1:D4:5C:A5:3D:E4:C8:A4:EE:FD:18:4B
            X509v3 Authority Key Identifier: 
                keyid:4C:D8:89:D6:C9:07:38:2A:E4:07:88:D2:A2:81:CE:D1:39:5C:92:FD
                DirName:/CN=team332-net
                serial:75:50:09:BB:90:B1:2C:85:1B:20:94:13:FC:59:F7:19:93:44:62:FF

            X509v3 Extended Key Usage: 
                TLS Web Client Authentication
            X509v3 Key Usage: 
                Digital Signature
    Signature Algorithm: sha256WithRSAEncryption
         9b:76:3e:e6:d6:2a:72:da:41:b5:e8:b8:7f:2f:20:eb:27:dd:
         e6:9e:f8:42:56:4d:22:c3:ce:ea:04:55:3c:e8:7e:64:43:19:
         cf:79:fc:a4:cf:c3:ee:fe:9f:7c:a4:ed:41:79:c5:58:d0:7d:
         cb:a3:35:18:e6:25:ef:70:70:5b:73:cf:58:83:fc:25:6b:d7:
         85:59:6d:ce:55:07:47:0e:a1:b6:0d:3f:17:09:9d:5f:de:29:
         96:43:e3:77:8b:e1:0e:d8:99:49:6e:fe:48:64:bb:59:ac:79:
         98:0a:a9:e8:58:2e:33:de:48:74:56:55:d6:f2:d7:71:86:97:
         b1:10:a0:07:71:e9:f4:7c:6b:98:68:2b:66:90:0c:d6:d8:06:
         61:c5:cc:ff:7e:2c:92:a4:4a:9d:f1:17:33:f2:ec:58:5c:d8:
         99:44:23:1d:98:73:88:61:63:f0:93:f7:fc:2c:48:bf:e2:7e:
         2a:06:b0:43:61:32:2d:27:83:1e:0f:83:59:58:24:da:e0:e1:
         82:ef:99:6f:95:2c:05:b2:53:f4:63:e2:aa:35:dc:bd:99:23:
         e8:46:0b:70:84:f2:66:c5:2b:14:90:b6:b6:08:ea:aa:d1:2e:
         c4:94:49:3d:3d:48:be:94:1d:94:e5:01:4e:58:1f:a7:19:32:
         21:e4:85:9b
-----BEGIN CERTIFICATE-----
MIIDXDCCAkSgAwIBAgIQHOl08HsLHkyzW2jl2GbtnzANBgkqhkiG9w0BAQsFADAW
MRQwEgYDVQQDDAt0ZWFtMzMyLW5ldDAeFw0yMTA5MTMwMTQ5MTVaFw0yNDA4Mjgw
MTQ5MTVaMBkxFzAVBgNVBAMMDnRlYW0zMzItY2xpZW50MIIBIjANBgkqhkiG9w0B
AQEFAAOCAQ8AMIIBCgKCAQEAtnt3oQEpIQ6enONq3BpSj5NlwZXpZhV1dZyGDlRL
/idwBwAVHqqspRmwac1eFDhNcSt1NLadbMzgIjNqbtG44r5oeyHNm6wOUgKQMNll
qUYl2BRpNf7adCg9kXPV6s87r9scJCumg8JAh1xDj8A83m9TLd0PwV2WD9agh/7U
YkyZHC8PJStGWRe5eehJGG8el5bnAapU/9oBfWoSrkxJJrOIooOylz/D5ft4qjs5
s7G7KJ5xJBiTdDpMKnp91Z8t9i/SlL2rqrjxhqEXu1D/xMnJXxh5veIX1XS2gOZc
Bu52an2x3MERa/wPuz8PyLIUSGSBDaR88eeJc3ZuQ0pH6wIDAQABo4GiMIGfMAkG
A1UdEwQCMAAwHQYDVR0OBBYEFGmtzAP/dZd68dRcpT3kyKTu/RhLMFEGA1UdIwRK
MEiAFEzYidbJBzgq5AeI0qKBztE5XJL9oRqkGDAWMRQwEgYDVQQDDAt0ZWFtMzMy
LW5ldIIUdVAJu5CxLIUbIJQT/Fn3GZNEYv8wEwYDVR0lBAwwCgYIKwYBBQUHAwIw
CwYDVR0PBAQDAgeAMA0GCSqGSIb3DQEBCwUAA4IBAQCbdj7m1ipy2kG16Lh/LyDr
J93mnvhCVk0iw87qBFU86H5kQxnPefykz8Pu/p98pO1BecVY0H3LozUY5iXvcHBb
c89Yg/wla9eFWW3OVQdHDqG2DT8XCZ1f3imWQ+N3i+EO2JlJbv5IZLtZrHmYCqno
WC4z3kh0VlXW8tdxhpexEKAHcen0fGuYaCtmkAzW2AZhxcz/fiySpEqd8Rcz8uxY
XNiZRCMdmHOIYWPwk/f8LEi/4n4qBrBDYTItJ4MeD4NZWCTa4OGC75lvlSwFslP0
Y+KqNdy9mSPoRgtwhPJmxSsUkLa2COqq0S7ElEk9PUi+lB2U5QFOWB+nGTIh5IWb
-----END CERTIFICATE-----
