Certificate:
    Data:
        Version: 3 (0x2)
        Serial Number:
            99:ad:8e:3f:29:a6:e4:7a:b5:01:fb:8e:3b:c8:68:98
        Signature Algorithm: sha256WithRSAEncryption
        Issuer: CN=team332-net
        Validity
            Not Before: Sep 13 01:49:15 2021 GMT
            Not After : Aug 28 01:49:15 2024 GMT
        Subject: CN=team332-server
        Subject Public Key Info:
            Public Key Algorithm: rsaEncryption
                RSA Public-Key: (2048 bit)
                Modulus:
                    00:cd:a9:f2:a4:06:0f:0c:6b:78:26:dc:52:46:d6:
                    5d:f6:c6:47:7e:96:d3:d0:d6:60:ad:be:00:c8:b0:
                    34:78:e9:09:cd:4c:75:a8:e2:57:1c:d4:32:35:fb:
                    58:72:c5:2f:4d:67:cd:3a:89:d8:90:53:a5:74:29:
                    06:a4:04:85:2b:87:0f:12:60:7f:76:17:45:b5:c2:
                    04:0c:31:0b:e2:31:1c:2e:84:4c:f5:fe:2a:b6:f3:
                    5e:cc:98:d5:d5:b7:38:de:c5:18:c5:e1:1b:03:6f:
                    d7:3e:4b:fc:19:c5:65:01:78:34:7b:c1:22:1c:c6:
                    96:b9:4e:60:81:de:bc:1d:4e:b2:f0:14:df:a7:2b:
                    a2:07:cb:31:e8:5f:77:01:e8:91:d7:e5:d9:cb:e7:
                    1f:7c:a1:3a:0d:bf:4c:46:93:84:bd:a1:23:d4:b5:
                    7b:1a:80:2a:68:58:3c:d9:1d:49:8d:21:85:3a:0c:
                    f1:09:61:d5:88:d0:2b:8e:a5:3b:df:f3:c4:3e:20:
                    ad:bb:55:db:7e:1f:91:e3:c1:57:e4:06:d0:42:0a:
                    1e:57:55:14:26:2c:c7:53:8a:9c:5e:0c:f4:c2:b5:
                    3c:c8:a2:64:80:93:76:39:e8:62:8e:80:aa:3d:a8:
                    2c:96:b2:30:85:e9:d5:c8:34:f1:6d:71:88:71:6c:
                    73:b9
                Exponent: 65537 (0x10001)
        X509v3 extensions:
            X509v3 Basic Constraints: 
                CA:FALSE
            X509v3 Subject Key Identifier: 
                91:CB:9D:09:08:96:4B:C2:F7:51:85:E8:D8:09:65:43:B6:54:D2:D5
            X509v3 Authority Key Identifier: 
                keyid:4C:D8:89:D6:C9:07:38:2A:E4:07:88:D2:A2:81:CE:D1:39:5C:92:FD
                DirName:/CN=team332-net
                serial:75:50:09:BB:90:B1:2C:85:1B:20:94:13:FC:59:F7:19:93:44:62:FF

            X509v3 Extended Key Usage: 
                TLS Web Server Authentication
            X509v3 Key Usage: 
                Digital Signature, Key Encipherment
            X509v3 Subject Alternative Name: 
                DNS:team332-server
    Signature Algorithm: sha256WithRSAEncryption
         8a:7f:4e:56:84:38:09:4a:2c:e6:de:86:5f:9c:3b:5a:3a:01:
         e6:05:6c:91:88:d0:d8:13:ad:d0:55:50:dc:8c:ae:f7:e2:9d:
         24:0d:b3:61:aa:2a:af:a6:25:17:4f:13:41:19:2e:55:71:f3:
         8f:ae:c0:e2:9b:2f:b8:fd:23:fb:41:10:58:b4:74:e3:c1:b2:
         c5:26:cd:bb:2a:55:83:cc:41:0a:fd:e3:93:b9:b7:12:d7:88:
         6a:ff:de:96:37:01:79:5b:82:6c:b4:89:c2:c9:93:fa:a4:e2:
         58:fb:60:78:dc:22:48:e8:13:d9:e5:68:0b:21:ac:3d:14:71:
         7b:82:e9:f7:72:56:dc:c4:3c:34:35:cd:a0:98:2c:80:6f:8f:
         a7:6f:65:82:5a:c5:96:83:ae:49:3d:f6:4c:8b:3f:58:2e:cd:
         57:a0:24:4b:6b:7e:f9:b9:40:64:6e:ba:11:7b:af:5f:1f:b4:
         ed:e3:69:1e:5a:1d:e5:f4:f2:35:04:a6:40:71:fe:68:1f:4f:
         c3:c5:88:3d:0a:ce:3d:1e:1d:b3:2f:1e:0a:12:5a:10:b2:49:
         2a:2c:79:57:6c:03:f0:22:5d:9b:15:b3:4c:cf:05:3b:6b:a7:
         ec:1c:70:d1:2d:95:b6:68:55:0c:34:4a:f0:92:2c:a4:ea:e9:
         c4:fd:ef:fd
-----BEGIN CERTIFICATE-----
MIIDeDCCAmCgAwIBAgIRAJmtjj8ppuR6tQH7jjvIaJgwDQYJKoZIhvcNAQELBQAw
FjEUMBIGA1UEAwwLdGVhbTMzMi1uZXQwHhcNMjEwOTEzMDE0OTE1WhcNMjQwODI4
MDE0OTE1WjAZMRcwFQYDVQQDDA50ZWFtMzMyLXNlcnZlcjCCASIwDQYJKoZIhvcN
AQEBBQADggEPADCCAQoCggEBAM2p8qQGDwxreCbcUkbWXfbGR36W09DWYK2+AMiw
NHjpCc1MdajiVxzUMjX7WHLFL01nzTqJ2JBTpXQpBqQEhSuHDxJgf3YXRbXCBAwx
C+IxHC6ETPX+KrbzXsyY1dW3ON7FGMXhGwNv1z5L/BnFZQF4NHvBIhzGlrlOYIHe
vB1OsvAU36crogfLMehfdwHokdfl2cvnH3yhOg2/TEaThL2hI9S1exqAKmhYPNkd
SY0hhToM8Qlh1YjQK46lO9/zxD4grbtV234fkePBV+QG0EIKHldVFCYsx1OKnF4M
9MK1PMiiZICTdjnoYo6Aqj2oLJayMIXp1cg08W1xiHFsc7kCAwEAAaOBvTCBujAJ
BgNVHRMEAjAAMB0GA1UdDgQWBBSRy50JCJZLwvdRhejYCWVDtlTS1TBRBgNVHSME
SjBIgBRM2InWyQc4KuQHiNKigc7ROVyS/aEapBgwFjEUMBIGA1UEAwwLdGVhbTMz
Mi1uZXSCFHVQCbuQsSyFGyCUE/xZ9xmTRGL/MBMGA1UdJQQMMAoGCCsGAQUFBwMB
MAsGA1UdDwQEAwIFoDAZBgNVHREEEjAQgg50ZWFtMzMyLXNlcnZlcjANBgkqhkiG
9w0BAQsFAAOCAQEAin9OVoQ4CUos5t6GX5w7WjoB5gVskYjQ2BOt0FVQ3Iyu9+Kd
JA2zYaoqr6YlF08TQRkuVXHzj67A4psvuP0j+0EQWLR048GyxSbNuypVg8xBCv3j
k7m3EteIav/eljcBeVuCbLSJwsmT+qTiWPtgeNwiSOgT2eVoCyGsPRRxe4Lp93JW
3MQ8NDXNoJgsgG+Pp29lglrFloOuST32TIs/WC7NV6AkS2t++blAZG66EXuvXx+0
7eNpHlod5fTyNQSmQHH+aB9Pw8WIPQrOPR4dsy8eChJaELJJKix5V2wD8CJdmxWz
TM8FO2un7Bxw0S2VtmhVDDRK8JIspOrpxP3v/Q==
-----END CERTIFICATE-----
