Certificate:
    Data:
        Version: 3 (0x2)
        Serial Number:
            ab:ff:fc:07:fb:76:10:3a:b4:cf:40:f2:08:99:35:35
        Signature Algorithm: sha256WithRSAEncryption
        Issuer: CN=team132-net
        Validity
            Not Before: Sep 12 23:53:47 2021 GMT
            Not After : Aug 27 23:53:47 2024 GMT
        Subject: CN=team132-server
        Subject Public Key Info:
            Public Key Algorithm: rsaEncryption
                RSA Public-Key: (2048 bit)
                Modulus:
                    00:aa:a0:78:8d:7a:6a:a6:bc:09:a7:c7:76:3c:30:
                    2a:d7:e6:d1:15:94:2d:b0:e4:9a:bb:e5:45:e2:28:
                    ab:ed:19:7f:78:6a:a3:17:e1:94:97:e4:c9:7d:6a:
                    2e:9d:94:c1:4d:5a:65:f6:58:ee:26:ab:e8:19:da:
                    7c:7d:f8:5e:bb:31:41:d6:32:b1:29:55:30:e8:7e:
                    fd:07:0b:9c:f0:56:c6:58:e7:c7:42:c8:f4:37:4b:
                    37:c8:1a:aa:47:c5:3b:1a:33:39:cf:59:ec:66:0f:
                    f7:e2:aa:a3:5e:26:67:b5:36:c3:da:f1:4b:2e:2b:
                    1e:5d:9f:a5:13:9a:ea:f8:94:88:f4:1c:72:af:b1:
                    a7:2a:e6:e0:ab:8e:28:8a:8c:58:4e:82:c9:ea:98:
                    61:96:d1:21:6d:e4:d1:8d:76:35:fa:c4:25:4a:ee:
                    8f:36:8a:de:9d:5b:bb:a6:d6:92:78:2b:bb:e6:1d:
                    4f:10:f5:3a:99:3a:0e:b9:ac:ba:aa:8f:5f:40:e5:
                    83:c8:86:de:52:b5:44:1e:b3:dd:51:16:6b:5e:c3:
                    f5:9f:ba:da:e7:e4:74:7c:1e:42:7e:9b:ff:eb:91:
                    b4:2a:81:3b:c1:2b:22:58:b8:ad:31:87:b0:31:bd:
                    92:c2:05:40:af:1b:de:d3:f3:bf:8c:23:10:de:39:
                    cc:2b
                Exponent: 65537 (0x10001)
        X509v3 extensions:
            X509v3 Basic Constraints: 
                CA:FALSE
            X509v3 Subject Key Identifier: 
                59:A8:BA:7B:D6:3E:23:9E:56:5B:B3:D2:7A:8B:4E:08:24:21:C5:72
            X509v3 Authority Key Identifier: 
                keyid:9B:8C:6C:8C:68:4E:4E:5D:98:F1:71:A9:56:1C:B3:2E:29:7F:B3:5D
                DirName:/CN=team132-net
                serial:02:E1:64:65:46:A4:5C:F8:1C:E7:2E:BE:20:5C:4E:BF:75:44:58:D0

            X509v3 Extended Key Usage: 
                TLS Web Server Authentication
            X509v3 Key Usage: 
                Digital Signature, Key Encipherment
            X509v3 Subject Alternative Name: 
                DNS:team132-server
    Signature Algorithm: sha256WithRSAEncryption
         91:66:2a:30:d3:21:87:a2:24:06:90:a2:5f:16:85:91:f8:20:
         d7:97:34:f0:e1:c7:ba:6d:ea:c7:fa:a7:05:18:74:0c:33:22:
         5f:02:14:a6:70:78:0e:26:81:7b:66:16:f9:e1:b3:f4:18:42:
         4c:cf:cd:7a:c5:1e:b4:dd:98:0a:14:8b:eb:8f:8d:05:54:86:
         bd:2a:3b:0e:1d:d3:e8:a1:65:c3:57:cc:b4:0c:cd:10:a6:0a:
         86:4a:68:96:a0:84:95:6e:96:af:3a:19:5c:b7:6b:b7:20:d5:
         99:b3:f4:0c:1b:1b:79:de:09:6e:31:2e:c2:c4:f9:40:99:c4:
         f0:17:a5:6d:88:2d:dc:b3:20:ff:a4:b7:0d:5d:e3:b4:a0:0b:
         62:29:92:9b:40:f5:d2:0a:88:9a:10:b4:86:8b:53:3c:54:b4:
         67:91:62:99:ff:0c:c5:b8:9c:82:6f:c2:6e:2f:19:12:5d:5c:
         ae:93:91:48:51:bc:b9:59:ca:10:0b:9d:5b:f9:7f:fc:63:a5:
         2c:8d:cd:d3:38:1e:43:56:72:81:7d:22:00:6a:d9:6b:a3:74:
         6f:30:7a:a0:49:f8:c9:f3:3b:c8:93:16:43:c8:a2:b3:a3:9b:
         8d:fc:6d:69:b6:7a:d4:a1:96:73:6a:18:4c:70:e3:84:80:c0:
         7b:60:2b:0d
-----BEGIN CERTIFICATE-----
MIIDeDCCAmCgAwIBAgIRAKv//Af7dhA6tM9A8giZNTUwDQYJKoZIhvcNAQELBQAw
FjEUMBIGA1UEAwwLdGVhbTEzMi1uZXQwHhcNMjEwOTEyMjM1MzQ3WhcNMjQwODI3
MjM1MzQ3WjAZMRcwFQYDVQQDDA50ZWFtMTMyLXNlcnZlcjCCASIwDQYJKoZIhvcN
AQEBBQADggEPADCCAQoCggEBAKqgeI16aqa8CafHdjwwKtfm0RWULbDkmrvlReIo
q+0Zf3hqoxfhlJfkyX1qLp2UwU1aZfZY7iar6BnafH34XrsxQdYysSlVMOh+/QcL
nPBWxljnx0LI9DdLN8gaqkfFOxozOc9Z7GYP9+Kqo14mZ7U2w9rxSy4rHl2fpROa
6viUiPQccq+xpyrm4KuOKIqMWE6CyeqYYZbRIW3k0Y12NfrEJUrujzaK3p1bu6bW
kngru+YdTxD1Opk6DrmsuqqPX0Dlg8iG3lK1RB6z3VEWa17D9Z+62ufkdHweQn6b
/+uRtCqBO8ErIli4rTGHsDG9ksIFQK8b3tPzv4wjEN45zCsCAwEAAaOBvTCBujAJ
BgNVHRMEAjAAMB0GA1UdDgQWBBRZqLp71j4jnlZbs9J6i04IJCHFcjBRBgNVHSME
SjBIgBSbjGyMaE5OXZjxcalWHLMuKX+zXaEapBgwFjEUMBIGA1UEAwwLdGVhbTEz
Mi1uZXSCFALhZGVGpFz4HOcuviBcTr91RFjQMBMGA1UdJQQMMAoGCCsGAQUFBwMB
MAsGA1UdDwQEAwIFoDAZBgNVHREEEjAQgg50ZWFtMTMyLXNlcnZlcjANBgkqhkiG
9w0BAQsFAAOCAQEAkWYqMNMhh6IkBpCiXxaFkfgg15c08OHHum3qx/qnBRh0DDMi
XwIUpnB4DiaBe2YW+eGz9BhCTM/NesUetN2YChSL64+NBVSGvSo7Dh3T6KFlw1fM
tAzNEKYKhkpolqCElW6WrzoZXLdrtyDVmbP0DBsbed4JbjEuwsT5QJnE8BelbYgt
3LMg/6S3DV3jtKALYimSm0D10gqImhC0hotTPFS0Z5Fimf8Mxbicgm/Cbi8ZEl1c
rpORSFG8uVnKEAudW/l//GOlLI3N0zgeQ1ZygX0iAGrZa6N0bzB6oEn4yfM7yJMW
Q8iis6ObjfxtabZ61KGWc2oYTHDjhIDAe2ArDQ==
-----END CERTIFICATE-----
