Certificate:
    Data:
        Version: 3 (0x2)
        Serial Number:
            0f:41:0e:5e:39:55:ca:96:fc:55:60:80:c3:a1:28:f9
        Signature Algorithm: sha256WithRSAEncryption
        Issuer: CN=team579-net
        Validity
            Not Before: Sep 13 03:44:50 2021 GMT
            Not After : Aug 28 03:44:50 2024 GMT
        Subject: CN=team579-client
        Subject Public Key Info:
            Public Key Algorithm: rsaEncryption
                RSA Public-Key: (2048 bit)
                Modulus:
                    00:b6:0d:0f:93:d9:5e:8c:db:af:0f:38:08:f5:8b:
                    0f:be:9c:37:8b:96:1b:08:e7:4c:1c:3b:e4:a8:2a:
                    05:58:45:14:6f:7b:98:bb:60:e0:71:9c:bd:c6:09:
                    c3:6e:88:dc:06:db:e3:43:7e:68:8c:95:9f:f4:a0:
                    dd:29:2b:e4:07:32:24:77:7c:42:e2:de:16:63:d4:
                    c5:e2:3f:81:23:d3:92:10:c5:6e:2e:c7:03:98:53:
                    6b:02:6d:73:f5:9f:e4:a7:e9:ab:e9:a5:4b:79:45:
                    83:3c:67:60:87:b9:43:a2:7b:c7:32:19:e0:8a:62:
                    37:c1:6a:e1:9b:ef:6a:9f:66:10:b4:40:ce:01:70:
                    8d:d1:9d:14:a4:ba:95:ee:63:1e:70:2b:06:f3:e9:
                    be:d2:f5:2f:55:91:dc:0e:a2:11:14:e0:4a:17:58:
                    2d:06:13:54:eb:c3:07:74:3d:2e:6c:6c:87:e0:ba:
                    a5:12:89:2c:53:a2:f8:28:05:85:80:29:eb:f3:07:
                    88:c6:17:37:e5:43:da:0d:49:62:48:51:16:ee:45:
                    12:5b:ad:f1:91:02:1b:a1:58:bf:97:cd:04:45:e2:
                    1e:b5:9a:55:b9:6d:74:90:12:fc:34:57:cf:42:12:
                    c2:67:d7:ae:d7:03:55:e4:87:ba:05:9a:d9:a9:cb:
                    9a:77
                Exponent: 65537 (0x10001)
        X509v3 extensions:
            X509v3 Basic Constraints: 
                CA:FALSE
            X509v3 Subject Key Identifier: 
                90:B6:A2:10:4F:2C:3F:E2:6E:53:BE:4B:2D:AD:B3:D8:A4:00:A4:7A
            X509v3 Authority Key Identifier: 
                keyid:E3:4F:2E:9D:C9:55:B4:73:B7:E7:FE:37:41:41:D9:67:F7:08:72:96
                DirName:/CN=team579-net
                serial:43:A9:DA:29:D0:5A:5F:90:6E:1D:58:C1:04:C5:38:D1:F1:CA:DE:BE

            X509v3 Extended Key Usage: 
                TLS Web Client Authentication
            X509v3 Key Usage: 
                Digital Signature
    Signature Algorithm: sha256WithRSAEncryption
         25:e1:eb:9b:7d:24:b0:64:05:ae:42:8a:18:37:8c:6a:dd:bf:
         a3:33:83:ed:41:ac:ce:98:89:0a:ce:29:d2:cd:c7:f6:d6:03:
         85:3d:be:f9:2a:3f:1c:6b:e9:af:73:61:03:c0:04:ac:01:79:
         d8:e6:b0:5a:72:2d:8c:82:a7:51:56:a6:96:60:be:2f:53:62:
         e7:ad:2d:b0:e2:2e:34:18:db:b1:81:36:a3:61:7e:ee:41:6b:
         de:6f:39:45:08:b0:64:f2:2a:1e:bf:79:94:d7:6e:a3:3e:b1:
         25:f9:2c:36:42:c8:0a:08:c1:d8:6a:35:0f:f3:ae:33:dc:37:
         7e:ce:db:3a:45:7d:4e:68:c0:b8:31:ba:21:d2:a5:47:b9:17:
         d9:5a:22:3c:de:dc:5d:b4:3c:ac:42:7d:ad:7d:4f:45:26:5c:
         ea:c1:c2:0e:3d:5d:e0:24:df:f5:90:9e:03:39:5a:c8:b2:87:
         88:00:32:3a:b0:3e:ea:10:32:be:de:38:c9:d2:15:85:29:73:
         b6:b3:74:95:4d:d2:e6:6d:f6:ad:c6:6a:24:03:17:47:ea:5a:
         0d:6e:39:7d:df:c9:b5:86:a3:89:e8:ad:1e:e0:9c:4c:50:9a:
         66:1b:43:b0:e5:10:c4:87:44:44:f8:0c:54:d2:c9:2f:52:25:
         4d:94:6e:fd
-----BEGIN CERTIFICATE-----
MIIDXDCCAkSgAwIBAgIQD0EOXjlVypb8VWCAw6Eo+TANBgkqhkiG9w0BAQsFADAW
MRQwEgYDVQQDDAt0ZWFtNTc5LW5ldDAeFw0yMTA5MTMwMzQ0NTBaFw0yNDA4Mjgw
MzQ0NTBaMBkxFzAVBgNVBAMMDnRlYW01NzktY2xpZW50MIIBIjANBgkqhkiG9w0B
AQEFAAOCAQ8AMIIBCgKCAQEAtg0Pk9lejNuvDzgI9YsPvpw3i5YbCOdMHDvkqCoF
WEUUb3uYu2DgcZy9xgnDbojcBtvjQ35ojJWf9KDdKSvkBzIkd3xC4t4WY9TF4j+B
I9OSEMVuLscDmFNrAm1z9Z/kp+mr6aVLeUWDPGdgh7lDonvHMhngimI3wWrhm+9q
n2YQtEDOAXCN0Z0UpLqV7mMecCsG8+m+0vUvVZHcDqIRFOBKF1gtBhNU68MHdD0u
bGyH4LqlEoksU6L4KAWFgCnr8weIxhc35UPaDUliSFEW7kUSW63xkQIboVi/l80E
ReIetZpVuW10kBL8NFfPQhLCZ9eu1wNV5Ie6BZrZqcuadwIDAQABo4GiMIGfMAkG
A1UdEwQCMAAwHQYDVR0OBBYEFJC2ohBPLD/iblO+Sy2ts9ikAKR6MFEGA1UdIwRK
MEiAFONPLp3JVbRzt+f+N0FB2Wf3CHKWoRqkGDAWMRQwEgYDVQQDDAt0ZWFtNTc5
LW5ldIIUQ6naKdBaX5BuHVjBBMU40fHK3r4wEwYDVR0lBAwwCgYIKwYBBQUHAwIw
CwYDVR0PBAQDAgeAMA0GCSqGSIb3DQEBCwUAA4IBAQAl4eubfSSwZAWuQooYN4xq
3b+jM4PtQazOmIkKzinSzcf21gOFPb75Kj8ca+mvc2EDwASsAXnY5rBaci2MgqdR
VqaWYL4vU2LnrS2w4i40GNuxgTajYX7uQWvebzlFCLBk8ioev3mU126jPrEl+Sw2
QsgKCMHYajUP864z3Dd+zts6RX1OaMC4Mboh0qVHuRfZWiI83txdtDysQn2tfU9F
JlzqwcIOPV3gJN/1kJ4DOVrIsoeIADI6sD7qEDK+3jjJ0hWFKXO2s3SVTdLmbfat
xmokAxdH6loNbjl938m1hqOJ6K0e4JxMUJpmG0Ow5RDEh0RE+AxU0skvUiVNlG79
-----END CERTIFICATE-----
