Certificate:
    Data:
        Version: 3 (0x2)
        Serial Number:
            4a:66:1f:c8:0f:c9:af:c1:6c:8f:2e:9d:86:a2:c6:ba
        Signature Algorithm: sha256WithRSAEncryption
        Issuer: CN=team590-net
        Validity
            Not Before: Sep 13 04:08:28 2021 GMT
            Not After : Aug 28 04:08:28 2024 GMT
        Subject: CN=team590-client
        Subject Public Key Info:
            Public Key Algorithm: rsaEncryption
                RSA Public-Key: (2048 bit)
                Modulus:
                    00:ce:4a:ed:a7:fe:97:b6:7e:a1:ed:40:f6:25:3c:
                    34:a8:26:7b:e3:d0:19:41:1a:c5:e9:b0:37:fa:b8:
                    97:c4:c0:c0:21:ec:6d:0d:0b:c1:5e:69:11:23:72:
                    03:41:64:90:99:0b:85:b7:47:de:fd:2d:93:ab:d8:
                    45:81:1d:e0:f6:8f:55:90:6b:ae:c3:c9:bd:31:49:
                    6f:33:ee:3a:88:1a:94:f8:33:9c:fc:91:40:78:2c:
                    c5:36:dd:19:fe:85:b1:44:6e:05:64:79:e7:b5:e5:
                    20:b4:66:e6:76:25:aa:69:1b:2f:30:7c:ca:aa:8a:
                    05:e9:c3:84:88:41:91:2e:09:bc:09:01:80:97:2d:
                    2f:09:38:c5:24:cc:c7:2a:c5:fc:c2:c3:db:29:ac:
                    83:be:57:ba:c9:91:af:55:58:6c:1d:4f:fa:e6:46:
                    bd:f4:00:22:ab:75:98:8c:f2:a5:ee:2e:f9:1c:55:
                    41:9b:97:03:84:bf:0e:33:ed:34:3d:d5:fc:90:2b:
                    75:84:6b:17:c2:52:2a:1d:41:e4:d7:a5:74:bd:d0:
                    d1:db:5f:b5:d4:f7:a8:10:7f:58:48:0c:1e:48:87:
                    be:52:cb:a4:f0:7c:99:90:ff:99:d1:e8:c6:18:19:
                    25:b8:38:d3:74:4f:6c:3b:02:ec:dd:57:f2:7e:07:
                    a2:8b
                Exponent: 65537 (0x10001)
        X509v3 extensions:
            X509v3 Basic Constraints: 
                CA:FALSE
            X509v3 Subject Key Identifier: 
                F7:79:61:B9:B9:6C:7C:85:E9:D0:22:77:21:5C:61:1E:C1:4E:CB:84
            X509v3 Authority Key Identifier: 
                keyid:95:51:D7:36:E3:97:A3:A9:66:C8:78:2A:7F:8D:15:95:8F:88:7B:92
                DirName:/CN=team590-net
                serial:27:4D:E1:E2:69:3A:5D:D8:36:0C:1B:F5:DB:94:02:53:25:62:30:D3

            X509v3 Extended Key Usage: 
                TLS Web Client Authentication
            X509v3 Key Usage: 
                Digital Signature
    Signature Algorithm: sha256WithRSAEncryption
         09:01:7f:c4:a5:a9:23:03:60:05:0a:25:d6:6b:61:94:9a:fb:
         9b:9a:32:e1:38:b7:59:da:12:be:9f:ac:74:65:11:32:fc:5d:
         e6:28:74:e8:1c:60:28:9f:70:0c:3d:a5:6d:d5:52:36:e6:4a:
         78:34:bb:a2:f2:be:03:38:3a:7e:61:e1:0f:bb:0d:52:4d:2e:
         ee:35:27:69:dc:98:69:ef:66:e6:c6:42:50:4f:6f:c8:c4:5f:
         e5:37:8b:23:67:48:f6:b4:32:79:72:2f:6a:c1:9b:07:b2:6f:
         ff:4c:fd:73:a4:ed:6b:dc:e4:3d:10:f8:68:22:d8:52:de:1e:
         1b:91:0b:b2:d7:db:9e:b0:53:5d:06:3f:c8:d5:87:b8:69:8c:
         a4:ec:a6:8b:fe:fe:fe:c5:b4:81:a2:9e:21:ea:b1:a9:d6:33:
         04:b0:a5:29:65:bf:2a:e5:b7:75:d2:ed:15:1e:d1:0f:f1:92:
         0a:ec:67:10:67:9a:b6:01:8f:e8:0f:ac:20:9d:c3:9f:1a:99:
         aa:1e:eb:12:b8:a7:8b:8a:0e:8e:42:63:e4:d9:7b:aa:29:90:
         45:86:5c:44:23:a4:c0:21:30:17:53:04:ff:38:0f:d5:c9:0a:
         1c:77:c1:5a:41:95:24:4b:81:3d:f5:90:28:3d:24:ac:c5:71:
         b3:42:2b:f2
-----BEGIN CERTIFICATE-----
MIIDXDCCAkSgAwIBAgIQSmYfyA/Jr8Fsjy6dhqLGujANBgkqhkiG9w0BAQsFADAW
MRQwEgYDVQQDDAt0ZWFtNTkwLW5ldDAeFw0yMTA5MTMwNDA4MjhaFw0yNDA4Mjgw
NDA4MjhaMBkxFzAVBgNVBAMMDnRlYW01OTAtY2xpZW50MIIBIjANBgkqhkiG9w0B
AQEFAAOCAQ8AMIIBCgKCAQEAzkrtp/6Xtn6h7UD2JTw0qCZ749AZQRrF6bA3+riX
xMDAIextDQvBXmkRI3IDQWSQmQuFt0fe/S2Tq9hFgR3g9o9VkGuuw8m9MUlvM+46
iBqU+DOc/JFAeCzFNt0Z/oWxRG4FZHnnteUgtGbmdiWqaRsvMHzKqooF6cOEiEGR
Lgm8CQGAly0vCTjFJMzHKsX8wsPbKayDvle6yZGvVVhsHU/65ka99AAiq3WYjPKl
7i75HFVBm5cDhL8OM+00PdX8kCt1hGsXwlIqHUHk16V0vdDR21+11PeoEH9YSAwe
SIe+Usuk8HyZkP+Z0ejGGBkluDjTdE9sOwLs3VfyfgeiiwIDAQABo4GiMIGfMAkG
A1UdEwQCMAAwHQYDVR0OBBYEFPd5Ybm5bHyF6dAidyFcYR7BTsuEMFEGA1UdIwRK
MEiAFJVR1zbjl6OpZsh4Kn+NFZWPiHuSoRqkGDAWMRQwEgYDVQQDDAt0ZWFtNTkw
LW5ldIIUJ03h4mk6Xdg2DBv125QCUyViMNMwEwYDVR0lBAwwCgYIKwYBBQUHAwIw
CwYDVR0PBAQDAgeAMA0GCSqGSIb3DQEBCwUAA4IBAQAJAX/EpakjA2AFCiXWa2GU
mvubmjLhOLdZ2hK+n6x0ZREy/F3mKHToHGAon3AMPaVt1VI25kp4NLui8r4DODp+
YeEPuw1STS7uNSdp3Jhp72bmxkJQT2/IxF/lN4sjZ0j2tDJ5ci9qwZsHsm//TP1z
pO1r3OQ9EPhoIthS3h4bkQuy19uesFNdBj/I1Ye4aYyk7KaL/v7+xbSBop4h6rGp
1jMEsKUpZb8q5bd10u0VHtEP8ZIK7GcQZ5q2AY/oD6wgncOfGpmqHusSuKeLig6O
QmPk2XuqKZBFhlxEI6TAITAXUwT/OA/VyQocd8FaQZUkS4E99ZAoPSSsxXGzQivy
-----END CERTIFICATE-----
