Certificate:
    Data:
        Version: 3 (0x2)
        Serial Number:
            56:2e:ad:b0:97:c5:26:17:a7:0f:27:a6:27:01:8c:4b
        Signature Algorithm: sha256WithRSAEncryption
        Issuer: CN=team123-net
        Validity
            Not Before: Sep 12 23:50:31 2021 GMT
            Not After : Aug 27 23:50:31 2024 GMT
        Subject: CN=team123-client
        Subject Public Key Info:
            Public Key Algorithm: rsaEncryption
                RSA Public-Key: (2048 bit)
                Modulus:
                    00:d2:38:76:9f:4f:e5:29:da:93:c3:35:39:48:80:
                    cc:32:8e:51:a0:90:e9:ae:70:dc:f5:69:51:d6:79:
                    d2:ed:eb:92:b6:9e:62:23:d0:82:40:30:28:fe:87:
                    9b:de:bc:6a:15:9d:e0:1c:9a:f6:a9:53:af:bc:71:
                    5b:fa:1c:ce:52:51:34:af:0d:0b:99:e0:ca:bd:d3:
                    eb:70:e2:04:58:6f:da:50:16:f6:7f:42:55:a4:1a:
                    1e:ad:20:3a:79:03:8b:61:d5:1a:77:e9:b7:01:51:
                    60:27:56:e5:82:47:8f:7e:e4:88:ac:fe:8d:c7:1a:
                    d5:41:67:3a:ea:00:8f:21:74:c1:9d:22:c6:6e:6c:
                    73:68:e3:5e:38:3b:c2:b4:f0:f0:eb:37:37:0d:12:
                    8d:67:6b:18:aa:2b:6f:66:d9:c7:79:d8:2d:1d:b3:
                    7f:36:83:00:d1:3d:95:17:71:09:28:57:c7:7a:ff:
                    99:00:76:ff:89:e7:83:57:d9:96:8f:b5:40:d8:61:
                    10:89:b9:11:8f:20:c9:6c:b5:52:65:e7:f4:9e:3f:
                    b2:c2:01:7f:ba:43:17:87:74:de:63:38:a8:21:74:
                    3a:a7:5c:59:43:35:09:90:79:61:aa:be:cb:01:fc:
                    3d:97:8a:f0:7d:4b:dd:5d:b8:f8:ed:8b:5c:3f:1a:
                    12:4d
                Exponent: 65537 (0x10001)
        X509v3 extensions:
            X509v3 Basic Constraints: 
                CA:FALSE
            X509v3 Subject Key Identifier: 
                AB:4F:81:95:91:56:90:CE:4E:08:B9:AA:32:86:3E:84:73:F6:07:51
            X509v3 Authority Key Identifier: 
                keyid:CE:F8:E5:1E:B6:E0:D4:0C:5C:20:6A:DB:CB:94:8F:A0:AB:2E:06:43
                DirName:/CN=team123-net
                serial:77:36:10:AE:D5:8D:21:88:B5:A6:01:91:3D:CD:B6:F6:45:D1:2C:79

            X509v3 Extended Key Usage: 
                TLS Web Client Authentication
            X509v3 Key Usage: 
                Digital Signature
    Signature Algorithm: sha256WithRSAEncryption
         8f:2d:e1:1c:30:f0:46:9b:73:14:c8:5b:36:f8:8f:69:b9:4c:
         bc:74:6b:6a:3b:2a:22:ac:bd:dc:17:a0:a7:37:f1:bf:2c:53:
         b0:6e:ab:b7:0a:8d:32:22:c7:f0:17:e9:cc:bc:7b:fd:3f:7e:
         96:50:53:e0:8d:d2:5c:c2:b3:09:41:88:81:e7:03:2f:60:72:
         1b:17:d7:70:11:10:68:97:6d:ab:e3:6e:3d:f2:5f:80:04:71:
         e9:a9:e4:e2:1b:e3:02:2b:7d:b9:43:28:22:ab:69:4b:1b:96:
         f8:d3:2b:9c:fb:99:ac:a2:b2:7d:68:6f:0c:e7:71:65:00:cb:
         07:23:c3:a8:d6:36:39:e2:51:15:86:ad:7d:d5:be:c4:41:bf:
         ac:df:5c:a1:14:ab:b8:c9:95:23:db:88:cd:79:16:92:6e:72:
         f5:7f:83:c5:cc:47:5d:7e:32:d8:a1:cb:59:3d:78:24:72:bf:
         92:7d:b6:87:07:e1:42:18:44:2b:d5:31:ce:5d:d0:f0:b2:a1:
         e4:c1:a0:45:f2:4b:b9:ec:11:61:e9:7e:f2:27:c6:6f:05:7d:
         2c:7d:d0:da:d1:58:61:ed:25:a0:80:5b:80:95:a4:08:0a:f6:
         a9:f9:8e:d8:fc:be:7a:f9:4e:eb:b3:80:5a:e6:15:e7:fd:be:
         5f:80:4e:83
-----BEGIN CERTIFICATE-----
MIIDXDCCAkSgAwIBAgIQVi6tsJfFJhenDyemJwGMSzANBgkqhkiG9w0BAQsFADAW
MRQwEgYDVQQDDAt0ZWFtMTIzLW5ldDAeFw0yMTA5MTIyMzUwMzFaFw0yNDA4Mjcy
MzUwMzFaMBkxFzAVBgNVBAMMDnRlYW0xMjMtY2xpZW50MIIBIjANBgkqhkiG9w0B
AQEFAAOCAQ8AMIIBCgKCAQEA0jh2n0/lKdqTwzU5SIDMMo5RoJDprnDc9WlR1nnS
7euStp5iI9CCQDAo/oeb3rxqFZ3gHJr2qVOvvHFb+hzOUlE0rw0LmeDKvdPrcOIE
WG/aUBb2f0JVpBoerSA6eQOLYdUad+m3AVFgJ1blgkePfuSIrP6NxxrVQWc66gCP
IXTBnSLGbmxzaONeODvCtPDw6zc3DRKNZ2sYqitvZtnHedgtHbN/NoMA0T2VF3EJ
KFfHev+ZAHb/ieeDV9mWj7VA2GEQibkRjyDJbLVSZef0nj+ywgF/ukMXh3TeYzio
IXQ6p1xZQzUJkHlhqr7LAfw9l4rwfUvdXbj47YtcPxoSTQIDAQABo4GiMIGfMAkG
A1UdEwQCMAAwHQYDVR0OBBYEFKtPgZWRVpDOTgi5qjKGPoRz9gdRMFEGA1UdIwRK
MEiAFM745R624NQMXCBq28uUj6CrLgZDoRqkGDAWMRQwEgYDVQQDDAt0ZWFtMTIz
LW5ldIIUdzYQrtWNIYi1pgGRPc229kXRLHkwEwYDVR0lBAwwCgYIKwYBBQUHAwIw
CwYDVR0PBAQDAgeAMA0GCSqGSIb3DQEBCwUAA4IBAQCPLeEcMPBGm3MUyFs2+I9p
uUy8dGtqOyoirL3cF6CnN/G/LFOwbqu3Co0yIsfwF+nMvHv9P36WUFPgjdJcwrMJ
QYiB5wMvYHIbF9dwERBol22r42498l+ABHHpqeTiG+MCK325Qygiq2lLG5b40yuc
+5msorJ9aG8M53FlAMsHI8Oo1jY54lEVhq191b7EQb+s31yhFKu4yZUj24jNeRaS
bnL1f4PFzEddfjLYoctZPXgkcr+SfbaHB+FCGEQr1THOXdDwsqHkwaBF8ku57BFh
6X7yJ8ZvBX0sfdDa0Vhh7SWggFuAlaQICvap+Y7Y/L56+U7rs4Ba5hXn/b5fgE6D
-----END CERTIFICATE-----
