Certificate:
    Data:
        Version: 3 (0x2)
        Serial Number:
            cb:fc:53:fc:7d:46:77:b5:ae:99:f4:6a:4d:46:81:58
        Signature Algorithm: sha256WithRSAEncryption
        Issuer: CN=team21-net
        Validity
            Not Before: Sep 12 22:52:25 2021 GMT
            Not After : Aug 27 22:52:25 2024 GMT
        Subject: CN=team21-server
        Subject Public Key Info:
            Public Key Algorithm: rsaEncryption
                RSA Public-Key: (2048 bit)
                Modulus:
                    00:cf:52:59:19:bf:cb:2b:fa:ae:80:3d:ed:f6:8a:
                    02:b9:c8:aa:01:55:b4:7d:6c:c9:24:fb:d3:e5:7b:
                    f6:54:34:14:43:42:01:a2:6a:96:45:9c:a8:9a:86:
                    6e:e3:fa:e0:0e:3c:99:4d:ed:2f:ce:68:e7:da:da:
                    16:23:a7:b0:88:fb:33:ca:9c:be:15:8a:df:01:f9:
                    22:0b:e6:bc:12:bb:a3:2c:38:2f:fb:37:5a:bd:48:
                    50:28:3f:93:8e:e4:be:87:e9:2d:75:8d:2b:21:14:
                    46:bf:da:ff:16:c4:b8:a1:78:11:e1:56:cf:f2:e5:
                    9e:6e:23:9b:46:9e:12:3c:7f:de:f8:bf:11:3e:c8:
                    90:2f:35:67:f2:dd:42:60:92:5e:61:ee:a9:fb:2f:
                    8f:73:b1:7c:5b:9e:39:5f:48:f9:7d:4d:e3:ec:f0:
                    6b:9f:4c:01:41:3d:2a:61:20:76:c0:a2:0a:91:28:
                    0b:39:cc:5e:74:14:da:32:9a:2f:b6:96:4c:21:7c:
                    a6:29:a1:53:39:c7:8f:2b:f9:fd:22:7c:2b:b0:4e:
                    19:49:e4:22:b8:ef:0f:51:8b:23:13:32:fa:4b:a1:
                    41:43:4c:c3:b1:69:78:15:8d:ac:62:ea:ba:cf:87:
                    b0:2e:ff:7b:9f:db:b1:fe:f6:41:d8:90:fe:3a:c3:
                    c1:11
                Exponent: 65537 (0x10001)
        X509v3 extensions:
            X509v3 Basic Constraints: 
                CA:FALSE
            X509v3 Subject Key Identifier: 
                C8:5D:43:EC:FA:17:0B:90:A4:91:23:D4:31:ED:33:FC:B1:CF:A7:F3
            X509v3 Authority Key Identifier: 
                keyid:DB:6E:75:50:5B:52:6C:2C:1F:79:23:0F:FB:6A:64:F5:23:C6:C2:03
                DirName:/CN=team21-net
                serial:51:2D:D2:47:2C:5E:37:0F:20:F4:57:0C:16:1B:69:44:D2:AA:BA:7E

            X509v3 Extended Key Usage: 
                TLS Web Server Authentication
            X509v3 Key Usage: 
                Digital Signature, Key Encipherment
            X509v3 Subject Alternative Name: 
                DNS:team21-server
    Signature Algorithm: sha256WithRSAEncryption
         46:9d:7e:e4:72:22:b0:68:fd:c9:56:dd:88:a1:9c:15:c5:ff:
         46:ea:d9:53:8e:94:a8:28:c3:cf:12:17:d6:07:57:de:ef:d4:
         a0:d2:fc:32:0d:72:76:64:7e:01:a4:77:d0:5f:a8:68:50:3f:
         3e:ae:eb:b8:61:aa:e7:77:27:d4:1d:82:e5:90:2c:bb:2c:6e:
         68:a8:46:04:44:17:d5:3f:d8:80:62:94:43:93:e2:a1:18:09:
         96:3b:6b:42:93:70:02:7f:17:6e:bb:39:d2:c5:23:57:94:db:
         99:1c:f2:39:2a:5b:cd:cf:df:6e:f3:3f:99:d4:49:ce:dc:62:
         b1:85:8d:32:d8:1c:71:5c:4b:83:a1:82:cb:88:5e:75:c3:0c:
         bd:be:31:ba:4b:9d:fe:0e:63:43:6d:50:53:81:41:b0:27:0b:
         3f:0c:4d:3a:1f:12:90:d0:9d:dc:58:36:be:35:74:47:a7:2e:
         5f:c8:eb:80:31:24:86:77:20:fd:e0:8c:53:52:58:e7:e1:b6:
         4d:eb:fe:fe:b7:95:2e:db:b8:80:37:b5:e9:44:23:c7:3d:91:
         e9:3b:91:b9:92:c0:f5:f8:0d:c2:02:79:78:bc:c7:0a:65:fd:
         76:cb:5d:bc:9a:98:e6:c4:20:55:68:b2:07:2e:8e:ba:60:4c:
         aa:dc:a3:6e
-----BEGIN CERTIFICATE-----
MIIDdDCCAlygAwIBAgIRAMv8U/x9Rne1rpn0ak1GgVgwDQYJKoZIhvcNAQELBQAw
FTETMBEGA1UEAwwKdGVhbTIxLW5ldDAeFw0yMTA5MTIyMjUyMjVaFw0yNDA4Mjcy
MjUyMjVaMBgxFjAUBgNVBAMMDXRlYW0yMS1zZXJ2ZXIwggEiMA0GCSqGSIb3DQEB
AQUAA4IBDwAwggEKAoIBAQDPUlkZv8sr+q6APe32igK5yKoBVbR9bMkk+9Ple/ZU
NBRDQgGiapZFnKiahm7j+uAOPJlN7S/OaOfa2hYjp7CI+zPKnL4Vit8B+SIL5rwS
u6MsOC/7N1q9SFAoP5OO5L6H6S11jSshFEa/2v8WxLiheBHhVs/y5Z5uI5tGnhI8
f974vxE+yJAvNWfy3UJgkl5h7qn7L49zsXxbnjlfSPl9TePs8GufTAFBPSphIHbA
ogqRKAs5zF50FNoymi+2lkwhfKYpoVM5x48r+f0ifCuwThlJ5CK47w9RiyMTMvpL
oUFDTMOxaXgVjaxi6rrPh7Au/3uf27H+9kHYkP46w8ERAgMBAAGjgbswgbgwCQYD
VR0TBAIwADAdBgNVHQ4EFgQUyF1D7PoXC5CkkSPUMe0z/LHPp/MwUAYDVR0jBEkw
R4AU2251UFtSbCwfeSMP+2pk9SPGwgOhGaQXMBUxEzARBgNVBAMMCnRlYW0yMS1u
ZXSCFFEt0kcsXjcPIPRXDBYbaUTSqrp+MBMGA1UdJQQMMAoGCCsGAQUFBwMBMAsG
A1UdDwQEAwIFoDAYBgNVHREEETAPgg10ZWFtMjEtc2VydmVyMA0GCSqGSIb3DQEB
CwUAA4IBAQBGnX7kciKwaP3JVt2IoZwVxf9G6tlTjpSoKMPPEhfWB1fe79Sg0vwy
DXJ2ZH4BpHfQX6hoUD8+ruu4YarndyfUHYLlkCy7LG5oqEYERBfVP9iAYpRDk+Kh
GAmWO2tCk3ACfxduuznSxSNXlNuZHPI5KlvNz99u8z+Z1EnO3GKxhY0y2BxxXEuD
oYLLiF51wwy9vjG6S53+DmNDbVBTgUGwJws/DE06HxKQ0J3cWDa+NXRHpy5fyOuA
MSSGdyD94IxTUljn4bZN6/7+t5Uu27iAN7XpRCPHPZHpO5G5ksD1+A3CAnl4vMcK
Zf12y128mpjmxCBVaLIHLo66YEyq3KNu
-----END CERTIFICATE-----
