Certificate:
    Data:
        Version: 3 (0x2)
        Serial Number:
            fb:fb:a7:2b:9c:a3:06:19:9a:55:50:8f:82:c6:ec:4e
        Signature Algorithm: sha256WithRSAEncryption
        Issuer: CN=team137-net
        Validity
            Not Before: Sep 12 23:57:59 2021 GMT
            Not After : Aug 27 23:57:59 2024 GMT
        Subject: CN=team137-server
        Subject Public Key Info:
            Public Key Algorithm: rsaEncryption
                RSA Public-Key: (2048 bit)
                Modulus:
                    00:b8:66:0f:12:b4:35:4c:61:f8:29:fa:12:3a:2e:
                    26:6f:66:22:cb:f2:fc:ed:1b:ef:39:8e:4d:77:38:
                    75:25:53:9b:4c:69:c9:a0:79:5e:1e:14:ea:02:8d:
                    e0:5f:ee:ea:45:17:de:22:33:67:5c:ab:8f:12:d5:
                    4b:32:1d:28:c1:ad:4e:3f:6c:77:2e:de:a4:53:54:
                    45:52:2e:79:b3:99:d9:ea:11:57:92:5f:9f:20:d9:
                    50:40:2d:e2:95:af:dc:7b:e9:93:83:df:e0:47:12:
                    a8:58:16:22:71:b6:9b:7d:39:a3:71:f9:44:70:6f:
                    a2:c5:03:d6:47:fb:36:52:02:e1:ca:d6:ba:af:20:
                    a9:b8:46:13:ef:fc:37:89:c3:12:68:77:42:d8:bc:
                    06:10:7d:28:3a:0c:1d:ea:cf:6f:ee:46:b8:ef:31:
                    65:f1:4d:c2:f5:b5:e1:95:e7:da:ff:c3:c2:98:90:
                    a1:fa:1b:b3:66:9d:70:c7:9c:df:7c:95:d9:02:a1:
                    f6:0b:8d:25:19:a1:68:eb:47:d9:f4:85:1e:c7:ba:
                    7f:c8:74:63:91:93:25:24:5a:a5:a8:03:5b:e6:a4:
                    9f:c6:5e:30:1b:e0:d4:20:80:f6:30:74:18:35:73:
                    8d:2c:4c:96:02:4c:ef:b2:d0:e9:9a:99:63:a5:c5:
                    78:b5
                Exponent: 65537 (0x10001)
        X509v3 extensions:
            X509v3 Basic Constraints: 
                CA:FALSE
            X509v3 Subject Key Identifier: 
                E7:64:FE:7A:C6:DE:F4:9C:7B:91:E2:8C:13:35:05:43:07:FB:1D:3B
            X509v3 Authority Key Identifier: 
                keyid:DA:FB:3E:6E:DA:88:F4:11:7C:6E:A6:33:DB:83:0A:9E:29:6C:E7:88
                DirName:/CN=team137-net
                serial:5F:58:6A:A0:1D:AE:D1:F1:55:22:B5:A3:DC:8D:79:76:9E:55:C0:3D

            X509v3 Extended Key Usage: 
                TLS Web Server Authentication
            X509v3 Key Usage: 
                Digital Signature, Key Encipherment
            X509v3 Subject Alternative Name: 
                DNS:team137-server
    Signature Algorithm: sha256WithRSAEncryption
         5a:31:66:0b:95:f7:84:1d:bd:7d:b5:f7:73:58:e0:34:8a:27:
         d9:45:7d:58:87:ef:0e:ee:7c:51:f3:71:39:d6:c8:d2:3e:0d:
         b8:c5:3b:a8:0a:ec:d9:36:84:7a:98:6a:0d:03:8b:d5:38:ae:
         7c:12:e2:c6:b2:da:00:45:0d:69:5c:75:e8:49:80:8c:bc:06:
         d8:35:6e:d3:9e:45:4c:62:cb:36:ee:3b:a1:99:49:62:66:83:
         79:e7:a0:42:9b:ab:e8:98:26:ae:2c:ea:51:8f:8d:c3:9e:fd:
         44:a1:41:44:d7:1f:0d:27:08:3d:9d:43:00:c4:20:d8:35:ea:
         cf:41:8b:71:b9:54:73:de:06:99:8f:f9:91:16:23:12:51:7b:
         06:47:9b:ca:9c:b2:e7:29:d6:ba:56:9f:d3:66:bf:18:89:43:
         4c:ad:83:64:6b:32:4c:56:ad:03:40:93:51:5b:c8:57:45:b7:
         2d:65:ea:68:37:c7:56:e3:53:44:87:63:01:00:53:07:4d:83:
         66:b2:1c:4b:5a:9c:76:2d:80:e6:e4:1e:c4:23:89:1f:6b:93:
         a9:0b:f7:b7:84:a1:44:6a:79:db:1e:1e:72:b0:1a:24:50:a9:
         84:dc:db:8b:f2:89:e1:2d:74:6c:88:02:cd:73:7f:71:3f:48:
         35:73:a1:b0
-----BEGIN CERTIFICATE-----
MIIDeDCCAmCgAwIBAgIRAPv7pyucowYZmlVQj4LG7E4wDQYJKoZIhvcNAQELBQAw
FjEUMBIGA1UEAwwLdGVhbTEzNy1uZXQwHhcNMjEwOTEyMjM1NzU5WhcNMjQwODI3
MjM1NzU5WjAZMRcwFQYDVQQDDA50ZWFtMTM3LXNlcnZlcjCCASIwDQYJKoZIhvcN
AQEBBQADggEPADCCAQoCggEBALhmDxK0NUxh+Cn6EjouJm9mIsvy/O0b7zmOTXc4
dSVTm0xpyaB5Xh4U6gKN4F/u6kUX3iIzZ1yrjxLVSzIdKMGtTj9sdy7epFNURVIu
ebOZ2eoRV5JfnyDZUEAt4pWv3Hvpk4Pf4EcSqFgWInG2m305o3H5RHBvosUD1kf7
NlIC4crWuq8gqbhGE+/8N4nDEmh3Qti8BhB9KDoMHerPb+5GuO8xZfFNwvW14ZXn
2v/DwpiQofobs2adcMec33yV2QKh9guNJRmhaOtH2fSFHse6f8h0Y5GTJSRapagD
W+akn8ZeMBvg1CCA9jB0GDVzjSxMlgJM77LQ6ZqZY6XFeLUCAwEAAaOBvTCBujAJ
BgNVHRMEAjAAMB0GA1UdDgQWBBTnZP56xt70nHuR4owTNQVDB/sdOzBRBgNVHSME
SjBIgBTa+z5u2oj0EXxupjPbgwqeKWzniKEapBgwFjEUMBIGA1UEAwwLdGVhbTEz
Ny1uZXSCFF9YaqAdrtHxVSK1o9yNeXaeVcA9MBMGA1UdJQQMMAoGCCsGAQUFBwMB
MAsGA1UdDwQEAwIFoDAZBgNVHREEEjAQgg50ZWFtMTM3LXNlcnZlcjANBgkqhkiG
9w0BAQsFAAOCAQEAWjFmC5X3hB29fbX3c1jgNIon2UV9WIfvDu58UfNxOdbI0j4N
uMU7qArs2TaEephqDQOL1TiufBLixrLaAEUNaVx16EmAjLwG2DVu055FTGLLNu47
oZlJYmaDeeegQpur6JgmrizqUY+Nw579RKFBRNcfDScIPZ1DAMQg2DXqz0GLcblU
c94GmY/5kRYjElF7Bkebypyy5ynWulaf02a/GIlDTK2DZGsyTFatA0CTUVvIV0W3
LWXqaDfHVuNTRIdjAQBTB02DZrIcS1qcdi2A5uQexCOJH2uTqQv3t4ShRGp52x4e
crAaJFCphNzbi/KJ4S10bIgCzXN/cT9INXOhsA==
-----END CERTIFICATE-----
