Certificate:
    Data:
        Version: 3 (0x2)
        Serial Number:
            19:3f:7e:a4:3a:22:61:f0:0b:4c:f2:6e:e9:12:f0:17
        Signature Algorithm: sha256WithRSAEncryption
        Issuer: CN=team51-net
        Validity
            Not Before: Sep 12 23:09:17 2021 GMT
            Not After : Aug 27 23:09:17 2024 GMT
        Subject: CN=team51-client
        Subject Public Key Info:
            Public Key Algorithm: rsaEncryption
                RSA Public-Key: (2048 bit)
                Modulus:
                    00:a2:87:23:66:93:0d:e5:69:32:a4:a5:d4:93:e3:
                    db:84:8e:e7:ae:fc:f6:0b:62:dc:9c:06:25:b7:92:
                    72:b9:3b:91:ed:13:43:88:bc:2d:85:a0:3a:5e:21:
                    f0:95:72:bb:b7:09:fd:96:3c:a4:69:10:d0:5c:42:
                    91:f7:59:0b:26:bb:a0:d7:3e:ed:57:e2:96:1d:5a:
                    03:5a:d0:37:68:06:c6:dc:64:71:3f:08:22:56:09:
                    ae:71:7a:0e:6a:12:64:71:21:8b:64:bb:3a:af:ec:
                    cb:cc:70:3f:96:63:7d:e6:e0:7a:9c:ee:53:51:27:
                    c0:57:95:f7:fd:60:c2:81:0f:f5:fc:b5:16:3e:98:
                    12:0d:57:a0:5a:a5:2a:2b:2c:55:14:c3:7d:92:34:
                    f0:39:3c:8e:29:16:47:5d:85:8f:cd:3c:00:6e:19:
                    d7:7c:81:ca:31:9f:96:54:01:47:48:a5:9c:2e:39:
                    76:96:49:78:71:f6:9e:a0:e0:d6:4f:49:ac:5c:81:
                    2d:10:82:5c:dd:cb:58:65:4d:f1:d8:45:4a:7d:c6:
                    32:3f:42:1f:dc:a0:f6:b3:21:cc:9d:6e:65:4f:e6:
                    2c:92:d7:53:30:4f:3c:87:7d:6f:94:d2:b4:9a:a3:
                    58:6b:95:2b:28:e6:88:41:f7:e1:eb:f4:46:86:fc:
                    78:d3
                Exponent: 65537 (0x10001)
        X509v3 extensions:
            X509v3 Basic Constraints: 
                CA:FALSE
            X509v3 Subject Key Identifier: 
                16:E0:D5:20:21:7F:36:4E:E2:1D:FC:8B:F9:2C:B9:67:53:98:38:66
            X509v3 Authority Key Identifier: 
                keyid:C7:D4:B1:B5:2A:D4:40:F5:1F:0F:BF:33:A7:A4:D1:B5:46:17:48:80
                DirName:/CN=team51-net
                serial:37:8F:26:16:81:25:4A:5F:46:6E:5A:B7:6C:CC:D5:EC:A4:31:24:CF

            X509v3 Extended Key Usage: 
                TLS Web Client Authentication
            X509v3 Key Usage: 
                Digital Signature
    Signature Algorithm: sha256WithRSAEncryption
         5d:62:6b:d4:07:90:26:a8:3c:11:b6:6e:24:ab:6a:70:dc:4d:
         f8:65:dc:35:bb:10:81:c4:9d:76:ff:5f:7d:df:ec:0c:88:68:
         fb:04:c2:31:fe:00:f7:56:a2:5b:90:de:e5:10:cc:ac:8f:24:
         54:a2:33:02:9a:70:37:75:6e:fe:31:0a:e6:85:85:89:a3:c6:
         35:e5:db:1e:ee:87:a3:39:9f:05:03:ae:f9:a2:f1:84:bc:22:
         0c:88:db:5c:ee:a1:0e:a5:f6:1f:c1:61:e9:8a:aa:5a:ae:0f:
         63:c2:86:8f:c2:86:01:fb:c4:74:4a:11:46:70:d6:a4:80:5b:
         2c:9d:28:37:0d:e2:9c:13:06:48:1c:1a:22:a1:88:bd:8f:dd:
         cb:a3:17:b2:93:9c:bd:4d:30:24:d4:12:1d:f8:ef:4e:8e:91:
         df:4d:3a:17:1e:7f:5e:10:c5:59:4f:32:eb:f3:0a:96:a1:d4:
         93:c9:d4:6f:0c:5f:f0:29:6d:5b:59:98:60:68:2f:b0:10:d5:
         25:1c:9b:41:d2:38:42:ad:8b:a8:62:cd:4c:f6:e1:3e:ad:a5:
         f1:50:68:36:d4:98:6c:77:3c:f8:4e:8c:db:35:74:b1:11:9a:
         e2:45:f0:cc:47:a2:2d:7a:cb:65:a2:47:df:a6:66:6f:6f:af:
         8d:b1:12:da
-----BEGIN CERTIFICATE-----
MIIDWTCCAkGgAwIBAgIQGT9+pDoiYfALTPJu6RLwFzANBgkqhkiG9w0BAQsFADAV
MRMwEQYDVQQDDAp0ZWFtNTEtbmV0MB4XDTIxMDkxMjIzMDkxN1oXDTI0MDgyNzIz
MDkxN1owGDEWMBQGA1UEAwwNdGVhbTUxLWNsaWVudDCCASIwDQYJKoZIhvcNAQEB
BQADggEPADCCAQoCggEBAKKHI2aTDeVpMqSl1JPj24SO56789gti3JwGJbeScrk7
ke0TQ4i8LYWgOl4h8JVyu7cJ/ZY8pGkQ0FxCkfdZCya7oNc+7Vfilh1aA1rQN2gG
xtxkcT8IIlYJrnF6DmoSZHEhi2S7Oq/sy8xwP5ZjfebgepzuU1EnwFeV9/1gwoEP
9fy1Fj6YEg1XoFqlKissVRTDfZI08Dk8jikWR12Fj808AG4Z13yByjGfllQBR0il
nC45dpZJeHH2nqDg1k9JrFyBLRCCXN3LWGVN8dhFSn3GMj9CH9yg9rMhzJ1uZU/m
LJLXUzBPPId9b5TStJqjWGuVKyjmiEH34ev0Rob8eNMCAwEAAaOBoTCBnjAJBgNV
HRMEAjAAMB0GA1UdDgQWBBQW4NUgIX82TuId/Iv5LLlnU5g4ZjBQBgNVHSMESTBH
gBTH1LG1KtRA9R8PvzOnpNG1RhdIgKEZpBcwFTETMBEGA1UEAwwKdGVhbTUxLW5l
dIIUN48mFoElSl9Gblq3bMzV7KQxJM8wEwYDVR0lBAwwCgYIKwYBBQUHAwIwCwYD
VR0PBAQDAgeAMA0GCSqGSIb3DQEBCwUAA4IBAQBdYmvUB5AmqDwRtm4kq2pw3E34
Zdw1uxCBxJ12/1993+wMiGj7BMIx/gD3VqJbkN7lEMysjyRUojMCmnA3dW7+MQrm
hYWJo8Y15dse7oejOZ8FA675ovGEvCIMiNtc7qEOpfYfwWHpiqparg9jwoaPwoYB
+8R0ShFGcNakgFssnSg3DeKcEwZIHBoioYi9j93Loxeyk5y9TTAk1BId+O9OjpHf
TToXHn9eEMVZTzLr8wqWodSTydRvDF/wKW1bWZhgaC+wENUlHJtB0jhCrYuoYs1M
9uE+raXxUGg21Jhsdzz4TozbNXSxEZriRfDMR6ItestlokffpmZvb6+NsRLa
-----END CERTIFICATE-----
