Certificate:
    Data:
        Version: 3 (0x2)
        Serial Number:
            db:9f:54:d3:29:c4:85:c3:35:35:2a:57:db:dd:c0:ed
        Signature Algorithm: sha256WithRSAEncryption
        Issuer: CN=team447-net
        Validity
            Not Before: Sep 13 02:40:21 2021 GMT
            Not After : Aug 28 02:40:21 2024 GMT
        Subject: CN=team447-server
        Subject Public Key Info:
            Public Key Algorithm: rsaEncryption
                RSA Public-Key: (2048 bit)
                Modulus:
                    00:c7:77:ba:29:ca:7b:c7:32:f2:61:58:1b:af:f2:
                    ed:27:d6:e2:a5:82:64:93:0c:0f:94:05:8e:f0:75:
                    93:93:7b:2d:73:6c:49:5a:66:ca:2d:85:7a:48:df:
                    8b:01:53:49:c0:ed:86:40:b0:5d:fe:4d:6d:bc:96:
                    b8:d4:75:df:41:b4:e9:4f:73:15:b3:a8:e8:2f:38:
                    0f:6f:5d:d9:81:0e:53:77:30:5e:06:51:b2:5e:b6:
                    25:d4:c2:5f:67:0d:06:da:07:99:dc:51:11:0d:d7:
                    65:c5:2c:18:05:c8:88:42:7d:23:f9:e2:5d:9a:61:
                    98:a8:b6:8f:c6:8e:d3:60:06:3e:52:11:78:67:80:
                    31:d2:24:ca:aa:60:c6:5b:92:77:9e:fd:cf:b1:51:
                    e9:e4:86:29:7d:4a:9c:08:99:10:bf:77:b0:c3:e8:
                    84:75:21:87:f7:9b:33:52:5c:2e:b8:14:61:30:11:
                    42:20:49:80:b6:cf:11:43:3c:a6:dc:57:06:5a:0f:
                    92:57:8d:3c:a4:42:6a:7d:60:e6:1f:06:06:41:82:
                    c7:8e:d0:c7:6e:64:67:8e:cc:2c:57:b4:8a:e5:c8:
                    17:a9:a8:7b:f9:3e:5e:41:f6:38:27:ab:98:df:ce:
                    cb:6e:2d:05:31:24:4a:a4:26:11:50:79:59:46:12:
                    82:85
                Exponent: 65537 (0x10001)
        X509v3 extensions:
            X509v3 Basic Constraints: 
                CA:FALSE
            X509v3 Subject Key Identifier: 
                F2:A5:36:4F:07:CF:8C:57:DA:6F:81:9D:C2:8F:54:FF:C7:2F:A4:9C
            X509v3 Authority Key Identifier: 
                keyid:42:CA:74:47:16:BD:58:E5:0B:3A:F1:66:6B:2B:DB:85:B1:1F:20:E6
                DirName:/CN=team447-net
                serial:2D:C3:D0:02:C2:CE:FC:DB:96:39:3F:B5:73:83:C0:40:B3:A1:B1:CF

            X509v3 Extended Key Usage: 
                TLS Web Server Authentication
            X509v3 Key Usage: 
                Digital Signature, Key Encipherment
            X509v3 Subject Alternative Name: 
                DNS:team447-server
    Signature Algorithm: sha256WithRSAEncryption
         a5:d1:b4:d1:23:94:70:98:f2:4f:fc:e5:47:c2:f5:9f:5c:3a:
         a2:6c:65:4d:52:2c:8b:7d:76:84:fd:be:f5:d3:ac:c9:61:26:
         04:8e:87:ca:18:bd:1f:b0:93:c2:16:27:3b:6e:c1:f4:7a:ff:
         f0:e1:46:22:c6:3a:c0:1f:78:cb:4a:cc:48:ed:35:71:57:61:
         36:6f:21:d9:a3:1a:0f:12:20:75:f6:5b:0c:ee:f0:20:28:17:
         68:4a:59:b8:d4:ec:7b:cf:c3:73:23:0a:87:0b:45:9b:54:ca:
         3f:26:3a:ff:63:9e:e3:2f:77:ca:0a:7d:8f:dd:9c:11:3e:99:
         5f:dc:77:31:da:46:9e:1c:d5:ac:ee:c9:dd:f2:e3:6f:3e:05:
         63:ca:53:f3:a9:30:33:21:92:47:d9:32:ec:71:f3:e4:1b:1e:
         bf:65:b2:ea:51:ea:78:6e:c4:7c:14:c9:69:10:2c:90:1c:22:
         c4:89:4f:a2:1b:4f:c9:e7:a8:e9:4f:5c:b6:e6:b4:29:cd:bd:
         37:ae:74:98:1f:71:0f:1d:e0:90:95:ab:9a:20:e3:6b:ad:e0:
         e5:e4:fa:4d:2c:54:1f:ec:47:cc:63:ec:1a:69:6b:38:e8:a4:
         79:e5:ad:02:01:18:c1:6e:0e:0e:2f:a9:f2:b1:4a:a6:49:c7:
         f0:2a:db:ec
-----BEGIN CERTIFICATE-----
MIIDeDCCAmCgAwIBAgIRANufVNMpxIXDNTUqV9vdwO0wDQYJKoZIhvcNAQELBQAw
FjEUMBIGA1UEAwwLdGVhbTQ0Ny1uZXQwHhcNMjEwOTEzMDI0MDIxWhcNMjQwODI4
MDI0MDIxWjAZMRcwFQYDVQQDDA50ZWFtNDQ3LXNlcnZlcjCCASIwDQYJKoZIhvcN
AQEBBQADggEPADCCAQoCggEBAMd3uinKe8cy8mFYG6/y7SfW4qWCZJMMD5QFjvB1
k5N7LXNsSVpmyi2FekjfiwFTScDthkCwXf5NbbyWuNR130G06U9zFbOo6C84D29d
2YEOU3cwXgZRsl62JdTCX2cNBtoHmdxREQ3XZcUsGAXIiEJ9I/niXZphmKi2j8aO
02AGPlIReGeAMdIkyqpgxluSd579z7FR6eSGKX1KnAiZEL93sMPohHUhh/ebM1Jc
LrgUYTARQiBJgLbPEUM8ptxXBloPkleNPKRCan1g5h8GBkGCx47Qx25kZ47MLFe0
iuXIF6moe/k+XkH2OCermN/Oy24tBTEkSqQmEVB5WUYSgoUCAwEAAaOBvTCBujAJ
BgNVHRMEAjAAMB0GA1UdDgQWBBTypTZPB8+MV9pvgZ3Cj1T/xy+knDBRBgNVHSME
SjBIgBRCynRHFr1Y5Qs68WZrK9uFsR8g5qEapBgwFjEUMBIGA1UEAwwLdGVhbTQ0
Ny1uZXSCFC3D0ALCzvzbljk/tXODwECzobHPMBMGA1UdJQQMMAoGCCsGAQUFBwMB
MAsGA1UdDwQEAwIFoDAZBgNVHREEEjAQgg50ZWFtNDQ3LXNlcnZlcjANBgkqhkiG
9w0BAQsFAAOCAQEApdG00SOUcJjyT/zlR8L1n1w6omxlTVIsi312hP2+9dOsyWEm
BI6Hyhi9H7CTwhYnO27B9Hr/8OFGIsY6wB94y0rMSO01cVdhNm8h2aMaDxIgdfZb
DO7wICgXaEpZuNTse8/DcyMKhwtFm1TKPyY6/2Oe4y93ygp9j92cET6ZX9x3MdpG
nhzVrO7J3fLjbz4FY8pT86kwMyGSR9ky7HHz5Bsev2Wy6lHqeG7EfBTJaRAskBwi
xIlPohtPyeeo6U9ctua0Kc29N650mB9xDx3gkJWrmiDja63g5eT6TSxUH+xHzGPs
GmlrOOikeeWtAgEYwW4ODi+p8rFKpknH8Crb7A==
-----END CERTIFICATE-----
