Certificate:
    Data:
        Version: 3 (0x2)
        Serial Number:
            16:72:05:15:f4:8a:00:83:89:8f:4a:b3:98:05:de:74
        Signature Algorithm: sha256WithRSAEncryption
        Issuer: CN=team642-net
        Validity
            Not Before: Sep 13 04:44:00 2021 GMT
            Not After : Aug 28 04:44:00 2024 GMT
        Subject: CN=team642-client
        Subject Public Key Info:
            Public Key Algorithm: rsaEncryption
                RSA Public-Key: (2048 bit)
                Modulus:
                    00:b3:9c:8e:ba:53:50:66:48:f2:0a:b3:f8:fd:2f:
                    93:23:52:49:cf:8f:3c:87:d7:2e:6c:12:98:d1:eb:
                    c6:bb:37:e2:8a:d2:59:b0:d0:fe:f7:2c:b9:22:8f:
                    1e:64:e4:77:ce:36:06:78:0a:58:a8:3d:33:38:52:
                    68:92:d9:92:54:9f:3f:0b:18:0d:a8:de:25:7e:e5:
                    53:7a:f9:2c:7f:8e:76:ba:8a:8f:ce:12:2c:5d:d3:
                    f1:ec:63:dc:bf:81:25:32:7b:02:73:20:b8:12:ac:
                    e5:44:8b:9a:5b:dc:ff:54:10:f1:e9:5d:d8:56:ca:
                    22:a2:af:33:e2:26:38:1e:19:41:cc:f4:50:c4:b7:
                    ad:eb:23:68:52:bf:e7:19:70:98:2a:bb:aa:3f:e9:
                    f6:35:ad:20:89:3f:42:e4:e7:44:6a:50:64:14:02:
                    db:c1:88:d9:a2:e5:98:a6:3c:c7:b4:94:cd:34:e5:
                    8a:61:52:f9:85:39:5f:1e:25:0c:c7:c9:fe:0f:26:
                    cc:94:89:f6:9f:c5:43:ad:2d:e2:08:fb:88:47:b0:
                    68:22:d4:4a:e5:4a:0c:0d:1f:60:42:3f:7b:0b:54:
                    33:3c:ff:9a:f8:94:6d:59:2b:74:26:0b:c2:52:bd:
                    8f:39:f7:11:fa:33:08:04:7a:3b:6b:d1:2a:c5:08:
                    5d:f7
                Exponent: 65537 (0x10001)
        X509v3 extensions:
            X509v3 Basic Constraints: 
                CA:FALSE
            X509v3 Subject Key Identifier: 
                4F:00:B9:C5:B9:47:E2:5E:FA:14:44:64:4D:A1:54:41:A4:49:D9:F2
            X509v3 Authority Key Identifier: 
                keyid:96:78:75:C6:40:6A:FA:D0:05:86:22:FD:E5:A2:A6:65:2E:79:D3:00
                DirName:/CN=team642-net
                serial:02:FC:14:AA:EC:1F:38:3B:3C:C0:3E:81:D9:98:5A:B3:9D:E8:01:12

            X509v3 Extended Key Usage: 
                TLS Web Client Authentication
            X509v3 Key Usage: 
                Digital Signature
    Signature Algorithm: sha256WithRSAEncryption
         49:36:4b:ac:ba:93:5b:58:60:6a:93:39:65:cf:cc:de:5b:98:
         38:22:9d:a6:92:1d:18:c0:6f:36:27:bb:f8:f7:28:e4:43:ef:
         20:55:d0:55:0f:fc:25:78:d8:cb:e7:4b:f8:e9:ae:f8:c3:1d:
         84:f2:e0:3d:42:30:96:6f:34:8b:d9:a9:1e:a9:9d:3e:ed:31:
         fa:db:7b:79:72:78:fe:0a:75:2f:17:26:a8:2b:22:6b:65:1a:
         1b:cd:7c:fa:b1:ef:2f:9e:56:78:42:a3:64:91:d4:e8:37:09:
         1a:b3:ba:cf:ef:3e:20:a5:53:07:07:14:42:d9:a5:74:51:a1:
         72:2a:95:1a:0a:4a:9b:c4:31:98:d2:b8:d3:49:ae:5d:fa:12:
         5a:8b:f3:ce:d1:17:c4:36:32:50:2d:9e:e4:22:5f:d7:4c:8b:
         e3:b6:13:6f:b9:26:12:86:54:fa:2c:61:89:ea:b6:04:63:d1:
         81:a5:3b:5e:db:5a:20:46:22:06:ea:8c:18:d0:e2:3b:09:74:
         97:90:04:72:bf:d0:1f:df:53:8d:09:de:02:50:36:22:8e:51:
         61:29:b0:ea:9b:80:dc:94:0d:eb:c5:9f:a7:60:1b:fc:11:42:
         2a:f5:59:15:04:cf:c5:68:42:63:a6:0e:9b:bd:f1:80:a6:f5:
         60:34:28:37
-----BEGIN CERTIFICATE-----
MIIDXDCCAkSgAwIBAgIQFnIFFfSKAIOJj0qzmAXedDANBgkqhkiG9w0BAQsFADAW
MRQwEgYDVQQDDAt0ZWFtNjQyLW5ldDAeFw0yMTA5MTMwNDQ0MDBaFw0yNDA4Mjgw
NDQ0MDBaMBkxFzAVBgNVBAMMDnRlYW02NDItY2xpZW50MIIBIjANBgkqhkiG9w0B
AQEFAAOCAQ8AMIIBCgKCAQEAs5yOulNQZkjyCrP4/S+TI1JJz488h9cubBKY0evG
uzfiitJZsND+9yy5Io8eZOR3zjYGeApYqD0zOFJoktmSVJ8/CxgNqN4lfuVTevks
f452uoqPzhIsXdPx7GPcv4ElMnsCcyC4EqzlRIuaW9z/VBDx6V3YVsoioq8z4iY4
HhlBzPRQxLet6yNoUr/nGXCYKruqP+n2Na0giT9C5OdEalBkFALbwYjZouWYpjzH
tJTNNOWKYVL5hTlfHiUMx8n+DybMlIn2n8VDrS3iCPuIR7BoItRK5UoMDR9gQj97
C1QzPP+a+JRtWSt0JgvCUr2POfcR+jMIBHo7a9EqxQhd9wIDAQABo4GiMIGfMAkG
A1UdEwQCMAAwHQYDVR0OBBYEFE8AucW5R+Je+hREZE2hVEGkSdnyMFEGA1UdIwRK
MEiAFJZ4dcZAavrQBYYi/eWipmUuedMAoRqkGDAWMRQwEgYDVQQDDAt0ZWFtNjQy
LW5ldIIUAvwUquwfODs8wD6B2Zhas53oARIwEwYDVR0lBAwwCgYIKwYBBQUHAwIw
CwYDVR0PBAQDAgeAMA0GCSqGSIb3DQEBCwUAA4IBAQBJNkusupNbWGBqkzllz8ze
W5g4Ip2mkh0YwG82J7v49yjkQ+8gVdBVD/wleNjL50v46a74wx2E8uA9QjCWbzSL
2akeqZ0+7TH623t5cnj+CnUvFyaoKyJrZRobzXz6se8vnlZ4QqNkkdToNwkas7rP
7z4gpVMHBxRC2aV0UaFyKpUaCkqbxDGY0rjTSa5d+hJai/PO0RfENjJQLZ7kIl/X
TIvjthNvuSYShlT6LGGJ6rYEY9GBpTte21ogRiIG6owY0OI7CXSXkARyv9Af31ON
Cd4CUDYijlFhKbDqm4DclA3rxZ+nYBv8EUIq9VkVBM/FaEJjpg6bvfGApvVgNCg3
-----END CERTIFICATE-----
