Certificate:
    Data:
        Version: 3 (0x2)
        Serial Number:
            63:db:95:a0:de:ae:88:75:c7:3f:74:4b:da:21:4a:a9
        Signature Algorithm: sha256WithRSAEncryption
        Issuer: CN=team471-net
        Validity
            Not Before: Sep 13 02:52:32 2021 GMT
            Not After : Aug 28 02:52:32 2024 GMT
        Subject: CN=team471-server
        Subject Public Key Info:
            Public Key Algorithm: rsaEncryption
                RSA Public-Key: (2048 bit)
                Modulus:
                    00:bb:37:d8:24:8d:77:bb:22:93:06:a9:8d:55:16:
                    05:f2:5a:4c:f9:17:a9:37:d0:fd:9d:42:68:80:1b:
                    4f:92:9d:e3:f2:7d:69:5e:e6:3b:44:c0:19:f2:c1:
                    41:d4:c9:65:8b:71:4b:0f:43:36:cb:d6:e6:6b:2b:
                    71:16:c4:f8:ce:ed:14:5e:bd:31:e9:5c:6a:54:f0:
                    13:92:9e:e5:38:16:85:6c:be:34:59:c1:56:3a:ba:
                    84:df:63:24:69:d8:91:22:a8:6c:2e:a2:99:e6:f4:
                    84:c9:b4:46:b1:34:3f:96:46:24:62:ec:85:d1:73:
                    34:13:f4:c9:f7:64:da:a9:b7:91:34:06:39:96:d6:
                    43:78:b6:16:6c:7e:67:7a:50:e4:be:4f:6f:f9:f6:
                    e7:7a:24:04:c1:22:61:c6:ad:16:bd:96:f9:b6:ff:
                    72:c9:2c:bb:be:56:7f:05:f3:ec:49:e3:5b:68:8e:
                    62:20:aa:bb:27:0d:ea:c2:0d:92:d2:c2:66:7f:46:
                    a2:07:8a:ca:fc:43:78:05:76:b3:30:ad:c7:99:74:
                    9a:4b:f0:83:98:32:54:47:08:54:55:1e:75:4a:57:
                    00:c5:a0:b3:48:bf:4d:2a:dd:6b:ea:64:84:2a:53:
                    72:fd:15:7f:28:b6:f6:35:d5:16:d5:f1:87:d8:d7:
                    76:95
                Exponent: 65537 (0x10001)
        X509v3 extensions:
            X509v3 Basic Constraints: 
                CA:FALSE
            X509v3 Subject Key Identifier: 
                50:99:01:E5:94:E3:60:C3:2E:07:8B:59:C2:64:8A:7B:73:80:D1:39
            X509v3 Authority Key Identifier: 
                keyid:0C:69:02:F7:BC:7A:12:5B:F8:98:D5:34:0A:9B:E4:55:4E:84:7C:4B
                DirName:/CN=team471-net
                serial:64:51:7C:A3:5D:C8:DD:F0:12:8C:6C:DF:7F:3D:FC:F4:FA:A2:94:88

            X509v3 Extended Key Usage: 
                TLS Web Server Authentication
            X509v3 Key Usage: 
                Digital Signature, Key Encipherment
            X509v3 Subject Alternative Name: 
                DNS:team471-server
    Signature Algorithm: sha256WithRSAEncryption
         29:25:af:08:b2:4b:cf:1e:6e:6d:9f:5b:7c:f4:3e:19:47:fc:
         ee:a2:7d:83:b9:03:e2:58:d2:32:56:57:60:ee:b5:b6:96:56:
         f8:bd:26:42:d0:c4:d5:74:f8:ad:94:61:c2:0a:84:e8:99:f7:
         f4:94:81:28:73:f2:9b:2d:60:c9:99:0c:1c:6b:8d:6e:75:2c:
         02:c2:b3:94:c2:32:4c:96:28:a1:86:aa:72:df:4f:0c:ef:e4:
         1c:a0:f4:bb:b3:51:d3:c2:cd:5a:fb:5c:45:0a:76:f1:53:b8:
         20:6d:1c:6a:2e:84:81:34:fc:f0:8e:dc:1c:49:45:d5:1a:4b:
         23:6d:41:ce:91:6f:05:11:47:0f:c0:11:fb:73:c5:12:5f:8d:
         05:89:1b:1b:68:51:c2:ba:21:49:61:f8:62:49:59:00:3a:8b:
         04:41:e5:15:d2:50:1a:f1:7c:50:44:ae:14:34:bc:2e:c9:7d:
         78:eb:56:c8:3c:99:b3:3e:f5:6f:d4:05:3d:09:10:b9:6f:0d:
         55:01:f5:76:6b:27:a7:f4:88:57:34:e7:d1:c3:0f:ce:50:a7:
         b9:f1:98:53:c1:90:9a:a2:ae:87:8f:a8:42:e7:fb:0d:e0:fa:
         4a:36:b6:46:89:f5:88:b6:2a:e9:e8:72:fc:70:24:e8:99:7c:
         c7:35:80:bc
-----BEGIN CERTIFICATE-----
MIIDdzCCAl+gAwIBAgIQY9uVoN6uiHXHP3RL2iFKqTANBgkqhkiG9w0BAQsFADAW
MRQwEgYDVQQDDAt0ZWFtNDcxLW5ldDAeFw0yMTA5MTMwMjUyMzJaFw0yNDA4Mjgw
MjUyMzJaMBkxFzAVBgNVBAMMDnRlYW00NzEtc2VydmVyMIIBIjANBgkqhkiG9w0B
AQEFAAOCAQ8AMIIBCgKCAQEAuzfYJI13uyKTBqmNVRYF8lpM+RepN9D9nUJogBtP
kp3j8n1pXuY7RMAZ8sFB1Mlli3FLD0M2y9bmaytxFsT4zu0UXr0x6VxqVPATkp7l
OBaFbL40WcFWOrqE32MkadiRIqhsLqKZ5vSEybRGsTQ/lkYkYuyF0XM0E/TJ92Ta
qbeRNAY5ltZDeLYWbH5nelDkvk9v+fbneiQEwSJhxq0WvZb5tv9yySy7vlZ/BfPs
SeNbaI5iIKq7Jw3qwg2S0sJmf0aiB4rK/EN4BXazMK3HmXSaS/CDmDJURwhUVR51
SlcAxaCzSL9NKt1r6mSEKlNy/RV/KLb2NdUW1fGH2Nd2lQIDAQABo4G9MIG6MAkG
A1UdEwQCMAAwHQYDVR0OBBYEFFCZAeWU42DDLgeLWcJkintzgNE5MFEGA1UdIwRK
MEiAFAxpAve8ehJb+JjVNAqb5FVOhHxLoRqkGDAWMRQwEgYDVQQDDAt0ZWFtNDcx
LW5ldIIUZFF8o13I3fASjGzffz389PqilIgwEwYDVR0lBAwwCgYIKwYBBQUHAwEw
CwYDVR0PBAQDAgWgMBkGA1UdEQQSMBCCDnRlYW00NzEtc2VydmVyMA0GCSqGSIb3
DQEBCwUAA4IBAQApJa8IskvPHm5tn1t89D4ZR/zuon2DuQPiWNIyVldg7rW2llb4
vSZC0MTVdPitlGHCCoTomff0lIEoc/KbLWDJmQwca41udSwCwrOUwjJMliihhqpy
308M7+QcoPS7s1HTws1a+1xFCnbxU7ggbRxqLoSBNPzwjtwcSUXVGksjbUHOkW8F
EUcPwBH7c8USX40FiRsbaFHCuiFJYfhiSVkAOosEQeUV0lAa8XxQRK4UNLwuyX14
61bIPJmzPvVv1AU9CRC5bw1VAfV2ayen9IhXNOfRww/OUKe58ZhTwZCaoq6Hj6hC
5/sN4PpKNrZGifWItirp6HL8cCTomXzHNYC8
-----END CERTIFICATE-----
