Certificate:
    Data:
        Version: 3 (0x2)
        Serial Number:
            34:66:26:d0:c2:77:eb:1e:59:e4:b1:12:da:ef:f5:e5
        Signature Algorithm: sha256WithRSAEncryption
        Issuer: CN=team657-net
        Validity
            Not Before: Sep 13 04:53:09 2021 GMT
            Not After : Aug 28 04:53:09 2024 GMT
        Subject: CN=team657-client
        Subject Public Key Info:
            Public Key Algorithm: rsaEncryption
                RSA Public-Key: (2048 bit)
                Modulus:
                    00:c6:26:31:6d:4e:dd:af:c6:8a:43:97:68:f3:ba:
                    7b:d6:92:d0:25:45:96:8a:6e:68:a3:13:8e:b3:5e:
                    4a:59:90:42:90:34:af:f4:f6:81:83:aa:0d:49:36:
                    bc:40:a4:4a:ac:da:1e:d8:4b:8c:63:6f:9b:30:70:
                    d7:33:0e:14:f4:fe:f1:86:c9:eb:31:f4:c1:bc:92:
                    13:27:27:cf:47:ac:0a:65:c7:66:52:41:ad:74:ef:
                    71:cd:8e:c3:b2:71:e7:d9:a3:ac:3d:06:4c:fc:d2:
                    af:8b:fb:66:7e:e6:9c:29:33:a0:48:9f:4c:80:a0:
                    9d:10:30:f9:19:5e:db:48:05:06:b3:36:6a:ce:45:
                    03:3b:dc:e8:80:7a:f3:21:ee:fe:58:1d:a5:83:2c:
                    88:24:76:75:64:08:56:19:7f:40:61:1a:45:d8:98:
                    b1:9c:10:46:0c:94:8b:4a:90:80:23:3a:03:eb:8f:
                    83:c1:8a:25:6e:91:26:0f:e0:71:19:95:df:88:17:
                    de:83:2e:2b:6a:9a:4c:ef:1d:94:91:0d:8d:88:d4:
                    0d:e6:73:22:1c:a6:aa:c3:9f:e8:c2:61:e7:6c:dc:
                    dc:86:b6:93:aa:82:09:f9:18:02:41:b5:f3:0f:e7:
                    44:b2:ff:98:8d:85:c7:db:78:ea:cb:76:51:ad:a5:
                    14:73
                Exponent: 65537 (0x10001)
        X509v3 extensions:
            X509v3 Basic Constraints: 
                CA:FALSE
            X509v3 Subject Key Identifier: 
                AA:40:BC:5A:D6:95:66:08:85:7F:CC:36:0A:D4:77:41:01:98:71:6E
            X509v3 Authority Key Identifier: 
                keyid:CB:FD:D9:87:CF:9E:A1:90:28:CF:66:1A:5E:56:4B:00:66:46:B5:4F
                DirName:/CN=team657-net
                serial:09:3F:62:C6:28:0A:72:F0:0C:4C:0F:4C:42:0D:99:19:23:6C:6C:A7

            X509v3 Extended Key Usage: 
                TLS Web Client Authentication
            X509v3 Key Usage: 
                Digital Signature
    Signature Algorithm: sha256WithRSAEncryption
         4c:2f:77:f5:c8:31:35:dd:b3:ff:44:98:2d:d5:bb:f2:78:bc:
         e9:d3:45:70:b8:03:92:3a:ac:8d:3b:fd:21:16:92:cf:5f:c6:
         fb:2d:61:d5:87:f5:8c:41:86:c0:5f:47:4d:db:33:25:7e:00:
         50:d9:a6:6b:ec:5a:a8:a2:73:0b:44:de:44:05:93:e4:46:be:
         93:22:fe:f5:f8:7f:6a:2f:48:c1:cb:49:c3:69:37:30:c7:d1:
         84:c5:20:60:49:b8:00:83:0d:c0:c6:a6:b8:84:ff:0e:54:2d:
         d2:fb:0b:27:3d:de:48:bf:9b:2a:c3:5d:84:ab:03:8b:e8:a5:
         1a:66:92:03:b8:20:f9:49:86:1d:b4:70:52:41:9c:28:b9:44:
         7c:be:4e:48:70:7a:f3:96:38:36:17:b4:4c:7c:70:2b:97:59:
         c2:ea:e3:50:51:3f:be:0c:26:7c:55:a0:a0:50:4f:32:85:d8:
         4c:58:82:c4:5b:34:16:28:70:10:8d:0d:9f:82:e6:e6:ec:44:
         36:d4:64:a4:90:4f:88:ad:a4:2c:20:89:85:35:7d:4a:61:0c:
         56:e3:7b:39:5a:18:14:3f:6d:09:f7:9f:60:c9:9d:3b:6c:ff:
         02:1d:3f:45:7d:a4:85:38:cd:e1:7e:1b:6f:a9:91:ac:19:62:
         93:d1:e6:f9
-----BEGIN CERTIFICATE-----
MIIDXDCCAkSgAwIBAgIQNGYm0MJ36x5Z5LES2u/15TANBgkqhkiG9w0BAQsFADAW
MRQwEgYDVQQDDAt0ZWFtNjU3LW5ldDAeFw0yMTA5MTMwNDUzMDlaFw0yNDA4Mjgw
NDUzMDlaMBkxFzAVBgNVBAMMDnRlYW02NTctY2xpZW50MIIBIjANBgkqhkiG9w0B
AQEFAAOCAQ8AMIIBCgKCAQEAxiYxbU7dr8aKQ5do87p71pLQJUWWim5ooxOOs15K
WZBCkDSv9PaBg6oNSTa8QKRKrNoe2EuMY2+bMHDXMw4U9P7xhsnrMfTBvJITJyfP
R6wKZcdmUkGtdO9xzY7DsnHn2aOsPQZM/NKvi/tmfuacKTOgSJ9MgKCdEDD5GV7b
SAUGszZqzkUDO9zogHrzIe7+WB2lgyyIJHZ1ZAhWGX9AYRpF2JixnBBGDJSLSpCA
IzoD64+DwYolbpEmD+BxGZXfiBfegy4rappM7x2UkQ2NiNQN5nMiHKaqw5/owmHn
bNzchraTqoIJ+RgCQbXzD+dEsv+YjYXH23jqy3ZRraUUcwIDAQABo4GiMIGfMAkG
A1UdEwQCMAAwHQYDVR0OBBYEFKpAvFrWlWYIhX/MNgrUd0EBmHFuMFEGA1UdIwRK
MEiAFMv92YfPnqGQKM9mGl5WSwBmRrVPoRqkGDAWMRQwEgYDVQQDDAt0ZWFtNjU3
LW5ldIIUCT9ixigKcvAMTA9MQg2ZGSNsbKcwEwYDVR0lBAwwCgYIKwYBBQUHAwIw
CwYDVR0PBAQDAgeAMA0GCSqGSIb3DQEBCwUAA4IBAQBML3f1yDE13bP/RJgt1bvy
eLzp00VwuAOSOqyNO/0hFpLPX8b7LWHVh/WMQYbAX0dN2zMlfgBQ2aZr7FqoonML
RN5EBZPkRr6TIv71+H9qL0jBy0nDaTcwx9GExSBgSbgAgw3Axqa4hP8OVC3S+wsn
Pd5Iv5sqw12EqwOL6KUaZpIDuCD5SYYdtHBSQZwouUR8vk5IcHrzljg2F7RMfHAr
l1nC6uNQUT++DCZ8VaCgUE8yhdhMWILEWzQWKHAQjQ2fgubm7EQ21GSkkE+IraQs
IImFNX1KYQxW43s5WhgUP20J959gyZ07bP8CHT9FfaSFOM3hfhtvqZGsGWKT0eb5
-----END CERTIFICATE-----
