Certificate:
    Data:
        Version: 3 (0x2)
        Serial Number:
            9b:aa:9c:12:ce:2c:1c:b5:c6:6a:07:79:09:45:6c:b6
        Signature Algorithm: sha256WithRSAEncryption
        Issuer: CN=team622-net
        Validity
            Not Before: Sep 13 04:10:52 2021 GMT
            Not After : Aug 28 04:10:52 2024 GMT
        Subject: CN=team622-client
        Subject Public Key Info:
            Public Key Algorithm: rsaEncryption
                RSA Public-Key: (2048 bit)
                Modulus:
                    00:d2:49:55:cd:02:c1:db:d3:e3:88:de:6e:e1:d3:
                    76:d8:5f:18:cf:73:8e:28:ea:fa:b3:7f:80:42:a9:
                    e2:ce:4b:f5:a4:60:5e:ec:82:3a:b6:64:ba:6a:72:
                    cd:85:2b:b0:6e:7d:e2:50:de:3e:1d:7e:6a:34:c4:
                    72:6b:5c:a5:45:ac:79:15:18:3f:ea:b0:24:c7:e1:
                    e6:7a:92:66:aa:1b:1a:d2:e0:60:bd:a6:99:3b:61:
                    36:d6:40:bd:81:0e:53:ad:29:cb:a8:6f:c7:89:eb:
                    c6:2a:8d:ea:4f:db:89:ce:cc:2c:dd:cf:ad:6f:cb:
                    f7:0f:3b:42:a0:84:8c:a5:7e:b9:74:71:66:94:71:
                    c5:94:af:c8:c0:37:92:fc:9f:4a:fb:90:fa:74:6e:
                    1b:62:90:3a:9f:a0:fd:36:cb:88:d0:d6:e6:c3:2f:
                    cf:07:c7:3d:cc:c6:c1:16:6b:6a:95:14:4f:cf:7a:
                    cf:d5:74:bc:38:6a:06:e9:25:74:f2:90:c3:b9:a3:
                    49:6e:6a:0d:13:35:70:35:a9:23:23:c5:7b:dd:6e:
                    76:d5:af:42:c4:a4:ea:6f:25:45:e9:98:2c:40:a4:
                    f6:15:cc:a7:48:d2:d5:9c:b6:9b:46:24:58:b6:c8:
                    b2:99:2d:a4:00:92:2e:a3:a5:d6:1b:fc:95:8f:aa:
                    97:b5
                Exponent: 65537 (0x10001)
        X509v3 extensions:
            X509v3 Basic Constraints: 
                CA:FALSE
            X509v3 Subject Key Identifier: 
                16:DE:75:37:C6:5E:E4:4A:4E:90:B2:3E:D8:25:38:A2:4D:EA:3C:DF
            X509v3 Authority Key Identifier: 
                keyid:11:6C:40:DB:63:9A:3B:13:05:59:F5:20:42:B2:65:B0:80:1C:67:E4
                DirName:/CN=team622-net
                serial:3A:79:A2:7B:2F:49:4A:7F:A8:2A:15:D3:2E:36:A2:D8:9D:4A:45:C8

            X509v3 Extended Key Usage: 
                TLS Web Client Authentication
            X509v3 Key Usage: 
                Digital Signature
    Signature Algorithm: sha256WithRSAEncryption
         90:d3:e5:c6:4b:db:e3:91:68:a8:ec:50:32:05:a4:b4:c6:0c:
         d5:7b:a5:df:6f:6b:54:7e:de:91:0c:10:5e:ee:3b:b8:d9:eb:
         c0:bb:27:0f:01:53:98:1d:6b:28:2a:63:39:e2:66:5d:db:78:
         7b:d6:23:23:d1:87:29:7e:78:4e:f0:ac:f8:2b:a8:6d:cc:a6:
         f5:d7:5b:c2:07:41:60:37:24:3c:b7:b3:c6:52:8b:89:d0:4c:
         7c:e0:ba:f1:00:42:38:b0:16:52:53:43:fa:e3:b3:de:b0:63:
         37:a9:c5:51:25:38:36:8d:a1:ba:94:cf:43:12:52:40:10:95:
         d4:9e:84:0c:a9:49:af:ce:37:8e:39:0e:b6:f8:28:25:91:47:
         f4:dc:62:0d:00:5f:67:88:91:25:5b:b7:c3:54:68:8e:3e:42:
         b4:ab:5f:f5:d8:35:96:cb:46:f9:0f:0a:be:00:75:10:c9:ed:
         1d:b1:1b:08:34:17:f5:e1:58:f3:73:ab:ae:b2:04:7d:e0:ac:
         83:6f:de:75:e7:51:1f:4f:f3:30:d5:1c:28:12:c7:34:67:4d:
         cb:09:34:12:b9:81:f2:aa:1a:f5:8c:98:f3:76:22:68:04:97:
         2e:60:73:e1:7a:c0:6e:92:83:d5:06:c0:fd:d9:a9:da:39:c1:
         8c:00:52:c6
-----BEGIN CERTIFICATE-----
MIIDXTCCAkWgAwIBAgIRAJuqnBLOLBy1xmoHeQlFbLYwDQYJKoZIhvcNAQELBQAw
FjEUMBIGA1UEAwwLdGVhbTYyMi1uZXQwHhcNMjEwOTEzMDQxMDUyWhcNMjQwODI4
MDQxMDUyWjAZMRcwFQYDVQQDDA50ZWFtNjIyLWNsaWVudDCCASIwDQYJKoZIhvcN
AQEBBQADggEPADCCAQoCggEBANJJVc0CwdvT44jebuHTdthfGM9zjijq+rN/gEKp
4s5L9aRgXuyCOrZkumpyzYUrsG594lDePh1+ajTEcmtcpUWseRUYP+qwJMfh5nqS
ZqobGtLgYL2mmTthNtZAvYEOU60py6hvx4nrxiqN6k/bic7MLN3PrW/L9w87QqCE
jKV+uXRxZpRxxZSvyMA3kvyfSvuQ+nRuG2KQOp+g/TbLiNDW5sMvzwfHPczGwRZr
apUUT896z9V0vDhqBukldPKQw7mjSW5qDRM1cDWpIyPFe91udtWvQsSk6m8lRemY
LECk9hXMp0jS1Zy2m0YkWLbIspktpACSLqOl1hv8lY+ql7UCAwEAAaOBojCBnzAJ
BgNVHRMEAjAAMB0GA1UdDgQWBBQW3nU3xl7kSk6Qsj7YJTiiTeo83zBRBgNVHSME
SjBIgBQRbEDbY5o7EwVZ9SBCsmWwgBxn5KEapBgwFjEUMBIGA1UEAwwLdGVhbTYy
Mi1uZXSCFDp5onsvSUp/qCoV0y42otidSkXIMBMGA1UdJQQMMAoGCCsGAQUFBwMC
MAsGA1UdDwQEAwIHgDANBgkqhkiG9w0BAQsFAAOCAQEAkNPlxkvb45FoqOxQMgWk
tMYM1Xul329rVH7ekQwQXu47uNnrwLsnDwFTmB1rKCpjOeJmXdt4e9YjI9GHKX54
TvCs+Cuobcym9ddbwgdBYDckPLezxlKLidBMfOC68QBCOLAWUlND+uOz3rBjN6nF
USU4No2hupTPQxJSQBCV1J6EDKlJr843jjkOtvgoJZFH9NxiDQBfZ4iRJVu3w1Ro
jj5CtKtf9dg1lstG+Q8KvgB1EMntHbEbCDQX9eFY83OrrrIEfeCsg2/ededRH0/z
MNUcKBLHNGdNywk0ErmB8qoa9YyY83YiaASXLmBz4XrAbpKD1QbA/dmp2jnBjABS
xg==
-----END CERTIFICATE-----
