Certificate:
    Data:
        Version: 3 (0x2)
        Serial Number:
            a6:d7:91:9a:8e:63:9e:e3:52:bf:54:4f:c5:01:98:84
        Signature Algorithm: sha256WithRSAEncryption
        Issuer: CN=team622-net
        Validity
            Not Before: Sep 13 04:10:52 2021 GMT
            Not After : Aug 28 04:10:52 2024 GMT
        Subject: CN=team622-server
        Subject Public Key Info:
            Public Key Algorithm: rsaEncryption
                RSA Public-Key: (2048 bit)
                Modulus:
                    00:f6:62:86:dd:41:4a:c9:b8:8a:30:dc:91:f8:24:
                    94:8d:cb:bc:e7:8b:f2:d7:ac:2b:22:6e:b8:09:db:
                    fa:19:be:4f:78:e1:1d:75:ac:ea:7a:6c:da:b6:b6:
                    b3:f3:95:09:4f:ef:c2:e7:b8:d6:36:a6:32:8f:25:
                    05:05:8e:77:72:37:09:d2:47:79:fb:29:0f:d1:15:
                    4f:38:a9:03:09:2b:c6:e2:28:3c:2f:71:ad:a4:e4:
                    d9:7a:65:1b:b2:08:30:7f:90:a3:71:a2:c6:e9:2e:
                    fe:f7:3a:cb:6f:2b:db:bf:5a:aa:21:3e:d5:99:e3:
                    9a:aa:ff:ca:5a:61:8a:0f:32:83:9e:dd:62:57:4c:
                    ac:ad:17:c2:d0:00:0d:19:b7:8c:7f:36:ba:c5:04:
                    a2:31:fe:23:65:e2:5d:51:1d:ed:47:2c:d9:f1:a1:
                    ed:97:60:2f:e4:3f:30:fd:1f:95:9d:55:bd:38:6c:
                    99:64:b1:39:d2:d5:de:d0:4e:34:bb:ac:35:da:97:
                    a8:c0:2f:a1:cb:36:7a:12:fc:29:22:64:7b:cc:bf:
                    b9:3e:5c:72:ac:d8:46:50:eb:b9:0a:7f:25:86:ce:
                    77:44:ed:13:ec:44:9b:35:e4:6c:3f:d8:2e:32:0a:
                    35:f4:59:9e:a1:d3:89:42:d3:a8:18:ab:b4:cb:60:
                    b9:eb
                Exponent: 65537 (0x10001)
        X509v3 extensions:
            X509v3 Basic Constraints: 
                CA:FALSE
            X509v3 Subject Key Identifier: 
                88:03:68:49:5B:37:2D:FD:30:3A:11:CB:06:5E:CD:82:04:36:6D:11
            X509v3 Authority Key Identifier: 
                keyid:11:6C:40:DB:63:9A:3B:13:05:59:F5:20:42:B2:65:B0:80:1C:67:E4
                DirName:/CN=team622-net
                serial:3A:79:A2:7B:2F:49:4A:7F:A8:2A:15:D3:2E:36:A2:D8:9D:4A:45:C8

            X509v3 Extended Key Usage: 
                TLS Web Server Authentication
            X509v3 Key Usage: 
                Digital Signature, Key Encipherment
            X509v3 Subject Alternative Name: 
                DNS:team622-server
    Signature Algorithm: sha256WithRSAEncryption
         01:e3:33:5c:59:21:18:c1:4a:46:24:f0:e2:04:53:82:5c:67:
         a0:9c:c4:24:2a:24:0d:8d:57:50:b2:51:ea:60:5e:18:a3:0c:
         b6:c3:da:e2:31:da:85:1c:ae:25:f5:95:70:ca:80:66:e4:0f:
         cd:1f:c9:5c:8f:9c:36:0f:37:82:75:54:1b:7b:70:de:b4:f5:
         42:a5:e3:e9:21:9e:ea:1e:42:b5:1e:de:e6:52:b9:f3:36:06:
         2a:7f:e3:19:f3:be:8b:6b:99:3b:ec:f5:6c:e0:77:01:bd:7f:
         e8:a7:53:25:ad:c7:5c:43:98:b9:d6:e0:d7:d9:6e:3f:c4:ea:
         fa:2b:7c:46:21:f4:3e:42:d6:96:e3:91:d6:56:c9:3d:15:01:
         17:18:f2:76:c3:19:22:20:d3:93:39:1b:e6:bc:6f:7c:52:cf:
         f1:87:90:68:a9:ba:6e:36:d3:de:c3:7b:47:15:a9:3a:3f:33:
         ec:ac:1b:c1:21:dd:9a:fa:79:ef:9d:e1:2b:65:dc:61:d0:15:
         f0:05:07:36:cd:33:4b:e4:22:d6:24:44:8b:fd:b4:32:ce:35:
         96:09:63:09:fb:78:ac:f8:90:62:24:1d:7d:3e:fb:69:f5:6c:
         2e:74:ef:50:44:48:d9:4c:58:01:18:14:b0:30:88:8d:d4:bf:
         6c:c7:0a:7d
-----BEGIN CERTIFICATE-----
MIIDeDCCAmCgAwIBAgIRAKbXkZqOY57jUr9UT8UBmIQwDQYJKoZIhvcNAQELBQAw
FjEUMBIGA1UEAwwLdGVhbTYyMi1uZXQwHhcNMjEwOTEzMDQxMDUyWhcNMjQwODI4
MDQxMDUyWjAZMRcwFQYDVQQDDA50ZWFtNjIyLXNlcnZlcjCCASIwDQYJKoZIhvcN
AQEBBQADggEPADCCAQoCggEBAPZiht1BSsm4ijDckfgklI3LvOeL8tesKyJuuAnb
+hm+T3jhHXWs6nps2ra2s/OVCU/vwue41jamMo8lBQWOd3I3CdJHefspD9EVTzip
AwkrxuIoPC9xraTk2XplG7IIMH+Qo3Gixuku/vc6y28r279aqiE+1Znjmqr/ylph
ig8yg57dYldMrK0XwtAADRm3jH82usUEojH+I2XiXVEd7Ucs2fGh7ZdgL+Q/MP0f
lZ1VvThsmWSxOdLV3tBONLusNdqXqMAvocs2ehL8KSJke8y/uT5ccqzYRlDruQp/
JYbOd0TtE+xEmzXkbD/YLjIKNfRZnqHTiULTqBirtMtguesCAwEAAaOBvTCBujAJ
BgNVHRMEAjAAMB0GA1UdDgQWBBSIA2hJWzct/TA6EcsGXs2CBDZtETBRBgNVHSME
SjBIgBQRbEDbY5o7EwVZ9SBCsmWwgBxn5KEapBgwFjEUMBIGA1UEAwwLdGVhbTYy
Mi1uZXSCFDp5onsvSUp/qCoV0y42otidSkXIMBMGA1UdJQQMMAoGCCsGAQUFBwMB
MAsGA1UdDwQEAwIFoDAZBgNVHREEEjAQgg50ZWFtNjIyLXNlcnZlcjANBgkqhkiG
9w0BAQsFAAOCAQEAAeMzXFkhGMFKRiTw4gRTglxnoJzEJCokDY1XULJR6mBeGKMM
tsPa4jHahRyuJfWVcMqAZuQPzR/JXI+cNg83gnVUG3tw3rT1QqXj6SGe6h5CtR7e
5lK58zYGKn/jGfO+i2uZO+z1bOB3Ab1/6KdTJa3HXEOYudbg19luP8Tq+it8RiH0
PkLWluOR1lbJPRUBFxjydsMZIiDTkzkb5rxvfFLP8YeQaKm6bjbT3sN7RxWpOj8z
7KwbwSHdmvp5753hK2XcYdAV8AUHNs0zS+Qi1iREi/20Ms41lgljCft4rPiQYiQd
fT77afVsLnTvUERI2UxYARgUsDCIjdS/bMcKfQ==
-----END CERTIFICATE-----
