Certificate:
    Data:
        Version: 3 (0x2)
        Serial Number:
            dc:89:e0:b1:99:bd:ba:d8:bc:e5:6a:99:e2:08:34:5d
        Signature Algorithm: sha256WithRSAEncryption
        Issuer: CN=team613-net
        Validity
            Not Before: Sep 13 04:29:12 2021 GMT
            Not After : Aug 28 04:29:12 2024 GMT
        Subject: CN=team613-server
        Subject Public Key Info:
            Public Key Algorithm: rsaEncryption
                RSA Public-Key: (2048 bit)
                Modulus:
                    00:ac:fd:6f:61:5a:93:9a:25:32:5b:d1:8d:83:e3:
                    5e:e1:45:62:4f:80:df:99:19:e3:21:23:2f:f9:26:
                    66:8e:57:f7:91:bd:94:a5:59:4b:f4:fd:eb:37:bd:
                    ea:83:c2:10:34:98:74:1e:3b:60:ac:43:95:78:b6:
                    ff:62:c2:86:3c:ad:e6:a4:ab:21:a7:50:c0:38:a0:
                    77:dc:c9:08:f9:e7:2d:73:e9:f3:3f:7e:0f:0c:ad:
                    22:10:ae:db:67:cf:10:11:43:82:a9:b1:36:49:b4:
                    c7:f0:a1:f4:be:de:c6:8b:c1:3f:b3:63:6e:18:01:
                    ef:82:32:d4:97:ef:de:0b:7e:91:76:d1:f5:6c:59:
                    b8:9e:a5:6f:1b:f9:69:e9:21:62:c8:77:71:30:d2:
                    cd:db:07:c6:34:56:1f:a0:ae:5d:a8:1d:1a:3a:c3:
                    db:6e:fb:63:89:7a:b0:fb:bc:ef:cc:4d:fe:4b:08:
                    a1:9f:82:83:83:fc:90:09:ff:80:99:86:66:f5:57:
                    25:48:33:38:03:20:b1:f6:37:d4:15:ea:3c:15:c4:
                    63:d9:5a:a2:dc:0a:6d:41:20:2a:4c:2a:c1:b2:4f:
                    81:b8:fd:1d:e4:5f:11:36:04:0e:0d:f3:e2:d8:82:
                    71:8c:50:71:f0:66:e2:66:a2:2d:0e:22:03:85:71:
                    f9:b7
                Exponent: 65537 (0x10001)
        X509v3 extensions:
            X509v3 Basic Constraints: 
                CA:FALSE
            X509v3 Subject Key Identifier: 
                E9:B8:83:61:E9:E4:28:78:D9:20:8D:52:94:DF:24:94:8E:98:1C:0E
            X509v3 Authority Key Identifier: 
                keyid:3F:83:8A:F3:4B:CC:E3:5E:CF:08:5C:6C:58:D0:3E:FE:60:A4:42:E0
                DirName:/CN=team613-net
                serial:3C:28:00:D4:54:5A:5A:A1:DB:45:12:F8:95:B2:52:AC:6F:8B:EF:23

            X509v3 Extended Key Usage: 
                TLS Web Server Authentication
            X509v3 Key Usage: 
                Digital Signature, Key Encipherment
            X509v3 Subject Alternative Name: 
                DNS:team613-server
    Signature Algorithm: sha256WithRSAEncryption
         18:de:de:50:a5:31:f7:7c:b1:75:e6:4b:9c:ee:3c:b3:bd:72:
         fd:d4:71:fe:09:f0:a1:44:80:2d:f7:75:86:4d:fb:e2:8a:15:
         7c:c4:bf:ff:48:90:2b:a9:a5:f6:1f:8a:80:c6:00:52:0b:79:
         01:a5:28:61:eb:6a:70:cc:15:3a:b9:22:5b:2c:89:cd:06:7b:
         c4:eb:25:74:98:fa:dd:a8:5b:8e:d6:3d:54:5a:19:d2:25:d4:
         5d:37:58:c8:ea:21:28:98:48:05:53:c9:dd:76:f4:c0:81:cd:
         fd:24:cc:8f:55:90:ba:8c:ba:48:78:d0:9a:12:fe:ff:20:dd:
         59:ab:71:12:48:6a:19:ff:86:1e:33:39:0a:6b:eb:cc:eb:36:
         33:56:37:58:2d:5a:a5:a3:3f:00:7a:be:8d:31:2f:08:fe:dc:
         df:58:ca:7e:20:48:1b:4f:15:29:ff:f7:b9:fe:03:b3:b5:e4:
         5b:ee:00:d4:ca:3b:91:44:1c:3b:52:1e:a1:82:52:1b:0d:e5:
         aa:8d:fa:33:75:37:dc:a0:b5:64:f3:92:e6:2b:45:03:9c:da:
         39:8a:ff:12:66:44:33:72:33:c6:54:3f:30:b1:09:cd:aa:7c:
         25:14:18:50:3c:29:b7:10:fa:36:31:b3:ac:a0:45:d2:06:57:
         cd:33:b0:89
-----BEGIN CERTIFICATE-----
MIIDeDCCAmCgAwIBAgIRANyJ4LGZvbrYvOVqmeIINF0wDQYJKoZIhvcNAQELBQAw
FjEUMBIGA1UEAwwLdGVhbTYxMy1uZXQwHhcNMjEwOTEzMDQyOTEyWhcNMjQwODI4
MDQyOTEyWjAZMRcwFQYDVQQDDA50ZWFtNjEzLXNlcnZlcjCCASIwDQYJKoZIhvcN
AQEBBQADggEPADCCAQoCggEBAKz9b2Fak5olMlvRjYPjXuFFYk+A35kZ4yEjL/km
Zo5X95G9lKVZS/T96ze96oPCEDSYdB47YKxDlXi2/2LChjyt5qSrIadQwDigd9zJ
CPnnLXPp8z9+DwytIhCu22fPEBFDgqmxNkm0x/Ch9L7exovBP7NjbhgB74Iy1Jfv
3gt+kXbR9WxZuJ6lbxv5aekhYsh3cTDSzdsHxjRWH6CuXagdGjrD2277Y4l6sPu8
78xN/ksIoZ+Cg4P8kAn/gJmGZvVXJUgzOAMgsfY31BXqPBXEY9laotwKbUEgKkwq
wbJPgbj9HeRfETYEDg3z4tiCcYxQcfBm4maiLQ4iA4Vx+bcCAwEAAaOBvTCBujAJ
BgNVHRMEAjAAMB0GA1UdDgQWBBTpuINh6eQoeNkgjVKU3ySUjpgcDjBRBgNVHSME
SjBIgBQ/g4rzS8zjXs8IXGxY0D7+YKRC4KEapBgwFjEUMBIGA1UEAwwLdGVhbTYx
My1uZXSCFDwoANRUWlqh20US+JWyUqxvi+8jMBMGA1UdJQQMMAoGCCsGAQUFBwMB
MAsGA1UdDwQEAwIFoDAZBgNVHREEEjAQgg50ZWFtNjEzLXNlcnZlcjANBgkqhkiG
9w0BAQsFAAOCAQEAGN7eUKUx93yxdeZLnO48s71y/dRx/gnwoUSALfd1hk374ooV
fMS//0iQK6ml9h+KgMYAUgt5AaUoYetqcMwVOrkiWyyJzQZ7xOsldJj63ahbjtY9
VFoZ0iXUXTdYyOohKJhIBVPJ3Xb0wIHN/STMj1WQuoy6SHjQmhL+/yDdWatxEkhq
Gf+GHjM5CmvrzOs2M1Y3WC1apaM/AHq+jTEvCP7c31jKfiBIG08VKf/3uf4Ds7Xk
W+4A1Mo7kUQcO1IeoYJSGw3lqo36M3U33KC1ZPOS5itFA5zaOYr/EmZEM3IzxlQ/
MLEJzap8JRQYUDwptxD6NjGzrKBF0gZXzTOwiQ==
-----END CERTIFICATE-----
