Certificate:
    Data:
        Version: 3 (0x2)
        Serial Number:
            67:12:17:fc:5f:5d:af:dc:17:91:9c:ec:c7:dc:56:60
        Signature Algorithm: sha256WithRSAEncryption
        Issuer: CN=team301-net
        Validity
            Not Before: Sep 13 01:26:58 2021 GMT
            Not After : Aug 28 01:26:58 2024 GMT
        Subject: CN=team301-client
        Subject Public Key Info:
            Public Key Algorithm: rsaEncryption
                RSA Public-Key: (2048 bit)
                Modulus:
                    00:d9:ac:43:81:e4:41:df:20:fb:6e:d9:f7:af:de:
                    27:9a:9a:46:69:14:99:02:c0:f8:43:ea:22:a7:cb:
                    41:0c:a4:57:cf:1c:5d:8f:4a:da:fb:2e:fd:23:79:
                    ca:e7:76:0f:b8:13:86:d2:ca:d8:3a:1b:b1:5b:b5:
                    40:bf:fe:49:64:a5:04:37:b2:cf:3a:ef:e3:5a:f1:
                    ea:bb:b3:31:88:74:25:33:ef:58:f6:62:c9:dd:f4:
                    85:82:ca:93:8c:7d:65:49:38:a8:43:d6:31:61:bb:
                    c2:6e:69:ca:dc:91:10:e8:eb:e1:82:e6:af:e8:3c:
                    ee:4d:0f:71:86:5d:5e:8d:bd:b4:d3:28:b0:1a:57:
                    ea:49:92:7b:3d:65:b2:63:13:5e:a8:f9:29:6d:f7:
                    15:3e:91:f0:5d:d9:ea:27:43:53:cc:69:f3:6c:88:
                    85:c3:c7:0e:a5:0a:d9:b7:a1:7b:89:02:94:43:aa:
                    31:4b:65:d5:b4:fa:f6:3e:1c:5d:97:a2:8c:8f:da:
                    39:79:75:8c:b1:69:96:f0:37:91:47:11:86:55:81:
                    50:1a:07:54:c8:b8:16:1f:1d:0b:0a:d1:c6:60:28:
                    d3:04:a0:9e:ba:25:79:d6:f3:63:bc:e9:53:a2:01:
                    82:eb:4f:db:61:7b:99:11:58:c5:8b:f1:8f:c6:5b:
                    bf:89
                Exponent: 65537 (0x10001)
        X509v3 extensions:
            X509v3 Basic Constraints: 
                CA:FALSE
            X509v3 Subject Key Identifier: 
                33:7E:DC:1B:FB:A6:49:95:12:22:E8:2F:FC:B6:9C:5C:39:63:60:A7
            X509v3 Authority Key Identifier: 
                keyid:99:4F:E0:0E:4A:E5:11:EE:BB:9F:B0:C6:4C:6E:3B:4B:95:2A:05:FC
                DirName:/CN=team301-net
                serial:62:76:D8:6F:73:90:4C:AF:37:88:83:3A:90:24:B0:82:E2:8F:90:2B

            X509v3 Extended Key Usage: 
                TLS Web Client Authentication
            X509v3 Key Usage: 
                Digital Signature
    Signature Algorithm: sha256WithRSAEncryption
         6e:1b:d8:ac:ec:dc:bd:e6:4d:b0:67:ea:8c:f2:c6:d0:6c:fc:
         2e:14:f4:f0:03:58:ca:fc:68:8c:31:b8:9c:2f:3e:e4:3e:6c:
         68:6f:75:d9:dd:e1:f7:1c:dc:31:fd:e3:c0:86:b3:57:ba:e7:
         9f:53:fb:de:a3:cb:13:4a:15:4b:67:ab:b9:f6:73:e3:87:3a:
         c7:ed:e6:a9:6c:59:96:81:7b:ec:9e:9a:91:82:de:6d:5b:8a:
         15:c9:c0:f2:c3:19:83:02:f8:de:e4:54:55:f7:67:a5:41:f0:
         ed:86:37:42:7f:b9:ea:85:c9:aa:8e:bd:0b:dc:c8:ff:d5:6e:
         6b:4c:1c:e6:87:01:30:90:2b:e4:69:f5:38:43:95:43:2c:b9:
         4b:02:28:b5:5c:e3:80:40:c1:06:fd:b7:f3:9e:b8:10:7f:ca:
         7e:ab:1f:ca:49:e9:af:b0:b0:63:2e:b0:6a:6e:7a:cd:82:31:
         dc:f3:ab:d0:e1:6b:62:b8:f4:93:c0:59:b2:39:dd:a8:e5:0d:
         36:33:14:0b:86:7a:de:ad:0c:a8:42:4c:6d:be:d8:8d:46:25:
         a0:11:59:d9:5f:62:e2:ad:c6:78:9f:f5:2a:b4:d2:b3:f3:55:
         cf:74:2b:4a:b6:7e:27:8b:7d:18:bb:fb:fe:ed:48:44:24:fd:
         4a:48:00:9a
-----BEGIN CERTIFICATE-----
MIIDXDCCAkSgAwIBAgIQZxIX/F9dr9wXkZzsx9xWYDANBgkqhkiG9w0BAQsFADAW
MRQwEgYDVQQDDAt0ZWFtMzAxLW5ldDAeFw0yMTA5MTMwMTI2NThaFw0yNDA4Mjgw
MTI2NThaMBkxFzAVBgNVBAMMDnRlYW0zMDEtY2xpZW50MIIBIjANBgkqhkiG9w0B
AQEFAAOCAQ8AMIIBCgKCAQEA2axDgeRB3yD7btn3r94nmppGaRSZAsD4Q+oip8tB
DKRXzxxdj0ra+y79I3nK53YPuBOG0srYOhuxW7VAv/5JZKUEN7LPOu/jWvHqu7Mx
iHQlM+9Y9mLJ3fSFgsqTjH1lSTioQ9YxYbvCbmnK3JEQ6Ovhguav6DzuTQ9xhl1e
jb200yiwGlfqSZJ7PWWyYxNeqPkpbfcVPpHwXdnqJ0NTzGnzbIiFw8cOpQrZt6F7
iQKUQ6oxS2XVtPr2Phxdl6KMj9o5eXWMsWmW8DeRRxGGVYFQGgdUyLgWHx0LCtHG
YCjTBKCeuiV51vNjvOlTogGC60/bYXuZEVjFi/GPxlu/iQIDAQABo4GiMIGfMAkG
A1UdEwQCMAAwHQYDVR0OBBYEFDN+3Bv7pkmVEiLoL/y2nFw5Y2CnMFEGA1UdIwRK
MEiAFJlP4A5K5RHuu5+wxkxuO0uVKgX8oRqkGDAWMRQwEgYDVQQDDAt0ZWFtMzAx
LW5ldIIUYnbYb3OQTK83iIM6kCSwguKPkCswEwYDVR0lBAwwCgYIKwYBBQUHAwIw
CwYDVR0PBAQDAgeAMA0GCSqGSIb3DQEBCwUAA4IBAQBuG9is7Ny95k2wZ+qM8sbQ
bPwuFPTwA1jK/GiMMbicLz7kPmxob3XZ3eH3HNwx/ePAhrNXuuefU/veo8sTShVL
Z6u59nPjhzrH7eapbFmWgXvsnpqRgt5tW4oVycDywxmDAvje5FRV92elQfDthjdC
f7nqhcmqjr0L3Mj/1W5rTBzmhwEwkCvkafU4Q5VDLLlLAii1XOOAQMEG/bfznrgQ
f8p+qx/KSemvsLBjLrBqbnrNgjHc86vQ4WtiuPSTwFmyOd2o5Q02MxQLhnrerQyo
QkxtvtiNRiWgEVnZX2LircZ4n/UqtNKz81XPdCtKtn4ni30Yu/v+7UhEJP1KSACa
-----END CERTIFICATE-----
