Certificate:
    Data:
        Version: 3 (0x2)
        Serial Number:
            89:2f:19:5e:f4:fe:fa:30:9b:83:b7:90:0d:39:c5:55
        Signature Algorithm: sha256WithRSAEncryption
        Issuer: CN=team300-net
        Validity
            Not Before: Sep 13 01:26:23 2021 GMT
            Not After : Aug 28 01:26:23 2024 GMT
        Subject: CN=team300-client
        Subject Public Key Info:
            Public Key Algorithm: rsaEncryption
                RSA Public-Key: (2048 bit)
                Modulus:
                    00:b3:d0:9f:54:f9:13:af:cc:28:5f:00:a8:c4:d8:
                    1b:e6:25:09:87:43:97:be:8e:72:19:83:27:93:51:
                    4a:9f:fa:b0:13:61:ed:63:0c:1f:33:d1:ab:c7:7c:
                    5c:41:03:a2:09:67:63:21:1d:36:72:e5:01:4b:3d:
                    6a:92:d2:8e:48:44:3d:93:76:0e:9a:09:32:1e:62:
                    43:04:48:4c:a4:25:8c:e6:b5:1b:20:3e:a0:6d:af:
                    85:34:ed:e2:e2:39:ce:65:44:97:5b:3c:23:d3:b3:
                    ca:85:2e:60:ec:04:00:21:a6:f1:6d:f8:25:8f:9c:
                    15:3b:5f:1a:ac:52:68:bc:ac:76:62:f6:ac:5d:47:
                    26:23:ec:c6:7f:b0:37:b5:d7:49:ff:13:ea:be:10:
                    b8:c7:2a:6b:7d:57:54:3a:ed:08:09:25:ab:89:ed:
                    74:f1:b9:25:6e:ae:8a:96:6e:a0:01:2f:37:c2:ad:
                    2e:16:87:16:1c:10:44:d1:ac:0f:c2:98:09:5a:c7:
                    a9:1d:4c:47:2d:c7:1f:17:f4:c5:48:da:ca:ed:c0:
                    22:25:e6:6f:a0:f6:00:4b:90:15:bd:fa:3d:15:14:
                    c5:51:5b:cd:ae:70:d0:2e:fc:f2:7d:4a:57:c3:41:
                    02:4f:30:71:e0:a4:62:67:bb:ee:a7:97:3c:e7:02:
                    2a:dd
                Exponent: 65537 (0x10001)
        X509v3 extensions:
            X509v3 Basic Constraints: 
                CA:FALSE
            X509v3 Subject Key Identifier: 
                BE:07:75:79:78:AC:31:91:57:FD:FE:01:6C:0B:A8:80:A0:C1:3D:86
            X509v3 Authority Key Identifier: 
                keyid:BE:87:91:80:38:32:B2:90:D3:00:E8:D2:25:A9:3D:F7:E6:3A:90:9F
                DirName:/CN=team300-net
                serial:04:A7:17:A4:D6:61:69:0C:5F:EC:C6:0C:38:6F:B1:73:F6:90:57:9B

            X509v3 Extended Key Usage: 
                TLS Web Client Authentication
            X509v3 Key Usage: 
                Digital Signature
    Signature Algorithm: sha256WithRSAEncryption
         08:cd:7f:59:af:38:9f:6e:8b:cb:71:77:dd:3f:e2:85:bf:7e:
         5f:d4:8f:37:18:1e:9d:f5:74:2c:24:05:5f:f5:68:27:4b:e1:
         e1:08:4a:36:13:33:9e:fe:90:de:ee:7f:42:59:11:86:21:d8:
         3f:09:16:2f:37:32:3d:11:ab:fc:f4:46:d8:04:c2:17:e9:7d:
         d2:3b:a6:84:c2:9e:e6:7f:96:b3:08:4a:a2:1c:65:5e:68:97:
         91:92:b0:69:ef:b0:80:45:68:cd:ff:68:71:18:65:86:2d:91:
         37:49:49:39:b5:16:28:25:eb:01:ab:a5:26:ab:3a:17:60:99:
         04:3d:08:fb:3c:b4:77:fc:6c:33:10:c3:4b:72:4b:87:07:6f:
         f1:bd:b5:16:23:1c:e4:cc:9e:89:51:af:d4:08:f8:39:8c:76:
         3c:6b:a5:1a:d2:7e:81:fb:8b:f8:15:d7:a3:73:0f:9d:1c:d5:
         88:29:3c:09:43:e3:4e:71:09:ef:64:b2:93:ce:bc:24:f1:08:
         af:fe:75:4d:43:cd:b9:41:8a:d8:f4:4c:d4:6a:41:94:24:b4:
         f5:5f:85:df:d6:40:12:41:ab:f2:d9:5e:27:b4:6f:db:2b:93:
         90:01:08:db:3c:81:c9:6a:35:13:e6:32:56:17:bd:4e:2c:64:
         36:f8:20:f0
-----BEGIN CERTIFICATE-----
MIIDXTCCAkWgAwIBAgIRAIkvGV70/vowm4O3kA05xVUwDQYJKoZIhvcNAQELBQAw
FjEUMBIGA1UEAwwLdGVhbTMwMC1uZXQwHhcNMjEwOTEzMDEyNjIzWhcNMjQwODI4
MDEyNjIzWjAZMRcwFQYDVQQDDA50ZWFtMzAwLWNsaWVudDCCASIwDQYJKoZIhvcN
AQEBBQADggEPADCCAQoCggEBALPQn1T5E6/MKF8AqMTYG+YlCYdDl76OchmDJ5NR
Sp/6sBNh7WMMHzPRq8d8XEEDoglnYyEdNnLlAUs9apLSjkhEPZN2DpoJMh5iQwRI
TKQljOa1GyA+oG2vhTTt4uI5zmVEl1s8I9OzyoUuYOwEACGm8W34JY+cFTtfGqxS
aLysdmL2rF1HJiPsxn+wN7XXSf8T6r4QuMcqa31XVDrtCAklq4ntdPG5JW6uipZu
oAEvN8KtLhaHFhwQRNGsD8KYCVrHqR1MRy3HHxf0xUjayu3AIiXmb6D2AEuQFb36
PRUUxVFbza5w0C788n1KV8NBAk8wceCkYme77qeXPOcCKt0CAwEAAaOBojCBnzAJ
BgNVHRMEAjAAMB0GA1UdDgQWBBS+B3V5eKwxkVf9/gFsC6iAoME9hjBRBgNVHSME
SjBIgBS+h5GAODKykNMA6NIlqT335jqQn6EapBgwFjEUMBIGA1UEAwwLdGVhbTMw
MC1uZXSCFASnF6TWYWkMX+zGDDhvsXP2kFebMBMGA1UdJQQMMAoGCCsGAQUFBwMC
MAsGA1UdDwQEAwIHgDANBgkqhkiG9w0BAQsFAAOCAQEACM1/Wa84n26Ly3F33T/i
hb9+X9SPNxgenfV0LCQFX/VoJ0vh4QhKNhMznv6Q3u5/QlkRhiHYPwkWLzcyPRGr
/PRG2ATCF+l90jumhMKe5n+WswhKohxlXmiXkZKwae+wgEVozf9ocRhlhi2RN0lJ
ObUWKCXrAaulJqs6F2CZBD0I+zy0d/xsMxDDS3JLhwdv8b21FiMc5MyeiVGv1Aj4
OYx2PGulGtJ+gfuL+BXXo3MPnRzViCk8CUPjTnEJ72Syk868JPEIr/51TUPNuUGK
2PRM1GpBlCS09V+F39ZAEkGr8tleJ7Rv2yuTkAEI2zyByWo1E+YyVhe9TixkNvgg
8A==
-----END CERTIFICATE-----
