Certificate:
    Data:
        Version: 3 (0x2)
        Serial Number:
            9c:5a:19:d3:77:2a:f1:ea:23:16:6b:d8:1a:b9:78:39
        Signature Algorithm: sha256WithRSAEncryption
        Issuer: CN=team78-net
        Validity
            Not Before: Sep 12 23:24:12 2021 GMT
            Not After : Aug 27 23:24:12 2024 GMT
        Subject: CN=team78-server
        Subject Public Key Info:
            Public Key Algorithm: rsaEncryption
                RSA Public-Key: (2048 bit)
                Modulus:
                    00:b4:4c:c1:b7:88:14:7c:fd:65:3b:48:30:75:74:
                    dd:fd:0a:17:90:dc:68:2a:6d:e3:10:6b:f2:2f:c8:
                    03:c4:d8:8d:31:fb:5e:6c:51:ea:ba:80:13:fa:1b:
                    cc:ce:2a:b7:26:67:f5:f4:c0:a0:3f:c4:41:ae:f5:
                    68:4b:bc:b0:13:b7:64:15:58:b9:2e:b1:1e:8c:d1:
                    17:88:61:64:c0:5c:8f:7b:b8:03:23:9d:61:8b:a3:
                    1a:e5:fa:4d:3d:a8:b1:c4:b0:62:4e:07:42:f3:c5:
                    6e:1a:c2:27:07:03:86:95:97:27:86:9c:6b:dd:10:
                    e3:73:0f:9d:e1:0a:7c:57:ac:09:34:9f:b1:8f:84:
                    94:88:43:1f:fa:a3:e9:09:6d:8f:8e:a7:08:7d:73:
                    f1:61:50:51:a9:a5:00:78:b0:f5:fb:4e:7b:48:f3:
                    88:12:a9:4a:ac:93:c3:80:16:21:0e:94:79:c5:cb:
                    81:77:66:2a:0e:eb:39:74:a2:8d:e1:f5:eb:49:08:
                    23:09:70:6a:62:14:ab:02:31:02:be:45:78:41:db:
                    b1:f9:e2:61:27:f7:3b:fa:1e:58:9f:1e:6d:3c:11:
                    15:af:45:b2:6a:a1:37:b3:a8:0a:6a:b2:32:75:04:
                    66:9c:4c:3a:9b:d2:63:0f:c2:d1:f1:48:18:63:a8:
                    e6:37
                Exponent: 65537 (0x10001)
        X509v3 extensions:
            X509v3 Basic Constraints: 
                CA:FALSE
            X509v3 Subject Key Identifier: 
                B4:3F:C6:29:F1:52:43:58:62:C6:FE:F2:01:9B:A1:72:0E:16:6A:A1
            X509v3 Authority Key Identifier: 
                keyid:97:4A:B0:99:F0:8B:64:93:4E:9E:A9:79:CE:DC:D7:59:62:56:91:1B
                DirName:/CN=team78-net
                serial:1A:5E:9A:88:B0:B3:2A:1F:2A:13:0C:D3:A5:8F:AC:E2:14:39:32:4B

            X509v3 Extended Key Usage: 
                TLS Web Server Authentication
            X509v3 Key Usage: 
                Digital Signature, Key Encipherment
            X509v3 Subject Alternative Name: 
                DNS:team78-server
    Signature Algorithm: sha256WithRSAEncryption
         8c:e0:fe:31:8d:34:a3:99:1c:ef:91:0b:7d:05:60:55:0b:26:
         1b:9f:20:82:bb:6d:8b:05:a2:01:98:a6:cf:45:b5:34:d5:e4:
         1a:b3:81:db:65:d2:10:f7:63:be:17:21:44:4d:7e:99:05:cf:
         0e:0e:e4:09:2d:96:77:17:56:90:cc:88:9b:87:43:70:79:04:
         f9:c6:88:2a:69:d9:71:38:71:8b:3e:be:1c:45:10:e6:d0:de:
         c1:06:ee:70:36:0a:00:d8:72:38:fd:50:fe:80:d8:83:cd:f5:
         14:e6:b8:4a:7e:81:e1:8d:2f:b2:d6:33:c6:e2:4f:83:f0:79:
         4c:b6:63:4c:eb:33:e9:bf:2b:8f:07:a2:41:70:20:68:72:bf:
         4d:f8:61:11:bf:71:00:9c:4b:b1:e3:85:97:e2:4c:35:64:3b:
         4e:11:3e:5a:bc:4b:8d:a0:dc:62:96:2e:f0:9a:b8:74:c0:be:
         9b:ff:1a:bb:16:5f:a0:31:5e:98:5f:24:0e:8e:ba:8f:41:d7:
         fb:d4:80:ec:5f:b1:d0:01:7a:f0:39:58:79:22:69:4e:a7:15:
         58:20:a7:33:97:a3:ef:96:f0:56:a5:fe:10:b4:c2:70:a9:7d:
         3e:2e:68:ac:41:5b:2d:fd:bf:05:f2:ee:cb:76:f1:a1:ba:99:
         7d:40:71:f1
-----BEGIN CERTIFICATE-----
MIIDdDCCAlygAwIBAgIRAJxaGdN3KvHqIxZr2Bq5eDkwDQYJKoZIhvcNAQELBQAw
FTETMBEGA1UEAwwKdGVhbTc4LW5ldDAeFw0yMTA5MTIyMzI0MTJaFw0yNDA4Mjcy
MzI0MTJaMBgxFjAUBgNVBAMMDXRlYW03OC1zZXJ2ZXIwggEiMA0GCSqGSIb3DQEB
AQUAA4IBDwAwggEKAoIBAQC0TMG3iBR8/WU7SDB1dN39CheQ3GgqbeMQa/IvyAPE
2I0x+15sUeq6gBP6G8zOKrcmZ/X0wKA/xEGu9WhLvLATt2QVWLkusR6M0ReIYWTA
XI97uAMjnWGLoxrl+k09qLHEsGJOB0LzxW4awicHA4aVlyeGnGvdEONzD53hCnxX
rAk0n7GPhJSIQx/6o+kJbY+Opwh9c/FhUFGppQB4sPX7TntI84gSqUqsk8OAFiEO
lHnFy4F3ZioO6zl0oo3h9etJCCMJcGpiFKsCMQK+RXhB27H54mEn9zv6HlifHm08
ERWvRbJqoTezqApqsjJ1BGacTDqb0mMPwtHxSBhjqOY3AgMBAAGjgbswgbgwCQYD
VR0TBAIwADAdBgNVHQ4EFgQUtD/GKfFSQ1hixv7yAZuhcg4WaqEwUAYDVR0jBEkw
R4AUl0qwmfCLZJNOnql5ztzXWWJWkRuhGaQXMBUxEzARBgNVBAMMCnRlYW03OC1u
ZXSCFBpemoiwsyofKhMM06WPrOIUOTJLMBMGA1UdJQQMMAoGCCsGAQUFBwMBMAsG
A1UdDwQEAwIFoDAYBgNVHREEETAPgg10ZWFtNzgtc2VydmVyMA0GCSqGSIb3DQEB
CwUAA4IBAQCM4P4xjTSjmRzvkQt9BWBVCyYbnyCCu22LBaIBmKbPRbU01eQas4Hb
ZdIQ92O+FyFETX6ZBc8ODuQJLZZ3F1aQzIibh0NweQT5xogqadlxOHGLPr4cRRDm
0N7BBu5wNgoA2HI4/VD+gNiDzfUU5rhKfoHhjS+y1jPG4k+D8HlMtmNM6zPpvyuP
B6JBcCBocr9N+GERv3EAnEux44WX4kw1ZDtOET5avEuNoNxili7wmrh0wL6b/xq7
Fl+gMV6YXyQOjrqPQdf71IDsX7HQAXrwOVh5ImlOpxVYIKczl6PvlvBWpf4QtMJw
qX0+LmisQVst/b8F8u7LdvGhupl9QHHx
-----END CERTIFICATE-----
