Certificate:
    Data:
        Version: 3 (0x2)
        Serial Number:
            3f:5e:4d:a7:66:2a:91:9d:27:15:f9:20:46:3f:b4:37
        Signature Algorithm: sha256WithRSAEncryption
        Issuer: CN=team723-net
        Validity
            Not Before: Sep 13 04:59:50 2021 GMT
            Not After : Aug 28 04:59:50 2024 GMT
        Subject: CN=team723-server
        Subject Public Key Info:
            Public Key Algorithm: rsaEncryption
                RSA Public-Key: (2048 bit)
                Modulus:
                    00:a4:e3:67:af:d3:1b:5e:e2:e2:33:9f:2d:f6:e1:
                    59:45:4c:83:42:bc:e9:ca:f8:c4:bd:fa:3b:07:d0:
                    46:04:14:44:e4:27:1f:79:b3:25:75:26:72:1c:c0:
                    00:07:56:97:12:3e:20:54:2e:09:1b:a8:29:da:cf:
                    99:4b:2a:10:64:59:a7:dc:c0:52:ef:03:97:d2:50:
                    19:42:e5:e3:94:41:35:b0:ed:33:c8:d7:c9:d0:ba:
                    55:84:f9:70:28:6d:1f:17:3f:b2:53:7e:a7:63:36:
                    4e:00:ce:eb:78:b0:df:6d:1f:cb:dd:ad:cf:64:1e:
                    ec:30:ec:f6:16:78:aa:a4:3e:3a:d6:bb:75:9f:2f:
                    6f:00:a8:5d:f1:7e:b5:35:ce:86:e8:40:73:79:79:
                    ad:fe:d5:fd:bf:2c:1d:10:62:25:d1:be:56:a9:d4:
                    65:3b:4c:b9:ef:3b:22:0e:9f:9a:fe:e2:b6:e3:b8:
                    67:d9:2e:2c:be:85:29:e8:8e:5b:de:5d:92:e6:c5:
                    da:b7:6c:82:57:b5:aa:ce:d3:9e:f1:40:91:dc:ff:
                    66:15:4a:5c:fb:58:c5:1e:2b:22:f3:35:90:46:85:
                    a6:dc:f8:ad:99:be:62:3f:77:c1:5b:9b:f1:c0:bb:
                    ca:3a:13:b1:51:63:11:b4:e0:3b:0e:a7:d6:f3:3d:
                    46:85
                Exponent: 65537 (0x10001)
        X509v3 extensions:
            X509v3 Basic Constraints: 
                CA:FALSE
            X509v3 Subject Key Identifier: 
                CF:49:0B:83:2F:EE:4F:8E:A0:CB:48:EF:74:98:8F:DF:1D:B0:DD:3B
            X509v3 Authority Key Identifier: 
                keyid:E2:99:52:31:66:C8:5F:E8:7C:A4:14:34:7D:69:6E:A2:AE:8B:61:34
                DirName:/CN=team723-net
                serial:3D:AF:38:C4:C4:95:50:49:8E:43:75:73:AF:49:6C:3B:5E:2D:A2:A6

            X509v3 Extended Key Usage: 
                TLS Web Server Authentication
            X509v3 Key Usage: 
                Digital Signature, Key Encipherment
            X509v3 Subject Alternative Name: 
                DNS:team723-server
    Signature Algorithm: sha256WithRSAEncryption
         cd:70:64:3d:ad:7d:1b:36:3d:6f:03:4d:bc:4f:dc:90:a8:51:
         4d:a3:6e:7a:76:94:69:8b:8b:f2:5f:18:af:33:a9:84:d7:d3:
         c9:9a:5e:81:92:75:88:5f:08:fe:ea:be:45:14:35:df:a2:a4:
         44:95:ec:df:db:1a:80:dd:8c:a4:b0:1b:56:82:24:12:f7:14:
         fc:54:19:9b:4f:3f:07:5b:87:6e:25:1a:24:51:21:ef:2a:ee:
         94:e6:c8:1e:b0:d7:6e:9d:b9:d7:ed:23:af:e3:19:91:df:6f:
         8b:63:af:e5:17:b4:d3:ad:ce:85:d2:a9:a9:d4:20:51:99:33:
         1f:8d:56:b1:e8:28:11:1c:48:02:4b:be:42:cf:2c:2e:8a:96:
         7e:00:a8:d6:31:1f:dd:c8:e8:33:f8:51:73:ad:e3:93:5b:56:
         a8:a7:cf:3e:2a:ab:73:79:16:48:d3:0d:ac:a8:4d:42:ab:93:
         92:1d:53:4b:3d:2a:9f:98:cc:d7:cd:8e:f2:74:f6:ed:1a:14:
         90:d4:59:0e:b4:55:22:8b:08:65:60:8f:92:0b:bd:ec:53:19:
         a4:99:f1:70:81:19:86:4f:e8:22:01:ef:eb:74:aa:09:33:bc:
         94:88:c0:fa:69:06:73:2b:a1:ea:06:e8:a1:b7:64:04:ef:14:
         85:8e:ad:2a
-----BEGIN CERTIFICATE-----
MIIDdzCCAl+gAwIBAgIQP15Np2YqkZ0nFfkgRj+0NzANBgkqhkiG9w0BAQsFADAW
MRQwEgYDVQQDDAt0ZWFtNzIzLW5ldDAeFw0yMTA5MTMwNDU5NTBaFw0yNDA4Mjgw
NDU5NTBaMBkxFzAVBgNVBAMMDnRlYW03MjMtc2VydmVyMIIBIjANBgkqhkiG9w0B
AQEFAAOCAQ8AMIIBCgKCAQEApONnr9MbXuLiM58t9uFZRUyDQrzpyvjEvfo7B9BG
BBRE5CcfebMldSZyHMAAB1aXEj4gVC4JG6gp2s+ZSyoQZFmn3MBS7wOX0lAZQuXj
lEE1sO0zyNfJ0LpVhPlwKG0fFz+yU36nYzZOAM7reLDfbR/L3a3PZB7sMOz2Fniq
pD461rt1ny9vAKhd8X61Nc6G6EBzeXmt/tX9vywdEGIl0b5WqdRlO0y57zsiDp+a
/uK247hn2S4svoUp6I5b3l2S5sXat2yCV7WqztOe8UCR3P9mFUpc+1jFHisi8zWQ
RoWm3Pitmb5iP3fBW5vxwLvKOhOxUWMRtOA7DqfW8z1GhQIDAQABo4G9MIG6MAkG
A1UdEwQCMAAwHQYDVR0OBBYEFM9JC4Mv7k+OoMtI73SYj98dsN07MFEGA1UdIwRK
MEiAFOKZUjFmyF/ofKQUNH1pbqKui2E0oRqkGDAWMRQwEgYDVQQDDAt0ZWFtNzIz
LW5ldIIUPa84xMSVUEmOQ3Vzr0lsO14toqYwEwYDVR0lBAwwCgYIKwYBBQUHAwEw
CwYDVR0PBAQDAgWgMBkGA1UdEQQSMBCCDnRlYW03MjMtc2VydmVyMA0GCSqGSIb3
DQEBCwUAA4IBAQDNcGQ9rX0bNj1vA028T9yQqFFNo256dpRpi4vyXxivM6mE19PJ
ml6BknWIXwj+6r5FFDXfoqRElezf2xqA3YyksBtWgiQS9xT8VBmbTz8HW4duJRok
USHvKu6U5sgesNdunbnX7SOv4xmR32+LY6/lF7TTrc6F0qmp1CBRmTMfjVax6CgR
HEgCS75CzywuipZ+AKjWMR/dyOgz+FFzreOTW1aop88+KqtzeRZI0w2sqE1Cq5OS
HVNLPSqfmMzXzY7ydPbtGhSQ1FkOtFUiiwhlYI+SC73sUxmkmfFwgRmGT+giAe/r
dKoJM7yUiMD6aQZzK6HqBuiht2QE7xSFjq0q
-----END CERTIFICATE-----
