Certificate:
    Data:
        Version: 3 (0x2)
        Serial Number:
            60:90:a7:2e:d4:39:3d:bb:dc:71:db:85:0c:1e:dd:94
        Signature Algorithm: sha256WithRSAEncryption
        Issuer: CN=team723-net
        Validity
            Not Before: Sep 13 04:59:49 2021 GMT
            Not After : Aug 28 04:59:49 2024 GMT
        Subject: CN=team723-client
        Subject Public Key Info:
            Public Key Algorithm: rsaEncryption
                RSA Public-Key: (2048 bit)
                Modulus:
                    00:e3:dd:31:ef:df:5d:39:64:ce:11:bd:b9:5e:a9:
                    4f:e3:e6:08:93:15:e4:77:92:69:9a:43:25:79:87:
                    fb:82:0f:dd:d9:5f:82:bb:f2:95:9d:90:d0:da:7a:
                    7c:aa:1b:93:87:c8:bf:fc:09:f1:e1:c3:e2:d6:a4:
                    ae:c6:8a:e0:b2:87:b8:8b:66:5b:54:96:d7:cf:6c:
                    0d:03:c9:e2:fd:d5:67:26:1e:d8:dc:88:29:60:ef:
                    43:98:7b:04:a5:7d:e7:04:fb:18:4f:73:34:6c:96:
                    65:9b:b4:79:26:b6:c5:a8:53:42:6b:94:8a:84:76:
                    c0:4f:8e:44:6b:2b:c3:17:87:94:27:a9:2b:62:bf:
                    4b:25:d3:30:fb:64:09:c5:a5:b1:85:37:80:43:a9:
                    c0:6d:ce:4e:dc:1c:ee:ec:62:4b:16:5e:38:60:af:
                    34:e1:31:22:1b:30:f3:cc:7e:01:1e:46:bd:f2:18:
                    7a:09:a1:ce:b8:31:f6:6b:25:fa:a5:90:45:32:a0:
                    a4:1c:dd:b5:b9:d0:af:22:78:ca:65:f2:3d:a1:e9:
                    fc:11:58:b4:fc:46:57:bc:01:f1:44:bc:ad:d5:6c:
                    34:39:cc:7f:ed:14:55:c4:db:61:e1:2c:8f:66:74:
                    fb:9a:2f:eb:c0:86:68:1d:f2:3c:b4:c4:45:32:57:
                    1c:cf
                Exponent: 65537 (0x10001)
        X509v3 extensions:
            X509v3 Basic Constraints: 
                CA:FALSE
            X509v3 Subject Key Identifier: 
                0F:E0:99:B2:29:E9:42:CE:E6:3A:65:FE:99:88:AD:F1:19:B3:B5:4E
            X509v3 Authority Key Identifier: 
                keyid:E2:99:52:31:66:C8:5F:E8:7C:A4:14:34:7D:69:6E:A2:AE:8B:61:34
                DirName:/CN=team723-net
                serial:3D:AF:38:C4:C4:95:50:49:8E:43:75:73:AF:49:6C:3B:5E:2D:A2:A6

            X509v3 Extended Key Usage: 
                TLS Web Client Authentication
            X509v3 Key Usage: 
                Digital Signature
    Signature Algorithm: sha256WithRSAEncryption
         64:2e:4a:18:60:b6:e4:c1:d4:01:a3:f4:d7:1e:ec:d7:19:5b:
         e4:34:29:8f:d7:54:27:e4:ae:f4:93:e7:72:4a:13:a2:66:65:
         96:81:24:07:8f:72:9f:59:5f:a0:cb:21:c3:ed:f4:5f:86:f0:
         64:62:98:c0:1d:d4:e6:bd:2d:13:19:f4:1d:a8:49:c0:d0:0d:
         e9:c3:8e:42:66:07:76:31:41:23:dc:bd:43:3d:bc:14:cb:c8:
         6a:f6:f7:2a:ef:d4:1b:7a:43:6b:66:96:7f:8f:0a:54:78:64:
         c9:8f:f6:61:07:eb:d3:9b:a6:f2:c0:1a:34:f4:13:86:5e:c2:
         67:35:23:dd:96:b4:f5:2a:56:02:43:15:b2:f3:c4:1d:74:d7:
         6c:de:62:eb:83:a9:bb:7c:fe:c5:8b:a2:29:de:13:af:19:76:
         7f:c2:5e:ee:28:02:eb:b2:5e:ce:b2:54:ff:34:f7:09:5f:60:
         dc:4d:bd:c4:c0:a6:ca:0a:aa:f9:ab:34:0f:99:05:68:10:0f:
         f4:e8:d0:c9:48:66:74:78:83:8e:e7:5a:56:60:c6:c4:ef:56:
         6c:de:d3:bc:cf:6c:39:23:58:d1:9c:a9:7e:6b:4b:6f:65:81:
         e4:f9:81:ac:93:0b:6a:29:50:ca:09:2b:48:5b:26:3b:9b:37:
         1b:51:9b:ef
-----BEGIN CERTIFICATE-----
MIIDXDCCAkSgAwIBAgIQYJCnLtQ5PbvccduFDB7dlDANBgkqhkiG9w0BAQsFADAW
MRQwEgYDVQQDDAt0ZWFtNzIzLW5ldDAeFw0yMTA5MTMwNDU5NDlaFw0yNDA4Mjgw
NDU5NDlaMBkxFzAVBgNVBAMMDnRlYW03MjMtY2xpZW50MIIBIjANBgkqhkiG9w0B
AQEFAAOCAQ8AMIIBCgKCAQEA490x799dOWTOEb25XqlP4+YIkxXkd5JpmkMleYf7
gg/d2V+Cu/KVnZDQ2np8qhuTh8i//Anx4cPi1qSuxorgsoe4i2ZbVJbXz2wNA8ni
/dVnJh7Y3IgpYO9DmHsEpX3nBPsYT3M0bJZlm7R5JrbFqFNCa5SKhHbAT45EayvD
F4eUJ6krYr9LJdMw+2QJxaWxhTeAQ6nAbc5O3Bzu7GJLFl44YK804TEiGzDzzH4B
Hka98hh6CaHOuDH2ayX6pZBFMqCkHN21udCvInjKZfI9oen8EVi0/EZXvAHxRLyt
1Ww0Ocx/7RRVxNth4SyPZnT7mi/rwIZoHfI8tMRFMlcczwIDAQABo4GiMIGfMAkG
A1UdEwQCMAAwHQYDVR0OBBYEFA/gmbIp6ULO5jpl/pmIrfEZs7VOMFEGA1UdIwRK
MEiAFOKZUjFmyF/ofKQUNH1pbqKui2E0oRqkGDAWMRQwEgYDVQQDDAt0ZWFtNzIz
LW5ldIIUPa84xMSVUEmOQ3Vzr0lsO14toqYwEwYDVR0lBAwwCgYIKwYBBQUHAwIw
CwYDVR0PBAQDAgeAMA0GCSqGSIb3DQEBCwUAA4IBAQBkLkoYYLbkwdQBo/TXHuzX
GVvkNCmP11Qn5K70k+dyShOiZmWWgSQHj3KfWV+gyyHD7fRfhvBkYpjAHdTmvS0T
GfQdqEnA0A3pw45CZgd2MUEj3L1DPbwUy8hq9vcq79QbekNrZpZ/jwpUeGTJj/Zh
B+vTm6bywBo09BOGXsJnNSPdlrT1KlYCQxWy88QddNds3mLrg6m7fP7Fi6Ip3hOv
GXZ/wl7uKALrsl7OslT/NPcJX2DcTb3EwKbKCqr5qzQPmQVoEA/06NDJSGZ0eIOO
51pWYMbE71Zs3tO8z2w5I1jRnKl+a0tvZYHk+YGskwtqKVDKCStIWyY7mzcbUZvv
-----END CERTIFICATE-----
