Certificate:
    Data:
        Version: 3 (0x2)
        Serial Number:
            52:9f:88:2e:bf:c4:40:3d:ce:84:4e:9b:77:f6:c2:69
        Signature Algorithm: sha256WithRSAEncryption
        Issuer: CN=team377-net
        Validity
            Not Before: Sep 13 02:08:25 2021 GMT
            Not After : Aug 28 02:08:25 2024 GMT
        Subject: CN=team377-server
        Subject Public Key Info:
            Public Key Algorithm: rsaEncryption
                RSA Public-Key: (2048 bit)
                Modulus:
                    00:db:a2:d5:38:fa:6e:8a:19:78:1a:55:4d:c5:15:
                    a9:eb:ec:9c:ff:60:27:b3:a3:cd:8d:61:34:e1:20:
                    0f:72:c2:74:1d:37:11:57:55:a7:90:66:0d:38:4c:
                    dc:80:d4:33:2a:09:47:fb:ab:2d:80:c0:49:2c:68:
                    30:a8:17:bb:33:c3:7c:89:c6:64:a8:3a:32:e8:95:
                    28:23:44:82:07:5f:50:c9:55:41:32:02:7d:01:e3:
                    5b:05:d8:ef:1a:0d:b3:ed:ff:02:3d:4c:32:bd:37:
                    39:10:62:a8:84:90:45:f3:0d:33:d6:5f:7e:cb:69:
                    c7:cc:e7:61:3e:fc:3b:75:ec:b2:97:fa:aa:7a:58:
                    f6:02:89:29:fe:f8:16:2e:79:6c:95:00:3a:f2:82:
                    cc:0d:76:b8:cf:f5:1e:96:06:8e:0d:40:4c:a9:4c:
                    f3:06:ac:b4:ff:df:d2:c4:73:0c:48:f4:2c:71:b8:
                    b5:1d:c2:09:31:40:15:8c:c2:6f:ac:83:50:81:1b:
                    c4:b8:50:c7:cb:e9:19:b7:ca:5a:f3:c5:88:1d:f1:
                    dc:f8:08:a2:ce:b1:51:9c:66:04:44:a5:17:b6:26:
                    79:2f:71:12:53:05:ef:6f:00:ef:3c:c8:49:0f:72:
                    79:63:dc:c6:c3:83:99:1f:4f:a1:d4:70:a0:1d:76:
                    4b:5f
                Exponent: 65537 (0x10001)
        X509v3 extensions:
            X509v3 Basic Constraints: 
                CA:FALSE
            X509v3 Subject Key Identifier: 
                5B:02:48:50:F3:6D:34:10:65:B2:11:E1:9E:84:15:40:44:FB:4F:A2
            X509v3 Authority Key Identifier: 
                keyid:99:41:43:C5:10:E9:7B:25:42:45:D7:85:E8:EA:EB:9A:B9:9D:04:17
                DirName:/CN=team377-net
                serial:3D:8C:BD:EC:5B:54:E3:41:54:6D:07:44:2E:66:04:4D:62:BE:92:F4

            X509v3 Extended Key Usage: 
                TLS Web Server Authentication
            X509v3 Key Usage: 
                Digital Signature, Key Encipherment
            X509v3 Subject Alternative Name: 
                DNS:team377-server
    Signature Algorithm: sha256WithRSAEncryption
         87:43:7a:a7:92:d7:31:38:ac:cb:5a:72:fb:7b:ec:4d:5d:99:
         dd:dd:57:a2:11:40:e8:76:80:00:b4:93:83:00:d2:dd:ed:4c:
         0a:0e:f8:dd:9c:ed:2e:f8:d7:66:12:90:42:fc:ed:64:5c:74:
         11:62:e4:74:5f:ee:79:17:b9:5d:19:01:87:e9:20:00:98:cb:
         ff:fd:b4:d5:86:a2:7d:cc:9a:ee:14:04:08:0b:b8:57:a1:4a:
         3c:35:28:57:8b:a7:dd:fb:eb:10:2f:1a:ca:b2:dd:b5:ee:ae:
         65:e2:a0:5c:1f:95:e3:2d:b7:c3:f8:97:20:9f:c5:40:cf:d8:
         dc:87:84:44:e3:96:a9:46:26:14:07:a4:76:79:bc:ad:4e:08:
         29:24:2e:28:cf:d1:37:0e:35:7f:36:6f:7c:8f:f8:7e:ab:40:
         74:b4:9e:bb:01:74:a2:5b:f5:49:e4:14:32:3b:0f:e4:f5:02:
         52:6b:09:60:b9:f8:74:44:5a:18:b6:f3:28:87:df:eb:23:26:
         a8:aa:b3:19:65:bb:70:44:4f:86:b3:0d:fc:b5:b3:42:fb:3c:
         03:63:e5:d7:82:f5:ea:db:84:9c:8a:20:06:29:4c:76:08:23:
         da:47:32:a8:81:3d:7e:a7:bd:24:d7:f3:79:49:f7:44:06:7f:
         03:04:61:02
-----BEGIN CERTIFICATE-----
MIIDdzCCAl+gAwIBAgIQUp+ILr/EQD3OhE6bd/bCaTANBgkqhkiG9w0BAQsFADAW
MRQwEgYDVQQDDAt0ZWFtMzc3LW5ldDAeFw0yMTA5MTMwMjA4MjVaFw0yNDA4Mjgw
MjA4MjVaMBkxFzAVBgNVBAMMDnRlYW0zNzctc2VydmVyMIIBIjANBgkqhkiG9w0B
AQEFAAOCAQ8AMIIBCgKCAQEA26LVOPpuihl4GlVNxRWp6+yc/2Ans6PNjWE04SAP
csJ0HTcRV1WnkGYNOEzcgNQzKglH+6stgMBJLGgwqBe7M8N8icZkqDoy6JUoI0SC
B19QyVVBMgJ9AeNbBdjvGg2z7f8CPUwyvTc5EGKohJBF8w0z1l9+y2nHzOdhPvw7
deyyl/qqelj2Aokp/vgWLnlslQA68oLMDXa4z/UelgaODUBMqUzzBqy0/9/SxHMM
SPQscbi1HcIJMUAVjMJvrINQgRvEuFDHy+kZt8pa88WIHfHc+AiizrFRnGYERKUX
tiZ5L3ESUwXvbwDvPMhJD3J5Y9zGw4OZH0+h1HCgHXZLXwIDAQABo4G9MIG6MAkG
A1UdEwQCMAAwHQYDVR0OBBYEFFsCSFDzbTQQZbIR4Z6EFUBE+0+iMFEGA1UdIwRK
MEiAFJlBQ8UQ6XslQkXXhejq65q5nQQXoRqkGDAWMRQwEgYDVQQDDAt0ZWFtMzc3
LW5ldIIUPYy97FtU40FUbQdELmYETWK+kvQwEwYDVR0lBAwwCgYIKwYBBQUHAwEw
CwYDVR0PBAQDAgWgMBkGA1UdEQQSMBCCDnRlYW0zNzctc2VydmVyMA0GCSqGSIb3
DQEBCwUAA4IBAQCHQ3qnktcxOKzLWnL7e+xNXZnd3VeiEUDodoAAtJODANLd7UwK
DvjdnO0u+NdmEpBC/O1kXHQRYuR0X+55F7ldGQGH6SAAmMv//bTVhqJ9zJruFAQI
C7hXoUo8NShXi6fd++sQLxrKst217q5l4qBcH5XjLbfD+Jcgn8VAz9jch4RE45ap
RiYUB6R2ebytTggpJC4oz9E3DjV/Nm98j/h+q0B0tJ67AXSiW/VJ5BQyOw/k9QJS
awlgufh0RFoYtvMoh9/rIyaoqrMZZbtwRE+Gsw38tbNC+zwDY+XXgvXq24SciiAG
KUx2CCPaRzKogT1+p70k1/N5SfdEBn8DBGEC
-----END CERTIFICATE-----
