Certificate:
    Data:
        Version: 3 (0x2)
        Serial Number:
            57:6b:c4:ff:41:6a:12:78:09:23:40:c7:00:a4:25:a4
        Signature Algorithm: sha256WithRSAEncryption
        Issuer: CN=team420-net
        Validity
            Not Before: Sep 13 02:34:51 2021 GMT
            Not After : Aug 28 02:34:51 2024 GMT
        Subject: CN=team420-client
        Subject Public Key Info:
            Public Key Algorithm: rsaEncryption
                RSA Public-Key: (2048 bit)
                Modulus:
                    00:cc:8d:08:ef:f7:9c:52:f0:96:b9:ec:2f:cf:65:
                    0f:59:27:8f:72:02:11:49:16:25:f7:ca:7b:08:56:
                    ac:81:32:c7:17:8e:47:32:5a:66:66:f3:48:39:f7:
                    8e:e4:93:79:d4:5c:dc:bc:7e:81:88:01:57:a6:da:
                    97:5f:58:d1:f1:56:39:ee:4a:b7:2a:ce:ec:00:1b:
                    65:6e:35:f4:59:de:11:a8:45:95:74:0b:29:a5:84:
                    19:a4:00:cb:a2:99:e8:57:77:74:c5:9f:cc:d8:10:
                    b7:d4:30:79:8b:30:5b:78:e7:59:47:6e:93:56:85:
                    0d:06:84:02:21:d8:c9:3a:f6:60:df:cf:81:42:6e:
                    a2:41:5e:75:d2:d7:83:65:93:28:75:c1:00:7b:f6:
                    6f:70:f5:15:6a:b9:7a:51:2f:d2:3e:5f:dd:2a:b3:
                    87:5e:3d:07:16:44:58:59:bf:36:36:25:bd:91:b4:
                    98:f7:a2:0f:cc:b9:3a:9f:27:13:a1:c1:24:c6:e6:
                    a6:cb:87:2b:0f:f4:a1:93:dc:53:a3:a1:6d:65:0e:
                    f8:97:65:40:de:bb:1f:31:f5:00:de:78:bc:22:fb:
                    bb:51:e0:3e:8d:53:85:37:6f:c1:0b:77:b5:9c:db:
                    05:0f:9e:91:a3:23:c0:b6:ac:a6:b6:37:e0:c9:d3:
                    e8:03
                Exponent: 65537 (0x10001)
        X509v3 extensions:
            X509v3 Basic Constraints: 
                CA:FALSE
            X509v3 Subject Key Identifier: 
                3E:1C:8F:08:15:F7:F2:D0:0B:38:3E:03:DA:3D:22:D5:74:EF:4D:7D
            X509v3 Authority Key Identifier: 
                keyid:59:05:98:53:22:B2:93:0D:56:CE:21:C0:E9:B4:FA:20:6C:00:D2:92
                DirName:/CN=team420-net
                serial:33:DA:B8:09:D6:93:4F:0F:8E:F6:CA:4F:FF:13:D7:59:32:47:1E:B2

            X509v3 Extended Key Usage: 
                TLS Web Client Authentication
            X509v3 Key Usage: 
                Digital Signature
    Signature Algorithm: sha256WithRSAEncryption
         11:64:7a:be:87:40:3a:92:36:31:a2:26:c1:db:7e:70:34:53:
         37:68:15:d2:ff:2d:46:e1:8d:9b:64:88:f0:fe:24:6a:db:21:
         80:79:a1:3e:f9:41:ca:2e:f2:48:7a:91:bc:35:53:5e:fd:c7:
         8c:f6:ad:37:a2:25:d6:d5:b4:e9:25:1b:3f:89:15:34:e8:cd:
         4e:4d:9a:59:6d:54:ee:20:5a:65:56:4c:51:42:a3:00:30:be:
         da:bc:22:92:5a:a4:8f:d1:10:e1:9d:4b:1b:fc:f9:b8:3e:46:
         2a:f3:d9:bf:b9:90:1e:c5:4f:b2:bd:2e:a9:f8:28:3d:cb:94:
         e3:77:dc:60:9f:fd:b6:ee:a2:ac:d5:90:1e:5c:d2:eb:81:f7:
         1c:04:0a:e5:0b:d1:88:b1:d7:7b:62:28:4f:b6:69:42:b8:13:
         3e:fa:94:b2:16:f9:e0:b0:3d:f4:1c:51:99:58:d7:86:32:90:
         b2:fb:5e:56:60:1b:21:ed:9f:f3:56:26:d3:ac:9d:32:06:fd:
         37:08:14:d0:68:8d:ae:35:f6:0e:e9:e3:0a:d1:f1:b8:d9:25:
         64:2c:0d:d8:bb:0f:76:c3:73:7f:e1:d4:b2:fc:a5:45:4f:64:
         5e:bd:e6:32:f6:3e:08:34:3b:cf:91:30:ff:84:5a:aa:e6:39:
         62:16:fa:e5
-----BEGIN CERTIFICATE-----
MIIDXDCCAkSgAwIBAgIQV2vE/0FqEngJI0DHAKQlpDANBgkqhkiG9w0BAQsFADAW
MRQwEgYDVQQDDAt0ZWFtNDIwLW5ldDAeFw0yMTA5MTMwMjM0NTFaFw0yNDA4Mjgw
MjM0NTFaMBkxFzAVBgNVBAMMDnRlYW00MjAtY2xpZW50MIIBIjANBgkqhkiG9w0B
AQEFAAOCAQ8AMIIBCgKCAQEAzI0I7/ecUvCWuewvz2UPWSePcgIRSRYl98p7CFas
gTLHF45HMlpmZvNIOfeO5JN51FzcvH6BiAFXptqXX1jR8VY57kq3Ks7sABtlbjX0
Wd4RqEWVdAsppYQZpADLopnoV3d0xZ/M2BC31DB5izBbeOdZR26TVoUNBoQCIdjJ
OvZg38+BQm6iQV510teDZZModcEAe/ZvcPUVarl6US/SPl/dKrOHXj0HFkRYWb82
NiW9kbSY96IPzLk6nycTocEkxuamy4crD/Shk9xTo6FtZQ74l2VA3rsfMfUA3ni8
Ivu7UeA+jVOFN2/BC3e1nNsFD56RoyPAtqymtjfgydPoAwIDAQABo4GiMIGfMAkG
A1UdEwQCMAAwHQYDVR0OBBYEFD4cjwgV9/LQCzg+A9o9ItV07019MFEGA1UdIwRK
MEiAFFkFmFMispMNVs4hwOm0+iBsANKSoRqkGDAWMRQwEgYDVQQDDAt0ZWFtNDIw
LW5ldIIUM9q4CdaTTw+O9spP/xPXWTJHHrIwEwYDVR0lBAwwCgYIKwYBBQUHAwIw
CwYDVR0PBAQDAgeAMA0GCSqGSIb3DQEBCwUAA4IBAQARZHq+h0A6kjYxoibB235w
NFM3aBXS/y1G4Y2bZIjw/iRq2yGAeaE++UHKLvJIepG8NVNe/ceM9q03oiXW1bTp
JRs/iRU06M1OTZpZbVTuIFplVkxRQqMAML7avCKSWqSP0RDhnUsb/Pm4PkYq89m/
uZAexU+yvS6p+Cg9y5Tjd9xgn/227qKs1ZAeXNLrgfccBArlC9GIsdd7YihPtmlC
uBM++pSyFvngsD30HFGZWNeGMpCy+15WYBsh7Z/zVibTrJ0yBv03CBTQaI2uNfYO
6eMK0fG42SVkLA3Yuw92w3N/4dSy/KVFT2ReveYy9j4INDvPkTD/hFqq5jliFvrl
-----END CERTIFICATE-----
