Certificate:
    Data:
        Version: 3 (0x2)
        Serial Number:
            0b:52:ee:66:43:24:b7:de:37:37:73:2c:c7:70:73:ff
        Signature Algorithm: sha256WithRSAEncryption
        Issuer: CN=team337-net
        Validity
            Not Before: Sep 13 01:54:08 2021 GMT
            Not After : Aug 28 01:54:08 2024 GMT
        Subject: CN=team337-client
        Subject Public Key Info:
            Public Key Algorithm: rsaEncryption
                RSA Public-Key: (2048 bit)
                Modulus:
                    00:c0:d1:72:4d:a7:64:5c:6a:41:bf:95:e6:46:b5:
                    fb:b6:2d:44:5d:c6:51:1f:22:22:df:93:f2:29:70:
                    1a:18:b2:2c:35:5b:d6:84:48:d3:6f:75:f4:ac:88:
                    bc:03:26:5d:f9:b2:17:0c:6f:c6:e2:70:1a:fb:ae:
                    9c:0e:6b:31:16:2f:ba:ae:f3:7e:6a:fe:6e:bc:b3:
                    53:3c:71:91:c5:f7:ed:62:52:26:61:e7:d1:2c:04:
                    e4:9a:34:f3:65:17:1c:e0:c3:5d:bb:26:c3:7e:74:
                    86:88:1e:3f:0a:98:53:ee:22:31:56:74:64:5f:bf:
                    55:d2:50:2c:60:69:4c:87:7c:89:37:b6:00:3d:e6:
                    a7:8a:a1:38:ba:37:30:aa:01:7e:be:be:51:c6:56:
                    44:ed:c9:ee:6d:fb:04:ae:83:49:35:b2:d6:06:a2:
                    33:1f:79:55:63:ef:fe:b7:ee:c4:fe:d4:47:ef:75:
                    b2:21:8d:cb:26:1d:9e:cf:1a:ef:a4:cf:3f:6a:e1:
                    fd:c7:cf:66:30:76:95:43:4f:2b:3f:d1:53:a6:82:
                    66:24:49:36:c1:8b:5b:81:ff:73:d7:69:21:23:02:
                    79:95:34:a4:54:60:7b:de:32:82:5b:bd:94:f6:61:
                    85:46:c4:cb:bc:cd:41:e0:45:43:cd:bd:f1:c4:58:
                    4a:b3
                Exponent: 65537 (0x10001)
        X509v3 extensions:
            X509v3 Basic Constraints: 
                CA:FALSE
            X509v3 Subject Key Identifier: 
                7F:81:6E:D3:05:7F:9A:0A:EE:97:3D:AF:FB:67:80:42:56:3F:41:71
            X509v3 Authority Key Identifier: 
                keyid:0E:54:EB:95:FE:D5:C8:05:3E:55:DC:17:62:CB:63:5A:20:06:3E:05
                DirName:/CN=team337-net
                serial:1C:CD:06:0A:98:5F:61:18:CE:A5:F8:68:11:B8:39:77:07:B1:93:20

            X509v3 Extended Key Usage: 
                TLS Web Client Authentication
            X509v3 Key Usage: 
                Digital Signature
    Signature Algorithm: sha256WithRSAEncryption
         2c:39:68:66:14:b7:23:73:2e:e2:cd:b6:91:52:0a:bf:c1:43:
         5a:16:67:6f:41:55:f3:83:e8:bb:b5:0f:cb:3e:0f:0e:dd:15:
         81:b4:e1:c4:58:56:f5:f4:c9:f0:5a:7d:3a:6f:31:b9:d7:27:
         97:87:34:c0:f7:0b:c3:02:80:8b:fc:45:6f:12:7d:76:57:5c:
         2b:f9:c7:f4:ba:e5:bb:64:f7:cc:d7:54:31:0b:2e:f1:ac:7d:
         fe:81:5e:49:69:0a:a7:13:1b:29:95:5f:b8:54:0c:ef:1a:85:
         76:80:63:46:0f:de:5f:41:ae:4a:e8:64:98:13:1c:82:ba:f6:
         ce:ed:82:75:23:d1:a6:b2:dd:e0:64:d2:bf:88:68:26:60:0b:
         5a:6f:45:18:98:6a:95:0f:0c:28:6b:59:fe:c1:7e:14:30:e9:
         b5:ff:0d:28:9a:24:fe:23:82:01:23:d5:4a:19:44:1a:e0:d4:
         46:44:b6:a2:06:45:1e:77:9d:d0:e9:bc:2a:b6:0f:16:a4:7b:
         f3:6d:60:40:60:13:c8:25:ac:a3:9f:93:3d:38:06:0c:76:2f:
         fc:2d:c3:71:e9:12:28:a7:23:8c:60:92:5a:3c:29:4a:78:b2:
         87:4f:f8:0e:ed:23:3e:f1:11:16:26:23:da:97:b2:96:ac:76:
         01:72:2e:f8
-----BEGIN CERTIFICATE-----
MIIDXDCCAkSgAwIBAgIQC1LuZkMkt943N3Msx3Bz/zANBgkqhkiG9w0BAQsFADAW
MRQwEgYDVQQDDAt0ZWFtMzM3LW5ldDAeFw0yMTA5MTMwMTU0MDhaFw0yNDA4Mjgw
MTU0MDhaMBkxFzAVBgNVBAMMDnRlYW0zMzctY2xpZW50MIIBIjANBgkqhkiG9w0B
AQEFAAOCAQ8AMIIBCgKCAQEAwNFyTadkXGpBv5XmRrX7ti1EXcZRHyIi35PyKXAa
GLIsNVvWhEjTb3X0rIi8AyZd+bIXDG/G4nAa+66cDmsxFi+6rvN+av5uvLNTPHGR
xfftYlImYefRLATkmjTzZRcc4MNduybDfnSGiB4/CphT7iIxVnRkX79V0lAsYGlM
h3yJN7YAPeaniqE4ujcwqgF+vr5RxlZE7cnubfsEroNJNbLWBqIzH3lVY+/+t+7E
/tRH73WyIY3LJh2ezxrvpM8/auH9x89mMHaVQ08rP9FTpoJmJEk2wYtbgf9z12kh
IwJ5lTSkVGB73jKCW72U9mGFRsTLvM1B4EVDzb3xxFhKswIDAQABo4GiMIGfMAkG
A1UdEwQCMAAwHQYDVR0OBBYEFH+BbtMFf5oK7pc9r/tngEJWP0FxMFEGA1UdIwRK
MEiAFA5U65X+1cgFPlXcF2LLY1ogBj4FoRqkGDAWMRQwEgYDVQQDDAt0ZWFtMzM3
LW5ldIIUHM0GCphfYRjOpfhoEbg5dwexkyAwEwYDVR0lBAwwCgYIKwYBBQUHAwIw
CwYDVR0PBAQDAgeAMA0GCSqGSIb3DQEBCwUAA4IBAQAsOWhmFLcjcy7izbaRUgq/
wUNaFmdvQVXzg+i7tQ/LPg8O3RWBtOHEWFb19MnwWn06bzG51yeXhzTA9wvDAoCL
/EVvEn12V1wr+cf0uuW7ZPfM11QxCy7xrH3+gV5JaQqnExsplV+4VAzvGoV2gGNG
D95fQa5K6GSYExyCuvbO7YJ1I9Gmst3gZNK/iGgmYAtab0UYmGqVDwwoa1n+wX4U
MOm1/w0omiT+I4IBI9VKGUQa4NRGRLaiBkUed53Q6bwqtg8WpHvzbWBAYBPIJayj
n5M9OAYMdi/8LcNx6RIopyOMYJJaPClKeLKHT/gO7SM+8REWJiPal7KWrHYBci74
-----END CERTIFICATE-----
