Certificate:
    Data:
        Version: 3 (0x2)
        Serial Number:
            81:d3:fe:a7:a1:3d:b5:d5:87:6d:89:9b:aa:a4:d6:fe
        Signature Algorithm: sha256WithRSAEncryption
        Issuer: CN=team325-net
        Validity
            Not Before: Sep 13 01:43:47 2021 GMT
            Not After : Aug 28 01:43:47 2024 GMT
        Subject: CN=team325-client
        Subject Public Key Info:
            Public Key Algorithm: rsaEncryption
                RSA Public-Key: (2048 bit)
                Modulus:
                    00:e6:c4:93:8c:38:2a:f8:fb:25:03:66:9e:a6:cb:
                    de:0a:55:5c:24:bc:7d:69:b4:ae:8d:0f:da:92:f6:
                    8a:48:c4:8a:7c:d7:02:eb:37:bd:8d:ed:54:f4:3e:
                    70:6e:b7:37:91:1b:65:88:a2:e8:21:cd:fd:aa:b1:
                    e2:39:bc:8a:48:94:56:84:f2:12:15:68:72:7e:a2:
                    01:f4:bb:2a:c3:99:da:52:93:f1:fe:43:3f:b5:c4:
                    9e:15:56:b8:53:bf:3c:ef:7f:fd:e8:52:91:c2:01:
                    97:78:6a:71:77:9c:37:d5:77:f4:c2:c0:22:30:53:
                    8a:1e:06:7b:0e:f6:cf:f1:67:62:71:70:f9:61:6a:
                    92:d5:3b:81:f9:1d:8b:25:7f:7f:66:05:99:e9:48:
                    7d:86:d5:97:0c:88:a7:94:cc:db:93:3d:56:3f:0e:
                    77:be:4b:e6:ac:28:d6:4c:17:c8:d8:67:de:2f:d5:
                    52:fc:fe:1f:b9:9a:79:e9:35:4e:15:f3:1e:08:a6:
                    ea:53:4f:74:fc:6e:70:af:67:17:9e:ba:eb:b7:b0:
                    bb:ee:f0:22:53:08:51:31:1b:f4:d5:3a:ae:af:16:
                    15:03:56:dc:a6:52:b3:87:fd:2d:a1:80:a5:8b:ac:
                    cd:9b:c1:4d:cf:bc:2a:71:83:0c:9b:3e:96:4c:1f:
                    ed:31
                Exponent: 65537 (0x10001)
        X509v3 extensions:
            X509v3 Basic Constraints: 
                CA:FALSE
            X509v3 Subject Key Identifier: 
                CA:4B:15:34:B2:FD:CC:94:0E:84:B4:7E:F5:93:20:57:D6:49:5D:9D
            X509v3 Authority Key Identifier: 
                keyid:DD:48:F9:70:4D:B4:97:88:7A:E8:27:45:1A:77:2C:3D:CB:CC:DA:6B
                DirName:/CN=team325-net
                serial:36:49:44:06:62:17:CF:D3:88:0E:5F:0E:D6:8C:01:6A:0B:AE:0E:B4

            X509v3 Extended Key Usage: 
                TLS Web Client Authentication
            X509v3 Key Usage: 
                Digital Signature
    Signature Algorithm: sha256WithRSAEncryption
         61:59:f2:8b:45:cb:dd:fd:93:88:45:42:d5:c7:a4:96:3e:d0:
         91:19:3c:8a:25:11:24:68:0c:53:d0:09:63:4b:c9:d6:0c:17:
         23:95:aa:da:00:f5:17:7d:6b:e0:01:6b:66:a0:5d:08:b0:09:
         f8:29:04:01:71:23:f4:23:61:a0:df:f6:ae:9f:00:c1:9d:fb:
         45:1f:15:4d:74:cc:d5:84:c6:5a:ee:35:82:6a:76:ed:c2:c5:
         85:ec:13:0d:e4:f8:67:00:f6:c4:23:85:c6:85:77:87:6f:e9:
         93:93:9d:a1:85:e5:e3:18:ff:cb:d2:75:ee:53:b3:3e:b6:e2:
         49:ea:2e:40:c6:bc:aa:83:0a:11:11:97:af:77:d9:45:7e:30:
         8b:7d:3f:87:c4:c7:0a:00:43:e6:9a:16:07:db:c7:85:7b:11:
         4f:3b:92:f7:0d:0e:96:fb:e6:36:68:a3:8d:58:60:b7:66:ff:
         68:47:75:60:a0:48:a1:33:ed:ec:5f:d3:18:f8:ea:82:81:c1:
         35:76:c4:56:bb:e8:c1:dc:e9:a3:65:39:ba:72:25:0e:63:d8:
         43:ab:48:52:64:25:3e:a4:d2:c4:f2:73:5f:96:41:3d:36:52:
         0c:84:cf:81:dd:d6:5b:eb:92:ab:ed:d5:a5:b1:1d:a8:61:6d:
         7e:7f:70:bc
-----BEGIN CERTIFICATE-----
MIIDXTCCAkWgAwIBAgIRAIHT/qehPbXVh22Jm6qk1v4wDQYJKoZIhvcNAQELBQAw
FjEUMBIGA1UEAwwLdGVhbTMyNS1uZXQwHhcNMjEwOTEzMDE0MzQ3WhcNMjQwODI4
MDE0MzQ3WjAZMRcwFQYDVQQDDA50ZWFtMzI1LWNsaWVudDCCASIwDQYJKoZIhvcN
AQEBBQADggEPADCCAQoCggEBAObEk4w4Kvj7JQNmnqbL3gpVXCS8fWm0ro0P2pL2
ikjEinzXAus3vY3tVPQ+cG63N5EbZYii6CHN/aqx4jm8ikiUVoTyEhVocn6iAfS7
KsOZ2lKT8f5DP7XEnhVWuFO/PO9//ehSkcIBl3hqcXecN9V39MLAIjBTih4Gew72
z/FnYnFw+WFqktU7gfkdiyV/f2YFmelIfYbVlwyIp5TM25M9Vj8Od75L5qwo1kwX
yNhn3i/VUvz+H7maeek1ThXzHgim6lNPdPxucK9nF56667ewu+7wIlMIUTEb9NU6
rq8WFQNW3KZSs4f9LaGApYuszZvBTc+8KnGDDJs+lkwf7TECAwEAAaOBojCBnzAJ
BgNVHRMEAjAAMB0GA1UdDgQWBBTKSxU0sv3MlA6EtH71kyBX1kldnTBRBgNVHSME
SjBIgBTdSPlwTbSXiHroJ0Uadyw9y8zaa6EapBgwFjEUMBIGA1UEAwwLdGVhbTMy
NS1uZXSCFDZJRAZiF8/TiA5fDtaMAWoLrg60MBMGA1UdJQQMMAoGCCsGAQUFBwMC
MAsGA1UdDwQEAwIHgDANBgkqhkiG9w0BAQsFAAOCAQEAYVnyi0XL3f2TiEVC1cek
lj7QkRk8iiURJGgMU9AJY0vJ1gwXI5Wq2gD1F31r4AFrZqBdCLAJ+CkEAXEj9CNh
oN/2rp8AwZ37RR8VTXTM1YTGWu41gmp27cLFhewTDeT4ZwD2xCOFxoV3h2/pk5Od
oYXl4xj/y9J17lOzPrbiSeouQMa8qoMKERGXr3fZRX4wi30/h8THCgBD5poWB9vH
hXsRTzuS9w0OlvvmNmijjVhgt2b/aEd1YKBIoTPt7F/TGPjqgoHBNXbEVrvowdzp
o2U5unIlDmPYQ6tIUmQlPqTSxPJzX5ZBPTZSDITPgd3WW+uSq+3VpbEdqGFtfn9w
vA==
-----END CERTIFICATE-----
