Certificate:
    Data:
        Version: 3 (0x2)
        Serial Number:
            0b:f4:91:a4:ee:41:ca:d5:28:5b:5a:6a:6e:d2:c2:de
        Signature Algorithm: sha256WithRSAEncryption
        Issuer: CN=team242-net
        Validity
            Not Before: Sep 13 00:58:28 2021 GMT
            Not After : Aug 28 00:58:28 2024 GMT
        Subject: CN=team242-client
        Subject Public Key Info:
            Public Key Algorithm: rsaEncryption
                RSA Public-Key: (2048 bit)
                Modulus:
                    00:c4:e5:23:2d:95:76:fe:90:7e:d7:e4:80:9f:11:
                    e9:31:28:35:5e:ff:d2:b1:f6:d1:89:9c:20:6e:b0:
                    ae:8e:df:45:87:c0:d4:df:9e:aa:32:9e:3e:21:50:
                    e4:b9:01:d3:f7:14:89:1b:4e:52:a6:9b:c1:be:da:
                    d9:41:89:60:c2:4c:22:3f:fa:e4:2c:82:69:9d:c9:
                    2e:be:9c:72:bc:6a:ab:b7:4b:6d:1b:ab:fc:1b:3d:
                    8d:0c:bb:ff:d2:4c:f8:62:20:fc:10:87:66:24:1f:
                    57:af:ee:f4:c7:92:9a:11:47:e1:2a:84:ee:29:f7:
                    90:b3:50:c4:3c:94:6d:3c:c7:3e:85:41:f5:c0:fd:
                    1a:7b:66:85:19:87:b1:39:16:82:2c:a8:1f:98:e0:
                    26:0d:e4:e6:3c:0f:c8:66:ae:1a:27:64:d2:98:7d:
                    27:f2:dd:da:51:f4:49:86:df:f4:38:16:3e:3d:da:
                    f9:76:7a:ec:b9:93:69:7f:ff:89:7c:28:2e:da:22:
                    c7:83:2d:40:d7:2f:bf:cb:8e:df:6f:44:1a:98:91:
                    28:f1:1c:1c:71:82:4d:97:64:9a:13:7e:51:d6:e3:
                    db:00:4d:d4:7f:32:88:df:b6:cd:6f:4a:f1:48:63:
                    b3:e7:c7:70:91:ad:92:67:e5:13:2c:f1:5b:45:41:
                    70:0d
                Exponent: 65537 (0x10001)
        X509v3 extensions:
            X509v3 Basic Constraints: 
                CA:FALSE
            X509v3 Subject Key Identifier: 
                FE:B8:5E:1B:8D:9C:A3:47:E4:17:D5:91:B9:B0:A5:DB:B1:27:CC:08
            X509v3 Authority Key Identifier: 
                keyid:A1:F8:05:09:C4:A5:08:5F:6C:89:60:2E:3E:4A:18:38:ED:62:CE:22
                DirName:/CN=team242-net
                serial:3C:FA:22:CE:73:AD:29:EC:98:4E:D3:EB:18:EF:DA:68:54:9B:0E:92

            X509v3 Extended Key Usage: 
                TLS Web Client Authentication
            X509v3 Key Usage: 
                Digital Signature
    Signature Algorithm: sha256WithRSAEncryption
         b4:42:4b:4d:7c:f2:77:e7:e3:4b:59:8c:70:a7:d8:dd:19:99:
         6a:e8:97:07:c2:b7:65:76:a0:10:7c:fd:88:87:3e:5e:35:bb:
         f5:d2:5b:fd:30:8a:74:2e:2b:5e:58:56:e7:5b:08:46:65:8c:
         eb:4d:7c:b8:c6:ce:cf:e9:db:75:dd:fe:70:5f:9b:dd:4a:12:
         96:d0:28:24:77:1a:dd:59:d5:94:69:cb:b9:0b:11:40:ba:2b:
         6e:e8:e5:a6:cf:98:78:7e:83:62:c5:b2:3f:ba:e5:ac:44:06:
         86:d3:65:8e:d8:9d:7a:29:ee:a1:01:a1:d0:fd:1e:1f:0f:1b:
         d9:68:52:66:3c:f9:c4:f2:e5:b2:2a:ab:3e:26:97:63:fc:6f:
         b6:f4:3f:08:9c:b0:f8:cc:a7:d6:d6:8f:c7:8d:92:73:d7:d4:
         38:99:94:bb:09:fa:2b:a1:2e:31:f6:cf:1c:9c:90:bf:89:50:
         ad:14:d4:4a:5f:03:52:7c:a2:e4:63:90:4e:f8:56:ab:a8:2c:
         f8:73:64:96:67:c2:04:69:ad:80:29:28:13:ce:82:ee:03:ed:
         77:0b:2f:72:7b:f8:c8:9e:54:98:b9:31:86:02:ff:31:75:1b:
         52:ed:32:88:9e:42:a9:84:dd:49:56:9a:cf:0a:0e:28:1a:9d:
         a1:70:e0:90
-----BEGIN CERTIFICATE-----
MIIDXDCCAkSgAwIBAgIQC/SRpO5BytUoW1pqbtLC3jANBgkqhkiG9w0BAQsFADAW
MRQwEgYDVQQDDAt0ZWFtMjQyLW5ldDAeFw0yMTA5MTMwMDU4MjhaFw0yNDA4Mjgw
MDU4MjhaMBkxFzAVBgNVBAMMDnRlYW0yNDItY2xpZW50MIIBIjANBgkqhkiG9w0B
AQEFAAOCAQ8AMIIBCgKCAQEAxOUjLZV2/pB+1+SAnxHpMSg1Xv/SsfbRiZwgbrCu
jt9Fh8DU356qMp4+IVDkuQHT9xSJG05SppvBvtrZQYlgwkwiP/rkLIJpnckuvpxy
vGqrt0ttG6v8Gz2NDLv/0kz4YiD8EIdmJB9Xr+70x5KaEUfhKoTuKfeQs1DEPJRt
PMc+hUH1wP0ae2aFGYexORaCLKgfmOAmDeTmPA/IZq4aJ2TSmH0n8t3aUfRJht/0
OBY+Pdr5dnrsuZNpf/+JfCgu2iLHgy1A1y+/y47fb0QamJEo8RwccYJNl2SaE35R
1uPbAE3UfzKI37bNb0rxSGOz58dwka2SZ+UTLPFbRUFwDQIDAQABo4GiMIGfMAkG
A1UdEwQCMAAwHQYDVR0OBBYEFP64XhuNnKNH5BfVkbmwpduxJ8wIMFEGA1UdIwRK
MEiAFKH4BQnEpQhfbIlgLj5KGDjtYs4ioRqkGDAWMRQwEgYDVQQDDAt0ZWFtMjQy
LW5ldIIUPPoiznOtKeyYTtPrGO/aaFSbDpIwEwYDVR0lBAwwCgYIKwYBBQUHAwIw
CwYDVR0PBAQDAgeAMA0GCSqGSIb3DQEBCwUAA4IBAQC0QktNfPJ35+NLWYxwp9jd
GZlq6JcHwrdldqAQfP2Ihz5eNbv10lv9MIp0LiteWFbnWwhGZYzrTXy4xs7P6dt1
3f5wX5vdShKW0CgkdxrdWdWUacu5CxFAuitu6OWmz5h4foNixbI/uuWsRAaG02WO
2J16Ke6hAaHQ/R4fDxvZaFJmPPnE8uWyKqs+Jpdj/G+29D8InLD4zKfW1o/HjZJz
19Q4mZS7CforoS4x9s8cnJC/iVCtFNRKXwNSfKLkY5BO+FarqCz4c2SWZ8IEaa2A
KSgTzoLuA+13Cy9ye/jInlSYuTGGAv8xdRtS7TKInkKphN1JVprPCg4oGp2hcOCQ
-----END CERTIFICATE-----
