Certificate:
    Data:
        Version: 3 (0x2)
        Serial Number:
            f9:e6:80:f0:da:29:a2:88:0d:8d:98:fe:40:34:b3:8d
        Signature Algorithm: sha256WithRSAEncryption
        Issuer: CN=team338-net
        Validity
            Not Before: Sep 13 01:54:24 2021 GMT
            Not After : Aug 28 01:54:24 2024 GMT
        Subject: CN=team338-client
        Subject Public Key Info:
            Public Key Algorithm: rsaEncryption
                RSA Public-Key: (2048 bit)
                Modulus:
                    00:d2:cc:89:70:f1:b4:ce:1e:93:7a:e0:7d:48:29:
                    ed:21:cf:6d:c0:43:c9:de:4c:f6:84:53:4a:69:8c:
                    84:7d:6b:07:84:94:8f:42:d0:29:8c:81:af:62:89:
                    f2:6c:96:bf:3c:99:68:9c:0d:9b:ba:c3:30:3d:48:
                    3e:f1:80:73:b3:4e:86:85:c8:33:ce:58:8a:de:8e:
                    01:c8:aa:be:fe:d6:47:57:b4:70:c7:37:c4:65:a2:
                    a9:f1:e8:4a:ae:04:43:ab:c4:da:9d:5f:eb:ec:ad:
                    83:87:a1:91:57:40:af:cc:15:42:40:de:3b:b3:c8:
                    01:65:0f:d6:99:ed:e5:6f:a1:45:7f:7d:f5:67:b6:
                    3a:52:b9:4e:2d:c3:ed:57:60:a4:1c:8d:6e:71:9e:
                    1e:42:ee:4e:c2:76:ae:cc:22:e7:e0:bb:94:55:80:
                    e1:aa:6d:17:86:a5:72:b0:27:ea:8e:6f:be:12:c3:
                    39:a1:27:d5:fa:70:92:86:30:a1:83:f3:03:48:be:
                    64:e7:f1:38:d4:35:83:a6:d8:57:b8:e1:2c:c3:ce:
                    f4:86:57:7e:72:2e:90:d2:d8:c9:62:0a:57:03:f1:
                    df:88:c1:f1:19:e1:b8:c8:eb:8d:f9:ce:b0:a9:51:
                    bf:1e:c8:a4:b8:53:da:9e:3d:a5:e5:df:8b:ec:17:
                    16:ff
                Exponent: 65537 (0x10001)
        X509v3 extensions:
            X509v3 Basic Constraints: 
                CA:FALSE
            X509v3 Subject Key Identifier: 
                4F:6D:C3:7C:00:FF:32:EE:53:5E:07:4A:CC:5D:C5:20:61:41:16:32
            X509v3 Authority Key Identifier: 
                keyid:4A:D7:04:03:1C:66:F5:CE:35:7F:3B:E2:72:02:88:5F:AD:B5:DF:54
                DirName:/CN=team338-net
                serial:0D:8E:4D:17:22:32:F5:97:C8:A3:C4:F5:B5:A3:F0:96:32:3C:D2:4B

            X509v3 Extended Key Usage: 
                TLS Web Client Authentication
            X509v3 Key Usage: 
                Digital Signature
    Signature Algorithm: sha256WithRSAEncryption
         a2:ca:b2:e2:1f:81:1b:3c:65:84:54:a6:aa:5b:4a:79:11:5d:
         ea:b7:be:0d:6c:1b:bf:78:ed:e0:66:ab:a7:e7:08:e2:83:1a:
         a1:b3:19:2c:1d:f8:4e:83:bb:91:74:51:2e:9f:a3:15:21:72:
         98:39:d1:37:8a:e2:96:76:0e:70:f4:85:3a:20:58:59:88:d4:
         74:55:63:37:a3:eb:75:b2:f6:57:a8:1a:f9:03:a1:e2:ee:5b:
         7f:04:7d:25:19:aa:9a:96:6d:12:0c:e3:26:73:3e:20:be:f7:
         fa:87:6e:c8:f4:b7:73:38:f2:a1:c7:e2:2c:fa:8c:b5:50:33:
         55:43:dc:c5:46:77:7c:d8:08:9b:8c:6a:85:99:05:68:b5:e1:
         41:4c:84:10:8a:19:74:7e:d8:ef:12:01:02:4c:bc:e6:9a:b7:
         96:25:30:6c:74:31:c4:b6:5b:10:d7:70:fb:4d:73:f8:11:67:
         75:28:ff:7c:a6:65:4b:09:d8:7d:ba:99:f2:f3:b7:9f:f2:3c:
         1e:e3:f8:29:6e:04:55:b3:d6:53:19:c1:8c:df:02:b8:51:45:
         93:8a:2a:14:e4:5f:ec:40:ee:b5:80:76:29:5d:e2:dc:26:a1:
         41:dc:dc:ad:68:3f:99:7c:b3:ce:f6:96:52:2f:88:f7:bc:5a:
         dc:d7:ca:ba
-----BEGIN CERTIFICATE-----
MIIDXTCCAkWgAwIBAgIRAPnmgPDaKaKIDY2Y/kA0s40wDQYJKoZIhvcNAQELBQAw
FjEUMBIGA1UEAwwLdGVhbTMzOC1uZXQwHhcNMjEwOTEzMDE1NDI0WhcNMjQwODI4
MDE1NDI0WjAZMRcwFQYDVQQDDA50ZWFtMzM4LWNsaWVudDCCASIwDQYJKoZIhvcN
AQEBBQADggEPADCCAQoCggEBANLMiXDxtM4ek3rgfUgp7SHPbcBDyd5M9oRTSmmM
hH1rB4SUj0LQKYyBr2KJ8myWvzyZaJwNm7rDMD1IPvGAc7NOhoXIM85Yit6OAciq
vv7WR1e0cMc3xGWiqfHoSq4EQ6vE2p1f6+ytg4ehkVdAr8wVQkDeO7PIAWUP1pnt
5W+hRX999We2OlK5Ti3D7VdgpByNbnGeHkLuTsJ2rswi5+C7lFWA4aptF4alcrAn
6o5vvhLDOaEn1fpwkoYwoYPzA0i+ZOfxONQ1g6bYV7jhLMPO9IZXfnIukNLYyWIK
VwPx34jB8RnhuMjrjfnOsKlRvx7IpLhT2p49peXfi+wXFv8CAwEAAaOBojCBnzAJ
BgNVHRMEAjAAMB0GA1UdDgQWBBRPbcN8AP8y7lNeB0rMXcUgYUEWMjBRBgNVHSME
SjBIgBRK1wQDHGb1zjV/O+JyAohfrbXfVKEapBgwFjEUMBIGA1UEAwwLdGVhbTMz
OC1uZXSCFA2OTRciMvWXyKPE9bWj8JYyPNJLMBMGA1UdJQQMMAoGCCsGAQUFBwMC
MAsGA1UdDwQEAwIHgDANBgkqhkiG9w0BAQsFAAOCAQEAosqy4h+BGzxlhFSmqltK
eRFd6re+DWwbv3jt4Garp+cI4oMaobMZLB34ToO7kXRRLp+jFSFymDnRN4rilnYO
cPSFOiBYWYjUdFVjN6PrdbL2V6ga+QOh4u5bfwR9JRmqmpZtEgzjJnM+IL73+odu
yPS3czjyocfiLPqMtVAzVUPcxUZ3fNgIm4xqhZkFaLXhQUyEEIoZdH7Y7xIBAky8
5pq3liUwbHQxxLZbENdw+01z+BFndSj/fKZlSwnYfbqZ8vO3n/I8HuP4KW4EVbPW
UxnBjN8CuFFFk4oqFORf7EDutYB2KV3i3CahQdzcrWg/mXyzzvaWUi+I97xa3NfK
ug==
-----END CERTIFICATE-----
