Certificate:
    Data:
        Version: 3 (0x2)
        Serial Number:
            40:5a:ee:59:8e:e2:b8:d9:bf:17:db:89:f1:b5:5a:10
        Signature Algorithm: sha256WithRSAEncryption
        Issuer: CN=team237-net
        Validity
            Not Before: Sep 13 00:57:04 2021 GMT
            Not After : Aug 28 00:57:04 2024 GMT
        Subject: CN=team237-client
        Subject Public Key Info:
            Public Key Algorithm: rsaEncryption
                RSA Public-Key: (2048 bit)
                Modulus:
                    00:e9:17:de:3d:d9:66:ff:09:bd:99:cc:31:1e:92:
                    b5:29:a4:d8:0f:93:b5:25:46:94:bd:e1:0a:1d:dd:
                    a5:96:38:85:99:70:0d:95:18:1a:00:51:08:8e:f2:
                    ff:59:5d:65:15:7c:69:f6:78:c4:77:8d:d8:74:8d:
                    ff:49:dd:86:50:7c:4a:21:10:ea:ea:63:e4:66:51:
                    9a:e1:b4:d0:29:73:8b:c2:ca:d2:ff:88:a9:7a:c4:
                    80:34:1c:bf:57:47:1a:aa:e7:fe:e8:1d:80:03:66:
                    96:78:0b:36:ed:2b:38:70:42:09:07:e0:64:d5:9e:
                    02:b5:9e:ae:a9:3d:33:14:3d:26:f2:2e:d0:72:bc:
                    d6:ed:1b:38:9b:2c:03:fe:be:fe:e0:f7:95:db:42:
                    89:39:ad:c8:a1:52:0f:81:31:d6:7c:bb:d5:b4:16:
                    76:17:46:bb:41:16:f8:e4:4f:7b:f4:18:c7:a9:9e:
                    39:e0:81:9f:81:0c:6a:e6:8f:ae:4c:cf:6e:19:10:
                    ae:d9:ac:97:80:7d:3c:90:95:81:c5:ec:39:6e:c5:
                    9d:2f:86:b0:ce:56:f4:37:82:26:49:e8:99:ee:ec:
                    ae:1f:78:fa:e1:c3:bb:5c:29:d6:10:2e:77:b2:c1:
                    86:1f:b2:b9:c7:5a:cd:00:6d:3b:d0:b4:1a:5d:a0:
                    28:8f
                Exponent: 65537 (0x10001)
        X509v3 extensions:
            X509v3 Basic Constraints: 
                CA:FALSE
            X509v3 Subject Key Identifier: 
                CE:25:90:F6:46:64:50:73:FF:D8:D6:40:01:FA:F4:11:47:DF:8F:1D
            X509v3 Authority Key Identifier: 
                keyid:52:B1:60:D6:E9:2A:59:67:AA:EA:8E:EA:5A:66:3B:61:1A:5D:48:40
                DirName:/CN=team237-net
                serial:3E:78:14:66:17:A7:B5:F7:D4:CE:A2:6F:8D:39:53:32:BB:BF:83:91

            X509v3 Extended Key Usage: 
                TLS Web Client Authentication
            X509v3 Key Usage: 
                Digital Signature
    Signature Algorithm: sha256WithRSAEncryption
         44:1b:9e:c3:a7:54:9b:e0:a3:a6:6d:fb:bb:2d:b1:95:e0:d3:
         27:8c:d0:b9:eb:b0:ba:be:65:20:36:f6:cd:e5:6c:de:6c:63:
         b3:49:12:12:fb:6c:76:5a:7e:d7:63:02:c3:41:fa:2d:a6:45:
         cc:cb:86:7a:54:05:8f:5e:1f:e0:80:5c:b4:4e:b3:90:1b:71:
         d4:85:b4:3b:93:56:66:4e:ff:50:5c:58:23:92:6b:f3:47:62:
         aa:72:51:14:51:94:15:2c:28:d8:ea:7e:b5:a2:9e:fc:14:4d:
         32:4b:46:95:5d:68:6c:e5:43:6c:ba:4f:a8:92:6a:d9:36:7f:
         e7:af:19:a0:62:1e:3c:a9:ba:4a:19:4e:82:74:18:e0:64:d7:
         6f:6a:57:f3:75:82:ae:19:f7:d5:ee:b4:72:45:28:e0:71:6b:
         11:92:af:1c:54:31:2c:af:5d:6d:c9:fc:43:23:96:cd:aa:a4:
         52:12:28:fd:b4:96:7d:7a:70:91:83:4c:75:0f:50:85:31:97:
         38:e5:75:5b:11:be:a1:53:8b:5b:9b:f9:49:be:56:91:0a:80:
         88:21:06:f1:e7:be:bc:d4:87:45:89:61:2b:5a:60:95:7b:2f:
         65:ee:b2:67:f8:05:65:c1:1d:7d:d0:3d:e7:2b:a5:ff:76:ff:
         f9:1d:01:74
-----BEGIN CERTIFICATE-----
MIIDXDCCAkSgAwIBAgIQQFruWY7iuNm/F9uJ8bVaEDANBgkqhkiG9w0BAQsFADAW
MRQwEgYDVQQDDAt0ZWFtMjM3LW5ldDAeFw0yMTA5MTMwMDU3MDRaFw0yNDA4Mjgw
MDU3MDRaMBkxFzAVBgNVBAMMDnRlYW0yMzctY2xpZW50MIIBIjANBgkqhkiG9w0B
AQEFAAOCAQ8AMIIBCgKCAQEA6RfePdlm/wm9mcwxHpK1KaTYD5O1JUaUveEKHd2l
ljiFmXANlRgaAFEIjvL/WV1lFXxp9njEd43YdI3/Sd2GUHxKIRDq6mPkZlGa4bTQ
KXOLwsrS/4ipesSANBy/V0caquf+6B2AA2aWeAs27Ss4cEIJB+Bk1Z4CtZ6uqT0z
FD0m8i7QcrzW7Rs4mywD/r7+4PeV20KJOa3IoVIPgTHWfLvVtBZ2F0a7QRb45E97
9BjHqZ454IGfgQxq5o+uTM9uGRCu2ayXgH08kJWBxew5bsWdL4awzlb0N4ImSeiZ
7uyuH3j64cO7XCnWEC53ssGGH7K5x1rNAG070LQaXaAojwIDAQABo4GiMIGfMAkG
A1UdEwQCMAAwHQYDVR0OBBYEFM4lkPZGZFBz/9jWQAH69BFH348dMFEGA1UdIwRK
MEiAFFKxYNbpKllnquqO6lpmO2EaXUhAoRqkGDAWMRQwEgYDVQQDDAt0ZWFtMjM3
LW5ldIIUPngUZhentffUzqJvjTlTMru/g5EwEwYDVR0lBAwwCgYIKwYBBQUHAwIw
CwYDVR0PBAQDAgeAMA0GCSqGSIb3DQEBCwUAA4IBAQBEG57Dp1Sb4KOmbfu7LbGV
4NMnjNC567C6vmUgNvbN5WzebGOzSRIS+2x2Wn7XYwLDQfotpkXMy4Z6VAWPXh/g
gFy0TrOQG3HUhbQ7k1ZmTv9QXFgjkmvzR2KqclEUUZQVLCjY6n61op78FE0yS0aV
XWhs5UNsuk+okmrZNn/nrxmgYh48qbpKGU6CdBjgZNdvalfzdYKuGffV7rRyRSjg
cWsRkq8cVDEsr11tyfxDI5bNqqRSEij9tJZ9enCRg0x1D1CFMZc45XVbEb6hU4tb
m/lJvlaRCoCIIQbx57681IdFiWErWmCVey9l7rJn+AVlwR190D3nK6X/dv/5HQF0
-----END CERTIFICATE-----
