Certificate:
    Data:
        Version: 3 (0x2)
        Serial Number:
            46:8a:53:64:2d:e4:af:3f:36:62:ed:55:92:f8:8a:d3
        Signature Algorithm: sha256WithRSAEncryption
        Issuer: CN=team596-net
        Validity
            Not Before: Sep 13 04:00:08 2021 GMT
            Not After : Aug 28 04:00:08 2024 GMT
        Subject: CN=team596-server
        Subject Public Key Info:
            Public Key Algorithm: rsaEncryption
                RSA Public-Key: (2048 bit)
                Modulus:
                    00:d5:f6:22:bd:27:93:a0:20:e2:23:50:a3:c3:5c:
                    0f:a4:bd:ae:99:2c:5e:4b:7d:cf:48:19:46:16:f3:
                    6d:2e:c3:5e:65:97:57:9a:11:38:f0:73:70:7a:33:
                    c2:6f:56:12:23:d4:64:4a:ed:e6:eb:f1:3f:79:f3:
                    31:11:ef:39:e0:5d:41:41:32:1d:24:ab:57:33:d4:
                    df:77:d2:c0:02:7a:0b:2d:92:cf:b8:4a:b2:93:84:
                    e9:57:06:dc:e5:58:2f:5f:4d:2f:7d:98:02:27:2b:
                    35:e2:4b:c4:1f:68:19:70:7a:e6:95:b1:36:df:9a:
                    51:96:fb:b5:26:85:7e:b9:a6:fa:83:b1:79:2d:65:
                    e5:c8:ee:98:24:24:42:7e:bb:4f:74:09:15:06:2b:
                    fc:40:44:34:96:7f:6b:d5:e8:a4:2d:85:93:74:9a:
                    6d:53:bd:8b:b8:a1:5b:a8:6f:cc:f7:a3:10:73:c2:
                    86:2c:70:e1:88:52:6c:24:d5:34:82:3c:55:7f:2b:
                    d3:32:6b:4e:ba:98:6b:42:09:53:61:f7:77:36:f5:
                    34:18:1c:9e:f1:22:9e:a9:97:41:5d:49:37:33:d1:
                    52:75:af:6a:24:ef:bb:6c:9f:43:b7:ec:8d:10:e5:
                    be:f2:0e:68:b1:fa:0a:43:10:0c:3a:89:1c:50:7d:
                    ce:81
                Exponent: 65537 (0x10001)
        X509v3 extensions:
            X509v3 Basic Constraints: 
                CA:FALSE
            X509v3 Subject Key Identifier: 
                B8:43:75:85:CA:99:10:1B:DC:BB:92:82:EA:D7:F8:3F:2E:68:A1:CF
            X509v3 Authority Key Identifier: 
                keyid:AB:24:EF:B0:EB:1E:AE:0E:81:05:BD:20:06:B9:6D:5D:B9:F9:D3:78
                DirName:/CN=team596-net
                serial:1C:C7:8A:81:0E:A9:E0:0A:BE:61:5C:4F:5D:18:03:DE:FF:69:A6:F2

            X509v3 Extended Key Usage: 
                TLS Web Server Authentication
            X509v3 Key Usage: 
                Digital Signature, Key Encipherment
            X509v3 Subject Alternative Name: 
                DNS:team596-server
    Signature Algorithm: sha256WithRSAEncryption
         50:ad:62:f1:c8:dd:19:4f:3c:72:79:b7:ed:e1:6c:0a:df:86:
         3e:eb:16:6f:fa:ed:d9:14:ae:58:e1:a9:9e:65:1d:6f:14:b3:
         9f:13:81:53:a6:ea:38:ce:b6:b4:95:1b:15:7d:25:2c:4e:eb:
         16:04:9d:f2:9b:25:cf:df:24:bf:12:3e:ab:61:be:4f:a3:65:
         3f:95:f3:eb:fa:2c:43:47:9f:e7:7b:a1:d7:da:02:1c:0b:88:
         93:ac:ac:41:bf:df:18:d9:50:b0:db:84:fd:06:77:47:12:3b:
         aa:8a:19:5d:de:f5:f5:ea:4e:97:48:fb:e9:d3:65:46:eb:7d:
         05:2a:26:18:89:07:c3:38:28:1d:02:f2:fe:21:1b:70:a8:92:
         56:1b:96:1f:41:1b:e4:35:4a:85:56:d5:6d:8f:33:d2:05:bc:
         a6:aa:39:d7:5b:e1:47:47:15:66:95:70:56:df:6c:79:be:46:
         2f:82:65:1c:81:8e:17:ca:f1:ca:af:10:60:0a:8a:e1:0c:0d:
         9a:b5:87:be:22:e7:d9:24:2b:e9:5b:84:3c:5e:a9:23:fb:44:
         41:35:be:51:34:54:fc:0b:ee:f9:f4:c6:ee:91:3d:64:72:09:
         02:f1:da:2b:7f:3c:4d:59:89:5b:af:d4:64:c7:7e:fc:1d:f9:
         52:33:68:a9
-----BEGIN CERTIFICATE-----
MIIDdzCCAl+gAwIBAgIQRopTZC3krz82Yu1VkviK0zANBgkqhkiG9w0BAQsFADAW
MRQwEgYDVQQDDAt0ZWFtNTk2LW5ldDAeFw0yMTA5MTMwNDAwMDhaFw0yNDA4Mjgw
NDAwMDhaMBkxFzAVBgNVBAMMDnRlYW01OTYtc2VydmVyMIIBIjANBgkqhkiG9w0B
AQEFAAOCAQ8AMIIBCgKCAQEA1fYivSeToCDiI1Cjw1wPpL2umSxeS33PSBlGFvNt
LsNeZZdXmhE48HNwejPCb1YSI9RkSu3m6/E/efMxEe854F1BQTIdJKtXM9Tfd9LA
AnoLLZLPuEqyk4TpVwbc5VgvX00vfZgCJys14kvEH2gZcHrmlbE235pRlvu1JoV+
uab6g7F5LWXlyO6YJCRCfrtPdAkVBiv8QEQ0ln9r1eikLYWTdJptU72LuKFbqG/M
96MQc8KGLHDhiFJsJNU0gjxVfyvTMmtOuphrQglTYfd3NvU0GBye8SKeqZdBXUk3
M9FSda9qJO+7bJ9Dt+yNEOW+8g5osfoKQxAMOokcUH3OgQIDAQABo4G9MIG6MAkG
A1UdEwQCMAAwHQYDVR0OBBYEFLhDdYXKmRAb3LuSgurX+D8uaKHPMFEGA1UdIwRK
MEiAFKsk77DrHq4OgQW9IAa5bV25+dN4oRqkGDAWMRQwEgYDVQQDDAt0ZWFtNTk2
LW5ldIIUHMeKgQ6p4Aq+YVxPXRgD3v9ppvIwEwYDVR0lBAwwCgYIKwYBBQUHAwEw
CwYDVR0PBAQDAgWgMBkGA1UdEQQSMBCCDnRlYW01OTYtc2VydmVyMA0GCSqGSIb3
DQEBCwUAA4IBAQBQrWLxyN0ZTzxyebft4WwK34Y+6xZv+u3ZFK5Y4ameZR1vFLOf
E4FTpuo4zra0lRsVfSUsTusWBJ3ymyXP3yS/Ej6rYb5Po2U/lfPr+ixDR5/ne6HX
2gIcC4iTrKxBv98Y2VCw24T9BndHEjuqihld3vX16k6XSPvp02VG630FKiYYiQfD
OCgdAvL+IRtwqJJWG5YfQRvkNUqFVtVtjzPSBbymqjnXW+FHRxVmlXBW32x5vkYv
gmUcgY4XyvHKrxBgCorhDA2atYe+IufZJCvpW4Q8Xqkj+0RBNb5RNFT8C+759Mbu
kT1kcgkC8dorfzxNWYlbr9Rkx378HflSM2ip
-----END CERTIFICATE-----
