Certificate:
    Data:
        Version: 3 (0x2)
        Serial Number:
            bb:0d:63:70:08:b8:6e:4a:dd:1c:7b:73:d2:20:a5:52
        Signature Algorithm: sha256WithRSAEncryption
        Issuer: CN=team607-net
        Validity
            Not Before: Sep 13 04:24:08 2021 GMT
            Not After : Aug 28 04:24:08 2024 GMT
        Subject: CN=team607-client
        Subject Public Key Info:
            Public Key Algorithm: rsaEncryption
                RSA Public-Key: (2048 bit)
                Modulus:
                    00:d3:22:12:73:ed:51:a5:5f:2a:3c:f5:61:e7:36:
                    35:5f:a5:9c:02:ba:0d:0d:b7:de:09:35:39:6f:50:
                    58:21:de:1e:d5:d0:ed:b2:0b:22:0c:03:ff:d1:2e:
                    f9:94:2e:de:40:da:c8:ae:b0:57:aa:57:3b:3e:c0:
                    f6:97:49:ef:70:68:6c:46:3b:38:61:f3:6b:ac:ed:
                    bb:7c:3f:5b:b0:9d:e8:67:6a:53:15:f1:61:db:20:
                    5a:26:e9:60:c4:40:01:76:1e:bd:50:3c:24:e3:8a:
                    21:d6:38:07:8d:d4:e6:d8:9a:6d:07:9d:72:13:b0:
                    10:bb:b3:92:32:e0:0b:06:e8:f2:c6:46:98:5d:56:
                    49:13:cc:d2:d6:ff:e3:1c:a8:83:19:ad:fd:b4:1d:
                    67:50:92:5e:7f:d1:0b:0b:c6:13:3d:a7:ec:3f:7e:
                    fe:64:c2:48:55:ee:8f:72:fb:5e:73:ee:98:5d:5f:
                    a7:93:9c:ec:c5:e9:e0:e2:fa:f2:8e:4d:e2:e4:a1:
                    7f:3d:86:a3:1e:8d:b9:c7:68:ec:a6:1b:64:ae:b9:
                    80:20:4c:d8:3e:fc:66:f1:64:f1:5a:cb:b3:40:af:
                    4a:09:19:65:82:c2:4b:52:54:76:ba:04:a8:a1:eb:
                    f5:3c:f8:2b:c2:90:65:24:3d:2f:30:10:c7:ab:7d:
                    f5:0b
                Exponent: 65537 (0x10001)
        X509v3 extensions:
            X509v3 Basic Constraints: 
                CA:FALSE
            X509v3 Subject Key Identifier: 
                AE:F9:7A:57:DE:AB:4B:F2:5E:4D:CA:09:4A:52:6A:05:EA:87:88:55
            X509v3 Authority Key Identifier: 
                keyid:31:1B:8D:9A:82:5D:42:07:D1:0D:5F:75:C5:B1:90:44:2E:07:F1:2C
                DirName:/CN=team607-net
                serial:20:3F:BA:41:0C:E7:3C:2D:CE:ED:7F:85:5E:43:23:0C:E2:EC:25:B3

            X509v3 Extended Key Usage: 
                TLS Web Client Authentication
            X509v3 Key Usage: 
                Digital Signature
    Signature Algorithm: sha256WithRSAEncryption
         47:e9:5e:69:c9:46:8b:4a:52:2e:68:c7:56:2e:d4:2c:b1:23:
         35:d1:5e:2d:9e:33:0e:fa:f6:ff:b1:85:1b:35:56:7a:bb:a5:
         01:7c:33:ed:4b:46:5c:30:5d:9f:0a:02:ed:69:9a:d1:db:da:
         59:11:8e:c2:1f:a6:3b:ca:86:e0:14:20:d4:e4:d9:cf:23:43:
         b9:a5:b5:e0:7b:58:fd:89:ae:3b:d2:61:54:89:bd:3d:06:2e:
         c6:3d:34:f0:c2:ed:67:99:2e:e2:7f:ce:9e:a3:3b:e4:64:f3:
         c2:7f:cb:cd:48:4f:25:5f:d0:48:0b:a1:a3:9f:9c:80:42:ea:
         ec:7c:a0:40:6a:cb:91:e9:ad:7c:3d:4f:d6:12:71:c7:2a:d7:
         13:ce:73:bf:e1:e8:5e:11:96:33:bc:2c:7c:1b:dc:c6:fb:40:
         fe:ba:72:c9:ed:18:b8:37:8c:26:04:ef:e8:1d:ad:6b:49:4c:
         96:db:ad:32:42:2a:0a:af:d8:e1:08:ab:9f:94:34:63:69:de:
         17:82:89:65:7c:1b:be:16:32:d6:c3:86:89:1e:df:3d:27:98:
         39:d1:99:6f:72:64:49:24:94:81:25:99:85:3c:78:fc:89:0c:
         63:28:7f:10:1c:8b:48:a2:71:2f:4e:55:83:28:d8:2a:4e:9d:
         72:15:b6:05
-----BEGIN CERTIFICATE-----
MIIDXTCCAkWgAwIBAgIRALsNY3AIuG5K3Rx7c9IgpVIwDQYJKoZIhvcNAQELBQAw
FjEUMBIGA1UEAwwLdGVhbTYwNy1uZXQwHhcNMjEwOTEzMDQyNDA4WhcNMjQwODI4
MDQyNDA4WjAZMRcwFQYDVQQDDA50ZWFtNjA3LWNsaWVudDCCASIwDQYJKoZIhvcN
AQEBBQADggEPADCCAQoCggEBANMiEnPtUaVfKjz1Yec2NV+lnAK6DQ233gk1OW9Q
WCHeHtXQ7bILIgwD/9Eu+ZQu3kDayK6wV6pXOz7A9pdJ73BobEY7OGHza6ztu3w/
W7Cd6GdqUxXxYdsgWibpYMRAAXYevVA8JOOKIdY4B43U5tiabQedchOwELuzkjLg
Cwbo8sZGmF1WSRPM0tb/4xyogxmt/bQdZ1CSXn/RCwvGEz2n7D9+/mTCSFXuj3L7
XnPumF1fp5Oc7MXp4OL68o5N4uShfz2Gox6Nucdo7KYbZK65gCBM2D78ZvFk8VrL
s0CvSgkZZYLCS1JUdroEqKHr9Tz4K8KQZSQ9LzAQx6t99QsCAwEAAaOBojCBnzAJ
BgNVHRMEAjAAMB0GA1UdDgQWBBSu+XpX3qtL8l5NyglKUmoF6oeIVTBRBgNVHSME
SjBIgBQxG42agl1CB9ENX3XFsZBELgfxLKEapBgwFjEUMBIGA1UEAwwLdGVhbTYw
Ny1uZXSCFCA/ukEM5zwtzu1/hV5DIwzi7CWzMBMGA1UdJQQMMAoGCCsGAQUFBwMC
MAsGA1UdDwQEAwIHgDANBgkqhkiG9w0BAQsFAAOCAQEAR+leaclGi0pSLmjHVi7U
LLEjNdFeLZ4zDvr2/7GFGzVWerulAXwz7UtGXDBdnwoC7Wma0dvaWRGOwh+mO8qG
4BQg1OTZzyNDuaW14HtY/YmuO9JhVIm9PQYuxj008MLtZ5ku4n/OnqM75GTzwn/L
zUhPJV/QSAuho5+cgELq7HygQGrLkemtfD1P1hJxxyrXE85zv+HoXhGWM7wsfBvc
xvtA/rpyye0YuDeMJgTv6B2ta0lMltutMkIqCq/Y4Qirn5Q0Y2neF4KJZXwbvhYy
1sOGiR7fPSeYOdGZb3JkSSSUgSWZhTx4/IkMYyh/EByLSKJxL05VgyjYKk6dchW2
BQ==
-----END CERTIFICATE-----
