Certificate:
    Data:
        Version: 3 (0x2)
        Serial Number:
            ac:9b:db:2b:cc:44:93:8c:6c:f5:c8:df:93:43:52:1e
        Signature Algorithm: sha256WithRSAEncryption
        Issuer: CN=team153-net
        Validity
            Not Before: Sep 13 00:06:00 2021 GMT
            Not After : Aug 28 00:06:00 2024 GMT
        Subject: CN=team153-server
        Subject Public Key Info:
            Public Key Algorithm: rsaEncryption
                RSA Public-Key: (2048 bit)
                Modulus:
                    00:db:41:08:7b:cc:23:04:d7:5b:79:f7:36:85:6b:
                    16:bb:0e:8b:f4:bb:24:ca:3a:68:bb:1d:37:b9:20:
                    b7:74:cd:2d:25:4b:36:1b:fa:cd:25:c6:a9:78:1c:
                    17:fa:5d:c5:92:09:9b:98:72:d8:5c:e3:fd:75:89:
                    22:d6:1b:1f:8a:c7:2f:67:ef:23:12:3c:9f:42:98:
                    96:27:f5:7a:39:20:c9:68:aa:c4:c2:64:b9:7c:bd:
                    8d:ed:94:be:33:3e:82:e3:7a:57:c7:6f:c6:0f:e2:
                    ff:bc:2a:03:35:a9:ab:f5:a5:44:c9:81:db:ab:ab:
                    29:b9:00:d9:36:cb:db:04:30:8f:cd:ff:5d:2d:8c:
                    c5:98:82:9d:d9:4f:08:21:23:4a:28:9b:d1:1a:b7:
                    61:32:84:00:bd:99:a8:62:a4:8e:b1:d9:33:d1:22:
                    8c:3a:ef:46:63:5d:e9:df:b4:43:9c:25:d7:e3:a9:
                    f1:5d:a2:84:f9:57:ec:dc:8a:68:07:2d:39:5e:24:
                    d0:7a:91:6c:4c:b2:5f:bd:1b:27:a2:b1:58:7d:bb:
                    0b:7c:bc:76:5f:5b:74:7c:ad:52:8c:8e:44:28:58:
                    7a:9e:3f:54:e3:76:32:6f:08:87:52:b8:d8:1f:cc:
                    df:aa:fe:ff:63:73:30:81:8e:fa:dd:10:a4:e1:34:
                    6f:53
                Exponent: 65537 (0x10001)
        X509v3 extensions:
            X509v3 Basic Constraints: 
                CA:FALSE
            X509v3 Subject Key Identifier: 
                25:CE:2B:4E:FF:BD:08:CF:BC:91:69:90:18:AD:F2:F7:66:F1:4F:34
            X509v3 Authority Key Identifier: 
                keyid:C3:90:A1:34:8C:C6:A9:CE:05:B0:50:F0:E7:1A:9E:E7:F4:99:06:29
                DirName:/CN=team153-net
                serial:4F:7A:0F:A8:B7:15:98:5B:D5:A9:94:CD:54:F5:CC:2C:31:D8:C9:23

            X509v3 Extended Key Usage: 
                TLS Web Server Authentication
            X509v3 Key Usage: 
                Digital Signature, Key Encipherment
            X509v3 Subject Alternative Name: 
                DNS:team153-server
    Signature Algorithm: sha256WithRSAEncryption
         e8:2b:78:0f:4e:a8:38:01:04:11:a7:24:3e:e9:a8:10:b2:3f:
         c1:12:26:cd:4c:0c:de:b9:6e:29:34:21:cf:ed:49:a1:ea:c4:
         2a:fa:1d:5a:04:7a:fe:90:18:a8:27:66:58:fa:70:a3:0d:bb:
         58:02:75:59:0a:5a:d1:56:2a:df:79:8d:b1:c6:34:fd:f0:16:
         36:59:00:1b:3e:ab:17:01:88:d0:be:67:19:c7:2b:de:dc:63:
         42:3d:23:11:4f:e0:99:ae:63:0e:30:fa:ab:ae:b0:07:a4:15:
         85:1b:1a:cb:17:4f:97:eb:dd:54:73:17:d4:b2:4b:dd:f4:ec:
         43:0f:b1:a1:9a:82:c4:92:68:6a:cf:55:aa:91:99:6e:dc:e4:
         6d:32:ce:32:57:8f:78:40:f1:c7:51:e1:2e:b3:d9:b8:d1:f3:
         d8:3d:d5:63:a8:98:af:07:cc:1e:f2:83:8f:5e:e6:1e:f3:6b:
         44:e3:30:ea:98:d5:28:8c:13:c8:bf:b3:d7:85:97:0f:00:84:
         e7:bf:5a:be:2f:c9:80:00:97:d3:2f:f7:c9:ea:c5:e6:d7:a8:
         2c:d9:f1:94:08:32:fa:61:98:7e:23:1a:50:e6:0b:1b:2f:e3:
         b8:d2:a5:c9:25:23:12:71:c6:75:a9:3a:07:49:aa:32:21:44:
         7b:63:0c:e1
-----BEGIN CERTIFICATE-----
MIIDeDCCAmCgAwIBAgIRAKyb2yvMRJOMbPXI35NDUh4wDQYJKoZIhvcNAQELBQAw
FjEUMBIGA1UEAwwLdGVhbTE1My1uZXQwHhcNMjEwOTEzMDAwNjAwWhcNMjQwODI4
MDAwNjAwWjAZMRcwFQYDVQQDDA50ZWFtMTUzLXNlcnZlcjCCASIwDQYJKoZIhvcN
AQEBBQADggEPADCCAQoCggEBANtBCHvMIwTXW3n3NoVrFrsOi/S7JMo6aLsdN7kg
t3TNLSVLNhv6zSXGqXgcF/pdxZIJm5hy2Fzj/XWJItYbH4rHL2fvIxI8n0KYlif1
ejkgyWiqxMJkuXy9je2UvjM+guN6V8dvxg/i/7wqAzWpq/WlRMmB26urKbkA2TbL
2wQwj83/XS2MxZiCndlPCCEjSiib0Rq3YTKEAL2ZqGKkjrHZM9EijDrvRmNd6d+0
Q5wl1+Op8V2ihPlX7NyKaActOV4k0HqRbEyyX70bJ6KxWH27C3y8dl9bdHytUoyO
RChYep4/VON2Mm8Ih1K42B/M36r+/2NzMIGO+t0QpOE0b1MCAwEAAaOBvTCBujAJ
BgNVHRMEAjAAMB0GA1UdDgQWBBQlzitO/70Iz7yRaZAYrfL3ZvFPNDBRBgNVHSME
SjBIgBTDkKE0jMapzgWwUPDnGp7n9JkGKaEapBgwFjEUMBIGA1UEAwwLdGVhbTE1
My1uZXSCFE96D6i3FZhb1amUzVT1zCwx2MkjMBMGA1UdJQQMMAoGCCsGAQUFBwMB
MAsGA1UdDwQEAwIFoDAZBgNVHREEEjAQgg50ZWFtMTUzLXNlcnZlcjANBgkqhkiG
9w0BAQsFAAOCAQEA6Ct4D06oOAEEEackPumoELI/wRImzUwM3rluKTQhz+1JoerE
KvodWgR6/pAYqCdmWPpwow27WAJ1WQpa0VYq33mNscY0/fAWNlkAGz6rFwGI0L5n
Gccr3txjQj0jEU/gma5jDjD6q66wB6QVhRsayxdPl+vdVHMX1LJL3fTsQw+xoZqC
xJJoas9VqpGZbtzkbTLOMlePeEDxx1HhLrPZuNHz2D3VY6iYrwfMHvKDj17mHvNr
ROMw6pjVKIwTyL+z14WXDwCE579avi/JgACX0y/3yerF5teoLNnxlAgy+mGYfiMa
UOYLGy/juNKlySUjEnHGdak6B0mqMiFEe2MM4Q==
-----END CERTIFICATE-----
