Certificate:
    Data:
        Version: 3 (0x2)
        Serial Number:
            b9:1a:59:35:10:20:ea:38:c4:d6:a2:fa:90:bd:ed:d8
        Signature Algorithm: sha256WithRSAEncryption
        Issuer: CN=team528-net
        Validity
            Not Before: Sep 13 03:20:09 2021 GMT
            Not After : Aug 28 03:20:09 2024 GMT
        Subject: CN=team528-server
        Subject Public Key Info:
            Public Key Algorithm: rsaEncryption
                RSA Public-Key: (2048 bit)
                Modulus:
                    00:9a:62:9f:1b:63:e1:ed:7c:95:9a:9f:93:b7:c0:
                    4a:a7:c4:12:b0:5d:d5:9f:dd:de:3f:2f:d0:f4:89:
                    e4:90:bc:07:d9:67:32:44:53:44:e2:eb:88:23:14:
                    12:25:f9:d8:d9:38:a8:2c:83:9c:7c:65:36:be:a8:
                    d1:08:36:de:a2:2a:0d:ff:ab:5b:1a:5b:39:f8:34:
                    f1:f6:a5:d0:28:71:81:36:ab:fc:37:af:e0:b6:de:
                    36:26:22:2f:84:e9:ae:29:0f:ee:71:05:88:19:5d:
                    57:2b:95:4a:d6:3b:46:14:8f:97:18:b6:c9:8b:65:
                    fb:a6:79:d8:00:84:f8:0b:96:9c:c8:41:00:3f:f8:
                    79:72:01:5c:70:26:69:16:c3:35:0d:3f:82:86:20:
                    ce:37:77:44:ca:55:9d:4f:97:25:53:85:f7:f4:80:
                    64:07:4b:d6:bc:40:48:ed:c3:da:92:a4:9f:ca:45:
                    15:fc:9a:d1:4b:f7:ab:66:a4:0b:c8:b1:11:a4:a8:
                    ed:cf:c4:cf:29:a9:6d:c0:43:92:04:c9:9c:72:ca:
                    bc:f2:1b:4b:10:38:4d:5c:0a:c6:ab:e0:3e:03:73:
                    33:b3:26:5b:9d:cf:cd:70:11:30:68:95:0f:6a:4d:
                    8a:f1:97:12:06:fe:5b:1d:e1:14:4d:04:2a:02:67:
                    e5:c1
                Exponent: 65537 (0x10001)
        X509v3 extensions:
            X509v3 Basic Constraints: 
                CA:FALSE
            X509v3 Subject Key Identifier: 
                3A:A8:D0:47:48:6D:7E:76:5C:D2:F0:85:E5:D4:CD:50:A7:E6:5C:56
            X509v3 Authority Key Identifier: 
                keyid:27:FB:E3:76:46:4D:FE:5F:51:BD:40:C5:D2:B7:35:14:EE:72:4A:B5
                DirName:/CN=team528-net
                serial:24:67:78:69:7B:EF:4B:06:44:D8:41:EC:5D:AA:97:D7:63:F3:06:09

            X509v3 Extended Key Usage: 
                TLS Web Server Authentication
            X509v3 Key Usage: 
                Digital Signature, Key Encipherment
            X509v3 Subject Alternative Name: 
                DNS:team528-server
    Signature Algorithm: sha256WithRSAEncryption
         89:98:76:b5:18:3f:a6:5d:13:2c:cf:8d:ae:7b:11:ad:88:f2:
         be:c4:57:a6:a0:5e:09:63:f3:7c:4e:04:21:74:27:b5:f7:72:
         5c:4b:dd:96:73:1b:e5:8d:e5:26:26:2f:d1:16:1e:13:67:06:
         15:21:14:2d:82:b7:de:24:a0:87:a1:51:66:4e:f2:38:e3:00:
         f8:a9:01:2a:3d:8d:88:ed:8e:19:59:e4:a2:8d:08:07:82:12:
         e6:22:44:ad:e3:72:24:48:4a:45:cc:83:2f:cd:62:81:f4:63:
         74:fc:0b:81:ad:78:41:e6:d1:53:b6:89:0b:cc:aa:58:af:ca:
         85:f0:ae:30:a5:66:9a:c9:27:82:ee:b3:f5:bd:c6:6f:f4:f0:
         fd:d6:dd:51:a2:5e:a6:f0:0a:46:a7:e2:a2:10:9e:78:39:81:
         3c:6d:2b:3c:bc:ba:df:4d:30:83:82:fc:ed:a3:4b:f8:07:38:
         28:c6:1d:b0:db:0c:f8:0d:ec:1b:1d:c4:c0:d9:95:30:f6:df:
         53:32:f6:fa:18:e3:bf:4a:25:84:94:e4:c3:b6:ad:07:c2:ec:
         d8:ff:65:87:a2:eb:86:c2:38:b0:ca:4f:27:8a:98:1c:3e:81:
         92:9a:bc:a0:19:72:86:0a:38:83:a0:05:36:f4:9d:5d:9c:92:
         e7:cb:ff:da
-----BEGIN CERTIFICATE-----
MIIDeDCCAmCgAwIBAgIRALkaWTUQIOo4xNai+pC97dgwDQYJKoZIhvcNAQELBQAw
FjEUMBIGA1UEAwwLdGVhbTUyOC1uZXQwHhcNMjEwOTEzMDMyMDA5WhcNMjQwODI4
MDMyMDA5WjAZMRcwFQYDVQQDDA50ZWFtNTI4LXNlcnZlcjCCASIwDQYJKoZIhvcN
AQEBBQADggEPADCCAQoCggEBAJpinxtj4e18lZqfk7fASqfEErBd1Z/d3j8v0PSJ
5JC8B9lnMkRTROLriCMUEiX52Nk4qCyDnHxlNr6o0Qg23qIqDf+rWxpbOfg08fal
0ChxgTar/Dev4LbeNiYiL4TprikP7nEFiBldVyuVStY7RhSPlxi2yYtl+6Z52ACE
+AuWnMhBAD/4eXIBXHAmaRbDNQ0/goYgzjd3RMpVnU+XJVOF9/SAZAdL1rxASO3D
2pKkn8pFFfya0Uv3q2akC8ixEaSo7c/EzympbcBDkgTJnHLKvPIbSxA4TVwKxqvg
PgNzM7MmW53PzXARMGiVD2pNivGXEgb+Wx3hFE0EKgJn5cECAwEAAaOBvTCBujAJ
BgNVHRMEAjAAMB0GA1UdDgQWBBQ6qNBHSG1+dlzS8IXl1M1Qp+ZcVjBRBgNVHSME
SjBIgBQn++N2Rk3+X1G9QMXStzUU7nJKtaEapBgwFjEUMBIGA1UEAwwLdGVhbTUy
OC1uZXSCFCRneGl770sGRNhB7F2ql9dj8wYJMBMGA1UdJQQMMAoGCCsGAQUFBwMB
MAsGA1UdDwQEAwIFoDAZBgNVHREEEjAQgg50ZWFtNTI4LXNlcnZlcjANBgkqhkiG
9w0BAQsFAAOCAQEAiZh2tRg/pl0TLM+NrnsRrYjyvsRXpqBeCWPzfE4EIXQntfdy
XEvdlnMb5Y3lJiYv0RYeE2cGFSEULYK33iSgh6FRZk7yOOMA+KkBKj2NiO2OGVnk
oo0IB4IS5iJEreNyJEhKRcyDL81igfRjdPwLga14QebRU7aJC8yqWK/KhfCuMKVm
mskngu6z9b3Gb/Tw/dbdUaJepvAKRqfiohCeeDmBPG0rPLy6300wg4L87aNL+Ac4
KMYdsNsM+A3sGx3EwNmVMPbfUzL2+hjjv0olhJTkw7atB8Ls2P9lh6LrhsI4sMpP
J4qYHD6Bkpq8oBlyhgo4g6AFNvSdXZyS58v/2g==
-----END CERTIFICATE-----
