Certificate:
    Data:
        Version: 3 (0x2)
        Serial Number:
            11:25:e4:5f:fb:b4:37:6c:78:8c:2e:08:6f:0e:0c:48
        Signature Algorithm: sha256WithRSAEncryption
        Issuer: CN=team608-net
        Validity
            Not Before: Sep 13 04:24:11 2021 GMT
            Not After : Aug 28 04:24:11 2024 GMT
        Subject: CN=team608-server
        Subject Public Key Info:
            Public Key Algorithm: rsaEncryption
                RSA Public-Key: (2048 bit)
                Modulus:
                    00:9b:8e:fe:97:d7:d9:e0:46:f0:52:72:d9:42:c1:
                    0c:53:ba:99:50:25:47:21:ea:bc:21:98:d5:1e:2d:
                    e5:20:88:8d:9f:9e:90:c6:7e:b3:2c:70:67:6b:dd:
                    8d:2a:24:48:dc:4b:12:93:3b:9a:6d:c3:f8:0f:5f:
                    e2:d0:0b:a4:20:e1:26:79:b5:9e:4a:f9:92:9e:ac:
                    ed:3d:b9:bd:79:21:a4:c8:23:f3:8d:a0:1a:52:fd:
                    44:b2:39:97:29:97:30:fb:21:21:29:64:b5:ae:7c:
                    fb:05:85:fc:ac:05:ef:74:6a:1e:ce:56:f1:97:3e:
                    3e:63:d8:ef:dd:37:aa:7b:b3:79:2f:f2:c5:d6:ed:
                    af:41:e6:40:08:60:23:9c:6f:cd:c1:62:c8:e6:70:
                    5b:1e:23:fa:21:87:64:e5:87:1e:d5:5c:7c:04:83:
                    eb:fe:66:82:e5:28:7d:9f:b9:c8:80:ef:1c:c2:19:
                    80:94:64:56:65:d3:ae:4d:33:f4:97:bc:f8:7d:b4:
                    49:7e:d7:0d:b4:44:14:7a:69:c8:85:a8:70:6b:76:
                    0f:cf:59:90:2c:c5:c6:f4:4a:bd:73:27:dc:6a:05:
                    f1:4f:2b:c2:e6:a9:ed:04:f3:02:4c:4a:64:b0:67:
                    a5:0c:71:15:8a:d5:ee:2a:74:21:c7:04:f5:0c:3f:
                    20:61
                Exponent: 65537 (0x10001)
        X509v3 extensions:
            X509v3 Basic Constraints: 
                CA:FALSE
            X509v3 Subject Key Identifier: 
                D7:A6:97:8C:4F:44:51:10:D0:AC:53:E3:FA:D2:08:B4:2C:13:F0:4A
            X509v3 Authority Key Identifier: 
                keyid:2B:46:B7:12:F4:00:0F:F6:C6:90:8A:A5:EE:55:D0:8D:35:D9:BC:4C
                DirName:/CN=team608-net
                serial:6F:73:43:EA:79:F2:A4:52:1C:AF:FF:8A:8E:88:91:99:A5:93:3E:A4

            X509v3 Extended Key Usage: 
                TLS Web Server Authentication
            X509v3 Key Usage: 
                Digital Signature, Key Encipherment
            X509v3 Subject Alternative Name: 
                DNS:team608-server
    Signature Algorithm: sha256WithRSAEncryption
         86:7b:3f:6a:52:b8:b0:10:dc:1e:1b:4d:c1:2e:2a:f9:21:20:
         b4:3e:ac:37:ab:85:f8:a3:59:40:a0:4e:7f:88:1f:58:6d:65:
         af:99:c6:d3:15:f8:a6:97:b8:84:b9:53:ae:00:ef:d6:af:de:
         f9:22:2f:16:13:3d:62:95:fd:f9:88:67:12:88:a3:e8:7f:62:
         07:7f:00:30:df:a0:e2:8b:88:dc:55:d7:56:38:11:a1:d8:fe:
         18:45:38:2a:84:64:25:da:54:3d:55:52:ad:8c:95:08:58:f0:
         db:c2:24:e6:06:f7:e4:19:00:ea:41:5b:47:5e:61:42:3b:b6:
         a1:66:47:49:30:c7:46:7a:67:8f:2a:27:b9:fe:8e:6f:0b:5f:
         5d:b8:43:7e:2d:7a:7f:16:d9:52:66:cf:84:f0:41:8d:74:8a:
         8c:ac:f4:0e:2a:6e:f2:e3:67:da:c5:83:be:98:75:6f:29:0b:
         77:18:ce:e0:e9:4a:2a:35:2c:0f:bc:91:c5:98:cc:2a:7d:e0:
         e7:77:6b:64:70:b4:9b:9d:77:59:d1:0a:24:2f:ee:43:5b:5f:
         62:33:c3:3f:b0:f8:2c:a1:6a:66:5e:c1:15:53:13:b8:27:b0:
         43:fa:3e:61:00:94:06:9c:bc:d8:fa:77:2e:e9:d9:55:14:27:
         45:22:db:ac
-----BEGIN CERTIFICATE-----
MIIDdzCCAl+gAwIBAgIQESXkX/u0N2x4jC4Ibw4MSDANBgkqhkiG9w0BAQsFADAW
MRQwEgYDVQQDDAt0ZWFtNjA4LW5ldDAeFw0yMTA5MTMwNDI0MTFaFw0yNDA4Mjgw
NDI0MTFaMBkxFzAVBgNVBAMMDnRlYW02MDgtc2VydmVyMIIBIjANBgkqhkiG9w0B
AQEFAAOCAQ8AMIIBCgKCAQEAm47+l9fZ4EbwUnLZQsEMU7qZUCVHIeq8IZjVHi3l
IIiNn56Qxn6zLHBna92NKiRI3EsSkzuabcP4D1/i0AukIOEmebWeSvmSnqztPbm9
eSGkyCPzjaAaUv1EsjmXKZcw+yEhKWS1rnz7BYX8rAXvdGoezlbxlz4+Y9jv3Teq
e7N5L/LF1u2vQeZACGAjnG/NwWLI5nBbHiP6IYdk5Yce1Vx8BIPr/maC5Sh9n7nI
gO8cwhmAlGRWZdOuTTP0l7z4fbRJftcNtEQUemnIhahwa3YPz1mQLMXG9Eq9cyfc
agXxTyvC5qntBPMCTEpksGelDHEVitXuKnQhxwT1DD8gYQIDAQABo4G9MIG6MAkG
A1UdEwQCMAAwHQYDVR0OBBYEFNeml4xPRFEQ0KxT4/rSCLQsE/BKMFEGA1UdIwRK
MEiAFCtGtxL0AA/2xpCKpe5V0I012bxMoRqkGDAWMRQwEgYDVQQDDAt0ZWFtNjA4
LW5ldIIUb3ND6nnypFIcr/+KjoiRmaWTPqQwEwYDVR0lBAwwCgYIKwYBBQUHAwEw
CwYDVR0PBAQDAgWgMBkGA1UdEQQSMBCCDnRlYW02MDgtc2VydmVyMA0GCSqGSIb3
DQEBCwUAA4IBAQCGez9qUriwENweG03BLir5ISC0Pqw3q4X4o1lAoE5/iB9YbWWv
mcbTFfiml7iEuVOuAO/Wr975Ii8WEz1ilf35iGcSiKPof2IHfwAw36Dii4jcVddW
OBGh2P4YRTgqhGQl2lQ9VVKtjJUIWPDbwiTmBvfkGQDqQVtHXmFCO7ahZkdJMMdG
emePKie5/o5vC19duEN+LXp/FtlSZs+E8EGNdIqMrPQOKm7y42faxYO+mHVvKQt3
GM7g6UoqNSwPvJHFmMwqfeDnd2tkcLSbnXdZ0QokL+5DW19iM8M/sPgsoWpmXsEV
UxO4J7BD+j5hAJQGnLzY+ncu6dlVFCdFItus
-----END CERTIFICATE-----
