Certificate:
    Data:
        Version: 3 (0x2)
        Serial Number:
            75:b0:83:79:c7:54:07:8d:ff:a8:7b:19:bc:b6:83:9e
        Signature Algorithm: sha256WithRSAEncryption
        Issuer: CN=team608-net
        Validity
            Not Before: Sep 13 04:24:10 2021 GMT
            Not After : Aug 28 04:24:10 2024 GMT
        Subject: CN=team608-client
        Subject Public Key Info:
            Public Key Algorithm: rsaEncryption
                RSA Public-Key: (2048 bit)
                Modulus:
                    00:c9:b0:66:2f:f8:c5:c9:e1:8e:41:69:2e:28:d9:
                    4e:29:a0:7a:bf:b0:c5:0a:47:ac:63:86:97:20:9e:
                    56:c8:1a:2f:94:72:9e:ac:78:9a:03:07:5d:41:c8:
                    93:66:8f:0c:ef:69:ce:dd:6d:3a:f9:28:21:d7:7b:
                    6c:9d:df:3b:14:9d:94:f9:4d:ac:ca:6e:a6:8f:83:
                    37:32:b0:ff:30:dc:dd:40:80:a0:43:e0:5e:bd:71:
                    34:a1:1c:d7:bf:44:5f:f7:13:9e:f1:6a:a6:b6:f4:
                    2d:d6:79:75:05:de:56:35:ee:51:fd:ed:62:ea:42:
                    f8:14:88:a4:77:6c:74:85:f2:6a:14:56:11:2f:b6:
                    48:d2:ee:ae:ff:0d:e0:2c:94:71:5e:5b:81:94:39:
                    e0:60:2d:0e:84:d7:7f:8c:27:7b:14:44:ed:93:b8:
                    ba:82:3a:52:a5:d5:3a:1e:65:61:d5:ae:6d:fe:44:
                    f4:c4:c2:2b:2a:6f:54:83:5a:59:70:5c:6c:d5:dc:
                    75:63:18:5a:0f:b0:a9:58:04:6b:fe:c4:c3:c8:e4:
                    35:a9:a4:8e:74:d8:34:30:54:12:f4:c1:3f:1b:84:
                    95:aa:71:f0:de:81:59:7a:dd:45:fc:3f:da:06:e9:
                    8d:70:3a:59:ac:5e:3c:7e:8e:b3:68:76:d8:74:ef:
                    0b:69
                Exponent: 65537 (0x10001)
        X509v3 extensions:
            X509v3 Basic Constraints: 
                CA:FALSE
            X509v3 Subject Key Identifier: 
                0C:F0:6F:E5:2C:AC:24:2B:EE:9F:E4:57:5F:81:B2:9A:B5:2B:3B:D6
            X509v3 Authority Key Identifier: 
                keyid:2B:46:B7:12:F4:00:0F:F6:C6:90:8A:A5:EE:55:D0:8D:35:D9:BC:4C
                DirName:/CN=team608-net
                serial:6F:73:43:EA:79:F2:A4:52:1C:AF:FF:8A:8E:88:91:99:A5:93:3E:A4

            X509v3 Extended Key Usage: 
                TLS Web Client Authentication
            X509v3 Key Usage: 
                Digital Signature
    Signature Algorithm: sha256WithRSAEncryption
         55:2f:78:bd:5c:44:c2:d0:e2:59:fa:c0:ce:7c:71:65:f4:7c:
         54:93:32:3a:1e:3d:61:29:7e:8a:eb:7c:25:b9:ca:41:68:5b:
         a1:c1:49:77:a2:70:de:a4:7e:14:0e:56:56:72:e4:e1:3a:d7:
         34:a1:5f:40:e5:d3:38:67:07:f9:96:6d:c0:72:de:f9:49:ef:
         7b:23:b0:69:d2:14:3e:19:4d:63:0e:db:1e:79:86:e7:54:28:
         ae:bc:a5:0d:ee:a8:e9:c6:be:24:e1:cd:b4:e4:52:ac:ee:21:
         a5:4a:1d:5e:87:18:06:e4:ba:25:cd:77:34:e2:04:e3:ad:35:
         44:9a:21:69:0e:03:dc:d4:15:20:52:46:51:93:db:c5:e0:36:
         2e:54:6c:5f:e5:cd:7b:50:1d:fb:e8:81:09:50:c0:73:93:9a:
         5f:79:1f:18:da:8c:fd:96:61:13:c8:68:ee:94:c3:86:39:b3:
         1c:d8:ba:1e:2a:ef:0d:7f:ca:46:90:14:77:c3:73:ed:c2:ab:
         b0:05:e0:2d:c1:d4:24:ab:7d:10:b8:fd:bd:8d:4b:8e:1b:e2:
         d7:da:80:d7:9f:63:57:41:0d:de:2c:05:20:2c:a2:2e:7e:8d:
         51:7e:ad:b4:6a:ff:53:00:6f:b8:95:07:1a:0c:32:3d:74:c5:
         a8:e7:37:02
-----BEGIN CERTIFICATE-----
MIIDXDCCAkSgAwIBAgIQdbCDecdUB43/qHsZvLaDnjANBgkqhkiG9w0BAQsFADAW
MRQwEgYDVQQDDAt0ZWFtNjA4LW5ldDAeFw0yMTA5MTMwNDI0MTBaFw0yNDA4Mjgw
NDI0MTBaMBkxFzAVBgNVBAMMDnRlYW02MDgtY2xpZW50MIIBIjANBgkqhkiG9w0B
AQEFAAOCAQ8AMIIBCgKCAQEAybBmL/jFyeGOQWkuKNlOKaB6v7DFCkesY4aXIJ5W
yBovlHKerHiaAwddQciTZo8M72nO3W06+Sgh13tsnd87FJ2U+U2sym6mj4M3MrD/
MNzdQICgQ+BevXE0oRzXv0Rf9xOe8WqmtvQt1nl1Bd5WNe5R/e1i6kL4FIikd2x0
hfJqFFYRL7ZI0u6u/w3gLJRxXluBlDngYC0OhNd/jCd7FETtk7i6gjpSpdU6HmVh
1a5t/kT0xMIrKm9Ug1pZcFxs1dx1YxhaD7CpWARr/sTDyOQ1qaSOdNg0MFQS9ME/
G4SVqnHw3oFZet1F/D/aBumNcDpZrF48fo6zaHbYdO8LaQIDAQABo4GiMIGfMAkG
A1UdEwQCMAAwHQYDVR0OBBYEFAzwb+UsrCQr7p/kV1+Bspq1KzvWMFEGA1UdIwRK
MEiAFCtGtxL0AA/2xpCKpe5V0I012bxMoRqkGDAWMRQwEgYDVQQDDAt0ZWFtNjA4
LW5ldIIUb3ND6nnypFIcr/+KjoiRmaWTPqQwEwYDVR0lBAwwCgYIKwYBBQUHAwIw
CwYDVR0PBAQDAgeAMA0GCSqGSIb3DQEBCwUAA4IBAQBVL3i9XETC0OJZ+sDOfHFl
9HxUkzI6Hj1hKX6K63wlucpBaFuhwUl3onDepH4UDlZWcuThOtc0oV9A5dM4Zwf5
lm3Act75Se97I7Bp0hQ+GU1jDtseeYbnVCiuvKUN7qjpxr4k4c205FKs7iGlSh1e
hxgG5LolzXc04gTjrTVEmiFpDgPc1BUgUkZRk9vF4DYuVGxf5c17UB376IEJUMBz
k5pfeR8Y2oz9lmETyGjulMOGObMc2LoeKu8Nf8pGkBR3w3PtwquwBeAtwdQkq30Q
uP29jUuOG+LX2oDXn2NXQQ3eLAUgLKIufo1Rfq20av9TAG+4lQcaDDI9dMWo5zcC
-----END CERTIFICATE-----
