Certificate:
    Data:
        Version: 3 (0x2)
        Serial Number:
            cd:9c:19:ac:a1:d3:e2:75:2d:87:14:db:32:ce:d1:8d
        Signature Algorithm: sha256WithRSAEncryption
        Issuer: CN=team578-net
        Validity
            Not Before: Sep 13 04:03:41 2021 GMT
            Not After : Aug 28 04:03:41 2024 GMT
        Subject: CN=team578-client
        Subject Public Key Info:
            Public Key Algorithm: rsaEncryption
                RSA Public-Key: (2048 bit)
                Modulus:
                    00:c2:72:16:1b:f3:bb:ec:ee:1e:ea:88:28:ad:67:
                    7b:15:53:5b:58:ec:1f:49:42:12:1e:4d:ce:37:f1:
                    f0:61:f9:cd:60:b1:2e:58:34:40:3e:62:75:7c:bf:
                    c3:ee:27:fe:8c:a3:75:3b:c2:9b:0d:b8:4e:52:1b:
                    11:42:c2:86:7f:6f:a0:32:80:ed:64:e4:b7:45:63:
                    95:83:25:2c:89:9a:a5:4f:6f:c0:7f:be:77:59:78:
                    c9:03:4c:cb:2d:4b:71:fe:a4:82:a2:9d:17:44:70:
                    68:8d:0f:c0:66:5e:f4:75:96:f8:7d:23:96:c3:2b:
                    b1:04:a1:53:0f:48:7c:b4:fe:d8:32:04:ff:25:f1:
                    eb:6b:88:a5:34:2a:3e:41:dd:ab:0c:38:21:b2:b3:
                    9d:fb:d9:f4:84:ed:71:21:92:e4:f8:1e:11:ce:18:
                    a8:b3:e5:79:0e:41:0e:0c:b5:4c:d0:cf:fa:6d:d4:
                    94:c1:b6:2a:85:01:c6:bd:da:87:fe:61:41:47:57:
                    fd:b4:00:cb:f4:9e:83:4f:ec:ac:15:4d:51:be:d2:
                    99:d9:bf:fb:66:c4:24:3a:a0:a1:0a:91:89:1c:65:
                    de:f2:b9:c4:92:a5:6d:15:13:aa:14:06:e0:96:cc:
                    a0:0e:75:55:64:63:1f:3a:35:84:97:ba:d5:5c:da:
                    f8:d5
                Exponent: 65537 (0x10001)
        X509v3 extensions:
            X509v3 Basic Constraints: 
                CA:FALSE
            X509v3 Subject Key Identifier: 
                FF:D1:D7:BF:2A:26:F0:EC:79:C1:91:F6:C5:19:13:DC:48:09:4D:06
            X509v3 Authority Key Identifier: 
                keyid:29:EE:B2:50:5E:FC:44:86:57:8A:51:26:6F:AB:78:B5:10:C1:41:94
                DirName:/CN=team578-net
                serial:23:E7:15:6A:19:3D:77:01:B3:53:85:35:7A:1D:87:4B:9D:14:52:1B

            X509v3 Extended Key Usage: 
                TLS Web Client Authentication
            X509v3 Key Usage: 
                Digital Signature
    Signature Algorithm: sha256WithRSAEncryption
         8c:16:61:66:10:cf:3b:cb:17:51:a7:55:ef:8a:a9:45:04:81:
         d3:81:5f:8d:93:47:f4:0d:3b:4a:18:ea:fd:90:ed:db:9d:61:
         aa:24:a5:1b:67:7d:1f:80:7f:19:da:20:42:1a:65:9b:4b:67:
         25:d3:e5:2a:f7:dc:af:35:f8:e8:12:77:04:c4:1e:ca:3c:54:
         6f:96:7b:46:8f:27:bf:cf:b2:94:7d:60:3f:58:e0:69:0b:98:
         29:b8:5a:18:f3:90:87:5c:43:cc:28:b1:f1:27:fc:32:99:02:
         df:6f:3d:63:fc:97:18:c9:68:69:b2:7a:52:42:e2:1f:40:6a:
         6c:40:58:e4:50:04:5b:b5:a7:7e:e8:98:c8:16:00:b7:a4:e0:
         ac:2e:e6:9c:84:e6:cd:b1:b0:ff:ef:9c:cd:22:d7:93:be:0b:
         6a:5e:fc:75:11:d8:9b:e9:bb:01:08:9a:e8:02:d8:43:f4:35:
         d9:66:87:13:ab:74:cc:ac:b5:75:c7:27:70:f3:be:19:ee:dc:
         5a:6e:40:62:1e:82:0e:0b:5a:d8:6e:36:4b:28:6a:d0:8c:0c:
         39:45:30:40:92:e8:16:a4:9f:bd:00:39:46:8b:3c:6b:c0:6f:
         12:8e:e6:07:6b:76:49:be:9b:53:91:77:d2:4b:92:22:6e:a4:
         af:40:e7:1e
-----BEGIN CERTIFICATE-----
MIIDXTCCAkWgAwIBAgIRAM2cGayh0+J1LYcU2zLO0Y0wDQYJKoZIhvcNAQELBQAw
FjEUMBIGA1UEAwwLdGVhbTU3OC1uZXQwHhcNMjEwOTEzMDQwMzQxWhcNMjQwODI4
MDQwMzQxWjAZMRcwFQYDVQQDDA50ZWFtNTc4LWNsaWVudDCCASIwDQYJKoZIhvcN
AQEBBQADggEPADCCAQoCggEBAMJyFhvzu+zuHuqIKK1nexVTW1jsH0lCEh5Nzjfx
8GH5zWCxLlg0QD5idXy/w+4n/oyjdTvCmw24TlIbEULChn9voDKA7WTkt0VjlYMl
LImapU9vwH++d1l4yQNMyy1Lcf6kgqKdF0RwaI0PwGZe9HWW+H0jlsMrsQShUw9I
fLT+2DIE/yXx62uIpTQqPkHdqww4IbKznfvZ9ITtcSGS5PgeEc4YqLPleQ5BDgy1
TNDP+m3UlMG2KoUBxr3ah/5hQUdX/bQAy/Seg0/srBVNUb7Smdm/+2bEJDqgoQqR
iRxl3vK5xJKlbRUTqhQG4JbMoA51VWRjHzo1hJe61Vza+NUCAwEAAaOBojCBnzAJ
BgNVHRMEAjAAMB0GA1UdDgQWBBT/0de/Kibw7HnBkfbFGRPcSAlNBjBRBgNVHSME
SjBIgBQp7rJQXvxEhleKUSZvq3i1EMFBlKEapBgwFjEUMBIGA1UEAwwLdGVhbTU3
OC1uZXSCFCPnFWoZPXcBs1OFNXodh0udFFIbMBMGA1UdJQQMMAoGCCsGAQUFBwMC
MAsGA1UdDwQEAwIHgDANBgkqhkiG9w0BAQsFAAOCAQEAjBZhZhDPO8sXUadV74qp
RQSB04FfjZNH9A07Shjq/ZDt251hqiSlG2d9H4B/GdogQhplm0tnJdPlKvfcrzX4
6BJ3BMQeyjxUb5Z7Ro8nv8+ylH1gP1jgaQuYKbhaGPOQh1xDzCix8Sf8MpkC3289
Y/yXGMloabJ6UkLiH0BqbEBY5FAEW7WnfuiYyBYAt6TgrC7mnITmzbGw/++czSLX
k74Lal78dRHYm+m7AQia6ALYQ/Q12WaHE6t0zKy1dccncPO+Ge7cWm5AYh6CDgta
2G42Syhq0IwMOUUwQJLoFqSfvQA5Ros8a8BvEo7mB2t2Sb6bU5F30kuSIm6kr0Dn
Hg==
-----END CERTIFICATE-----
