Certificate:
    Data:
        Version: 3 (0x2)
        Serial Number:
            8e:a3:df:81:ac:03:c0:1e:e2:9c:34:70:bb:42:21:18
        Signature Algorithm: sha256WithRSAEncryption
        Issuer: CN=team334-net
        Validity
            Not Before: Sep 13 01:52:42 2021 GMT
            Not After : Aug 28 01:52:42 2024 GMT
        Subject: CN=team334-client
        Subject Public Key Info:
            Public Key Algorithm: rsaEncryption
                RSA Public-Key: (2048 bit)
                Modulus:
                    00:ae:5f:a8:e5:20:74:c2:04:d1:84:f5:22:62:43:
                    45:3b:c3:2f:1b:b8:9b:ec:8e:eb:c3:23:ba:2c:ef:
                    3c:3d:cd:d1:b0:39:28:a7:08:b1:a9:cd:12:0f:29:
                    c6:c5:8e:c4:ac:78:86:79:c6:e4:b5:26:51:66:3b:
                    4d:33:6d:41:cb:c2:4f:6f:1b:d9:11:07:b9:13:a5:
                    47:ce:94:cd:e3:85:7f:4b:45:1b:f1:ac:9a:86:53:
                    9c:8c:d0:83:02:01:8d:e7:0c:7e:95:c7:9f:a6:0c:
                    72:2e:8e:19:9b:11:e7:2e:30:54:12:53:60:85:9b:
                    a2:f3:e7:22:a7:11:f0:07:41:35:f6:85:d5:ca:92:
                    4c:e8:f9:97:74:b4:52:96:e7:2c:ef:82:ed:eb:03:
                    83:ff:37:4d:bf:e3:78:ca:61:ed:d5:f8:f6:66:79:
                    c9:24:1c:92:e8:67:ea:12:eb:70:f3:fd:15:93:f6:
                    bb:73:84:7f:6b:19:ba:d8:47:b7:a6:15:c7:e4:26:
                    b0:db:b2:e1:ba:6e:2b:5e:aa:d1:da:ad:9c:2a:dd:
                    13:ce:47:6b:28:dd:91:8e:b2:40:5d:65:c7:af:28:
                    b3:26:66:b2:e3:6a:50:21:cc:6c:70:e6:58:9a:64:
                    69:78:cb:2f:53:d9:ea:04:6d:d3:b8:3b:d9:fc:d9:
                    67:f7
                Exponent: 65537 (0x10001)
        X509v3 extensions:
            X509v3 Basic Constraints: 
                CA:FALSE
            X509v3 Subject Key Identifier: 
                BA:79:96:87:C7:CB:C5:63:3A:FB:EC:96:76:15:DF:F8:1B:D5:5A:62
            X509v3 Authority Key Identifier: 
                keyid:56:5B:85:39:C4:2D:FB:D6:CF:C0:C1:29:6A:87:5C:5B:72:2B:7F:57
                DirName:/CN=team334-net
                serial:15:40:C3:0C:AC:9B:AF:0C:5E:43:86:6A:FD:F2:D1:30:A0:B4:A5:2B

            X509v3 Extended Key Usage: 
                TLS Web Client Authentication
            X509v3 Key Usage: 
                Digital Signature
    Signature Algorithm: sha256WithRSAEncryption
         9d:7b:b3:6f:2d:58:46:e5:8c:63:94:15:b2:eb:f7:2e:42:6e:
         da:c4:7d:54:7f:c2:af:0d:f4:59:67:38:a4:a2:b9:19:f8:df:
         cf:93:ea:5d:76:e3:fc:11:1c:8b:c1:08:50:ff:b3:e1:3a:87:
         d1:c1:8f:1f:36:5e:3f:c7:ae:fa:9e:43:c4:89:b0:92:cb:2f:
         1d:96:df:33:fc:fe:19:7d:ca:26:5f:37:61:a8:9d:99:72:70:
         ba:a9:f2:4f:aa:00:19:ed:f4:06:26:03:2d:2d:65:87:dd:c2:
         40:eb:96:01:62:1c:c2:a6:51:1d:e3:b7:63:3f:2c:9c:36:1b:
         1c:27:74:3c:0b:2a:cf:b7:2f:2a:2d:1b:ea:9a:3c:42:b5:bf:
         2f:0f:03:92:ab:f1:7b:c0:47:f3:d0:ec:1d:76:f4:ba:20:6e:
         23:34:5a:2d:4c:ec:4e:8f:4a:54:a5:fe:95:4c:9b:a0:1a:8f:
         22:7d:7b:3e:63:95:4a:cd:26:3e:f9:90:da:a8:09:35:33:fe:
         cf:42:0c:8c:a8:0a:d3:ef:fd:27:76:fc:d1:0c:d4:f6:48:e1:
         4c:84:12:3d:cb:b7:93:05:d1:7b:bf:73:42:1a:9f:a5:42:21:
         dc:88:c0:a0:12:c0:14:0a:a5:6c:39:e8:38:ae:d8:d6:de:65:
         15:78:8b:8d
-----BEGIN CERTIFICATE-----
MIIDXTCCAkWgAwIBAgIRAI6j34GsA8Ae4pw0cLtCIRgwDQYJKoZIhvcNAQELBQAw
FjEUMBIGA1UEAwwLdGVhbTMzNC1uZXQwHhcNMjEwOTEzMDE1MjQyWhcNMjQwODI4
MDE1MjQyWjAZMRcwFQYDVQQDDA50ZWFtMzM0LWNsaWVudDCCASIwDQYJKoZIhvcN
AQEBBQADggEPADCCAQoCggEBAK5fqOUgdMIE0YT1ImJDRTvDLxu4m+yO68Mjuizv
PD3N0bA5KKcIsanNEg8pxsWOxKx4hnnG5LUmUWY7TTNtQcvCT28b2REHuROlR86U
zeOFf0tFG/GsmoZTnIzQgwIBjecMfpXHn6YMci6OGZsR5y4wVBJTYIWbovPnIqcR
8AdBNfaF1cqSTOj5l3S0UpbnLO+C7esDg/83Tb/jeMph7dX49mZ5ySQckuhn6hLr
cPP9FZP2u3OEf2sZuthHt6YVx+QmsNuy4bpuK16q0dqtnCrdE85HayjdkY6yQF1l
x68osyZmsuNqUCHMbHDmWJpkaXjLL1PZ6gRt07g72fzZZ/cCAwEAAaOBojCBnzAJ
BgNVHRMEAjAAMB0GA1UdDgQWBBS6eZaHx8vFYzr77JZ2Fd/4G9VaYjBRBgNVHSME
SjBIgBRWW4U5xC371s/AwSlqh1xbcit/V6EapBgwFjEUMBIGA1UEAwwLdGVhbTMz
NC1uZXSCFBVAwwysm68MXkOGav3y0TCgtKUrMBMGA1UdJQQMMAoGCCsGAQUFBwMC
MAsGA1UdDwQEAwIHgDANBgkqhkiG9w0BAQsFAAOCAQEAnXuzby1YRuWMY5QVsuv3
LkJu2sR9VH/Crw30WWc4pKK5Gfjfz5PqXXbj/BEci8EIUP+z4TqH0cGPHzZeP8eu
+p5DxImwkssvHZbfM/z+GX3KJl83YaidmXJwuqnyT6oAGe30BiYDLS1lh93CQOuW
AWIcwqZRHeO3Yz8snDYbHCd0PAsqz7cvKi0b6po8QrW/Lw8Dkqvxe8BH89DsHXb0
uiBuIzRaLUzsTo9KVKX+lUyboBqPIn17PmOVSs0mPvmQ2qgJNTP+z0IMjKgK0+/9
J3b80QzU9kjhTIQSPcu3kwXRe79zQhqfpUIh3IjAoBLAFAqlbDnoOK7Y1t5lFXiL
jQ==
-----END CERTIFICATE-----
