Certificate:
    Data:
        Version: 3 (0x2)
        Serial Number:
            2a:0e:07:45:83:30:5d:e8:1e:57:76:db:56:65:b1:25
        Signature Algorithm: sha256WithRSAEncryption
        Issuer: CN=team374-net
        Validity
            Not Before: Sep 13 02:09:29 2021 GMT
            Not After : Aug 28 02:09:29 2024 GMT
        Subject: CN=team374-server
        Subject Public Key Info:
            Public Key Algorithm: rsaEncryption
                RSA Public-Key: (2048 bit)
                Modulus:
                    00:b9:97:6e:2d:a6:7f:71:d2:39:bb:a4:80:ff:c0:
                    4a:ca:19:84:6a:95:c3:0c:a8:eb:c3:a8:87:45:0b:
                    3c:bd:fc:f6:1c:64:a6:b1:69:fc:7b:9a:07:f3:18:
                    f9:a3:46:e2:67:ff:4e:f0:30:53:f5:5e:1a:dc:b5:
                    cf:29:bd:64:82:79:b0:88:8c:d0:39:23:5e:65:62:
                    e0:38:8b:5b:56:43:1a:25:b8:f3:7d:2a:ed:af:79:
                    10:8e:81:af:c2:11:9a:75:21:6b:b0:f3:20:51:4b:
                    31:89:aa:0d:61:6a:08:dc:b3:28:d1:1c:cb:db:b0:
                    7a:8c:d9:4d:ec:39:2c:44:62:54:aa:9b:7b:a9:71:
                    26:24:14:21:d4:35:2f:1f:fd:04:57:4e:f6:c1:ec:
                    02:b7:a9:5f:45:33:ca:b6:51:97:fd:21:00:99:ca:
                    12:61:ad:ae:5d:7a:fa:1f:ea:d5:17:c2:45:a9:ed:
                    15:a5:5b:fb:2e:56:23:df:42:a9:f0:0e:72:ab:79:
                    1b:d2:3b:50:92:42:f9:87:19:d7:86:13:ad:81:cd:
                    4e:92:b6:de:ab:9a:25:6a:25:ce:d2:62:24:93:83:
                    26:98:29:51:a0:7e:a7:67:3e:e8:38:9d:8f:5f:f2:
                    2d:6a:24:38:ee:17:93:c8:8f:ab:81:89:9c:3b:ca:
                    3b:2f
                Exponent: 65537 (0x10001)
        X509v3 extensions:
            X509v3 Basic Constraints: 
                CA:FALSE
            X509v3 Subject Key Identifier: 
                DF:FF:D6:AC:39:EF:C8:2A:20:90:BC:34:F1:29:60:54:96:96:7E:E4
            X509v3 Authority Key Identifier: 
                keyid:89:6B:EA:3A:CE:ED:C2:8E:FB:7D:FA:70:4E:63:8F:E4:96:D8:AB:D8
                DirName:/CN=team374-net
                serial:2F:0F:29:24:8E:AE:D0:58:9F:01:1F:B9:77:9D:C7:2F:05:14:42:9F

            X509v3 Extended Key Usage: 
                TLS Web Server Authentication
            X509v3 Key Usage: 
                Digital Signature, Key Encipherment
            X509v3 Subject Alternative Name: 
                DNS:team374-server
    Signature Algorithm: sha256WithRSAEncryption
         7f:cc:83:f4:0f:f3:28:ee:1c:3c:17:80:a5:e1:b1:d6:a4:3e:
         85:6f:65:22:5f:27:ff:c3:8e:75:6d:08:2e:0f:c9:36:a6:b8:
         e7:c4:00:78:fe:cb:6a:22:6e:13:73:58:3e:a4:e2:ba:60:a8:
         d1:1c:1a:aa:1f:55:5f:32:c3:01:f8:d9:91:8a:d7:5d:34:70:
         e4:f4:00:a5:26:f2:37:f2:42:5e:27:01:14:0e:b8:85:09:f2:
         5e:29:9c:45:a1:84:34:8a:ee:f9:67:17:91:a2:e7:dc:48:6a:
         29:a0:81:62:9e:84:90:7b:d9:f5:1e:3f:58:26:f2:31:06:a3:
         0e:96:5f:a6:fb:39:a9:bc:26:98:aa:b7:e7:06:ac:b3:66:f5:
         14:0c:b8:85:8f:a6:ed:0a:3c:fb:e4:2d:99:25:8f:99:b9:5e:
         5c:72:81:a8:9f:ea:e5:8c:22:2c:83:fb:f1:26:02:43:b8:69:
         43:a4:7a:a3:98:a9:91:65:bd:24:95:12:15:a5:64:78:63:7f:
         31:09:da:55:2e:7e:5b:af:9a:4a:ba:7f:03:42:18:cc:da:78:
         54:86:a4:e1:43:34:9e:ad:30:46:19:95:b9:bf:e4:58:89:3a:
         08:a5:d1:87:12:ae:1c:26:11:95:4a:1a:92:9d:51:e9:f9:dc:
         79:a5:fe:b6
-----BEGIN CERTIFICATE-----
MIIDdzCCAl+gAwIBAgIQKg4HRYMwXegeV3bbVmWxJTANBgkqhkiG9w0BAQsFADAW
MRQwEgYDVQQDDAt0ZWFtMzc0LW5ldDAeFw0yMTA5MTMwMjA5MjlaFw0yNDA4Mjgw
MjA5MjlaMBkxFzAVBgNVBAMMDnRlYW0zNzQtc2VydmVyMIIBIjANBgkqhkiG9w0B
AQEFAAOCAQ8AMIIBCgKCAQEAuZduLaZ/cdI5u6SA/8BKyhmEapXDDKjrw6iHRQs8
vfz2HGSmsWn8e5oH8xj5o0biZ/9O8DBT9V4a3LXPKb1kgnmwiIzQOSNeZWLgOItb
VkMaJbjzfSrtr3kQjoGvwhGadSFrsPMgUUsxiaoNYWoI3LMo0RzL27B6jNlN7Dks
RGJUqpt7qXEmJBQh1DUvH/0EV072wewCt6lfRTPKtlGX/SEAmcoSYa2uXXr6H+rV
F8JFqe0VpVv7LlYj30Kp8A5yq3kb0jtQkkL5hxnXhhOtgc1Okrbeq5olaiXO0mIk
k4MmmClRoH6nZz7oOJ2PX/ItaiQ47heTyI+rgYmcO8o7LwIDAQABo4G9MIG6MAkG
A1UdEwQCMAAwHQYDVR0OBBYEFN//1qw578gqIJC8NPEpYFSWln7kMFEGA1UdIwRK
MEiAFIlr6jrO7cKO+336cE5jj+SW2KvYoRqkGDAWMRQwEgYDVQQDDAt0ZWFtMzc0
LW5ldIIULw8pJI6u0FifAR+5d53HLwUUQp8wEwYDVR0lBAwwCgYIKwYBBQUHAwEw
CwYDVR0PBAQDAgWgMBkGA1UdEQQSMBCCDnRlYW0zNzQtc2VydmVyMA0GCSqGSIb3
DQEBCwUAA4IBAQB/zIP0D/Mo7hw8F4Cl4bHWpD6Fb2UiXyf/w451bQguD8k2prjn
xAB4/stqIm4Tc1g+pOK6YKjRHBqqH1VfMsMB+NmRitddNHDk9AClJvI38kJeJwEU
DriFCfJeKZxFoYQ0iu75ZxeRoufcSGopoIFinoSQe9n1Hj9YJvIxBqMOll+m+zmp
vCaYqrfnBqyzZvUUDLiFj6btCjz75C2ZJY+ZuV5ccoGon+rljCIsg/vxJgJDuGlD
pHqjmKmRZb0klRIVpWR4Y38xCdpVLn5br5pKun8DQhjM2nhUhqThQzSerTBGGZW5
v+RYiToIpdGHEq4cJhGVShqSnVHp+dx5pf62
-----END CERTIFICATE-----
