Certificate:
    Data:
        Version: 3 (0x2)
        Serial Number:
            eb:db:49:b9:87:aa:38:11:8e:c9:1b:c8:5c:98:83:86
        Signature Algorithm: sha256WithRSAEncryption
        Issuer: CN=team374-net
        Validity
            Not Before: Sep 13 02:09:28 2021 GMT
            Not After : Aug 28 02:09:28 2024 GMT
        Subject: CN=team374-client
        Subject Public Key Info:
            Public Key Algorithm: rsaEncryption
                RSA Public-Key: (2048 bit)
                Modulus:
                    00:b7:ac:cd:6d:fa:31:cd:6a:e6:2f:10:8d:f8:11:
                    86:8e:4f:fe:2a:88:2a:93:89:d7:da:22:d1:d4:dc:
                    3f:58:91:67:c7:78:64:62:01:0e:10:f0:27:40:45:
                    9d:ff:ce:a2:ce:ed:7d:97:df:a8:62:07:6c:9a:0e:
                    65:6e:d0:9f:db:02:ef:75:aa:31:ed:df:49:cc:39:
                    65:0f:c9:32:a4:0c:65:41:82:b1:44:2f:59:c4:92:
                    e1:e6:9e:23:f1:80:a9:9d:ca:9b:56:ae:12:63:e4:
                    a4:ee:e9:94:0a:fb:57:5f:bb:d8:f4:f8:57:98:dd:
                    ea:38:82:b9:8a:17:d9:7e:a3:92:ea:ca:68:ba:ca:
                    cf:7c:e3:54:68:7e:f7:b5:cf:d2:10:f5:dc:a5:e8:
                    af:a2:65:6a:c6:30:d7:9e:d1:dd:ae:eb:40:90:6d:
                    4b:e5:cf:d1:f7:8d:22:69:0c:2d:e4:e2:eb:d1:b5:
                    a1:46:e4:a2:df:dd:05:32:81:2e:60:56:d5:f5:41:
                    21:05:d4:39:80:07:eb:ae:4d:47:50:c5:6e:f4:2c:
                    1a:0b:57:4c:03:98:94:57:64:58:2b:f8:f6:ee:52:
                    db:fb:56:9f:13:d0:09:7b:87:0b:43:a2:cf:d1:33:
                    de:31:13:6c:fc:c4:24:6c:99:51:83:c6:b3:e2:db:
                    8f:ad
                Exponent: 65537 (0x10001)
        X509v3 extensions:
            X509v3 Basic Constraints: 
                CA:FALSE
            X509v3 Subject Key Identifier: 
                38:2D:C0:10:3C:6B:A5:AA:C7:BD:FA:17:03:B6:3C:6E:10:F9:61:E4
            X509v3 Authority Key Identifier: 
                keyid:89:6B:EA:3A:CE:ED:C2:8E:FB:7D:FA:70:4E:63:8F:E4:96:D8:AB:D8
                DirName:/CN=team374-net
                serial:2F:0F:29:24:8E:AE:D0:58:9F:01:1F:B9:77:9D:C7:2F:05:14:42:9F

            X509v3 Extended Key Usage: 
                TLS Web Client Authentication
            X509v3 Key Usage: 
                Digital Signature
    Signature Algorithm: sha256WithRSAEncryption
         cf:5a:bf:f4:7b:29:7f:84:12:c2:c3:ac:28:f7:2f:ca:98:06:
         b2:07:4f:52:50:fe:e9:03:72:7e:96:cd:50:1c:92:3b:ef:b3:
         55:bc:68:d7:fe:39:5e:0b:24:05:a4:1a:56:4b:f1:6d:38:87:
         54:a6:c6:9b:3f:5d:85:2e:b4:40:33:dd:8a:af:c8:51:d2:24:
         83:3d:bf:00:06:fc:8c:55:eb:ce:1b:0a:eb:2b:97:4e:fc:d7:
         37:9e:20:97:ee:e2:e9:ca:43:26:eb:d1:43:af:e6:b7:66:a1:
         7a:9e:95:45:86:dc:2e:43:bf:85:91:d7:7a:0d:98:00:47:13:
         47:4f:1e:e5:1a:9f:6e:bd:d1:aa:47:ac:34:1c:94:5b:34:02:
         85:9c:22:8c:7f:3d:09:1c:61:c7:dc:65:6c:e1:38:a7:2a:ff:
         18:8b:ca:96:a6:fd:de:3a:ca:25:bf:82:2b:77:68:47:70:29:
         84:a2:ec:69:2c:da:f1:92:09:21:0e:ee:19:ff:44:d4:f9:bf:
         7d:15:9a:88:a3:cb:f1:72:b8:97:2b:3d:79:c5:1b:43:5b:1b:
         42:58:fa:97:60:26:8d:6b:3b:b9:de:3d:ab:dd:b0:79:02:d7:
         cc:21:9c:29:51:ef:e4:b3:83:ed:31:2c:0b:ba:21:c9:0b:17:
         d4:8c:d3:b9
-----BEGIN CERTIFICATE-----
MIIDXTCCAkWgAwIBAgIRAOvbSbmHqjgRjskbyFyYg4YwDQYJKoZIhvcNAQELBQAw
FjEUMBIGA1UEAwwLdGVhbTM3NC1uZXQwHhcNMjEwOTEzMDIwOTI4WhcNMjQwODI4
MDIwOTI4WjAZMRcwFQYDVQQDDA50ZWFtMzc0LWNsaWVudDCCASIwDQYJKoZIhvcN
AQEBBQADggEPADCCAQoCggEBALeszW36Mc1q5i8QjfgRho5P/iqIKpOJ19oi0dTc
P1iRZ8d4ZGIBDhDwJ0BFnf/Oos7tfZffqGIHbJoOZW7Qn9sC73WqMe3fScw5ZQ/J
MqQMZUGCsUQvWcSS4eaeI/GAqZ3Km1auEmPkpO7plAr7V1+72PT4V5jd6jiCuYoX
2X6jkurKaLrKz3zjVGh+97XP0hD13KXor6JlasYw157R3a7rQJBtS+XP0feNImkM
LeTi69G1oUbkot/dBTKBLmBW1fVBIQXUOYAH665NR1DFbvQsGgtXTAOYlFdkWCv4
9u5S2/tWnxPQCXuHC0Oiz9Ez3jETbPzEJGyZUYPGs+Lbj60CAwEAAaOBojCBnzAJ
BgNVHRMEAjAAMB0GA1UdDgQWBBQ4LcAQPGulqse9+hcDtjxuEPlh5DBRBgNVHSME
SjBIgBSJa+o6zu3Cjvt9+nBOY4/kltir2KEapBgwFjEUMBIGA1UEAwwLdGVhbTM3
NC1uZXSCFC8PKSSOrtBYnwEfuXedxy8FFEKfMBMGA1UdJQQMMAoGCCsGAQUFBwMC
MAsGA1UdDwQEAwIHgDANBgkqhkiG9w0BAQsFAAOCAQEAz1q/9Hspf4QSwsOsKPcv
ypgGsgdPUlD+6QNyfpbNUBySO++zVbxo1/45XgskBaQaVkvxbTiHVKbGmz9dhS60
QDPdiq/IUdIkgz2/AAb8jFXrzhsK6yuXTvzXN54gl+7i6cpDJuvRQ6/mt2ahep6V
RYbcLkO/hZHXeg2YAEcTR08e5Rqfbr3RqkesNByUWzQChZwijH89CRxhx9xlbOE4
pyr/GIvKlqb93jrKJb+CK3doR3AphKLsaSza8ZIJIQ7uGf9E1Pm/fRWaiKPL8XK4
lys9ecUbQ1sbQlj6l2AmjWs7ud49q92weQLXzCGcKVHv5LOD7TEsC7ohyQsX1IzT
uQ==
-----END CERTIFICATE-----
