Certificate:
    Data:
        Version: 3 (0x2)
        Serial Number:
            7b:64:e9:70:f8:e7:c9:52:49:21:aa:9f:f8:58:03:e1
        Signature Algorithm: sha256WithRSAEncryption
        Issuer: CN=team507-net
        Validity
            Not Before: Sep 13 03:21:52 2021 GMT
            Not After : Aug 28 03:21:52 2024 GMT
        Subject: CN=team507-client
        Subject Public Key Info:
            Public Key Algorithm: rsaEncryption
                RSA Public-Key: (2048 bit)
                Modulus:
                    00:c4:73:ac:24:2e:10:f7:dd:b7:96:af:03:da:d4:
                    d0:04:ed:a4:7e:a7:05:3c:19:d5:eb:4e:17:df:be:
                    d6:22:2c:da:f4:ed:42:95:65:df:a1:9e:cb:f7:11:
                    e2:86:ba:8a:07:8b:df:58:dc:80:fd:f2:97:25:ac:
                    19:1d:6e:eb:4f:e6:ab:e5:34:18:60:90:3c:8a:2d:
                    ca:44:b5:e9:12:b6:b5:a2:a7:5e:02:91:f9:e1:7e:
                    a1:37:3c:09:67:8d:78:72:dd:dd:46:ed:cd:df:0f:
                    f7:e4:52:20:6b:03:22:c8:84:10:31:c4:39:5c:a6:
                    07:cd:d0:6c:f7:e8:72:4c:0c:68:77:ae:03:af:bd:
                    c4:39:0e:8d:68:71:58:81:f9:1b:02:e6:00:bf:7a:
                    1a:2b:d3:ac:42:d4:ea:a8:c1:2e:01:18:54:a6:02:
                    2d:f2:2e:b8:d8:0f:09:40:69:76:54:f0:a8:ee:b3:
                    ae:e8:34:7e:5a:b6:8c:ab:a6:c8:2c:a9:e9:f5:cc:
                    bb:b1:52:98:00:26:05:66:3d:d3:00:42:a3:51:5c:
                    5c:20:32:23:f0:0e:e5:7e:b4:e4:0f:10:6a:7e:d1:
                    26:81:4a:90:e2:2a:8e:2b:7f:50:9a:cf:1c:00:d6:
                    6a:99:53:b6:15:58:7a:89:16:77:02:71:63:51:ec:
                    df:ed
                Exponent: 65537 (0x10001)
        X509v3 extensions:
            X509v3 Basic Constraints: 
                CA:FALSE
            X509v3 Subject Key Identifier: 
                31:B2:98:37:82:91:70:E9:3A:48:45:54:36:A7:98:BA:74:72:92:15
            X509v3 Authority Key Identifier: 
                keyid:5B:C1:C7:26:65:FD:58:E8:29:75:26:8A:A6:D7:27:60:B6:E2:E8:64
                DirName:/CN=team507-net
                serial:3E:35:D6:DC:CC:38:6B:01:3D:B6:D5:1A:EF:63:8F:84:59:26:09:8B

            X509v3 Extended Key Usage: 
                TLS Web Client Authentication
            X509v3 Key Usage: 
                Digital Signature
    Signature Algorithm: sha256WithRSAEncryption
         a0:3a:d0:9f:4f:00:b6:4a:8a:10:52:dd:0e:36:2f:0a:5b:f4:
         2c:62:69:a6:99:6a:1b:f0:b6:4e:0d:1c:ee:a1:d4:b1:b5:22:
         d2:21:7a:17:66:0b:db:bb:32:ce:48:91:00:32:e8:27:9e:00:
         0c:a6:2b:18:cd:dc:4e:28:0c:eb:90:f7:00:7a:90:cc:39:92:
         15:5c:d2:10:31:78:74:04:fd:59:82:15:90:23:eb:5b:ed:d9:
         83:00:2b:b1:0c:64:83:23:cf:0c:37:d3:fa:a4:3f:78:0d:c8:
         50:62:04:cb:6b:ce:21:42:69:f1:50:5c:ab:ba:94:ac:74:9d:
         06:95:97:7f:64:92:0e:a7:da:9b:cc:d4:c1:39:d5:06:ec:11:
         28:38:33:4d:9b:5d:7c:9b:94:19:21:a6:76:45:0c:05:1e:72:
         41:99:81:e5:0b:15:17:6b:3b:aa:a6:e6:63:80:d8:09:3c:89:
         33:3d:5c:a0:cd:38:05:04:fa:4b:66:4b:db:ad:2e:b1:d1:3c:
         d9:e2:b0:0f:13:70:cc:d3:5f:f0:9b:92:5f:75:07:a4:8b:a6:
         ef:44:5a:eb:93:d4:93:30:32:50:28:9d:31:25:a4:8e:af:de:
         2e:af:b8:43:d6:f1:71:26:6a:7c:17:ad:c4:5c:83:a6:98:70:
         35:37:b1:08
-----BEGIN CERTIFICATE-----
MIIDXDCCAkSgAwIBAgIQe2TpcPjnyVJJIaqf+FgD4TANBgkqhkiG9w0BAQsFADAW
MRQwEgYDVQQDDAt0ZWFtNTA3LW5ldDAeFw0yMTA5MTMwMzIxNTJaFw0yNDA4Mjgw
MzIxNTJaMBkxFzAVBgNVBAMMDnRlYW01MDctY2xpZW50MIIBIjANBgkqhkiG9w0B
AQEFAAOCAQ8AMIIBCgKCAQEAxHOsJC4Q9923lq8D2tTQBO2kfqcFPBnV604X377W
Iiza9O1ClWXfoZ7L9xHihrqKB4vfWNyA/fKXJawZHW7rT+ar5TQYYJA8ii3KRLXp
Era1oqdeApH54X6hNzwJZ414ct3dRu3N3w/35FIgawMiyIQQMcQ5XKYHzdBs9+hy
TAxod64Dr73EOQ6NaHFYgfkbAuYAv3oaK9OsQtTqqMEuARhUpgIt8i642A8JQGl2
VPCo7rOu6DR+WraMq6bILKnp9cy7sVKYACYFZj3TAEKjUVxcIDIj8A7lfrTkDxBq
ftEmgUqQ4iqOK39Qms8cANZqmVO2FVh6iRZ3AnFjUezf7QIDAQABo4GiMIGfMAkG
A1UdEwQCMAAwHQYDVR0OBBYEFDGymDeCkXDpOkhFVDanmLp0cpIVMFEGA1UdIwRK
MEiAFFvBxyZl/VjoKXUmiqbXJ2C24uhkoRqkGDAWMRQwEgYDVQQDDAt0ZWFtNTA3
LW5ldIIUPjXW3Mw4awE9ttUa72OPhFkmCYswEwYDVR0lBAwwCgYIKwYBBQUHAwIw
CwYDVR0PBAQDAgeAMA0GCSqGSIb3DQEBCwUAA4IBAQCgOtCfTwC2SooQUt0ONi8K
W/QsYmmmmWob8LZODRzuodSxtSLSIXoXZgvbuzLOSJEAMugnngAMpisYzdxOKAzr
kPcAepDMOZIVXNIQMXh0BP1ZghWQI+tb7dmDACuxDGSDI88MN9P6pD94DchQYgTL
a84hQmnxUFyrupSsdJ0GlZd/ZJIOp9qbzNTBOdUG7BEoODNNm118m5QZIaZ2RQwF
HnJBmYHlCxUXazuqpuZjgNgJPIkzPVygzTgFBPpLZkvbrS6x0TzZ4rAPE3DM01/w
m5JfdQeki6bvRFrrk9STMDJQKJ0xJaSOr94ur7hD1vFxJmp8F63EXIOmmHA1N7EI
-----END CERTIFICATE-----
