Certificate:
    Data:
        Version: 3 (0x2)
        Serial Number:
            c6:98:7f:96:2f:56:04:0a:a4:20:25:17:aa:b5:91:5c
        Signature Algorithm: sha256WithRSAEncryption
        Issuer: CN=team695-net
        Validity
            Not Before: Sep 13 04:45:03 2021 GMT
            Not After : Aug 28 04:45:03 2024 GMT
        Subject: CN=team695-client
        Subject Public Key Info:
            Public Key Algorithm: rsaEncryption
                RSA Public-Key: (2048 bit)
                Modulus:
                    00:c9:34:8e:3f:cc:2d:87:96:4a:78:b0:a6:13:c3:
                    72:ed:29:7d:9a:42:5a:0f:89:5f:5e:db:9a:e6:72:
                    f7:6a:7d:d2:aa:d7:09:77:ea:7d:9f:81:c1:67:85:
                    5d:26:cd:78:6f:ce:6e:a9:04:52:5b:f8:59:4d:23:
                    1e:5b:3c:04:ac:5c:3e:1e:bf:1f:42:cf:56:ea:da:
                    47:7b:49:03:9d:1a:84:4a:36:83:2d:d9:58:38:3d:
                    a6:c8:be:7e:21:17:f7:fc:52:0c:4d:2f:dc:07:66:
                    83:3f:f4:01:18:58:54:fc:0c:e0:1d:cd:e1:8a:88:
                    28:94:c3:c5:1e:46:d6:94:ff:3d:89:32:98:6d:b6:
                    5a:8f:ac:07:5a:ef:52:14:7a:3d:8c:e8:1e:fe:34:
                    f9:17:4b:d0:a5:2d:1e:a0:d4:8c:79:8e:52:1e:64:
                    07:b7:b7:3b:30:d6:db:b8:f1:38:50:aa:82:8e:b3:
                    81:a3:87:56:5e:a0:98:35:d2:55:54:3c:fa:17:70:
                    2e:7d:ab:6e:a5:4b:a8:a6:a6:38:56:80:08:8c:d6:
                    95:41:6b:2e:7e:65:28:50:00:10:f4:4d:13:af:17:
                    a6:16:29:2e:ed:76:6e:62:8f:ae:e1:e8:33:71:13:
                    dd:3f:e6:cf:11:fd:c5:78:84:14:12:81:29:6f:7a:
                    cd:5d
                Exponent: 65537 (0x10001)
        X509v3 extensions:
            X509v3 Basic Constraints: 
                CA:FALSE
            X509v3 Subject Key Identifier: 
                10:16:7C:2D:8B:B6:7C:A6:D7:95:A8:0C:03:48:0B:3C:9D:F8:50:D1
            X509v3 Authority Key Identifier: 
                keyid:61:0A:0F:38:C3:5D:F1:6E:FE:9F:C7:F7:45:96:6E:F5:47:F7:61:AD
                DirName:/CN=team695-net
                serial:2F:9D:6C:2C:3B:7E:94:77:ED:CC:8C:C7:AC:CF:05:E1:3C:6B:42:BC

            X509v3 Extended Key Usage: 
                TLS Web Client Authentication
            X509v3 Key Usage: 
                Digital Signature
    Signature Algorithm: sha256WithRSAEncryption
         34:60:26:e6:bb:0c:ac:5c:0a:8b:cb:a7:5a:0e:ba:da:d5:6c:
         f9:f8:5b:88:b6:44:e0:fa:b6:59:b1:d9:be:be:c0:7f:bc:7e:
         90:4d:c7:64:f5:ed:c1:e0:26:03:fa:51:6e:74:fd:e2:5c:d0:
         6f:db:fe:a9:cc:01:4c:c8:af:3a:14:87:ef:0e:53:5e:5d:f6:
         67:81:31:55:0a:4c:aa:75:1f:a6:73:65:23:37:e3:e4:1a:71:
         79:de:be:78:ea:a0:e1:cc:9d:a2:61:fe:66:f7:5f:28:2e:1f:
         bc:7b:fc:8d:0f:49:b1:4e:c1:6c:6f:34:0a:25:65:06:62:36:
         c6:2a:6d:84:51:96:60:d6:7c:25:90:8f:42:67:b7:de:e7:2d:
         46:34:77:bc:e4:63:d0:f4:3e:c7:df:93:73:a2:ba:ce:4f:40:
         3e:9f:d2:46:a2:c2:b8:1d:d9:f6:f4:73:a4:39:6d:ef:e9:f2:
         6a:17:fa:71:2f:b4:79:31:89:9b:0d:85:83:7b:c3:9d:6c:e0:
         ed:9c:8c:b2:2b:52:d5:d2:35:94:a9:e5:07:fd:7d:da:52:32:
         5b:fc:8d:d9:84:00:e6:4b:b5:7d:89:5f:68:de:89:4e:45:fd:
         07:ed:67:e6:ce:65:3a:01:49:23:2d:d2:57:fa:0c:f2:f0:78:
         d4:94:69:0f
-----BEGIN CERTIFICATE-----
MIIDXTCCAkWgAwIBAgIRAMaYf5YvVgQKpCAlF6q1kVwwDQYJKoZIhvcNAQELBQAw
FjEUMBIGA1UEAwwLdGVhbTY5NS1uZXQwHhcNMjEwOTEzMDQ0NTAzWhcNMjQwODI4
MDQ0NTAzWjAZMRcwFQYDVQQDDA50ZWFtNjk1LWNsaWVudDCCASIwDQYJKoZIhvcN
AQEBBQADggEPADCCAQoCggEBAMk0jj/MLYeWSniwphPDcu0pfZpCWg+JX17bmuZy
92p90qrXCXfqfZ+BwWeFXSbNeG/ObqkEUlv4WU0jHls8BKxcPh6/H0LPVuraR3tJ
A50ahEo2gy3ZWDg9psi+fiEX9/xSDE0v3Admgz/0ARhYVPwM4B3N4YqIKJTDxR5G
1pT/PYkymG22Wo+sB1rvUhR6PYzoHv40+RdL0KUtHqDUjHmOUh5kB7e3OzDW27jx
OFCqgo6zgaOHVl6gmDXSVVQ8+hdwLn2rbqVLqKamOFaACIzWlUFrLn5lKFAAEPRN
E68XphYpLu12bmKPruHoM3ET3T/mzxH9xXiEFBKBKW96zV0CAwEAAaOBojCBnzAJ
BgNVHRMEAjAAMB0GA1UdDgQWBBQQFnwti7Z8pteVqAwDSAs8nfhQ0TBRBgNVHSME
SjBIgBRhCg84w13xbv6fx/dFlm71R/dhraEapBgwFjEUMBIGA1UEAwwLdGVhbTY5
NS1uZXSCFC+dbCw7fpR37cyMx6zPBeE8a0K8MBMGA1UdJQQMMAoGCCsGAQUFBwMC
MAsGA1UdDwQEAwIHgDANBgkqhkiG9w0BAQsFAAOCAQEANGAm5rsMrFwKi8unWg66
2tVs+fhbiLZE4Pq2WbHZvr7Af7x+kE3HZPXtweAmA/pRbnT94lzQb9v+qcwBTMiv
OhSH7w5TXl32Z4ExVQpMqnUfpnNlIzfj5Bpxed6+eOqg4cydomH+ZvdfKC4fvHv8
jQ9JsU7BbG80CiVlBmI2xipthFGWYNZ8JZCPQme33uctRjR3vORj0PQ+x9+Tc6K6
zk9APp/SRqLCuB3Z9vRzpDlt7+nyahf6cS+0eTGJmw2Fg3vDnWzg7ZyMsitS1dI1
lKnlB/192lIyW/yN2YQA5ku1fYlfaN6JTkX9B+1n5s5lOgFJIy3SV/oM8vB41JRp
Dw==
-----END CERTIFICATE-----
