Certificate:
    Data:
        Version: 3 (0x2)
        Serial Number:
            38:34:c6:c0:42:34:77:00:a4:96:21:f0:8a:b8:10:ac
        Signature Algorithm: sha256WithRSAEncryption
        Issuer: CN=team129-net
        Validity
            Not Before: Sep 12 23:53:42 2021 GMT
            Not After : Aug 27 23:53:42 2024 GMT
        Subject: CN=team129-server
        Subject Public Key Info:
            Public Key Algorithm: rsaEncryption
                RSA Public-Key: (2048 bit)
                Modulus:
                    00:ac:5b:50:92:37:cc:1e:e4:18:4b:26:c6:07:63:
                    c0:84:3d:e9:2a:50:45:f0:a3:9b:aa:02:be:72:77:
                    eb:f5:bd:0d:69:cf:99:62:8f:38:b0:97:64:59:f8:
                    99:ef:96:16:1d:3e:4e:9f:67:bc:f7:00:3d:54:eb:
                    d9:e7:bf:a0:18:9b:91:93:2d:e2:de:a2:60:5c:b2:
                    0c:ec:19:b7:cb:12:44:c1:03:87:ae:c0:1f:d7:e6:
                    8d:72:7a:3d:2a:73:f0:ee:39:87:4d:80:82:40:f4:
                    8c:41:1c:b6:cd:6c:ca:a1:66:8e:c2:2e:15:71:57:
                    4f:a9:a0:d4:fa:62:8a:64:2c:f6:95:19:c7:bf:4a:
                    90:af:bb:29:22:c9:20:17:67:6b:6e:30:87:47:cd:
                    17:8a:04:60:4a:a8:b4:f2:7e:f6:62:18:ca:83:4a:
                    2c:bb:11:2a:ec:b6:06:92:e2:13:b0:f5:e2:11:a3:
                    66:26:ec:8a:1b:ce:4b:41:e4:05:d9:50:52:54:89:
                    53:87:10:79:3d:98:a9:b6:b7:fa:ac:e4:94:d5:79:
                    7c:3f:c6:d9:3b:3f:32:8b:4a:8b:33:41:3a:a6:5d:
                    cb:0a:cd:6f:56:d7:f0:d3:26:1c:64:68:56:cd:1c:
                    f8:9e:0f:09:28:4c:66:c1:e2:3e:ed:6a:04:a9:b8:
                    fc:bd
                Exponent: 65537 (0x10001)
        X509v3 extensions:
            X509v3 Basic Constraints: 
                CA:FALSE
            X509v3 Subject Key Identifier: 
                83:E3:41:37:E5:52:47:9C:78:0F:A5:C6:1B:A8:43:B9:26:8A:3F:44
            X509v3 Authority Key Identifier: 
                keyid:B3:E7:71:DE:65:B7:DA:B4:47:52:45:0F:F7:8A:92:A3:77:B4:F2:A1
                DirName:/CN=team129-net
                serial:05:F3:5D:1A:29:E5:55:E1:E1:4E:07:61:CE:E2:F8:57:F3:E4:06:11

            X509v3 Extended Key Usage: 
                TLS Web Server Authentication
            X509v3 Key Usage: 
                Digital Signature, Key Encipherment
            X509v3 Subject Alternative Name: 
                DNS:team129-server
    Signature Algorithm: sha256WithRSAEncryption
         cd:ca:5b:ab:e0:f9:c2:be:f0:64:9a:42:3b:82:2d:e8:c3:8a:
         47:99:03:4d:65:11:0c:00:48:bc:c8:9b:46:a0:bd:86:35:c7:
         76:81:b3:05:5d:e9:3b:e3:f4:12:e4:cc:f7:b8:6e:3c:5b:ce:
         61:2d:a4:42:a3:16:71:2a:e3:5b:ba:85:3a:0a:99:10:98:62:
         43:30:8c:4a:fc:3f:06:7b:85:c6:ef:5b:17:bc:2f:8b:58:12:
         ec:2d:64:cb:d9:56:5f:d9:c4:40:5c:b2:8d:36:1c:51:da:f9:
         5c:75:7b:70:7b:65:2b:1f:9c:c5:f8:c4:09:6d:0d:88:d6:a1:
         33:86:fe:0e:c9:47:d5:49:20:d2:da:00:3f:3a:81:ab:c0:05:
         8b:b8:f8:34:a3:f5:86:8d:58:72:27:52:82:61:4d:89:ea:e8:
         59:95:b5:06:6e:70:87:fb:e6:51:9b:5f:b5:74:e3:fc:8e:47:
         a3:66:81:68:2f:f8:e6:18:a8:c6:bc:18:0f:ba:40:ea:30:42:
         16:3a:87:9e:04:69:c0:14:11:31:a2:80:0d:60:4e:17:77:f2:
         10:97:63:af:30:48:b9:aa:36:7e:09:84:62:3f:af:63:fb:e0:
         58:f5:d2:89:e1:61:89:31:9c:b4:cc:32:fc:ab:a4:7b:94:57:
         fd:2d:57:14
-----BEGIN CERTIFICATE-----
MIIDdzCCAl+gAwIBAgIQODTGwEI0dwCkliHwirgQrDANBgkqhkiG9w0BAQsFADAW
MRQwEgYDVQQDDAt0ZWFtMTI5LW5ldDAeFw0yMTA5MTIyMzUzNDJaFw0yNDA4Mjcy
MzUzNDJaMBkxFzAVBgNVBAMMDnRlYW0xMjktc2VydmVyMIIBIjANBgkqhkiG9w0B
AQEFAAOCAQ8AMIIBCgKCAQEArFtQkjfMHuQYSybGB2PAhD3pKlBF8KObqgK+cnfr
9b0Nac+ZYo84sJdkWfiZ75YWHT5On2e89wA9VOvZ57+gGJuRky3i3qJgXLIM7Bm3
yxJEwQOHrsAf1+aNcno9KnPw7jmHTYCCQPSMQRy2zWzKoWaOwi4VcVdPqaDU+mKK
ZCz2lRnHv0qQr7spIskgF2drbjCHR80XigRgSqi08n72YhjKg0osuxEq7LYGkuIT
sPXiEaNmJuyKG85LQeQF2VBSVIlThxB5PZiptrf6rOSU1Xl8P8bZOz8yi0qLM0E6
pl3LCs1vVtfw0yYcZGhWzRz4ng8JKExmweI+7WoEqbj8vQIDAQABo4G9MIG6MAkG
A1UdEwQCMAAwHQYDVR0OBBYEFIPjQTflUkeceA+lxhuoQ7kmij9EMFEGA1UdIwRK
MEiAFLPncd5lt9q0R1JFD/eKkqN3tPKhoRqkGDAWMRQwEgYDVQQDDAt0ZWFtMTI5
LW5ldIIUBfNdGinlVeHhTgdhzuL4V/PkBhEwEwYDVR0lBAwwCgYIKwYBBQUHAwEw
CwYDVR0PBAQDAgWgMBkGA1UdEQQSMBCCDnRlYW0xMjktc2VydmVyMA0GCSqGSIb3
DQEBCwUAA4IBAQDNylur4PnCvvBkmkI7gi3ow4pHmQNNZREMAEi8yJtGoL2GNcd2
gbMFXek74/QS5Mz3uG48W85hLaRCoxZxKuNbuoU6CpkQmGJDMIxK/D8Ge4XG71sX
vC+LWBLsLWTL2VZf2cRAXLKNNhxR2vlcdXtwe2UrH5zF+MQJbQ2I1qEzhv4OyUfV
SSDS2gA/OoGrwAWLuPg0o/WGjVhyJ1KCYU2J6uhZlbUGbnCH++ZRm1+1dOP8jkej
ZoFoL/jmGKjGvBgPukDqMEIWOoeeBGnAFBExooANYE4Xd/IQl2OvMEi5qjZ+CYRi
P69j++BY9dKJ4WGJMZy0zDL8q6R7lFf9LVcU
-----END CERTIFICATE-----
