Certificate:
    Data:
        Version: 3 (0x2)
        Serial Number:
            47:ed:44:2d:5e:ca:19:47:5b:3e:ab:32:c5:02:3f:f2
        Signature Algorithm: sha256WithRSAEncryption
        Issuer: CN=team118-net
        Validity
            Not Before: Sep 12 23:46:45 2021 GMT
            Not After : Aug 27 23:46:45 2024 GMT
        Subject: CN=team118-client
        Subject Public Key Info:
            Public Key Algorithm: rsaEncryption
                RSA Public-Key: (2048 bit)
                Modulus:
                    00:ab:ef:e0:dc:84:38:c4:a4:d4:00:5e:94:08:d6:
                    bf:92:3f:24:59:a0:32:20:2e:fe:64:30:0a:9c:2c:
                    d8:16:4b:fd:1d:cb:23:78:13:92:f5:b3:31:bf:78:
                    28:c2:aa:09:ac:43:3e:6f:28:91:b0:bd:54:67:cf:
                    2f:fa:37:ff:d6:2b:ee:0a:85:5a:dd:12:d3:b7:d5:
                    b0:e8:d7:05:3a:98:18:b7:6e:a0:01:2d:1f:85:ad:
                    19:e9:2b:66:b6:3d:2b:88:94:78:79:6f:8f:59:af:
                    20:13:7b:37:c2:42:28:d4:55:9d:35:83:c5:90:c3:
                    eb:59:62:8b:1a:c3:8e:0f:ee:5f:a6:73:72:15:f3:
                    9b:25:2c:d9:9e:c9:ce:f4:d2:b1:b3:c1:1a:8a:df:
                    20:c9:98:01:a1:44:67:6f:69:46:de:4f:e9:81:d8:
                    0f:25:4f:14:b7:ae:33:3a:cc:8a:bd:cf:8a:64:87:
                    9d:f7:4b:69:98:16:ad:aa:3c:40:a2:af:d2:36:e0:
                    e7:3e:29:e9:28:0e:85:db:ed:f4:04:ec:b9:b4:f5:
                    cd:13:a2:24:69:da:c2:38:67:58:91:8d:e9:b6:8b:
                    9b:0e:be:a6:ba:55:aa:6b:6f:2b:af:99:07:69:62:
                    05:e8:16:cf:46:eb:87:9e:63:44:94:30:56:49:56:
                    41:b1
                Exponent: 65537 (0x10001)
        X509v3 extensions:
            X509v3 Basic Constraints: 
                CA:FALSE
            X509v3 Subject Key Identifier: 
                4C:EB:F8:2C:DF:8F:86:E8:2E:5D:9B:CA:26:00:DD:4B:9B:C8:7C:AA
            X509v3 Authority Key Identifier: 
                keyid:6B:9F:FA:49:E3:7E:9D:3A:87:75:80:A3:F0:C1:65:84:6B:10:F6:A3
                DirName:/CN=team118-net
                serial:42:75:C6:30:27:76:73:E8:75:47:8F:FE:3E:8B:C2:E3:E3:66:16:40

            X509v3 Extended Key Usage: 
                TLS Web Client Authentication
            X509v3 Key Usage: 
                Digital Signature
    Signature Algorithm: sha256WithRSAEncryption
         b5:95:13:a1:e0:bf:ba:73:0e:fd:fb:a1:2a:0c:fb:fd:06:6e:
         1b:32:c6:30:02:39:9e:39:bc:bc:e6:0c:53:ef:86:ca:7a:22:
         c7:f7:6c:aa:57:4c:e8:17:8f:7e:d1:08:2c:e7:2e:15:90:ee:
         e3:c5:0f:33:57:2a:3b:11:bb:a1:99:d0:14:d0:fa:02:b0:42:
         7b:0b:a2:4f:9b:85:02:93:40:b7:1b:1e:a7:c8:9e:7d:6b:a8:
         08:f2:18:59:b0:77:8a:a0:2d:83:75:58:91:78:3e:c2:47:7b:
         16:84:0a:ce:83:09:63:40:3a:7d:03:08:aa:39:bd:6c:ef:24:
         d3:59:0d:f5:50:5d:ef:90:fb:8c:8a:67:4a:c6:f1:82:ca:17:
         26:9d:a5:a1:26:ce:89:30:26:42:03:0a:4e:9b:07:c9:f9:c7:
         4c:7b:b9:29:b3:86:28:ef:40:a1:16:5f:23:97:9f:bc:4a:16:
         22:65:c9:35:4f:cf:6e:48:91:46:09:b1:d3:8b:45:4d:f9:e7:
         56:81:e0:cc:f7:2d:61:3b:14:f7:77:44:1c:c5:f4:b6:eb:ea:
         a4:78:c3:9b:40:72:6b:ab:03:d8:e2:e9:35:ba:51:27:be:34:
         7a:47:56:c4:ac:9b:30:51:d2:50:06:45:52:6a:54:6f:74:8f:
         e5:cf:da:ba
-----BEGIN CERTIFICATE-----
MIIDXDCCAkSgAwIBAgIQR+1ELV7KGUdbPqsyxQI/8jANBgkqhkiG9w0BAQsFADAW
MRQwEgYDVQQDDAt0ZWFtMTE4LW5ldDAeFw0yMTA5MTIyMzQ2NDVaFw0yNDA4Mjcy
MzQ2NDVaMBkxFzAVBgNVBAMMDnRlYW0xMTgtY2xpZW50MIIBIjANBgkqhkiG9w0B
AQEFAAOCAQ8AMIIBCgKCAQEAq+/g3IQ4xKTUAF6UCNa/kj8kWaAyIC7+ZDAKnCzY
Fkv9HcsjeBOS9bMxv3gowqoJrEM+byiRsL1UZ88v+jf/1ivuCoVa3RLTt9Ww6NcF
OpgYt26gAS0fha0Z6Stmtj0riJR4eW+PWa8gE3s3wkIo1FWdNYPFkMPrWWKLGsOO
D+5fpnNyFfObJSzZnsnO9NKxs8Eait8gyZgBoURnb2lG3k/pgdgPJU8Ut64zOsyK
vc+KZIed90tpmBatqjxAoq/SNuDnPinpKA6F2+30BOy5tPXNE6IkadrCOGdYkY3p
toubDr6mulWqa28rr5kHaWIF6BbPRuuHnmNElDBWSVZBsQIDAQABo4GiMIGfMAkG
A1UdEwQCMAAwHQYDVR0OBBYEFEzr+Czfj4boLl2byiYA3UubyHyqMFEGA1UdIwRK
MEiAFGuf+knjfp06h3WAo/DBZYRrEPajoRqkGDAWMRQwEgYDVQQDDAt0ZWFtMTE4
LW5ldIIUQnXGMCd2c+h1R4/+PovC4+NmFkAwEwYDVR0lBAwwCgYIKwYBBQUHAwIw
CwYDVR0PBAQDAgeAMA0GCSqGSIb3DQEBCwUAA4IBAQC1lROh4L+6cw79+6EqDPv9
Bm4bMsYwAjmeOby85gxT74bKeiLH92yqV0zoF49+0Qgs5y4VkO7jxQ8zVyo7Ebuh
mdAU0PoCsEJ7C6JPm4UCk0C3Gx6nyJ59a6gI8hhZsHeKoC2DdViReD7CR3sWhArO
gwljQDp9AwiqOb1s7yTTWQ31UF3vkPuMimdKxvGCyhcmnaWhJs6JMCZCAwpOmwfJ
+cdMe7kps4Yo70ChFl8jl5+8ShYiZck1T89uSJFGCbHTi0VN+edWgeDM9y1hOxT3
d0QcxfS26+qkeMObQHJrqwPY4uk1ulEnvjR6R1bErJswUdJQBkVSalRvdI/lz9q6
-----END CERTIFICATE-----
