Certificate:
    Data:
        Version: 3 (0x2)
        Serial Number:
            c2:0a:0b:f2:01:ea:10:92:dc:1b:cc:0c:d6:55:39:42
        Signature Algorithm: sha256WithRSAEncryption
        Issuer: CN=team118-net
        Validity
            Not Before: Sep 12 23:46:45 2021 GMT
            Not After : Aug 27 23:46:45 2024 GMT
        Subject: CN=team118-server
        Subject Public Key Info:
            Public Key Algorithm: rsaEncryption
                RSA Public-Key: (2048 bit)
                Modulus:
                    00:df:9a:43:06:64:ff:44:16:47:d2:f4:01:47:80:
                    86:65:fb:c9:91:5a:94:ba:45:8e:f6:24:f3:f9:04:
                    11:4c:52:45:dc:63:47:79:b5:35:b4:ab:73:b0:e4:
                    23:6d:bb:24:6c:31:7d:47:e3:ed:fa:21:85:70:bc:
                    8a:82:da:62:e7:3a:dc:91:64:87:ae:7d:fb:3f:75:
                    22:24:de:ce:d5:e1:08:3e:8a:2c:12:e5:fc:b3:96:
                    18:7b:c2:b7:34:43:f6:e3:98:2f:30:1a:28:fb:e2:
                    69:3e:28:98:91:71:89:3d:68:46:9b:1a:23:4b:27:
                    19:af:6c:8d:f6:69:d5:a3:ae:e9:7d:f0:8a:ae:47:
                    31:55:5b:30:11:37:0c:b1:29:5e:f5:ea:d1:8a:87:
                    a6:91:27:1a:e8:6d:c8:73:85:51:a4:94:37:e6:d6:
                    1c:30:79:d9:ac:17:88:a1:19:9a:fd:8f:d8:03:a3:
                    90:ab:06:46:b3:46:ad:2e:22:70:f3:61:b8:8f:ca:
                    54:65:6b:ac:9f:32:d4:f4:f9:ca:c0:aa:a4:62:5c:
                    93:2c:3d:59:c7:f6:b0:4d:cb:4e:8f:5c:7c:66:6b:
                    70:87:b9:de:0a:11:d2:13:3f:69:26:20:ed:89:63:
                    12:53:48:ec:21:11:9b:4f:38:7f:3c:32:b3:09:ce:
                    cd:8f
                Exponent: 65537 (0x10001)
        X509v3 extensions:
            X509v3 Basic Constraints: 
                CA:FALSE
            X509v3 Subject Key Identifier: 
                CD:5C:76:71:F1:D6:E4:D7:E2:73:26:78:C0:51:4D:B1:28:11:3D:33
            X509v3 Authority Key Identifier: 
                keyid:6B:9F:FA:49:E3:7E:9D:3A:87:75:80:A3:F0:C1:65:84:6B:10:F6:A3
                DirName:/CN=team118-net
                serial:42:75:C6:30:27:76:73:E8:75:47:8F:FE:3E:8B:C2:E3:E3:66:16:40

            X509v3 Extended Key Usage: 
                TLS Web Server Authentication
            X509v3 Key Usage: 
                Digital Signature, Key Encipherment
            X509v3 Subject Alternative Name: 
                DNS:team118-server
    Signature Algorithm: sha256WithRSAEncryption
         00:04:dc:3c:1b:30:9a:e2:ad:2b:ba:d0:5f:f0:45:c6:71:26:
         db:76:d7:dd:75:8b:44:7d:dd:dc:9a:a7:68:41:a4:f9:6a:27:
         9e:7b:d5:99:d0:e7:6d:94:20:00:48:d5:7e:1e:77:83:61:70:
         b7:a3:b9:91:c7:75:e0:45:74:01:49:e9:b8:21:38:79:f0:74:
         0e:cf:da:db:f7:76:1a:cb:a7:4b:30:b9:42:d2:61:a6:06:8f:
         b5:74:48:9e:da:e7:82:73:6e:1d:d1:c3:57:f2:5a:93:33:f1:
         64:e1:99:df:35:76:b7:af:a2:71:66:46:c9:4f:46:0a:5d:7a:
         05:8b:0d:57:dd:26:4a:5d:9e:58:0f:28:df:52:53:92:e2:77:
         cb:64:da:b4:e5:b7:cc:84:0c:51:b9:f7:16:ee:82:0e:88:90:
         88:92:fa:02:1a:cc:f6:52:70:53:54:9e:6c:c0:af:1c:e4:99:
         ed:f8:69:a7:a8:c5:73:90:25:c1:6e:93:72:7f:c2:68:c2:ad:
         f7:e8:8a:01:be:69:61:43:52:f3:ad:62:be:ec:74:8c:8a:4a:
         12:f9:45:b5:b4:63:f7:ef:97:a4:ef:11:a4:78:68:46:96:0f:
         71:9e:c9:d8:97:a7:00:89:4e:a0:ad:a0:99:b0:76:49:b6:ff:
         9f:36:64:08
-----BEGIN CERTIFICATE-----
MIIDeDCCAmCgAwIBAgIRAMIKC/IB6hCS3BvMDNZVOUIwDQYJKoZIhvcNAQELBQAw
FjEUMBIGA1UEAwwLdGVhbTExOC1uZXQwHhcNMjEwOTEyMjM0NjQ1WhcNMjQwODI3
MjM0NjQ1WjAZMRcwFQYDVQQDDA50ZWFtMTE4LXNlcnZlcjCCASIwDQYJKoZIhvcN
AQEBBQADggEPADCCAQoCggEBAN+aQwZk/0QWR9L0AUeAhmX7yZFalLpFjvYk8/kE
EUxSRdxjR3m1NbSrc7DkI227JGwxfUfj7fohhXC8ioLaYuc63JFkh659+z91IiTe
ztXhCD6KLBLl/LOWGHvCtzRD9uOYLzAaKPviaT4omJFxiT1oRpsaI0snGa9sjfZp
1aOu6X3wiq5HMVVbMBE3DLEpXvXq0YqHppEnGuhtyHOFUaSUN+bWHDB52awXiKEZ
mv2P2AOjkKsGRrNGrS4icPNhuI/KVGVrrJ8y1PT5ysCqpGJckyw9Wcf2sE3LTo9c
fGZrcIe53goR0hM/aSYg7YljElNI7CERm084fzwyswnOzY8CAwEAAaOBvTCBujAJ
BgNVHRMEAjAAMB0GA1UdDgQWBBTNXHZx8dbk1+JzJnjAUU2xKBE9MzBRBgNVHSME
SjBIgBRrn/pJ436dOod1gKPwwWWEaxD2o6EapBgwFjEUMBIGA1UEAwwLdGVhbTEx
OC1uZXSCFEJ1xjAndnPodUeP/j6LwuPjZhZAMBMGA1UdJQQMMAoGCCsGAQUFBwMB
MAsGA1UdDwQEAwIFoDAZBgNVHREEEjAQgg50ZWFtMTE4LXNlcnZlcjANBgkqhkiG
9w0BAQsFAAOCAQEAAATcPBswmuKtK7rQX/BFxnEm23bX3XWLRH3d3JqnaEGk+Won
nnvVmdDnbZQgAEjVfh53g2Fwt6O5kcd14EV0AUnpuCE4efB0Ds/a2/d2GsunSzC5
QtJhpgaPtXRIntrngnNuHdHDV/JakzPxZOGZ3zV2t6+icWZGyU9GCl16BYsNV90m
Sl2eWA8o31JTkuJ3y2TatOW3zIQMUbn3Fu6CDoiQiJL6AhrM9lJwU1SebMCvHOSZ
7fhpp6jFc5AlwW6Tcn/CaMKt9+iKAb5pYUNS861ivux0jIpKEvlFtbRj9++XpO8R
pHhoRpYPcZ7J2JenAIlOoK2gmbB2Sbb/nzZkCA==
-----END CERTIFICATE-----
