Certificate:
    Data:
        Version: 3 (0x2)
        Serial Number:
            4c:e2:a8:18:5f:ed:7d:6b:0b:8d:a3:6a:21:af:6d:a5
        Signature Algorithm: sha256WithRSAEncryption
        Issuer: CN=team548-net
        Validity
            Not Before: Sep 13 03:30:14 2021 GMT
            Not After : Aug 28 03:30:14 2024 GMT
        Subject: CN=team548-client
        Subject Public Key Info:
            Public Key Algorithm: rsaEncryption
                RSA Public-Key: (2048 bit)
                Modulus:
                    00:ed:20:16:1f:79:fd:48:d3:74:b2:f4:93:46:25:
                    fa:24:af:b2:73:5c:a8:88:23:2c:b7:15:28:6a:25:
                    2b:33:4b:20:d1:36:5b:76:5d:34:0e:3b:f1:13:f7:
                    59:54:a7:9f:55:70:7c:77:b2:14:cf:55:17:49:1d:
                    d7:ad:e2:54:aa:50:f2:4a:6b:14:42:0e:76:b6:36:
                    5c:3d:a5:7d:7b:f6:09:ec:55:b5:fa:7d:48:c7:98:
                    6a:1b:2f:9c:2a:2d:07:9c:c2:55:38:e3:28:37:6e:
                    cc:95:a8:36:33:d2:a2:0b:52:4a:fe:eb:0d:44:82:
                    e1:f4:4d:4d:22:e2:26:01:d2:b8:6a:33:88:45:9f:
                    83:9c:e5:3b:3e:01:48:a2:38:19:d8:d4:bd:e2:c5:
                    f3:f9:40:f7:2f:7a:ce:89:6d:9d:46:ce:1c:0d:6f:
                    96:b1:3d:5e:07:5f:75:ab:dc:05:38:4e:c6:b1:9b:
                    17:db:e1:1e:45:7d:9e:2f:0c:1f:ab:2c:9b:4b:44:
                    11:0d:78:7d:ed:5c:58:f9:91:d1:83:df:71:b2:17:
                    8c:04:11:59:4e:6b:27:0f:e1:f0:0a:5c:12:12:86:
                    63:8d:05:fb:97:12:8b:5f:6c:5c:de:ac:97:ff:16:
                    d4:a2:ad:7d:4b:08:fe:42:22:d5:5a:a5:14:06:73:
                    3d:b7
                Exponent: 65537 (0x10001)
        X509v3 extensions:
            X509v3 Basic Constraints: 
                CA:FALSE
            X509v3 Subject Key Identifier: 
                D2:5F:5D:A8:A8:3A:B5:4E:30:12:37:37:78:88:2D:18:DD:E2:F5:79
            X509v3 Authority Key Identifier: 
                keyid:BF:31:FD:7F:F4:6A:9B:6F:02:5A:2E:7C:F8:10:35:DA:43:32:05:CC
                DirName:/CN=team548-net
                serial:5A:84:AA:7D:97:ED:52:20:4A:9A:01:2F:10:1D:96:BB:EC:BF:FF:A0

            X509v3 Extended Key Usage: 
                TLS Web Client Authentication
            X509v3 Key Usage: 
                Digital Signature
    Signature Algorithm: sha256WithRSAEncryption
         a2:d3:07:46:59:93:80:17:ac:7e:86:d6:0d:5e:84:32:b6:62:
         54:5a:7a:56:7c:5f:96:35:a1:e9:a3:39:55:af:9c:69:a8:3b:
         fd:10:3e:dc:bb:7d:47:01:fd:e2:3a:34:53:a4:33:83:69:a2:
         0a:91:d6:54:09:88:aa:a2:86:d7:57:df:31:fb:03:33:54:01:
         e8:50:df:3b:c4:ca:b3:c4:11:d5:6b:5b:62:c4:1f:75:c6:06:
         8e:06:81:4b:b1:27:fd:29:5a:7c:b3:85:44:df:a2:37:0c:6f:
         9a:17:cb:ed:d6:f0:4b:3e:47:45:3e:0d:7a:31:a6:4a:6f:fb:
         e8:a5:56:0c:25:7f:4e:6c:f9:43:4e:63:c3:f4:2c:11:99:dc:
         e9:af:d2:71:2d:7c:75:e7:72:c3:b7:9a:98:55:69:de:40:56:
         3d:7b:c8:88:6e:b9:88:89:2d:4c:5f:5f:44:56:6e:21:9c:db:
         3c:81:9a:31:eb:c0:e1:5b:29:f0:78:ca:40:34:64:3e:52:86:
         39:b7:34:a7:27:62:29:ef:fb:ad:d3:34:4d:d8:c0:ed:d5:a2:
         0b:73:94:94:8e:c3:1a:f6:17:8a:53:38:48:f2:c0:bb:28:ba:
         b3:15:bb:fc:fb:8b:e6:29:8b:2a:47:a8:44:49:23:a4:f2:d7:
         fd:1c:00:32
-----BEGIN CERTIFICATE-----
MIIDXDCCAkSgAwIBAgIQTOKoGF/tfWsLjaNqIa9tpTANBgkqhkiG9w0BAQsFADAW
MRQwEgYDVQQDDAt0ZWFtNTQ4LW5ldDAeFw0yMTA5MTMwMzMwMTRaFw0yNDA4Mjgw
MzMwMTRaMBkxFzAVBgNVBAMMDnRlYW01NDgtY2xpZW50MIIBIjANBgkqhkiG9w0B
AQEFAAOCAQ8AMIIBCgKCAQEA7SAWH3n9SNN0svSTRiX6JK+yc1yoiCMstxUoaiUr
M0sg0TZbdl00DjvxE/dZVKefVXB8d7IUz1UXSR3XreJUqlDySmsUQg52tjZcPaV9
e/YJ7FW1+n1Ix5hqGy+cKi0HnMJVOOMoN27Mlag2M9KiC1JK/usNRILh9E1NIuIm
AdK4ajOIRZ+DnOU7PgFIojgZ2NS94sXz+UD3L3rOiW2dRs4cDW+WsT1eB191q9wF
OE7GsZsX2+EeRX2eLwwfqyybS0QRDXh97VxY+ZHRg99xsheMBBFZTmsnD+HwClwS
EoZjjQX7lxKLX2xc3qyX/xbUoq19Swj+QiLVWqUUBnM9twIDAQABo4GiMIGfMAkG
A1UdEwQCMAAwHQYDVR0OBBYEFNJfXaioOrVOMBI3N3iILRjd4vV5MFEGA1UdIwRK
MEiAFL8x/X/0aptvAloufPgQNdpDMgXMoRqkGDAWMRQwEgYDVQQDDAt0ZWFtNTQ4
LW5ldIIUWoSqfZftUiBKmgEvEB2Wu+y//6AwEwYDVR0lBAwwCgYIKwYBBQUHAwIw
CwYDVR0PBAQDAgeAMA0GCSqGSIb3DQEBCwUAA4IBAQCi0wdGWZOAF6x+htYNXoQy
tmJUWnpWfF+WNaHpozlVr5xpqDv9ED7cu31HAf3iOjRTpDODaaIKkdZUCYiqoobX
V98x+wMzVAHoUN87xMqzxBHVa1tixB91xgaOBoFLsSf9KVp8s4VE36I3DG+aF8vt
1vBLPkdFPg16MaZKb/vopVYMJX9ObPlDTmPD9CwRmdzpr9JxLXx153LDt5qYVWne
QFY9e8iIbrmIiS1MX19EVm4hnNs8gZox68DhWynweMpANGQ+UoY5tzSnJ2Ip7/ut
0zRN2MDt1aILc5SUjsMa9heKUzhI8sC7KLqzFbv8+4vmKYsqR6hESSOk8tf9HAAy
-----END CERTIFICATE-----
