Certificate:
    Data:
        Version: 3 (0x2)
        Serial Number:
            d1:d0:6c:b0:ac:e7:b7:ca:f3:be:af:d8:6b:0b:e6:4a
        Signature Algorithm: sha256WithRSAEncryption
        Issuer: CN=team548-net
        Validity
            Not Before: Sep 13 03:30:14 2021 GMT
            Not After : Aug 28 03:30:14 2024 GMT
        Subject: CN=team548-server
        Subject Public Key Info:
            Public Key Algorithm: rsaEncryption
                RSA Public-Key: (2048 bit)
                Modulus:
                    00:d2:ed:92:20:67:d6:f4:ae:ef:b4:ae:dd:c9:98:
                    df:14:cd:a2:ca:0d:39:7a:65:fa:6c:84:8e:d0:21:
                    0d:6c:e7:4a:48:6e:aa:37:e7:a2:66:21:6a:9a:e3:
                    c5:ef:e6:f6:c7:87:26:2f:83:5e:2d:d0:e3:51:5e:
                    9b:d4:9d:28:c2:2f:dd:b5:04:33:fc:1f:da:2e:68:
                    9b:2d:64:20:9b:8b:5a:bc:dd:e5:95:67:c2:31:4a:
                    97:50:d5:91:62:0d:87:4a:57:ce:a7:2b:d9:b8:0b:
                    e7:3d:37:67:e8:83:89:a9:41:0c:f8:43:ef:c5:b0:
                    3b:42:c8:b7:0a:30:07:df:70:d1:65:70:27:f0:58:
                    81:21:db:09:04:af:e4:cf:9b:bf:7d:f5:5d:34:cb:
                    70:9a:52:58:85:cc:5a:ac:26:4b:f0:fa:aa:6d:f3:
                    54:5b:fd:d2:41:12:e1:50:f5:54:42:6f:e1:99:fa:
                    45:bd:8b:15:16:fe:92:2a:34:55:38:7f:6b:7d:62:
                    1e:bf:dd:cd:25:21:9a:6b:90:aa:53:d2:95:8e:56:
                    dd:92:97:60:d3:dd:aa:61:c1:dc:44:d8:c6:40:72:
                    be:84:29:ae:5a:99:bc:48:10:b2:cc:89:b0:c5:dd:
                    58:23:c0:5c:a7:1b:0c:df:d7:69:44:8e:08:74:10:
                    22:d3
                Exponent: 65537 (0x10001)
        X509v3 extensions:
            X509v3 Basic Constraints: 
                CA:FALSE
            X509v3 Subject Key Identifier: 
                5C:52:DE:DC:BC:FB:09:10:50:93:5C:69:DE:C0:78:B4:B9:01:06:CB
            X509v3 Authority Key Identifier: 
                keyid:BF:31:FD:7F:F4:6A:9B:6F:02:5A:2E:7C:F8:10:35:DA:43:32:05:CC
                DirName:/CN=team548-net
                serial:5A:84:AA:7D:97:ED:52:20:4A:9A:01:2F:10:1D:96:BB:EC:BF:FF:A0

            X509v3 Extended Key Usage: 
                TLS Web Server Authentication
            X509v3 Key Usage: 
                Digital Signature, Key Encipherment
            X509v3 Subject Alternative Name: 
                DNS:team548-server
    Signature Algorithm: sha256WithRSAEncryption
         03:6a:0d:64:1c:42:30:f9:bd:52:45:94:34:a5:a6:d8:8a:ce:
         09:e8:f6:01:21:3e:8f:08:2c:ea:68:29:e6:12:89:22:09:39:
         45:5d:c2:1c:8e:18:11:12:92:0b:8c:9c:11:07:64:01:75:ca:
         9b:0e:36:3e:e1:3b:20:d1:72:8c:45:8f:1e:07:58:d1:55:82:
         91:05:3e:f9:31:c4:d0:99:a3:18:fd:30:a5:43:44:3a:f0:5e:
         16:a1:55:9c:f8:e8:b6:e3:3e:a2:f6:10:d3:e2:2f:94:55:da:
         3c:96:31:2a:ba:f2:16:e2:7f:10:9c:c3:11:54:1a:4f:c8:6a:
         ee:f0:85:20:01:d8:08:7f:f1:83:cd:a8:ba:5a:03:f4:06:5a:
         93:b0:ea:79:bc:e4:b1:20:40:9c:22:e4:ff:8d:0b:84:b8:c6:
         1f:27:0c:eb:47:ad:18:bc:20:13:a3:e1:f1:76:37:69:88:01:
         21:ce:0e:cc:17:ab:58:d3:9b:ee:c3:20:8f:2d:3c:6e:8f:2e:
         b2:f0:e6:6b:ac:64:3a:ff:47:66:12:54:cf:e2:f1:56:ca:ea:
         15:ff:85:67:fa:a9:62:47:79:10:06:5c:8a:44:30:78:26:6f:
         3d:9d:00:03:44:06:38:d7:6f:03:e2:7f:f0:d3:bc:25:e4:b2:
         3e:e2:47:19
-----BEGIN CERTIFICATE-----
MIIDeDCCAmCgAwIBAgIRANHQbLCs57fK876v2GsL5kowDQYJKoZIhvcNAQELBQAw
FjEUMBIGA1UEAwwLdGVhbTU0OC1uZXQwHhcNMjEwOTEzMDMzMDE0WhcNMjQwODI4
MDMzMDE0WjAZMRcwFQYDVQQDDA50ZWFtNTQ4LXNlcnZlcjCCASIwDQYJKoZIhvcN
AQEBBQADggEPADCCAQoCggEBANLtkiBn1vSu77Su3cmY3xTNosoNOXpl+myEjtAh
DWznSkhuqjfnomYhaprjxe/m9seHJi+DXi3Q41Fem9SdKMIv3bUEM/wf2i5omy1k
IJuLWrzd5ZVnwjFKl1DVkWINh0pXzqcr2bgL5z03Z+iDialBDPhD78WwO0LItwow
B99w0WVwJ/BYgSHbCQSv5M+bv331XTTLcJpSWIXMWqwmS/D6qm3zVFv90kES4VD1
VEJv4Zn6Rb2LFRb+kio0VTh/a31iHr/dzSUhmmuQqlPSlY5W3ZKXYNPdqmHB3ETY
xkByvoQprlqZvEgQssyJsMXdWCPAXKcbDN/XaUSOCHQQItMCAwEAAaOBvTCBujAJ
BgNVHRMEAjAAMB0GA1UdDgQWBBRcUt7cvPsJEFCTXGnewHi0uQEGyzBRBgNVHSME
SjBIgBS/Mf1/9GqbbwJaLnz4EDXaQzIFzKEapBgwFjEUMBIGA1UEAwwLdGVhbTU0
OC1uZXSCFFqEqn2X7VIgSpoBLxAdlrvsv/+gMBMGA1UdJQQMMAoGCCsGAQUFBwMB
MAsGA1UdDwQEAwIFoDAZBgNVHREEEjAQgg50ZWFtNTQ4LXNlcnZlcjANBgkqhkiG
9w0BAQsFAAOCAQEAA2oNZBxCMPm9UkWUNKWm2IrOCej2ASE+jwgs6mgp5hKJIgk5
RV3CHI4YERKSC4ycEQdkAXXKmw42PuE7INFyjEWPHgdY0VWCkQU++THE0JmjGP0w
pUNEOvBeFqFVnPjotuM+ovYQ0+IvlFXaPJYxKrryFuJ/EJzDEVQaT8hq7vCFIAHY
CH/xg82ouloD9AZak7DqebzksSBAnCLk/40LhLjGHycM60etGLwgE6Ph8XY3aYgB
Ic4OzBerWNOb7sMgjy08bo8usvDma6xkOv9HZhJUz+LxVsrqFf+FZ/qpYkd5EAZc
ikQweCZvPZ0AA0QGONdvA+J/8NO8JeSyPuJHGQ==
-----END CERTIFICATE-----
