Certificate:
    Data:
        Version: 3 (0x2)
        Serial Number:
            ab:49:c9:b4:e7:8d:31:9b:61:68:cb:a6:6d:90:3c:1b
        Signature Algorithm: sha256WithRSAEncryption
        Issuer: CN=team592-net
        Validity
            Not Before: Sep 13 03:58:02 2021 GMT
            Not After : Aug 28 03:58:02 2024 GMT
        Subject: CN=team592-client
        Subject Public Key Info:
            Public Key Algorithm: rsaEncryption
                RSA Public-Key: (2048 bit)
                Modulus:
                    00:ae:a6:a0:a0:7d:20:04:38:3b:d3:d4:9f:f8:dc:
                    0e:0f:f2:1f:7b:06:80:a2:11:85:f8:f2:02:f9:cb:
                    b5:d5:c6:bd:19:71:26:54:f9:5b:cd:2b:e7:f3:27:
                    78:a4:78:b9:e1:16:0e:e2:58:38:ab:3e:56:10:eb:
                    d3:6c:89:c6:07:ce:ed:45:b8:b7:b7:a6:1d:d8:4a:
                    36:b9:ce:17:90:2f:b3:b8:d8:9d:f5:6e:ac:80:eb:
                    aa:73:8b:c6:fb:60:70:d1:9d:fb:f2:78:79:79:d9:
                    7f:e9:20:1f:2e:3c:8b:5b:8f:8f:fc:2a:2c:e4:b1:
                    a4:2e:ea:4f:f1:2c:e8:ae:40:54:9a:0d:66:ed:9f:
                    57:30:f5:13:ff:0a:bd:b2:aa:a1:fd:9f:0e:16:4e:
                    e4:ce:59:02:e2:c4:c5:03:9d:41:12:6e:1c:8e:9d:
                    cb:23:bb:f9:6e:87:a0:3b:da:ad:06:a4:3d:e5:7c:
                    15:d8:8a:74:7c:d2:d3:a0:a0:c8:68:0a:4f:c7:a3:
                    ef:86:c9:01:a5:9d:f4:d8:9c:07:ea:03:92:6f:5c:
                    7c:2c:c3:2b:5f:b4:8e:f1:2b:39:1b:cb:b8:53:62:
                    5b:c7:6f:e3:33:09:0c:18:e9:8d:92:8b:28:c1:3a:
                    13:68:3b:7b:0f:68:6e:9e:1c:4e:9c:81:ce:cd:1f:
                    9b:6d
                Exponent: 65537 (0x10001)
        X509v3 extensions:
            X509v3 Basic Constraints: 
                CA:FALSE
            X509v3 Subject Key Identifier: 
                EB:BD:9E:C6:DB:0F:44:05:67:F2:12:53:2A:DB:09:52:8B:72:ED:A3
            X509v3 Authority Key Identifier: 
                keyid:76:0C:ED:67:0A:DD:EE:36:A2:B1:CD:A4:B7:AB:DB:3D:4C:71:C3:B9
                DirName:/CN=team592-net
                serial:65:6D:D0:D2:FE:0C:5E:B9:95:FA:01:BA:C6:35:28:EF:1F:31:C4:B7

            X509v3 Extended Key Usage: 
                TLS Web Client Authentication
            X509v3 Key Usage: 
                Digital Signature
    Signature Algorithm: sha256WithRSAEncryption
         16:29:2e:d5:42:b4:27:4c:72:93:a4:9f:7e:90:da:20:8c:3d:
         22:41:68:e1:fb:0e:33:11:51:fc:06:88:31:53:e2:0a:e6:60:
         0f:c6:25:ba:04:6b:17:e4:24:e4:e5:26:4c:a8:71:2a:69:7f:
         b9:55:41:a9:d3:c7:45:7f:6d:fd:12:41:55:7d:56:fc:98:6f:
         89:af:3f:a8:8d:45:55:1a:04:cb:18:fb:83:83:d2:80:59:76:
         b6:2a:1e:cf:c4:b7:ce:9f:27:9c:b3:a9:28:20:dc:4d:9d:68:
         92:c9:10:17:21:21:c5:b8:62:3a:5e:33:a8:db:50:2c:48:59:
         7e:a4:ea:c1:34:e1:61:7c:c4:07:93:0c:76:71:8d:a4:5a:8c:
         60:cd:ab:e3:dd:0b:b8:b2:a9:7b:00:17:d7:6c:e2:09:ca:0c:
         18:b4:40:39:7c:bd:e4:c1:a0:45:6d:55:7e:c8:69:99:57:26:
         2a:89:94:29:af:b1:50:f5:75:0a:46:22:4f:59:76:fc:8d:4c:
         bb:d5:17:d1:4d:95:9e:d4:20:05:10:84:57:31:43:90:49:18:
         01:4d:57:74:1b:f2:d3:1b:06:d1:4a:7b:ee:67:03:59:8e:15:
         a5:0a:a1:3e:49:f9:02:23:be:be:5d:78:36:82:06:e5:ac:ac:
         06:68:2f:e6
-----BEGIN CERTIFICATE-----
MIIDXTCCAkWgAwIBAgIRAKtJybTnjTGbYWjLpm2QPBswDQYJKoZIhvcNAQELBQAw
FjEUMBIGA1UEAwwLdGVhbTU5Mi1uZXQwHhcNMjEwOTEzMDM1ODAyWhcNMjQwODI4
MDM1ODAyWjAZMRcwFQYDVQQDDA50ZWFtNTkyLWNsaWVudDCCASIwDQYJKoZIhvcN
AQEBBQADggEPADCCAQoCggEBAK6moKB9IAQ4O9PUn/jcDg/yH3sGgKIRhfjyAvnL
tdXGvRlxJlT5W80r5/MneKR4ueEWDuJYOKs+VhDr02yJxgfO7UW4t7emHdhKNrnO
F5Avs7jYnfVurIDrqnOLxvtgcNGd+/J4eXnZf+kgHy48i1uPj/wqLOSxpC7qT/Es
6K5AVJoNZu2fVzD1E/8KvbKqof2fDhZO5M5ZAuLExQOdQRJuHI6dyyO7+W6HoDva
rQakPeV8FdiKdHzS06CgyGgKT8ej74bJAaWd9NicB+oDkm9cfCzDK1+0jvErORvL
uFNiW8dv4zMJDBjpjZKLKME6E2g7ew9obp4cTpyBzs0fm20CAwEAAaOBojCBnzAJ
BgNVHRMEAjAAMB0GA1UdDgQWBBTrvZ7G2w9EBWfyElMq2wlSi3LtozBRBgNVHSME
SjBIgBR2DO1nCt3uNqKxzaS3q9s9THHDuaEapBgwFjEUMBIGA1UEAwwLdGVhbTU5
Mi1uZXSCFGVt0NL+DF65lfoBusY1KO8fMcS3MBMGA1UdJQQMMAoGCCsGAQUFBwMC
MAsGA1UdDwQEAwIHgDANBgkqhkiG9w0BAQsFAAOCAQEAFiku1UK0J0xyk6SffpDa
IIw9IkFo4fsOMxFR/AaIMVPiCuZgD8YlugRrF+Qk5OUmTKhxKml/uVVBqdPHRX9t
/RJBVX1W/Jhvia8/qI1FVRoEyxj7g4PSgFl2tioez8S3zp8nnLOpKCDcTZ1okskQ
FyEhxbhiOl4zqNtQLEhZfqTqwTThYXzEB5MMdnGNpFqMYM2r490LuLKpewAX12zi
CcoMGLRAOXy95MGgRW1VfshpmVcmKomUKa+xUPV1CkYiT1l2/I1Mu9UX0U2VntQg
BRCEVzFDkEkYAU1XdBvy0xsG0Up77mcDWY4VpQqhPkn5AiO+vl14NoIG5aysBmgv
5g==
-----END CERTIFICATE-----
