Certificate:
    Data:
        Version: 3 (0x2)
        Serial Number:
            df:f0:62:ac:d3:32:68:d4:b8:ed:64:f0:2a:61:8f:d8
        Signature Algorithm: sha256WithRSAEncryption
        Issuer: CN=team226-net
        Validity
            Not Before: Sep 13 00:51:26 2021 GMT
            Not After : Aug 28 00:51:26 2024 GMT
        Subject: CN=team226-server
        Subject Public Key Info:
            Public Key Algorithm: rsaEncryption
                RSA Public-Key: (2048 bit)
                Modulus:
                    00:da:fa:c1:f1:2d:31:f3:6f:7c:79:50:9f:d3:a5:
                    c9:4e:b0:5f:45:97:b7:47:5b:a7:b8:32:8d:72:61:
                    65:6d:c4:9c:63:74:4d:20:fa:b7:ae:c8:0b:4d:fe:
                    c3:18:81:19:f3:06:9d:f9:a6:42:34:cc:30:97:27:
                    16:34:e2:1e:2c:58:d5:30:6b:84:58:9b:7a:6d:65:
                    84:d0:eb:c8:87:e5:1c:e3:b6:ad:b5:60:4d:49:74:
                    7c:b9:ef:3a:51:61:34:79:a3:9a:78:e3:60:48:e7:
                    ed:45:06:f6:88:5f:bf:60:f6:e5:7e:0a:3c:40:d3:
                    cb:b8:f2:c0:c0:a6:7e:3e:bc:e3:0e:d8:9d:76:95:
                    2d:30:f7:78:a9:87:86:62:8d:ea:fd:6c:17:67:a2:
                    21:59:43:6f:80:e1:1d:d8:3d:e6:9f:fa:b2:1a:5e:
                    42:a4:66:31:17:27:e6:1c:21:5d:4f:b7:db:cf:72:
                    51:8f:e7:55:e6:75:f0:54:df:62:c1:e7:4d:7c:4d:
                    ad:9a:0f:7c:74:0b:9e:9c:74:e4:cf:6f:c9:9b:a9:
                    1f:1f:7e:57:ea:bb:5b:c5:db:6a:82:eb:f9:ef:98:
                    82:e3:45:fb:e1:db:b7:34:0c:09:75:7f:a4:cb:8d:
                    f9:ce:7e:9f:8c:72:e5:ac:42:eb:1d:48:7a:45:7c:
                    d2:11
                Exponent: 65537 (0x10001)
        X509v3 extensions:
            X509v3 Basic Constraints: 
                CA:FALSE
            X509v3 Subject Key Identifier: 
                D1:89:B5:64:32:72:F6:AC:D9:23:29:BE:0A:0D:4E:32:C6:10:04:69
            X509v3 Authority Key Identifier: 
                keyid:F4:D7:4B:85:50:BA:4D:D5:5D:7F:8E:55:DD:C6:E7:01:E7:89:73:3B
                DirName:/CN=team226-net
                serial:0D:65:9C:D6:5D:58:5A:C3:D7:42:20:45:DC:99:A0:29:A0:52:01:D5

            X509v3 Extended Key Usage: 
                TLS Web Server Authentication
            X509v3 Key Usage: 
                Digital Signature, Key Encipherment
            X509v3 Subject Alternative Name: 
                DNS:team226-server
    Signature Algorithm: sha256WithRSAEncryption
         14:c4:30:3f:9a:ae:1a:25:67:eb:19:55:3e:eb:06:e0:8d:c2:
         dc:3a:d7:fe:03:6e:55:b4:99:49:c9:a1:b1:12:a3:fb:b9:2d:
         fd:78:d5:e2:dd:12:4a:bf:b7:a2:8e:b8:4d:c2:66:7f:15:d0:
         34:72:c0:08:a8:28:7d:75:80:8b:b0:45:18:fc:36:b9:ad:9c:
         8d:28:60:9e:4a:59:3a:b9:9e:25:ba:2e:c9:0d:67:e6:7b:48:
         28:1b:c7:58:54:61:51:8b:94:18:4b:f1:36:7b:78:e1:2d:25:
         c3:81:ae:24:2b:3e:82:ae:29:09:65:a5:eb:4e:4c:f8:ab:b6:
         b6:0a:99:c2:82:a4:b3:fd:cf:47:6f:a9:3f:23:7c:53:13:24:
         d1:85:49:da:61:67:8b:7e:85:46:7c:10:89:1b:14:13:81:5f:
         dd:fe:5f:c1:3c:9f:00:56:a4:c0:81:ec:c4:f1:cc:cd:0d:9e:
         cc:86:93:41:36:17:e1:dc:bb:e8:4e:ae:f0:1f:2f:7a:43:41:
         23:5c:01:a8:c4:d4:41:b3:24:60:0f:41:da:df:40:32:7c:09:
         8c:74:48:3c:3a:f8:c6:09:75:65:35:ac:f9:dc:6d:74:ee:43:
         b7:1a:55:db:fa:8d:0c:4a:8d:a3:ed:04:60:22:92:8b:1f:71:
         11:aa:1c:48
-----BEGIN CERTIFICATE-----
MIIDeDCCAmCgAwIBAgIRAN/wYqzTMmjUuO1k8Cphj9gwDQYJKoZIhvcNAQELBQAw
FjEUMBIGA1UEAwwLdGVhbTIyNi1uZXQwHhcNMjEwOTEzMDA1MTI2WhcNMjQwODI4
MDA1MTI2WjAZMRcwFQYDVQQDDA50ZWFtMjI2LXNlcnZlcjCCASIwDQYJKoZIhvcN
AQEBBQADggEPADCCAQoCggEBANr6wfEtMfNvfHlQn9OlyU6wX0WXt0dbp7gyjXJh
ZW3EnGN0TSD6t67IC03+wxiBGfMGnfmmQjTMMJcnFjTiHixY1TBrhFibem1lhNDr
yIflHOO2rbVgTUl0fLnvOlFhNHmjmnjjYEjn7UUG9ohfv2D25X4KPEDTy7jywMCm
fj684w7YnXaVLTD3eKmHhmKN6v1sF2eiIVlDb4DhHdg95p/6shpeQqRmMRcn5hwh
XU+3289yUY/nVeZ18FTfYsHnTXxNrZoPfHQLnpx05M9vyZupHx9+V+q7W8XbaoLr
+e+YguNF++HbtzQMCXV/pMuN+c5+n4xy5axC6x1IekV80hECAwEAAaOBvTCBujAJ
BgNVHRMEAjAAMB0GA1UdDgQWBBTRibVkMnL2rNkjKb4KDU4yxhAEaTBRBgNVHSME
SjBIgBT010uFULpN1V1/jlXdxucB54lzO6EapBgwFjEUMBIGA1UEAwwLdGVhbTIy
Ni1uZXSCFA1lnNZdWFrD10IgRdyZoCmgUgHVMBMGA1UdJQQMMAoGCCsGAQUFBwMB
MAsGA1UdDwQEAwIFoDAZBgNVHREEEjAQgg50ZWFtMjI2LXNlcnZlcjANBgkqhkiG
9w0BAQsFAAOCAQEAFMQwP5quGiVn6xlVPusG4I3C3DrX/gNuVbSZScmhsRKj+7kt
/XjV4t0SSr+3oo64TcJmfxXQNHLACKgofXWAi7BFGPw2ua2cjShgnkpZOrmeJbou
yQ1n5ntIKBvHWFRhUYuUGEvxNnt44S0lw4GuJCs+gq4pCWWl605M+Ku2tgqZwoKk
s/3PR2+pPyN8UxMk0YVJ2mFni36FRnwQiRsUE4Ff3f5fwTyfAFakwIHsxPHMzQ2e
zIaTQTYX4dy76E6u8B8vekNBI1wBqMTUQbMkYA9B2t9AMnwJjHRIPDr4xgl1ZTWs
+dxtdO5DtxpV2/qNDEqNo+0EYCKSix9xEaocSA==
-----END CERTIFICATE-----
