Certificate:
    Data:
        Version: 3 (0x2)
        Serial Number:
            38:3a:d5:19:39:82:b2:68:cc:e3:36:c6:ea:d6:fa:5f
        Signature Algorithm: sha256WithRSAEncryption
        Issuer: CN=team703-net
        Validity
            Not Before: Sep 13 04:52:03 2021 GMT
            Not After : Aug 28 04:52:03 2024 GMT
        Subject: CN=team703-server
        Subject Public Key Info:
            Public Key Algorithm: rsaEncryption
                RSA Public-Key: (2048 bit)
                Modulus:
                    00:ec:b8:57:29:92:d8:e1:5f:9b:8f:2e:11:c0:27:
                    9e:63:95:47:a4:c7:5f:ad:3c:b5:4e:e3:e0:02:53:
                    e8:a5:cb:87:ff:82:e6:22:57:16:52:5e:9f:f6:79:
                    14:da:eb:7a:3f:bd:dc:37:de:f7:45:27:cb:31:86:
                    b2:10:54:ff:63:55:0c:e3:2c:cf:eb:db:d3:76:56:
                    89:6d:71:03:3d:7b:25:0e:e6:1a:44:c9:78:51:6d:
                    f4:b5:8d:8b:74:ac:2b:61:e2:76:48:8a:10:ba:ce:
                    59:90:ce:45:a3:e0:e9:9f:5a:12:63:a6:72:90:00:
                    a1:72:08:c1:7f:fe:51:b4:12:50:8d:b6:db:63:3f:
                    33:4f:9b:87:64:4b:ff:43:01:20:c8:49:f0:6a:66:
                    12:c9:cf:e3:09:86:82:13:68:a7:b5:1a:b8:02:71:
                    5f:d3:91:a8:da:72:28:c9:7f:8b:67:97:0f:f9:8f:
                    1b:39:9e:fc:e7:8d:98:3d:07:25:07:6f:bd:f7:62:
                    1f:d8:8e:3d:4c:ac:08:56:1b:56:08:4c:73:4f:0d:
                    5c:14:40:a6:4c:06:1c:36:98:60:54:ec:5f:6c:bc:
                    93:49:15:4e:40:0b:7b:bb:6c:1b:91:a1:83:0a:57:
                    04:76:46:81:30:7f:85:79:b3:51:f3:40:0b:e9:c2:
                    f7:ed
                Exponent: 65537 (0x10001)
        X509v3 extensions:
            X509v3 Basic Constraints: 
                CA:FALSE
            X509v3 Subject Key Identifier: 
                4A:8F:40:3B:81:D1:77:6E:6D:6C:FD:23:47:8A:E6:E8:BF:63:CA:EA
            X509v3 Authority Key Identifier: 
                keyid:E1:20:83:C4:3C:4F:0D:42:94:5E:20:0C:61:CD:C6:D2:54:2D:02:CC
                DirName:/CN=team703-net
                serial:7D:EE:6C:B1:49:99:40:C8:20:2A:04:F4:47:A3:FB:B3:37:5A:D4:ED

            X509v3 Extended Key Usage: 
                TLS Web Server Authentication
            X509v3 Key Usage: 
                Digital Signature, Key Encipherment
            X509v3 Subject Alternative Name: 
                DNS:team703-server
    Signature Algorithm: sha256WithRSAEncryption
         b0:4d:62:9f:56:98:ee:30:43:9c:fe:dc:2e:7c:c8:51:6a:a9:
         98:66:d2:1e:9f:b2:3a:2b:81:9f:b1:24:a0:74:a4:1b:1e:43:
         76:ec:72:06:7e:3a:0f:25:e1:a6:8a:66:17:92:90:57:65:65:
         81:8b:b6:d7:0b:ec:aa:b0:de:e1:83:0a:6d:9c:aa:8c:6e:9c:
         47:d2:43:92:b5:6a:80:d2:c3:4f:16:04:7b:62:fc:fa:40:c3:
         83:23:24:be:2e:70:71:64:25:f6:01:d6:84:6b:6a:62:2c:58:
         02:e2:5e:bf:3a:be:10:d6:c2:f0:ec:71:1b:84:0f:4d:fb:6c:
         0b:02:ac:66:b1:ba:89:d0:25:e7:41:9a:68:a1:95:b7:7b:65:
         d6:5d:f3:ce:a2:21:a4:78:bf:08:06:fb:d7:42:bd:ec:dc:a7:
         c1:c6:cc:08:b8:d8:55:21:4a:fd:e1:8b:13:9c:c6:66:69:38:
         91:c5:49:74:6b:d9:cd:99:6a:f6:e1:4b:e1:ef:5c:4d:da:9a:
         99:60:1d:d4:a6:70:87:f3:aa:21:99:40:dc:04:8e:dd:1e:01:
         04:e6:33:c8:0b:a6:7c:f2:61:65:09:77:23:85:f5:ff:a5:83:
         2d:39:83:58:5c:32:9a:33:10:a9:34:a0:bc:b6:64:0f:ca:3d:
         87:77:b2:36
-----BEGIN CERTIFICATE-----
MIIDdzCCAl+gAwIBAgIQODrVGTmCsmjM4zbG6tb6XzANBgkqhkiG9w0BAQsFADAW
MRQwEgYDVQQDDAt0ZWFtNzAzLW5ldDAeFw0yMTA5MTMwNDUyMDNaFw0yNDA4Mjgw
NDUyMDNaMBkxFzAVBgNVBAMMDnRlYW03MDMtc2VydmVyMIIBIjANBgkqhkiG9w0B
AQEFAAOCAQ8AMIIBCgKCAQEA7LhXKZLY4V+bjy4RwCeeY5VHpMdfrTy1TuPgAlPo
pcuH/4LmIlcWUl6f9nkU2ut6P73cN973RSfLMYayEFT/Y1UM4yzP69vTdlaJbXED
PXslDuYaRMl4UW30tY2LdKwrYeJ2SIoQus5ZkM5Fo+Dpn1oSY6ZykAChcgjBf/5R
tBJQjbbbYz8zT5uHZEv/QwEgyEnwamYSyc/jCYaCE2intRq4AnFf05Go2nIoyX+L
Z5cP+Y8bOZ78542YPQclB2+992If2I49TKwIVhtWCExzTw1cFECmTAYcNphgVOxf
bLyTSRVOQAt7u2wbkaGDClcEdkaBMH+FebNR80AL6cL37QIDAQABo4G9MIG6MAkG
A1UdEwQCMAAwHQYDVR0OBBYEFEqPQDuB0XdubWz9I0eK5ui/Y8rqMFEGA1UdIwRK
MEiAFOEgg8Q8Tw1ClF4gDGHNxtJULQLMoRqkGDAWMRQwEgYDVQQDDAt0ZWFtNzAz
LW5ldIIUfe5ssUmZQMggKgT0R6P7szda1O0wEwYDVR0lBAwwCgYIKwYBBQUHAwEw
CwYDVR0PBAQDAgWgMBkGA1UdEQQSMBCCDnRlYW03MDMtc2VydmVyMA0GCSqGSIb3
DQEBCwUAA4IBAQCwTWKfVpjuMEOc/twufMhRaqmYZtIen7I6K4GfsSSgdKQbHkN2
7HIGfjoPJeGmimYXkpBXZWWBi7bXC+yqsN7hgwptnKqMbpxH0kOStWqA0sNPFgR7
Yvz6QMODIyS+LnBxZCX2AdaEa2piLFgC4l6/Or4Q1sLw7HEbhA9N+2wLAqxmsbqJ
0CXnQZpooZW3e2XWXfPOoiGkeL8IBvvXQr3s3KfBxswIuNhVIUr94YsTnMZmaTiR
xUl0a9nNmWr24Uvh71xN2pqZYB3UpnCH86ohmUDcBI7dHgEE5jPIC6Z88mFlCXcj
hfX/pYMtOYNYXDKaMxCpNKC8tmQPyj2Hd7I2
-----END CERTIFICATE-----
