Certificate:
    Data:
        Version: 3 (0x2)
        Serial Number:
            90:41:47:ba:c4:4c:89:71:f6:44:6d:ea:27:53:5c:6a
        Signature Algorithm: sha256WithRSAEncryption
        Issuer: CN=team703-net
        Validity
            Not Before: Sep 13 04:52:03 2021 GMT
            Not After : Aug 28 04:52:03 2024 GMT
        Subject: CN=team703-client
        Subject Public Key Info:
            Public Key Algorithm: rsaEncryption
                RSA Public-Key: (2048 bit)
                Modulus:
                    00:cf:03:f1:ea:ed:15:4f:61:a9:a3:5e:49:af:c4:
                    82:dd:d2:8a:5e:b3:18:62:da:19:46:7f:ef:36:d3:
                    dc:0c:35:9e:a5:4f:3a:63:f6:47:3e:b8:ed:4f:af:
                    43:bc:8a:0e:d6:44:61:39:ac:ca:7e:a9:19:26:fa:
                    98:b8:7d:e9:28:f7:ab:89:92:e4:93:80:5a:c8:91:
                    ca:e2:32:f0:95:28:c0:f4:87:87:d9:0e:3a:cb:80:
                    ea:50:c2:1c:70:60:c9:3d:d8:f2:4a:54:4c:dd:73:
                    23:48:da:4d:8a:99:dc:f0:31:1b:8d:4b:03:5e:b8:
                    e0:7d:77:da:1b:de:64:aa:07:c5:af:26:ac:d4:7c:
                    7e:a3:17:e5:12:61:76:d7:58:b5:bf:b8:9d:56:fe:
                    a9:e8:04:d9:44:3b:b6:93:89:16:cd:e1:39:03:5f:
                    cd:a4:83:bf:c5:19:7e:fd:00:41:0d:ed:cb:67:b5:
                    22:8d:96:72:da:da:eb:31:b1:5a:68:ca:b5:74:cf:
                    47:6e:e1:86:c4:61:29:96:80:55:6d:e4:49:d3:f9:
                    e1:2b:81:79:5e:9c:59:60:a4:96:72:0d:69:e6:5e:
                    2f:ea:c8:da:6f:ff:37:23:49:7d:e3:48:bf:a0:80:
                    8c:91:12:e6:2f:76:4c:95:8a:01:45:32:84:8c:cb:
                    87:31
                Exponent: 65537 (0x10001)
        X509v3 extensions:
            X509v3 Basic Constraints: 
                CA:FALSE
            X509v3 Subject Key Identifier: 
                F3:CF:E8:08:2D:57:0C:9C:E6:8A:36:81:5F:45:3D:07:DA:AF:48:38
            X509v3 Authority Key Identifier: 
                keyid:E1:20:83:C4:3C:4F:0D:42:94:5E:20:0C:61:CD:C6:D2:54:2D:02:CC
                DirName:/CN=team703-net
                serial:7D:EE:6C:B1:49:99:40:C8:20:2A:04:F4:47:A3:FB:B3:37:5A:D4:ED

            X509v3 Extended Key Usage: 
                TLS Web Client Authentication
            X509v3 Key Usage: 
                Digital Signature
    Signature Algorithm: sha256WithRSAEncryption
         af:68:6c:29:05:2e:57:b9:48:9c:bd:29:43:9d:63:1d:35:50:
         f4:44:6e:f2:89:68:9f:0d:52:bc:7e:cb:30:0d:81:b3:fb:4d:
         1c:37:ff:42:42:33:f9:69:61:3d:a3:b3:bd:fc:cf:ff:25:da:
         ff:1f:93:86:45:55:42:09:3e:ee:a6:82:96:7c:b6:0c:40:56:
         20:49:a2:33:a0:fd:5d:47:0d:84:73:ee:7c:b8:4c:d7:0e:9e:
         9a:22:f0:a1:18:9b:fa:ea:62:1b:6d:31:ae:64:76:46:47:87:
         9b:1e:f7:68:11:94:ca:0e:83:7d:44:e8:5f:39:0a:ec:39:65:
         5d:a5:23:03:45:2a:a4:ea:e6:0a:58:96:e8:0c:5f:2a:b7:44:
         3d:6f:a3:da:94:e9:93:46:da:cc:04:dd:50:1f:d6:2b:3b:99:
         a0:2d:f6:3c:96:0e:e3:9d:a3:01:b0:9b:b0:f5:bc:5b:88:c7:
         c4:f8:d6:93:7f:8e:e3:f1:da:19:bd:22:54:a2:fa:aa:20:53:
         58:e0:28:5e:8c:3f:67:1d:80:97:e1:e7:f2:15:28:d9:f9:5d:
         db:f1:c6:ad:b0:36:ee:b5:61:54:c1:ce:84:d8:67:07:78:57:
         d9:fc:f7:92:cc:77:32:78:b9:32:dc:3c:a1:eb:cc:17:e2:b8:
         78:9e:cf:fd
-----BEGIN CERTIFICATE-----
MIIDXTCCAkWgAwIBAgIRAJBBR7rETIlx9kRt6idTXGowDQYJKoZIhvcNAQELBQAw
FjEUMBIGA1UEAwwLdGVhbTcwMy1uZXQwHhcNMjEwOTEzMDQ1MjAzWhcNMjQwODI4
MDQ1MjAzWjAZMRcwFQYDVQQDDA50ZWFtNzAzLWNsaWVudDCCASIwDQYJKoZIhvcN
AQEBBQADggEPADCCAQoCggEBAM8D8ertFU9hqaNeSa/Egt3Sil6zGGLaGUZ/7zbT
3Aw1nqVPOmP2Rz647U+vQ7yKDtZEYTmsyn6pGSb6mLh96Sj3q4mS5JOAWsiRyuIy
8JUowPSHh9kOOsuA6lDCHHBgyT3Y8kpUTN1zI0jaTYqZ3PAxG41LA1644H132hve
ZKoHxa8mrNR8fqMX5RJhdtdYtb+4nVb+qegE2UQ7tpOJFs3hOQNfzaSDv8UZfv0A
QQ3ty2e1Io2Wctra6zGxWmjKtXTPR27hhsRhKZaAVW3kSdP54SuBeV6cWWCklnIN
aeZeL+rI2m//NyNJfeNIv6CAjJES5i92TJWKAUUyhIzLhzECAwEAAaOBojCBnzAJ
BgNVHRMEAjAAMB0GA1UdDgQWBBTzz+gILVcMnOaKNoFfRT0H2q9IODBRBgNVHSME
SjBIgBThIIPEPE8NQpReIAxhzcbSVC0CzKEapBgwFjEUMBIGA1UEAwwLdGVhbTcw
My1uZXSCFH3ubLFJmUDIICoE9Eej+7M3WtTtMBMGA1UdJQQMMAoGCCsGAQUFBwMC
MAsGA1UdDwQEAwIHgDANBgkqhkiG9w0BAQsFAAOCAQEAr2hsKQUuV7lInL0pQ51j
HTVQ9ERu8olonw1SvH7LMA2Bs/tNHDf/QkIz+WlhPaOzvfzP/yXa/x+ThkVVQgk+
7qaClny2DEBWIEmiM6D9XUcNhHPufLhM1w6emiLwoRib+upiG20xrmR2RkeHmx73
aBGUyg6DfUToXzkK7DllXaUjA0UqpOrmCliW6AxfKrdEPW+j2pTpk0bazATdUB/W
KzuZoC32PJYO452jAbCbsPW8W4jHxPjWk3+O4/HaGb0iVKL6qiBTWOAoXow/Zx2A
l+Hn8hUo2fld2/HGrbA27rVhVMHOhNhnB3hX2fz3ksx3Mni5Mtw8oevMF+K4eJ7P
/Q==
-----END CERTIFICATE-----
