Certificate:
    Data:
        Version: 3 (0x2)
        Serial Number:
            c5:38:0f:cc:12:d7:6c:95:8c:aa:73:1d:b2:50:aa:6b
        Signature Algorithm: sha256WithRSAEncryption
        Issuer: CN=team465-net
        Validity
            Not Before: Sep 13 02:56:19 2021 GMT
            Not After : Aug 28 02:56:19 2024 GMT
        Subject: CN=team465-client
        Subject Public Key Info:
            Public Key Algorithm: rsaEncryption
                RSA Public-Key: (2048 bit)
                Modulus:
                    00:e4:58:68:20:69:a6:7f:dd:03:a8:64:eb:a5:02:
                    28:ba:dd:2b:f0:72:e6:68:f6:a8:db:8e:31:8d:c1:
                    a0:41:88:0f:fd:98:5a:69:65:ef:83:bb:1f:2c:99:
                    99:6c:5e:b0:90:4a:e7:ef:f1:a2:99:85:a2:d9:d8:
                    60:43:3b:a1:fe:da:93:7a:ef:dc:9c:73:4d:be:22:
                    21:75:62:9c:c7:06:de:7e:43:5e:3c:c8:2f:34:1b:
                    59:e8:0e:e6:d4:86:20:45:8f:13:27:ca:bf:c6:cb:
                    94:7c:ac:d8:35:54:c9:e9:7f:ba:47:70:6e:83:7b:
                    3b:3f:4e:55:68:68:f9:b4:3f:5e:24:ad:1f:51:e9:
                    cf:44:b5:74:c5:9e:4c:e1:b7:8b:89:7b:b6:73:c5:
                    25:5d:e5:95:af:19:21:7b:2f:0e:46:9e:2c:27:ad:
                    80:12:17:a4:5a:01:90:ea:50:e6:de:f8:92:2d:c0:
                    60:ad:46:8e:64:0e:f1:82:eb:07:50:b2:42:55:1a:
                    27:3d:9d:69:fc:01:18:02:23:e2:31:f9:bc:c2:75:
                    0c:c7:f7:e3:e8:2a:c7:c4:90:96:0e:37:7e:6d:3a:
                    e1:b9:ff:fb:51:7d:e5:cc:5c:4a:7b:52:a5:0a:0f:
                    ee:b6:a5:6d:d2:58:f1:2a:94:43:af:46:bc:0b:40:
                    6b:23
                Exponent: 65537 (0x10001)
        X509v3 extensions:
            X509v3 Basic Constraints: 
                CA:FALSE
            X509v3 Subject Key Identifier: 
                25:34:68:04:49:9B:0F:B5:07:4D:72:5F:D5:3F:CB:C6:9D:E3:98:82
            X509v3 Authority Key Identifier: 
                keyid:27:33:59:AD:42:BE:F2:C4:86:76:EB:D4:7A:D5:0F:A4:03:61:20:2C
                DirName:/CN=team465-net
                serial:49:BF:81:19:73:7E:E8:6D:8B:6B:C5:22:6C:A9:12:C0:E0:3A:69:08

            X509v3 Extended Key Usage: 
                TLS Web Client Authentication
            X509v3 Key Usage: 
                Digital Signature
    Signature Algorithm: sha256WithRSAEncryption
         14:fa:f4:d9:45:9e:55:0c:35:74:1b:09:3f:69:8c:b1:98:65:
         89:53:38:2b:bf:3d:bd:ec:3e:42:b6:6f:36:dc:cf:9c:4d:5b:
         aa:7c:f7:d6:87:39:fb:2c:29:f9:b0:15:f9:ea:90:3f:a7:90:
         bf:cf:54:47:b9:80:3e:00:8e:fe:a8:20:0e:d4:76:3e:d1:8f:
         04:f2:55:df:9b:12:7e:2a:96:32:a4:6b:9c:7e:d7:2f:be:d6:
         98:97:59:02:13:51:63:b2:31:aa:64:4a:7e:c6:35:bc:5c:b9:
         a1:08:0c:81:cf:e2:28:d1:cb:1c:81:90:a7:d1:f9:3a:a0:13:
         df:04:b2:d3:71:fd:b0:20:0e:07:a0:b3:95:ff:56:a5:e6:ce:
         c1:0d:18:98:1d:74:23:00:8c:ef:2b:3a:e1:97:fb:bf:47:ec:
         c0:64:d2:47:3a:41:bf:f2:22:ae:9b:20:f0:08:79:ab:55:98:
         b3:c1:fe:92:f2:63:30:55:43:42:f8:bf:50:34:4b:1a:7b:37:
         59:5f:90:14:a8:d0:b9:83:68:20:47:5f:48:13:25:c6:06:b7:
         df:41:3f:e3:50:f6:2c:de:ca:5c:5a:56:17:93:ad:bb:23:af:
         6e:e8:e3:b4:fd:57:66:a7:5d:87:07:3f:f3:65:d8:90:7f:12:
         d7:a1:83:76
-----BEGIN CERTIFICATE-----
MIIDXTCCAkWgAwIBAgIRAMU4D8wS12yVjKpzHbJQqmswDQYJKoZIhvcNAQELBQAw
FjEUMBIGA1UEAwwLdGVhbTQ2NS1uZXQwHhcNMjEwOTEzMDI1NjE5WhcNMjQwODI4
MDI1NjE5WjAZMRcwFQYDVQQDDA50ZWFtNDY1LWNsaWVudDCCASIwDQYJKoZIhvcN
AQEBBQADggEPADCCAQoCggEBAORYaCBppn/dA6hk66UCKLrdK/By5mj2qNuOMY3B
oEGID/2YWmll74O7HyyZmWxesJBK5+/xopmFotnYYEM7of7ak3rv3JxzTb4iIXVi
nMcG3n5DXjzILzQbWegO5tSGIEWPEyfKv8bLlHys2DVUyel/ukdwboN7Oz9OVWho
+bQ/XiStH1Hpz0S1dMWeTOG3i4l7tnPFJV3lla8ZIXsvDkaeLCetgBIXpFoBkOpQ
5t74ki3AYK1GjmQO8YLrB1CyQlUaJz2dafwBGAIj4jH5vMJ1DMf34+gqx8SQlg43
fm064bn/+1F95cxcSntSpQoP7ralbdJY8SqUQ69GvAtAayMCAwEAAaOBojCBnzAJ
BgNVHRMEAjAAMB0GA1UdDgQWBBQlNGgESZsPtQdNcl/VP8vGneOYgjBRBgNVHSME
SjBIgBQnM1mtQr7yxIZ269R61Q+kA2EgLKEapBgwFjEUMBIGA1UEAwwLdGVhbTQ2
NS1uZXSCFEm/gRlzfuhti2vFImypEsDgOmkIMBMGA1UdJQQMMAoGCCsGAQUFBwMC
MAsGA1UdDwQEAwIHgDANBgkqhkiG9w0BAQsFAAOCAQEAFPr02UWeVQw1dBsJP2mM
sZhliVM4K789vew+QrZvNtzPnE1bqnz31oc5+ywp+bAV+eqQP6eQv89UR7mAPgCO
/qggDtR2PtGPBPJV35sSfiqWMqRrnH7XL77WmJdZAhNRY7IxqmRKfsY1vFy5oQgM
gc/iKNHLHIGQp9H5OqAT3wSy03H9sCAOB6Czlf9WpebOwQ0YmB10IwCM7ys64Zf7
v0fswGTSRzpBv/Iirpsg8Ah5q1WYs8H+kvJjMFVDQvi/UDRLGns3WV+QFKjQuYNo
IEdfSBMlxga330E/41D2LN7KXFpWF5OtuyOvbujjtP1XZqddhwc/82XYkH8S16GD
dg==
-----END CERTIFICATE-----
