Certificate:
    Data:
        Version: 3 (0x2)
        Serial Number:
            e5:9b:3d:f1:12:c4:dc:5a:62:cb:c2:2d:3e:9f:8e:75
        Signature Algorithm: sha256WithRSAEncryption
        Issuer: CN=team208-net
        Validity
            Not Before: Sep 13 00:41:32 2021 GMT
            Not After : Aug 28 00:41:32 2024 GMT
        Subject: CN=team208-server
        Subject Public Key Info:
            Public Key Algorithm: rsaEncryption
                RSA Public-Key: (2048 bit)
                Modulus:
                    00:ba:52:b1:dc:76:04:f8:fe:22:7b:bd:d4:8c:b6:
                    0a:7e:64:d4:c9:67:f8:d4:5f:c9:6d:8c:2b:f2:5f:
                    77:67:95:6c:b0:14:fc:5e:80:a1:7c:ed:3a:5a:9c:
                    a9:69:0d:07:7b:80:28:b8:23:e0:aa:f3:9f:c8:0c:
                    de:3b:2d:f1:af:9e:68:13:09:b4:31:db:69:fa:b2:
                    2b:2e:b9:c6:c3:22:d7:58:f1:19:52:ca:3e:fd:a2:
                    29:d3:94:32:27:6d:dd:af:be:7a:e2:ce:b1:31:c6:
                    28:58:b0:a7:f5:cd:cb:ae:99:47:48:9b:9d:09:65:
                    68:d7:83:a8:9d:98:dc:e4:5f:29:69:ea:e1:fe:55:
                    1d:a9:86:6f:fb:fd:44:16:90:29:49:1e:b2:90:df:
                    50:88:6e:bc:a4:29:62:1c:e1:e1:40:da:85:6e:82:
                    ee:59:f7:fe:bf:11:44:ac:b7:a6:6a:f8:51:d7:bd:
                    70:04:78:24:2f:5e:3a:2e:5f:32:bd:36:53:51:5d:
                    c8:c3:9e:c9:18:c6:93:81:47:c8:70:39:3a:ce:9d:
                    8f:ba:d8:3c:8f:e3:47:72:a4:4b:f7:04:e6:09:2e:
                    79:b3:2f:d5:97:83:8e:ab:21:00:3f:02:6d:4d:cc:
                    13:fa:03:c3:2a:c1:5b:ff:e3:b8:b5:8a:77:c4:04:
                    40:f9
                Exponent: 65537 (0x10001)
        X509v3 extensions:
            X509v3 Basic Constraints: 
                CA:FALSE
            X509v3 Subject Key Identifier: 
                DE:66:6C:13:1D:E6:C4:A9:67:57:CF:E3:AD:BD:7B:CE:CA:00:EA:91
            X509v3 Authority Key Identifier: 
                keyid:E2:D6:70:45:12:26:B6:26:E1:66:29:4E:71:6A:93:83:87:57:6C:C4
                DirName:/CN=team208-net
                serial:2A:11:BA:32:A9:82:29:11:1E:1F:0F:A1:1C:74:21:F3:A0:23:1E:3F

            X509v3 Extended Key Usage: 
                TLS Web Server Authentication
            X509v3 Key Usage: 
                Digital Signature, Key Encipherment
            X509v3 Subject Alternative Name: 
                DNS:team208-server
    Signature Algorithm: sha256WithRSAEncryption
         34:f7:fd:f0:aa:22:7e:52:2d:03:a4:82:a9:7e:ee:b9:02:3b:
         b4:7f:7b:eb:5c:03:cf:0f:88:b7:2f:d6:0f:1e:72:03:92:73:
         f5:62:11:cc:3d:d7:d1:9f:0d:fb:3f:e7:8b:a5:04:a2:16:34:
         6d:c6:f0:25:1e:a9:82:62:58:10:dc:2c:8f:e1:a2:ed:dd:69:
         ee:3b:87:d1:b3:45:6f:13:d9:58:be:48:68:32:3a:9f:e2:df:
         15:41:30:b1:db:ee:12:41:6d:08:f4:15:82:cb:d5:85:72:53:
         03:0e:c1:3a:f0:35:bc:39:3d:7d:95:c0:51:a3:20:f0:dc:4d:
         62:4d:cf:d2:df:16:60:43:37:51:c5:b1:e3:b6:f8:01:72:3b:
         52:27:8a:38:a5:c8:57:3c:ce:76:d6:f8:eb:ff:8e:ab:8f:fd:
         cb:43:59:36:bc:fd:9b:25:6a:cf:f3:10:a2:4e:f4:70:c5:5f:
         2d:a5:97:90:dd:33:fa:38:2f:3c:81:a6:06:b8:65:17:6e:3a:
         29:85:aa:fb:1c:1f:93:cf:a2:47:81:78:d1:3c:fb:f0:b4:c5:
         c8:e4:bd:ae:a0:bb:26:34:d7:29:81:78:ac:46:e9:87:e6:8e:
         2f:c9:66:6e:75:30:d1:3f:1a:08:4d:46:fc:f2:27:c8:fb:33:
         12:39:17:3d
-----BEGIN CERTIFICATE-----
MIIDeDCCAmCgAwIBAgIRAOWbPfESxNxaYsvCLT6fjnUwDQYJKoZIhvcNAQELBQAw
FjEUMBIGA1UEAwwLdGVhbTIwOC1uZXQwHhcNMjEwOTEzMDA0MTMyWhcNMjQwODI4
MDA0MTMyWjAZMRcwFQYDVQQDDA50ZWFtMjA4LXNlcnZlcjCCASIwDQYJKoZIhvcN
AQEBBQADggEPADCCAQoCggEBALpSsdx2BPj+Inu91Iy2Cn5k1Mln+NRfyW2MK/Jf
d2eVbLAU/F6AoXztOlqcqWkNB3uAKLgj4Krzn8gM3jst8a+eaBMJtDHbafqyKy65
xsMi11jxGVLKPv2iKdOUMidt3a++euLOsTHGKFiwp/XNy66ZR0ibnQllaNeDqJ2Y
3ORfKWnq4f5VHamGb/v9RBaQKUkespDfUIhuvKQpYhzh4UDahW6C7ln3/r8RRKy3
pmr4Ude9cAR4JC9eOi5fMr02U1FdyMOeyRjGk4FHyHA5Os6dj7rYPI/jR3KkS/cE
5gkuebMv1ZeDjqshAD8CbU3ME/oDwyrBW//juLWKd8QEQPkCAwEAAaOBvTCBujAJ
BgNVHRMEAjAAMB0GA1UdDgQWBBTeZmwTHebEqWdXz+OtvXvOygDqkTBRBgNVHSME
SjBIgBTi1nBFEia2JuFmKU5xapODh1dsxKEapBgwFjEUMBIGA1UEAwwLdGVhbTIw
OC1uZXSCFCoRujKpgikRHh8PoRx0IfOgIx4/MBMGA1UdJQQMMAoGCCsGAQUFBwMB
MAsGA1UdDwQEAwIFoDAZBgNVHREEEjAQgg50ZWFtMjA4LXNlcnZlcjANBgkqhkiG
9w0BAQsFAAOCAQEANPf98KoiflItA6SCqX7uuQI7tH9761wDzw+Ity/WDx5yA5Jz
9WIRzD3X0Z8N+z/ni6UEohY0bcbwJR6pgmJYENwsj+Gi7d1p7juH0bNFbxPZWL5I
aDI6n+LfFUEwsdvuEkFtCPQVgsvVhXJTAw7BOvA1vDk9fZXAUaMg8NxNYk3P0t8W
YEM3UcWx47b4AXI7UieKOKXIVzzOdtb46/+Oq4/9y0NZNrz9myVqz/MQok70cMVf
LaWXkN0z+jgvPIGmBrhlF246KYWq+xwfk8+iR4F40Tz78LTFyOS9rqC7JjTXKYF4
rEbph+aOL8lmbnUw0T8aCE1G/PInyPszEjkXPQ==
-----END CERTIFICATE-----
