Certificate:
    Data:
        Version: 3 (0x2)
        Serial Number:
            88:35:b6:f0:a8:41:87:a3:c8:49:58:0e:05:67:77:22
        Signature Algorithm: sha256WithRSAEncryption
        Issuer: CN=team762-net
        Validity
            Not Before: Sep 13 06:01:32 2021 GMT
            Not After : Aug 28 06:01:32 2024 GMT
        Subject: CN=team762-client
        Subject Public Key Info:
            Public Key Algorithm: rsaEncryption
                RSA Public-Key: (2048 bit)
                Modulus:
                    00:c7:58:89:c0:67:f8:9c:74:ec:8d:b3:77:5c:39:
                    01:1f:53:ff:a9:0a:a8:67:3b:6b:16:01:d8:8a:48:
                    44:f5:73:d8:19:a3:28:79:de:86:2d:dc:fd:5b:bd:
                    10:c1:62:7e:22:e7:ca:e1:08:9c:63:67:93:81:91:
                    56:20:4f:65:ae:c2:c3:d5:11:1f:ad:bf:9f:77:f1:
                    49:d9:df:52:52:ce:7a:1e:07:01:38:5d:06:3a:95:
                    8e:fd:a6:a3:4b:ee:b2:ad:8b:06:c6:eb:90:03:f1:
                    88:0b:0f:6b:f3:dd:e3:8b:bd:18:f3:fb:0a:90:c1:
                    29:ce:72:06:6f:89:3a:b4:35:6b:07:cc:8a:82:ee:
                    23:22:a4:8e:d8:ce:07:48:72:b0:61:00:bb:b5:ff:
                    de:01:b4:18:23:56:e2:6e:3d:f7:97:fe:6d:14:4d:
                    e6:48:67:62:2e:99:57:0d:17:5e:e8:89:18:45:4e:
                    b2:23:02:df:d4:92:7f:b0:66:5b:60:73:33:5c:13:
                    26:6f:bf:f8:51:0b:73:3b:af:8b:56:6c:b5:08:29:
                    40:46:59:b1:44:79:9a:13:e7:27:dc:65:97:f9:d6:
                    c6:da:74:8e:fc:c4:79:b1:44:95:69:7b:09:7e:61:
                    1d:fc:7f:7c:a8:90:90:03:30:67:43:b6:8f:7f:a0:
                    6a:d9
                Exponent: 65537 (0x10001)
        X509v3 extensions:
            X509v3 Basic Constraints: 
                CA:FALSE
            X509v3 Subject Key Identifier: 
                48:E1:64:7E:95:53:AF:58:1B:17:C5:FA:1A:A4:83:7E:B9:DD:CF:8E
            X509v3 Authority Key Identifier: 
                keyid:8D:AF:E5:6A:36:C2:B4:86:D0:FC:55:9D:97:4D:C6:C1:3E:78:8D:B3
                DirName:/CN=team762-net
                serial:5F:44:90:77:D4:EF:E1:3F:23:16:96:9F:A2:E6:67:65:E3:2C:A6:36

            X509v3 Extended Key Usage: 
                TLS Web Client Authentication
            X509v3 Key Usage: 
                Digital Signature
    Signature Algorithm: sha256WithRSAEncryption
         a4:b5:a3:9f:62:c6:63:0b:2f:3b:7e:10:0c:d9:68:d3:f8:f7:
         36:b1:b5:74:f7:53:4a:51:88:b3:f9:4a:7c:14:4f:25:7d:4d:
         3a:bc:ba:5f:a9:cc:68:36:2d:4f:f0:27:43:16:39:5b:94:87:
         7f:05:85:e3:69:a1:82:14:02:d2:16:99:c5:bc:a6:75:e1:9b:
         da:71:5d:cd:93:a8:8e:25:48:c9:f3:0d:6a:62:a9:c8:33:5c:
         d8:35:9a:23:6c:9d:b8:a8:7d:9b:2e:0f:5e:18:a0:58:b9:5f:
         a1:d6:67:f1:4a:ae:be:ae:38:17:28:91:2e:b2:02:45:2d:4b:
         f5:74:32:81:eb:8d:77:11:c3:87:da:d7:78:e3:8e:4f:72:11:
         f0:98:2d:8d:41:8f:06:26:19:51:a2:b1:d6:97:22:f0:d7:ff:
         50:c8:37:b0:7c:69:b7:fc:3f:00:cd:3a:bd:c0:f5:49:27:f2:
         33:94:3b:a2:91:06:ae:5b:ef:3e:3f:e4:2e:27:8f:02:6f:f5:
         a8:b4:e9:3f:41:5e:63:12:59:0b:85:8e:e6:8b:a0:ba:d9:3f:
         7d:fb:f6:cf:8a:f8:1b:6a:65:7d:ca:ea:c8:11:e4:2d:37:f9:
         2a:26:29:8d:98:7d:ed:47:5d:cd:d6:ea:1f:a8:0e:50:d8:25:
         09:13:07:e0
-----BEGIN CERTIFICATE-----
MIIDXTCCAkWgAwIBAgIRAIg1tvCoQYejyElYDgVndyIwDQYJKoZIhvcNAQELBQAw
FjEUMBIGA1UEAwwLdGVhbTc2Mi1uZXQwHhcNMjEwOTEzMDYwMTMyWhcNMjQwODI4
MDYwMTMyWjAZMRcwFQYDVQQDDA50ZWFtNzYyLWNsaWVudDCCASIwDQYJKoZIhvcN
AQEBBQADggEPADCCAQoCggEBAMdYicBn+Jx07I2zd1w5AR9T/6kKqGc7axYB2IpI
RPVz2BmjKHnehi3c/Vu9EMFifiLnyuEInGNnk4GRViBPZa7Cw9URH62/n3fxSdnf
UlLOeh4HAThdBjqVjv2mo0vusq2LBsbrkAPxiAsPa/Pd44u9GPP7CpDBKc5yBm+J
OrQ1awfMioLuIyKkjtjOB0hysGEAu7X/3gG0GCNW4m4995f+bRRN5khnYi6ZVw0X
XuiJGEVOsiMC39SSf7BmW2BzM1wTJm+/+FELczuvi1ZstQgpQEZZsUR5mhPnJ9xl
l/nWxtp0jvzEebFElWl7CX5hHfx/fKiQkAMwZ0O2j3+gatkCAwEAAaOBojCBnzAJ
BgNVHRMEAjAAMB0GA1UdDgQWBBRI4WR+lVOvWBsXxfoapIN+ud3PjjBRBgNVHSME
SjBIgBSNr+VqNsK0htD8VZ2XTcbBPniNs6EapBgwFjEUMBIGA1UEAwwLdGVhbTc2
Mi1uZXSCFF9EkHfU7+E/IxaWn6LmZ2XjLKY2MBMGA1UdJQQMMAoGCCsGAQUFBwMC
MAsGA1UdDwQEAwIHgDANBgkqhkiG9w0BAQsFAAOCAQEApLWjn2LGYwsvO34QDNlo
0/j3NrG1dPdTSlGIs/lKfBRPJX1NOry6X6nMaDYtT/AnQxY5W5SHfwWF42mhghQC
0haZxbymdeGb2nFdzZOojiVIyfMNamKpyDNc2DWaI2yduKh9my4PXhigWLlfodZn
8Uquvq44FyiRLrICRS1L9XQygeuNdxHDh9rXeOOOT3IR8JgtjUGPBiYZUaKx1pci
8Nf/UMg3sHxpt/w/AM06vcD1SSfyM5Q7opEGrlvvPj/kLiePAm/1qLTpP0FeYxJZ
C4WO5ougutk/ffv2z4r4G2plfcrqyBHkLTf5KiYpjZh97UddzdbqH6gOUNglCRMH
4A==
-----END CERTIFICATE-----
