Certificate:
    Data:
        Version: 3 (0x2)
        Serial Number:
            3a:c1:c0:7b:0e:0a:2e:bf:47:96:39:04:d7:87:3e:8d
        Signature Algorithm: sha256WithRSAEncryption
        Issuer: CN=team759-net
        Validity
            Not Before: Sep 13 06:00:29 2021 GMT
            Not After : Aug 28 06:00:29 2024 GMT
        Subject: CN=team759-server
        Subject Public Key Info:
            Public Key Algorithm: rsaEncryption
                RSA Public-Key: (2048 bit)
                Modulus:
                    00:c6:d4:3d:69:6d:ab:49:98:b7:bf:ad:dd:6b:1a:
                    16:b1:16:e7:c6:52:f1:28:e2:49:90:1a:94:8e:b3:
                    28:78:80:34:be:88:7c:d1:3c:98:41:ff:a9:d7:9c:
                    05:05:a1:63:2e:6b:54:9d:33:4a:22:4e:7d:2d:40:
                    eb:f4:94:ae:ce:e0:44:24:c4:39:d5:3a:c0:89:ec:
                    2b:3f:ef:00:ff:bc:0f:10:24:f9:b3:6c:07:c0:bf:
                    1b:c0:e5:68:62:56:52:64:bd:16:45:83:b6:44:74:
                    44:cb:18:d1:7f:57:b1:bc:9b:9e:44:09:ac:8f:91:
                    91:3a:c1:88:a1:7f:04:c8:d7:17:fa:d8:ed:52:54:
                    64:e1:22:e4:00:ee:bc:d9:1c:14:7c:35:3d:b5:07:
                    5f:50:59:b2:89:c1:60:b8:27:f2:d3:f1:3e:5d:33:
                    bd:8d:de:5d:e0:0d:33:48:e9:46:e0:10:77:72:2a:
                    98:1a:83:bb:9d:29:f1:2a:78:65:b4:a0:89:26:51:
                    00:7d:f6:ae:1b:d4:d9:4c:97:07:fa:9c:d6:ea:f6:
                    68:4c:11:25:2b:fe:0d:13:10:54:2b:b2:9b:6f:76:
                    55:d8:a0:33:4a:8e:5c:30:d6:ea:cf:d6:6b:ec:91:
                    b1:95:8c:55:8f:f8:6a:81:c5:05:13:2e:f5:21:60:
                    02:7b
                Exponent: 65537 (0x10001)
        X509v3 extensions:
            X509v3 Basic Constraints: 
                CA:FALSE
            X509v3 Subject Key Identifier: 
                8B:B8:AB:1B:72:20:25:C4:75:1A:D8:4D:04:57:C9:C6:9C:11:48:2B
            X509v3 Authority Key Identifier: 
                keyid:9B:1E:F7:95:A9:FE:63:B6:5C:10:00:F4:14:13:02:94:FD:D5:3E:8A
                DirName:/CN=team759-net
                serial:33:7B:FF:F0:91:ED:F2:3D:F5:30:0B:8D:71:5B:A8:3E:92:D6:6C:5D

            X509v3 Extended Key Usage: 
                TLS Web Server Authentication
            X509v3 Key Usage: 
                Digital Signature, Key Encipherment
            X509v3 Subject Alternative Name: 
                DNS:team759-server
    Signature Algorithm: sha256WithRSAEncryption
         b7:aa:d9:25:aa:51:d9:24:19:87:b5:23:12:4b:33:13:ba:ba:
         f0:84:0c:02:7e:27:0f:e4:d1:a2:2c:24:f6:d7:8b:d9:1c:ea:
         63:05:6e:95:9d:c5:a4:cb:38:64:78:6f:40:e1:ea:72:a6:ec:
         7e:c1:ef:aa:d2:2f:35:19:60:74:4c:b9:d2:68:3f:61:35:aa:
         2d:5e:5d:6f:ce:7e:d1:0e:18:a6:b3:ac:55:61:fb:7d:46:3a:
         6d:85:39:02:44:9e:fd:25:4d:f5:b2:52:b9:6a:fc:95:29:ea:
         d3:d8:a9:51:fb:63:f2:c1:5d:95:46:d2:9f:32:5f:c7:ad:ac:
         24:0a:7d:d3:0f:f1:02:6d:d7:39:f2:03:e9:7c:97:4e:0f:5f:
         90:06:fb:ad:62:af:d6:95:99:56:57:ec:14:42:f6:20:49:a7:
         e5:b4:86:72:ae:98:46:82:04:0b:26:6e:4d:7c:a0:f0:c1:e4:
         1c:41:c6:df:c4:21:39:57:60:95:90:ec:c6:ec:a5:4d:63:a5:
         e0:11:7a:b4:2d:f1:f7:eb:a9:37:7b:72:17:9a:cc:60:ee:59:
         3c:a5:cf:46:cd:e7:d4:22:b5:cb:1f:de:92:f6:47:29:88:84:
         b6:32:cd:75:df:b7:ac:98:c2:32:88:f7:a2:06:6f:2d:c9:4f:
         e0:73:a7:ab
-----BEGIN CERTIFICATE-----
MIIDdzCCAl+gAwIBAgIQOsHAew4KLr9HljkE14c+jTANBgkqhkiG9w0BAQsFADAW
MRQwEgYDVQQDDAt0ZWFtNzU5LW5ldDAeFw0yMTA5MTMwNjAwMjlaFw0yNDA4Mjgw
NjAwMjlaMBkxFzAVBgNVBAMMDnRlYW03NTktc2VydmVyMIIBIjANBgkqhkiG9w0B
AQEFAAOCAQ8AMIIBCgKCAQEAxtQ9aW2rSZi3v63daxoWsRbnxlLxKOJJkBqUjrMo
eIA0voh80TyYQf+p15wFBaFjLmtUnTNKIk59LUDr9JSuzuBEJMQ51TrAiewrP+8A
/7wPECT5s2wHwL8bwOVoYlZSZL0WRYO2RHREyxjRf1exvJueRAmsj5GROsGIoX8E
yNcX+tjtUlRk4SLkAO682RwUfDU9tQdfUFmyicFguCfy0/E+XTO9jd5d4A0zSOlG
4BB3ciqYGoO7nSnxKnhltKCJJlEAffauG9TZTJcH+pzW6vZoTBElK/4NExBUK7Kb
b3ZV2KAzSo5cMNbqz9Zr7JGxlYxVj/hqgcUFEy71IWACewIDAQABo4G9MIG6MAkG
A1UdEwQCMAAwHQYDVR0OBBYEFIu4qxtyICXEdRrYTQRXycacEUgrMFEGA1UdIwRK
MEiAFJse95Wp/mO2XBAA9BQTApT91T6KoRqkGDAWMRQwEgYDVQQDDAt0ZWFtNzU5
LW5ldIIUM3v/8JHt8j31MAuNcVuoPpLWbF0wEwYDVR0lBAwwCgYIKwYBBQUHAwEw
CwYDVR0PBAQDAgWgMBkGA1UdEQQSMBCCDnRlYW03NTktc2VydmVyMA0GCSqGSIb3
DQEBCwUAA4IBAQC3qtklqlHZJBmHtSMSSzMTurrwhAwCficP5NGiLCT214vZHOpj
BW6VncWkyzhkeG9A4epypux+we+q0i81GWB0TLnSaD9hNaotXl1vzn7RDhims6xV
Yft9RjpthTkCRJ79JU31slK5avyVKerT2KlR+2PywV2VRtKfMl/HrawkCn3TD/EC
bdc58gPpfJdOD1+QBvutYq/WlZlWV+wUQvYgSafltIZyrphGggQLJm5NfKDwweQc
QcbfxCE5V2CVkOzG7KVNY6XgEXq0LfH366k3e3IXmsxg7lk8pc9GzefUIrXLH96S
9kcpiIS2Ms1137esmMIyiPeiBm8tyU/gc6er
-----END CERTIFICATE-----
