Certificate:
    Data:
        Version: 3 (0x2)
        Serial Number:
            01:a1:4a:8a:d2:0b:9a:e8:ba:01:20:2a:2a:61:fb:13
        Signature Algorithm: sha256WithRSAEncryption
        Issuer: CN=team294-net
        Validity
            Not Before: Sep 13 01:22:53 2021 GMT
            Not After : Aug 28 01:22:53 2024 GMT
        Subject: CN=team294-client
        Subject Public Key Info:
            Public Key Algorithm: rsaEncryption
                RSA Public-Key: (2048 bit)
                Modulus:
                    00:b1:09:09:c5:0f:0d:7c:2a:3e:e5:03:d5:6c:f0:
                    16:d3:89:9e:df:df:07:c2:e6:c2:cc:51:79:d8:f3:
                    55:92:c8:87:db:8e:68:0b:ae:38:0b:95:bf:1d:ee:
                    48:83:c1:aa:1d:d1:de:4c:d6:03:07:83:7a:be:ae:
                    8f:99:16:9a:fa:53:d7:68:1f:68:b6:85:83:68:fc:
                    87:1c:04:ec:b9:85:2d:68:55:e9:89:62:fd:7d:7c:
                    b1:f6:7c:96:ef:fc:cd:da:dc:df:d8:b3:9a:42:49:
                    2c:c5:76:46:90:48:56:21:7b:6a:d5:1e:a8:88:04:
                    5a:42:a8:3b:8c:03:7e:03:99:89:b0:f0:db:19:69:
                    27:fc:96:23:14:58:dc:f5:fe:b8:9d:1a:16:c5:16:
                    6b:ef:5f:fc:e3:5b:d6:08:47:b4:5f:92:78:fd:66:
                    7a:fd:3a:0d:c1:69:15:c8:23:ce:04:a8:77:6f:08:
                    56:32:b7:0a:34:cd:d5:04:12:73:f6:b0:14:3e:32:
                    58:00:ec:13:b9:0a:11:16:6d:0c:66:a8:19:13:f2:
                    1b:de:e7:41:21:6a:cd:d0:2d:2e:bf:02:8b:43:c7:
                    b4:60:07:9f:3d:22:3e:b6:b0:1f:37:8d:5f:38:d6:
                    2c:8e:21:db:b6:8c:c6:63:35:d6:a4:b6:cc:67:95:
                    00:95
                Exponent: 65537 (0x10001)
        X509v3 extensions:
            X509v3 Basic Constraints: 
                CA:FALSE
            X509v3 Subject Key Identifier: 
                E6:36:CE:A1:90:2B:5F:A1:48:93:9B:9C:B4:26:A5:93:7C:5B:A0:79
            X509v3 Authority Key Identifier: 
                keyid:44:12:8F:C5:84:C6:F2:46:53:D5:62:35:90:A8:2C:98:CD:BC:35:4A
                DirName:/CN=team294-net
                serial:0C:5B:3C:02:77:A2:D3:8B:2B:63:E5:5B:97:77:B6:23:28:90:C4:9C

            X509v3 Extended Key Usage: 
                TLS Web Client Authentication
            X509v3 Key Usage: 
                Digital Signature
    Signature Algorithm: sha256WithRSAEncryption
         bc:c2:63:57:56:40:9b:d0:c3:7f:2f:64:00:7d:2b:bf:da:ea:
         74:3c:a6:30:52:4a:ab:f3:07:8e:0a:6e:f2:36:2f:84:fe:af:
         dd:cc:f5:43:5f:b2:b7:f0:3c:64:4d:53:af:7a:b9:ad:4e:5c:
         cd:71:ce:58:a4:f7:6b:83:0d:f8:0b:30:5a:59:2b:af:7b:5b:
         6c:e7:50:35:dc:ba:08:25:30:c8:9d:65:3d:87:4e:92:5a:e8:
         60:cf:f8:74:4e:7c:5d:09:3e:62:46:ed:41:27:62:3d:78:6c:
         8f:5c:99:b1:d2:43:39:80:96:97:59:ff:55:5e:18:ed:a5:0c:
         62:cd:bf:cd:81:fd:be:1c:7e:f2:a3:c9:8b:7f:a5:4f:29:7b:
         f1:cb:e9:34:a0:58:4f:cc:93:eb:1a:c0:94:e7:72:f6:94:cd:
         45:47:5d:2f:7d:7e:44:81:d6:55:d1:e4:a0:56:6b:4d:a1:c8:
         9e:6d:c9:89:14:6a:26:8f:4d:ee:33:93:63:15:aa:5c:30:10:
         6b:74:8f:3a:3b:f3:2f:ea:be:69:79:1f:4b:15:dc:f9:13:39:
         06:50:7f:59:60:2f:a3:25:32:78:5b:37:1e:d1:3e:14:1d:a0:
         94:97:6d:c5:81:0f:c3:e4:4a:ee:04:1b:47:14:9f:65:3c:de:
         ca:a3:a9:61
-----BEGIN CERTIFICATE-----
MIIDXDCCAkSgAwIBAgIQAaFKitILmui6ASAqKmH7EzANBgkqhkiG9w0BAQsFADAW
MRQwEgYDVQQDDAt0ZWFtMjk0LW5ldDAeFw0yMTA5MTMwMTIyNTNaFw0yNDA4Mjgw
MTIyNTNaMBkxFzAVBgNVBAMMDnRlYW0yOTQtY2xpZW50MIIBIjANBgkqhkiG9w0B
AQEFAAOCAQ8AMIIBCgKCAQEAsQkJxQ8NfCo+5QPVbPAW04me398HwubCzFF52PNV
ksiH245oC644C5W/He5Ig8GqHdHeTNYDB4N6vq6PmRaa+lPXaB9otoWDaPyHHATs
uYUtaFXpiWL9fXyx9nyW7/zN2tzf2LOaQkksxXZGkEhWIXtq1R6oiARaQqg7jAN+
A5mJsPDbGWkn/JYjFFjc9f64nRoWxRZr71/841vWCEe0X5J4/WZ6/ToNwWkVyCPO
BKh3bwhWMrcKNM3VBBJz9rAUPjJYAOwTuQoRFm0MZqgZE/Ib3udBIWrN0C0uvwKL
Q8e0YAefPSI+trAfN41fONYsjiHbtozGYzXWpLbMZ5UAlQIDAQABo4GiMIGfMAkG
A1UdEwQCMAAwHQYDVR0OBBYEFOY2zqGQK1+hSJObnLQmpZN8W6B5MFEGA1UdIwRK
MEiAFEQSj8WExvJGU9ViNZCoLJjNvDVKoRqkGDAWMRQwEgYDVQQDDAt0ZWFtMjk0
LW5ldIIUDFs8Anei04srY+Vbl3e2IyiQxJwwEwYDVR0lBAwwCgYIKwYBBQUHAwIw
CwYDVR0PBAQDAgeAMA0GCSqGSIb3DQEBCwUAA4IBAQC8wmNXVkCb0MN/L2QAfSu/
2up0PKYwUkqr8weOCm7yNi+E/q/dzPVDX7K38DxkTVOvermtTlzNcc5YpPdrgw34
CzBaWSuve1ts51A13LoIJTDInWU9h06SWuhgz/h0TnxdCT5iRu1BJ2I9eGyPXJmx
0kM5gJaXWf9VXhjtpQxizb/Ngf2+HH7yo8mLf6VPKXvxy+k0oFhPzJPrGsCU53L2
lM1FR10vfX5EgdZV0eSgVmtNociebcmJFGomj03uM5NjFapcMBBrdI86O/Mv6r5p
eR9LFdz5EzkGUH9ZYC+jJTJ4Wzce0T4UHaCUl23FgQ/D5EruBBtHFJ9lPN7Ko6lh
-----END CERTIFICATE-----
