Certificate:
    Data:
        Version: 3 (0x2)
        Serial Number:
            b2:09:0e:91:58:8b:d3:1c:2f:11:ec:5f:cd:19:db:13
        Signature Algorithm: sha256WithRSAEncryption
        Issuer: CN=team508-net
        Validity
            Not Before: Sep 13 03:22:02 2021 GMT
            Not After : Aug 28 03:22:02 2024 GMT
        Subject: CN=team508-server
        Subject Public Key Info:
            Public Key Algorithm: rsaEncryption
                RSA Public-Key: (2048 bit)
                Modulus:
                    00:d7:75:9f:03:17:df:6c:c5:46:0e:6c:4b:f9:5e:
                    1c:6b:3c:b0:33:d1:71:00:b1:7b:da:c1:9d:35:9c:
                    37:16:9f:6a:fe:76:92:c8:a2:b6:16:32:64:95:ff:
                    45:8e:95:8b:00:4c:03:3d:06:eb:4d:ea:2a:1f:5a:
                    ac:49:ed:9d:77:98:46:84:4d:9a:1f:6f:ad:33:7c:
                    5a:a2:8c:32:2f:ca:f2:e1:ab:4e:c1:29:20:96:4e:
                    2d:7f:30:45:a7:5b:2d:fe:7d:19:26:3c:c6:19:de:
                    83:7d:9a:a0:c7:44:83:af:4f:0a:f8:84:41:9c:68:
                    67:2e:fb:23:f5:42:58:4a:2e:0c:22:e7:d1:cd:3b:
                    c9:ce:26:ad:6b:3f:82:31:97:4a:df:08:bd:6d:2f:
                    1f:3c:c7:8b:a4:24:17:9d:c5:94:6a:f5:3a:52:b9:
                    85:74:dc:04:78:48:4a:1d:88:c8:d2:7a:0e:02:f6:
                    f1:87:85:96:88:de:e4:9c:33:d1:f0:d2:5e:cd:e4:
                    05:18:4f:81:15:4d:30:e7:a7:90:c2:54:00:dd:e1:
                    ad:49:bf:71:7b:24:32:a3:cc:be:d9:11:c6:e1:71:
                    e1:a2:f0:c8:4f:79:34:a8:70:35:de:24:4a:cf:5e:
                    cf:86:f5:1a:7e:1f:a2:93:06:8b:8a:82:9a:24:92:
                    da:e5
                Exponent: 65537 (0x10001)
        X509v3 extensions:
            X509v3 Basic Constraints: 
                CA:FALSE
            X509v3 Subject Key Identifier: 
                35:8D:6F:2A:92:C1:45:CB:2A:75:A2:BC:B0:B0:35:B0:C3:B8:D0:6D
            X509v3 Authority Key Identifier: 
                keyid:E8:0B:FC:F2:96:AD:1B:23:A2:3F:46:24:70:66:BA:78:3B:36:48:E6
                DirName:/CN=team508-net
                serial:12:46:26:4E:3D:87:BA:37:BD:D8:AA:46:E5:FF:11:E4:10:A7:A5:5D

            X509v3 Extended Key Usage: 
                TLS Web Server Authentication
            X509v3 Key Usage: 
                Digital Signature, Key Encipherment
            X509v3 Subject Alternative Name: 
                DNS:team508-server
    Signature Algorithm: sha256WithRSAEncryption
         64:f8:f1:03:32:51:7e:5b:3d:a4:7a:44:c3:84:f7:bf:2a:2b:
         ef:b6:36:f5:38:9c:2e:32:94:6f:8a:70:00:a9:b8:ee:a6:ed:
         c0:a9:60:9c:e3:11:67:36:9c:ad:3c:05:4f:6e:4a:45:e2:e1:
         a1:3b:0b:0f:81:22:4b:41:29:28:cd:5f:92:23:70:4a:86:01:
         20:fd:a6:84:00:be:65:ad:86:a3:e3:77:aa:e7:d9:e4:5d:21:
         70:d7:99:a4:fd:f3:ce:69:8b:c8:e4:5f:13:3e:e2:f9:2c:c0:
         e3:18:36:0a:7d:a4:b3:2b:78:d9:97:89:1b:66:14:ff:ec:0a:
         f6:80:91:6b:c5:5d:78:af:09:ea:e5:e2:49:e6:4f:75:0d:a9:
         90:3c:91:46:dc:d8:73:4d:c1:41:98:b3:e7:aa:55:ac:29:aa:
         b9:d5:51:73:88:67:8f:ba:4a:9b:5c:70:33:05:42:1d:9e:4b:
         5d:4c:6e:c6:f8:ed:0d:5a:55:b3:10:a0:51:0b:d8:0a:41:a8:
         21:6b:af:24:bc:c9:03:a4:b5:48:2f:fb:ea:52:ce:58:f0:4b:
         27:be:e2:a1:69:60:e7:ea:30:b0:f0:0c:69:67:7e:9a:79:f2:
         02:2b:fb:e4:dc:df:19:28:b2:bc:a1:3b:ff:55:d3:cf:4f:8e:
         b3:30:f2:dd
-----BEGIN CERTIFICATE-----
MIIDeDCCAmCgAwIBAgIRALIJDpFYi9McLxHsX80Z2xMwDQYJKoZIhvcNAQELBQAw
FjEUMBIGA1UEAwwLdGVhbTUwOC1uZXQwHhcNMjEwOTEzMDMyMjAyWhcNMjQwODI4
MDMyMjAyWjAZMRcwFQYDVQQDDA50ZWFtNTA4LXNlcnZlcjCCASIwDQYJKoZIhvcN
AQEBBQADggEPADCCAQoCggEBANd1nwMX32zFRg5sS/leHGs8sDPRcQCxe9rBnTWc
Nxafav52ksiithYyZJX/RY6ViwBMAz0G603qKh9arEntnXeYRoRNmh9vrTN8WqKM
Mi/K8uGrTsEpIJZOLX8wRadbLf59GSY8xhneg32aoMdEg69PCviEQZxoZy77I/VC
WEouDCLn0c07yc4mrWs/gjGXSt8IvW0vHzzHi6QkF53FlGr1OlK5hXTcBHhISh2I
yNJ6DgL28YeFloje5Jwz0fDSXs3kBRhPgRVNMOenkMJUAN3hrUm/cXskMqPMvtkR
xuFx4aLwyE95NKhwNd4kSs9ez4b1Gn4fopMGi4qCmiSS2uUCAwEAAaOBvTCBujAJ
BgNVHRMEAjAAMB0GA1UdDgQWBBQ1jW8qksFFyyp1orywsDWww7jQbTBRBgNVHSME
SjBIgBToC/zylq0bI6I/RiRwZrp4OzZI5qEapBgwFjEUMBIGA1UEAwwLdGVhbTUw
OC1uZXSCFBJGJk49h7o3vdiqRuX/EeQQp6VdMBMGA1UdJQQMMAoGCCsGAQUFBwMB
MAsGA1UdDwQEAwIFoDAZBgNVHREEEjAQgg50ZWFtNTA4LXNlcnZlcjANBgkqhkiG
9w0BAQsFAAOCAQEAZPjxAzJRfls9pHpEw4T3vyor77Y29TicLjKUb4pwAKm47qbt
wKlgnOMRZzacrTwFT25KReLhoTsLD4EiS0EpKM1fkiNwSoYBIP2mhAC+Za2Go+N3
qufZ5F0hcNeZpP3zzmmLyORfEz7i+SzA4xg2Cn2ksyt42ZeJG2YU/+wK9oCRa8Vd
eK8J6uXiSeZPdQ2pkDyRRtzYc03BQZiz56pVrCmqudVRc4hnj7pKm1xwMwVCHZ5L
XUxuxvjtDVpVsxCgUQvYCkGoIWuvJLzJA6S1SC/76lLOWPBLJ77ioWlg5+owsPAM
aWd+mnnyAiv75NzfGSiyvKE7/1XTz0+OszDy3Q==
-----END CERTIFICATE-----
