Certificate:
    Data:
        Version: 3 (0x2)
        Serial Number:
            be:7a:86:6e:a7:22:ca:33:5e:c9:d6:0d:28:4c:11:52
        Signature Algorithm: sha256WithRSAEncryption
        Issuer: CN=team442-net
        Validity
            Not Before: Sep 13 02:37:43 2021 GMT
            Not After : Aug 28 02:37:43 2024 GMT
        Subject: CN=team442-client
        Subject Public Key Info:
            Public Key Algorithm: rsaEncryption
                RSA Public-Key: (2048 bit)
                Modulus:
                    00:c1:d0:7f:34:bc:12:88:ea:9b:3c:bd:66:18:00:
                    39:33:02:68:b1:ef:0c:d6:4a:53:fe:9e:96:0c:bb:
                    aa:6e:a2:0f:69:60:5a:12:8a:c6:5b:ad:61:bc:66:
                    20:c4:02:8c:09:f6:09:b1:2a:a5:f5:fd:f3:23:7a:
                    ef:6d:58:56:84:35:bd:72:07:98:8c:c2:bd:17:a0:
                    24:c5:67:7f:11:6b:a1:a8:24:32:98:da:4c:81:da:
                    cc:e5:aa:eb:75:e1:79:13:04:79:c9:4b:59:9e:d6:
                    3b:e2:53:da:b0:63:79:f2:82:b6:c7:eb:01:4a:3c:
                    b0:13:ff:6e:b6:04:ed:71:b8:fd:8c:bc:15:69:ff:
                    cf:bc:ef:c7:51:c5:11:23:3b:86:12:51:ff:15:02:
                    71:cc:70:b5:62:95:b0:74:f4:cb:8d:b8:94:e9:4a:
                    00:33:e7:0d:ef:04:e8:55:72:ac:75:5a:73:6d:2e:
                    54:45:c4:e1:77:73:1d:6e:d9:34:c0:0b:bb:2f:f1:
                    a9:59:85:67:94:a9:51:0e:d1:a2:b7:dc:87:ee:3b:
                    19:6e:f5:96:0a:a1:de:92:96:9d:3c:10:be:6d:33:
                    3a:2b:a5:0c:12:65:63:5f:c7:f7:83:30:96:9f:a9:
                    ea:86:f6:85:58:0e:e0:c0:57:ad:1a:d9:18:ef:6c:
                    ae:39
                Exponent: 65537 (0x10001)
        X509v3 extensions:
            X509v3 Basic Constraints: 
                CA:FALSE
            X509v3 Subject Key Identifier: 
                90:17:47:5D:95:9F:39:2E:38:80:9B:E1:22:AB:D7:8B:C9:EF:B2:79
            X509v3 Authority Key Identifier: 
                keyid:97:5D:CF:6A:65:B5:ED:18:DB:35:F0:65:CE:48:18:79:BA:E5:6A:89
                DirName:/CN=team442-net
                serial:41:CE:24:52:ED:98:52:A5:DA:CB:EA:B1:19:AC:F5:50:26:61:87:FE

            X509v3 Extended Key Usage: 
                TLS Web Client Authentication
            X509v3 Key Usage: 
                Digital Signature
    Signature Algorithm: sha256WithRSAEncryption
         58:40:e6:18:aa:c0:41:f2:40:dd:2f:30:bd:bf:4b:86:c4:ab:
         cb:2f:27:1c:27:2d:c7:98:fc:41:2e:42:9d:9d:d6:f6:f5:7d:
         32:a4:eb:1f:4a:a8:e4:20:12:35:da:23:f8:7f:f3:91:a0:ea:
         48:16:1b:3a:27:7e:18:66:44:5c:4d:c2:ac:ce:94:02:ea:c1:
         28:40:0f:ce:7d:94:7a:1e:c9:44:1b:64:e1:ac:b0:ed:bc:7b:
         e6:30:70:77:74:f5:3a:85:26:dc:1b:4e:8a:b0:4e:a3:35:ae:
         5b:dc:9e:57:e0:c4:e8:ea:99:f9:b7:7d:94:ac:d6:01:0e:ea:
         72:c2:43:22:80:fd:5e:4f:03:c4:a2:51:11:ff:ec:40:c9:5c:
         fb:73:85:44:de:7c:81:bb:79:b3:ed:00:3d:73:bb:b3:5b:10:
         ed:02:0f:c5:b6:68:2a:db:e7:c0:8a:d4:95:bd:d2:8e:f8:f6:
         e4:5d:94:5f:38:93:f9:d5:a8:8d:0b:eb:ef:27:0c:83:f7:c3:
         20:55:12:9f:be:9d:42:ec:4e:e5:81:21:1a:e5:e8:f2:42:91:
         cd:e6:2a:66:64:45:6e:2d:bf:70:e2:ef:4d:b7:89:ac:89:d1:
         8c:2f:19:14:00:5a:5d:4d:8e:5b:61:de:19:45:f3:41:08:44:
         27:9d:31:aa
-----BEGIN CERTIFICATE-----
MIIDXTCCAkWgAwIBAgIRAL56hm6nIsozXsnWDShMEVIwDQYJKoZIhvcNAQELBQAw
FjEUMBIGA1UEAwwLdGVhbTQ0Mi1uZXQwHhcNMjEwOTEzMDIzNzQzWhcNMjQwODI4
MDIzNzQzWjAZMRcwFQYDVQQDDA50ZWFtNDQyLWNsaWVudDCCASIwDQYJKoZIhvcN
AQEBBQADggEPADCCAQoCggEBAMHQfzS8Eojqmzy9ZhgAOTMCaLHvDNZKU/6elgy7
qm6iD2lgWhKKxlutYbxmIMQCjAn2CbEqpfX98yN6721YVoQ1vXIHmIzCvRegJMVn
fxFroagkMpjaTIHazOWq63XheRMEeclLWZ7WO+JT2rBjefKCtsfrAUo8sBP/brYE
7XG4/Yy8FWn/z7zvx1HFESM7hhJR/xUCccxwtWKVsHT0y424lOlKADPnDe8E6FVy
rHVac20uVEXE4XdzHW7ZNMALuy/xqVmFZ5SpUQ7Rorfch+47GW71lgqh3pKWnTwQ
vm0zOiulDBJlY1/H94Mwlp+p6ob2hVgO4MBXrRrZGO9srjkCAwEAAaOBojCBnzAJ
BgNVHRMEAjAAMB0GA1UdDgQWBBSQF0ddlZ85LjiAm+Eiq9eLye+yeTBRBgNVHSME
SjBIgBSXXc9qZbXtGNs18GXOSBh5uuVqiaEapBgwFjEUMBIGA1UEAwwLdGVhbTQ0
Mi1uZXSCFEHOJFLtmFKl2svqsRms9VAmYYf+MBMGA1UdJQQMMAoGCCsGAQUFBwMC
MAsGA1UdDwQEAwIHgDANBgkqhkiG9w0BAQsFAAOCAQEAWEDmGKrAQfJA3S8wvb9L
hsSryy8nHCctx5j8QS5CnZ3W9vV9MqTrH0qo5CASNdoj+H/zkaDqSBYbOid+GGZE
XE3CrM6UAurBKEAPzn2Ueh7JRBtk4ayw7bx75jBwd3T1OoUm3BtOirBOozWuW9ye
V+DE6OqZ+bd9lKzWAQ7qcsJDIoD9Xk8DxKJREf/sQMlc+3OFRN58gbt5s+0APXO7
s1sQ7QIPxbZoKtvnwIrUlb3Sjvj25F2UXziT+dWojQvr7ycMg/fDIFUSn76dQuxO
5YEhGuXo8kKRzeYqZmRFbi2/cOLvTbeJrInRjC8ZFABaXU2OW2HeGUXzQQhEJ50x
qg==
-----END CERTIFICATE-----
