Certificate:
    Data:
        Version: 3 (0x2)
        Serial Number:
            a4:1d:70:74:f3:26:78:5f:54:9d:c0:f3:69:ea:b2:f4
        Signature Algorithm: sha256WithRSAEncryption
        Issuer: CN=team249-net
        Validity
            Not Before: Sep 13 01:01:49 2021 GMT
            Not After : Aug 28 01:01:49 2024 GMT
        Subject: CN=team249-client
        Subject Public Key Info:
            Public Key Algorithm: rsaEncryption
                RSA Public-Key: (2048 bit)
                Modulus:
                    00:b7:bf:db:64:34:6f:04:38:47:0d:5e:6e:ff:41:
                    4a:30:a6:24:10:29:d7:f4:e8:cf:28:fd:6d:34:71:
                    2f:26:6a:f4:af:5b:c3:2a:bc:30:8a:80:be:46:64:
                    aa:db:d9:db:da:78:f2:67:c3:d5:01:49:05:2d:0d:
                    7e:48:ee:5d:fc:30:19:70:21:6a:0f:d0:23:c9:63:
                    66:19:03:11:84:41:ae:f8:57:9f:61:b8:14:04:f7:
                    50:ef:db:73:2e:9a:13:46:fd:2f:6e:eb:b0:ca:88:
                    24:5b:3f:8e:1f:57:74:cd:7b:4c:57:df:4b:e5:fd:
                    69:01:8b:18:b8:35:78:de:f7:ec:64:d3:54:83:ed:
                    65:1b:47:67:2f:20:6f:cd:1e:be:e2:78:50:01:8f:
                    e3:f5:0b:db:7e:7e:79:a4:7f:74:45:95:0e:88:82:
                    84:41:d0:af:8e:91:73:2a:3f:a1:fb:06:8e:bb:65:
                    7d:55:db:f7:ae:b1:c8:9e:c4:a5:41:1a:ff:bc:67:
                    9e:ed:c6:f8:13:70:f4:33:6c:93:80:21:86:ff:c7:
                    6f:98:c8:ba:e9:4c:99:94:75:2e:81:b5:c6:cd:06:
                    85:fc:af:3b:0d:cb:40:55:39:d2:02:5e:47:78:ff:
                    09:cc:f0:75:ec:7d:11:4b:99:39:fc:11:33:69:5e:
                    27:af
                Exponent: 65537 (0x10001)
        X509v3 extensions:
            X509v3 Basic Constraints: 
                CA:FALSE
            X509v3 Subject Key Identifier: 
                28:E5:B6:C7:8D:E3:37:07:25:37:48:96:5E:B3:3F:97:90:76:28:F9
            X509v3 Authority Key Identifier: 
                keyid:06:AA:C9:E4:5E:10:30:45:78:0F:0C:2F:A5:EA:2F:C9:14:93:E1:26
                DirName:/CN=team249-net
                serial:60:95:B1:64:A3:44:FF:85:75:66:C7:15:C4:D8:98:12:37:C3:77:78

            X509v3 Extended Key Usage: 
                TLS Web Client Authentication
            X509v3 Key Usage: 
                Digital Signature
    Signature Algorithm: sha256WithRSAEncryption
         77:d3:d7:86:3d:8d:9e:6d:08:aa:1f:ae:bc:d7:d1:d0:e7:e8:
         e2:4d:b4:fb:4e:e4:3c:5b:10:fc:f5:d2:23:37:f9:05:60:7e:
         db:49:7b:f4:5b:a5:a8:2e:3e:89:72:53:04:9e:09:1a:38:36:
         12:3b:30:21:20:34:df:43:ff:3f:83:fb:61:37:00:96:4c:00:
         49:38:41:e9:71:de:fa:dd:e7:7b:02:cc:04:fd:d1:93:48:47:
         d0:1d:44:5e:01:31:f4:09:df:ed:67:4b:63:e7:d4:97:36:ec:
         23:b0:c4:2b:34:be:a1:ec:24:ea:e3:76:02:0c:bb:dc:3b:82:
         95:fc:33:d7:8f:0d:25:72:f4:fc:f6:d5:0a:eb:31:ae:76:74:
         0e:5f:29:93:b6:e8:c7:a5:04:05:d7:e3:88:ef:b5:84:59:8c:
         0f:3f:c1:27:e9:39:67:9c:c3:5a:ce:8f:f9:ff:ca:8d:88:93:
         02:65:f3:03:ed:7e:e0:58:67:d7:93:31:ee:7a:49:36:5b:69:
         29:d0:72:29:d8:f5:77:05:4a:9c:2d:2b:26:e4:42:73:32:40:
         d4:12:de:a2:6e:8d:fd:9e:98:be:83:b5:91:f1:ef:ee:27:d6:
         41:8c:94:ea:a7:63:29:20:2c:f8:c4:79:8b:2f:47:9a:0f:d7:
         21:b1:12:0c
-----BEGIN CERTIFICATE-----
MIIDXTCCAkWgAwIBAgIRAKQdcHTzJnhfVJ3A82nqsvQwDQYJKoZIhvcNAQELBQAw
FjEUMBIGA1UEAwwLdGVhbTI0OS1uZXQwHhcNMjEwOTEzMDEwMTQ5WhcNMjQwODI4
MDEwMTQ5WjAZMRcwFQYDVQQDDA50ZWFtMjQ5LWNsaWVudDCCASIwDQYJKoZIhvcN
AQEBBQADggEPADCCAQoCggEBALe/22Q0bwQ4Rw1ebv9BSjCmJBAp1/Tozyj9bTRx
LyZq9K9bwyq8MIqAvkZkqtvZ29p48mfD1QFJBS0NfkjuXfwwGXAhag/QI8ljZhkD
EYRBrvhXn2G4FAT3UO/bcy6aE0b9L27rsMqIJFs/jh9XdM17TFffS+X9aQGLGLg1
eN737GTTVIPtZRtHZy8gb80evuJ4UAGP4/UL235+eaR/dEWVDoiChEHQr46Rcyo/
ofsGjrtlfVXb966xyJ7EpUEa/7xnnu3G+BNw9DNsk4Ahhv/Hb5jIuulMmZR1LoG1
xs0GhfyvOw3LQFU50gJeR3j/Cczwdex9EUuZOfwRM2leJ68CAwEAAaOBojCBnzAJ
BgNVHRMEAjAAMB0GA1UdDgQWBBQo5bbHjeM3ByU3SJZesz+XkHYo+TBRBgNVHSME
SjBIgBQGqsnkXhAwRXgPDC+l6i/JFJPhJqEapBgwFjEUMBIGA1UEAwwLdGVhbTI0
OS1uZXSCFGCVsWSjRP+FdWbHFcTYmBI3w3d4MBMGA1UdJQQMMAoGCCsGAQUFBwMC
MAsGA1UdDwQEAwIHgDANBgkqhkiG9w0BAQsFAAOCAQEAd9PXhj2Nnm0Iqh+uvNfR
0Ofo4k20+07kPFsQ/PXSIzf5BWB+20l79FulqC4+iXJTBJ4JGjg2EjswISA030P/
P4P7YTcAlkwASThB6XHe+t3newLMBP3Rk0hH0B1EXgEx9Anf7WdLY+fUlzbsI7DE
KzS+oewk6uN2Agy73DuClfwz148NJXL0/PbVCusxrnZ0Dl8pk7box6UEBdfjiO+1
hFmMDz/BJ+k5Z5zDWs6P+f/KjYiTAmXzA+1+4Fhn15Mx7npJNltpKdByKdj1dwVK
nC0rJuRCczJA1BLeom6N/Z6YvoO1kfHv7ifWQYyU6qdjKSAs+MR5iy9Hmg/XIbES
DA==
-----END CERTIFICATE-----
