Certificate:
    Data:
        Version: 3 (0x2)
        Serial Number:
            53:47:64:04:42:54:6f:fd:d6:15:fc:1a:10:8f:56:12
        Signature Algorithm: sha256WithRSAEncryption
        Issuer: CN=team84-net
        Validity
            Not Before: Sep 12 23:26:10 2021 GMT
            Not After : Aug 27 23:26:10 2024 GMT
        Subject: CN=team84-server
        Subject Public Key Info:
            Public Key Algorithm: rsaEncryption
                RSA Public-Key: (2048 bit)
                Modulus:
                    00:ac:3d:af:67:1f:8c:f4:02:fb:1c:62:de:c0:91:
                    64:be:b8:a0:99:04:8b:60:a7:0c:ef:15:59:7c:ff:
                    06:98:2f:25:4c:85:70:71:88:80:4f:fd:0b:1c:88:
                    67:1e:52:eb:71:af:89:03:6b:56:21:3a:8b:c8:ef:
                    4e:bd:b4:58:58:f3:f2:99:c5:b8:72:6d:c6:41:fd:
                    50:8d:f1:ba:fa:bc:50:e8:c4:fd:29:82:d6:2a:66:
                    f9:cd:70:e0:e2:9d:72:83:31:8f:fb:7a:b7:96:2a:
                    f6:f1:40:92:ca:10:ee:fc:84:33:ca:76:fe:1f:23:
                    cc:37:6d:a4:76:38:ed:20:24:c4:d9:fb:04:5c:bf:
                    8a:33:8b:0f:b6:9c:44:09:e6:db:49:86:a2:5a:a3:
                    ad:0d:3b:2b:13:c6:9f:45:6d:07:f5:1c:16:88:fa:
                    a0:c4:70:ae:cd:54:19:02:9c:1b:47:6f:a9:b7:cc:
                    89:9f:74:05:37:00:ff:60:77:52:bb:c4:11:cc:26:
                    93:b2:68:89:d3:f1:c4:84:ab:84:dd:cb:cb:26:00:
                    43:6e:6c:24:db:ae:1e:86:f1:a3:f0:1c:88:6a:44:
                    0d:93:25:9e:5b:87:fd:6f:df:59:74:ec:1d:cc:e6:
                    64:e0:96:06:1b:a6:14:2c:40:ac:18:6e:b4:89:48:
                    41:d9
                Exponent: 65537 (0x10001)
        X509v3 extensions:
            X509v3 Basic Constraints: 
                CA:FALSE
            X509v3 Subject Key Identifier: 
                E8:66:55:71:6D:80:47:D1:6A:F1:59:F1:20:DE:43:FA:7D:28:FF:19
            X509v3 Authority Key Identifier: 
                keyid:A8:D6:2F:83:CF:75:EB:02:AC:D0:46:3F:1F:E9:7F:9D:EA:77:9D:60
                DirName:/CN=team84-net
                serial:23:81:2A:5B:88:AC:43:2D:10:52:D3:CB:42:33:A8:0C:0C:2A:60:00

            X509v3 Extended Key Usage: 
                TLS Web Server Authentication
            X509v3 Key Usage: 
                Digital Signature, Key Encipherment
            X509v3 Subject Alternative Name: 
                DNS:team84-server
    Signature Algorithm: sha256WithRSAEncryption
         82:17:d9:cd:c2:e7:ed:c2:22:79:b8:b9:ed:44:c9:b6:84:cc:
         35:4e:d9:63:95:9c:ae:b8:e2:08:ea:10:af:e1:b8:a7:26:b0:
         c0:b9:a8:69:76:05:33:61:15:2f:ec:2b:ec:8b:df:79:74:a6:
         a3:bf:c9:d4:87:ca:e2:a3:14:10:03:67:ee:8e:a7:c0:bb:35:
         5d:3c:86:88:1c:aa:bf:9f:7f:5a:20:56:ab:c2:d4:4e:06:81:
         dd:45:a8:46:6e:3f:72:40:87:0a:5d:8b:a6:b8:3a:bd:81:57:
         69:dd:b8:36:12:dc:cd:6b:0a:69:a7:0c:46:87:3d:b1:a1:f9:
         89:95:5d:94:22:49:cc:94:65:f1:ec:e9:86:1e:15:f7:ed:c5:
         11:af:f9:ad:bf:19:2a:10:de:c0:c0:20:54:f2:e0:f9:53:3d:
         03:4a:fe:ca:95:65:98:dd:3d:ae:25:c3:3b:5a:36:c6:e2:a5:
         1d:d2:66:ff:f7:87:a5:42:7c:d8:34:c8:34:31:c8:8c:e6:f0:
         a2:00:94:c1:99:bf:de:ec:f9:a8:32:a0:79:ee:3e:0f:0c:fc:
         4c:f9:88:a0:ba:84:20:44:98:5c:a7:d0:96:f9:34:f9:65:c7:
         c5:f3:66:69:1e:e8:03:db:00:8a:f6:1b:2c:1c:6b:f0:cc:57:
         67:76:a0:86
-----BEGIN CERTIFICATE-----
MIIDczCCAlugAwIBAgIQU0dkBEJUb/3WFfwaEI9WEjANBgkqhkiG9w0BAQsFADAV
MRMwEQYDVQQDDAp0ZWFtODQtbmV0MB4XDTIxMDkxMjIzMjYxMFoXDTI0MDgyNzIz
MjYxMFowGDEWMBQGA1UEAwwNdGVhbTg0LXNlcnZlcjCCASIwDQYJKoZIhvcNAQEB
BQADggEPADCCAQoCggEBAKw9r2cfjPQC+xxi3sCRZL64oJkEi2CnDO8VWXz/Bpgv
JUyFcHGIgE/9CxyIZx5S63GviQNrViE6i8jvTr20WFjz8pnFuHJtxkH9UI3xuvq8
UOjE/SmC1ipm+c1w4OKdcoMxj/t6t5Yq9vFAksoQ7vyEM8p2/h8jzDdtpHY47SAk
xNn7BFy/ijOLD7acRAnm20mGolqjrQ07KxPGn0VtB/UcFoj6oMRwrs1UGQKcG0dv
qbfMiZ90BTcA/2B3UrvEEcwmk7JoidPxxISrhN3LyyYAQ25sJNuuHobxo/AciGpE
DZMlnluH/W/fWXTsHczmZOCWBhumFCxArBhutIlIQdkCAwEAAaOBuzCBuDAJBgNV
HRMEAjAAMB0GA1UdDgQWBBToZlVxbYBH0WrxWfEg3kP6fSj/GTBQBgNVHSMESTBH
gBSo1i+Dz3XrAqzQRj8f6X+d6nedYKEZpBcwFTETMBEGA1UEAwwKdGVhbTg0LW5l
dIIUI4EqW4isQy0QUtPLQjOoDAwqYAAwEwYDVR0lBAwwCgYIKwYBBQUHAwEwCwYD
VR0PBAQDAgWgMBgGA1UdEQQRMA+CDXRlYW04NC1zZXJ2ZXIwDQYJKoZIhvcNAQEL
BQADggEBAIIX2c3C5+3CInm4ue1EybaEzDVO2WOVnK644gjqEK/huKcmsMC5qGl2
BTNhFS/sK+yL33l0pqO/ydSHyuKjFBADZ+6Op8C7NV08hogcqr+ff1ogVqvC1E4G
gd1FqEZuP3JAhwpdi6a4Or2BV2nduDYS3M1rCmmnDEaHPbGh+YmVXZQiScyUZfHs
6YYeFfftxRGv+a2/GSoQ3sDAIFTy4PlTPQNK/sqVZZjdPa4lwztaNsbipR3SZv/3
h6VCfNg0yDQxyIzm8KIAlMGZv97s+agyoHnuPg8M/Ez5iKC6hCBEmFyn0Jb5NPll
x8XzZmke6APbAIr2Gywca/DMV2d2oIY=
-----END CERTIFICATE-----
