Certificate:
    Data:
        Version: 3 (0x2)
        Serial Number:
            68:0a:ca:3f:d1:ef:4f:3e:12:ce:aa:dd:51:75:81:de
        Signature Algorithm: sha256WithRSAEncryption
        Issuer: CN=team527-net
        Validity
            Not Before: Sep 13 03:19:58 2021 GMT
            Not After : Aug 28 03:19:58 2024 GMT
        Subject: CN=team527-client
        Subject Public Key Info:
            Public Key Algorithm: rsaEncryption
                RSA Public-Key: (2048 bit)
                Modulus:
                    00:d6:3d:7f:59:d9:a3:52:59:82:1a:02:ee:d2:9a:
                    9c:f3:cf:c2:f4:08:06:24:67:2b:da:b1:16:d2:81:
                    2f:93:f9:b4:6b:4d:80:12:2d:dd:aa:26:9e:0c:1f:
                    40:10:a1:38:e2:1d:c5:66:92:ff:cf:45:57:36:54:
                    ba:90:bb:87:f0:f1:82:4f:1c:c1:97:32:92:a4:65:
                    73:25:9d:e0:ba:d8:24:06:c4:fd:fa:4a:97:5e:70:
                    14:9e:94:d0:65:96:3c:d7:0f:bc:1b:3a:03:d5:38:
                    8a:f6:b4:1a:b1:0a:7d:27:3e:11:97:35:56:36:1d:
                    0e:0b:7c:6e:94:10:be:fa:cd:ce:36:2e:73:79:d3:
                    ba:4f:4b:a6:63:fd:ea:e5:41:e1:ef:8b:69:a8:39:
                    06:d6:97:f5:dc:6f:a4:4c:98:d5:40:7a:e0:9c:75:
                    7e:09:e4:cb:67:11:ca:aa:1f:fb:f5:cd:4a:1b:d1:
                    d8:ca:62:72:56:c3:86:10:6a:0c:ef:92:86:f9:f6:
                    56:aa:2b:27:07:24:f2:28:ac:9e:6f:05:c1:00:f7:
                    7b:f9:da:99:87:49:9a:31:be:be:7a:9e:b1:ad:aa:
                    ad:c2:3e:df:c4:6d:5d:fe:cd:ca:91:fd:dc:c9:36:
                    bf:59:35:ec:4a:ef:f6:a4:cf:43:e9:c4:c7:fd:eb:
                    7a:77
                Exponent: 65537 (0x10001)
        X509v3 extensions:
            X509v3 Basic Constraints: 
                CA:FALSE
            X509v3 Subject Key Identifier: 
                3F:87:B3:13:7F:DF:21:5F:34:D2:10:91:ED:86:92:17:73:43:F1:44
            X509v3 Authority Key Identifier: 
                keyid:63:17:4B:2E:D1:F0:1B:18:B3:61:D0:5B:80:3A:F2:33:31:A6:F8:B4
                DirName:/CN=team527-net
                serial:74:F8:3D:66:95:49:2E:CE:6D:1C:B4:10:03:57:EE:ED:64:68:9E:DF

            X509v3 Extended Key Usage: 
                TLS Web Client Authentication
            X509v3 Key Usage: 
                Digital Signature
    Signature Algorithm: sha256WithRSAEncryption
         55:0a:37:03:f9:54:5d:97:a5:5e:55:22:25:94:08:a4:5d:f9:
         ec:18:2c:fc:17:f5:38:34:f9:fa:55:82:82:fb:c6:91:ba:c1:
         17:00:90:ba:92:e9:b4:01:11:c4:74:f5:9e:08:55:5f:8e:1a:
         c7:bd:f0:96:89:e1:01:e9:e1:60:05:35:ea:2a:6a:3d:2e:bd:
         5d:d0:bf:b3:e1:b0:26:87:19:fd:a3:cb:5a:77:b7:9c:20:09:
         af:0c:57:ee:fc:7d:06:bf:4f:bc:80:a8:b6:d6:d3:79:be:d8:
         3d:e4:86:3a:14:68:9d:ae:1b:62:4e:6e:cf:b6:47:80:9d:21:
         2b:40:79:de:21:c9:9e:cd:48:1e:d4:8e:47:6b:2f:dd:89:76:
         a5:3e:fe:f6:93:17:dd:77:01:00:4a:69:1c:93:88:39:6a:53:
         7f:c9:fd:26:92:d9:8c:54:0c:54:c2:5c:6e:00:61:38:b0:a7:
         54:92:dc:ed:f8:46:99:5f:52:49:0f:13:e2:86:29:fe:36:17:
         f8:b4:73:bf:e3:0f:59:58:a0:d0:a5:bf:34:60:cd:fa:33:68:
         29:33:66:5c:84:be:e8:2e:50:e5:f3:ba:be:a2:9b:0c:50:59:
         c9:2a:f9:35:c0:7d:32:a6:4e:b2:aa:54:71:19:5d:aa:87:39:
         19:39:7f:93
-----BEGIN CERTIFICATE-----
MIIDXDCCAkSgAwIBAgIQaArKP9HvTz4SzqrdUXWB3jANBgkqhkiG9w0BAQsFADAW
MRQwEgYDVQQDDAt0ZWFtNTI3LW5ldDAeFw0yMTA5MTMwMzE5NThaFw0yNDA4Mjgw
MzE5NThaMBkxFzAVBgNVBAMMDnRlYW01MjctY2xpZW50MIIBIjANBgkqhkiG9w0B
AQEFAAOCAQ8AMIIBCgKCAQEA1j1/WdmjUlmCGgLu0pqc88/C9AgGJGcr2rEW0oEv
k/m0a02AEi3dqiaeDB9AEKE44h3FZpL/z0VXNlS6kLuH8PGCTxzBlzKSpGVzJZ3g
utgkBsT9+kqXXnAUnpTQZZY81w+8GzoD1TiK9rQasQp9Jz4RlzVWNh0OC3xulBC+
+s3ONi5zedO6T0umY/3q5UHh74tpqDkG1pf13G+kTJjVQHrgnHV+CeTLZxHKqh/7
9c1KG9HYymJyVsOGEGoM75KG+fZWqisnByTyKKyebwXBAPd7+dqZh0maMb6+ep6x
raqtwj7fxG1d/s3Kkf3cyTa/WTXsSu/2pM9D6cTH/et6dwIDAQABo4GiMIGfMAkG
A1UdEwQCMAAwHQYDVR0OBBYEFD+HsxN/3yFfNNIQke2GkhdzQ/FEMFEGA1UdIwRK
MEiAFGMXSy7R8BsYs2HQW4A68jMxpvi0oRqkGDAWMRQwEgYDVQQDDAt0ZWFtNTI3
LW5ldIIUdPg9ZpVJLs5tHLQQA1fu7WRont8wEwYDVR0lBAwwCgYIKwYBBQUHAwIw
CwYDVR0PBAQDAgeAMA0GCSqGSIb3DQEBCwUAA4IBAQBVCjcD+VRdl6VeVSIllAik
XfnsGCz8F/U4NPn6VYKC+8aRusEXAJC6kum0ARHEdPWeCFVfjhrHvfCWieEB6eFg
BTXqKmo9Lr1d0L+z4bAmhxn9o8tad7ecIAmvDFfu/H0Gv0+8gKi21tN5vtg95IY6
FGidrhtiTm7PtkeAnSErQHneIcmezUge1I5Hay/diXalPv72kxfddwEASmkck4g5
alN/yf0mktmMVAxUwlxuAGE4sKdUktzt+EaZX1JJDxPihin+Nhf4tHO/4w9ZWKDQ
pb80YM36M2gpM2ZchL7oLlDl87q+opsMUFnJKvk1wH0ypk6yqlRxGV2qhzkZOX+T
-----END CERTIFICATE-----
