Certificate:
    Data:
        Version: 3 (0x2)
        Serial Number:
            85:05:ce:34:c8:63:49:7c:a1:9e:e3:83:62:56:25:6c
        Signature Algorithm: sha256WithRSAEncryption
        Issuer: CN=team536-net
        Validity
            Not Before: Sep 13 03:24:23 2021 GMT
            Not After : Aug 28 03:24:23 2024 GMT
        Subject: CN=team536-client
        Subject Public Key Info:
            Public Key Algorithm: rsaEncryption
                RSA Public-Key: (2048 bit)
                Modulus:
                    00:f4:6f:fe:fa:2a:d1:0e:b2:33:72:2f:98:3c:db:
                    47:78:e0:4d:cf:23:e3:c0:e4:62:4c:63:b1:cc:78:
                    f1:b5:25:47:5f:f0:94:b2:df:97:8d:31:bb:5c:10:
                    94:c8:f9:49:2d:5a:ed:de:c1:39:3d:4c:38:ed:9f:
                    6d:cc:3b:30:c6:e8:4f:d2:35:e6:26:3a:77:02:ec:
                    d8:38:9e:8c:37:0a:69:52:da:88:25:81:b1:21:45:
                    c6:2f:de:cd:8d:3e:21:63:a2:30:a5:f5:e0:22:d6:
                    78:83:e2:19:4f:36:04:9c:d6:c5:41:36:7f:cc:1a:
                    c3:89:26:17:09:a0:3d:03:d6:2a:25:c4:fe:ea:96:
                    e4:66:41:8d:73:f1:51:88:d5:7a:f7:59:cf:d8:bc:
                    f2:8a:4d:0d:fb:34:2f:8f:81:d4:4e:a2:f8:ce:06:
                    17:be:1f:c8:23:69:a0:cd:b8:5c:b7:36:33:d4:d0:
                    60:00:44:15:58:b1:81:98:28:38:17:b5:17:65:af:
                    43:c1:a8:fc:cd:ac:0e:5b:d7:36:7d:24:16:79:4f:
                    ea:13:36:bc:9c:c9:b4:ef:11:55:b2:6d:67:2d:bc:
                    66:3f:5c:56:cc:f4:21:f9:1a:cb:3c:96:f7:06:1c:
                    15:47:a8:69:86:f4:8e:8e:22:02:48:c7:d6:20:13:
                    50:6d
                Exponent: 65537 (0x10001)
        X509v3 extensions:
            X509v3 Basic Constraints: 
                CA:FALSE
            X509v3 Subject Key Identifier: 
                DE:8C:93:D2:11:1D:A8:6D:BB:62:68:C3:41:6A:01:48:9A:B4:0B:F8
            X509v3 Authority Key Identifier: 
                keyid:19:C2:14:1A:15:F0:F7:D2:98:48:50:99:D5:71:E6:B4:F3:3A:BD:D0
                DirName:/CN=team536-net
                serial:4E:B0:EA:BC:D8:A9:F2:B5:B3:6F:BD:87:69:E5:79:16:1D:2D:CB:62

            X509v3 Extended Key Usage: 
                TLS Web Client Authentication
            X509v3 Key Usage: 
                Digital Signature
    Signature Algorithm: sha256WithRSAEncryption
         92:5d:a8:59:d1:fb:5b:a7:e1:82:6e:11:b2:15:88:e1:68:b0:
         f4:b3:0b:80:3d:87:14:05:1d:b7:79:3d:bf:d8:5f:17:33:f1:
         8d:cc:10:f7:2b:f4:2c:fc:9d:0e:81:2e:9d:55:e8:d4:bc:d5:
         87:c6:c5:9e:af:33:cd:71:d3:66:77:66:c1:bc:ab:4a:f1:e2:
         90:41:cd:fa:4e:93:83:ac:8c:0a:32:fe:70:71:b6:30:e3:eb:
         e9:94:37:5f:46:46:b9:8d:29:1c:9f:6f:e8:d8:d1:4b:86:80:
         db:a0:ab:7b:d9:ba:22:57:98:53:09:71:ba:f9:8b:77:c1:bc:
         3b:91:76:e5:d8:99:0b:6e:a0:7d:6e:6b:6b:48:66:23:80:6e:
         e1:88:f8:86:a8:d6:4e:22:43:c8:4b:97:1c:19:42:d8:d8:27:
         35:2b:9a:66:1b:48:92:04:15:92:a7:c8:9e:92:e4:97:cc:e1:
         6c:8b:bf:a1:f2:d6:0e:2f:88:e6:99:a1:6b:f0:c0:6e:0c:1e:
         6f:ca:64:1f:6d:cd:e3:70:cf:a9:4a:76:ec:d4:66:86:0e:e5:
         ca:c0:77:bb:38:f0:9c:58:ff:55:3b:0c:ac:16:48:0b:21:1b:
         dd:ff:b4:4f:99:a2:0f:77:54:12:d5:53:cf:91:f1:9f:f6:47:
         a0:ef:ee:a3
-----BEGIN CERTIFICATE-----
MIIDXTCCAkWgAwIBAgIRAIUFzjTIY0l8oZ7jg2JWJWwwDQYJKoZIhvcNAQELBQAw
FjEUMBIGA1UEAwwLdGVhbTUzNi1uZXQwHhcNMjEwOTEzMDMyNDIzWhcNMjQwODI4
MDMyNDIzWjAZMRcwFQYDVQQDDA50ZWFtNTM2LWNsaWVudDCCASIwDQYJKoZIhvcN
AQEBBQADggEPADCCAQoCggEBAPRv/voq0Q6yM3IvmDzbR3jgTc8j48DkYkxjscx4
8bUlR1/wlLLfl40xu1wQlMj5SS1a7d7BOT1MOO2fbcw7MMboT9I15iY6dwLs2Die
jDcKaVLaiCWBsSFFxi/ezY0+IWOiMKX14CLWeIPiGU82BJzWxUE2f8waw4kmFwmg
PQPWKiXE/uqW5GZBjXPxUYjVevdZz9i88opNDfs0L4+B1E6i+M4GF74fyCNpoM24
XLc2M9TQYABEFVixgZgoOBe1F2WvQ8Go/M2sDlvXNn0kFnlP6hM2vJzJtO8RVbJt
Zy28Zj9cVsz0IfkayzyW9wYcFUeoaYb0jo4iAkjH1iATUG0CAwEAAaOBojCBnzAJ
BgNVHRMEAjAAMB0GA1UdDgQWBBTejJPSER2obbtiaMNBagFImrQL+DBRBgNVHSME
SjBIgBQZwhQaFfD30phIUJnVcea08zq90KEapBgwFjEUMBIGA1UEAwwLdGVhbTUz
Ni1uZXSCFE6w6rzYqfK1s2+9h2nleRYdLctiMBMGA1UdJQQMMAoGCCsGAQUFBwMC
MAsGA1UdDwQEAwIHgDANBgkqhkiG9w0BAQsFAAOCAQEAkl2oWdH7W6fhgm4RshWI
4Wiw9LMLgD2HFAUdt3k9v9hfFzPxjcwQ9yv0LPydDoEunVXo1LzVh8bFnq8zzXHT
ZndmwbyrSvHikEHN+k6Tg6yMCjL+cHG2MOPr6ZQ3X0ZGuY0pHJ9v6NjRS4aA26Cr
e9m6IleYUwlxuvmLd8G8O5F25diZC26gfW5ra0hmI4Bu4Yj4hqjWTiJDyEuXHBlC
2NgnNSuaZhtIkgQVkqfInpLkl8zhbIu/ofLWDi+I5pmha/DAbgweb8pkH23N43DP
qUp27NRmhg7lysB3uzjwnFj/VTsMrBZICyEb3f+0T5miD3dUEtVTz5Hxn/ZHoO/u
ow==
-----END CERTIFICATE-----
