Certificate:
    Data:
        Version: 3 (0x2)
        Serial Number:
            89:df:a6:b6:4e:fc:f3:b5:b7:ec:ad:40:85:38:1f:29
        Signature Algorithm: sha256WithRSAEncryption
        Issuer: CN=team651-net
        Validity
            Not Before: Sep 13 04:49:56 2021 GMT
            Not After : Aug 28 04:49:56 2024 GMT
        Subject: CN=team651-server
        Subject Public Key Info:
            Public Key Algorithm: rsaEncryption
                RSA Public-Key: (2048 bit)
                Modulus:
                    00:ba:08:b0:dd:40:ba:7a:d5:22:da:e2:08:80:9e:
                    99:70:0e:8b:b6:fd:82:3a:df:fd:d5:ff:99:81:0a:
                    b2:1f:a6:3a:d5:e8:23:9a:3f:90:9a:e7:95:5b:3d:
                    f9:b0:67:f2:19:67:75:69:27:d7:7c:b5:78:02:8e:
                    d2:67:94:97:a5:22:ca:01:29:ce:6f:1a:e6:6c:17:
                    ab:d6:c4:00:8b:f8:f9:35:1d:d3:9f:9e:81:e8:2c:
                    d0:cc:74:dc:56:d5:0e:71:c2:18:62:48:b8:7a:56:
                    c2:89:51:dd:3a:6b:54:d9:99:bd:e0:b6:fd:4d:04:
                    4f:3f:75:75:ef:6d:80:d4:46:ce:40:c3:14:48:5a:
                    51:d5:a0:5c:10:1b:7d:d3:7d:4b:db:a1:9c:9a:1f:
                    23:5c:3e:33:4e:19:9e:46:78:20:01:3e:37:86:71:
                    37:f2:9b:2b:a8:79:72:1b:ac:bd:09:29:b7:c5:c8:
                    59:f4:fd:75:9c:a7:0f:ba:44:a9:36:57:36:aa:7a:
                    11:58:c1:21:6a:72:bc:2b:99:b9:54:23:05:1f:a3:
                    33:d4:4c:cd:43:17:17:20:38:10:3c:ba:59:51:2b:
                    00:da:ff:07:bd:ca:73:eb:a1:f7:37:cb:9b:e9:bf:
                    10:6f:1d:28:21:cb:33:4a:29:df:3c:a0:7b:df:27:
                    20:ef
                Exponent: 65537 (0x10001)
        X509v3 extensions:
            X509v3 Basic Constraints: 
                CA:FALSE
            X509v3 Subject Key Identifier: 
                96:20:4D:98:0D:E3:51:3D:43:B6:5A:3C:23:04:F0:D3:F2:3C:1D:AC
            X509v3 Authority Key Identifier: 
                keyid:9E:D6:44:A4:74:41:FB:70:DA:DC:DC:13:B3:AA:5B:D4:C1:C5:86:F4
                DirName:/CN=team651-net
                serial:31:A5:7C:B9:66:45:53:F7:33:B0:17:35:0D:81:FC:9F:FF:5E:B6:E1

            X509v3 Extended Key Usage: 
                TLS Web Server Authentication
            X509v3 Key Usage: 
                Digital Signature, Key Encipherment
            X509v3 Subject Alternative Name: 
                DNS:team651-server
    Signature Algorithm: sha256WithRSAEncryption
         40:18:e7:10:d2:50:66:40:9f:fd:fa:d9:5f:91:7d:f3:80:7c:
         9d:0c:f9:23:99:cb:e9:cc:dc:5d:5c:af:bf:49:d7:74:43:f0:
         ee:1b:10:ec:fb:dd:56:7d:9c:22:4c:1c:95:63:3a:c4:e1:ae:
         f4:c3:9b:58:7d:1a:05:52:40:86:70:8e:12:5b:17:7d:8b:23:
         5e:0c:da:f7:97:2a:1c:34:df:c3:2d:e3:18:33:9b:ad:d6:c0:
         05:d9:6b:4a:f6:6f:25:78:a2:86:be:a5:29:f8:07:e8:4a:66:
         92:8c:2c:a7:94:84:61:66:f6:d5:17:69:ab:a2:ca:2c:a0:f4:
         05:0f:7d:e2:90:d0:5a:2f:bc:bc:44:72:04:b9:a1:06:3e:a2:
         a9:6e:b6:04:56:67:65:f8:4c:75:49:a9:37:2f:0c:e9:c0:c4:
         cc:a1:49:d5:cb:c5:4d:eb:75:82:ee:1e:39:6b:d0:d4:8b:08:
         97:2f:d2:cd:90:b3:c1:b8:61:67:6b:52:87:9f:4e:8e:21:69:
         c7:d1:3f:a0:26:7d:c8:f2:7f:0f:2c:35:59:a7:71:99:18:81:
         19:f0:b7:4e:34:3a:e1:bd:8f:0e:b3:29:7e:95:8a:11:a8:f5:
         74:1a:ba:89:1b:fd:50:01:94:ac:38:8c:55:b4:ec:50:16:49:
         61:24:d2:8a
-----BEGIN CERTIFICATE-----
MIIDeDCCAmCgAwIBAgIRAInfprZO/PO1t+ytQIU4HykwDQYJKoZIhvcNAQELBQAw
FjEUMBIGA1UEAwwLdGVhbTY1MS1uZXQwHhcNMjEwOTEzMDQ0OTU2WhcNMjQwODI4
MDQ0OTU2WjAZMRcwFQYDVQQDDA50ZWFtNjUxLXNlcnZlcjCCASIwDQYJKoZIhvcN
AQEBBQADggEPADCCAQoCggEBALoIsN1AunrVItriCICemXAOi7b9gjrf/dX/mYEK
sh+mOtXoI5o/kJrnlVs9+bBn8hlndWkn13y1eAKO0meUl6UiygEpzm8a5mwXq9bE
AIv4+TUd05+egegs0Mx03FbVDnHCGGJIuHpWwolR3TprVNmZveC2/U0ETz91de9t
gNRGzkDDFEhaUdWgXBAbfdN9S9uhnJofI1w+M04ZnkZ4IAE+N4ZxN/KbK6h5chus
vQkpt8XIWfT9dZynD7pEqTZXNqp6EVjBIWpyvCuZuVQjBR+jM9RMzUMXFyA4EDy6
WVErANr/B73Kc+uh9zfLm+m/EG8dKCHLM0op3zyge98nIO8CAwEAAaOBvTCBujAJ
BgNVHRMEAjAAMB0GA1UdDgQWBBSWIE2YDeNRPUO2WjwjBPDT8jwdrDBRBgNVHSME
SjBIgBSe1kSkdEH7cNrc3BOzqlvUwcWG9KEapBgwFjEUMBIGA1UEAwwLdGVhbTY1
MS1uZXSCFDGlfLlmRVP3M7AXNQ2B/J//XrbhMBMGA1UdJQQMMAoGCCsGAQUFBwMB
MAsGA1UdDwQEAwIFoDAZBgNVHREEEjAQgg50ZWFtNjUxLXNlcnZlcjANBgkqhkiG
9w0BAQsFAAOCAQEAQBjnENJQZkCf/frZX5F984B8nQz5I5nL6czcXVyvv0nXdEPw
7hsQ7PvdVn2cIkwclWM6xOGu9MObWH0aBVJAhnCOElsXfYsjXgza95cqHDTfwy3j
GDObrdbABdlrSvZvJXiihr6lKfgH6Epmkowsp5SEYWb21Rdpq6LKLKD0BQ994pDQ
Wi+8vERyBLmhBj6iqW62BFZnZfhMdUmpNy8M6cDEzKFJ1cvFTet1gu4eOWvQ1IsI
ly/SzZCzwbhhZ2tSh59OjiFpx9E/oCZ9yPJ/Dyw1WadxmRiBGfC3TjQ64b2PDrMp
fpWKEaj1dBq6iRv9UAGUrDiMVbTsUBZJYSTSig==
-----END CERTIFICATE-----
