Certificate:
    Data:
        Version: 3 (0x2)
        Serial Number:
            81:52:b5:9b:b4:c5:48:d6:c3:44:a5:ad:3e:99:b7:44
        Signature Algorithm: sha256WithRSAEncryption
        Issuer: CN=team253-net
        Validity
            Not Before: Sep 13 01:03:58 2021 GMT
            Not After : Aug 28 01:03:58 2024 GMT
        Subject: CN=team253-server
        Subject Public Key Info:
            Public Key Algorithm: rsaEncryption
                RSA Public-Key: (2048 bit)
                Modulus:
                    00:ac:2e:23:8a:8f:41:67:13:8c:4a:f1:03:ff:d7:
                    d2:5d:e5:0d:53:6e:cf:11:b2:da:3d:d2:8b:3c:04:
                    9a:de:6c:54:bd:d0:81:ad:cd:d4:c3:20:4b:48:6c:
                    cf:27:65:a6:9f:e4:1e:72:2c:a3:d7:6f:19:df:4c:
                    40:5d:83:3e:cc:23:e4:7c:96:2e:db:22:34:c4:6a:
                    fa:58:db:18:cd:18:0d:55:65:03:92:78:44:b0:b8:
                    f1:3d:c3:4f:de:4f:91:94:eb:58:1e:1a:1c:70:75:
                    87:72:e7:06:3b:e6:2e:e9:14:26:6b:8f:5a:e3:d7:
                    1a:01:8d:85:8e:50:d6:8a:45:ac:9f:bd:5b:35:30:
                    f3:27:e0:3d:af:25:22:ff:fe:87:c8:8c:fb:6f:8d:
                    88:10:f8:71:86:97:3d:46:71:b3:ba:f1:fa:09:cc:
                    fe:93:59:9c:49:76:63:ad:7d:cd:1f:c0:db:c7:e6:
                    da:de:59:98:7b:40:13:f8:d0:b1:c7:88:2c:0a:fe:
                    c6:87:60:6f:c5:ea:7b:69:60:ca:c2:10:a0:f6:f6:
                    a0:ed:6c:66:5d:2f:e4:0c:2d:d4:a3:30:89:57:fb:
                    65:0e:d9:a4:74:49:27:84:f0:40:83:32:40:64:3b:
                    74:00:22:3b:be:29:b2:9e:0e:22:89:6f:ad:58:85:
                    69:43
                Exponent: 65537 (0x10001)
        X509v3 extensions:
            X509v3 Basic Constraints: 
                CA:FALSE
            X509v3 Subject Key Identifier: 
                23:BA:F1:48:9B:52:38:CD:4E:59:7C:B0:1D:67:5A:30:06:51:02:B5
            X509v3 Authority Key Identifier: 
                keyid:9C:F7:9E:E6:30:12:07:88:40:E7:14:E7:0D:7E:6A:7F:2A:BE:C4:F7
                DirName:/CN=team253-net
                serial:43:58:17:03:CE:85:01:FC:B3:EE:F9:D8:2C:91:92:A8:D3:48:8E:BE

            X509v3 Extended Key Usage: 
                TLS Web Server Authentication
            X509v3 Key Usage: 
                Digital Signature, Key Encipherment
            X509v3 Subject Alternative Name: 
                DNS:team253-server
    Signature Algorithm: sha256WithRSAEncryption
         68:6e:a9:2f:9f:ca:fd:9c:89:24:b0:88:16:00:26:ac:72:f7:
         a1:8b:7c:c7:ae:88:74:a8:bf:90:86:ca:ec:5c:0c:31:07:75:
         1d:d3:2d:21:4f:53:fe:43:4a:ed:33:63:9b:ff:18:f7:d2:45:
         47:0d:c2:b3:03:06:56:d3:0c:00:25:87:cb:64:de:5d:c4:41:
         87:a5:dc:78:d3:dd:79:7b:13:a4:26:63:d3:3e:a6:8b:6f:47:
         be:e7:dd:11:a2:78:ae:37:84:08:06:1d:f2:ba:7b:5a:f3:a3:
         7e:96:32:0f:8c:e3:ea:fe:c1:c0:a0:29:89:0e:a6:b9:80:07:
         85:0a:0f:8d:5b:bc:39:37:57:88:b6:df:ba:4c:42:df:94:a7:
         b0:7a:93:37:21:ce:8a:0d:d5:e6:78:18:4b:5c:98:be:d2:9b:
         ac:93:49:ca:82:64:a0:63:93:9f:4c:ab:a0:af:97:41:dd:82:
         54:8a:48:57:8e:13:95:92:ae:55:a0:66:9c:88:f7:50:bb:40:
         97:d1:b6:a2:9c:75:5d:16:22:11:97:19:7e:8f:34:68:50:78:
         56:3f:32:02:e3:94:f4:16:3a:d7:c3:07:00:ec:29:89:12:0a:
         d1:2b:cf:c8:4a:9a:60:14:4e:2e:09:3e:57:d1:80:7b:91:2a:
         a4:25:8f:69
-----BEGIN CERTIFICATE-----
MIIDeDCCAmCgAwIBAgIRAIFStZu0xUjWw0SlrT6Zt0QwDQYJKoZIhvcNAQELBQAw
FjEUMBIGA1UEAwwLdGVhbTI1My1uZXQwHhcNMjEwOTEzMDEwMzU4WhcNMjQwODI4
MDEwMzU4WjAZMRcwFQYDVQQDDA50ZWFtMjUzLXNlcnZlcjCCASIwDQYJKoZIhvcN
AQEBBQADggEPADCCAQoCggEBAKwuI4qPQWcTjErxA//X0l3lDVNuzxGy2j3SizwE
mt5sVL3Qga3N1MMgS0hszydlpp/kHnIso9dvGd9MQF2DPswj5HyWLtsiNMRq+ljb
GM0YDVVlA5J4RLC48T3DT95PkZTrWB4aHHB1h3LnBjvmLukUJmuPWuPXGgGNhY5Q
1opFrJ+9WzUw8yfgPa8lIv/+h8iM+2+NiBD4cYaXPUZxs7rx+gnM/pNZnEl2Y619
zR/A28fm2t5ZmHtAE/jQsceILAr+xodgb8Xqe2lgysIQoPb2oO1sZl0v5Awt1KMw
iVf7ZQ7ZpHRJJ4TwQIMyQGQ7dAAiO74psp4OIolvrViFaUMCAwEAAaOBvTCBujAJ
BgNVHRMEAjAAMB0GA1UdDgQWBBQjuvFIm1I4zU5ZfLAdZ1owBlECtTBRBgNVHSME
SjBIgBSc957mMBIHiEDnFOcNfmp/Kr7E96EapBgwFjEUMBIGA1UEAwwLdGVhbTI1
My1uZXSCFENYFwPOhQH8s+752CyRkqjTSI6+MBMGA1UdJQQMMAoGCCsGAQUFBwMB
MAsGA1UdDwQEAwIFoDAZBgNVHREEEjAQgg50ZWFtMjUzLXNlcnZlcjANBgkqhkiG
9w0BAQsFAAOCAQEAaG6pL5/K/ZyJJLCIFgAmrHL3oYt8x66IdKi/kIbK7FwMMQd1
HdMtIU9T/kNK7TNjm/8Y99JFRw3CswMGVtMMACWHy2TeXcRBh6XceNPdeXsTpCZj
0z6mi29HvufdEaJ4rjeECAYd8rp7WvOjfpYyD4zj6v7BwKApiQ6muYAHhQoPjVu8
OTdXiLbfukxC35SnsHqTNyHOig3V5ngYS1yYvtKbrJNJyoJkoGOTn0yroK+XQd2C
VIpIV44TlZKuVaBmnIj3ULtAl9G2opx1XRYiEZcZfo80aFB4Vj8yAuOU9BY618MH
AOwpiRIK0SvPyEqaYBROLgk+V9GAe5EqpCWPaQ==
-----END CERTIFICATE-----
