Certificate:
    Data:
        Version: 3 (0x2)
        Serial Number:
            c5:b0:d8:53:4b:67:6a:56:91:7c:07:fc:1e:7d:b0:57
        Signature Algorithm: sha256WithRSAEncryption
        Issuer: CN=team19-net
        Validity
            Not Before: Sep 12 22:53:18 2021 GMT
            Not After : Aug 27 22:53:18 2024 GMT
        Subject: CN=team19-server
        Subject Public Key Info:
            Public Key Algorithm: rsaEncryption
                RSA Public-Key: (2048 bit)
                Modulus:
                    00:d4:ce:8c:6a:07:7a:d5:a1:2c:6f:66:89:06:86:
                    45:23:a3:68:00:e7:a8:e6:3d:b6:aa:bb:64:0a:55:
                    16:0f:6d:2c:41:a0:79:99:5e:a0:5e:d2:ff:0d:5c:
                    80:72:96:0e:b4:7b:0e:b0:69:88:a9:22:82:db:8c:
                    a8:1c:9d:c6:34:1a:73:b6:42:3f:e5:33:b7:7e:cb:
                    74:b0:da:a3:e8:e3:88:3d:d4:af:2f:e2:7a:48:a7:
                    89:85:b5:e1:05:74:5d:16:40:75:6a:17:5b:27:9d:
                    0d:8d:0e:24:02:5b:ff:2f:78:dd:78:1d:e4:65:06:
                    cc:7a:54:d1:a5:04:42:78:31:6f:cb:56:07:74:3b:
                    4a:d3:c3:7e:2d:2c:b8:e7:1c:17:a5:99:b9:66:23:
                    94:2a:37:7f:12:91:aa:86:eb:c7:68:b8:f1:68:6a:
                    51:87:1d:4a:fe:f8:f8:c0:b7:e1:09:71:d9:ce:5d:
                    41:1d:a2:c5:fd:c7:78:bc:37:0d:a3:a3:e5:fd:25:
                    40:c3:4b:97:95:e0:1c:21:63:bd:c2:45:f0:c8:c7:
                    83:39:97:0c:35:cc:36:40:09:77:97:54:aa:76:42:
                    1f:89:95:14:b1:64:ad:43:8c:75:c2:e9:93:8c:e9:
                    9d:3a:81:79:29:f7:a8:fb:25:64:f1:79:18:02:08:
                    e5:57
                Exponent: 65537 (0x10001)
        X509v3 extensions:
            X509v3 Basic Constraints: 
                CA:FALSE
            X509v3 Subject Key Identifier: 
                D3:E6:CE:3B:42:8A:FA:85:C5:E3:3B:24:B5:CF:26:15:02:D0:A5:BC
            X509v3 Authority Key Identifier: 
                keyid:38:3F:62:C2:95:4A:23:EF:A8:45:31:0D:AD:A7:71:D7:07:BC:39:D8
                DirName:/CN=team19-net
                serial:5F:84:CB:52:4D:5E:48:1F:21:14:73:6F:7E:ED:09:E5:80:BA:94:30

            X509v3 Extended Key Usage: 
                TLS Web Server Authentication
            X509v3 Key Usage: 
                Digital Signature, Key Encipherment
            X509v3 Subject Alternative Name: 
                DNS:team19-server
    Signature Algorithm: sha256WithRSAEncryption
         7e:19:a5:2b:7e:42:3e:d6:c6:0d:0f:cf:e1:11:4c:5d:27:8e:
         bc:c1:68:ad:42:d1:4f:46:63:df:58:e9:6c:a0:0e:95:1d:3a:
         a7:40:88:c2:9f:4a:24:25:4d:09:27:f9:4a:24:78:4b:e9:d9:
         f2:0d:6b:f6:d2:b1:26:a6:ab:bf:b5:73:ef:c0:10:93:cb:88:
         42:13:c4:cb:41:d2:c5:24:20:5c:c5:8b:f7:36:00:71:27:41:
         0a:1a:03:ee:87:4a:4d:c5:80:20:91:cb:6d:5f:32:8a:e7:c7:
         84:60:79:52:bf:1f:0b:57:77:ed:cb:2b:12:8c:01:b0:23:e0:
         a7:e5:ae:ba:19:04:c1:a7:d3:f1:fb:7a:23:b7:70:61:45:67:
         e2:7f:d1:4c:f6:9f:31:fb:d0:4e:f9:47:75:11:8e:b9:c6:ef:
         71:d9:1a:18:62:f9:c2:50:19:a2:95:39:45:ab:44:94:e7:a6:
         1f:6d:9a:b9:11:eb:01:48:b2:28:85:78:56:e4:93:38:40:6b:
         1a:0c:1d:ff:54:bc:49:f1:ee:9a:8c:30:6e:a3:78:94:26:02:
         eb:78:39:2c:21:d8:63:14:6a:cc:4d:80:fd:89:76:b3:d7:de:
         3a:79:3c:3d:1d:81:d7:d9:79:e7:08:ba:31:44:8a:0f:a9:78:
         aa:0e:8c:90
-----BEGIN CERTIFICATE-----
MIIDdDCCAlygAwIBAgIRAMWw2FNLZ2pWkXwH/B59sFcwDQYJKoZIhvcNAQELBQAw
FTETMBEGA1UEAwwKdGVhbTE5LW5ldDAeFw0yMTA5MTIyMjUzMThaFw0yNDA4Mjcy
MjUzMThaMBgxFjAUBgNVBAMMDXRlYW0xOS1zZXJ2ZXIwggEiMA0GCSqGSIb3DQEB
AQUAA4IBDwAwggEKAoIBAQDUzoxqB3rVoSxvZokGhkUjo2gA56jmPbaqu2QKVRYP
bSxBoHmZXqBe0v8NXIBylg60ew6waYipIoLbjKgcncY0GnO2Qj/lM7d+y3Sw2qPo
44g91K8v4npIp4mFteEFdF0WQHVqF1snnQ2NDiQCW/8veN14HeRlBsx6VNGlBEJ4
MW/LVgd0O0rTw34tLLjnHBelmblmI5QqN38SkaqG68douPFoalGHHUr++PjAt+EJ
cdnOXUEdosX9x3i8Nw2jo+X9JUDDS5eV4BwhY73CRfDIx4M5lww1zDZACXeXVKp2
Qh+JlRSxZK1DjHXC6ZOM6Z06gXkp96j7JWTxeRgCCOVXAgMBAAGjgbswgbgwCQYD
VR0TBAIwADAdBgNVHQ4EFgQU0+bOO0KK+oXF4zsktc8mFQLQpbwwUAYDVR0jBEkw
R4AUOD9iwpVKI++oRTENradx1we8OdihGaQXMBUxEzARBgNVBAMMCnRlYW0xOS1u
ZXSCFF+Ey1JNXkgfIRRzb37tCeWAupQwMBMGA1UdJQQMMAoGCCsGAQUFBwMBMAsG
A1UdDwQEAwIFoDAYBgNVHREEETAPgg10ZWFtMTktc2VydmVyMA0GCSqGSIb3DQEB
CwUAA4IBAQB+GaUrfkI+1sYND8/hEUxdJ468wWitQtFPRmPfWOlsoA6VHTqnQIjC
n0okJU0JJ/lKJHhL6dnyDWv20rEmpqu/tXPvwBCTy4hCE8TLQdLFJCBcxYv3NgBx
J0EKGgPuh0pNxYAgkcttXzKK58eEYHlSvx8LV3ftyysSjAGwI+Cn5a66GQTBp9Px
+3ojt3BhRWfif9FM9p8x+9BO+Ud1EY65xu9x2RoYYvnCUBmilTlFq0SU56YfbZq5
EesBSLIohXhW5JM4QGsaDB3/VLxJ8e6ajDBuo3iUJgLreDksIdhjFGrMTYD9iXaz
1946eTw9HYHX2XnnCLoxRIoPqXiqDoyQ
-----END CERTIFICATE-----
