Certificate:
    Data:
        Version: 3 (0x2)
        Serial Number:
            18:81:7f:e2:bf:ff:29:a5:2d:91:0a:6c:2b:f5:ac:ee
        Signature Algorithm: sha256WithRSAEncryption
        Issuer: CN=team758-net
        Validity
            Not Before: Sep 13 05:16:45 2021 GMT
            Not After : Aug 28 05:16:45 2024 GMT
        Subject: CN=team758-client
        Subject Public Key Info:
            Public Key Algorithm: rsaEncryption
                RSA Public-Key: (2048 bit)
                Modulus:
                    00:a0:18:0d:98:21:8b:ac:5d:91:a0:27:6a:ce:b5:
                    ac:41:4e:27:0a:e2:36:ae:ed:fb:e6:b1:3c:c2:b2:
                    fd:a3:3e:e7:ee:3d:25:59:e0:9c:a3:be:39:e7:89:
                    1b:e2:e0:62:4a:9b:19:e3:4d:d5:a4:17:bf:0b:a1:
                    a9:a9:9f:da:7e:71:f9:94:8e:95:f9:c7:e7:ca:91:
                    a3:48:51:06:e7:2f:4c:ba:ec:89:14:99:07:ff:7b:
                    b3:41:ad:87:a7:65:51:97:78:55:ed:37:66:dc:ce:
                    15:fa:cb:41:69:5a:f0:fd:39:c6:57:85:5c:14:a8:
                    63:70:f0:7a:9b:ce:61:39:99:48:22:3a:60:36:84:
                    ee:40:23:b5:bd:84:92:ed:7e:7a:ab:74:35:0d:82:
                    45:96:ac:3d:4d:6e:e6:fb:9b:7a:ce:71:df:53:c5:
                    83:68:9b:51:53:3e:ee:b8:dd:77:72:a5:56:8e:c4:
                    f5:c2:c9:5a:f9:d0:b1:13:8e:73:0e:d9:bf:b4:01:
                    a1:12:0e:71:bc:8b:47:9c:0f:0d:21:a5:6e:b9:9a:
                    40:b4:8a:50:89:89:70:52:99:75:df:32:da:07:06:
                    ae:94:64:ff:2c:d5:db:e2:13:4e:d1:1c:7f:c1:0a:
                    fc:59:31:72:6f:21:09:0e:69:10:96:3e:c1:1d:b3:
                    86:bf
                Exponent: 65537 (0x10001)
        X509v3 extensions:
            X509v3 Basic Constraints: 
                CA:FALSE
            X509v3 Subject Key Identifier: 
                89:53:77:AC:CC:28:F0:E0:B5:0B:87:13:6A:33:0B:2C:8C:1F:76:20
            X509v3 Authority Key Identifier: 
                keyid:78:5F:C2:C6:6A:4A:41:22:23:16:54:09:55:03:D3:3B:4C:E8:69:21
                DirName:/CN=team758-net
                serial:70:D9:3D:5E:60:19:07:7D:60:7E:BE:00:29:A6:DB:53:40:19:97:09

            X509v3 Extended Key Usage: 
                TLS Web Client Authentication
            X509v3 Key Usage: 
                Digital Signature
    Signature Algorithm: sha256WithRSAEncryption
         8f:c2:6d:00:53:cd:63:97:00:b2:d1:d2:b9:20:12:fa:ef:b1:
         4f:ea:20:d8:d1:14:67:8e:b3:14:f3:a4:21:39:e2:8c:f8:d9:
         43:51:03:b1:03:70:31:a9:b5:c9:1f:80:d3:94:ef:4c:87:cc:
         8f:bb:89:da:a0:ea:0f:4a:c1:be:bd:d5:f9:76:c1:d0:16:77:
         b0:ae:35:52:24:e3:d0:de:32:58:0d:a9:00:65:11:1d:0e:3b:
         65:83:85:61:42:41:58:6e:04:69:61:92:90:9a:1d:71:d1:af:
         80:28:1f:8f:91:f1:4d:c0:b3:05:de:71:b8:07:be:e3:40:35:
         ea:41:e9:8c:5b:ee:6a:f6:6f:0d:7b:5e:16:f7:ae:c3:95:0d:
         20:8b:ec:4d:a7:f4:62:6e:fc:6c:41:01:8e:a2:fb:e3:6c:a6:
         e1:99:64:25:f7:2e:88:c2:05:b8:63:fc:e2:1f:5f:bb:a1:d0:
         43:b3:81:4c:e0:46:f9:32:9e:36:87:40:d3:0d:a6:5e:54:48:
         04:c6:c5:cb:b0:81:01:2e:bb:ac:77:be:c9:d4:b4:d9:81:1b:
         e5:b9:05:41:31:a1:80:07:b6:d1:d2:9c:10:40:52:7e:02:21:
         b8:d8:1f:6a:e9:32:3a:60:28:84:59:cb:20:38:2d:ed:a9:6d:
         76:2c:a1:41
-----BEGIN CERTIFICATE-----
MIIDXDCCAkSgAwIBAgIQGIF/4r//KaUtkQpsK/Ws7jANBgkqhkiG9w0BAQsFADAW
MRQwEgYDVQQDDAt0ZWFtNzU4LW5ldDAeFw0yMTA5MTMwNTE2NDVaFw0yNDA4Mjgw
NTE2NDVaMBkxFzAVBgNVBAMMDnRlYW03NTgtY2xpZW50MIIBIjANBgkqhkiG9w0B
AQEFAAOCAQ8AMIIBCgKCAQEAoBgNmCGLrF2RoCdqzrWsQU4nCuI2ru375rE8wrL9
oz7n7j0lWeCco74554kb4uBiSpsZ403VpBe/C6GpqZ/afnH5lI6V+cfnypGjSFEG
5y9MuuyJFJkH/3uzQa2Hp2VRl3hV7Tdm3M4V+stBaVrw/TnGV4VcFKhjcPB6m85h
OZlIIjpgNoTuQCO1vYSS7X56q3Q1DYJFlqw9TW7m+5t6znHfU8WDaJtRUz7uuN13
cqVWjsT1wsla+dCxE45zDtm/tAGhEg5xvItHnA8NIaVuuZpAtIpQiYlwUpl13zLa
BwaulGT/LNXb4hNO0Rx/wQr8WTFybyEJDmkQlj7BHbOGvwIDAQABo4GiMIGfMAkG
A1UdEwQCMAAwHQYDVR0OBBYEFIlTd6zMKPDgtQuHE2ozCyyMH3YgMFEGA1UdIwRK
MEiAFHhfwsZqSkEiIxZUCVUD0ztM6GkhoRqkGDAWMRQwEgYDVQQDDAt0ZWFtNzU4
LW5ldIIUcNk9XmAZB31gfr4AKabbU0AZlwkwEwYDVR0lBAwwCgYIKwYBBQUHAwIw
CwYDVR0PBAQDAgeAMA0GCSqGSIb3DQEBCwUAA4IBAQCPwm0AU81jlwCy0dK5IBL6
77FP6iDY0RRnjrMU86QhOeKM+NlDUQOxA3AxqbXJH4DTlO9Mh8yPu4naoOoPSsG+
vdX5dsHQFnewrjVSJOPQ3jJYDakAZREdDjtlg4VhQkFYbgRpYZKQmh1x0a+AKB+P
kfFNwLMF3nG4B77jQDXqQemMW+5q9m8Ne14W967DlQ0gi+xNp/RibvxsQQGOovvj
bKbhmWQl9y6IwgW4Y/ziH1+7odBDs4FM4Eb5Mp42h0DTDaZeVEgExsXLsIEBLrus
d77J1LTZgRvluQVBMaGAB7bR0pwQQFJ+AiG42B9q6TI6YCiEWcsgOC3tqW12LKFB
-----END CERTIFICATE-----
