Certificate:
    Data:
        Version: 3 (0x2)
        Serial Number:
            1e:80:09:c4:03:15:41:c5:c8:80:e5:83:25:05:ba:cc
        Signature Algorithm: sha256WithRSAEncryption
        Issuer: CN=team675-net
        Validity
            Not Before: Sep 13 04:34:22 2021 GMT
            Not After : Aug 28 04:34:22 2024 GMT
        Subject: CN=team675-server
        Subject Public Key Info:
            Public Key Algorithm: rsaEncryption
                RSA Public-Key: (2048 bit)
                Modulus:
                    00:d2:ce:2a:0c:ee:e1:d9:58:73:53:09:7a:68:c8:
                    33:6f:e3:db:10:c9:ce:ad:a7:31:fd:28:1d:b8:8c:
                    3b:cf:c5:99:2a:04:26:22:6e:e8:70:74:ef:d7:8f:
                    1d:0e:56:6b:1e:bd:c5:38:35:a5:48:b2:e2:0f:f3:
                    47:45:6e:c5:60:65:f4:2b:22:c0:a3:12:95:2c:56:
                    19:9c:b3:b6:18:c1:a1:30:ea:b3:67:3d:8b:4f:a4:
                    b3:6c:78:b0:91:b3:a1:11:db:af:66:0d:f2:a5:ea:
                    ea:71:cc:40:04:8b:8d:20:cf:36:f4:3e:fe:54:81:
                    d5:ee:70:7f:fc:04:4e:82:2a:7a:9a:db:90:ab:8f:
                    1f:0b:35:1d:51:c2:9a:94:0f:3a:ec:45:c0:aa:97:
                    e9:3d:1a:ef:4d:17:a6:54:6f:1d:fa:b0:76:b4:80:
                    af:8e:88:0a:fc:53:70:84:93:03:56:a3:d2:97:63:
                    30:90:a1:b6:ae:49:39:af:f6:c0:39:c8:77:8c:0f:
                    4e:a0:89:d8:50:74:10:a9:f0:4d:30:fc:31:d6:1e:
                    d5:62:25:3e:c7:24:2d:4c:0d:d3:06:98:e2:ed:fd:
                    ae:83:27:ee:69:e2:cb:b6:8c:de:aa:c2:9c:11:0f:
                    ff:86:52:5e:9a:1d:25:a8:3a:18:46:59:67:0a:c0:
                    70:6b
                Exponent: 65537 (0x10001)
        X509v3 extensions:
            X509v3 Basic Constraints: 
                CA:FALSE
            X509v3 Subject Key Identifier: 
                C6:B7:62:85:19:12:7B:7D:66:55:EF:80:35:23:E6:4A:B8:CA:E5:76
            X509v3 Authority Key Identifier: 
                keyid:B2:1E:EE:FD:00:06:E7:30:C1:AA:A7:5B:00:63:ED:15:82:CF:A0:C9
                DirName:/CN=team675-net
                serial:51:15:79:E9:E3:36:D9:63:37:40:1C:DB:96:20:CE:E8:49:D9:93:88

            X509v3 Extended Key Usage: 
                TLS Web Server Authentication
            X509v3 Key Usage: 
                Digital Signature, Key Encipherment
            X509v3 Subject Alternative Name: 
                DNS:team675-server
    Signature Algorithm: sha256WithRSAEncryption
         3b:75:c1:09:b2:80:cc:c9:17:b4:23:a8:b5:cb:59:81:1c:33:
         da:e7:4f:2b:10:b0:1b:34:f4:ec:21:b0:28:b6:f6:73:6b:aa:
         73:7d:7c:02:0b:a4:9b:c0:de:d4:46:4f:7d:55:8c:7e:56:af:
         67:55:df:75:c0:3b:b8:7a:14:3f:47:36:2f:5d:2a:11:e5:e6:
         ec:c7:a4:ce:f9:6a:b5:2a:30:61:78:fc:0e:50:aa:2d:33:71:
         5f:14:54:80:ba:86:20:ff:7b:ce:2a:5e:25:64:ea:a0:73:c4:
         76:12:02:b1:32:a2:9e:bf:e4:aa:c3:ac:e5:08:36:8f:44:43:
         57:e5:1e:d9:7e:3a:b1:3b:7e:78:f9:69:4d:14:76:64:26:42:
         48:0c:62:20:e6:6b:b0:ba:c4:b6:d9:65:e7:ad:2b:3f:07:0e:
         48:17:bb:64:aa:41:4f:00:97:b1:09:b2:3e:ff:73:33:01:dd:
         09:e9:03:b4:8b:32:31:a6:cf:72:ac:07:b9:80:9e:77:e9:06:
         de:f9:12:c0:d4:9e:ec:ab:04:d4:93:25:3d:01:ac:e1:98:29:
         df:df:d8:b4:db:b4:b7:aa:f8:fe:45:06:4c:19:9f:ad:ed:37:
         56:00:ca:87:5a:02:72:91:5a:cd:56:dc:e8:6b:0b:e0:bb:b7:
         2c:d5:fc:26
-----BEGIN CERTIFICATE-----
MIIDdzCCAl+gAwIBAgIQHoAJxAMVQcXIgOWDJQW6zDANBgkqhkiG9w0BAQsFADAW
MRQwEgYDVQQDDAt0ZWFtNjc1LW5ldDAeFw0yMTA5MTMwNDM0MjJaFw0yNDA4Mjgw
NDM0MjJaMBkxFzAVBgNVBAMMDnRlYW02NzUtc2VydmVyMIIBIjANBgkqhkiG9w0B
AQEFAAOCAQ8AMIIBCgKCAQEA0s4qDO7h2VhzUwl6aMgzb+PbEMnOracx/SgduIw7
z8WZKgQmIm7ocHTv148dDlZrHr3FODWlSLLiD/NHRW7FYGX0KyLAoxKVLFYZnLO2
GMGhMOqzZz2LT6SzbHiwkbOhEduvZg3yperqccxABIuNIM829D7+VIHV7nB//ARO
gip6mtuQq48fCzUdUcKalA867EXAqpfpPRrvTRemVG8d+rB2tICvjogK/FNwhJMD
VqPSl2MwkKG2rkk5r/bAOch3jA9OoInYUHQQqfBNMPwx1h7VYiU+xyQtTA3TBpji
7f2ugyfuaeLLtozeqsKcEQ//hlJemh0lqDoYRllnCsBwawIDAQABo4G9MIG6MAkG
A1UdEwQCMAAwHQYDVR0OBBYEFMa3YoUZEnt9ZlXvgDUj5kq4yuV2MFEGA1UdIwRK
MEiAFLIe7v0ABucwwaqnWwBj7RWCz6DJoRqkGDAWMRQwEgYDVQQDDAt0ZWFtNjc1
LW5ldIIUURV56eM22WM3QBzbliDO6EnZk4gwEwYDVR0lBAwwCgYIKwYBBQUHAwEw
CwYDVR0PBAQDAgWgMBkGA1UdEQQSMBCCDnRlYW02NzUtc2VydmVyMA0GCSqGSIb3
DQEBCwUAA4IBAQA7dcEJsoDMyRe0I6i1y1mBHDPa508rELAbNPTsIbAotvZza6pz
fXwCC6SbwN7URk99VYx+Vq9nVd91wDu4ehQ/RzYvXSoR5ebsx6TO+Wq1KjBhePwO
UKotM3FfFFSAuoYg/3vOKl4lZOqgc8R2EgKxMqKev+Sqw6zlCDaPRENX5R7Zfjqx
O354+WlNFHZkJkJIDGIg5muwusS22WXnrSs/Bw5IF7tkqkFPAJexCbI+/3MzAd0J
6QO0izIxps9yrAe5gJ536Qbe+RLA1J7sqwTUkyU9AazhmCnf39i027S3qvj+RQZM
GZ+t7TdWAMqHWgJykVrNVtzoawvgu7cs1fwm
-----END CERTIFICATE-----
