Certificate:
    Data:
        Version: 3 (0x2)
        Serial Number:
            30:c8:d9:b9:33:91:06:c7:aa:71:42:96:09:4e:44:88
        Signature Algorithm: sha256WithRSAEncryption
        Issuer: CN=team136-net
        Validity
            Not Before: Sep 12 23:57:11 2021 GMT
            Not After : Aug 27 23:57:11 2024 GMT
        Subject: CN=team136-server
        Subject Public Key Info:
            Public Key Algorithm: rsaEncryption
                RSA Public-Key: (2048 bit)
                Modulus:
                    00:c1:8d:6a:5f:2a:2a:0e:df:c1:c9:3a:1a:ea:c5:
                    fa:53:79:5b:06:fc:f9:70:39:aa:5e:74:71:73:1c:
                    df:8a:9d:3d:2f:0a:b4:15:e0:85:15:e9:1e:f9:f2:
                    e2:f8:18:9d:f7:0c:17:25:12:21:26:54:ae:e9:82:
                    59:99:34:c9:d4:d5:6f:80:37:d5:67:d3:76:3e:6d:
                    1c:00:de:2d:b1:d0:44:23:39:9c:e5:63:a4:c2:29:
                    17:6e:04:01:82:7e:80:27:54:be:af:1d:7b:ac:f8:
                    a2:cd:5a:ca:d6:ba:2f:af:5e:35:12:08:43:92:46:
                    72:f0:98:8e:e5:4f:d5:3e:03:f9:e6:e2:fc:56:12:
                    f2:84:56:48:b5:24:fc:18:0f:7d:cc:82:91:74:5f:
                    31:2d:c5:42:90:c1:f1:2d:64:09:d9:73:b3:cb:9c:
                    78:e3:a2:2b:4a:9e:8f:ce:a9:ac:ef:2e:b3:31:c8:
                    28:1f:fe:37:b9:fd:ea:0d:ff:ad:5a:7a:9b:f4:b4:
                    c6:88:90:d0:00:0e:3a:57:f6:ea:43:1d:36:92:61:
                    0f:94:fd:b5:5e:12:fc:61:8e:52:e3:96:5e:d8:21:
                    5d:5c:06:de:00:36:cd:43:08:72:d6:25:35:9d:09:
                    6e:5a:ff:37:16:1d:bd:a6:5f:73:1c:e3:a6:17:e8:
                    86:11
                Exponent: 65537 (0x10001)
        X509v3 extensions:
            X509v3 Basic Constraints: 
                CA:FALSE
            X509v3 Subject Key Identifier: 
                DF:2C:4F:2D:F1:2C:17:FB:01:4E:85:34:7C:DC:75:65:BF:F6:8E:01
            X509v3 Authority Key Identifier: 
                keyid:4E:FB:00:54:D1:8B:3A:C3:A3:12:4E:F6:7C:81:9B:70:81:75:2F:0C
                DirName:/CN=team136-net
                serial:18:9B:2B:2B:20:C5:75:AF:2C:7E:10:30:A4:C8:7C:70:B8:6E:DD:32

            X509v3 Extended Key Usage: 
                TLS Web Server Authentication
            X509v3 Key Usage: 
                Digital Signature, Key Encipherment
            X509v3 Subject Alternative Name: 
                DNS:team136-server
    Signature Algorithm: sha256WithRSAEncryption
         bc:9a:ef:78:9b:e4:21:10:fe:dc:be:d2:d3:b9:63:a6:81:30:
         8a:5b:dc:03:a0:92:83:22:ba:a8:1c:2b:3e:ce:8b:a1:3c:47:
         96:20:56:4e:fd:c3:51:88:86:bb:6b:80:11:b5:e2:64:0e:0b:
         aa:bf:d8:fb:83:ce:76:0d:5b:b9:f5:ee:06:e5:16:9a:49:40:
         06:17:6f:5e:ff:f6:dd:51:4c:b8:0b:df:bc:2f:bc:aa:e5:44:
         3a:7a:07:ec:b8:c8:9e:6f:bb:16:fc:39:3c:3a:66:8d:3c:0b:
         93:05:80:fa:a0:ce:81:c0:06:df:ac:a9:fd:0b:f3:31:f1:3f:
         38:77:ed:9b:15:c1:ad:25:fc:1f:1f:79:a9:7b:f7:07:0e:b8:
         0d:7f:47:df:09:89:d8:cf:14:85:d9:27:79:5f:3d:9c:c6:60:
         fd:5e:4c:90:d0:47:9f:7c:8a:f3:cc:ad:de:71:49:36:8a:ae:
         9a:5d:cd:b9:d0:3d:ea:36:49:75:43:8a:4a:4d:f3:34:c9:29:
         23:e0:cb:2d:eb:f9:19:7a:d0:80:c9:b6:74:73:28:66:d9:40:
         57:85:30:99:0e:59:11:33:ee:94:93:32:df:6e:a9:ee:99:4a:
         bf:3f:7a:86:e2:f3:34:9c:da:f4:bd:2c:80:ab:46:6b:fa:9a:
         a5:f3:04:1b
-----BEGIN CERTIFICATE-----
MIIDdzCCAl+gAwIBAgIQMMjZuTORBseqcUKWCU5EiDANBgkqhkiG9w0BAQsFADAW
MRQwEgYDVQQDDAt0ZWFtMTM2LW5ldDAeFw0yMTA5MTIyMzU3MTFaFw0yNDA4Mjcy
MzU3MTFaMBkxFzAVBgNVBAMMDnRlYW0xMzYtc2VydmVyMIIBIjANBgkqhkiG9w0B
AQEFAAOCAQ8AMIIBCgKCAQEAwY1qXyoqDt/ByToa6sX6U3lbBvz5cDmqXnRxcxzf
ip09Lwq0FeCFFeke+fLi+Bid9wwXJRIhJlSu6YJZmTTJ1NVvgDfVZ9N2Pm0cAN4t
sdBEIzmc5WOkwikXbgQBgn6AJ1S+rx17rPiizVrK1rovr141EghDkkZy8JiO5U/V
PgP55uL8VhLyhFZItST8GA99zIKRdF8xLcVCkMHxLWQJ2XOzy5x446IrSp6Pzqms
7y6zMcgoH/43uf3qDf+tWnqb9LTGiJDQAA46V/bqQx02kmEPlP21XhL8YY5S45Ze
2CFdXAbeADbNQwhy1iU1nQluWv83Fh29pl9zHOOmF+iGEQIDAQABo4G9MIG6MAkG
A1UdEwQCMAAwHQYDVR0OBBYEFN8sTy3xLBf7AU6FNHzcdWW/9o4BMFEGA1UdIwRK
MEiAFE77AFTRizrDoxJO9nyBm3CBdS8MoRqkGDAWMRQwEgYDVQQDDAt0ZWFtMTM2
LW5ldIIUGJsrKyDFda8sfhAwpMh8cLhu3TIwEwYDVR0lBAwwCgYIKwYBBQUHAwEw
CwYDVR0PBAQDAgWgMBkGA1UdEQQSMBCCDnRlYW0xMzYtc2VydmVyMA0GCSqGSIb3
DQEBCwUAA4IBAQC8mu94m+QhEP7cvtLTuWOmgTCKW9wDoJKDIrqoHCs+zouhPEeW
IFZO/cNRiIa7a4ARteJkDguqv9j7g852DVu59e4G5RaaSUAGF29e//bdUUy4C9+8
L7yq5UQ6egfsuMieb7sW/Dk8OmaNPAuTBYD6oM6BwAbfrKn9C/Mx8T84d+2bFcGt
JfwfH3mpe/cHDrgNf0ffCYnYzxSF2Sd5Xz2cxmD9XkyQ0EeffIrzzK3ecUk2iq6a
Xc250D3qNkl1Q4pKTfM0ySkj4Mst6/kZetCAybZ0cyhm2UBXhTCZDlkRM+6UkzLf
bqnumUq/P3qG4vM0nNr0vSyAq0Zr+pql8wQb
-----END CERTIFICATE-----
