Certificate:
    Data:
        Version: 3 (0x2)
        Serial Number:
            ce:4f:07:5c:a0:10:5d:85:7e:28:2b:4c:f4:d3:73:a5
        Signature Algorithm: sha256WithRSAEncryption
        Issuer: CN=team361-net
        Validity
            Not Before: Sep 13 02:01:11 2021 GMT
            Not After : Aug 28 02:01:11 2024 GMT
        Subject: CN=team361-client
        Subject Public Key Info:
            Public Key Algorithm: rsaEncryption
                RSA Public-Key: (2048 bit)
                Modulus:
                    00:c3:65:2f:d7:d2:13:83:4b:46:ae:55:3d:e4:f5:
                    22:ea:d4:46:d9:d1:99:c3:f9:d5:2d:60:65:6b:4d:
                    77:5e:5a:e4:79:70:fb:48:80:7e:f7:6c:8e:53:e9:
                    a2:f9:c0:39:95:50:b5:18:6a:a6:40:b4:c4:15:bf:
                    68:66:ab:87:10:16:d4:b6:af:5e:41:9e:3e:d2:b0:
                    b0:80:33:8a:4a:e5:d0:d6:ee:e2:95:2f:5d:17:36:
                    bb:ab:74:16:63:e2:8a:10:d9:47:15:cb:15:c1:ed:
                    0b:7d:7a:ce:0a:9c:e5:1c:1e:34:8b:1f:25:ce:b0:
                    11:42:d9:27:6e:ba:1e:a1:b3:a6:11:b2:11:11:28:
                    0e:70:cb:0b:9d:11:69:28:f0:31:39:e3:c5:e1:43:
                    0f:0b:d5:c2:ef:5c:90:39:ee:8b:f7:6b:2e:75:d7:
                    4f:93:ae:d0:8b:e7:69:38:05:82:4a:02:5f:33:40:
                    6f:b7:6a:71:e9:c4:4d:bb:63:a3:dd:d6:da:61:31:
                    ea:8a:05:e5:68:60:30:cc:b6:ea:c0:32:28:6a:18:
                    be:00:52:13:3e:14:3d:d3:da:38:2e:88:35:9a:26:
                    e6:c7:77:a1:01:05:07:d9:45:e5:80:cb:07:70:c6:
                    1b:8a:4b:06:ff:e7:eb:73:99:14:12:68:ed:af:39:
                    71:73
                Exponent: 65537 (0x10001)
        X509v3 extensions:
            X509v3 Basic Constraints: 
                CA:FALSE
            X509v3 Subject Key Identifier: 
                FF:B3:18:77:3D:04:7C:E2:A2:B0:2F:D8:27:3A:07:73:5E:1B:F2:2D
            X509v3 Authority Key Identifier: 
                keyid:A3:6C:BD:DB:16:F9:74:91:C2:58:13:CA:7C:02:83:75:3D:C3:87:BA
                DirName:/CN=team361-net
                serial:34:0B:8F:49:42:50:BA:77:EA:28:DC:C9:51:3E:0D:31:1C:6D:B8:94

            X509v3 Extended Key Usage: 
                TLS Web Client Authentication
            X509v3 Key Usage: 
                Digital Signature
    Signature Algorithm: sha256WithRSAEncryption
         46:97:ca:b0:62:61:9d:4d:11:73:2a:e5:e8:19:37:c2:04:bd:
         cf:b6:da:22:56:77:0c:d1:3a:e8:8c:9a:68:63:74:5e:88:7a:
         88:11:90:a4:1a:08:75:4f:80:46:6a:4f:ea:2e:15:b3:c1:97:
         ae:b3:f6:7d:6b:41:ae:e0:dc:dd:f4:8e:2d:44:c8:1b:78:5f:
         3f:f2:f9:6b:be:80:53:69:7c:58:c5:1e:f5:6a:4a:2d:37:ce:
         17:dc:87:5d:0e:e8:5d:a2:53:10:cd:a4:af:5d:3f:4b:6b:f0:
         45:bc:76:14:76:5e:58:b0:39:7d:57:c6:af:7c:ab:e1:62:56:
         4e:ae:c0:35:6c:80:57:09:b3:5c:46:3e:fc:de:a4:0f:93:e8:
         de:57:fe:aa:d9:56:92:47:14:91:2d:45:0a:c6:90:b6:6f:b9:
         fa:21:c9:27:fb:3b:b6:f5:1f:2e:94:04:86:72:41:42:97:e1:
         dc:53:c1:7e:bf:78:44:13:47:db:16:28:9f:eb:6d:61:bf:37:
         fb:c0:0b:74:0f:a5:02:84:91:5d:aa:19:4a:ae:3e:a8:3e:ad:
         c4:b0:1d:5d:29:bf:d1:4d:e2:79:c5:9a:44:36:bb:3a:35:21:
         95:b8:70:1d:d7:68:fb:39:14:6d:d7:a0:e7:87:90:4a:ab:fe:
         0b:8a:ce:36
-----BEGIN CERTIFICATE-----
MIIDXTCCAkWgAwIBAgIRAM5PB1ygEF2FfigrTPTTc6UwDQYJKoZIhvcNAQELBQAw
FjEUMBIGA1UEAwwLdGVhbTM2MS1uZXQwHhcNMjEwOTEzMDIwMTExWhcNMjQwODI4
MDIwMTExWjAZMRcwFQYDVQQDDA50ZWFtMzYxLWNsaWVudDCCASIwDQYJKoZIhvcN
AQEBBQADggEPADCCAQoCggEBAMNlL9fSE4NLRq5VPeT1IurURtnRmcP51S1gZWtN
d15a5Hlw+0iAfvdsjlPpovnAOZVQtRhqpkC0xBW/aGarhxAW1LavXkGePtKwsIAz
ikrl0Nbu4pUvXRc2u6t0FmPiihDZRxXLFcHtC316zgqc5RweNIsfJc6wEULZJ266
HqGzphGyEREoDnDLC50RaSjwMTnjxeFDDwvVwu9ckDnui/drLnXXT5Ou0IvnaTgF
gkoCXzNAb7dqcenETbtjo93W2mEx6ooF5WhgMMy26sAyKGoYvgBSEz4UPdPaOC6I
NZom5sd3oQEFB9lF5YDLB3DGG4pLBv/n63OZFBJo7a85cXMCAwEAAaOBojCBnzAJ
BgNVHRMEAjAAMB0GA1UdDgQWBBT/sxh3PQR84qKwL9gnOgdzXhvyLTBRBgNVHSME
SjBIgBSjbL3bFvl0kcJYE8p8AoN1PcOHuqEapBgwFjEUMBIGA1UEAwwLdGVhbTM2
MS1uZXSCFDQLj0lCULp36ijcyVE+DTEcbbiUMBMGA1UdJQQMMAoGCCsGAQUFBwMC
MAsGA1UdDwQEAwIHgDANBgkqhkiG9w0BAQsFAAOCAQEARpfKsGJhnU0Rcyrl6Bk3
wgS9z7baIlZ3DNE66IyaaGN0Xoh6iBGQpBoIdU+ARmpP6i4Vs8GXrrP2fWtBruDc
3fSOLUTIG3hfP/L5a76AU2l8WMUe9WpKLTfOF9yHXQ7oXaJTEM2kr10/S2vwRbx2
FHZeWLA5fVfGr3yr4WJWTq7ANWyAVwmzXEY+/N6kD5Po3lf+qtlWkkcUkS1FCsaQ
tm+5+iHJJ/s7tvUfLpQEhnJBQpfh3FPBfr94RBNH2xYon+ttYb83+8ALdA+lAoSR
XaoZSq4+qD6txLAdXSm/0U3iecWaRDa7OjUhlbhwHddo+zkUbdeg54eQSqv+C4rO
Ng==
-----END CERTIFICATE-----
