Certificate:
    Data:
        Version: 3 (0x2)
        Serial Number:
            5c:7c:80:2c:53:26:3e:dd:2b:db:d2:fc:3b:c3:13:f8
        Signature Algorithm: sha256WithRSAEncryption
        Issuer: CN=team171-net
        Validity
            Not Before: Sep 13 00:14:13 2021 GMT
            Not After : Aug 28 00:14:13 2024 GMT
        Subject: CN=team171-server
        Subject Public Key Info:
            Public Key Algorithm: rsaEncryption
                RSA Public-Key: (2048 bit)
                Modulus:
                    00:e1:f7:0b:b0:df:05:f9:c8:a0:c7:7b:69:81:5a:
                    5e:5c:d8:ec:ce:3b:52:64:7f:76:76:32:8f:62:95:
                    98:da:90:41:95:a4:c0:e1:45:cd:96:08:b4:5d:b4:
                    c8:84:eb:dc:f0:f5:f9:93:e0:be:ba:f6:6f:12:97:
                    69:eb:bf:ce:1c:b1:39:d2:d1:6c:8b:5f:0c:1c:cd:
                    6d:19:66:03:78:ac:1c:a3:80:57:18:a1:b7:69:3b:
                    da:c1:d3:30:0e:69:12:40:1c:30:b5:c4:fa:09:25:
                    da:de:cc:aa:de:c4:67:e2:64:e5:0a:14:a3:4b:6f:
                    bf:8f:49:11:c6:db:ea:d0:ea:71:39:0a:2d:7c:83:
                    cb:ce:e2:ee:48:a1:57:b6:f7:be:f3:c6:e1:64:2c:
                    e2:a8:11:80:5b:a4:11:6b:45:48:18:7a:22:43:8e:
                    af:52:26:99:6c:cc:fb:62:ff:b4:14:97:83:e6:17:
                    b3:75:99:d9:40:4f:41:b5:34:cc:32:e1:ff:0d:b5:
                    c5:3d:86:20:63:1d:3c:5d:c0:33:fb:0c:6c:5e:13:
                    27:ab:32:34:11:ca:1c:82:7c:60:0d:f7:32:5b:78:
                    7f:73:42:a0:78:42:13:d5:56:a7:4d:70:8d:dd:20:
                    01:eb:4b:d4:49:b5:97:0c:62:c4:5e:0c:55:0b:d3:
                    cf:57
                Exponent: 65537 (0x10001)
        X509v3 extensions:
            X509v3 Basic Constraints: 
                CA:FALSE
            X509v3 Subject Key Identifier: 
                89:5D:E7:AD:4F:DB:90:8A:20:62:F6:85:E7:93:A8:1B:80:EE:41:99
            X509v3 Authority Key Identifier: 
                keyid:0B:1E:0D:AA:89:5B:DB:23:EC:D0:AC:6B:A6:72:7A:7C:2E:D1:20:99
                DirName:/CN=team171-net
                serial:60:68:21:7D:59:F0:A5:5B:B0:A4:E8:E2:EA:36:FA:B2:BF:B6:E6:93

            X509v3 Extended Key Usage: 
                TLS Web Server Authentication
            X509v3 Key Usage: 
                Digital Signature, Key Encipherment
            X509v3 Subject Alternative Name: 
                DNS:team171-server
    Signature Algorithm: sha256WithRSAEncryption
         20:91:2f:3e:82:e9:3c:d8:b5:df:d7:40:80:18:11:59:45:3c:
         88:99:e1:52:a7:b7:9f:7f:95:d2:7b:d8:6b:f4:03:68:7a:6c:
         53:54:e0:06:eb:b2:7b:dd:10:8a:27:0e:ce:7f:91:a1:5a:16:
         3d:c6:ee:cb:7c:0b:7b:51:94:a5:41:90:ec:69:9f:05:b7:38:
         ca:05:f5:ff:ca:f2:9b:a7:51:e7:8c:02:57:a4:97:a0:4e:ad:
         d9:8b:f5:91:a1:68:1f:ba:f6:f8:86:28:7d:cd:f5:7d:2a:1c:
         bd:54:ce:00:bf:d0:cf:c2:fd:9d:6f:b7:4a:05:a9:e0:57:2e:
         5d:e6:4b:68:b8:69:b5:8b:fe:93:53:1e:12:fe:f2:1b:08:23:
         1a:80:13:1c:0d:e9:89:d3:8a:33:80:39:dc:e2:0c:88:9f:73:
         35:24:14:ea:d7:55:2a:b9:9a:81:f9:16:51:4e:1e:59:4d:07:
         7a:0e:fc:19:18:48:9f:a4:d1:e1:11:cc:6a:6b:a9:d8:fd:fe:
         1d:79:75:01:66:5b:b5:72:e4:6f:22:5b:98:86:57:6d:a1:0a:
         de:d4:c5:39:df:b0:0f:45:f7:6f:fe:86:88:7f:18:59:87:74:
         b1:da:29:9c:0d:bc:62:18:62:66:28:6a:60:45:0d:c0:9e:af:
         e8:c4:29:2f
-----BEGIN CERTIFICATE-----
MIIDdzCCAl+gAwIBAgIQXHyALFMmPt0r29L8O8MT+DANBgkqhkiG9w0BAQsFADAW
MRQwEgYDVQQDDAt0ZWFtMTcxLW5ldDAeFw0yMTA5MTMwMDE0MTNaFw0yNDA4Mjgw
MDE0MTNaMBkxFzAVBgNVBAMMDnRlYW0xNzEtc2VydmVyMIIBIjANBgkqhkiG9w0B
AQEFAAOCAQ8AMIIBCgKCAQEA4fcLsN8F+cigx3tpgVpeXNjszjtSZH92djKPYpWY
2pBBlaTA4UXNlgi0XbTIhOvc8PX5k+C+uvZvEpdp67/OHLE50tFsi18MHM1tGWYD
eKwco4BXGKG3aTvawdMwDmkSQBwwtcT6CSXa3syq3sRn4mTlChSjS2+/j0kRxtvq
0OpxOQotfIPLzuLuSKFXtve+88bhZCziqBGAW6QRa0VIGHoiQ46vUiaZbMz7Yv+0
FJeD5hezdZnZQE9BtTTMMuH/DbXFPYYgYx08XcAz+wxsXhMnqzI0EcocgnxgDfcy
W3h/c0KgeEIT1VanTXCN3SAB60vUSbWXDGLEXgxVC9PPVwIDAQABo4G9MIG6MAkG
A1UdEwQCMAAwHQYDVR0OBBYEFIld561P25CKIGL2heeTqBuA7kGZMFEGA1UdIwRK
MEiAFAseDaqJW9sj7NCsa6Zyenwu0SCZoRqkGDAWMRQwEgYDVQQDDAt0ZWFtMTcx
LW5ldIIUYGghfVnwpVuwpOji6jb6sr+25pMwEwYDVR0lBAwwCgYIKwYBBQUHAwEw
CwYDVR0PBAQDAgWgMBkGA1UdEQQSMBCCDnRlYW0xNzEtc2VydmVyMA0GCSqGSIb3
DQEBCwUAA4IBAQAgkS8+guk82LXf10CAGBFZRTyImeFSp7eff5XSe9hr9ANoemxT
VOAG67J73RCKJw7Of5GhWhY9xu7LfAt7UZSlQZDsaZ8FtzjKBfX/yvKbp1HnjAJX
pJegTq3Zi/WRoWgfuvb4hih9zfV9Khy9VM4Av9DPwv2db7dKBangVy5d5ktouGm1
i/6TUx4S/vIbCCMagBMcDemJ04ozgDnc4gyIn3M1JBTq11UquZqB+RZRTh5ZTQd6
DvwZGEifpNHhEcxqa6nY/f4deXUBZlu1cuRvIluYhldtoQre1MU537APRfdv/oaI
fxhZh3Sx2imcDbxiGGJmKGpgRQ3Anq/oxCkv
-----END CERTIFICATE-----
