Certificate:
    Data:
        Version: 3 (0x2)
        Serial Number:
            2d:0d:ea:dc:bb:ee:b3:b3:39:2b:bd:0d:bf:26:2b:85
        Signature Algorithm: sha256WithRSAEncryption
        Issuer: CN=team763-net
        Validity
            Not Before: Sep 13 05:19:37 2021 GMT
            Not After : Aug 28 05:19:37 2024 GMT
        Subject: CN=team763-server
        Subject Public Key Info:
            Public Key Algorithm: rsaEncryption
                RSA Public-Key: (2048 bit)
                Modulus:
                    00:b9:83:f8:a1:bc:e5:bf:7c:66:d3:18:a8:2a:c7:
                    f9:07:cd:c5:f8:dc:a5:1c:f3:3d:27:50:73:5a:cf:
                    20:a0:b6:43:08:9d:60:ce:25:a9:f0:fe:dd:88:8d:
                    f0:46:2e:b0:70:c6:8f:33:8f:71:a6:0a:cc:ad:82:
                    56:1b:5c:0b:01:aa:ff:5a:d2:2c:22:4e:64:55:bd:
                    11:f0:d3:0a:c2:4d:e9:32:52:7f:86:8e:64:a1:40:
                    7c:bb:30:e4:a1:14:c1:e6:58:0c:aa:41:c0:15:1e:
                    ff:60:df:db:b7:f1:f5:e2:e2:7e:e5:06:62:7a:22:
                    11:8d:47:50:7c:98:5f:3c:60:49:b1:44:24:a9:22:
                    29:a0:cf:b3:f7:82:a4:2e:c6:95:b6:70:bb:59:b2:
                    87:e8:35:23:94:33:3f:2b:61:ba:c9:74:dc:62:e3:
                    7d:77:69:42:89:01:9a:97:20:8a:b0:b0:9c:91:f6:
                    2c:8e:15:93:da:53:19:1f:96:43:16:c1:03:86:d7:
                    3b:6e:ea:d3:61:aa:28:8b:98:ca:60:50:9a:80:77:
                    35:92:47:48:ff:ff:95:86:23:df:8e:c1:24:43:db:
                    b7:21:c3:38:d6:e5:0f:e3:b6:0d:78:dc:0f:8f:cc:
                    66:9e:48:53:6b:f7:b1:71:3b:63:01:a9:e7:f0:4c:
                    57:e5
                Exponent: 65537 (0x10001)
        X509v3 extensions:
            X509v3 Basic Constraints: 
                CA:FALSE
            X509v3 Subject Key Identifier: 
                34:45:24:FC:91:42:35:BD:F5:EE:14:C9:4A:7D:A2:77:40:B9:FB:2D
            X509v3 Authority Key Identifier: 
                keyid:75:6D:AF:F0:8C:27:94:AD:B0:62:40:1B:47:2D:7B:89:EF:24:7E:E7
                DirName:/CN=team763-net
                serial:15:61:59:05:AA:8C:6F:DC:BF:D8:1E:25:5A:E3:78:A0:85:F6:E5:6A

            X509v3 Extended Key Usage: 
                TLS Web Server Authentication
            X509v3 Key Usage: 
                Digital Signature, Key Encipherment
            X509v3 Subject Alternative Name: 
                DNS:team763-server
    Signature Algorithm: sha256WithRSAEncryption
         17:7e:ae:e3:bc:14:35:e4:6a:20:92:14:33:6c:dc:78:30:2f:
         50:e2:0a:7c:99:57:2b:34:a7:4b:a7:e3:1b:86:6a:2b:11:36:
         d4:52:a6:9c:34:80:c3:25:13:68:a8:0d:ae:cf:b8:d8:6c:93:
         e7:4d:6d:a8:83:8d:5a:39:ec:6b:d8:2d:c6:01:f6:87:a9:92:
         be:16:05:be:45:63:1e:a2:52:9d:98:57:71:b2:3f:be:d2:43:
         44:da:53:20:9f:eb:98:5c:25:90:f2:d4:a3:80:cc:88:55:ef:
         e2:e3:a1:4e:d2:22:a6:3a:0e:91:ea:7e:25:ed:21:8c:f4:7f:
         37:15:df:22:bf:79:38:d3:eb:ec:0d:57:af:c6:2b:63:2b:d1:
         65:71:b3:95:8c:06:94:0a:03:81:94:8d:45:7f:25:63:bb:cd:
         d8:53:78:72:ec:da:6e:d6:20:c4:1b:32:b3:36:18:51:22:d6:
         88:71:38:17:f0:26:01:8c:91:c5:66:f7:3a:62:21:69:75:a2:
         a0:a3:fc:08:cd:1d:2e:f5:77:18:43:ad:92:58:7d:37:a3:ba:
         5c:db:ea:09:0a:74:1c:8b:12:1b:e7:90:1f:39:fc:54:77:7f:
         ae:98:45:f0:86:5d:28:28:bd:ae:43:c1:04:9d:3f:57:7a:d3:
         5b:e2:a6:b2
-----BEGIN CERTIFICATE-----
MIIDdzCCAl+gAwIBAgIQLQ3q3Lvus7M5K70NvyYrhTANBgkqhkiG9w0BAQsFADAW
MRQwEgYDVQQDDAt0ZWFtNzYzLW5ldDAeFw0yMTA5MTMwNTE5MzdaFw0yNDA4Mjgw
NTE5MzdaMBkxFzAVBgNVBAMMDnRlYW03NjMtc2VydmVyMIIBIjANBgkqhkiG9w0B
AQEFAAOCAQ8AMIIBCgKCAQEAuYP4obzlv3xm0xioKsf5B83F+NylHPM9J1BzWs8g
oLZDCJ1gziWp8P7diI3wRi6wcMaPM49xpgrMrYJWG1wLAar/WtIsIk5kVb0R8NMK
wk3pMlJ/ho5koUB8uzDkoRTB5lgMqkHAFR7/YN/bt/H14uJ+5QZieiIRjUdQfJhf
PGBJsUQkqSIpoM+z94KkLsaVtnC7WbKH6DUjlDM/K2G6yXTcYuN9d2lCiQGalyCK
sLCckfYsjhWT2lMZH5ZDFsEDhtc7burTYaooi5jKYFCagHc1kkdI//+VhiPfjsEk
Q9u3IcM41uUP47YNeNwPj8xmnkhTa/excTtjAann8ExX5QIDAQABo4G9MIG6MAkG
A1UdEwQCMAAwHQYDVR0OBBYEFDRFJPyRQjW99e4UyUp9ondAufstMFEGA1UdIwRK
MEiAFHVtr/CMJ5StsGJAG0cte4nvJH7noRqkGDAWMRQwEgYDVQQDDAt0ZWFtNzYz
LW5ldIIUFWFZBaqMb9y/2B4lWuN4oIX25WowEwYDVR0lBAwwCgYIKwYBBQUHAwEw
CwYDVR0PBAQDAgWgMBkGA1UdEQQSMBCCDnRlYW03NjMtc2VydmVyMA0GCSqGSIb3
DQEBCwUAA4IBAQAXfq7jvBQ15GogkhQzbNx4MC9Q4gp8mVcrNKdLp+MbhmorETbU
UqacNIDDJRNoqA2uz7jYbJPnTW2og41aOexr2C3GAfaHqZK+FgW+RWMeolKdmFdx
sj++0kNE2lMgn+uYXCWQ8tSjgMyIVe/i46FO0iKmOg6R6n4l7SGM9H83Fd8iv3k4
0+vsDVevxitjK9FlcbOVjAaUCgOBlI1FfyVju83YU3hy7Npu1iDEGzKzNhhRItaI
cTgX8CYBjJHFZvc6YiFpdaKgo/wIzR0u9XcYQ62SWH03o7pc2+oJCnQcixIb55Af
OfxUd3+umEXwhl0oKL2uQ8EEnT9XetNb4qay
-----END CERTIFICATE-----
