Certificate:
    Data:
        Version: 3 (0x2)
        Serial Number:
            21:f3:6c:23:e1:60:94:3d:43:9e:10:2d:96:6d:90:f0
        Signature Algorithm: sha256WithRSAEncryption
        Issuer: CN=team137-net
        Validity
            Not Before: Sep 12 23:57:29 2021 GMT
            Not After : Aug 27 23:57:29 2024 GMT
        Subject: CN=team137-client
        Subject Public Key Info:
            Public Key Algorithm: rsaEncryption
                RSA Public-Key: (2048 bit)
                Modulus:
                    00:d1:46:28:fd:a9:2c:2b:47:9c:4f:cc:7a:ec:63:
                    43:f7:d8:55:ce:23:80:8c:95:4c:d0:97:02:4f:71:
                    18:45:4b:3b:a6:51:c8:0c:99:e2:c0:83:82:f2:53:
                    6a:e6:39:45:aa:07:27:e2:88:cc:80:8d:08:9c:ca:
                    dd:85:02:9a:17:26:b0:33:44:1a:1b:00:db:24:5c:
                    39:ba:12:aa:9a:9d:bc:41:92:a7:d1:a3:06:5b:d2:
                    7f:f6:b6:6f:bb:44:db:c9:14:ab:e4:4d:31:4d:e0:
                    b7:52:1d:e5:e2:6e:ab:e6:03:92:95:47:9c:46:16:
                    b7:06:c1:9f:22:68:6e:ab:7c:49:01:7d:4e:01:dd:
                    97:c5:ab:2b:3b:1e:dd:31:e2:ce:20:55:82:07:f0:
                    ad:b9:9c:71:84:14:83:24:b7:28:06:fa:a9:9d:c6:
                    5a:b4:9e:38:be:c9:f4:25:c1:65:73:41:8d:e1:a6:
                    3a:39:e7:c5:26:4a:2a:e1:73:54:e4:54:5a:7e:02:
                    38:e6:a4:50:8f:4b:67:0c:d2:b7:46:ec:66:cd:87:
                    59:1f:75:32:94:ba:6b:02:93:8c:d5:fe:40:f1:3e:
                    e6:5a:83:01:04:98:52:3d:70:b0:9f:3c:36:9c:8b:
                    13:70:d8:33:f4:8e:b6:70:bc:44:b3:a3:f1:c9:b9:
                    bc:dd
                Exponent: 65537 (0x10001)
        X509v3 extensions:
            X509v3 Basic Constraints: 
                CA:FALSE
            X509v3 Subject Key Identifier: 
                60:CC:3D:27:C2:A8:D4:3E:4C:53:37:42:1B:38:0C:9D:27:3D:7E:AE
            X509v3 Authority Key Identifier: 
                keyid:5D:AB:57:76:65:D4:08:72:B9:80:07:8B:C3:99:81:9C:81:0C:C4:9D
                DirName:/CN=team137-net
                serial:54:99:5C:ED:0F:81:6A:01:A3:C3:A7:F6:B1:84:51:AC:68:80:A6:F7

            X509v3 Extended Key Usage: 
                TLS Web Client Authentication
            X509v3 Key Usage: 
                Digital Signature
    Signature Algorithm: sha256WithRSAEncryption
         8c:84:e2:ee:c1:b0:7c:24:b8:bc:ae:17:ad:a1:4f:ea:a3:ed:
         75:40:4d:5c:1f:db:40:d9:03:5f:5f:ac:1f:44:68:b0:12:f5:
         89:60:a0:f4:34:ac:d5:39:48:69:b6:70:99:f4:6d:24:01:41:
         40:fd:1f:e3:75:19:ce:bb:d5:ff:f4:c3:93:c9:de:7d:d8:dc:
         99:a2:90:a1:dc:ec:f3:f8:e8:ab:72:07:10:1f:b5:06:6e:00:
         6a:0c:64:9f:74:62:7b:d4:de:b1:66:27:01:75:2b:fa:38:bc:
         29:08:38:33:e3:fe:ac:b6:dd:0e:79:8d:1f:80:1b:00:4e:bb:
         4c:71:0f:4b:92:c2:5d:0c:d2:8f:8d:18:c2:f0:23:11:9d:18:
         ad:6a:90:9f:01:28:1f:4c:db:af:4c:9f:73:b9:21:88:a7:c0:
         6d:3b:1d:0d:9b:0d:20:a0:4a:fd:05:42:73:9f:dd:87:28:c7:
         f5:2a:75:a2:fc:a5:ae:c8:dd:4e:30:a7:3e:ed:45:21:74:5f:
         d9:53:b5:d8:19:40:5b:ee:57:a7:a5:0a:30:da:8e:e1:d0:16:
         76:ff:81:92:91:bd:bf:91:6b:f3:27:46:dc:9c:b2:da:f0:84:
         1e:c0:c9:c6:dc:58:1d:67:44:f0:cf:ae:c4:f9:78:13:1f:e4:
         f6:4a:ed:c9
-----BEGIN CERTIFICATE-----
MIIDXDCCAkSgAwIBAgIQIfNsI+FglD1DnhAtlm2Q8DANBgkqhkiG9w0BAQsFADAW
MRQwEgYDVQQDDAt0ZWFtMTM3LW5ldDAeFw0yMTA5MTIyMzU3MjlaFw0yNDA4Mjcy
MzU3MjlaMBkxFzAVBgNVBAMMDnRlYW0xMzctY2xpZW50MIIBIjANBgkqhkiG9w0B
AQEFAAOCAQ8AMIIBCgKCAQEA0UYo/aksK0ecT8x67GND99hVziOAjJVM0JcCT3EY
RUs7plHIDJniwIOC8lNq5jlFqgcn4ojMgI0InMrdhQKaFyawM0QaGwDbJFw5uhKq
mp28QZKn0aMGW9J/9rZvu0TbyRSr5E0xTeC3Uh3l4m6r5gOSlUecRha3BsGfImhu
q3xJAX1OAd2XxasrOx7dMeLOIFWCB/CtuZxxhBSDJLcoBvqpncZatJ44vsn0JcFl
c0GN4aY6OefFJkoq4XNU5FRafgI45qRQj0tnDNK3RuxmzYdZH3UylLprApOM1f5A
8T7mWoMBBJhSPXCwnzw2nIsTcNgz9I62cLxEs6Pxybm83QIDAQABo4GiMIGfMAkG
A1UdEwQCMAAwHQYDVR0OBBYEFGDMPSfCqNQ+TFM3Qhs4DJ0nPX6uMFEGA1UdIwRK
MEiAFF2rV3Zl1AhyuYAHi8OZgZyBDMSdoRqkGDAWMRQwEgYDVQQDDAt0ZWFtMTM3
LW5ldIIUVJlc7Q+BagGjw6f2sYRRrGiApvcwEwYDVR0lBAwwCgYIKwYBBQUHAwIw
CwYDVR0PBAQDAgeAMA0GCSqGSIb3DQEBCwUAA4IBAQCMhOLuwbB8JLi8rhetoU/q
o+11QE1cH9tA2QNfX6wfRGiwEvWJYKD0NKzVOUhptnCZ9G0kAUFA/R/jdRnOu9X/
9MOTyd592NyZopCh3Ozz+OircgcQH7UGbgBqDGSfdGJ71N6xZicBdSv6OLwpCDgz
4/6stt0OeY0fgBsATrtMcQ9LksJdDNKPjRjC8CMRnRitapCfASgfTNuvTJ9zuSGI
p8BtOx0Nmw0goEr9BUJzn92HKMf1KnWi/KWuyN1OMKc+7UUhdF/ZU7XYGUBb7len
pQow2o7h0BZ2/4GSkb2/kWvzJ0bcnLLa8IQewMnG3FgdZ0Twz67E+XgTH+T2Su3J
-----END CERTIFICATE-----
