Certificate:
    Data:
        Version: 3 (0x2)
        Serial Number:
            b4:67:65:70:11:7d:ae:ae:06:d2:82:35:ca:26:5a:93
        Signature Algorithm: sha256WithRSAEncryption
        Issuer: CN=team137-net
        Validity
            Not Before: Sep 12 23:57:29 2021 GMT
            Not After : Aug 27 23:57:29 2024 GMT
        Subject: CN=team137-server
        Subject Public Key Info:
            Public Key Algorithm: rsaEncryption
                RSA Public-Key: (2048 bit)
                Modulus:
                    00:b2:c3:86:13:9e:4b:96:53:5b:96:2d:12:f1:e2:
                    8d:7f:8a:5d:ab:24:28:dc:03:37:07:ba:a4:42:14:
                    43:2b:c0:a1:54:5d:ae:f8:49:85:d3:43:b4:68:50:
                    c0:5b:82:40:38:2e:50:61:de:88:69:48:a7:5f:d7:
                    a5:72:4a:55:b3:98:19:f9:44:93:be:c1:3b:eb:40:
                    52:4c:56:ab:53:ba:b2:8d:cf:f2:f7:ce:c9:1b:2f:
                    5e:db:b5:9b:2f:b6:bd:b4:b5:dd:fc:60:d9:a5:0a:
                    f9:85:de:d3:cf:9b:55:6e:d8:44:34:4c:b5:ab:ea:
                    fd:f8:5d:5b:6f:f6:24:37:65:ee:7d:42:43:ec:74:
                    58:c6:f2:2e:b3:f7:17:de:7e:36:ae:1e:e9:8e:06:
                    0c:55:57:a3:99:01:50:e0:46:44:02:72:40:81:d3:
                    ba:9b:c4:e4:06:35:ba:60:68:18:26:14:ff:73:9f:
                    20:fe:80:3d:42:a6:3b:69:0f:3a:8e:11:b9:1e:cd:
                    70:d2:a9:a7:ed:a4:98:76:bc:b2:b4:e5:f8:4d:5b:
                    ee:7f:fe:35:8e:37:ec:41:1e:f0:d9:8a:23:2b:ac:
                    4b:5c:ed:e3:ae:a3:1b:4e:4b:44:0e:7e:bc:15:5b:
                    17:8f:84:6b:64:28:fa:70:3b:bb:2e:46:7e:dc:f9:
                    63:fd
                Exponent: 65537 (0x10001)
        X509v3 extensions:
            X509v3 Basic Constraints: 
                CA:FALSE
            X509v3 Subject Key Identifier: 
                76:C0:3D:9B:84:EB:E9:69:17:CF:58:5F:4C:05:75:CE:C5:94:A0:BE
            X509v3 Authority Key Identifier: 
                keyid:5D:AB:57:76:65:D4:08:72:B9:80:07:8B:C3:99:81:9C:81:0C:C4:9D
                DirName:/CN=team137-net
                serial:54:99:5C:ED:0F:81:6A:01:A3:C3:A7:F6:B1:84:51:AC:68:80:A6:F7

            X509v3 Extended Key Usage: 
                TLS Web Server Authentication
            X509v3 Key Usage: 
                Digital Signature, Key Encipherment
            X509v3 Subject Alternative Name: 
                DNS:team137-server
    Signature Algorithm: sha256WithRSAEncryption
         0e:02:85:4e:96:3b:c0:7f:de:5c:aa:df:5e:37:10:dc:d9:7e:
         63:fd:95:a1:8a:f4:c7:d5:ad:fc:a5:46:0e:3e:64:46:81:42:
         42:c9:09:96:48:1a:d0:8c:26:49:76:98:23:b4:c3:f6:b6:8e:
         a1:56:fb:5f:b7:94:8e:47:f4:05:26:71:92:36:ad:22:05:ce:
         4c:9f:1e:65:2a:80:99:58:f3:b7:de:21:cf:fe:7c:7e:8f:5f:
         88:64:69:cc:de:b1:1f:85:87:d8:fa:71:db:5f:1d:d1:ae:43:
         ce:f0:d9:ac:9b:4f:86:ce:12:e6:4a:c4:33:d7:bf:06:f0:af:
         93:36:98:3a:27:b5:2d:fb:a6:37:0f:df:4d:d4:0e:c5:bc:5c:
         c1:65:74:df:ba:25:27:d8:6c:73:da:89:b7:80:5a:f4:4e:cf:
         10:b6:34:3b:2f:70:84:22:4e:23:03:67:d1:5a:e8:87:60:4d:
         bc:90:93:84:8a:5e:56:3a:7e:8f:1f:9c:c0:85:01:0e:19:8a:
         65:08:2f:f3:98:04:b4:17:12:64:b4:9c:fd:0a:ab:12:d6:2d:
         73:0c:4b:46:d1:8f:e8:cc:8f:4e:ec:24:5f:04:34:b3:3e:7c:
         16:33:a1:85:90:12:de:a3:38:da:4a:1f:16:83:5b:4d:d1:2a:
         a3:af:d6:f5
-----BEGIN CERTIFICATE-----
MIIDeDCCAmCgAwIBAgIRALRnZXARfa6uBtKCNcomWpMwDQYJKoZIhvcNAQELBQAw
FjEUMBIGA1UEAwwLdGVhbTEzNy1uZXQwHhcNMjEwOTEyMjM1NzI5WhcNMjQwODI3
MjM1NzI5WjAZMRcwFQYDVQQDDA50ZWFtMTM3LXNlcnZlcjCCASIwDQYJKoZIhvcN
AQEBBQADggEPADCCAQoCggEBALLDhhOeS5ZTW5YtEvHijX+KXaskKNwDNwe6pEIU
QyvAoVRdrvhJhdNDtGhQwFuCQDguUGHeiGlIp1/XpXJKVbOYGflEk77BO+tAUkxW
q1O6so3P8vfOyRsvXtu1my+2vbS13fxg2aUK+YXe08+bVW7YRDRMtavq/fhdW2/2
JDdl7n1CQ+x0WMbyLrP3F95+Nq4e6Y4GDFVXo5kBUOBGRAJyQIHTupvE5AY1umBo
GCYU/3OfIP6APUKmO2kPOo4RuR7NcNKpp+2kmHa8srTl+E1b7n/+NY437EEe8NmK
IyusS1zt466jG05LRA5+vBVbF4+Ea2Qo+nA7uy5Gftz5Y/0CAwEAAaOBvTCBujAJ
BgNVHRMEAjAAMB0GA1UdDgQWBBR2wD2bhOvpaRfPWF9MBXXOxZSgvjBRBgNVHSME
SjBIgBRdq1d2ZdQIcrmAB4vDmYGcgQzEnaEapBgwFjEUMBIGA1UEAwwLdGVhbTEz
Ny1uZXSCFFSZXO0PgWoBo8On9rGEUaxogKb3MBMGA1UdJQQMMAoGCCsGAQUFBwMB
MAsGA1UdDwQEAwIFoDAZBgNVHREEEjAQgg50ZWFtMTM3LXNlcnZlcjANBgkqhkiG
9w0BAQsFAAOCAQEADgKFTpY7wH/eXKrfXjcQ3Nl+Y/2VoYr0x9Wt/KVGDj5kRoFC
QskJlkga0IwmSXaYI7TD9raOoVb7X7eUjkf0BSZxkjatIgXOTJ8eZSqAmVjzt94h
z/58fo9fiGRpzN6xH4WH2Ppx218d0a5DzvDZrJtPhs4S5krEM9e/BvCvkzaYOie1
LfumNw/fTdQOxbxcwWV037olJ9hsc9qJt4Ba9E7PELY0Oy9whCJOIwNn0Vroh2BN
vJCThIpeVjp+jx+cwIUBDhmKZQgv85gEtBcSZLSc/QqrEtYtcwxLRtGP6MyPTuwk
XwQ0sz58FjOhhZAS3qM42kofFoNbTdEqo6/W9Q==
-----END CERTIFICATE-----
