Certificate:
    Data:
        Version: 3 (0x2)
        Serial Number:
            71:2b:1a:7a:a1:e0:51:b3:09:cd:b1:7b:5c:cf:3b
        Signature Algorithm: sha256WithRSAEncryption
        Issuer: CN=team270-net
        Validity
            Not Before: Sep 13 01:14:59 2021 GMT
            Not After : Aug 28 01:14:59 2024 GMT
        Subject: CN=team270-server
        Subject Public Key Info:
            Public Key Algorithm: rsaEncryption
                RSA Public-Key: (2048 bit)
                Modulus:
                    00:c1:84:1e:ff:e7:f7:69:a5:62:3e:b3:a0:ee:f3:
                    cb:f7:98:7a:59:f8:17:20:35:70:53:aa:83:42:67:
                    10:25:f7:6c:36:bd:50:2b:06:e6:31:55:f6:34:f3:
                    bb:6b:0f:fa:c2:38:1a:07:3d:66:fc:31:67:a9:98:
                    a5:cd:57:41:ff:3c:ba:16:e1:0a:eb:ac:fb:c9:ec:
                    8e:90:a6:6c:0d:85:26:5d:80:ca:53:45:0f:81:0f:
                    e6:8b:48:b5:31:cb:c5:96:f1:7b:5f:c1:69:b8:1f:
                    6c:05:9c:aa:04:a5:08:a1:99:51:df:15:d7:34:7a:
                    c1:a6:72:48:31:9f:46:62:4a:fe:3e:62:6a:79:ca:
                    1e:07:44:c3:ef:4a:f8:cc:f7:32:f8:e0:23:84:5a:
                    c7:fd:ba:9f:a6:00:44:ef:ba:d3:5c:e7:fb:e3:58:
                    6f:59:4c:82:60:f9:60:f1:d1:5b:43:75:d5:e9:02:
                    3d:1c:d2:a3:93:e3:63:41:c0:cc:0c:b3:7c:13:cb:
                    5a:fc:14:4a:dd:d9:4e:4b:0e:6c:2f:55:65:4a:5d:
                    a8:89:54:45:b1:ab:e6:a4:e4:64:37:90:8a:9d:73:
                    78:4a:27:d0:89:2e:b9:ef:6a:bd:16:36:33:76:bf:
                    55:ed:a3:7d:f9:fb:ed:6a:7e:d6:6d:46:25:d8:d0:
                    cf:fd
                Exponent: 65537 (0x10001)
        X509v3 extensions:
            X509v3 Basic Constraints: 
                CA:FALSE
            X509v3 Subject Key Identifier: 
                45:FA:B2:AD:EE:1D:03:6B:FA:1F:09:66:B9:BC:BF:9C:9E:C6:E5:05
            X509v3 Authority Key Identifier: 
                keyid:49:5A:8D:E6:FA:34:00:F2:CE:82:26:C7:23:12:2C:0B:D7:26:BC:CA
                DirName:/CN=team270-net
                serial:7B:A5:D0:98:BA:C4:CE:E9:6B:BA:53:97:1D:9C:06:99:9E:F6:5E:4C

            X509v3 Extended Key Usage: 
                TLS Web Server Authentication
            X509v3 Key Usage: 
                Digital Signature, Key Encipherment
            X509v3 Subject Alternative Name: 
                DNS:team270-server
    Signature Algorithm: sha256WithRSAEncryption
         94:37:2f:dd:42:f3:65:73:cb:6e:1f:54:5c:47:e6:4b:55:7f:
         ea:07:13:95:2e:36:24:3f:ac:b1:95:8b:6b:f4:33:17:8f:8b:
         c8:2b:d9:35:bc:32:ad:f8:16:13:78:90:bc:62:6b:fa:0f:06:
         24:ff:38:f6:c7:b8:f0:38:3d:a4:0a:ca:76:18:e4:5e:7c:ed:
         ac:13:f7:eb:e5:36:88:f3:09:76:ac:e7:f2:cc:f4:b3:69:23:
         8b:71:8b:e8:10:e9:23:ff:98:20:bf:1d:02:cf:7a:c2:8d:ff:
         5e:57:82:7d:44:36:5e:1c:1c:ee:2c:42:08:ee:20:6e:c8:2a:
         38:b0:2b:fa:b2:98:f8:b9:f8:79:25:34:7c:9b:26:fd:18:ba:
         7d:40:e5:8c:40:dd:4c:28:04:5b:dc:8e:31:94:7e:a5:c9:dc:
         41:3b:9a:2b:de:19:73:7f:c3:e7:f5:76:d8:4c:44:b8:0b:6e:
         b9:4c:80:2d:ce:7c:0a:c6:ee:18:b3:47:a4:66:63:81:db:59:
         cc:6b:28:06:2e:00:0a:71:b6:35:0e:b0:d7:4c:e7:bc:8d:f8:
         25:af:d2:be:0b:1c:1a:40:a0:47:d1:c9:d2:f9:c1:55:04:79:
         83:5a:53:40:f2:95:b4:e6:a0:f3:a7:22:b4:a3:c4:f1:4f:03:
         5c:bc:a5:97
-----BEGIN CERTIFICATE-----
MIIDdjCCAl6gAwIBAgIPcSsaeqHgUbMJzbF7XM87MA0GCSqGSIb3DQEBCwUAMBYx
FDASBgNVBAMMC3RlYW0yNzAtbmV0MB4XDTIxMDkxMzAxMTQ1OVoXDTI0MDgyODAx
MTQ1OVowGTEXMBUGA1UEAwwOdGVhbTI3MC1zZXJ2ZXIwggEiMA0GCSqGSIb3DQEB
AQUAA4IBDwAwggEKAoIBAQDBhB7/5/dppWI+s6Du88v3mHpZ+BcgNXBTqoNCZxAl
92w2vVArBuYxVfY087trD/rCOBoHPWb8MWepmKXNV0H/PLoW4QrrrPvJ7I6QpmwN
hSZdgMpTRQ+BD+aLSLUxy8WW8XtfwWm4H2wFnKoEpQihmVHfFdc0esGmckgxn0Zi
Sv4+Ymp5yh4HRMPvSvjM9zL44COEWsf9up+mAETvutNc5/vjWG9ZTIJg+WDx0VtD
ddXpAj0c0qOT42NBwMwMs3wTy1r8FErd2U5LDmwvVWVKXaiJVEWxq+ak5GQ3kIqd
c3hKJ9CJLrnvar0WNjN2v1Xto335++1qftZtRiXY0M/9AgMBAAGjgb0wgbowCQYD
VR0TBAIwADAdBgNVHQ4EFgQURfqyre4dA2v6Hwlmuby/nJ7G5QUwUQYDVR0jBEow
SIAUSVqN5vo0APLOgibHIxIsC9cmvMqhGqQYMBYxFDASBgNVBAMMC3RlYW0yNzAt
bmV0ghR7pdCYusTO6Wu6U5cdnAaZnvZeTDATBgNVHSUEDDAKBggrBgEFBQcDATAL
BgNVHQ8EBAMCBaAwGQYDVR0RBBIwEIIOdGVhbTI3MC1zZXJ2ZXIwDQYJKoZIhvcN
AQELBQADggEBAJQ3L91C82Vzy24fVFxH5ktVf+oHE5UuNiQ/rLGVi2v0MxePi8gr
2TW8Mq34FhN4kLxia/oPBiT/OPbHuPA4PaQKynYY5F587awT9+vlNojzCXas5/LM
9LNpI4txi+gQ6SP/mCC/HQLPesKN/15Xgn1ENl4cHO4sQgjuIG7IKjiwK/qymPi5
+HklNHybJv0Yun1A5YxA3UwoBFvcjjGUfqXJ3EE7miveGXN/w+f1dthMRLgLbrlM
gC3OfArG7hizR6RmY4HbWcxrKAYuAApxtjUOsNdM57yN+CWv0r4LHBpAoEfRydL5
wVUEeYNaU0DylbTmoPOnIrSjxPFPA1y8pZc=
-----END CERTIFICATE-----
