Certificate:
    Data:
        Version: 3 (0x2)
        Serial Number:
            f8:48:dd:0e:41:81:13:60:62:6a:08:c9:8f:c8:9c:84
        Signature Algorithm: sha256WithRSAEncryption
        Issuer: CN=team714-net
        Validity
            Not Before: Sep 13 04:55:06 2021 GMT
            Not After : Aug 28 04:55:06 2024 GMT
        Subject: CN=team714-server
        Subject Public Key Info:
            Public Key Algorithm: rsaEncryption
                RSA Public-Key: (2048 bit)
                Modulus:
                    00:ea:88:68:91:99:14:3f:f4:13:68:0e:40:c1:15:
                    4f:30:38:5e:3d:f0:63:65:02:4b:98:f8:e7:e4:b7:
                    d0:df:09:a6:0f:6a:f0:81:be:ca:e1:e8:1a:34:14:
                    f0:f9:b7:0a:99:d0:cd:07:87:3b:35:53:ed:1c:70:
                    7f:bb:4b:66:c8:06:cb:4d:d2:17:03:84:28:95:05:
                    8c:6e:d1:72:27:5a:02:b7:b9:4f:71:1d:83:33:c1:
                    8a:e7:ac:bd:d4:03:f3:34:65:5d:6b:9f:56:b0:e0:
                    42:91:a2:98:40:00:e1:21:d5:df:69:b3:94:2e:84:
                    24:9b:32:cf:40:23:88:d5:d3:c6:b6:fc:f4:a4:4f:
                    35:df:ea:ee:8c:be:e6:09:cc:c0:a7:61:df:e9:28:
                    1d:d1:03:a1:86:ee:83:78:b4:b8:0c:88:7b:33:f4:
                    f2:ef:07:da:be:95:f5:97:1b:b6:aa:53:80:56:6b:
                    94:8d:15:79:fe:ce:8c:7c:43:23:18:7d:3d:bf:e8:
                    49:a4:ab:79:7f:70:1a:eb:76:69:17:69:30:ae:aa:
                    b3:0d:23:fc:72:4b:27:9a:0d:dd:8c:23:e1:c6:ae:
                    92:bf:c8:4f:c8:02:2c:b5:94:0b:e7:0a:8d:0f:78:
                    bb:1d:8d:3f:86:08:2d:7b:ad:09:29:c8:76:43:26:
                    7d:7f
                Exponent: 65537 (0x10001)
        X509v3 extensions:
            X509v3 Basic Constraints: 
                CA:FALSE
            X509v3 Subject Key Identifier: 
                67:FC:B6:1C:64:81:C0:A2:D9:E7:DF:95:15:6B:1E:F9:A0:E5:41:A8
            X509v3 Authority Key Identifier: 
                keyid:D9:BB:B7:C5:63:0A:34:50:7C:1C:3A:66:7E:A2:70:0F:92:31:47:00
                DirName:/CN=team714-net
                serial:6C:31:8E:5F:6E:F1:1F:76:E1:BB:54:9F:B4:19:3A:E7:BE:3D:4C:19

            X509v3 Extended Key Usage: 
                TLS Web Server Authentication
            X509v3 Key Usage: 
                Digital Signature, Key Encipherment
            X509v3 Subject Alternative Name: 
                DNS:team714-server
    Signature Algorithm: sha256WithRSAEncryption
         9a:be:bb:d7:2d:8e:23:3d:1b:60:10:4b:b9:2f:77:1e:3b:a3:
         1b:2a:52:18:81:c7:73:1a:06:9e:a6:a2:eb:66:fd:73:7e:02:
         47:10:f3:09:90:2e:6e:ca:de:04:5b:16:d5:ee:d1:b4:bd:bd:
         66:b9:1d:b2:67:01:16:9b:7d:d6:84:a2:dc:60:df:08:52:e7:
         41:a5:29:de:3d:ca:88:aa:ee:10:ca:a3:2e:fc:77:e9:ce:56:
         26:48:8c:57:81:ab:80:1c:ce:be:bb:7f:aa:40:28:fa:30:05:
         b9:ce:91:ea:f3:50:04:1a:84:76:ec:4b:17:e7:ff:b1:6a:99:
         e4:09:be:83:ef:ec:1b:ca:6e:ee:0e:cb:5e:eb:bf:b4:7e:2f:
         b5:83:e6:a6:7c:7c:bb:6c:2a:1a:95:19:70:92:93:5e:6f:79:
         07:72:5c:a5:25:bf:b5:8d:c4:96:66:bb:bc:28:82:89:c2:7d:
         79:9e:2f:08:fd:c9:ba:7a:ff:57:97:a9:91:1e:ea:a5:e6:80:
         17:9b:92:3a:03:30:20:a2:b3:b7:9a:11:00:85:6d:a8:c0:41:
         f6:36:1e:32:a8:78:f4:2f:9d:d3:93:3b:ea:b7:fe:ac:67:af:
         a1:6b:e9:96:c3:1d:a3:2e:8b:e7:da:0f:f4:f8:74:29:04:a5:
         1f:81:49:cf
-----BEGIN CERTIFICATE-----
MIIDeDCCAmCgAwIBAgIRAPhI3Q5BgRNgYmoIyY/InIQwDQYJKoZIhvcNAQELBQAw
FjEUMBIGA1UEAwwLdGVhbTcxNC1uZXQwHhcNMjEwOTEzMDQ1NTA2WhcNMjQwODI4
MDQ1NTA2WjAZMRcwFQYDVQQDDA50ZWFtNzE0LXNlcnZlcjCCASIwDQYJKoZIhvcN
AQEBBQADggEPADCCAQoCggEBAOqIaJGZFD/0E2gOQMEVTzA4Xj3wY2UCS5j45+S3
0N8Jpg9q8IG+yuHoGjQU8Pm3CpnQzQeHOzVT7Rxwf7tLZsgGy03SFwOEKJUFjG7R
cidaAre5T3EdgzPBiuesvdQD8zRlXWufVrDgQpGimEAA4SHV32mzlC6EJJsyz0Aj
iNXTxrb89KRPNd/q7oy+5gnMwKdh3+koHdEDoYbug3i0uAyIezP08u8H2r6V9Zcb
tqpTgFZrlI0Vef7OjHxDIxh9Pb/oSaSreX9wGut2aRdpMK6qsw0j/HJLJ5oN3Ywj
4caukr/IT8gCLLWUC+cKjQ94ux2NP4YILXutCSnIdkMmfX8CAwEAAaOBvTCBujAJ
BgNVHRMEAjAAMB0GA1UdDgQWBBRn/LYcZIHAotnn35UVax75oOVBqDBRBgNVHSME
SjBIgBTZu7fFYwo0UHwcOmZ+onAPkjFHAKEapBgwFjEUMBIGA1UEAwwLdGVhbTcx
NC1uZXSCFGwxjl9u8R924btUn7QZOue+PUwZMBMGA1UdJQQMMAoGCCsGAQUFBwMB
MAsGA1UdDwQEAwIFoDAZBgNVHREEEjAQgg50ZWFtNzE0LXNlcnZlcjANBgkqhkiG
9w0BAQsFAAOCAQEAmr671y2OIz0bYBBLuS93HjujGypSGIHHcxoGnqai62b9c34C
RxDzCZAubsreBFsW1e7RtL29ZrkdsmcBFpt91oSi3GDfCFLnQaUp3j3KiKruEMqj
Lvx36c5WJkiMV4GrgBzOvrt/qkAo+jAFuc6R6vNQBBqEduxLF+f/sWqZ5Am+g+/s
G8pu7g7LXuu/tH4vtYPmpnx8u2wqGpUZcJKTXm95B3JcpSW/tY3Elma7vCiCicJ9
eZ4vCP3Junr/V5epkR7qpeaAF5uSOgMwIKKzt5oRAIVtqMBB9jYeMqh49C+d05M7
6rf+rGevoWvplsMdoy6L59oP9Ph0KQSlH4FJzw==
-----END CERTIFICATE-----
