Certificate:
    Data:
        Version: 3 (0x2)
        Serial Number:
            72:68:56:66:6c:98:4f:be:5b:c7:ed:d8:4e:e4:85:fc
        Signature Algorithm: sha256WithRSAEncryption
        Issuer: CN=team145-net
        Validity
            Not Before: Sep 13 00:02:44 2021 GMT
            Not After : Aug 28 00:02:44 2024 GMT
        Subject: CN=team145-server
        Subject Public Key Info:
            Public Key Algorithm: rsaEncryption
                RSA Public-Key: (2048 bit)
                Modulus:
                    00:c7:39:90:c8:0f:18:ad:cf:a5:b0:fd:b7:c3:d5:
                    87:41:05:6a:d3:14:d3:93:4b:af:a6:a7:b0:34:b0:
                    c9:cd:19:21:8f:45:a7:ea:b7:5a:f8:a8:c3:f0:40:
                    dc:4a:c4:bb:f5:0d:f8:d8:3d:8f:f4:7c:8d:9c:1b:
                    eb:30:3c:1e:2a:e5:00:98:37:43:e8:e0:3b:b0:97:
                    85:f3:88:1b:e8:06:48:41:26:8d:66:15:01:12:60:
                    91:88:f1:d7:04:6b:99:b0:62:72:aa:bd:f2:f5:d1:
                    9a:2e:5c:73:c4:65:1e:5c:31:fa:6c:8b:49:36:c2:
                    27:24:a2:94:0e:c6:67:62:3d:b3:b8:38:b2:60:6e:
                    63:cf:e3:36:e8:91:04:18:4c:19:38:52:7f:d0:b6:
                    f9:ab:9e:2c:88:72:7d:d8:7f:5b:71:c1:67:d8:e6:
                    7a:94:24:df:31:41:47:35:65:8c:51:b3:92:a8:fd:
                    49:8f:11:dc:ae:5d:b4:22:22:cf:a2:e7:b2:9a:07:
                    9a:84:32:09:cd:8c:42:be:e0:18:d1:5a:ab:4a:82:
                    49:48:c6:ac:7b:17:7e:95:7a:51:e8:2b:d8:89:02:
                    f3:21:1a:92:3e:e4:c8:f7:12:4e:c1:24:53:95:14:
                    33:39:06:07:38:6b:e0:e1:5e:cb:92:da:25:d7:24:
                    e6:cb
                Exponent: 65537 (0x10001)
        X509v3 extensions:
            X509v3 Basic Constraints: 
                CA:FALSE
            X509v3 Subject Key Identifier: 
                76:68:6C:2E:2A:61:9D:31:1E:BC:AD:3C:24:E4:67:0A:77:13:0E:E4
            X509v3 Authority Key Identifier: 
                keyid:CE:B6:9E:41:70:87:1E:7D:40:F3:87:0E:3F:5E:81:C7:53:99:A9:DB
                DirName:/CN=team145-net
                serial:6C:B2:62:F4:DA:71:3A:5C:8A:BB:FD:88:10:DE:C2:E3:EC:D4:7D:0E

            X509v3 Extended Key Usage: 
                TLS Web Server Authentication
            X509v3 Key Usage: 
                Digital Signature, Key Encipherment
            X509v3 Subject Alternative Name: 
                DNS:team145-server
    Signature Algorithm: sha256WithRSAEncryption
         37:ff:c6:e2:0d:e8:ad:89:84:3b:22:c2:51:9b:20:ad:b5:8a:
         a8:82:a3:95:20:3c:61:47:c7:9b:90:81:1b:88:05:3d:e3:9d:
         df:8b:41:c2:a9:13:72:2f:a4:01:79:e3:f9:47:a8:05:43:78:
         3b:67:09:32:18:53:45:0b:45:11:8c:1e:e8:93:81:47:0d:62:
         83:dc:59:bd:bb:f4:ea:bd:97:f9:21:80:8e:77:79:dd:00:6b:
         37:a9:fe:d8:96:8b:07:a8:94:d9:6c:45:11:7f:31:21:97:b1:
         d6:31:fc:40:68:fb:16:9f:94:21:85:10:b7:83:23:aa:be:b0:
         76:bf:65:ce:89:fb:ba:cb:2a:00:39:53:ee:67:55:6c:51:f2:
         5b:87:17:7f:45:42:0d:7a:11:31:46:1e:f8:43:8f:b0:55:dd:
         d3:bf:d6:f9:f8:6d:51:5e:3d:79:30:c1:6b:71:91:c5:e8:d0:
         da:29:7e:e5:14:de:2a:c6:9c:1e:69:5b:e2:88:a6:17:16:4d:
         d2:1a:73:0e:24:2b:23:ac:6d:c2:54:6a:7b:c0:26:2d:3b:c9:
         78:1e:9d:31:1e:54:59:17:4e:af:cc:9f:ab:1b:83:df:a9:5d:
         ca:a1:2d:24:07:8b:77:93:d7:47:a8:a4:31:46:b2:54:94:d5:
         66:70:4d:65
-----BEGIN CERTIFICATE-----
MIIDdzCCAl+gAwIBAgIQcmhWZmyYT75bx+3YTuSF/DANBgkqhkiG9w0BAQsFADAW
MRQwEgYDVQQDDAt0ZWFtMTQ1LW5ldDAeFw0yMTA5MTMwMDAyNDRaFw0yNDA4Mjgw
MDAyNDRaMBkxFzAVBgNVBAMMDnRlYW0xNDUtc2VydmVyMIIBIjANBgkqhkiG9w0B
AQEFAAOCAQ8AMIIBCgKCAQEAxzmQyA8Yrc+lsP23w9WHQQVq0xTTk0uvpqewNLDJ
zRkhj0Wn6rda+KjD8EDcSsS79Q342D2P9HyNnBvrMDweKuUAmDdD6OA7sJeF84gb
6AZIQSaNZhUBEmCRiPHXBGuZsGJyqr3y9dGaLlxzxGUeXDH6bItJNsInJKKUDsZn
Yj2zuDiyYG5jz+M26JEEGEwZOFJ/0Lb5q54siHJ92H9bccFn2OZ6lCTfMUFHNWWM
UbOSqP1JjxHcrl20IiLPoueymgeahDIJzYxCvuAY0VqrSoJJSMasexd+lXpR6CvY
iQLzIRqSPuTI9xJOwSRTlRQzOQYHOGvg4V7Lktol1yTmywIDAQABo4G9MIG6MAkG
A1UdEwQCMAAwHQYDVR0OBBYEFHZobC4qYZ0xHrytPCTkZwp3Ew7kMFEGA1UdIwRK
MEiAFM62nkFwhx59QPOHDj9egcdTmanboRqkGDAWMRQwEgYDVQQDDAt0ZWFtMTQ1
LW5ldIIUbLJi9NpxOlyKu/2IEN7C4+zUfQ4wEwYDVR0lBAwwCgYIKwYBBQUHAwEw
CwYDVR0PBAQDAgWgMBkGA1UdEQQSMBCCDnRlYW0xNDUtc2VydmVyMA0GCSqGSIb3
DQEBCwUAA4IBAQA3/8biDeitiYQ7IsJRmyCttYqogqOVIDxhR8ebkIEbiAU9453f
i0HCqRNyL6QBeeP5R6gFQ3g7ZwkyGFNFC0URjB7ok4FHDWKD3Fm9u/TqvZf5IYCO
d3ndAGs3qf7YlosHqJTZbEURfzEhl7HWMfxAaPsWn5QhhRC3gyOqvrB2v2XOifu6
yyoAOVPuZ1VsUfJbhxd/RUINehExRh74Q4+wVd3Tv9b5+G1RXj15MMFrcZHF6NDa
KX7lFN4qxpweaVviiKYXFk3SGnMOJCsjrG3CVGp7wCYtO8l4Hp0xHlRZF06vzJ+r
G4PfqV3KoS0kB4t3k9dHqKQxRrJUlNVmcE1l
-----END CERTIFICATE-----
