Certificate:
    Data:
        Version: 3 (0x2)
        Serial Number:
            ec:04:01:d5:6a:73:9a:7e:5f:b0:83:ed:1a:f4:92:32
        Signature Algorithm: sha256WithRSAEncryption
        Issuer: CN=team630-net
        Validity
            Not Before: Sep 13 04:39:38 2021 GMT
            Not After : Aug 28 04:39:38 2024 GMT
        Subject: CN=team630-client
        Subject Public Key Info:
            Public Key Algorithm: rsaEncryption
                RSA Public-Key: (2048 bit)
                Modulus:
                    00:c4:2b:d0:fc:c2:ee:fc:48:72:b2:b8:8f:da:a9:
                    cd:5e:59:20:da:6c:fc:b2:bc:d3:35:c6:e1:24:df:
                    40:3c:db:32:65:37:eb:90:21:2d:4c:62:89:be:38:
                    1e:19:53:b9:50:f8:e6:b4:1a:38:af:d8:0f:92:19:
                    ac:bc:fd:2b:30:d7:da:17:81:a1:13:bc:e0:86:03:
                    8e:6e:6d:ca:68:15:cb:2f:8d:18:98:d1:61:d0:ae:
                    82:b5:11:0a:22:14:66:8a:3e:43:ee:b7:5f:fa:97:
                    02:9d:c8:f3:af:78:fb:d9:d0:cf:90:9e:07:f1:d4:
                    49:9d:79:73:99:bf:f9:b2:94:61:07:4e:6f:f6:5d:
                    c8:15:2e:39:de:ab:94:18:d5:f1:73:42:ec:d3:19:
                    59:d9:fc:5f:06:f5:8a:61:fa:62:66:aa:de:3b:cc:
                    97:77:d5:c3:cd:78:19:b1:3b:04:d0:69:ab:c7:47:
                    60:f6:cf:1d:4c:85:3c:8f:f7:69:2a:fc:51:7b:97:
                    fd:e9:ad:4e:70:8a:3b:92:3d:bf:1f:0b:b9:5a:8f:
                    81:67:54:94:53:24:4d:e6:ea:db:2d:44:ad:6b:01:
                    a3:fa:19:94:a8:36:ec:62:9e:3d:e7:91:2e:be:cf:
                    87:d7:e8:24:7b:bc:58:b2:3f:6f:58:1b:3a:35:f7:
                    a3:f3
                Exponent: 65537 (0x10001)
        X509v3 extensions:
            X509v3 Basic Constraints: 
                CA:FALSE
            X509v3 Subject Key Identifier: 
                EB:8C:5F:06:0B:A3:9E:AA:18:46:FC:4D:8C:98:14:74:2F:6B:64:2B
            X509v3 Authority Key Identifier: 
                keyid:4B:DE:BB:13:3C:FD:46:08:2F:DD:3E:D2:67:4B:4E:85:0F:A1:2E:79
                DirName:/CN=team630-net
                serial:2B:B8:16:1E:73:FF:14:64:8A:16:D5:B0:07:96:B7:B6:A7:D4:7A:80

            X509v3 Extended Key Usage: 
                TLS Web Client Authentication
            X509v3 Key Usage: 
                Digital Signature
    Signature Algorithm: sha256WithRSAEncryption
         c2:8d:4f:68:42:6d:52:07:e1:eb:41:cd:83:b9:22:17:68:f5:
         13:3a:a8:13:75:46:b9:36:7d:10:9a:cf:09:2b:e3:dc:75:b8:
         62:6f:24:b7:aa:f9:d6:94:e6:77:8c:72:45:ef:e5:3e:e6:62:
         78:00:2d:e4:d1:99:68:f5:b3:11:ed:21:bd:24:9c:69:ac:1a:
         c5:14:e4:3e:93:82:ab:90:10:f9:1b:50:25:e9:ff:4b:ba:9f:
         b7:1b:df:a1:ee:36:7e:04:6b:6e:9c:05:d2:1c:5e:4e:e5:c4:
         1f:11:4b:1b:e4:42:ab:4d:1d:4d:19:1f:57:e0:dd:f7:a7:5c:
         dc:2c:8b:36:80:ea:6f:79:03:22:05:50:72:e7:cf:a4:29:9b:
         07:72:31:8d:02:ff:57:32:14:95:c0:69:d7:08:b0:e3:30:4a:
         7d:38:f0:50:68:74:ab:1c:ef:ee:bf:92:27:40:c9:7e:9c:07:
         56:c4:8f:0a:6a:13:76:59:18:ef:2d:bd:35:ac:5a:21:bd:50:
         4e:a7:d8:bd:26:0d:68:d5:d0:74:15:60:92:58:53:21:63:d6:
         d1:7f:22:24:26:c4:d9:a4:5c:29:29:1b:28:10:78:08:09:42:
         16:b1:76:d9:d5:52:ae:d0:d9:b1:bb:f9:02:c4:fc:0a:40:a5:
         a2:07:f5:fc
-----BEGIN CERTIFICATE-----
MIIDXTCCAkWgAwIBAgIRAOwEAdVqc5p+X7CD7Rr0kjIwDQYJKoZIhvcNAQELBQAw
FjEUMBIGA1UEAwwLdGVhbTYzMC1uZXQwHhcNMjEwOTEzMDQzOTM4WhcNMjQwODI4
MDQzOTM4WjAZMRcwFQYDVQQDDA50ZWFtNjMwLWNsaWVudDCCASIwDQYJKoZIhvcN
AQEBBQADggEPADCCAQoCggEBAMQr0PzC7vxIcrK4j9qpzV5ZINps/LK80zXG4STf
QDzbMmU365AhLUxiib44HhlTuVD45rQaOK/YD5IZrLz9KzDX2heBoRO84IYDjm5t
ymgVyy+NGJjRYdCugrURCiIUZoo+Q+63X/qXAp3I8694+9nQz5CeB/HUSZ15c5m/
+bKUYQdOb/ZdyBUuOd6rlBjV8XNC7NMZWdn8Xwb1imH6Ymaq3jvMl3fVw814GbE7
BNBpq8dHYPbPHUyFPI/3aSr8UXuX/emtTnCKO5I9vx8LuVqPgWdUlFMkTebq2y1E
rWsBo/oZlKg27GKePeeRLr7Ph9foJHu8WLI/b1gbOjX3o/MCAwEAAaOBojCBnzAJ
BgNVHRMEAjAAMB0GA1UdDgQWBBTrjF8GC6OeqhhG/E2MmBR0L2tkKzBRBgNVHSME
SjBIgBRL3rsTPP1GCC/dPtJnS06FD6EueaEapBgwFjEUMBIGA1UEAwwLdGVhbTYz
MC1uZXSCFCu4Fh5z/xRkihbVsAeWt7an1HqAMBMGA1UdJQQMMAoGCCsGAQUFBwMC
MAsGA1UdDwQEAwIHgDANBgkqhkiG9w0BAQsFAAOCAQEAwo1PaEJtUgfh60HNg7ki
F2j1EzqoE3VGuTZ9EJrPCSvj3HW4Ym8kt6r51pTmd4xyRe/lPuZieAAt5NGZaPWz
Ee0hvSScaawaxRTkPpOCq5AQ+RtQJen/S7qftxvfoe42fgRrbpwF0hxeTuXEHxFL
G+RCq00dTRkfV+Dd96dc3CyLNoDqb3kDIgVQcufPpCmbB3IxjQL/VzIUlcBp1wiw
4zBKfTjwUGh0qxzv7r+SJ0DJfpwHVsSPCmoTdlkY7y29NaxaIb1QTqfYvSYNaNXQ
dBVgklhTIWPW0X8iJCbE2aRcKSkbKBB4CAlCFrF22dVSrtDZsbv5AsT8CkClogf1
/A==
-----END CERTIFICATE-----
