Certificate:
    Data:
        Version: 3 (0x2)
        Serial Number:
            2a:fa:60:0a:a1:ab:7c:5d:13:a2:26:dc:71:fd:89:69
        Signature Algorithm: sha256WithRSAEncryption
        Issuer: CN=team282-net
        Validity
            Not Before: Sep 13 01:20:38 2021 GMT
            Not After : Aug 28 01:20:38 2024 GMT
        Subject: CN=team282-client
        Subject Public Key Info:
            Public Key Algorithm: rsaEncryption
                RSA Public-Key: (2048 bit)
                Modulus:
                    00:bc:a0:cc:94:55:77:9e:58:e2:30:ad:ba:fa:2a:
                    04:8a:c9:0b:89:de:91:37:51:93:f8:92:d1:d9:39:
                    a6:8f:20:db:48:6b:9c:47:c3:49:bd:19:9b:db:ef:
                    b8:0d:32:ba:2f:38:b0:fb:01:b0:57:18:b3:64:2e:
                    0c:be:fa:1d:58:6f:38:84:15:9a:35:be:82:e1:24:
                    e7:1c:11:e8:d2:1d:f6:02:c6:ab:c7:50:05:49:bb:
                    2d:d8:2f:98:a0:42:80:cf:9c:b8:a7:bd:84:0d:9d:
                    55:14:1b:c6:32:ed:52:48:30:01:ab:62:4f:5e:5b:
                    48:e6:d2:7e:57:ef:0c:91:f1:b7:96:9c:04:87:36:
                    2e:fe:4b:38:d3:d4:77:43:0f:db:0f:f8:be:5a:ac:
                    5b:64:75:c3:6d:70:ac:61:58:bb:f4:bc:21:e9:b2:
                    a1:4c:b4:c9:c0:e2:7a:db:c5:e1:45:39:d9:60:6c:
                    d2:94:21:8e:1a:c5:35:39:bc:62:64:ef:19:87:e7:
                    d1:89:67:9e:da:2c:3b:e3:37:10:dd:29:cc:8a:ee:
                    f2:94:3c:cc:bf:f5:84:d4:00:de:5e:a9:16:94:f9:
                    50:99:40:71:b7:0f:cb:e7:b5:ea:9f:20:b8:84:64:
                    22:1d:ff:51:ab:d4:9a:b7:fd:9f:9c:06:6b:6f:e2:
                    35:a7
                Exponent: 65537 (0x10001)
        X509v3 extensions:
            X509v3 Basic Constraints: 
                CA:FALSE
            X509v3 Subject Key Identifier: 
                C6:82:7E:89:38:FA:20:7E:39:66:BE:42:C3:7B:CF:0E:7C:3D:64:EA
            X509v3 Authority Key Identifier: 
                keyid:64:11:41:31:40:00:7A:99:2D:93:23:5E:3C:08:D3:F9:D6:51:DB:8F
                DirName:/CN=team282-net
                serial:1F:3E:CB:67:20:3B:B5:18:A5:99:E4:35:78:03:03:A7:1A:CB:81:30

            X509v3 Extended Key Usage: 
                TLS Web Client Authentication
            X509v3 Key Usage: 
                Digital Signature
    Signature Algorithm: sha256WithRSAEncryption
         85:de:ca:5c:1c:99:c8:cf:a3:61:9d:ad:45:ef:8a:22:c0:e5:
         10:e8:a0:c5:39:45:db:86:24:b6:16:a2:55:c3:4f:f2:03:bb:
         87:fd:7c:bd:ca:ae:12:2a:0c:06:93:56:44:f1:3b:cb:ff:70:
         ef:cd:88:9b:d2:7f:3a:0f:63:00:d8:9e:31:c0:55:79:ff:56:
         18:6a:25:37:73:6d:f9:49:7c:a5:c7:93:a3:7f:f6:16:e1:a9:
         43:17:10:26:6b:c1:74:10:9b:f1:93:19:18:4d:20:c1:52:3a:
         5a:30:8a:cd:45:b7:6f:ce:49:51:ac:36:ae:3f:f2:19:87:df:
         3d:f4:14:be:1e:ba:10:65:fe:ee:16:5a:ad:99:45:d2:ab:14:
         63:64:30:ca:f8:7a:8b:78:1a:4c:a0:f9:50:f4:84:e5:fd:cb:
         15:fe:b4:c0:fc:ee:bf:a3:a7:15:7d:02:69:4f:73:5d:bf:13:
         33:fa:b6:7c:1b:fb:2e:c7:da:ed:56:a8:bf:c0:21:da:31:30:
         3b:e0:f2:f3:83:d3:58:f0:4e:25:e3:d9:3b:42:86:ed:eb:6e:
         dd:9b:bd:72:39:75:40:42:21:31:29:1d:d1:f6:4a:07:fc:78:
         6f:e7:f3:46:76:1d:0a:c9:45:af:45:26:aa:0f:17:ed:7b:8a:
         e9:53:c6:66
-----BEGIN CERTIFICATE-----
MIIDXDCCAkSgAwIBAgIQKvpgCqGrfF0Toibccf2JaTANBgkqhkiG9w0BAQsFADAW
MRQwEgYDVQQDDAt0ZWFtMjgyLW5ldDAeFw0yMTA5MTMwMTIwMzhaFw0yNDA4Mjgw
MTIwMzhaMBkxFzAVBgNVBAMMDnRlYW0yODItY2xpZW50MIIBIjANBgkqhkiG9w0B
AQEFAAOCAQ8AMIIBCgKCAQEAvKDMlFV3nljiMK26+ioEiskLid6RN1GT+JLR2Tmm
jyDbSGucR8NJvRmb2++4DTK6Lziw+wGwVxizZC4MvvodWG84hBWaNb6C4STnHBHo
0h32Asarx1AFSbst2C+YoEKAz5y4p72EDZ1VFBvGMu1SSDABq2JPXltI5tJ+V+8M
kfG3lpwEhzYu/ks409R3Qw/bD/i+WqxbZHXDbXCsYVi79Lwh6bKhTLTJwOJ628Xh
RTnZYGzSlCGOGsU1ObxiZO8Zh+fRiWee2iw74zcQ3SnMiu7ylDzMv/WE1ADeXqkW
lPlQmUBxtw/L57XqnyC4hGQiHf9Rq9Sat/2fnAZrb+I1pwIDAQABo4GiMIGfMAkG
A1UdEwQCMAAwHQYDVR0OBBYEFMaCfok4+iB+OWa+QsN7zw58PWTqMFEGA1UdIwRK
MEiAFGQRQTFAAHqZLZMjXjwI0/nWUduPoRqkGDAWMRQwEgYDVQQDDAt0ZWFtMjgy
LW5ldIIUHz7LZyA7tRilmeQ1eAMDpxrLgTAwEwYDVR0lBAwwCgYIKwYBBQUHAwIw
CwYDVR0PBAQDAgeAMA0GCSqGSIb3DQEBCwUAA4IBAQCF3spcHJnIz6Nhna1F74oi
wOUQ6KDFOUXbhiS2FqJVw0/yA7uH/Xy9yq4SKgwGk1ZE8TvL/3DvzYib0n86D2MA
2J4xwFV5/1YYaiU3c235SXylx5Ojf/YW4alDFxAma8F0EJvxkxkYTSDBUjpaMIrN
RbdvzklRrDauP/IZh9899BS+HroQZf7uFlqtmUXSqxRjZDDK+HqLeBpMoPlQ9ITl
/csV/rTA/O6/o6cVfQJpT3NdvxMz+rZ8G/sux9rtVqi/wCHaMTA74PLzg9NY8E4l
49k7Qobt627dm71yOXVAQiExKR3R9koH/Hhv5/NGdh0KyUWvRSaqDxfte4rpU8Zm
-----END CERTIFICATE-----
