Certificate:
    Data:
        Version: 3 (0x2)
        Serial Number:
            37:fd:a2:87:c0:75:b4:8f:92:bf:8f:08:4e:a4:fb:c6
        Signature Algorithm: sha256WithRSAEncryption
        Issuer: CN=team528-net
        Validity
            Not Before: Sep 13 03:35:08 2021 GMT
            Not After : Aug 28 03:35:08 2024 GMT
        Subject: CN=team528-server
        Subject Public Key Info:
            Public Key Algorithm: rsaEncryption
                RSA Public-Key: (2048 bit)
                Modulus:
                    00:af:c3:b1:6f:a2:d4:a1:14:de:ee:d2:11:75:b4:
                    aa:86:3e:ac:0c:be:c4:b3:5f:64:ad:5a:fe:e2:72:
                    56:f8:c6:dd:98:81:e6:da:0c:ab:92:f7:a5:cc:95:
                    43:93:52:d3:bf:cd:23:46:4d:35:3b:3f:00:ec:70:
                    3d:bf:ec:f6:76:ad:9c:91:be:3c:97:78:e5:cb:f3:
                    a5:dc:25:73:05:6b:83:24:ea:79:cb:33:c1:8c:c3:
                    d8:a3:8e:d6:6a:d0:6d:26:27:98:24:25:4f:25:30:
                    04:a4:09:40:fc:0c:46:f7:37:75:1a:89:f4:92:67:
                    13:85:ef:ca:c2:44:5a:9e:aa:47:e4:bf:38:32:fa:
                    70:0a:e0:26:48:aa:8e:55:ab:26:15:3b:f3:0e:ec:
                    b7:a7:c7:9d:19:9c:a0:fe:e4:6e:77:4e:bc:fb:3f:
                    14:c7:bc:15:d9:24:94:1b:e4:60:24:68:e2:53:bb:
                    fe:16:b7:9a:59:aa:d1:9d:3a:fa:a4:1e:6a:8e:61:
                    46:bf:0a:4f:e1:18:73:8d:3c:fa:c9:0c:20:ff:c0:
                    99:a2:7b:57:08:32:00:c8:fc:82:80:0f:db:88:94:
                    77:51:49:fa:39:c6:7a:26:46:62:ce:40:f5:1c:f9:
                    d6:a1:20:73:b4:b0:cd:c4:3a:b9:4c:0d:0f:6f:61:
                    d7:a1
                Exponent: 65537 (0x10001)
        X509v3 extensions:
            X509v3 Basic Constraints: 
                CA:FALSE
            X509v3 Subject Key Identifier: 
                07:FF:3A:CE:BA:2F:38:C1:1A:A8:A7:ED:27:46:4F:14:7A:9F:25:CF
            X509v3 Authority Key Identifier: 
                keyid:FD:FF:2C:17:57:8A:49:E5:F6:D2:44:FF:AD:48:06:1A:D5:EB:03:F5
                DirName:/CN=team528-net
                serial:08:50:37:D4:D0:81:F4:8E:D2:DD:5E:C4:78:49:40:04:7E:7B:32:71

            X509v3 Extended Key Usage: 
                TLS Web Server Authentication
            X509v3 Key Usage: 
                Digital Signature, Key Encipherment
            X509v3 Subject Alternative Name: 
                DNS:team528-server
    Signature Algorithm: sha256WithRSAEncryption
         6b:79:c8:d5:9b:bf:d8:65:e1:b3:9c:2d:6f:9a:cc:bb:85:a9:
         95:29:c0:1f:b3:1e:3e:88:de:4c:93:02:bf:33:e1:c5:b7:ad:
         2b:53:f1:b1:e9:19:8e:39:71:52:98:e3:c7:d5:2d:30:78:b8:
         42:dc:74:65:00:ab:da:33:5d:d3:7c:c4:45:23:69:51:b3:e0:
         46:ac:5c:31:19:4f:61:4c:9b:c1:bd:0d:80:b2:81:19:13:11:
         1f:54:79:28:47:81:78:5c:1f:9a:b4:93:83:e8:8c:f4:ef:be:
         af:15:2a:ca:73:46:f5:b6:eb:70:82:f9:24:eb:a5:2b:9e:9a:
         45:95:96:b2:72:15:d9:e9:69:12:1f:ec:71:cf:54:d8:07:ad:
         36:eb:6a:f9:94:e4:8f:97:13:88:99:50:99:d3:e7:5c:22:e6:
         38:66:54:ab:8c:f9:56:7e:92:41:0b:c8:06:d8:f4:3e:2b:2e:
         5a:9a:89:a8:2a:54:66:24:f3:55:0f:57:b6:8b:cf:8b:d9:ea:
         7e:60:77:1d:b7:9c:0a:bf:89:dc:47:1c:65:14:da:d4:28:54:
         76:f9:9c:a8:a9:41:60:df:b4:1f:e0:bf:56:8b:aa:0f:d9:62:
         ad:1c:f2:f1:cc:96:39:ea:ba:be:cd:25:e4:6b:88:c7:6f:c3:
         67:e8:9a:6a
-----BEGIN CERTIFICATE-----
MIIDdzCCAl+gAwIBAgIQN/2ih8B1tI+Sv48ITqT7xjANBgkqhkiG9w0BAQsFADAW
MRQwEgYDVQQDDAt0ZWFtNTI4LW5ldDAeFw0yMTA5MTMwMzM1MDhaFw0yNDA4Mjgw
MzM1MDhaMBkxFzAVBgNVBAMMDnRlYW01Mjgtc2VydmVyMIIBIjANBgkqhkiG9w0B
AQEFAAOCAQ8AMIIBCgKCAQEAr8Oxb6LUoRTe7tIRdbSqhj6sDL7Es19krVr+4nJW
+MbdmIHm2gyrkvelzJVDk1LTv80jRk01Oz8A7HA9v+z2dq2ckb48l3jly/Ol3CVz
BWuDJOp5yzPBjMPYo47WatBtJieYJCVPJTAEpAlA/AxG9zd1Gon0kmcThe/KwkRa
nqpH5L84MvpwCuAmSKqOVasmFTvzDuy3p8edGZyg/uRud068+z8Ux7wV2SSUG+Rg
JGjiU7v+FreaWarRnTr6pB5qjmFGvwpP4RhzjTz6yQwg/8CZontXCDIAyPyCgA/b
iJR3UUn6OcZ6JkZizkD1HPnWoSBztLDNxDq5TA0Pb2HXoQIDAQABo4G9MIG6MAkG
A1UdEwQCMAAwHQYDVR0OBBYEFAf/Os66LzjBGqin7SdGTxR6nyXPMFEGA1UdIwRK
MEiAFP3/LBdXiknl9tJE/61IBhrV6wP1oRqkGDAWMRQwEgYDVQQDDAt0ZWFtNTI4
LW5ldIIUCFA31NCB9I7S3V7EeElABH57MnEwEwYDVR0lBAwwCgYIKwYBBQUHAwEw
CwYDVR0PBAQDAgWgMBkGA1UdEQQSMBCCDnRlYW01Mjgtc2VydmVyMA0GCSqGSIb3
DQEBCwUAA4IBAQBrecjVm7/YZeGznC1vmsy7hamVKcAfsx4+iN5MkwK/M+HFt60r
U/Gx6RmOOXFSmOPH1S0weLhC3HRlAKvaM13TfMRFI2lRs+BGrFwxGU9hTJvBvQ2A
soEZExEfVHkoR4F4XB+atJOD6Iz0776vFSrKc0b1tutwgvkk66UrnppFlZaychXZ
6WkSH+xxz1TYB60262r5lOSPlxOImVCZ0+dcIuY4ZlSrjPlWfpJBC8gG2PQ+Ky5a
momoKlRmJPNVD1e2i8+L2ep+YHcdt5wKv4ncRxxlFNrUKFR2+ZyoqUFg37Qf4L9W
i6oP2WKtHPLxzJY56rq+zSXka4jHb8Nn6Jpq
-----END CERTIFICATE-----
