Certificate:
    Data:
        Version: 3 (0x2)
        Serial Number:
            fe:e3:0c:94:2f:9f:a7:37:a9:2a:70:c1:a5:50:65:c7
        Signature Algorithm: sha256WithRSAEncryption
        Issuer: CN=team662-net
        Validity
            Not Before: Sep 13 04:55:01 2021 GMT
            Not After : Aug 28 04:55:01 2024 GMT
        Subject: CN=team662-client
        Subject Public Key Info:
            Public Key Algorithm: rsaEncryption
                RSA Public-Key: (2048 bit)
                Modulus:
                    00:b5:22:6e:e1:a3:94:2a:82:ab:9e:3d:a5:6e:3b:
                    27:8b:25:f1:43:bd:90:14:fe:db:f6:87:45:73:62:
                    8e:e7:2a:e3:28:e3:97:0c:a3:28:97:93:54:48:3d:
                    0b:74:f8:7b:7f:e1:5a:a6:d2:01:6e:ca:be:59:2e:
                    5b:86:2b:4b:75:e9:8f:f7:3f:43:5e:38:7d:b1:a6:
                    2b:7a:56:b8:f9:cb:56:74:0c:09:d7:3b:c0:04:ef:
                    25:92:40:91:01:99:0c:25:ed:b5:9e:ca:b0:2c:f5:
                    e7:e5:ae:7c:2e:7e:a6:0c:cf:a8:a2:56:14:be:f6:
                    9c:9f:9f:33:54:1c:29:3d:fc:76:a5:06:a7:2e:e7:
                    56:41:6d:94:eb:e3:79:75:53:8d:1d:1f:11:91:5e:
                    8c:95:35:4c:95:d9:2d:8b:be:33:c5:53:1b:47:b0:
                    20:55:de:1c:b8:52:6a:d7:d7:32:de:ea:46:6f:a2:
                    88:c1:07:eb:11:7e:a5:88:65:45:cd:50:9a:c2:1d:
                    27:da:c8:05:cc:62:2a:f6:a3:f3:b4:b4:3a:db:d2:
                    57:55:58:40:98:b1:a7:c5:33:bd:1c:32:8a:4d:a6:
                    24:18:9e:6a:a4:00:9b:0c:62:30:44:59:34:26:61:
                    c1:69:ac:23:79:8b:e3:ae:af:6d:7b:4c:fb:38:65:
                    96:b7
                Exponent: 65537 (0x10001)
        X509v3 extensions:
            X509v3 Basic Constraints: 
                CA:FALSE
            X509v3 Subject Key Identifier: 
                E9:05:40:71:61:D5:69:39:FD:30:14:6E:B0:18:DD:29:9A:2E:4F:77
            X509v3 Authority Key Identifier: 
                keyid:69:27:73:51:BB:A5:89:25:F5:0D:4D:CD:6B:E1:8E:64:E7:23:D5:90
                DirName:/CN=team662-net
                serial:6E:12:9B:09:55:15:5E:F9:C7:42:2D:30:99:F7:11:78:FD:D2:FF:EA

            X509v3 Extended Key Usage: 
                TLS Web Client Authentication
            X509v3 Key Usage: 
                Digital Signature
    Signature Algorithm: sha256WithRSAEncryption
         be:51:85:84:8c:15:74:f5:b1:08:52:92:77:81:1d:21:93:fe:
         61:26:54:ae:6f:01:21:11:3c:62:a1:3f:e7:b6:c9:94:7e:0d:
         33:69:75:5c:b9:5e:55:de:6d:41:5a:de:51:20:29:a7:6a:60:
         2c:24:89:2d:3d:93:9e:27:bb:be:1e:5d:ba:7f:01:0f:77:13:
         b0:84:61:c3:e0:8a:63:06:a7:4b:42:bb:75:19:0f:14:b5:f7:
         55:89:cc:46:f5:34:f1:d8:15:41:79:fd:69:25:6b:55:0e:46:
         37:f8:aa:98:3d:74:a0:39:33:78:60:e2:47:7a:96:ee:45:6b:
         54:4e:00:e8:27:8f:cf:ac:03:4a:3a:6a:51:45:d8:e1:62:3e:
         25:bf:40:d1:a8:55:3a:a0:a5:8c:78:b0:92:d8:f2:d2:97:57:
         5c:f6:97:ea:a9:ff:c1:a6:b6:39:6c:c2:d6:f0:b2:87:47:aa:
         7e:18:61:57:3e:8b:95:55:9c:e7:ea:03:92:17:d5:6a:bb:22:
         77:19:57:54:ce:04:d9:1e:7c:23:df:cf:e3:dd:15:ca:46:a8:
         66:fc:26:1d:38:be:fa:77:c8:65:44:7c:a7:1b:67:6f:f1:0c:
         4d:a8:27:bf:23:6e:13:a9:16:3b:6f:d4:8f:62:58:f0:31:87:
         79:a4:0c:a5
-----BEGIN CERTIFICATE-----
MIIDXTCCAkWgAwIBAgIRAP7jDJQvn6c3qSpwwaVQZccwDQYJKoZIhvcNAQELBQAw
FjEUMBIGA1UEAwwLdGVhbTY2Mi1uZXQwHhcNMjEwOTEzMDQ1NTAxWhcNMjQwODI4
MDQ1NTAxWjAZMRcwFQYDVQQDDA50ZWFtNjYyLWNsaWVudDCCASIwDQYJKoZIhvcN
AQEBBQADggEPADCCAQoCggEBALUibuGjlCqCq549pW47J4sl8UO9kBT+2/aHRXNi
jucq4yjjlwyjKJeTVEg9C3T4e3/hWqbSAW7KvlkuW4YrS3Xpj/c/Q144fbGmK3pW
uPnLVnQMCdc7wATvJZJAkQGZDCXttZ7KsCz15+WufC5+pgzPqKJWFL72nJ+fM1Qc
KT38dqUGpy7nVkFtlOvjeXVTjR0fEZFejJU1TJXZLYu+M8VTG0ewIFXeHLhSatfX
Mt7qRm+iiMEH6xF+pYhlRc1QmsIdJ9rIBcxiKvaj87S0OtvSV1VYQJixp8UzvRwy
ik2mJBieaqQAmwxiMERZNCZhwWmsI3mL466vbXtM+zhllrcCAwEAAaOBojCBnzAJ
BgNVHRMEAjAAMB0GA1UdDgQWBBTpBUBxYdVpOf0wFG6wGN0pmi5PdzBRBgNVHSME
SjBIgBRpJ3NRu6WJJfUNTc1r4Y5k5yPVkKEapBgwFjEUMBIGA1UEAwwLdGVhbTY2
Mi1uZXSCFG4SmwlVFV75x0ItMJn3EXj90v/qMBMGA1UdJQQMMAoGCCsGAQUFBwMC
MAsGA1UdDwQEAwIHgDANBgkqhkiG9w0BAQsFAAOCAQEAvlGFhIwVdPWxCFKSd4Ed
IZP+YSZUrm8BIRE8YqE/57bJlH4NM2l1XLleVd5tQVreUSApp2pgLCSJLT2Tnie7
vh5dun8BD3cTsIRhw+CKYwanS0K7dRkPFLX3VYnMRvU08dgVQXn9aSVrVQ5GN/iq
mD10oDkzeGDiR3qW7kVrVE4A6CePz6wDSjpqUUXY4WI+Jb9A0ahVOqCljHiwktjy
0pdXXPaX6qn/waa2OWzC1vCyh0eqfhhhVz6LlVWc5+oDkhfVarsidxlXVM4E2R58
I9/P490VykaoZvwmHTi++nfIZUR8pxtnb/EMTagnvyNuE6kWO2/Uj2JY8DGHeaQM
pQ==
-----END CERTIFICATE-----
