Certificate:
    Data:
        Version: 3 (0x2)
        Serial Number:
            4d:7c:0b:17:df:fb:e1:e1:af:71:e7:40:0c:ab:40:f6
        Signature Algorithm: sha256WithRSAEncryption
        Issuer: CN=team295-net
        Validity
            Not Before: Sep 13 01:23:41 2021 GMT
            Not After : Aug 28 01:23:41 2024 GMT
        Subject: CN=team295-client
        Subject Public Key Info:
            Public Key Algorithm: rsaEncryption
                RSA Public-Key: (2048 bit)
                Modulus:
                    00:db:69:c0:8f:4e:84:71:af:f9:57:47:3b:e1:a7:
                    66:40:22:28:fd:05:fe:a0:91:ad:a5:c9:76:b1:ef:
                    71:65:3c:82:d5:e7:f2:85:cd:58:cc:d1:20:57:96:
                    be:68:f7:20:6a:97:94:93:96:07:7c:91:d6:86:71:
                    df:84:42:06:1b:e8:db:c2:3d:1e:f1:84:63:8c:e0:
                    0f:62:a6:ff:c9:16:f2:80:73:2f:c6:72:31:75:82:
                    6b:6d:d7:98:9f:47:df:12:bc:68:55:57:c2:fe:0f:
                    2e:31:56:77:3d:a9:4b:c8:0f:c6:00:32:a5:51:64:
                    ad:f7:6b:ee:6c:47:57:6a:ed:bf:88:20:1e:da:31:
                    e0:42:f8:8d:68:3e:73:1f:76:58:dc:d1:19:2f:9f:
                    53:18:f9:f0:83:b7:0f:71:71:7c:d7:b7:d4:6e:a7:
                    0c:9a:06:d5:67:3e:f4:82:f2:8a:10:0c:49:f8:98:
                    0e:63:f4:f3:29:6d:ed:12:71:fe:fe:60:94:73:29:
                    aa:6a:b7:a0:f9:ab:ae:22:72:ee:25:21:29:22:f6:
                    5e:b2:92:d9:88:34:4a:32:6c:fb:0f:4e:d8:b0:29:
                    5d:d5:a3:70:bc:e8:a2:14:17:02:f4:54:6e:3c:6d:
                    b5:0c:10:78:3d:a0:6e:46:39:8f:95:ef:65:94:ce:
                    96:8d
                Exponent: 65537 (0x10001)
        X509v3 extensions:
            X509v3 Basic Constraints: 
                CA:FALSE
            X509v3 Subject Key Identifier: 
                17:87:D4:2C:72:D1:C1:0E:E1:1F:12:CF:E5:B4:E8:22:60:6D:2D:9F
            X509v3 Authority Key Identifier: 
                keyid:F1:20:A9:9B:94:0E:8B:A8:C8:1A:AB:D7:42:A2:FF:35:16:57:E6:1A
                DirName:/CN=team295-net
                serial:22:07:48:DE:12:81:35:30:BB:93:77:E3:8B:32:41:3F:74:32:DB:0D

            X509v3 Extended Key Usage: 
                TLS Web Client Authentication
            X509v3 Key Usage: 
                Digital Signature
    Signature Algorithm: sha256WithRSAEncryption
         1d:75:3b:bc:60:45:34:fd:63:31:c0:46:06:ee:8b:fb:f9:0a:
         76:60:97:8e:a9:83:91:73:7b:2c:b5:91:9f:3f:f1:52:8d:b3:
         6c:9d:b9:b8:fc:53:b3:cc:3f:5f:44:80:ce:4a:f6:a1:7b:fa:
         a3:c4:11:2b:9f:31:b2:12:89:9d:b0:fe:09:54:81:35:f8:78:
         d3:17:21:35:0e:b3:a2:14:04:03:6e:ad:9b:7d:06:ad:50:b0:
         da:d8:1e:9b:5e:2b:43:34:45:03:1c:ce:58:f3:e0:af:11:63:
         f6:51:65:92:c8:ad:ad:1a:e7:15:d4:87:08:e1:55:87:6c:5a:
         9a:5b:72:dd:d7:71:28:46:64:b6:db:8b:46:34:f1:10:b9:e2:
         a7:8c:87:5b:c2:24:df:66:f1:be:c7:ed:76:39:a8:80:94:2f:
         c7:58:8b:02:e0:2b:f6:b9:1f:e8:a5:69:f6:01:d8:f8:3a:84:
         8b:41:e5:72:c6:de:76:b9:cb:ab:fc:b4:a7:ad:29:8a:0f:41:
         88:44:5d:4e:c4:ca:16:5e:ef:37:5d:f1:1c:40:98:12:5d:07:
         00:fb:d5:a0:36:9a:a8:76:2b:d9:14:14:66:19:bf:e4:48:1b:
         ae:81:9b:35:65:8c:21:e0:ab:0c:2f:bb:7b:a0:7c:c7:0f:4b:
         f8:27:3f:dc
-----BEGIN CERTIFICATE-----
MIIDXDCCAkSgAwIBAgIQTXwLF9/74eGvcedADKtA9jANBgkqhkiG9w0BAQsFADAW
MRQwEgYDVQQDDAt0ZWFtMjk1LW5ldDAeFw0yMTA5MTMwMTIzNDFaFw0yNDA4Mjgw
MTIzNDFaMBkxFzAVBgNVBAMMDnRlYW0yOTUtY2xpZW50MIIBIjANBgkqhkiG9w0B
AQEFAAOCAQ8AMIIBCgKCAQEA22nAj06Eca/5V0c74admQCIo/QX+oJGtpcl2se9x
ZTyC1efyhc1YzNEgV5a+aPcgapeUk5YHfJHWhnHfhEIGG+jbwj0e8YRjjOAPYqb/
yRbygHMvxnIxdYJrbdeYn0ffErxoVVfC/g8uMVZ3PalLyA/GADKlUWSt92vubEdX
au2/iCAe2jHgQviNaD5zH3ZY3NEZL59TGPnwg7cPcXF817fUbqcMmgbVZz70gvKK
EAxJ+JgOY/TzKW3tEnH+/mCUcymqareg+auuInLuJSEpIvZespLZiDRKMmz7D07Y
sCld1aNwvOiiFBcC9FRuPG21DBB4PaBuRjmPle9llM6WjQIDAQABo4GiMIGfMAkG
A1UdEwQCMAAwHQYDVR0OBBYEFBeH1Cxy0cEO4R8Sz+W06CJgbS2fMFEGA1UdIwRK
MEiAFPEgqZuUDouoyBqr10Ki/zUWV+YaoRqkGDAWMRQwEgYDVQQDDAt0ZWFtMjk1
LW5ldIIUIgdI3hKBNTC7k3fjizJBP3Qy2w0wEwYDVR0lBAwwCgYIKwYBBQUHAwIw
CwYDVR0PBAQDAgeAMA0GCSqGSIb3DQEBCwUAA4IBAQAddTu8YEU0/WMxwEYG7ov7
+Qp2YJeOqYORc3sstZGfP/FSjbNsnbm4/FOzzD9fRIDOSvahe/qjxBErnzGyEomd
sP4JVIE1+HjTFyE1DrOiFAQDbq2bfQatULDa2B6bXitDNEUDHM5Y8+CvEWP2UWWS
yK2tGucV1IcI4VWHbFqaW3Ld13EoRmS224tGNPEQueKnjIdbwiTfZvG+x+12OaiA
lC/HWIsC4Cv2uR/opWn2Adj4OoSLQeVyxt52ucur/LSnrSmKD0GIRF1OxMoWXu83
XfEcQJgSXQcA+9WgNpqodivZFBRmGb/kSBuugZs1ZYwh4KsML7t7oHzHD0v4Jz/c
-----END CERTIFICATE-----
