Certificate:
    Data:
        Version: 3 (0x2)
        Serial Number:
            48:ed:3f:3c:13:02:8f:38:7d:11:b6:e5:de:0e:ef:5d
        Signature Algorithm: sha256WithRSAEncryption
        Issuer: CN=team375-net
        Validity
            Not Before: Sep 13 02:06:25 2021 GMT
            Not After : Aug 28 02:06:25 2024 GMT
        Subject: CN=team375-server
        Subject Public Key Info:
            Public Key Algorithm: rsaEncryption
                RSA Public-Key: (2048 bit)
                Modulus:
                    00:ba:fb:47:e7:f5:50:85:fa:3f:bc:de:3e:07:8f:
                    6c:6e:bf:65:a5:0e:bc:e4:43:40:3f:af:1a:21:06:
                    e0:15:c1:dd:da:52:b3:b2:2d:03:a6:1c:ee:8b:ea:
                    4a:f9:4f:15:35:64:7f:42:3e:17:e2:f5:63:13:56:
                    6e:ce:a8:b8:1e:7f:f9:00:f8:e6:5a:6a:f4:c1:15:
                    76:91:05:a3:51:a3:a7:41:47:6f:dc:d7:be:6d:4c:
                    b4:15:f3:f0:fd:78:a6:86:23:db:ee:30:39:71:76:
                    fe:49:0f:69:e5:d3:1f:11:5b:51:31:c9:8e:7c:48:
                    b0:85:ea:11:c8:7e:e3:e8:47:ee:c0:70:5b:b1:ab:
                    43:7f:92:00:65:d4:34:9f:17:32:ed:a9:0a:d2:7f:
                    c9:2f:09:a1:57:7c:1d:02:4b:5d:07:d4:86:f9:03:
                    59:85:33:3d:88:05:62:5c:9d:98:3c:06:80:b6:8b:
                    57:b2:f0:47:90:ca:d9:bb:38:c3:40:6f:5f:1f:54:
                    67:ac:fe:89:43:77:f7:ac:87:fa:9f:1d:38:96:66:
                    d3:83:4f:33:f1:0d:2f:04:3d:df:7e:36:07:ab:49:
                    ab:17:d9:d6:cd:0d:3e:70:d6:e1:34:5c:0d:24:62:
                    26:84:77:da:b4:13:1a:45:a9:e1:41:29:af:f5:cf:
                    df:e1
                Exponent: 65537 (0x10001)
        X509v3 extensions:
            X509v3 Basic Constraints: 
                CA:FALSE
            X509v3 Subject Key Identifier: 
                DD:5B:4B:BB:E9:A5:42:EF:30:A5:56:E8:51:CD:1C:42:2F:C2:54:14
            X509v3 Authority Key Identifier: 
                keyid:34:6C:93:EF:FB:BA:70:5C:D5:B9:C0:90:2F:40:E0:97:45:CE:8B:65
                DirName:/CN=team375-net
                serial:02:EB:56:25:D9:53:09:2F:0B:08:3A:EB:C9:48:3F:B6:FA:EB:75:CB

            X509v3 Extended Key Usage: 
                TLS Web Server Authentication
            X509v3 Key Usage: 
                Digital Signature, Key Encipherment
            X509v3 Subject Alternative Name: 
                DNS:team375-server
    Signature Algorithm: sha256WithRSAEncryption
         19:94:e0:b6:08:a6:80:f1:63:47:52:da:5c:89:1c:e1:48:20:
         72:41:71:8b:70:a1:aa:79:cd:b6:37:14:3e:99:bd:ba:b4:3c:
         67:85:15:b9:dd:f8:da:42:06:ff:ee:02:0d:e4:74:09:45:1b:
         b1:fe:3e:10:99:ea:bb:cc:6f:4c:38:55:29:8a:cd:68:00:ca:
         d1:d8:97:45:a2:13:42:c7:62:ab:e8:3e:0c:ba:53:b1:f7:f9:
         37:d6:14:69:c0:f5:63:63:1c:df:33:07:d0:a5:86:7d:28:45:
         1b:ed:26:b3:2a:50:2c:ad:2f:c5:93:84:f3:f4:9e:ba:8a:1b:
         a1:97:af:e0:66:e3:4b:04:05:5b:7c:a4:4e:66:14:dd:b1:a1:
         6c:2c:6b:40:05:b9:c3:d5:50:99:8f:e4:81:a6:5a:b7:94:0c:
         b0:be:a7:88:1c:44:8d:4a:bc:f1:71:78:74:33:6a:11:32:65:
         7f:43:b7:c4:e0:8f:6f:e8:73:8d:92:ea:cd:59:f7:c2:d3:97:
         a7:fc:4d:77:01:75:af:89:00:d2:4c:a0:16:01:2f:b9:4d:eb:
         dc:1c:25:bd:05:6f:c2:ff:37:43:49:a5:9a:75:10:36:e9:f9:
         61:7c:9a:76:0a:cb:bd:5f:e8:ef:6d:cc:e8:f3:d3:85:26:01:
         b7:dc:5a:b6
-----BEGIN CERTIFICATE-----
MIIDdzCCAl+gAwIBAgIQSO0/PBMCjzh9Ebbl3g7vXTANBgkqhkiG9w0BAQsFADAW
MRQwEgYDVQQDDAt0ZWFtMzc1LW5ldDAeFw0yMTA5MTMwMjA2MjVaFw0yNDA4Mjgw
MjA2MjVaMBkxFzAVBgNVBAMMDnRlYW0zNzUtc2VydmVyMIIBIjANBgkqhkiG9w0B
AQEFAAOCAQ8AMIIBCgKCAQEAuvtH5/VQhfo/vN4+B49sbr9lpQ685ENAP68aIQbg
FcHd2lKzsi0Dphzui+pK+U8VNWR/Qj4X4vVjE1Zuzqi4Hn/5APjmWmr0wRV2kQWj
UaOnQUdv3Ne+bUy0FfPw/XimhiPb7jA5cXb+SQ9p5dMfEVtRMcmOfEiwheoRyH7j
6EfuwHBbsatDf5IAZdQ0nxcy7akK0n/JLwmhV3wdAktdB9SG+QNZhTM9iAViXJ2Y
PAaAtotXsvBHkMrZuzjDQG9fH1RnrP6JQ3f3rIf6nx04lmbTg08z8Q0vBD3ffjYH
q0mrF9nWzQ0+cNbhNFwNJGImhHfatBMaRanhQSmv9c/f4QIDAQABo4G9MIG6MAkG
A1UdEwQCMAAwHQYDVR0OBBYEFN1bS7vppULvMKVW6FHNHEIvwlQUMFEGA1UdIwRK
MEiAFDRsk+/7unBc1bnAkC9A4JdFzotloRqkGDAWMRQwEgYDVQQDDAt0ZWFtMzc1
LW5ldIIUAutWJdlTCS8LCDrryUg/tvrrdcswEwYDVR0lBAwwCgYIKwYBBQUHAwEw
CwYDVR0PBAQDAgWgMBkGA1UdEQQSMBCCDnRlYW0zNzUtc2VydmVyMA0GCSqGSIb3
DQEBCwUAA4IBAQAZlOC2CKaA8WNHUtpciRzhSCByQXGLcKGqec22NxQ+mb26tDxn
hRW53fjaQgb/7gIN5HQJRRux/j4Qmeq7zG9MOFUpis1oAMrR2JdFohNCx2Kr6D4M
ulOx9/k31hRpwPVjYxzfMwfQpYZ9KEUb7SazKlAsrS/Fk4Tz9J66ihuhl6/gZuNL
BAVbfKROZhTdsaFsLGtABbnD1VCZj+SBplq3lAywvqeIHESNSrzxcXh0M2oRMmV/
Q7fE4I9v6HONkurNWffC05en/E13AXWviQDSTKAWAS+5TevcHCW9BW/C/zdDSaWa
dRA26flhfJp2Csu9X+jvbczo89OFJgG33Fq2
-----END CERTIFICATE-----
