Certificate:
    Data:
        Version: 3 (0x2)
        Serial Number:
            5e:f7:d9:8e:4f:43:00:58:9b:83:0c:26:07:d0:01:7f
        Signature Algorithm: sha256WithRSAEncryption
        Issuer: CN=team349-net
        Validity
            Not Before: Sep 13 01:56:47 2021 GMT
            Not After : Aug 28 01:56:47 2024 GMT
        Subject: CN=team349-client
        Subject Public Key Info:
            Public Key Algorithm: rsaEncryption
                RSA Public-Key: (2048 bit)
                Modulus:
                    00:bf:1b:98:00:84:cc:18:6e:18:20:7c:ef:9f:6f:
                    a4:5d:14:be:31:bf:db:20:0e:da:16:01:27:f6:00:
                    33:fb:bb:96:3a:fd:0a:ce:e3:2d:bb:b1:e5:f0:dd:
                    d6:ef:d8:83:3f:4f:41:c3:7f:cb:f8:2f:b2:84:3d:
                    c0:f2:dd:0e:3a:9f:6d:04:26:39:53:55:04:58:b3:
                    a5:85:a1:88:8e:11:eb:13:b0:09:c7:20:04:07:d0:
                    ea:c8:62:eb:d7:ff:ef:30:a8:e6:42:d8:35:c6:a7:
                    94:4d:50:c9:5d:6d:7a:f6:11:d8:44:c7:9c:01:22:
                    6b:47:11:c3:63:ee:77:92:1e:45:91:d5:37:e4:87:
                    12:c6:ae:6b:8a:09:b2:ec:74:dc:44:77:42:f0:9c:
                    82:0f:86:07:29:36:a2:e8:f0:8c:14:ad:d5:55:26:
                    b1:da:6f:6f:25:0c:85:9c:cc:5a:59:18:e7:b5:df:
                    c8:db:37:27:eb:6c:0a:2a:63:7c:0b:c0:80:a4:b3:
                    22:28:70:ef:b5:38:9b:89:1a:d4:d5:3f:56:01:1a:
                    79:54:84:3f:cd:5f:c0:a3:36:7a:72:6e:5e:7c:34:
                    a8:59:a5:ff:8b:dd:4e:ba:a1:88:8c:81:2f:75:fc:
                    7c:99:13:88:00:3b:a7:92:ad:1e:83:7e:3f:78:75:
                    d9:db
                Exponent: 65537 (0x10001)
        X509v3 extensions:
            X509v3 Basic Constraints: 
                CA:FALSE
            X509v3 Subject Key Identifier: 
                89:7C:18:52:78:B0:54:C2:30:F6:C1:43:A3:F6:52:A1:7D:4A:0D:34
            X509v3 Authority Key Identifier: 
                keyid:A8:E8:BF:37:48:93:08:E3:EF:67:F1:64:26:C8:66:78:0D:91:36:08
                DirName:/CN=team349-net
                serial:5F:C0:D1:28:36:A4:1E:49:1C:C5:BF:5A:92:B1:F6:0A:17:24:B6:1A

            X509v3 Extended Key Usage: 
                TLS Web Client Authentication
            X509v3 Key Usage: 
                Digital Signature
    Signature Algorithm: sha256WithRSAEncryption
         76:ca:ef:02:90:89:6a:1e:bd:fe:8a:9e:dc:f4:ac:3b:1d:8f:
         a3:f6:24:75:66:ef:6e:6e:7f:ec:8b:d7:ba:17:41:b6:fc:ce:
         bf:d3:2a:c1:bd:5e:80:98:c1:ce:02:d7:c7:f0:a5:42:8e:13:
         5d:82:f9:be:7b:d9:ca:b1:e6:a1:e2:4d:36:e0:16:6d:16:14:
         da:9b:7b:79:13:72:93:ac:f0:17:ec:24:fa:27:77:92:48:44:
         90:a0:3f:c8:0b:31:2a:91:c9:b8:2e:47:50:55:32:0c:ec:ef:
         c8:2d:d9:2f:f5:25:03:55:89:4b:5c:a5:53:3f:b3:b1:dc:65:
         54:24:b8:64:de:17:47:e8:f0:0e:5e:13:12:72:e7:d9:5c:98:
         6a:54:db:64:52:9a:d6:85:b2:50:5f:96:3f:62:01:b4:77:50:
         90:ca:25:de:b2:74:f3:5f:4e:2e:93:b5:64:0f:fb:cd:2f:a6:
         d7:91:90:fe:b0:22:b1:f4:4d:ad:50:94:b8:9c:fb:95:ae:8a:
         40:40:a6:e8:52:e6:5c:85:9c:0b:57:64:14:11:2c:26:d3:e6:
         99:c2:3e:b1:11:3a:98:03:57:15:95:74:0a:01:f5:e5:09:68:
         bb:fa:80:a6:64:b4:36:91:bb:5c:3b:9d:57:88:48:8b:cb:ef:
         ec:6b:7e:fb
-----BEGIN CERTIFICATE-----
MIIDXDCCAkSgAwIBAgIQXvfZjk9DAFibgwwmB9ABfzANBgkqhkiG9w0BAQsFADAW
MRQwEgYDVQQDDAt0ZWFtMzQ5LW5ldDAeFw0yMTA5MTMwMTU2NDdaFw0yNDA4Mjgw
MTU2NDdaMBkxFzAVBgNVBAMMDnRlYW0zNDktY2xpZW50MIIBIjANBgkqhkiG9w0B
AQEFAAOCAQ8AMIIBCgKCAQEAvxuYAITMGG4YIHzvn2+kXRS+Mb/bIA7aFgEn9gAz
+7uWOv0KzuMtu7Hl8N3W79iDP09Bw3/L+C+yhD3A8t0OOp9tBCY5U1UEWLOlhaGI
jhHrE7AJxyAEB9DqyGLr1//vMKjmQtg1xqeUTVDJXW169hHYRMecASJrRxHDY+53
kh5FkdU35IcSxq5rigmy7HTcRHdC8JyCD4YHKTai6PCMFK3VVSax2m9vJQyFnMxa
WRjntd/I2zcn62wKKmN8C8CApLMiKHDvtTibiRrU1T9WARp5VIQ/zV/AozZ6cm5e
fDSoWaX/i91OuqGIjIEvdfx8mROIADunkq0eg34/eHXZ2wIDAQABo4GiMIGfMAkG
A1UdEwQCMAAwHQYDVR0OBBYEFIl8GFJ4sFTCMPbBQ6P2UqF9Sg00MFEGA1UdIwRK
MEiAFKjovzdIkwjj72fxZCbIZngNkTYIoRqkGDAWMRQwEgYDVQQDDAt0ZWFtMzQ5
LW5ldIIUX8DRKDakHkkcxb9akrH2ChckthowEwYDVR0lBAwwCgYIKwYBBQUHAwIw
CwYDVR0PBAQDAgeAMA0GCSqGSIb3DQEBCwUAA4IBAQB2yu8CkIlqHr3+ip7c9Kw7
HY+j9iR1Zu9ubn/si9e6F0G2/M6/0yrBvV6AmMHOAtfH8KVCjhNdgvm+e9nKseah
4k024BZtFhTam3t5E3KTrPAX7CT6J3eSSESQoD/ICzEqkcm4LkdQVTIM7O/ILdkv
9SUDVYlLXKVTP7Ox3GVUJLhk3hdH6PAOXhMScufZXJhqVNtkUprWhbJQX5Y/YgG0
d1CQyiXesnTzX04uk7VkD/vNL6bXkZD+sCKx9E2tUJS4nPuVropAQKboUuZchZwL
V2QUESwm0+aZwj6xETqYA1cVlXQKAfXlCWi7+oCmZLQ2kbtcO51XiEiLy+/sa377
-----END CERTIFICATE-----
