Certificate:
    Data:
        Version: 3 (0x2)
        Serial Number:
            24:ac:c0:4f:4f:6f:11:df:13:4a:86:c4:35:47:9c:aa
        Signature Algorithm: sha256WithRSAEncryption
        Issuer: CN=team592-net
        Validity
            Not Before: Sep 13 03:58:02 2021 GMT
            Not After : Aug 28 03:58:02 2024 GMT
        Subject: CN=team592-server
        Subject Public Key Info:
            Public Key Algorithm: rsaEncryption
                RSA Public-Key: (2048 bit)
                Modulus:
                    00:aa:aa:14:46:58:c2:a9:e7:c0:e3:bd:9b:1d:5d:
                    a5:f5:50:76:4a:5b:d7:69:b3:19:48:3e:85:76:51:
                    32:2a:93:21:3c:d1:da:3d:d4:56:4c:32:99:aa:3e:
                    40:40:63:9d:07:35:78:23:a9:ce:ba:d9:95:8b:1d:
                    d3:3c:70:c6:52:46:0c:50:b7:6c:9b:aa:d6:e6:db:
                    6e:e3:b2:1b:b0:76:b1:1a:fa:b7:19:f9:55:f1:13:
                    b4:3a:a7:76:41:d0:79:ef:aa:c7:bc:e8:d3:20:29:
                    f3:b1:05:5f:68:39:ff:48:d7:21:9d:3e:bc:5f:37:
                    99:40:89:70:30:78:88:f7:20:d8:fd:54:f4:a6:61:
                    94:b5:49:c1:c9:8d:bb:95:66:c8:9f:c4:de:95:ed:
                    5b:aa:cc:c2:97:33:79:c0:42:5f:2d:b6:ae:86:a2:
                    b8:a9:6d:b4:7d:42:bb:f5:18:2e:2c:37:09:c9:d0:
                    19:dd:5a:c4:15:4e:89:9e:5f:5b:9b:e3:ef:64:d5:
                    aa:d4:eb:92:ac:6a:9b:02:a1:c6:91:3f:61:5c:3b:
                    7f:a5:12:13:e0:49:ca:99:f4:95:21:ea:72:6b:4f:
                    7f:e8:18:82:0a:7a:29:a2:37:3c:94:89:82:6f:6d:
                    75:c0:11:b0:c0:23:08:e4:74:e8:f9:2b:a1:d8:36:
                    34:11
                Exponent: 65537 (0x10001)
        X509v3 extensions:
            X509v3 Basic Constraints: 
                CA:FALSE
            X509v3 Subject Key Identifier: 
                6F:C9:DF:6A:DA:B1:A5:62:23:EA:04:F6:A1:82:25:6F:FE:C7:33:5D
            X509v3 Authority Key Identifier: 
                keyid:76:0C:ED:67:0A:DD:EE:36:A2:B1:CD:A4:B7:AB:DB:3D:4C:71:C3:B9
                DirName:/CN=team592-net
                serial:65:6D:D0:D2:FE:0C:5E:B9:95:FA:01:BA:C6:35:28:EF:1F:31:C4:B7

            X509v3 Extended Key Usage: 
                TLS Web Server Authentication
            X509v3 Key Usage: 
                Digital Signature, Key Encipherment
            X509v3 Subject Alternative Name: 
                DNS:team592-server
    Signature Algorithm: sha256WithRSAEncryption
         0f:a8:77:80:1e:7d:bb:03:d8:2a:21:1e:1b:ea:4d:41:c5:d3:
         3a:3d:8f:a8:9d:8d:b5:5d:ae:7a:67:aa:83:62:7d:32:57:d6:
         7e:8c:39:28:36:4e:1b:e4:4c:9f:53:f4:d7:28:2f:16:43:89:
         69:86:33:b0:f2:94:b4:22:3c:24:9e:03:04:b4:17:f5:af:8c:
         db:85:f3:4f:25:ca:1e:a3:f0:30:90:6e:2d:14:d7:58:37:6d:
         46:67:3d:00:05:32:65:cd:04:c2:cb:27:72:b7:0b:99:ab:18:
         d2:ab:69:1d:74:8b:17:51:62:15:6d:21:d9:96:01:52:6f:1d:
         b1:0b:bf:7f:2e:d5:df:31:09:8d:ed:9d:b7:19:4b:1a:6b:eb:
         f6:02:4f:a4:0c:ab:6d:09:fe:f5:bc:12:94:1a:46:5f:ed:94:
         c5:16:70:a5:92:fd:27:e1:e0:8a:f6:e7:00:d9:4e:b3:8d:5e:
         8f:ea:bc:89:e0:43:bf:0f:01:d6:87:d4:7c:d1:de:23:34:ff:
         37:52:4f:a7:df:c9:02:95:5d:07:3d:2d:50:b9:38:9d:79:a1:
         88:b4:35:80:af:79:00:02:72:5f:1f:00:60:1a:d6:0e:1b:a1:
         57:02:d3:bb:fc:a6:3a:10:1b:7f:67:6e:ce:42:9a:87:8f:b3:
         c6:57:e2:b8
-----BEGIN CERTIFICATE-----
MIIDdzCCAl+gAwIBAgIQJKzAT09vEd8TSobENUecqjANBgkqhkiG9w0BAQsFADAW
MRQwEgYDVQQDDAt0ZWFtNTkyLW5ldDAeFw0yMTA5MTMwMzU4MDJaFw0yNDA4Mjgw
MzU4MDJaMBkxFzAVBgNVBAMMDnRlYW01OTItc2VydmVyMIIBIjANBgkqhkiG9w0B
AQEFAAOCAQ8AMIIBCgKCAQEAqqoURljCqefA472bHV2l9VB2SlvXabMZSD6FdlEy
KpMhPNHaPdRWTDKZqj5AQGOdBzV4I6nOutmVix3TPHDGUkYMULdsm6rW5ttu47Ib
sHaxGvq3GflV8RO0Oqd2QdB576rHvOjTICnzsQVfaDn/SNchnT68XzeZQIlwMHiI
9yDY/VT0pmGUtUnByY27lWbIn8Tele1bqszClzN5wEJfLbauhqK4qW20fUK79Rgu
LDcJydAZ3VrEFU6Jnl9bm+PvZNWq1OuSrGqbAqHGkT9hXDt/pRIT4EnKmfSVIepy
a09/6BiCCnopojc8lImCb211wBGwwCMI5HTo+Suh2DY0EQIDAQABo4G9MIG6MAkG
A1UdEwQCMAAwHQYDVR0OBBYEFG/J32rasaViI+oE9qGCJW/+xzNdMFEGA1UdIwRK
MEiAFHYM7WcK3e42orHNpLer2z1MccO5oRqkGDAWMRQwEgYDVQQDDAt0ZWFtNTky
LW5ldIIUZW3Q0v4MXrmV+gG6xjUo7x8xxLcwEwYDVR0lBAwwCgYIKwYBBQUHAwEw
CwYDVR0PBAQDAgWgMBkGA1UdEQQSMBCCDnRlYW01OTItc2VydmVyMA0GCSqGSIb3
DQEBCwUAA4IBAQAPqHeAHn27A9gqIR4b6k1BxdM6PY+onY21Xa56Z6qDYn0yV9Z+
jDkoNk4b5EyfU/TXKC8WQ4lphjOw8pS0IjwkngMEtBf1r4zbhfNPJcoeo/AwkG4t
FNdYN21GZz0ABTJlzQTCyydytwuZqxjSq2kddIsXUWIVbSHZlgFSbx2xC79/LtXf
MQmN7Z23GUsaa+v2Ak+kDKttCf71vBKUGkZf7ZTFFnClkv0n4eCK9ucA2U6zjV6P
6ryJ4EO/DwHWh9R80d4jNP83Uk+n38kClV0HPS1QuTideaGItDWAr3kAAnJfHwBg
GtYOG6FXAtO7/KY6EBt/Z27OQpqHj7PGV+K4
-----END CERTIFICATE-----
