Certificate:
    Data:
        Version: 3 (0x2)
        Serial Number:
            55:98:8c:d2:72:e9:26:e5:4c:68:67:4c:1b:5a:72:8f
        Signature Algorithm: sha256WithRSAEncryption
        Issuer: CN=team359-net
        Validity
            Not Before: Sep 13 02:01:04 2021 GMT
            Not After : Aug 28 02:01:04 2024 GMT
        Subject: CN=team359-client
        Subject Public Key Info:
            Public Key Algorithm: rsaEncryption
                RSA Public-Key: (2048 bit)
                Modulus:
                    00:be:41:f8:c5:1e:96:06:43:ad:b0:b9:c4:3d:00:
                    2c:40:58:81:cd:72:79:a0:56:0a:8a:79:14:0b:4a:
                    e7:0b:4f:68:d3:b3:bc:b5:05:c4:12:0a:55:e8:3d:
                    5b:5e:d2:2f:b5:9a:07:88:c3:10:2b:b9:33:32:57:
                    e5:fb:47:ed:f2:fc:af:22:c1:40:3b:d7:42:b0:cf:
                    2d:8f:ba:48:b3:56:5c:bc:c0:91:8f:d3:c2:22:c3:
                    15:fd:a1:bf:5f:2e:66:08:1d:f8:ee:bd:69:e8:b3:
                    7a:ac:16:b4:15:3d:06:f1:e5:c4:3f:ba:dd:b1:18:
                    3f:5c:71:2b:0f:36:7b:85:e2:c3:90:99:87:76:7c:
                    fe:14:ba:9e:3e:74:2c:ab:63:e6:ea:9e:85:b4:a9:
                    45:35:7d:32:96:43:58:cd:62:1a:df:ae:47:7b:44:
                    26:4e:39:f7:8d:d3:8d:89:d8:b5:07:a5:de:32:26:
                    f2:6f:ac:8f:3d:ee:20:72:19:61:97:f9:db:07:99:
                    06:ad:f7:a5:0a:22:26:61:f6:93:8e:e3:f8:1f:55:
                    04:07:c6:9b:43:59:40:b9:a6:88:a4:dc:0a:b8:32:
                    b1:4d:75:b6:44:bf:60:22:fd:7e:92:9b:42:cd:20:
                    27:81:ae:0c:db:94:06:99:97:aa:bf:66:8a:f6:05:
                    10:41
                Exponent: 65537 (0x10001)
        X509v3 extensions:
            X509v3 Basic Constraints: 
                CA:FALSE
            X509v3 Subject Key Identifier: 
                99:0A:DE:B8:91:15:27:FB:45:D6:FF:EA:9E:13:DC:3A:42:47:73:52
            X509v3 Authority Key Identifier: 
                keyid:65:4A:E4:F6:CD:74:41:9E:0E:36:1D:C9:82:D7:66:9A:11:87:FC:8C
                DirName:/CN=team359-net
                serial:27:66:41:5F:F2:C8:D1:32:06:0C:22:C9:56:04:1C:D8:0D:B0:57:44

            X509v3 Extended Key Usage: 
                TLS Web Client Authentication
            X509v3 Key Usage: 
                Digital Signature
    Signature Algorithm: sha256WithRSAEncryption
         0f:a9:1c:7c:18:05:1f:c7:a8:bd:64:4f:27:29:cb:b3:70:1a:
         c3:b5:d2:ae:e5:0f:5b:20:fe:9b:01:a8:24:3d:fc:67:75:af:
         aa:9f:4d:f6:be:5e:66:1a:ec:a3:06:67:72:ab:a5:f6:f5:d7:
         0e:14:20:cb:cb:62:5c:82:38:3b:cc:ef:b4:fc:85:e0:0c:8f:
         2b:d7:87:45:c8:1e:eb:68:3b:14:4b:65:9d:78:07:62:d1:96:
         a1:e1:59:fc:a2:13:17:84:ee:05:a4:bb:ff:f4:94:cd:e6:bf:
         b9:f5:97:ff:02:1c:a3:d2:c8:f0:c5:12:bc:68:46:50:38:eb:
         1c:74:64:8e:f9:d4:dc:69:d4:9e:bd:90:be:cc:8a:f0:f8:66:
         66:a7:97:cb:23:6f:55:06:f9:ef:01:fe:c7:19:ab:c6:4f:6a:
         f5:b7:65:85:7d:9d:50:05:79:e2:51:6f:79:4f:e2:9c:40:0a:
         88:03:6b:09:2b:bc:98:e2:23:87:fe:b4:d7:d7:56:91:fb:97:
         35:1d:61:d9:1e:ca:35:9b:bf:52:b5:94:64:68:e3:76:51:d8:
         2c:53:a7:bb:eb:f5:0d:d3:bd:74:13:1f:be:f6:24:8a:06:ac:
         ca:74:43:a5:f2:3b:6a:08:fd:59:c6:65:67:6d:07:e1:53:11:
         e4:66:74:ac
-----BEGIN CERTIFICATE-----
MIIDXDCCAkSgAwIBAgIQVZiM0nLpJuVMaGdMG1pyjzANBgkqhkiG9w0BAQsFADAW
MRQwEgYDVQQDDAt0ZWFtMzU5LW5ldDAeFw0yMTA5MTMwMjAxMDRaFw0yNDA4Mjgw
MjAxMDRaMBkxFzAVBgNVBAMMDnRlYW0zNTktY2xpZW50MIIBIjANBgkqhkiG9w0B
AQEFAAOCAQ8AMIIBCgKCAQEAvkH4xR6WBkOtsLnEPQAsQFiBzXJ5oFYKinkUC0rn
C09o07O8tQXEEgpV6D1bXtIvtZoHiMMQK7kzMlfl+0ft8vyvIsFAO9dCsM8tj7pI
s1ZcvMCRj9PCIsMV/aG/Xy5mCB347r1p6LN6rBa0FT0G8eXEP7rdsRg/XHErDzZ7
heLDkJmHdnz+FLqePnQsq2Pm6p6FtKlFNX0ylkNYzWIa365He0QmTjn3jdONidi1
B6XeMibyb6yPPe4gchlhl/nbB5kGrfelCiImYfaTjuP4H1UEB8abQ1lAuaaIpNwK
uDKxTXW2RL9gIv1+kptCzSAnga4M25QGmZeqv2aK9gUQQQIDAQABo4GiMIGfMAkG
A1UdEwQCMAAwHQYDVR0OBBYEFJkK3riRFSf7Rdb/6p4T3DpCR3NSMFEGA1UdIwRK
MEiAFGVK5PbNdEGeDjYdyYLXZpoRh/yMoRqkGDAWMRQwEgYDVQQDDAt0ZWFtMzU5
LW5ldIIUJ2ZBX/LI0TIGDCLJVgQc2A2wV0QwEwYDVR0lBAwwCgYIKwYBBQUHAwIw
CwYDVR0PBAQDAgeAMA0GCSqGSIb3DQEBCwUAA4IBAQAPqRx8GAUfx6i9ZE8nKcuz
cBrDtdKu5Q9bIP6bAagkPfxnda+qn032vl5mGuyjBmdyq6X29dcOFCDLy2Jcgjg7
zO+0/IXgDI8r14dFyB7raDsUS2WdeAdi0Zah4Vn8ohMXhO4FpLv/9JTN5r+59Zf/
Ahyj0sjwxRK8aEZQOOscdGSO+dTcadSevZC+zIrw+GZmp5fLI29VBvnvAf7HGavG
T2r1t2WFfZ1QBXniUW95T+KcQAqIA2sJK7yY4iOH/rTX11aR+5c1HWHZHso1m79S
tZRkaON2UdgsU6e76/UN0710Ex++9iSKBqzKdEOl8jtqCP1ZxmVnbQfhUxHkZnSs
-----END CERTIFICATE-----
