Certificate:
    Data:
        Version: 3 (0x2)
        Serial Number:
            af:4e:7c:f2:66:15:60:39:9f:bb:f2:aa:20:92:7f:19
        Signature Algorithm: sha256WithRSAEncryption
        Issuer: CN=team562-net
        Validity
            Not Before: Sep 13 03:37:39 2021 GMT
            Not After : Aug 28 03:37:39 2024 GMT
        Subject: CN=team562-server
        Subject Public Key Info:
            Public Key Algorithm: rsaEncryption
                RSA Public-Key: (2048 bit)
                Modulus:
                    00:b0:d7:c0:76:ea:28:9b:90:fd:da:25:d7:96:32:
                    74:1c:b4:ef:ec:94:85:4f:44:4b:12:dd:1b:5c:be:
                    c8:f4:39:4f:0e:37:e3:78:01:44:02:5c:f0:f9:b3:
                    14:c5:7c:d1:4c:fe:8f:10:d6:5b:70:3c:f1:0b:33:
                    c6:c3:1b:8a:4f:44:69:f0:55:92:a6:b1:a9:2d:fb:
                    e0:f2:45:70:da:b1:66:ae:4b:77:bf:77:92:d6:e4:
                    e6:bf:35:e9:fe:1a:a3:a1:d7:fe:6e:18:ac:0f:30:
                    1f:82:60:a1:a9:76:d7:95:d3:3c:f8:4b:42:31:b7:
                    a6:80:64:0d:c8:29:af:95:a9:c7:36:cb:2e:78:2f:
                    17:1a:b6:93:df:3c:38:4f:65:c9:81:10:1f:a0:32:
                    40:4c:c2:45:2f:f3:21:53:f1:34:29:70:0e:e7:1b:
                    01:04:a9:7f:85:83:97:30:32:de:89:a6:35:d2:1a:
                    05:4b:31:0b:a7:11:26:04:93:71:6e:cc:5c:8d:b1:
                    12:c8:b1:50:fc:ab:ea:d3:65:c1:e5:63:db:65:eb:
                    fa:69:af:61:3e:91:0b:bc:55:85:97:37:af:18:8c:
                    5d:d1:44:bb:7c:3e:d5:52:6d:e2:1b:39:78:e7:ff:
                    14:04:45:c6:c6:0b:38:9b:89:7d:3c:7f:3c:19:32:
                    df:c7
                Exponent: 65537 (0x10001)
        X509v3 extensions:
            X509v3 Basic Constraints: 
                CA:FALSE
            X509v3 Subject Key Identifier: 
                18:81:88:F5:D1:F6:E4:92:B8:83:DB:BD:EF:28:B3:33:75:89:2F:3B
            X509v3 Authority Key Identifier: 
                keyid:33:7A:09:90:D7:20:0E:5E:C0:95:C4:15:8B:6C:F0:E4:7D:93:11:82
                DirName:/CN=team562-net
                serial:38:7A:17:39:D5:6D:1E:54:19:0A:FE:F4:37:50:1C:85:39:18:1D:76

            X509v3 Extended Key Usage: 
                TLS Web Server Authentication
            X509v3 Key Usage: 
                Digital Signature, Key Encipherment
            X509v3 Subject Alternative Name: 
                DNS:team562-server
    Signature Algorithm: sha256WithRSAEncryption
         0d:43:cd:73:28:f7:8e:fe:cd:69:7c:c4:3a:1a:78:c9:27:97:
         f1:cb:22:97:f8:03:c4:6e:b6:d5:11:c6:e4:d6:b1:c2:8b:30:
         4e:50:0b:d4:28:ca:d9:89:3f:61:9b:f8:a1:bd:cd:56:32:85:
         1a:9d:fb:9b:a3:cd:00:a5:94:8d:cd:83:e2:95:fb:b8:55:d7:
         a8:e0:21:e0:4a:ab:ef:e1:a0:b6:6f:8c:65:6a:b7:19:9a:4d:
         f1:a2:b2:45:b0:6f:e6:39:65:31:d6:20:1c:1c:dc:78:d9:8b:
         5e:e9:bf:d5:a4:7c:d3:cc:b3:ae:5a:8e:28:7a:9e:54:95:4e:
         a7:f3:45:e7:b9:b1:ab:2c:4b:31:fc:74:5b:46:21:05:b1:ac:
         e1:28:a7:4c:1e:31:95:42:93:2c:e4:77:b3:fb:3a:ac:4c:16:
         c3:b8:e4:05:ab:c4:d2:fa:ad:28:e9:06:1e:de:91:6f:d8:fa:
         73:c6:51:86:46:18:30:b1:43:23:0a:69:38:a2:14:bd:e4:44:
         d1:fe:c3:ca:11:58:2b:f2:3d:ea:82:88:54:63:8f:eb:b6:89:
         a5:da:26:7c:d3:0b:77:7f:90:1a:88:20:90:43:29:4f:32:f1:
         e4:17:f4:70:4a:61:3a:d1:e6:f1:9a:64:7a:b8:e2:d7:b4:d8:
         9e:22:8f:76
-----BEGIN CERTIFICATE-----
MIIDeDCCAmCgAwIBAgIRAK9OfPJmFWA5n7vyqiCSfxkwDQYJKoZIhvcNAQELBQAw
FjEUMBIGA1UEAwwLdGVhbTU2Mi1uZXQwHhcNMjEwOTEzMDMzNzM5WhcNMjQwODI4
MDMzNzM5WjAZMRcwFQYDVQQDDA50ZWFtNTYyLXNlcnZlcjCCASIwDQYJKoZIhvcN
AQEBBQADggEPADCCAQoCggEBALDXwHbqKJuQ/dol15YydBy07+yUhU9ESxLdG1y+
yPQ5Tw4343gBRAJc8PmzFMV80Uz+jxDWW3A88QszxsMbik9EafBVkqaxqS374PJF
cNqxZq5Ld793ktbk5r816f4ao6HX/m4YrA8wH4Jgoal215XTPPhLQjG3poBkDcgp
r5WpxzbLLngvFxq2k988OE9lyYEQH6AyQEzCRS/zIVPxNClwDucbAQSpf4WDlzAy
3ommNdIaBUsxC6cRJgSTcW7MXI2xEsixUPyr6tNlweVj22Xr+mmvYT6RC7xVhZc3
rxiMXdFEu3w+1VJt4hs5eOf/FARFxsYLOJuJfTx/PBky38cCAwEAAaOBvTCBujAJ
BgNVHRMEAjAAMB0GA1UdDgQWBBQYgYj10fbkkriD273vKLMzdYkvOzBRBgNVHSME
SjBIgBQzegmQ1yAOXsCVxBWLbPDkfZMRgqEapBgwFjEUMBIGA1UEAwwLdGVhbTU2
Mi1uZXSCFDh6FznVbR5UGQr+9DdQHIU5GB12MBMGA1UdJQQMMAoGCCsGAQUFBwMB
MAsGA1UdDwQEAwIFoDAZBgNVHREEEjAQgg50ZWFtNTYyLXNlcnZlcjANBgkqhkiG
9w0BAQsFAAOCAQEADUPNcyj3jv7NaXzEOhp4ySeX8csil/gDxG621RHG5Naxwosw
TlAL1CjK2Yk/YZv4ob3NVjKFGp37m6PNAKWUjc2D4pX7uFXXqOAh4Eqr7+Ggtm+M
ZWq3GZpN8aKyRbBv5jllMdYgHBzceNmLXum/1aR808yzrlqOKHqeVJVOp/NF57mx
qyxLMfx0W0YhBbGs4SinTB4xlUKTLOR3s/s6rEwWw7jkBavE0vqtKOkGHt6Rb9j6
c8ZRhkYYMLFDIwppOKIUveRE0f7DyhFYK/I96oKIVGOP67aJpdomfNMLd3+QGogg
kEMpTzLx5Bf0cEphOtHm8Zpkerji17TYniKPdg==
-----END CERTIFICATE-----
