Certificate:
    Data:
        Version: 3 (0x2)
        Serial Number:
            bd:42:f7:81:d4:bd:59:e6:bf:e8:03:7c:f2:8b:e4:06
        Signature Algorithm: sha256WithRSAEncryption
        Issuer: CN=team562-net
        Validity
            Not Before: Sep 13 03:37:39 2021 GMT
            Not After : Aug 28 03:37:39 2024 GMT
        Subject: CN=team562-client
        Subject Public Key Info:
            Public Key Algorithm: rsaEncryption
                RSA Public-Key: (2048 bit)
                Modulus:
                    00:ac:61:44:e2:07:f8:a0:0b:25:45:db:1f:d5:19:
                    59:0d:28:21:e0:5d:76:42:a9:88:d8:13:3e:44:13:
                    31:74:c0:26:86:18:9f:2b:ee:75:9d:fa:83:d5:d1:
                    d7:e2:6d:b0:2c:39:58:b5:42:6c:e7:6c:8d:51:d3:
                    66:17:65:72:08:ce:78:b8:1e:d1:c7:34:57:49:c0:
                    fa:ec:55:71:3a:41:b4:11:b2:b0:7b:90:23:92:60:
                    73:8d:a3:78:8c:0e:25:fd:3f:3a:d3:65:4c:79:49:
                    39:a9:2e:37:c4:e0:ac:13:2d:6e:75:fa:a4:30:ca:
                    95:5b:51:03:fc:95:de:4f:d1:0b:cc:f0:78:4a:c7:
                    b6:57:25:e9:f4:7a:9c:e4:d1:81:80:67:40:3e:30:
                    8b:3f:0b:4a:37:5a:56:e8:b0:83:ef:00:c8:ad:b6:
                    b2:75:c4:33:63:55:c0:b2:80:04:2f:ce:00:af:00:
                    36:41:6d:22:dc:cf:4a:09:ac:a8:28:8b:7a:33:28:
                    48:49:66:cb:b8:c8:68:2e:3e:83:9a:22:8a:2e:93:
                    ab:26:79:0b:d5:0a:38:d9:54:97:96:04:4f:2e:68:
                    c1:b7:4a:30:bf:04:62:56:e5:ff:16:77:66:6e:dc:
                    b3:f2:42:6b:ff:e7:8c:bd:c7:52:53:f8:30:04:8e:
                    1d:e7
                Exponent: 65537 (0x10001)
        X509v3 extensions:
            X509v3 Basic Constraints: 
                CA:FALSE
            X509v3 Subject Key Identifier: 
                7B:10:DA:86:D5:C6:C2:51:37:33:7D:7D:84:04:D1:29:0F:97:84:5D
            X509v3 Authority Key Identifier: 
                keyid:33:7A:09:90:D7:20:0E:5E:C0:95:C4:15:8B:6C:F0:E4:7D:93:11:82
                DirName:/CN=team562-net
                serial:38:7A:17:39:D5:6D:1E:54:19:0A:FE:F4:37:50:1C:85:39:18:1D:76

            X509v3 Extended Key Usage: 
                TLS Web Client Authentication
            X509v3 Key Usage: 
                Digital Signature
    Signature Algorithm: sha256WithRSAEncryption
         3d:52:98:36:b2:c9:15:fc:a7:08:e3:c1:51:67:1f:8e:54:a5:
         0f:44:52:e8:3d:05:9b:ae:8d:59:fd:15:7d:1f:53:a0:f1:45:
         1b:2e:66:d2:f7:ce:71:04:58:13:02:e7:88:95:ae:e2:67:7c:
         10:7f:cc:91:92:82:65:1e:21:ef:e4:4b:3f:94:72:bd:1f:3e:
         38:cd:cc:7d:cd:22:07:9a:be:97:12:56:f3:cc:dc:0b:0b:9c:
         66:46:2e:3d:2e:2d:0e:b2:7b:41:05:24:2f:d4:02:68:a5:1c:
         01:47:1d:79:f5:68:f1:07:c9:b1:bf:be:06:f7:ce:c3:37:42:
         2d:22:d9:81:a8:c9:28:01:f2:6d:ec:33:90:a5:21:83:d2:fc:
         1f:2c:c9:ce:62:35:ae:d2:0b:3a:6d:1a:c6:89:f1:8e:37:a8:
         56:02:92:de:d0:9f:ba:6a:b4:22:63:9c:ca:1a:d4:7b:d6:80:
         d0:08:81:62:e8:3b:4c:9d:45:c3:1d:36:cf:d9:7a:e0:ae:42:
         59:78:05:e1:bf:8c:a4:87:41:f2:e1:d4:71:f3:d7:37:e2:fa:
         73:a4:a6:3b:11:85:29:86:67:fc:1b:d2:5c:81:18:6c:52:6c:
         9c:a8:78:dc:b5:bb:80:05:58:c3:18:31:c4:50:2c:b7:0b:75:
         0f:b3:1a:0f
-----BEGIN CERTIFICATE-----
MIIDXTCCAkWgAwIBAgIRAL1C94HUvVnmv+gDfPKL5AYwDQYJKoZIhvcNAQELBQAw
FjEUMBIGA1UEAwwLdGVhbTU2Mi1uZXQwHhcNMjEwOTEzMDMzNzM5WhcNMjQwODI4
MDMzNzM5WjAZMRcwFQYDVQQDDA50ZWFtNTYyLWNsaWVudDCCASIwDQYJKoZIhvcN
AQEBBQADggEPADCCAQoCggEBAKxhROIH+KALJUXbH9UZWQ0oIeBddkKpiNgTPkQT
MXTAJoYYnyvudZ36g9XR1+JtsCw5WLVCbOdsjVHTZhdlcgjOeLge0cc0V0nA+uxV
cTpBtBGysHuQI5Jgc42jeIwOJf0/OtNlTHlJOakuN8TgrBMtbnX6pDDKlVtRA/yV
3k/RC8zweErHtlcl6fR6nOTRgYBnQD4wiz8LSjdaVuiwg+8AyK22snXEM2NVwLKA
BC/OAK8ANkFtItzPSgmsqCiLejMoSElmy7jIaC4+g5oiii6TqyZ5C9UKONlUl5YE
Ty5owbdKML8EYlbl/xZ3Zm7cs/JCa//njL3HUlP4MASOHecCAwEAAaOBojCBnzAJ
BgNVHRMEAjAAMB0GA1UdDgQWBBR7ENqG1cbCUTczfX2EBNEpD5eEXTBRBgNVHSME
SjBIgBQzegmQ1yAOXsCVxBWLbPDkfZMRgqEapBgwFjEUMBIGA1UEAwwLdGVhbTU2
Mi1uZXSCFDh6FznVbR5UGQr+9DdQHIU5GB12MBMGA1UdJQQMMAoGCCsGAQUFBwMC
MAsGA1UdDwQEAwIHgDANBgkqhkiG9w0BAQsFAAOCAQEAPVKYNrLJFfynCOPBUWcf
jlSlD0RS6D0Fm66NWf0VfR9ToPFFGy5m0vfOcQRYEwLniJWu4md8EH/MkZKCZR4h
7+RLP5RyvR8+OM3Mfc0iB5q+lxJW88zcCwucZkYuPS4tDrJ7QQUkL9QCaKUcAUcd
efVo8QfJsb++BvfOwzdCLSLZgajJKAHybewzkKUhg9L8HyzJzmI1rtILOm0axonx
jjeoVgKS3tCfumq0ImOcyhrUe9aA0AiBYug7TJ1Fwx02z9l64K5CWXgF4b+MpIdB
8uHUcfPXN+L6c6SmOxGFKYZn/BvSXIEYbFJsnKh43LW7gAVYwxgxxFAstwt1D7Ma
Dw==
-----END CERTIFICATE-----
