Certificate:
    Data:
        Version: 3 (0x2)
        Serial Number:
            c6:f2:a8:1a:d3:d0:12:77:13:01:6f:1a:fb:ee:40:76
        Signature Algorithm: sha256WithRSAEncryption
        Issuer: CN=team303-net
        Validity
            Not Before: Sep 13 01:27:59 2021 GMT
            Not After : Aug 28 01:27:59 2024 GMT
        Subject: CN=team303-server
        Subject Public Key Info:
            Public Key Algorithm: rsaEncryption
                RSA Public-Key: (2048 bit)
                Modulus:
                    00:a6:36:80:4c:10:09:98:b9:8f:27:d7:88:c2:77:
                    ec:90:6a:5f:35:d1:e6:d5:ec:4a:f8:cc:cf:f5:74:
                    a2:bd:62:5f:e1:6e:6d:b5:40:94:f0:f7:26:79:0a:
                    65:0a:9c:93:2b:7c:f3:3d:15:41:a6:cf:07:8d:b0:
                    a6:16:2a:5c:9b:15:0c:99:d1:6e:20:96:14:13:bc:
                    15:bd:83:36:a1:2d:95:a9:4b:d7:bc:95:97:86:1b:
                    87:c8:60:23:30:1d:e1:44:5b:69:43:d6:94:b6:b7:
                    1e:f2:9a:9d:cb:54:00:73:b8:d0:f5:84:e8:e1:5a:
                    1e:d6:d6:9c:c5:de:48:36:74:24:a4:67:e7:b8:8d:
                    44:ac:f3:e1:0e:9c:a2:98:a0:ae:3a:c4:a8:59:f2:
                    b3:20:02:a5:b6:ee:e7:58:64:d0:46:30:88:e5:f8:
                    58:8b:a9:c2:b0:37:31:cc:fb:93:9b:5a:52:8f:13:
                    86:83:b6:6f:6b:98:95:6f:94:e9:72:7e:11:97:f5:
                    10:68:a4:70:aa:e7:0a:a1:a0:36:46:93:aa:bd:6c:
                    02:25:43:99:3d:ca:2e:ea:0f:b7:d5:0e:69:27:dc:
                    ba:e6:95:e2:da:3e:de:d7:52:a4:24:ed:2c:30:5d:
                    f3:a5:d6:05:b5:e8:0c:4e:db:c6:8d:d1:88:3c:91:
                    8e:59
                Exponent: 65537 (0x10001)
        X509v3 extensions:
            X509v3 Basic Constraints: 
                CA:FALSE
            X509v3 Subject Key Identifier: 
                DB:00:C7:F3:55:A9:30:82:D3:63:CB:EA:A4:C7:76:76:1C:5C:B9:34
            X509v3 Authority Key Identifier: 
                keyid:81:EC:1F:E9:F6:FB:FD:F4:40:B2:CC:65:80:DA:F5:E3:1F:D7:90:8F
                DirName:/CN=team303-net
                serial:77:FE:AD:30:B1:79:B1:82:94:3C:A4:CE:78:34:D2:0E:4A:FB:32:85

            X509v3 Extended Key Usage: 
                TLS Web Server Authentication
            X509v3 Key Usage: 
                Digital Signature, Key Encipherment
            X509v3 Subject Alternative Name: 
                DNS:team303-server
    Signature Algorithm: sha256WithRSAEncryption
         94:24:86:51:ff:32:31:0d:3e:4e:29:76:e3:cf:cd:c5:ef:15:
         c6:b2:98:d4:a1:e0:61:44:5c:db:ba:ca:59:23:47:e9:b6:b7:
         91:67:6d:3f:a9:fc:56:a8:ca:72:81:c0:6e:80:b8:1b:0e:86:
         1d:b6:e5:de:35:24:27:df:6f:de:a4:b4:f3:1a:bb:c6:7a:1a:
         29:46:95:bf:2e:59:4b:9b:c4:06:30:03:b3:f8:ce:f9:45:8d:
         46:94:d3:2a:d9:a6:5f:3b:58:fb:b1:83:5e:a9:46:91:0f:14:
         c2:f6:b2:2c:e0:34:5d:82:c2:87:12:93:52:83:70:e3:00:43:
         f3:09:0b:0a:9f:66:ac:22:08:01:9f:26:0a:13:9b:3c:95:6d:
         9d:02:93:ae:84:9d:38:7f:2f:09:d8:6a:13:67:ba:82:e3:3f:
         04:22:41:e6:9e:b8:ab:45:71:b6:83:a9:34:5d:53:eb:29:72:
         2a:8e:5c:97:55:f6:05:a6:8b:7c:ee:1e:31:ff:eb:5d:11:64:
         8a:15:b9:cc:3e:ee:ea:fb:1c:72:43:d8:0e:fe:96:04:8c:03:
         dc:f3:d2:05:73:be:57:4f:d1:33:5f:f7:91:d5:bb:c3:6f:7d:
         f6:da:30:d2:f0:a8:15:27:79:7f:de:a9:85:6f:e1:a4:36:90:
         63:e7:e1:de
-----BEGIN CERTIFICATE-----
MIIDeDCCAmCgAwIBAgIRAMbyqBrT0BJ3EwFvGvvuQHYwDQYJKoZIhvcNAQELBQAw
FjEUMBIGA1UEAwwLdGVhbTMwMy1uZXQwHhcNMjEwOTEzMDEyNzU5WhcNMjQwODI4
MDEyNzU5WjAZMRcwFQYDVQQDDA50ZWFtMzAzLXNlcnZlcjCCASIwDQYJKoZIhvcN
AQEBBQADggEPADCCAQoCggEBAKY2gEwQCZi5jyfXiMJ37JBqXzXR5tXsSvjMz/V0
or1iX+FubbVAlPD3JnkKZQqckyt88z0VQabPB42wphYqXJsVDJnRbiCWFBO8Fb2D
NqEtlalL17yVl4Ybh8hgIzAd4URbaUPWlLa3HvKanctUAHO40PWE6OFaHtbWnMXe
SDZ0JKRn57iNRKzz4Q6copigrjrEqFnysyACpbbu51hk0EYwiOX4WIupwrA3Mcz7
k5taUo8ThoO2b2uYlW+U6XJ+EZf1EGikcKrnCqGgNkaTqr1sAiVDmT3KLuoPt9UO
aSfcuuaV4to+3tdSpCTtLDBd86XWBbXoDE7bxo3RiDyRjlkCAwEAAaOBvTCBujAJ
BgNVHRMEAjAAMB0GA1UdDgQWBBTbAMfzVakwgtNjy+qkx3Z2HFy5NDBRBgNVHSME
SjBIgBSB7B/p9vv99ECyzGWA2vXjH9eQj6EapBgwFjEUMBIGA1UEAwwLdGVhbTMw
My1uZXSCFHf+rTCxebGClDykzng00g5K+zKFMBMGA1UdJQQMMAoGCCsGAQUFBwMB
MAsGA1UdDwQEAwIFoDAZBgNVHREEEjAQgg50ZWFtMzAzLXNlcnZlcjANBgkqhkiG
9w0BAQsFAAOCAQEAlCSGUf8yMQ0+Til248/Nxe8VxrKY1KHgYURc27rKWSNH6ba3
kWdtP6n8VqjKcoHAboC4Gw6GHbbl3jUkJ99v3qS08xq7xnoaKUaVvy5ZS5vEBjAD
s/jO+UWNRpTTKtmmXztY+7GDXqlGkQ8UwvayLOA0XYLChxKTUoNw4wBD8wkLCp9m
rCIIAZ8mChObPJVtnQKTroSdOH8vCdhqE2e6guM/BCJB5p64q0VxtoOpNF1T6yly
Ko5cl1X2BaaLfO4eMf/rXRFkihW5zD7u6vscckPYDv6WBIwD3PPSBXO+V0/RM1/3
kdW7w2999tow0vCoFSd5f96phW/hpDaQY+fh3g==
-----END CERTIFICATE-----
