Certificate:
    Data:
        Version: 3 (0x2)
        Serial Number:
            ab:20:a5:3e:06:a6:92:0e:a3:e5:f0:b2:32:4d:03:7a
        Signature Algorithm: sha256WithRSAEncryption
        Issuer: CN=team733-net
        Validity
            Not Before: Sep 13 05:40:58 2021 GMT
            Not After : Aug 28 05:40:58 2024 GMT
        Subject: CN=team733-server
        Subject Public Key Info:
            Public Key Algorithm: rsaEncryption
                RSA Public-Key: (2048 bit)
                Modulus:
                    00:af:a6:77:6e:4d:4d:57:6c:17:3e:12:e2:7b:3a:
                    01:e9:82:c0:50:50:92:6a:d3:a5:2f:54:3b:56:54:
                    e7:5a:e9:a0:3a:1b:8a:30:1d:36:1a:a8:a1:d9:de:
                    56:94:f9:27:27:48:71:e8:01:ac:7d:92:0d:fd:8d:
                    50:e2:d0:e2:56:01:16:31:7d:9e:e4:34:a4:b4:9d:
                    87:67:09:62:1a:90:72:43:5c:02:59:a3:ac:51:c4:
                    dd:91:c6:75:9a:68:33:3b:c4:b6:99:2c:58:22:0a:
                    0d:0b:1c:79:51:0e:49:dd:17:b9:65:b3:b8:66:22:
                    4e:aa:15:a9:f9:aa:b9:48:e2:3e:1f:13:2d:bc:24:
                    5a:98:bc:68:f2:c8:f7:aa:39:76:e6:ff:fc:cf:f8:
                    77:46:c0:40:f6:ef:77:9b:a4:5c:27:d9:1d:8d:b1:
                    ce:62:db:e3:25:34:f0:31:d9:22:dc:57:3a:34:3b:
                    38:80:18:a3:b2:49:c9:7d:f9:32:64:bd:bc:03:f9:
                    4a:1a:56:13:54:5f:bc:7d:96:40:a5:dd:04:b5:bf:
                    88:72:83:19:6c:ae:89:7c:8f:45:fc:91:e4:93:a5:
                    a8:61:37:08:30:fd:7d:6d:74:07:1c:1e:be:b9:00:
                    01:3f:46:60:bb:6c:c9:1b:1e:d5:10:bb:d2:54:1c:
                    26:11
                Exponent: 65537 (0x10001)
        X509v3 extensions:
            X509v3 Basic Constraints: 
                CA:FALSE
            X509v3 Subject Key Identifier: 
                C1:00:32:05:06:0E:B7:FA:D8:6D:98:96:64:6B:D7:E6:A8:7E:98:3D
            X509v3 Authority Key Identifier: 
                keyid:0F:4F:9F:66:7F:30:D8:3B:2D:9F:EF:57:0D:48:06:97:8A:D5:2D:E2
                DirName:/CN=team733-net
                serial:7A:71:E3:D5:1D:66:A7:C2:B6:15:AD:9E:56:0E:16:D7:AA:1A:E6:9D

            X509v3 Extended Key Usage: 
                TLS Web Server Authentication
            X509v3 Key Usage: 
                Digital Signature, Key Encipherment
            X509v3 Subject Alternative Name: 
                DNS:team733-server
    Signature Algorithm: sha256WithRSAEncryption
         37:9a:27:60:b0:90:d2:e2:49:0e:85:b8:3d:40:79:16:d3:13:
         e4:69:a1:fe:ae:f5:79:92:da:0a:ac:1e:44:c0:70:0f:4b:e8:
         97:70:2b:1d:5a:d1:50:e7:27:3e:d8:fc:ff:e0:8b:76:f1:d7:
         b6:27:c0:c6:46:ca:81:d8:40:9a:51:7f:1b:64:30:10:53:30:
         58:9d:90:03:e5:c5:2b:98:88:0e:f5:ec:fa:09:59:8f:82:8a:
         df:12:fd:4e:75:25:1f:c1:0a:96:d2:7b:a7:a6:38:40:3b:2a:
         1c:1e:dd:8a:3f:96:f4:74:43:c5:1e:1d:b8:12:37:1e:af:ea:
         bd:d4:d2:34:eb:90:e6:f5:77:d3:eb:f1:f4:2b:3a:3c:ab:41:
         e7:fd:3b:82:a5:b2:b0:03:30:3e:27:8e:f4:20:17:e3:c2:64:
         8d:30:ba:a8:15:54:18:7c:e3:3d:76:9d:e8:e8:da:c9:96:27:
         d7:d6:ba:07:51:37:3b:19:59:80:90:ee:6d:8c:ec:10:81:b7:
         fb:0d:e4:96:d6:4e:50:06:50:ba:81:3c:1f:4d:05:4d:20:96:
         e0:89:94:4d:41:e5:47:e1:29:3e:92:ba:7f:5c:23:31:69:0a:
         23:c0:9e:46:13:de:4f:ac:36:21:37:0e:cc:ac:ba:2f:e4:f5:
         ca:09:42:bf
-----BEGIN CERTIFICATE-----
MIIDeDCCAmCgAwIBAgIRAKsgpT4GppIOo+XwsjJNA3owDQYJKoZIhvcNAQELBQAw
FjEUMBIGA1UEAwwLdGVhbTczMy1uZXQwHhcNMjEwOTEzMDU0MDU4WhcNMjQwODI4
MDU0MDU4WjAZMRcwFQYDVQQDDA50ZWFtNzMzLXNlcnZlcjCCASIwDQYJKoZIhvcN
AQEBBQADggEPADCCAQoCggEBAK+md25NTVdsFz4S4ns6AemCwFBQkmrTpS9UO1ZU
51rpoDobijAdNhqoodneVpT5JydIcegBrH2SDf2NUOLQ4lYBFjF9nuQ0pLSdh2cJ
YhqQckNcAlmjrFHE3ZHGdZpoMzvEtpksWCIKDQsceVEOSd0XuWWzuGYiTqoVqfmq
uUjiPh8TLbwkWpi8aPLI96o5dub//M/4d0bAQPbvd5ukXCfZHY2xzmLb4yU08DHZ
ItxXOjQ7OIAYo7JJyX35MmS9vAP5ShpWE1RfvH2WQKXdBLW/iHKDGWyuiXyPRfyR
5JOlqGE3CDD9fW10BxwevrkAAT9GYLtsyRse1RC70lQcJhECAwEAAaOBvTCBujAJ
BgNVHRMEAjAAMB0GA1UdDgQWBBTBADIFBg63+thtmJZka9fmqH6YPTBRBgNVHSME
SjBIgBQPT59mfzDYOy2f71cNSAaXitUt4qEapBgwFjEUMBIGA1UEAwwLdGVhbTcz
My1uZXSCFHpx49UdZqfCthWtnlYOFteqGuadMBMGA1UdJQQMMAoGCCsGAQUFBwMB
MAsGA1UdDwQEAwIFoDAZBgNVHREEEjAQgg50ZWFtNzMzLXNlcnZlcjANBgkqhkiG
9w0BAQsFAAOCAQEAN5onYLCQ0uJJDoW4PUB5FtMT5Gmh/q71eZLaCqweRMBwD0vo
l3ArHVrRUOcnPtj8/+CLdvHXtifAxkbKgdhAmlF/G2QwEFMwWJ2QA+XFK5iIDvXs
+glZj4KK3xL9TnUlH8EKltJ7p6Y4QDsqHB7dij+W9HRDxR4duBI3Hq/qvdTSNOuQ
5vV30+vx9Cs6PKtB5/07gqWysAMwPieO9CAX48JkjTC6qBVUGHzjPXad6OjayZYn
19a6B1E3OxlZgJDubYzsEIG3+w3kltZOUAZQuoE8H00FTSCW4ImUTUHlR+EpPpK6
f1wjMWkKI8CeRhPeT6w2ITcOzKy6L+T1yglCvw==
-----END CERTIFICATE-----
