Certificate:
    Data:
        Version: 3 (0x2)
        Serial Number:
            35:52:06:db:be:75:7a:ca:b6:ca:d8:19:16:1c:01:f8
        Signature Algorithm: sha256WithRSAEncryption
        Issuer: CN=team35-net
        Validity
            Not Before: Sep 12 23:02:11 2021 GMT
            Not After : Aug 27 23:02:11 2024 GMT
        Subject: CN=team35-server
        Subject Public Key Info:
            Public Key Algorithm: rsaEncryption
                RSA Public-Key: (2048 bit)
                Modulus:
                    00:bb:6c:e2:0b:9b:84:24:c2:8c:9e:2a:ea:c1:d5:
                    9a:d0:9b:03:e7:e9:d3:a3:b7:1f:8a:47:d8:55:d2:
                    6e:1d:d6:e1:b1:8e:f9:7d:e3:70:e2:b9:a8:01:58:
                    52:5c:bb:6a:83:53:c2:aa:3d:2b:47:42:56:b9:53:
                    77:45:93:b1:cc:6e:cb:02:47:2e:13:cc:18:d4:38:
                    42:0d:9a:5e:a1:b5:4c:c8:2b:d4:50:bb:50:b9:ee:
                    ef:f8:2a:22:8d:c6:61:17:75:71:29:7b:e8:5c:1d:
                    bd:bf:06:0a:6d:a1:10:05:5e:09:56:ff:0d:27:14:
                    fe:0e:49:98:4c:57:d3:30:20:dc:a1:8f:62:b4:d4:
                    17:40:5c:ab:c5:7e:cd:16:e4:da:af:00:55:f3:ae:
                    e9:fa:54:10:a4:7d:f1:3b:d3:b3:f2:78:3a:5c:8f:
                    75:6e:e3:c2:a4:ea:46:ef:33:a4:7d:7e:02:ef:79:
                    69:2f:21:52:ee:da:95:8b:b7:50:d8:d2:3e:69:d0:
                    d9:03:c1:b7:5e:30:83:2c:2e:c1:a3:95:5f:4e:5e:
                    a8:ba:49:02:50:00:ef:09:1b:37:e0:3a:c3:4e:fc:
                    7d:4b:91:3a:e6:7e:55:33:02:51:6b:b7:e1:50:9d:
                    25:c2:24:0f:b5:72:97:7a:83:b8:54:9a:74:75:1a:
                    22:43
                Exponent: 65537 (0x10001)
        X509v3 extensions:
            X509v3 Basic Constraints: 
                CA:FALSE
            X509v3 Subject Key Identifier: 
                22:61:D9:20:4A:64:F3:B8:6D:24:0D:61:1B:57:FC:5C:94:FB:F9:53
            X509v3 Authority Key Identifier: 
                keyid:E6:8E:29:53:B3:56:FA:66:CA:59:12:FB:31:AB:4A:94:01:E1:52:AD
                DirName:/CN=team35-net
                serial:63:55:27:C3:76:C8:FD:31:9B:20:FD:CB:6F:B4:24:FF:AB:8E:F1:E5

            X509v3 Extended Key Usage: 
                TLS Web Server Authentication
            X509v3 Key Usage: 
                Digital Signature, Key Encipherment
            X509v3 Subject Alternative Name: 
                DNS:team35-server
    Signature Algorithm: sha256WithRSAEncryption
         36:36:21:7e:f0:4f:c2:01:c8:4d:2e:e0:ca:cc:a2:c0:17:0c:
         cf:b9:5f:38:c4:37:11:22:85:bb:97:05:75:30:1f:8d:f4:bb:
         5a:86:3e:a2:bb:4b:51:68:87:50:3e:9c:a4:91:c7:cf:da:a8:
         6b:15:3b:da:a1:85:a4:c1:aa:eb:4e:11:e8:a5:32:5d:f2:3c:
         e5:94:c6:61:b0:92:ef:d0:8a:bc:aa:1d:41:23:35:28:6c:1e:
         db:df:09:03:7a:90:01:b0:c1:b2:ab:97:eb:8a:dc:3a:50:cd:
         f7:8a:f9:41:5a:eb:2e:ff:06:2b:f0:f5:40:12:24:91:b3:54:
         cc:1a:c8:44:2d:8a:73:cc:59:8e:67:32:49:25:1b:b5:ef:e2:
         f6:19:42:00:1b:e2:6a:5a:10:66:d8:93:90:53:08:24:20:0f:
         a9:3a:bb:a9:5a:b8:cd:93:5c:8e:da:7b:bc:73:38:f8:8b:40:
         1c:e2:8f:c8:ce:46:98:66:01:ab:cf:3e:8b:5d:75:6f:9e:8c:
         05:46:c6:88:0a:c1:e5:85:7e:53:8f:50:5c:93:ac:60:8f:c0:
         a1:fe:29:c2:d3:0b:19:a5:d1:3f:3b:30:28:8d:0d:3c:9e:4d:
         23:83:81:70:b7:6e:57:5f:ca:57:2d:c9:ab:62:a0:da:56:c4:
         dd:cb:12:56
-----BEGIN CERTIFICATE-----
MIIDczCCAlugAwIBAgIQNVIG2751esq2ytgZFhwB+DANBgkqhkiG9w0BAQsFADAV
MRMwEQYDVQQDDAp0ZWFtMzUtbmV0MB4XDTIxMDkxMjIzMDIxMVoXDTI0MDgyNzIz
MDIxMVowGDEWMBQGA1UEAwwNdGVhbTM1LXNlcnZlcjCCASIwDQYJKoZIhvcNAQEB
BQADggEPADCCAQoCggEBALts4gubhCTCjJ4q6sHVmtCbA+fp06O3H4pH2FXSbh3W
4bGO+X3jcOK5qAFYUly7aoNTwqo9K0dCVrlTd0WTscxuywJHLhPMGNQ4Qg2aXqG1
TMgr1FC7ULnu7/gqIo3GYRd1cSl76Fwdvb8GCm2hEAVeCVb/DScU/g5JmExX0zAg
3KGPYrTUF0Bcq8V+zRbk2q8AVfOu6fpUEKR98TvTs/J4OlyPdW7jwqTqRu8zpH1+
Au95aS8hUu7alYu3UNjSPmnQ2QPBt14wgywuwaOVX05eqLpJAlAA7wkbN+A6w078
fUuROuZ+VTMCUWu34VCdJcIkD7Vyl3qDuFSadHUaIkMCAwEAAaOBuzCBuDAJBgNV
HRMEAjAAMB0GA1UdDgQWBBQiYdkgSmTzuG0kDWEbV/xclPv5UzBQBgNVHSMESTBH
gBTmjilTs1b6ZspZEvsxq0qUAeFSraEZpBcwFTETMBEGA1UEAwwKdGVhbTM1LW5l
dIIUY1Unw3bI/TGbIP3Lb7Qk/6uO8eUwEwYDVR0lBAwwCgYIKwYBBQUHAwEwCwYD
VR0PBAQDAgWgMBgGA1UdEQQRMA+CDXRlYW0zNS1zZXJ2ZXIwDQYJKoZIhvcNAQEL
BQADggEBADY2IX7wT8IByE0u4MrMosAXDM+5XzjENxEihbuXBXUwH430u1qGPqK7
S1Foh1A+nKSRx8/aqGsVO9qhhaTBqutOEeilMl3yPOWUxmGwku/QiryqHUEjNShs
HtvfCQN6kAGwwbKrl+uK3DpQzfeK+UFa6y7/Bivw9UASJJGzVMwayEQtinPMWY5n
MkklG7Xv4vYZQgAb4mpaEGbYk5BTCCQgD6k6u6lauM2TXI7ae7xzOPiLQBzij8jO
RphmAavPPotddW+ejAVGxogKweWFflOPUFyTrGCPwKH+KcLTCxml0T87MCiNDTye
TSODgXC3bldfylctyatioNpWxN3LElY=
-----END CERTIFICATE-----
