Certificate:
    Data:
        Version: 3 (0x2)
        Serial Number:
            bb:a8:cc:c7:8f:da:6b:93:bd:5b:e6:bf:32:28:16:a1
        Signature Algorithm: sha256WithRSAEncryption
        Issuer: CN=team599-net
        Validity
            Not Before: Sep 13 04:01:20 2021 GMT
            Not After : Aug 28 04:01:20 2024 GMT
        Subject: CN=team599-server
        Subject Public Key Info:
            Public Key Algorithm: rsaEncryption
                RSA Public-Key: (2048 bit)
                Modulus:
                    00:bf:77:24:d6:ec:f4:1f:15:56:41:ba:ef:8e:ac:
                    2d:f1:88:b0:04:85:e7:da:1c:a4:d6:11:44:cc:ed:
                    f1:6f:30:e7:30:2b:5e:24:b7:f7:88:27:23:75:e0:
                    01:6b:a5:b8:7a:0d:44:74:9f:37:2f:60:50:83:ff:
                    a5:57:fb:d1:df:99:2a:55:7b:36:75:15:fc:d0:d0:
                    96:10:ab:a0:bc:b8:9a:5f:53:83:5d:0e:c8:8d:35:
                    4f:43:f2:66:33:86:49:f9:7b:a4:a8:fe:33:48:3d:
                    9d:cb:c1:b3:a6:0b:2d:4a:d7:fa:b0:95:32:c8:45:
                    bc:e1:12:67:c3:f7:f6:10:e3:42:7e:18:0a:d0:6e:
                    f3:e4:e8:01:bb:9e:30:ae:8b:8b:ed:4e:87:be:d0:
                    e8:39:7c:16:d4:b6:94:50:5e:9d:df:68:62:17:48:
                    89:77:d2:c9:44:4f:28:76:87:d8:75:20:23:d8:74:
                    54:c9:aa:1f:32:11:b7:a5:83:65:61:ce:8d:a2:0a:
                    8d:6f:87:b6:16:6b:77:a4:1b:b9:5f:b3:af:67:c2:
                    ad:5f:c3:e9:02:cc:23:6a:0c:0a:ac:35:e0:bc:94:
                    12:4a:10:74:7d:a7:dc:7f:b9:c3:90:f2:78:55:c8:
                    8a:e3:fd:b6:f7:39:96:e2:41:f0:9e:70:53:fb:fd:
                    16:dd
                Exponent: 65537 (0x10001)
        X509v3 extensions:
            X509v3 Basic Constraints: 
                CA:FALSE
            X509v3 Subject Key Identifier: 
                01:84:65:1C:34:7E:C5:8D:79:D6:56:37:97:25:4A:2F:C1:F2:1D:38
            X509v3 Authority Key Identifier: 
                keyid:8E:97:98:62:72:56:E8:DD:CD:5E:31:26:DD:B1:89:B9:09:E1:6F:22
                DirName:/CN=team599-net
                serial:49:13:62:2E:E9:5C:6B:10:69:16:F6:FB:77:81:59:86:C6:AD:F5:7E

            X509v3 Extended Key Usage: 
                TLS Web Server Authentication
            X509v3 Key Usage: 
                Digital Signature, Key Encipherment
            X509v3 Subject Alternative Name: 
                DNS:team599-server
    Signature Algorithm: sha256WithRSAEncryption
         28:f8:89:0e:b6:98:e0:87:35:9a:d6:0d:47:11:83:19:c4:19:
         75:b9:57:a9:cc:22:6d:fc:85:10:a3:2b:c6:2a:2a:bf:99:91:
         d2:93:b0:c8:be:9a:19:3a:51:2a:33:4e:26:d3:25:c3:ce:94:
         67:e6:86:c9:95:d3:c2:15:e8:a6:34:4a:2e:15:09:71:71:f1:
         86:64:46:43:3c:3a:3f:48:c2:27:83:3a:50:3f:51:99:39:c3:
         58:df:7f:3c:bc:b6:79:90:86:75:a0:95:81:34:e3:3f:ef:b8:
         e4:5b:bc:fa:e8:d2:9c:8d:a2:95:8a:c7:87:ab:59:89:b2:b1:
         e0:56:8a:fc:30:8a:d7:ba:19:b8:23:2b:f9:57:11:5c:80:30:
         d6:23:55:1c:a6:bc:fb:91:63:a5:06:fd:e4:46:66:de:3a:8d:
         4b:f4:9c:55:db:8e:3a:cb:70:73:c6:0f:82:fa:0e:25:76:26:
         0f:ae:4b:69:bf:db:a9:e2:f1:fa:32:e5:b6:ed:e0:aa:1b:65:
         ce:9b:82:51:a9:39:9c:80:c4:ea:3d:77:7c:ee:f1:dd:3f:94:
         ab:8c:94:80:66:c9:4b:47:ba:c2:a5:dc:9d:ea:4f:7b:ee:8f:
         be:59:4d:09:de:56:b9:77:26:2c:eb:b3:7b:f3:e0:9f:6f:f4:
         53:23:32:af
-----BEGIN CERTIFICATE-----
MIIDeDCCAmCgAwIBAgIRALuozMeP2muTvVvmvzIoFqEwDQYJKoZIhvcNAQELBQAw
FjEUMBIGA1UEAwwLdGVhbTU5OS1uZXQwHhcNMjEwOTEzMDQwMTIwWhcNMjQwODI4
MDQwMTIwWjAZMRcwFQYDVQQDDA50ZWFtNTk5LXNlcnZlcjCCASIwDQYJKoZIhvcN
AQEBBQADggEPADCCAQoCggEBAL93JNbs9B8VVkG6746sLfGIsASF59ocpNYRRMzt
8W8w5zArXiS394gnI3XgAWuluHoNRHSfNy9gUIP/pVf70d+ZKlV7NnUV/NDQlhCr
oLy4ml9Tg10OyI01T0PyZjOGSfl7pKj+M0g9ncvBs6YLLUrX+rCVMshFvOESZ8P3
9hDjQn4YCtBu8+ToAbueMK6Li+1Oh77Q6Dl8FtS2lFBend9oYhdIiXfSyURPKHaH
2HUgI9h0VMmqHzIRt6WDZWHOjaIKjW+HthZrd6QbuV+zr2fCrV/D6QLMI2oMCqw1
4LyUEkoQdH2n3H+5w5DyeFXIiuP9tvc5luJB8J5wU/v9Ft0CAwEAAaOBvTCBujAJ
BgNVHRMEAjAAMB0GA1UdDgQWBBQBhGUcNH7FjXnWVjeXJUovwfIdODBRBgNVHSME
SjBIgBSOl5hiclbo3c1eMSbdsYm5CeFvIqEapBgwFjEUMBIGA1UEAwwLdGVhbTU5
OS1uZXSCFEkTYi7pXGsQaRb2+3eBWYbGrfV+MBMGA1UdJQQMMAoGCCsGAQUFBwMB
MAsGA1UdDwQEAwIFoDAZBgNVHREEEjAQgg50ZWFtNTk5LXNlcnZlcjANBgkqhkiG
9w0BAQsFAAOCAQEAKPiJDraY4Ic1mtYNRxGDGcQZdblXqcwibfyFEKMrxioqv5mR
0pOwyL6aGTpRKjNOJtMlw86UZ+aGyZXTwhXopjRKLhUJcXHxhmRGQzw6P0jCJ4M6
UD9RmTnDWN9/PLy2eZCGdaCVgTTjP++45Fu8+ujSnI2ilYrHh6tZibKx4FaK/DCK
17oZuCMr+VcRXIAw1iNVHKa8+5FjpQb95EZm3jqNS/ScVduOOstwc8YPgvoOJXYm
D65Lab/bqeLx+jLltu3gqhtlzpuCUak5nIDE6j13fO7x3T+Uq4yUgGbJS0e6wqXc
nepPe+6PvllNCd5WuXcmLOuze/Pgn2/0UyMyrw==
-----END CERTIFICATE-----
