Certificate:
    Data:
        Version: 3 (0x2)
        Serial Number:
            bd:45:b3:91:de:0f:c7:f4:37:67:68:e6:14:18:aa:ae
        Signature Algorithm: sha256WithRSAEncryption
        Issuer: CN=team158-net
        Validity
            Not Before: Sep 13 00:19:34 2021 GMT
            Not After : Aug 28 00:19:34 2024 GMT
        Subject: CN=team158-server
        Subject Public Key Info:
            Public Key Algorithm: rsaEncryption
                RSA Public-Key: (2048 bit)
                Modulus:
                    00:e8:cb:82:4a:b8:b6:4f:5d:f5:b9:44:39:3c:33:
                    34:6c:fc:7b:6e:cb:95:7d:ce:77:3e:f7:dd:e1:49:
                    82:a8:a1:b0:8a:e8:eb:3f:63:86:e3:c7:44:25:7f:
                    ef:9a:c4:eb:4c:30:da:31:18:d0:a3:84:63:2e:9f:
                    90:4d:ad:fb:07:07:42:e6:ae:11:c4:05:75:3e:d3:
                    2a:6e:33:e7:45:0d:f9:c8:19:d3:8f:c1:a3:9e:14:
                    af:69:1f:01:59:55:a0:3e:da:50:87:09:bf:84:ae:
                    c6:f8:e1:d3:9a:50:a0:f9:8e:6f:bc:73:48:9d:15:
                    e7:af:2a:8f:49:18:47:57:d5:cd:0f:49:f2:04:5d:
                    fb:72:8c:6f:a2:44:eb:36:43:46:db:71:d2:1a:c5:
                    c9:43:f6:82:17:f0:40:bb:c5:e3:43:4e:c0:00:ef:
                    b7:d8:9c:ee:76:04:1b:23:ab:cb:a8:26:b3:fe:e5:
                    51:04:b2:68:9b:e6:0e:50:1f:0b:1c:f7:21:d8:aa:
                    db:47:55:b5:cc:72:76:fd:cd:d5:f4:8d:ae:57:ce:
                    d2:ce:f9:7c:2e:c3:61:2a:5a:2a:58:81:d6:91:50:
                    c1:cb:36:61:55:38:b5:cf:72:03:7f:ae:13:c9:9e:
                    48:17:88:44:9f:b8:00:4e:34:d6:52:29:a6:5a:d3:
                    97:19
                Exponent: 65537 (0x10001)
        X509v3 extensions:
            X509v3 Basic Constraints: 
                CA:FALSE
            X509v3 Subject Key Identifier: 
                37:AB:C5:F7:6D:5A:E1:D6:FB:E5:30:03:DA:0A:72:BC:84:F6:FE:83
            X509v3 Authority Key Identifier: 
                keyid:26:CF:99:9F:8A:00:59:E8:05:CF:07:21:B4:69:40:52:AC:61:78:07
                DirName:/CN=team158-net
                serial:6E:B5:0E:65:86:15:FB:C8:95:40:1B:E5:77:EA:72:D2:58:08:99:54

            X509v3 Extended Key Usage: 
                TLS Web Server Authentication
            X509v3 Key Usage: 
                Digital Signature, Key Encipherment
            X509v3 Subject Alternative Name: 
                DNS:team158-server
    Signature Algorithm: sha256WithRSAEncryption
         80:08:a4:78:f3:c8:35:4e:7f:1c:e8:4a:8f:67:57:90:3e:4a:
         6c:9e:ad:3a:7a:2b:28:50:09:d4:36:b2:59:1e:5a:37:40:ef:
         f3:70:2b:75:22:44:72:15:6e:ac:49:de:ff:4c:e3:e0:36:f6:
         e4:7d:47:22:14:04:a1:72:93:2c:49:36:4b:5d:65:a7:c7:4a:
         0d:fa:e1:f5:7d:61:7e:2b:78:17:ce:37:c6:44:17:c8:d2:58:
         d8:7e:da:53:4e:be:b9:fc:b0:80:e6:c4:7b:17:7b:6a:ae:de:
         9a:a1:e1:08:c5:b3:89:10:08:52:6b:13:73:10:5e:c5:09:27:
         86:06:f3:7c:8e:30:f7:5e:09:d9:98:9c:b6:13:e3:56:f5:33:
         5e:8f:94:8c:0e:40:dd:f9:7e:0f:38:4d:ab:36:05:2a:fd:dc:
         9a:73:08:fe:de:78:67:f6:24:9d:aa:af:d3:86:c0:d5:2d:16:
         0d:4a:c7:65:aa:65:cf:40:41:55:cb:46:c7:cd:fd:df:41:c4:
         bb:9a:bc:e3:18:6a:6f:ed:6c:a5:36:3e:36:bf:b3:73:3d:ca:
         87:ea:c4:5b:2f:45:03:1e:72:42:43:c6:06:15:ec:e2:68:12:
         bb:61:c0:3d:e8:67:24:b6:d3:d5:da:bf:77:b5:25:d9:c9:88:
         42:45:cf:97
-----BEGIN CERTIFICATE-----
MIIDeDCCAmCgAwIBAgIRAL1Fs5HeD8f0N2do5hQYqq4wDQYJKoZIhvcNAQELBQAw
FjEUMBIGA1UEAwwLdGVhbTE1OC1uZXQwHhcNMjEwOTEzMDAxOTM0WhcNMjQwODI4
MDAxOTM0WjAZMRcwFQYDVQQDDA50ZWFtMTU4LXNlcnZlcjCCASIwDQYJKoZIhvcN
AQEBBQADggEPADCCAQoCggEBAOjLgkq4tk9d9blEOTwzNGz8e27LlX3Odz733eFJ
gqihsIro6z9jhuPHRCV/75rE60ww2jEY0KOEYy6fkE2t+wcHQuauEcQFdT7TKm4z
50UN+cgZ04/Bo54Ur2kfAVlVoD7aUIcJv4Suxvjh05pQoPmOb7xzSJ0V568qj0kY
R1fVzQ9J8gRd+3KMb6JE6zZDRttx0hrFyUP2ghfwQLvF40NOwADvt9ic7nYEGyOr
y6gms/7lUQSyaJvmDlAfCxz3Idiq20dVtcxydv3N1fSNrlfO0s75fC7DYSpaKliB
1pFQwcs2YVU4tc9yA3+uE8meSBeIRJ+4AE401lIpplrTlxkCAwEAAaOBvTCBujAJ
BgNVHRMEAjAAMB0GA1UdDgQWBBQ3q8X3bVrh1vvlMAPaCnK8hPb+gzBRBgNVHSME
SjBIgBQmz5mfigBZ6AXPByG0aUBSrGF4B6EapBgwFjEUMBIGA1UEAwwLdGVhbTE1
OC1uZXSCFG61DmWGFfvIlUAb5XfqctJYCJlUMBMGA1UdJQQMMAoGCCsGAQUFBwMB
MAsGA1UdDwQEAwIFoDAZBgNVHREEEjAQgg50ZWFtMTU4LXNlcnZlcjANBgkqhkiG
9w0BAQsFAAOCAQEAgAikePPINU5/HOhKj2dXkD5KbJ6tOnorKFAJ1DayWR5aN0Dv
83ArdSJEchVurEne/0zj4Db25H1HIhQEoXKTLEk2S11lp8dKDfrh9X1hfit4F843
xkQXyNJY2H7aU06+ufywgObEexd7aq7emqHhCMWziRAIUmsTcxBexQknhgbzfI4w
914J2ZicthPjVvUzXo+UjA5A3fl+DzhNqzYFKv3cmnMI/t54Z/Yknaqv04bA1S0W
DUrHZaplz0BBVctGx83930HEu5q84xhqb+1spTY+Nr+zcz3Kh+rEWy9FAx5yQkPG
BhXs4mgSu2HAPehnJLbT1dq/d7Ul2cmIQkXPlw==
-----END CERTIFICATE-----
