Certificate:
    Data:
        Version: 3 (0x2)
        Serial Number:
            e9:cf:1a:a5:68:fa:5f:df:83:b5:7c:fe:2c:0d:a4:45
        Signature Algorithm: sha256WithRSAEncryption
        Issuer: CN=team512-net
        Validity
            Not Before: Sep 13 03:12:20 2021 GMT
            Not After : Aug 28 03:12:20 2024 GMT
        Subject: CN=team512-client
        Subject Public Key Info:
            Public Key Algorithm: rsaEncryption
                RSA Public-Key: (2048 bit)
                Modulus:
                    00:b7:1c:6a:3a:dc:85:d0:7b:bc:08:ea:79:5a:69:
                    7b:84:40:db:d4:67:29:fd:7c:63:17:c7:24:b0:73:
                    ea:a4:a3:fa:2b:3a:ee:20:22:04:70:78:fe:3a:3c:
                    5b:5d:80:bf:78:29:19:c3:91:42:45:e3:2c:2c:47:
                    fb:34:a7:7c:df:4d:0b:07:b3:d9:b1:e9:05:33:22:
                    1a:5c:af:8d:d7:a0:90:47:bb:a0:10:9b:59:fe:3a:
                    3f:2c:14:dd:0e:2d:96:d6:da:01:32:d2:e6:bc:61:
                    46:b2:4e:fb:f2:eb:16:6e:d6:bb:91:2b:5f:5a:f9:
                    b8:b1:41:7c:0a:0e:d7:c5:3d:25:38:f3:6a:d2:8e:
                    7e:95:2a:b6:92:86:1b:8a:3e:42:0f:3e:7b:dd:e3:
                    02:0f:f5:70:aa:20:04:00:50:04:5f:33:3a:12:1f:
                    c0:c4:84:4b:b7:df:b3:0c:a5:39:e1:83:99:7f:b2:
                    09:47:fb:f9:2f:29:b5:5b:8b:d2:20:d6:8d:86:47:
                    de:94:c9:da:17:9b:b5:31:8e:67:64:29:9d:fb:e2:
                    b7:a1:8d:48:56:39:ca:57:19:9f:e2:c1:67:e6:7e:
                    0e:72:ca:9e:f4:d6:02:49:3a:5c:1f:c3:04:7b:7c:
                    94:d4:c9:f5:7f:d5:56:3e:6b:e2:59:4e:9b:0f:1c:
                    63:cf
                Exponent: 65537 (0x10001)
        X509v3 extensions:
            X509v3 Basic Constraints: 
                CA:FALSE
            X509v3 Subject Key Identifier: 
                44:16:DB:DC:E0:5E:9E:F5:87:94:95:5C:72:96:A8:FA:1A:87:27:B2
            X509v3 Authority Key Identifier: 
                keyid:9D:7A:F0:43:B6:8B:68:1A:66:4D:3E:B2:11:A8:4B:9B:03:F2:DA:1E
                DirName:/CN=team512-net
                serial:1A:92:BE:3D:BD:DC:16:8A:D5:0F:BF:F3:55:03:6B:05:50:F1:BD:F8

            X509v3 Extended Key Usage: 
                TLS Web Client Authentication
            X509v3 Key Usage: 
                Digital Signature
    Signature Algorithm: sha256WithRSAEncryption
         40:58:79:7c:df:2a:dc:52:21:61:52:14:56:85:4b:0e:e3:a0:
         2c:80:a8:7e:bf:1e:d9:ad:7e:c9:4e:61:59:7e:06:15:59:cc:
         dc:58:f1:47:9a:3d:61:9a:60:89:90:eb:ae:5b:99:88:f4:38:
         24:db:12:60:b5:dd:bb:bd:dd:b7:e9:63:b6:2b:b3:67:09:e8:
         68:25:91:09:1c:75:27:a2:5a:30:ed:23:20:a6:65:03:39:3a:
         1e:47:7f:f0:21:02:cb:03:ef:6b:a8:4d:b7:b6:15:9d:6d:6c:
         6f:b4:40:7a:69:18:14:94:43:0c:71:4f:2d:db:95:5b:27:f0:
         bb:a3:4b:d0:72:1c:86:fa:5b:0a:99:89:de:c0:f7:70:36:c8:
         53:e6:91:94:ee:91:88:2a:f5:e5:82:d1:f0:f1:14:64:cf:bc:
         27:d4:9a:c7:1e:54:dd:b9:a8:18:ef:5b:dc:12:b9:f6:ec:27:
         85:04:c4:2d:e7:ca:85:5c:44:11:5c:d9:28:dc:15:fd:b0:2c:
         d6:ff:d9:fd:b8:52:ff:ee:c9:31:bd:ac:a2:1c:60:42:e3:f9:
         63:d1:20:1b:45:9a:ad:8a:78:cf:0f:0c:bd:b0:3d:44:9a:c8:
         21:ef:06:f5:a5:b7:2b:eb:18:fb:b3:d8:ae:69:a3:dc:dd:51:
         b2:81:28:0e
-----BEGIN CERTIFICATE-----
MIIDXTCCAkWgAwIBAgIRAOnPGqVo+l/fg7V8/iwNpEUwDQYJKoZIhvcNAQELBQAw
FjEUMBIGA1UEAwwLdGVhbTUxMi1uZXQwHhcNMjEwOTEzMDMxMjIwWhcNMjQwODI4
MDMxMjIwWjAZMRcwFQYDVQQDDA50ZWFtNTEyLWNsaWVudDCCASIwDQYJKoZIhvcN
AQEBBQADggEPADCCAQoCggEBALccajrchdB7vAjqeVppe4RA29RnKf18YxfHJLBz
6qSj+is67iAiBHB4/jo8W12Av3gpGcORQkXjLCxH+zSnfN9NCwez2bHpBTMiGlyv
jdegkEe7oBCbWf46PywU3Q4tltbaATLS5rxhRrJO+/LrFm7Wu5ErX1r5uLFBfAoO
18U9JTjzatKOfpUqtpKGG4o+Qg8+e93jAg/1cKogBABQBF8zOhIfwMSES7ffswyl
OeGDmX+yCUf7+S8ptVuL0iDWjYZH3pTJ2hebtTGOZ2Qpnfvit6GNSFY5ylcZn+LB
Z+Z+DnLKnvTWAkk6XB/DBHt8lNTJ9X/VVj5r4llOmw8cY88CAwEAAaOBojCBnzAJ
BgNVHRMEAjAAMB0GA1UdDgQWBBREFtvc4F6e9YeUlVxylqj6GocnsjBRBgNVHSME
SjBIgBSdevBDtotoGmZNPrIRqEubA/LaHqEapBgwFjEUMBIGA1UEAwwLdGVhbTUx
Mi1uZXSCFBqSvj293BaK1Q+/81UDawVQ8b34MBMGA1UdJQQMMAoGCCsGAQUFBwMC
MAsGA1UdDwQEAwIHgDANBgkqhkiG9w0BAQsFAAOCAQEAQFh5fN8q3FIhYVIUVoVL
DuOgLICofr8e2a1+yU5hWX4GFVnM3FjxR5o9YZpgiZDrrluZiPQ4JNsSYLXdu73d
t+ljtiuzZwnoaCWRCRx1J6JaMO0jIKZlAzk6Hkd/8CECywPva6hNt7YVnW1sb7RA
emkYFJRDDHFPLduVWyfwu6NL0HIchvpbCpmJ3sD3cDbIU+aRlO6RiCr15YLR8PEU
ZM+8J9Saxx5U3bmoGO9b3BK59uwnhQTELefKhVxEEVzZKNwV/bAs1v/Z/bhS/+7J
Mb2sohxgQuP5Y9EgG0WarYp4zw8MvbA9RJrIIe8G9aW3K+sY+7PYrmmj3N1RsoEo
Dg==
-----END CERTIFICATE-----
