Certificate:
    Data:
        Version: 3 (0x2)
        Serial Number:
            e5:a6:60:74:5e:bf:76:cb:fe:d2:19:fd:dc:d9:a1:7b
        Signature Algorithm: sha256WithRSAEncryption
        Issuer: CN=team571-net
        Validity
            Not Before: Sep 13 03:40:52 2021 GMT
            Not After : Aug 28 03:40:52 2024 GMT
        Subject: CN=team571-client
        Subject Public Key Info:
            Public Key Algorithm: rsaEncryption
                RSA Public-Key: (2048 bit)
                Modulus:
                    00:d2:02:69:cf:0e:07:20:77:52:97:fd:c2:a2:61:
                    de:ab:ae:41:a7:d8:96:bb:d0:dc:f4:31:dd:4c:5c:
                    69:fb:42:45:c1:2c:05:f2:61:f3:f8:47:95:d7:a6:
                    fd:bb:5a:5d:18:1b:5c:77:01:a1:70:88:83:b1:05:
                    d2:c0:a5:a6:43:92:29:44:1d:e2:3c:13:7f:c7:cc:
                    1d:74:4f:01:1b:6d:3b:80:4a:f9:c4:ff:73:63:7f:
                    11:be:df:91:63:70:94:b5:d5:1b:30:96:95:cc:a1:
                    7e:91:80:76:9d:34:6f:68:29:19:de:df:e9:e6:45:
                    bf:ed:3c:bb:c0:12:fb:91:f8:2f:d6:4b:44:34:7f:
                    c3:05:5a:5e:15:c8:9e:e3:aa:13:2e:00:e1:1d:f2:
                    62:fd:c4:e0:77:cd:8d:6e:81:1a:10:d2:f7:94:03:
                    f0:af:f0:85:13:05:f8:e9:3d:7f:3f:f1:ba:e2:b9:
                    f2:95:88:d1:3c:02:12:fd:92:72:c2:d7:5d:86:22:
                    6b:52:c1:95:dc:76:33:04:46:3d:b6:04:b3:03:0a:
                    6a:aa:6b:0e:30:6d:92:14:7a:75:89:6f:78:38:3e:
                    a9:fc:fd:a7:15:c5:ae:90:f3:bd:78:14:6b:6e:6c:
                    03:88:5b:27:e4:0b:4a:f1:cd:53:05:74:12:2c:77:
                    35:3b
                Exponent: 65537 (0x10001)
        X509v3 extensions:
            X509v3 Basic Constraints: 
                CA:FALSE
            X509v3 Subject Key Identifier: 
                32:8B:2F:85:D9:43:23:F3:BC:AA:DB:00:4A:17:49:47:37:1E:92:27
            X509v3 Authority Key Identifier: 
                keyid:08:34:16:BC:DB:81:06:8C:0C:BD:05:08:44:2D:05:46:D0:C4:67:5F
                DirName:/CN=team571-net
                serial:4E:4A:80:77:46:43:5E:6C:73:5B:45:3A:B3:89:9D:26:3D:F5:3B:A0

            X509v3 Extended Key Usage: 
                TLS Web Client Authentication
            X509v3 Key Usage: 
                Digital Signature
    Signature Algorithm: sha256WithRSAEncryption
         c4:63:ad:82:3c:14:07:cd:78:11:2f:34:6d:ca:c3:6a:33:de:
         86:dc:c1:ac:f5:e9:e9:e5:88:c5:26:4e:14:47:9f:92:9d:e3:
         9c:f9:0c:9f:a9:df:05:0c:05:5e:e1:91:b6:fb:34:bc:dc:50:
         2b:a2:00:e3:90:e3:16:ef:30:71:01:e3:9c:a4:fe:ab:9c:36:
         c7:ea:f1:ac:9b:e9:93:23:0a:44:b8:b5:bb:b9:99:01:88:0e:
         b7:42:d6:a7:f7:e1:88:e5:8c:b5:7d:97:3f:d4:a7:36:94:56:
         e6:ff:d6:88:68:c4:4e:fc:78:87:4d:aa:ae:bc:7c:ea:af:d2:
         87:39:8e:fd:24:e1:5a:bf:0c:a3:e0:0c:e9:5e:a1:77:c6:a3:
         e4:db:2e:33:f2:8c:7c:02:43:05:eb:a8:24:1a:04:2e:8f:96:
         ed:56:27:22:32:21:94:75:61:ca:0e:87:6a:72:47:76:95:1a:
         83:4e:f3:63:6a:8c:23:f6:fc:f8:35:61:c2:73:4d:a7:17:25:
         4c:14:3d:b4:6b:2c:db:0a:0b:dd:f0:7a:ac:1f:d9:c9:6d:12:
         74:f8:a1:ed:7f:f4:ab:16:13:bd:be:de:1b:0f:63:39:e3:13:
         2c:78:f0:1e:72:5f:ea:5f:cb:2d:4b:f1:a0:55:23:14:bb:9d:
         15:d7:e4:73
-----BEGIN CERTIFICATE-----
MIIDXTCCAkWgAwIBAgIRAOWmYHRev3bL/tIZ/dzZoXswDQYJKoZIhvcNAQELBQAw
FjEUMBIGA1UEAwwLdGVhbTU3MS1uZXQwHhcNMjEwOTEzMDM0MDUyWhcNMjQwODI4
MDM0MDUyWjAZMRcwFQYDVQQDDA50ZWFtNTcxLWNsaWVudDCCASIwDQYJKoZIhvcN
AQEBBQADggEPADCCAQoCggEBANICac8OByB3Upf9wqJh3quuQafYlrvQ3PQx3Uxc
aftCRcEsBfJh8/hHldem/btaXRgbXHcBoXCIg7EF0sClpkOSKUQd4jwTf8fMHXRP
ARttO4BK+cT/c2N/Eb7fkWNwlLXVGzCWlcyhfpGAdp00b2gpGd7f6eZFv+08u8AS
+5H4L9ZLRDR/wwVaXhXInuOqEy4A4R3yYv3E4HfNjW6BGhDS95QD8K/whRMF+Ok9
fz/xuuK58pWI0TwCEv2ScsLXXYYia1LBldx2MwRGPbYEswMKaqprDjBtkhR6dYlv
eDg+qfz9pxXFrpDzvXgUa25sA4hbJ+QLSvHNUwV0Eix3NTsCAwEAAaOBojCBnzAJ
BgNVHRMEAjAAMB0GA1UdDgQWBBQyiy+F2UMj87yq2wBKF0lHNx6SJzBRBgNVHSME
SjBIgBQINBa824EGjAy9BQhELQVG0MRnX6EapBgwFjEUMBIGA1UEAwwLdGVhbTU3
MS1uZXSCFE5KgHdGQ15sc1tFOrOJnSY99TugMBMGA1UdJQQMMAoGCCsGAQUFBwMC
MAsGA1UdDwQEAwIHgDANBgkqhkiG9w0BAQsFAAOCAQEAxGOtgjwUB814ES80bcrD
ajPehtzBrPXp6eWIxSZOFEefkp3jnPkMn6nfBQwFXuGRtvs0vNxQK6IA45DjFu8w
cQHjnKT+q5w2x+rxrJvpkyMKRLi1u7mZAYgOt0LWp/fhiOWMtX2XP9SnNpRW5v/W
iGjETvx4h02qrrx86q/ShzmO/SThWr8Mo+AM6V6hd8aj5NsuM/KMfAJDBeuoJBoE
Lo+W7VYnIjIhlHVhyg6HanJHdpUag07zY2qMI/b8+DVhwnNNpxclTBQ9tGss2woL
3fB6rB/ZyW0SdPih7X/0qxYTvb7eGw9jOeMTLHjwHnJf6l/LLUvxoFUjFLudFdfk
cw==
-----END CERTIFICATE-----
