Certificate:
    Data:
        Version: 3 (0x2)
        Serial Number:
            bc:fd:e8:8d:2e:4a:68:6d:da:fd:ac:71:6f:37:8c:22
        Signature Algorithm: sha256WithRSAEncryption
        Issuer: CN=team384-net
        Validity
            Not Before: Sep 13 02:11:53 2021 GMT
            Not After : Aug 28 02:11:53 2024 GMT
        Subject: CN=team384-server
        Subject Public Key Info:
            Public Key Algorithm: rsaEncryption
                RSA Public-Key: (2048 bit)
                Modulus:
                    00:b0:21:d6:28:28:22:3d:a3:f1:10:10:eb:10:27:
                    eb:f8:35:67:35:5b:bd:5a:a5:05:af:38:9d:ac:be:
                    2e:b5:8f:f1:0b:7c:36:29:7c:d3:73:e0:4d:c6:38:
                    67:f6:4a:f5:0a:8a:e0:3a:77:40:f8:73:ec:48:30:
                    3a:1a:17:ac:4b:87:54:93:1d:3c:f0:37:57:06:75:
                    26:c2:a7:81:ef:ad:58:7e:83:9d:3d:dc:c4:78:c3:
                    d5:fd:b1:48:fd:2f:0c:df:52:99:41:f3:ac:cd:27:
                    da:c9:9b:b3:8d:3f:99:00:b8:e2:d8:10:e8:7d:d7:
                    35:6b:46:f9:65:27:e5:48:80:89:ec:6b:be:4c:83:
                    6c:24:2e:9e:01:97:46:6a:80:9a:5e:4e:29:9c:0f:
                    33:c7:88:a5:e8:01:48:3f:3a:ad:69:78:dd:d4:67:
                    70:07:ff:30:26:02:64:f2:d7:2f:0c:6c:a6:93:f0:
                    6b:1c:4f:25:cc:cc:9b:a8:10:8a:56:38:aa:cb:d3:
                    99:52:c9:71:9f:f5:4a:e7:08:c0:f4:57:a5:71:b4:
                    15:50:7a:cf:c4:eb:e0:79:40:3b:7a:4d:93:6f:24:
                    17:95:c6:ac:c5:dc:a0:5c:d0:9e:4c:ee:59:4d:c8:
                    e6:5d:d4:f0:91:3b:8a:b9:a0:70:d8:a0:64:e0:96:
                    8e:31
                Exponent: 65537 (0x10001)
        X509v3 extensions:
            X509v3 Basic Constraints: 
                CA:FALSE
            X509v3 Subject Key Identifier: 
                A2:FC:D9:4E:C8:79:EB:08:F2:2D:E6:46:AA:E4:B8:A3:91:F8:25:95
            X509v3 Authority Key Identifier: 
                keyid:C9:A7:8B:E6:4F:5E:0D:DD:21:99:2E:C2:A7:67:8F:7C:7E:A4:B5:68
                DirName:/CN=team384-net
                serial:1B:3A:7E:C3:BE:75:86:46:FB:6F:E8:EB:D3:04:48:FE:11:55:7D:06

            X509v3 Extended Key Usage: 
                TLS Web Server Authentication
            X509v3 Key Usage: 
                Digital Signature, Key Encipherment
            X509v3 Subject Alternative Name: 
                DNS:team384-server
    Signature Algorithm: sha256WithRSAEncryption
         5c:c9:63:40:b5:18:4f:ae:35:fc:8c:fa:72:d4:17:0f:2b:b5:
         85:67:c3:c2:d8:00:1f:90:5c:44:67:53:d9:9d:c2:43:cf:63:
         6a:30:27:1b:f3:6e:8a:32:49:dc:06:c0:9a:8e:b4:a6:d1:87:
         19:95:52:7a:37:2a:65:88:2e:ec:0e:be:4e:6c:ff:41:f1:61:
         ff:e5:e0:b6:84:d2:fb:0d:59:c1:e0:fb:39:e5:0c:07:0e:a4:
         7e:4a:da:63:cf:2f:2b:4c:04:cf:51:5d:6a:d8:4d:2b:31:3b:
         db:d7:dc:2c:2a:3f:4c:6a:e1:20:f2:34:db:cf:43:ac:d1:66:
         ca:24:63:2d:a6:9d:a7:d1:ad:3f:c6:e6:49:39:2b:0c:92:11:
         01:f2:fd:1d:fa:04:4f:b4:96:e8:d2:49:e2:53:7b:2c:dc:98:
         22:63:af:16:e5:0b:f6:5d:06:7f:e3:cb:bb:79:4d:86:c2:04:
         7c:0a:2c:d1:b1:f7:14:e1:cd:27:88:a0:67:4b:cb:56:cb:f1:
         7e:c4:9d:af:61:8a:9c:c5:ce:00:3e:47:18:f1:4b:ae:e3:98:
         37:45:88:ff:a9:cd:12:b2:11:ed:4a:8b:1e:ba:6e:3f:78:3c:
         5e:e6:18:1a:db:b7:bd:84:9b:33:b9:61:a5:f1:33:4c:ff:5b:
         c2:24:12:32
-----BEGIN CERTIFICATE-----
MIIDeDCCAmCgAwIBAgIRALz96I0uSmht2v2scW83jCIwDQYJKoZIhvcNAQELBQAw
FjEUMBIGA1UEAwwLdGVhbTM4NC1uZXQwHhcNMjEwOTEzMDIxMTUzWhcNMjQwODI4
MDIxMTUzWjAZMRcwFQYDVQQDDA50ZWFtMzg0LXNlcnZlcjCCASIwDQYJKoZIhvcN
AQEBBQADggEPADCCAQoCggEBALAh1igoIj2j8RAQ6xAn6/g1ZzVbvVqlBa84nay+
LrWP8Qt8Nil803PgTcY4Z/ZK9QqK4Dp3QPhz7EgwOhoXrEuHVJMdPPA3VwZ1JsKn
ge+tWH6DnT3cxHjD1f2xSP0vDN9SmUHzrM0n2smbs40/mQC44tgQ6H3XNWtG+WUn
5UiAiexrvkyDbCQungGXRmqAml5OKZwPM8eIpegBSD86rWl43dRncAf/MCYCZPLX
LwxsppPwaxxPJczMm6gQilY4qsvTmVLJcZ/1SucIwPRXpXG0FVB6z8Tr4HlAO3pN
k28kF5XGrMXcoFzQnkzuWU3I5l3U8JE7irmgcNigZOCWjjECAwEAAaOBvTCBujAJ
BgNVHRMEAjAAMB0GA1UdDgQWBBSi/NlOyHnrCPIt5kaq5LijkfgllTBRBgNVHSME
SjBIgBTJp4vmT14N3SGZLsKnZ498fqS1aKEapBgwFjEUMBIGA1UEAwwLdGVhbTM4
NC1uZXSCFBs6fsO+dYZG+2/o69MESP4RVX0GMBMGA1UdJQQMMAoGCCsGAQUFBwMB
MAsGA1UdDwQEAwIFoDAZBgNVHREEEjAQgg50ZWFtMzg0LXNlcnZlcjANBgkqhkiG
9w0BAQsFAAOCAQEAXMljQLUYT641/Iz6ctQXDyu1hWfDwtgAH5BcRGdT2Z3CQ89j
ajAnG/NuijJJ3AbAmo60ptGHGZVSejcqZYgu7A6+Tmz/QfFh/+XgtoTS+w1ZweD7
OeUMBw6kfkraY88vK0wEz1FdathNKzE729fcLCo/TGrhIPI0289DrNFmyiRjLaad
p9GtP8bmSTkrDJIRAfL9HfoET7SW6NJJ4lN7LNyYImOvFuUL9l0Gf+PLu3lNhsIE
fAos0bH3FOHNJ4igZ0vLVsvxfsSdr2GKnMXOAD5HGPFLruOYN0WI/6nNErIR7UqL
HrpuP3g8XuYYGtu3vYSbM7lhpfEzTP9bwiQSMg==
-----END CERTIFICATE-----
