Certificate:
    Data:
        Version: 3 (0x2)
        Serial Number:
            e7:d6:73:2f:24:94:7f:d7:41:55:4f:86:cd:ef:c4:5f
        Signature Algorithm: sha256WithRSAEncryption
        Issuer: CN=team559-net
        Validity
            Not Before: Sep 13 03:53:09 2021 GMT
            Not After : Aug 28 03:53:09 2024 GMT
        Subject: CN=team559-client
        Subject Public Key Info:
            Public Key Algorithm: rsaEncryption
                RSA Public-Key: (2048 bit)
                Modulus:
                    00:f9:39:1c:af:54:cf:99:ef:f6:11:fb:fe:32:33:
                    7d:11:2a:29:80:3f:17:89:01:7d:1b:90:1d:c2:dd:
                    76:04:43:75:1a:0f:fd:f9:a7:94:0b:2c:9c:4a:7b:
                    3f:e7:00:57:7e:07:8b:e4:29:db:e8:7f:27:d6:c7:
                    da:5a:e0:46:f2:23:e7:29:eb:e1:2c:aa:0d:2c:fd:
                    1c:42:2b:a8:6d:c0:5a:43:58:23:e3:bf:73:50:40:
                    8c:e5:ee:db:19:80:de:c5:f2:eb:9d:71:a3:e2:8c:
                    0e:db:7a:36:5d:13:81:37:7c:3c:b2:ee:bb:9d:2f:
                    2d:33:29:3b:07:f9:70:53:e1:23:08:cd:3a:21:95:
                    db:44:b5:48:bb:77:7f:e9:94:e0:b3:ab:82:df:7c:
                    90:62:67:c5:02:e2:6e:0d:d1:0a:c7:79:a9:f2:46:
                    26:95:f1:15:73:58:df:af:df:1b:88:57:83:78:0d:
                    3e:43:8c:39:a1:50:f9:78:25:eb:d2:81:f9:aa:25:
                    83:a3:10:5a:56:9e:a0:12:e9:5f:60:69:03:d6:f3:
                    98:4f:60:e8:6e:87:14:f9:a5:f7:9a:1c:21:ce:37:
                    2b:8e:04:f3:9d:df:8e:5f:3a:27:df:f0:53:98:b9:
                    bc:5c:aa:65:57:34:95:d0:4f:81:a9:f6:95:a6:ff:
                    01:71
                Exponent: 65537 (0x10001)
        X509v3 extensions:
            X509v3 Basic Constraints: 
                CA:FALSE
            X509v3 Subject Key Identifier: 
                E8:C6:E6:37:A3:E7:44:CE:05:8B:66:08:13:F9:D9:B9:56:89:2A:D1
            X509v3 Authority Key Identifier: 
                keyid:8B:91:FA:34:42:7D:C3:92:DD:48:25:67:51:E0:5B:2D:75:53:AC:B7
                DirName:/CN=team559-net
                serial:6E:60:31:68:36:DD:6B:CE:E1:32:9D:3C:07:D2:16:76:17:F9:96:4F

            X509v3 Extended Key Usage: 
                TLS Web Client Authentication
            X509v3 Key Usage: 
                Digital Signature
    Signature Algorithm: sha256WithRSAEncryption
         97:6f:e6:8b:09:f3:43:ff:e6:6c:e1:41:b8:cb:c0:c4:cb:7b:
         f6:cd:14:d6:07:4d:8e:48:ad:38:42:db:ef:41:4c:e4:8f:ab:
         da:41:76:ee:16:5c:e0:be:34:51:48:ec:8e:d6:9d:a9:f6:94:
         8b:a9:82:4f:e7:fb:08:72:de:b4:2c:45:ae:8b:d3:90:45:79:
         77:af:17:8c:b2:dd:35:42:3c:5d:cb:1f:4b:34:46:10:91:80:
         2a:d5:4a:67:5f:0a:d0:69:d3:11:ed:70:fb:79:0b:d6:85:d3:
         f3:29:39:d6:24:74:53:e8:18:ad:a1:47:8f:31:6f:4a:4d:e9:
         3e:70:98:15:d2:3c:2d:aa:e3:65:ae:35:04:5b:32:88:a8:aa:
         32:0b:d6:55:05:f1:d8:ce:f0:f2:1c:0e:00:d4:98:3b:60:57:
         91:93:1c:2b:a7:f0:10:a8:29:33:52:9a:49:c0:ae:2f:f4:fb:
         d0:bd:41:d3:d1:39:32:6c:91:82:77:f0:ce:28:9b:48:2a:07:
         7d:ab:66:c0:92:90:a3:31:ef:45:5e:17:04:a4:01:1d:5e:bc:
         c8:86:b1:fb:aa:ac:50:63:fc:33:1e:a4:0e:37:4d:c6:99:d1:
         05:81:c9:ea:4f:13:20:6b:6c:a7:9f:65:bc:ac:f9:27:40:3b:
         a1:b4:ac:57
-----BEGIN CERTIFICATE-----
MIIDXTCCAkWgAwIBAgIRAOfWcy8klH/XQVVPhs3vxF8wDQYJKoZIhvcNAQELBQAw
FjEUMBIGA1UEAwwLdGVhbTU1OS1uZXQwHhcNMjEwOTEzMDM1MzA5WhcNMjQwODI4
MDM1MzA5WjAZMRcwFQYDVQQDDA50ZWFtNTU5LWNsaWVudDCCASIwDQYJKoZIhvcN
AQEBBQADggEPADCCAQoCggEBAPk5HK9Uz5nv9hH7/jIzfREqKYA/F4kBfRuQHcLd
dgRDdRoP/fmnlAssnEp7P+cAV34Hi+Qp2+h/J9bH2lrgRvIj5ynr4SyqDSz9HEIr
qG3AWkNYI+O/c1BAjOXu2xmA3sXy651xo+KMDtt6Nl0TgTd8PLLuu50vLTMpOwf5
cFPhIwjNOiGV20S1SLt3f+mU4LOrgt98kGJnxQLibg3RCsd5qfJGJpXxFXNY36/f
G4hXg3gNPkOMOaFQ+Xgl69KB+aolg6MQWlaeoBLpX2BpA9bzmE9g6G6HFPml95oc
Ic43K44E853fjl86J9/wU5i5vFyqZVc0ldBPgan2lab/AXECAwEAAaOBojCBnzAJ
BgNVHRMEAjAAMB0GA1UdDgQWBBToxuY3o+dEzgWLZggT+dm5Vokq0TBRBgNVHSME
SjBIgBSLkfo0Qn3Dkt1IJWdR4FstdVOst6EapBgwFjEUMBIGA1UEAwwLdGVhbTU1
OS1uZXSCFG5gMWg23WvO4TKdPAfSFnYX+ZZPMBMGA1UdJQQMMAoGCCsGAQUFBwMC
MAsGA1UdDwQEAwIHgDANBgkqhkiG9w0BAQsFAAOCAQEAl2/miwnzQ//mbOFBuMvA
xMt79s0U1gdNjkitOELb70FM5I+r2kF27hZc4L40UUjsjtadqfaUi6mCT+f7CHLe
tCxFrovTkEV5d68XjLLdNUI8XcsfSzRGEJGAKtVKZ18K0GnTEe1w+3kL1oXT8yk5
1iR0U+gYraFHjzFvSk3pPnCYFdI8LarjZa41BFsyiKiqMgvWVQXx2M7w8hwOANSY
O2BXkZMcK6fwEKgpM1KaScCuL/T70L1B09E5MmyRgnfwziibSCoHfatmwJKQozHv
RV4XBKQBHV68yIax+6qsUGP8Mx6kDjdNxpnRBYHJ6k8TIGtsp59lvKz5J0A7obSs
Vw==
-----END CERTIFICATE-----
