Certificate:
    Data:
        Version: 3 (0x2)
        Serial Number:
            a1:34:ba:bb:b9:5a:43:77:f6:83:75:0a:09:99:e7:d2
        Signature Algorithm: sha256WithRSAEncryption
        Issuer: CN=team64-net
        Validity
            Not Before: Sep 12 23:13:03 2021 GMT
            Not After : Aug 27 23:13:03 2024 GMT
        Subject: CN=team64-client
        Subject Public Key Info:
            Public Key Algorithm: rsaEncryption
                RSA Public-Key: (2048 bit)
                Modulus:
                    00:e4:e1:88:c5:50:f3:5b:e8:12:4b:9b:da:6f:05:
                    68:42:5b:fd:d2:19:db:2c:4b:a9:df:b4:8d:e1:62:
                    e4:94:f0:6d:54:69:ae:0e:f5:ff:c9:36:23:f7:cf:
                    42:38:40:3d:eb:13:d9:88:f0:9d:43:9f:f6:b4:10:
                    a0:ac:40:b7:69:b5:a4:e7:61:f4:f4:c6:8f:0d:35:
                    6b:b8:61:40:4d:20:b3:42:00:ce:8e:d9:a4:95:e9:
                    40:bc:8a:58:a6:9b:da:da:0c:63:86:1a:d6:a9:c1:
                    d9:39:07:9f:76:ff:eb:93:f4:f0:09:fb:8b:27:b9:
                    ea:34:59:08:35:72:31:1d:91:27:56:cd:f1:5a:88:
                    83:bd:b4:45:20:f2:51:1b:06:c2:39:04:8d:1e:bc:
                    8f:ef:98:ec:f5:fd:85:26:4a:3a:51:3b:0e:74:f0:
                    d4:5b:9c:b0:ff:41:8c:e3:b6:92:2b:71:54:a6:36:
                    e8:77:21:c8:74:86:ec:2f:9e:05:08:d8:66:63:b3:
                    c5:cb:1f:bb:14:f6:da:4d:00:ca:90:47:4b:ae:46:
                    92:84:40:e7:bb:51:db:b6:54:90:b6:ca:86:27:e5:
                    08:46:b6:49:22:c6:73:e0:a8:59:53:c9:4b:56:45:
                    80:e8:d5:73:17:5a:60:58:ea:08:9a:bc:d3:d6:db:
                    e7:c5
                Exponent: 65537 (0x10001)
        X509v3 extensions:
            X509v3 Basic Constraints: 
                CA:FALSE
            X509v3 Subject Key Identifier: 
                77:0D:7E:D9:88:E9:B9:A6:D5:3C:28:2C:A4:02:0F:4D:5F:03:28:B5
            X509v3 Authority Key Identifier: 
                keyid:AD:BC:FB:ED:81:2D:E6:73:EC:45:70:32:78:76:61:75:84:3F:2F:65
                DirName:/CN=team64-net
                serial:1C:32:FB:0A:C7:AE:F2:7C:84:6A:C6:7A:05:A3:B2:F6:60:59:9A:02

            X509v3 Extended Key Usage: 
                TLS Web Client Authentication
            X509v3 Key Usage: 
                Digital Signature
    Signature Algorithm: sha256WithRSAEncryption
         c1:e5:75:17:b0:dc:98:3f:bc:2d:63:e7:6c:54:6f:a4:90:1e:
         2e:b1:28:73:3c:52:79:1c:ff:ca:fa:d0:3d:f8:62:62:d8:6f:
         47:f6:97:1a:64:03:d5:61:55:29:39:d2:82:ed:9e:46:91:91:
         fb:a6:54:9e:bf:9c:c1:3a:0c:d8:5d:35:4c:91:ed:2b:13:6d:
         fc:21:88:55:23:59:28:96:19:9d:1a:49:1f:23:e0:e8:37:c9:
         e8:8c:dd:11:30:be:9b:b2:94:77:d8:6e:55:eb:57:72:75:61:
         a9:7d:35:bb:cd:6d:8b:6b:90:25:e2:15:4f:36:61:90:73:6c:
         84:d8:79:e6:c2:44:6d:d0:56:74:71:83:21:e8:c5:19:0f:47:
         25:3b:8d:92:0e:f2:cf:6a:24:52:a2:6b:6d:12:62:7d:42:9a:
         2c:e7:27:1c:09:fd:09:b1:54:eb:26:ad:dc:3b:65:ca:11:83:
         51:0a:ba:6e:2c:11:88:09:0c:3a:3f:a7:0c:5a:85:ef:86:4a:
         8a:b4:fb:bc:1a:50:65:b7:e8:37:40:24:fd:84:48:34:a8:4f:
         20:7a:c7:c9:c0:3e:08:49:77:40:b0:c3:1b:9a:d9:2e:92:97:
         cb:98:fe:bd:8c:e6:d9:59:e7:d6:d1:5e:7c:48:59:dc:56:55:
         3d:01:70:ec
-----BEGIN CERTIFICATE-----
MIIDWjCCAkKgAwIBAgIRAKE0uru5WkN39oN1CgmZ59IwDQYJKoZIhvcNAQELBQAw
FTETMBEGA1UEAwwKdGVhbTY0LW5ldDAeFw0yMTA5MTIyMzEzMDNaFw0yNDA4Mjcy
MzEzMDNaMBgxFjAUBgNVBAMMDXRlYW02NC1jbGllbnQwggEiMA0GCSqGSIb3DQEB
AQUAA4IBDwAwggEKAoIBAQDk4YjFUPNb6BJLm9pvBWhCW/3SGdssS6nftI3hYuSU
8G1Uaa4O9f/JNiP3z0I4QD3rE9mI8J1Dn/a0EKCsQLdptaTnYfT0xo8NNWu4YUBN
ILNCAM6O2aSV6UC8ilimm9raDGOGGtapwdk5B592/+uT9PAJ+4snueo0WQg1cjEd
kSdWzfFaiIO9tEUg8lEbBsI5BI0evI/vmOz1/YUmSjpROw508NRbnLD/QYzjtpIr
cVSmNuh3Ich0huwvngUI2GZjs8XLH7sU9tpNAMqQR0uuRpKEQOe7Udu2VJC2yoYn
5QhGtkkixnPgqFlTyUtWRYDo1XMXWmBY6giavNPW2+fFAgMBAAGjgaEwgZ4wCQYD
VR0TBAIwADAdBgNVHQ4EFgQUdw1+2YjpuabVPCgspAIPTV8DKLUwUAYDVR0jBEkw
R4AUrbz77YEt5nPsRXAyeHZhdYQ/L2WhGaQXMBUxEzARBgNVBAMMCnRlYW02NC1u
ZXSCFBwy+wrHrvJ8hGrGegWjsvZgWZoCMBMGA1UdJQQMMAoGCCsGAQUFBwMCMAsG
A1UdDwQEAwIHgDANBgkqhkiG9w0BAQsFAAOCAQEAweV1F7DcmD+8LWPnbFRvpJAe
LrEoczxSeRz/yvrQPfhiYthvR/aXGmQD1WFVKTnSgu2eRpGR+6ZUnr+cwToM2F01
TJHtKxNt/CGIVSNZKJYZnRpJHyPg6DfJ6IzdETC+m7KUd9huVetXcnVhqX01u81t
i2uQJeIVTzZhkHNshNh55sJEbdBWdHGDIejFGQ9HJTuNkg7yz2okUqJrbRJifUKa
LOcnHAn9CbFU6yat3DtlyhGDUQq6biwRiAkMOj+nDFqF74ZKirT7vBpQZbfoN0Ak
/YRINKhPIHrHycA+CEl3QLDDG5rZLpKXy5j+vYzm2Vnn1tFefEhZ3FZVPQFw7A==
-----END CERTIFICATE-----
