Certificate:
    Data:
        Version: 3 (0x2)
        Serial Number:
            ad:19:5b:b4:b9:c1:12:b0:84:40:00:b6:90:25:c9:4b
        Signature Algorithm: sha256WithRSAEncryption
        Issuer: CN=team125-net
        Validity
            Not Before: Sep 12 23:51:31 2021 GMT
            Not After : Aug 27 23:51:31 2024 GMT
        Subject: CN=team125-client
        Subject Public Key Info:
            Public Key Algorithm: rsaEncryption
                RSA Public-Key: (2048 bit)
                Modulus:
                    00:c6:dc:46:41:5b:35:f8:c0:f9:5d:86:10:2d:55:
                    05:39:69:80:4c:9a:f9:87:7c:d1:c2:3f:44:6f:a5:
                    2e:31:5e:4b:d8:4d:be:c9:99:82:9a:c0:97:08:04:
                    c2:36:c3:88:9f:6c:39:9f:ce:e8:53:4e:9e:57:61:
                    cd:32:f5:b7:07:94:c0:fb:17:b4:a5:94:13:e5:34:
                    f3:61:51:73:31:83:7f:c8:85:82:be:15:65:d0:53:
                    ff:32:a0:12:74:88:66:46:ef:6d:f4:fa:f4:33:e9:
                    c4:ce:21:bb:ee:8e:98:7d:36:e7:16:b7:5d:3f:bb:
                    93:aa:8f:8d:8d:f3:41:fc:dd:90:de:70:46:a7:2f:
                    70:ed:e9:89:9b:88:fe:58:63:71:86:ca:16:07:ef:
                    30:b8:27:de:50:4d:3e:49:08:50:d9:ac:0b:86:bb:
                    0a:d7:49:ee:64:39:13:e9:b1:ae:f9:dc:fb:e2:86:
                    24:99:bf:8b:fb:1b:53:a4:1f:e6:c2:94:1e:a3:8e:
                    1f:93:e2:84:21:f3:48:6a:6a:09:fc:57:87:e9:62:
                    76:8b:d9:46:27:ae:5a:8f:ad:97:e2:eb:69:e3:b0:
                    36:d1:b2:d8:c9:39:cb:69:10:86:72:e3:ed:39:d7:
                    df:0c:41:e5:ad:30:01:c6:b9:8a:a4:64:3a:8b:05:
                    0c:91
                Exponent: 65537 (0x10001)
        X509v3 extensions:
            X509v3 Basic Constraints: 
                CA:FALSE
            X509v3 Subject Key Identifier: 
                C1:61:0B:A4:49:3D:A2:9B:A4:46:17:10:AD:57:A9:8E:CA:CF:42:54
            X509v3 Authority Key Identifier: 
                keyid:0B:E8:3A:F8:6D:43:84:5F:9F:2B:69:5E:AD:46:48:FE:7D:D4:73:B7
                DirName:/CN=team125-net
                serial:1B:F5:1A:57:C3:5B:C5:7A:CD:2B:BE:F6:B2:31:EF:41:3C:A9:32:49

            X509v3 Extended Key Usage: 
                TLS Web Client Authentication
            X509v3 Key Usage: 
                Digital Signature
    Signature Algorithm: sha256WithRSAEncryption
         62:1a:22:f4:7c:82:e8:59:cd:b1:7c:40:91:23:69:23:80:4a:
         02:61:ae:97:72:96:f3:73:0a:a4:3c:3e:84:20:8b:fb:55:8a:
         f2:7e:c9:2b:09:3e:29:cf:47:36:c1:8f:7c:63:01:e7:55:20:
         ba:1d:cf:b5:bf:e4:cf:cc:ca:b3:db:4e:00:61:63:1b:3a:5a:
         d9:22:72:98:58:d0:18:72:ba:d3:4a:12:d4:a1:2c:3c:74:92:
         7a:6b:3b:5c:3b:e1:39:0f:20:52:8b:f1:24:aa:f9:cb:11:c3:
         8f:62:a2:31:4a:b5:c2:80:79:ca:b2:cb:6f:b4:f5:c2:e7:c9:
         f4:02:2f:d1:83:7a:48:42:8b:a6:e8:72:47:ed:c5:c4:ac:da:
         d9:3a:55:c1:b1:00:8d:e3:de:1d:df:d9:c5:26:c5:76:fa:1b:
         45:2b:3c:fb:2c:be:5f:b0:10:0d:5f:2f:24:b8:7b:c8:f9:cd:
         65:0f:a1:71:7b:63:1a:0e:84:40:f1:1e:95:56:ff:01:5e:6c:
         22:1d:0c:96:3d:34:88:af:46:eb:35:d2:0f:e0:d9:62:7e:36:
         c4:2a:30:6f:b2:f5:61:b7:b7:8c:7d:3b:d4:63:da:2c:08:fa:
         44:0c:29:0a:0d:48:27:55:64:e7:3b:5e:09:08:02:5e:0a:12:
         17:57:58:84
-----BEGIN CERTIFICATE-----
MIIDXTCCAkWgAwIBAgIRAK0ZW7S5wRKwhEAAtpAlyUswDQYJKoZIhvcNAQELBQAw
FjEUMBIGA1UEAwwLdGVhbTEyNS1uZXQwHhcNMjEwOTEyMjM1MTMxWhcNMjQwODI3
MjM1MTMxWjAZMRcwFQYDVQQDDA50ZWFtMTI1LWNsaWVudDCCASIwDQYJKoZIhvcN
AQEBBQADggEPADCCAQoCggEBAMbcRkFbNfjA+V2GEC1VBTlpgEya+Yd80cI/RG+l
LjFeS9hNvsmZgprAlwgEwjbDiJ9sOZ/O6FNOnldhzTL1tweUwPsXtKWUE+U082FR
czGDf8iFgr4VZdBT/zKgEnSIZkbvbfT69DPpxM4hu+6OmH025xa3XT+7k6qPjY3z
QfzdkN5wRqcvcO3piZuI/lhjcYbKFgfvMLgn3lBNPkkIUNmsC4a7CtdJ7mQ5E+mx
rvnc++KGJJm/i/sbU6Qf5sKUHqOOH5PihCHzSGpqCfxXh+lidovZRieuWo+tl+Lr
aeOwNtGy2Mk5y2kQhnLj7TnX3wxB5a0wAca5iqRkOosFDJECAwEAAaOBojCBnzAJ
BgNVHRMEAjAAMB0GA1UdDgQWBBTBYQukST2im6RGFxCtV6mOys9CVDBRBgNVHSME
SjBIgBQL6Dr4bUOEX58raV6tRkj+fdRzt6EapBgwFjEUMBIGA1UEAwwLdGVhbTEy
NS1uZXSCFBv1GlfDW8V6zSu+9rIx70E8qTJJMBMGA1UdJQQMMAoGCCsGAQUFBwMC
MAsGA1UdDwQEAwIHgDANBgkqhkiG9w0BAQsFAAOCAQEAYhoi9HyC6FnNsXxAkSNp
I4BKAmGul3KW83MKpDw+hCCL+1WK8n7JKwk+Kc9HNsGPfGMB51Uguh3Ptb/kz8zK
s9tOAGFjGzpa2SJymFjQGHK600oS1KEsPHSSems7XDvhOQ8gUovxJKr5yxHDj2Ki
MUq1woB5yrLLb7T1wufJ9AIv0YN6SEKLpuhyR+3FxKza2TpVwbEAjePeHd/ZxSbF
dvobRSs8+yy+X7AQDV8vJLh7yPnNZQ+hcXtjGg6EQPEelVb/AV5sIh0Mlj00iK9G
6zXSD+DZYn42xCowb7L1Ybe3jH071GPaLAj6RAwpCg1IJ1Vk5zteCQgCXgoSF1dY
hA==
-----END CERTIFICATE-----
