Certificate:
    Data:
        Version: 3 (0x2)
        Serial Number:
            29:f5:15:54:fe:8d:ba:f8:71:a3:63:97:1b:55:f1:c5
        Signature Algorithm: sha256WithRSAEncryption
        Issuer: CN=team506-net
        Validity
            Not Before: Sep 13 03:09:30 2021 GMT
            Not After : Aug 28 03:09:30 2024 GMT
        Subject: CN=team506-server
        Subject Public Key Info:
            Public Key Algorithm: rsaEncryption
                RSA Public-Key: (2048 bit)
                Modulus:
                    00:ad:7c:af:41:7a:34:1e:10:44:a2:94:f5:4e:04:
                    a1:e1:a6:30:0f:53:6e:b7:71:1e:3f:4a:d1:58:d8:
                    d2:ee:7d:c4:8c:ec:99:0b:ae:9e:e3:98:67:2b:dd:
                    0a:42:ba:5f:53:c4:89:25:8a:2d:0a:db:15:c0:84:
                    45:78:88:28:ba:86:cf:7b:45:cb:16:34:8d:68:c4:
                    a5:db:2f:4d:a3:b5:cf:01:74:0e:db:79:35:96:19:
                    22:07:07:59:e7:06:dd:0b:79:87:a3:03:38:77:99:
                    06:68:f7:db:b4:d1:7f:c2:ee:01:9a:81:b8:78:b6:
                    64:ee:75:56:33:32:7b:80:9c:03:13:46:80:55:70:
                    79:67:1a:75:b9:1e:66:4c:46:25:b9:e7:6e:ca:70:
                    b3:e2:2f:bc:2a:35:d5:d9:1e:64:f3:da:d0:13:41:
                    dc:31:e4:f3:b0:d5:6d:88:21:56:97:76:37:35:57:
                    59:f2:ae:d6:1c:6b:5f:ad:62:cd:a1:06:7c:48:e2:
                    44:0e:b2:69:a5:4f:67:cb:55:b6:0b:02:bd:61:74:
                    7e:39:88:e7:f2:de:7c:36:95:65:5c:06:64:70:ae:
                    3a:0a:29:86:5c:f3:8e:7d:2d:10:6c:b2:bd:12:27:
                    b6:92:5e:40:1d:58:8b:d3:ad:18:a9:db:31:32:be:
                    0f:9d
                Exponent: 65537 (0x10001)
        X509v3 extensions:
            X509v3 Basic Constraints: 
                CA:FALSE
            X509v3 Subject Key Identifier: 
                61:0C:E0:B7:9A:B0:92:01:7C:1D:62:AB:5B:33:AD:4A:26:24:2E:D1
            X509v3 Authority Key Identifier: 
                keyid:78:82:F0:5B:0B:77:1B:10:E9:FC:57:2A:32:49:35:84:9F:45:20:14
                DirName:/CN=team506-net
                serial:43:45:EC:91:52:27:2E:03:B5:BB:8F:71:1F:0C:38:AB:DE:63:DC:B8

            X509v3 Extended Key Usage: 
                TLS Web Server Authentication
            X509v3 Key Usage: 
                Digital Signature, Key Encipherment
            X509v3 Subject Alternative Name: 
                DNS:team506-server
    Signature Algorithm: sha256WithRSAEncryption
         27:cd:9e:b4:b1:e1:9b:ea:b7:f8:f0:c3:a3:47:fe:ca:18:da:
         6a:14:30:df:0d:af:b5:79:af:d1:05:c2:10:3e:db:d4:a5:31:
         53:7b:c9:4b:9f:be:23:5f:03:58:06:fd:fb:d9:1b:2d:58:b2:
         e2:60:df:4d:57:db:e0:b8:c7:e5:6a:07:8f:b2:0f:ac:fb:86:
         2b:d9:2c:3b:6e:29:02:11:71:eb:3d:30:97:e8:45:ab:5f:ca:
         da:0e:65:0c:ec:f4:a6:ca:6a:42:c5:de:12:d2:63:ce:26:7e:
         36:cb:8f:4f:23:f8:20:de:b7:ba:3f:50:4f:9e:aa:f9:7a:2f:
         43:2e:5a:94:47:65:fd:2c:d9:10:6c:fe:92:57:6b:d6:a2:5b:
         2b:37:bd:fb:dd:33:fd:be:e0:a9:df:71:b9:e2:18:42:8b:80:
         17:41:ab:de:08:82:f5:1d:b1:ed:b4:ef:68:e3:24:40:d2:53:
         3e:98:c6:8d:d9:b3:e5:09:2a:9e:b5:13:a9:53:d3:67:b0:63:
         da:89:91:d6:a1:de:84:86:1d:4e:c8:2b:44:ca:a0:97:94:c3:
         e1:d4:38:5b:10:0a:1a:12:97:9d:18:99:c8:d1:67:32:aa:92:
         c8:0d:51:54:8d:f6:7d:56:46:83:b8:d2:7e:84:a7:54:a3:2f:
         79:65:59:15
-----BEGIN CERTIFICATE-----
MIIDdzCCAl+gAwIBAgIQKfUVVP6Nuvhxo2OXG1XxxTANBgkqhkiG9w0BAQsFADAW
MRQwEgYDVQQDDAt0ZWFtNTA2LW5ldDAeFw0yMTA5MTMwMzA5MzBaFw0yNDA4Mjgw
MzA5MzBaMBkxFzAVBgNVBAMMDnRlYW01MDYtc2VydmVyMIIBIjANBgkqhkiG9w0B
AQEFAAOCAQ8AMIIBCgKCAQEArXyvQXo0HhBEopT1TgSh4aYwD1Nut3EeP0rRWNjS
7n3EjOyZC66e45hnK90KQrpfU8SJJYotCtsVwIRFeIgouobPe0XLFjSNaMSl2y9N
o7XPAXQO23k1lhkiBwdZ5wbdC3mHowM4d5kGaPfbtNF/wu4BmoG4eLZk7nVWMzJ7
gJwDE0aAVXB5Zxp1uR5mTEYlueduynCz4i+8KjXV2R5k89rQE0HcMeTzsNVtiCFW
l3Y3NVdZ8q7WHGtfrWLNoQZ8SOJEDrJppU9ny1W2CwK9YXR+OYjn8t58NpVlXAZk
cK46CimGXPOOfS0QbLK9Eie2kl5AHViL060YqdsxMr4PnQIDAQABo4G9MIG6MAkG
A1UdEwQCMAAwHQYDVR0OBBYEFGEM4LeasJIBfB1iq1szrUomJC7RMFEGA1UdIwRK
MEiAFHiC8FsLdxsQ6fxXKjJJNYSfRSAUoRqkGDAWMRQwEgYDVQQDDAt0ZWFtNTA2
LW5ldIIUQ0XskVInLgO1u49xHww4q95j3LgwEwYDVR0lBAwwCgYIKwYBBQUHAwEw
CwYDVR0PBAQDAgWgMBkGA1UdEQQSMBCCDnRlYW01MDYtc2VydmVyMA0GCSqGSIb3
DQEBCwUAA4IBAQAnzZ60seGb6rf48MOjR/7KGNpqFDDfDa+1ea/RBcIQPtvUpTFT
e8lLn74jXwNYBv372RstWLLiYN9NV9vguMflagePsg+s+4Yr2Sw7bikCEXHrPTCX
6EWrX8raDmUM7PSmympCxd4S0mPOJn42y49PI/gg3re6P1BPnqr5ei9DLlqUR2X9
LNkQbP6SV2vWolsrN7373TP9vuCp33G54hhCi4AXQaveCIL1HbHttO9o4yRA0lM+
mMaN2bPlCSqetROpU9NnsGPaiZHWod6Ehh1OyCtEyqCXlMPh1DhbEAoaEpedGJnI
0WcyqpLIDVFUjfZ9VkaDuNJ+hKdUoy95ZVkV
-----END CERTIFICATE-----
