Certificate:
    Data:
        Version: 3 (0x2)
        Serial Number:
            89:64:73:1b:8c:04:d0:2b:4e:fb:3c:17:6f:35:31:91
        Signature Algorithm: sha256WithRSAEncryption
        Issuer: CN=team506-net
        Validity
            Not Before: Sep 13 03:09:30 2021 GMT
            Not After : Aug 28 03:09:30 2024 GMT
        Subject: CN=team506-client
        Subject Public Key Info:
            Public Key Algorithm: rsaEncryption
                RSA Public-Key: (2048 bit)
                Modulus:
                    00:b2:5b:ba:26:b1:17:d0:79:57:0c:3c:6b:d4:e4:
                    c8:05:b5:00:d6:d2:e2:35:9e:59:fc:ec:d5:83:a0:
                    13:f0:49:e5:e0:ff:d8:32:db:d9:e6:34:63:45:a2:
                    38:ea:0d:67:9f:51:52:6d:41:b1:f0:aa:d5:ef:f2:
                    20:d1:c3:8f:02:1d:ed:95:ab:26:c5:f7:b7:b6:f4:
                    15:58:99:0a:fe:fd:5f:93:f7:eb:d3:af:80:a1:06:
                    6e:ba:c8:78:43:d8:d8:1f:c7:7d:3d:51:05:16:af:
                    f6:39:a2:6b:6b:0f:10:ca:84:6d:fa:b9:7f:cb:c9:
                    91:12:7b:34:47:6c:f4:09:35:36:7e:67:a0:64:e2:
                    45:d8:52:08:e0:1c:73:a7:68:92:92:9e:36:e9:51:
                    ea:c4:fe:a6:04:4f:09:2f:3f:66:46:af:23:49:c2:
                    be:8d:a7:a3:cb:1b:c6:d0:6e:58:b2:44:61:11:be:
                    dd:51:78:3d:b5:d5:83:b8:23:34:37:bc:dc:01:62:
                    73:ce:10:a1:44:a8:68:24:43:f8:ff:d1:a5:44:b2:
                    45:62:d2:61:5e:90:f7:5b:1f:f9:6e:cc:24:c8:cd:
                    b8:74:ee:4a:85:dc:cb:fb:9e:40:b2:6d:ab:c7:c7:
                    2b:24:b7:56:a1:26:38:1e:9f:16:f8:22:5c:d6:00:
                    ab:3d
                Exponent: 65537 (0x10001)
        X509v3 extensions:
            X509v3 Basic Constraints: 
                CA:FALSE
            X509v3 Subject Key Identifier: 
                FB:7C:3B:B4:DC:A9:07:B1:67:2B:CF:8B:C1:EE:31:6F:E8:6C:08:6F
            X509v3 Authority Key Identifier: 
                keyid:78:82:F0:5B:0B:77:1B:10:E9:FC:57:2A:32:49:35:84:9F:45:20:14
                DirName:/CN=team506-net
                serial:43:45:EC:91:52:27:2E:03:B5:BB:8F:71:1F:0C:38:AB:DE:63:DC:B8

            X509v3 Extended Key Usage: 
                TLS Web Client Authentication
            X509v3 Key Usage: 
                Digital Signature
    Signature Algorithm: sha256WithRSAEncryption
         4d:fd:60:fe:3e:92:67:73:9e:39:3d:f5:e2:4a:de:52:87:3d:
         f7:29:48:77:72:f4:94:0f:55:eb:80:07:f6:56:08:66:46:1b:
         ca:fd:7e:de:4e:82:7c:78:c0:9b:09:94:b5:a0:85:a9:74:00:
         2b:66:9f:f8:65:83:4c:ae:23:aa:6d:12:2e:68:28:dc:76:e7:
         d7:ab:a1:54:a9:85:2e:4e:c9:1e:5c:a2:ca:df:80:04:c6:53:
         17:12:20:0e:a8:d8:e2:97:2b:02:c5:e2:ca:d6:33:a7:31:7e:
         6b:bc:ad:5d:fd:8f:60:65:ba:ec:fd:31:fd:f7:ec:ec:ab:d5:
         94:ec:98:53:b6:e7:e5:4a:6d:d4:39:2f:29:d0:73:a2:3c:4b:
         b9:1f:11:b3:f1:c8:ae:f4:97:82:2a:09:aa:7b:a0:8f:e3:ba:
         ef:85:33:b2:ae:36:fb:ec:c4:36:f9:ff:21:a4:49:8a:f0:d6:
         80:bb:18:f7:e2:08:35:8e:9d:42:d9:83:75:b8:6a:10:a8:61:
         42:30:52:50:30:31:85:d4:72:db:80:61:6b:fa:17:85:58:10:
         41:d2:15:10:48:99:49:56:79:57:3f:f9:1b:5b:44:13:42:0d:
         97:c1:d5:88:40:00:30:2a:94:6f:39:d3:8f:42:c0:d4:64:ef:
         cd:4e:38:70
-----BEGIN CERTIFICATE-----
MIIDXTCCAkWgAwIBAgIRAIlkcxuMBNArTvs8F281MZEwDQYJKoZIhvcNAQELBQAw
FjEUMBIGA1UEAwwLdGVhbTUwNi1uZXQwHhcNMjEwOTEzMDMwOTMwWhcNMjQwODI4
MDMwOTMwWjAZMRcwFQYDVQQDDA50ZWFtNTA2LWNsaWVudDCCASIwDQYJKoZIhvcN
AQEBBQADggEPADCCAQoCggEBALJbuiaxF9B5Vww8a9TkyAW1ANbS4jWeWfzs1YOg
E/BJ5eD/2DLb2eY0Y0WiOOoNZ59RUm1BsfCq1e/yINHDjwId7ZWrJsX3t7b0FViZ
Cv79X5P369OvgKEGbrrIeEPY2B/HfT1RBRav9jmia2sPEMqEbfq5f8vJkRJ7NEds
9Ak1Nn5noGTiRdhSCOAcc6dokpKeNulR6sT+pgRPCS8/ZkavI0nCvo2no8sbxtBu
WLJEYRG+3VF4PbXVg7gjNDe83AFic84QoUSoaCRD+P/RpUSyRWLSYV6Q91sf+W7M
JMjNuHTuSoXcy/ueQLJtq8fHKyS3VqEmOB6fFvgiXNYAqz0CAwEAAaOBojCBnzAJ
BgNVHRMEAjAAMB0GA1UdDgQWBBT7fDu03KkHsWcrz4vB7jFv6GwIbzBRBgNVHSME
SjBIgBR4gvBbC3cbEOn8VyoySTWEn0UgFKEapBgwFjEUMBIGA1UEAwwLdGVhbTUw
Ni1uZXSCFENF7JFSJy4DtbuPcR8MOKveY9y4MBMGA1UdJQQMMAoGCCsGAQUFBwMC
MAsGA1UdDwQEAwIHgDANBgkqhkiG9w0BAQsFAAOCAQEATf1g/j6SZ3OeOT314kre
Uoc99ylId3L0lA9V64AH9lYIZkYbyv1+3k6CfHjAmwmUtaCFqXQAK2af+GWDTK4j
qm0SLmgo3Hbn16uhVKmFLk7JHlyiyt+ABMZTFxIgDqjY4pcrAsXiytYzpzF+a7yt
Xf2PYGW67P0x/ffs7KvVlOyYU7bn5Upt1DkvKdBzojxLuR8Rs/HIrvSXgioJqnug
j+O674Uzsq42++zENvn/IaRJivDWgLsY9+IINY6dQtmDdbhqEKhhQjBSUDAxhdRy
24Bha/oXhVgQQdIVEEiZSVZ5Vz/5G1tEE0INl8HViEAAMCqUbznTj0LA1GTvzU44
cA==
-----END CERTIFICATE-----
