Certificate:
    Data:
        Version: 3 (0x2)
        Serial Number:
            3b:90:99:d2:ce:c9:2e:8d:77:89:b0:cb:08:70:3f:50
        Signature Algorithm: sha256WithRSAEncryption
        Issuer: CN=team431-net
        Validity
            Not Before: Sep 13 02:41:29 2021 GMT
            Not After : Aug 28 02:41:29 2024 GMT
        Subject: CN=team431-client
        Subject Public Key Info:
            Public Key Algorithm: rsaEncryption
                RSA Public-Key: (2048 bit)
                Modulus:
                    00:ee:cd:4d:d3:6e:80:f9:48:ca:7b:1c:c1:07:8b:
                    fa:e3:3a:f5:2b:30:fd:cc:c2:75:e8:2e:4c:9a:dd:
                    bd:0f:46:28:35:4b:e3:76:2b:c6:e3:f5:57:32:bd:
                    0b:e8:3d:e4:54:eb:a5:86:38:cc:6e:eb:f5:b7:78:
                    5e:53:8b:a1:28:66:ea:0e:fe:b0:22:b1:b5:ff:42:
                    5e:bf:0f:5d:65:25:28:68:72:c9:53:01:25:e7:28:
                    5d:e7:bf:59:04:04:de:de:84:d4:a0:09:a7:0f:a3:
                    c5:cd:6c:d1:d4:7c:00:6e:0c:26:d5:44:ce:19:a0:
                    22:22:7a:eb:a6:76:12:2b:9c:ef:3e:61:62:6c:4d:
                    73:64:71:73:f0:62:ba:02:1b:9d:d8:7c:f4:a0:f8:
                    10:ce:23:07:2b:07:2d:eb:d0:29:f9:7e:ec:cf:73:
                    bf:d6:a6:ef:65:63:21:33:97:97:5e:8e:69:1e:a5:
                    98:06:a6:6d:82:6f:7a:6e:c9:c3:5f:b8:96:a2:18:
                    b1:b0:e5:b0:11:bb:81:5c:32:d8:a1:3d:3c:43:a8:
                    c6:69:78:93:d9:34:29:ee:b2:00:0a:58:01:f0:df:
                    67:16:69:e3:f1:ff:fa:1b:0f:f8:3e:35:88:84:55:
                    ed:42:00:51:68:36:6b:dd:41:fd:fc:e2:1e:45:5a:
                    07:2d
                Exponent: 65537 (0x10001)
        X509v3 extensions:
            X509v3 Basic Constraints: 
                CA:FALSE
            X509v3 Subject Key Identifier: 
                F5:F9:6E:0F:1B:0D:22:79:CA:31:A9:C3:3F:52:10:5B:98:36:0A:D7
            X509v3 Authority Key Identifier: 
                keyid:34:15:F9:E6:98:6F:FC:E8:41:80:95:0E:92:11:36:E9:F1:3A:E0:54
                DirName:/CN=team431-net
                serial:36:8C:64:D8:79:E2:4A:AD:25:A9:BB:C6:15:D1:19:45:89:31:11:BF

            X509v3 Extended Key Usage: 
                TLS Web Client Authentication
            X509v3 Key Usage: 
                Digital Signature
    Signature Algorithm: sha256WithRSAEncryption
         93:97:6a:51:8a:f0:5c:b3:97:d9:b1:3b:01:e8:08:dc:82:46:
         c6:7e:27:d9:b7:16:67:5e:5f:0c:23:fa:3f:78:1c:ed:c1:91:
         33:01:2e:12:40:a8:71:cf:a3:b0:eb:87:f7:8e:4c:3c:08:b8:
         80:13:0d:4a:5d:a4:91:9f:44:81:fd:cc:4f:c8:78:5c:b2:f9:
         e0:81:ce:66:0c:97:1b:e8:ea:7c:f9:22:9f:05:5c:3e:14:df:
         e5:ef:e2:fc:bb:28:ee:98:bd:38:63:04:45:ba:4c:9b:6c:3a:
         97:dd:d7:bd:96:60:5d:55:c9:24:e0:64:dc:da:bd:1c:92:80:
         b5:86:79:37:d5:31:8f:49:54:04:6e:f3:bb:f5:3a:06:c6:2d:
         a4:0f:a8:7b:46:55:0f:24:b5:af:ad:4f:ca:ec:4d:f1:22:7a:
         69:b3:c4:0c:a6:fc:36:52:aa:70:49:ae:07:12:cb:e8:ba:9c:
         30:b7:bd:31:14:83:be:53:f8:47:ec:e1:49:01:65:19:52:1e:
         05:1a:c3:d7:d0:e9:7c:d0:bc:9e:1a:36:bc:8e:4e:c7:73:e6:
         15:2c:67:68:68:6b:f7:94:63:06:76:c4:a7:16:6b:e1:10:3c:
         9d:de:f0:3e:0a:56:49:1d:92:d7:a0:2e:03:9d:05:47:e5:22:
         9e:b1:8e:ed
-----BEGIN CERTIFICATE-----
MIIDXDCCAkSgAwIBAgIQO5CZ0s7JLo13ibDLCHA/UDANBgkqhkiG9w0BAQsFADAW
MRQwEgYDVQQDDAt0ZWFtNDMxLW5ldDAeFw0yMTA5MTMwMjQxMjlaFw0yNDA4Mjgw
MjQxMjlaMBkxFzAVBgNVBAMMDnRlYW00MzEtY2xpZW50MIIBIjANBgkqhkiG9w0B
AQEFAAOCAQ8AMIIBCgKCAQEA7s1N026A+UjKexzBB4v64zr1KzD9zMJ16C5Mmt29
D0YoNUvjdivG4/VXMr0L6D3kVOulhjjMbuv1t3heU4uhKGbqDv6wIrG1/0Jevw9d
ZSUoaHLJUwEl5yhd579ZBATe3oTUoAmnD6PFzWzR1HwAbgwm1UTOGaAiInrrpnYS
K5zvPmFibE1zZHFz8GK6Ahud2Hz0oPgQziMHKwct69Ap+X7sz3O/1qbvZWMhM5eX
Xo5pHqWYBqZtgm96bsnDX7iWohixsOWwEbuBXDLYoT08Q6jGaXiT2TQp7rIAClgB
8N9nFmnj8f/6Gw/4PjWIhFXtQgBRaDZr3UH9/OIeRVoHLQIDAQABo4GiMIGfMAkG
A1UdEwQCMAAwHQYDVR0OBBYEFPX5bg8bDSJ5yjGpwz9SEFuYNgrXMFEGA1UdIwRK
MEiAFDQV+eaYb/zoQYCVDpIRNunxOuBUoRqkGDAWMRQwEgYDVQQDDAt0ZWFtNDMx
LW5ldIIUNoxk2HniSq0lqbvGFdEZRYkxEb8wEwYDVR0lBAwwCgYIKwYBBQUHAwIw
CwYDVR0PBAQDAgeAMA0GCSqGSIb3DQEBCwUAA4IBAQCTl2pRivBcs5fZsTsB6Ajc
gkbGfifZtxZnXl8MI/o/eBztwZEzAS4SQKhxz6Ow64f3jkw8CLiAEw1KXaSRn0SB
/cxPyHhcsvnggc5mDJcb6Op8+SKfBVw+FN/l7+L8uyjumL04YwRFukybbDqX3de9
lmBdVckk4GTc2r0ckoC1hnk31TGPSVQEbvO79ToGxi2kD6h7RlUPJLWvrU/K7E3x
Inpps8QMpvw2UqpwSa4HEsvoupwwt70xFIO+U/hH7OFJAWUZUh4FGsPX0Ol80Lye
Gja8jk7Hc+YVLGdoaGv3lGMGdsSnFmvhEDyd3vA+ClZJHZLXoC4DnQVH5SKesY7t
-----END CERTIFICATE-----
