Certificate:
    Data:
        Version: 3 (0x2)
        Serial Number:
            28:9c:8c:54:65:29:42:df:6a:40:fb:b2:78:b1:4b:24
        Signature Algorithm: sha256WithRSAEncryption
        Issuer: CN=team195-net
        Validity
            Not Before: Sep 13 00:34:13 2021 GMT
            Not After : Aug 28 00:34:13 2024 GMT
        Subject: CN=team195-client
        Subject Public Key Info:
            Public Key Algorithm: rsaEncryption
                RSA Public-Key: (2048 bit)
                Modulus:
                    00:b5:ce:7e:ba:b4:45:2b:39:fc:69:e3:a2:4b:c3:
                    38:7f:06:33:3b:91:34:ec:cf:ed:96:94:4a:ca:3d:
                    d5:f3:37:a2:63:9c:a6:6e:86:82:a0:67:f5:7c:bb:
                    ae:6a:41:f7:bf:f1:f9:81:07:f9:3d:c2:33:63:f7:
                    c8:2d:52:b6:c6:c0:83:bf:58:2c:27:25:42:0c:c8:
                    14:12:00:89:16:bc:2a:70:7a:b2:d1:14:f7:9a:93:
                    1a:d0:98:e1:4d:cd:91:6e:47:f4:9d:c3:24:7c:97:
                    06:30:51:f5:60:5f:dc:1f:e9:2e:95:d9:08:cb:33:
                    28:ee:db:bd:34:f2:ba:6a:a4:26:8b:4c:83:b6:e8:
                    9f:68:bb:f2:17:a9:1f:aa:70:47:42:55:14:1d:9f:
                    40:53:64:08:14:4b:04:46:84:5a:38:26:17:5c:50:
                    a7:da:6a:1f:aa:c5:00:8b:e8:8b:38:98:7b:fd:2b:
                    0e:19:a9:08:1f:05:bf:73:e4:e4:0c:af:7a:ea:33:
                    c5:f1:a7:29:69:bc:72:18:c9:61:55:3f:5d:b7:11:
                    6f:c8:4e:6c:c7:cf:4d:2f:97:9f:ed:a5:cb:09:36:
                    5c:2b:20:6f:9d:f7:6d:4e:b6:1f:8a:98:56:a7:cb:
                    75:ca:8b:d6:d5:64:0b:0b:6d:70:98:cf:7f:f5:cd:
                    91:13
                Exponent: 65537 (0x10001)
        X509v3 extensions:
            X509v3 Basic Constraints: 
                CA:FALSE
            X509v3 Subject Key Identifier: 
                9D:B2:F4:B8:68:57:23:BD:0B:0D:AA:90:8F:43:26:9D:B6:12:94:7C
            X509v3 Authority Key Identifier: 
                keyid:E6:B0:CB:F2:1F:80:77:A7:21:61:6A:B6:46:B3:04:F9:3E:A5:8E:69
                DirName:/CN=team195-net
                serial:3C:AE:C0:2F:CE:9A:2A:33:F8:98:2B:21:5C:AB:FB:14:6A:5C:F1:D0

            X509v3 Extended Key Usage: 
                TLS Web Client Authentication
            X509v3 Key Usage: 
                Digital Signature
    Signature Algorithm: sha256WithRSAEncryption
         8d:6f:f2:03:ce:7c:84:e6:2b:01:4b:3f:db:83:58:43:11:5a:
         06:35:02:7b:64:95:bb:10:53:cd:49:e6:e3:98:86:4a:59:19:
         05:60:91:de:4e:9a:05:81:0d:46:d5:cc:d8:dc:6d:45:67:0c:
         33:94:57:0c:de:40:67:6c:87:cb:3a:61:fa:ea:75:5c:32:0b:
         1c:1a:86:95:c4:29:ef:d1:21:e5:9f:98:f1:eb:7d:c7:a0:5c:
         14:6d:f8:5d:81:a8:8a:1c:d5:9c:5c:3a:76:d7:5d:fe:dd:b8:
         a4:44:02:8f:d3:18:c1:e8:74:69:b4:9f:68:6e:f4:07:4f:41:
         57:f9:71:44:9a:1e:42:21:ae:a9:4e:88:7d:4e:cc:c7:63:c6:
         ce:1a:a9:6b:7a:6e:dc:68:65:45:42:a2:9c:40:d8:da:0d:bb:
         02:53:56:60:31:bd:a4:43:ed:6d:45:7b:94:78:c0:e0:2c:90:
         9e:20:30:9b:53:8e:dd:69:29:90:58:c8:16:72:6f:88:00:e7:
         4a:ed:de:1a:a5:28:a5:20:32:ad:5b:43:f7:fa:40:49:f3:eb:
         a0:78:f5:98:64:55:f7:80:ab:53:db:c1:70:f3:a0:84:4c:b5:
         8d:33:dd:30:2a:48:2a:06:65:e9:2d:2a:4b:58:f6:2c:e2:f1:
         c9:fc:9e:82
-----BEGIN CERTIFICATE-----
MIIDXDCCAkSgAwIBAgIQKJyMVGUpQt9qQPuyeLFLJDANBgkqhkiG9w0BAQsFADAW
MRQwEgYDVQQDDAt0ZWFtMTk1LW5ldDAeFw0yMTA5MTMwMDM0MTNaFw0yNDA4Mjgw
MDM0MTNaMBkxFzAVBgNVBAMMDnRlYW0xOTUtY2xpZW50MIIBIjANBgkqhkiG9w0B
AQEFAAOCAQ8AMIIBCgKCAQEAtc5+urRFKzn8aeOiS8M4fwYzO5E07M/tlpRKyj3V
8zeiY5ymboaCoGf1fLuuakH3v/H5gQf5PcIzY/fILVK2xsCDv1gsJyVCDMgUEgCJ
FrwqcHqy0RT3mpMa0JjhTc2Rbkf0ncMkfJcGMFH1YF/cH+kuldkIyzMo7tu9NPK6
aqQmi0yDtuifaLvyF6kfqnBHQlUUHZ9AU2QIFEsERoRaOCYXXFCn2mofqsUAi+iL
OJh7/SsOGakIHwW/c+TkDK966jPF8acpabxyGMlhVT9dtxFvyE5sx89NL5ef7aXL
CTZcKyBvnfdtTrYfiphWp8t1yovW1WQLC21wmM9/9c2REwIDAQABo4GiMIGfMAkG
A1UdEwQCMAAwHQYDVR0OBBYEFJ2y9LhoVyO9Cw2qkI9DJp22EpR8MFEGA1UdIwRK
MEiAFOawy/IfgHenIWFqtkazBPk+pY5poRqkGDAWMRQwEgYDVQQDDAt0ZWFtMTk1
LW5ldIIUPK7AL86aKjP4mCshXKv7FGpc8dAwEwYDVR0lBAwwCgYIKwYBBQUHAwIw
CwYDVR0PBAQDAgeAMA0GCSqGSIb3DQEBCwUAA4IBAQCNb/IDznyE5isBSz/bg1hD
EVoGNQJ7ZJW7EFPNSebjmIZKWRkFYJHeTpoFgQ1G1czY3G1FZwwzlFcM3kBnbIfL
OmH66nVcMgscGoaVxCnv0SHln5jx633HoFwUbfhdgaiKHNWcXDp2113+3bikRAKP
0xjB6HRptJ9obvQHT0FX+XFEmh5CIa6pToh9TszHY8bOGqlrem7caGVFQqKcQNja
DbsCU1ZgMb2kQ+1tRXuUeMDgLJCeIDCbU47daSmQWMgWcm+IAOdK7d4apSilIDKt
W0P3+kBJ8+ugePWYZFX3gKtT28Fw86CETLWNM90wKkgqBmXpLSpLWPYs4vHJ/J6C
-----END CERTIFICATE-----
