Certificate:
    Data:
        Version: 3 (0x2)
        Serial Number:
            47:12:8b:d9:48:13:f6:d6:91:08:3d:98:4d:4d:49:c1
        Signature Algorithm: sha256WithRSAEncryption
        Issuer: CN=team73-net
        Validity
            Not Before: Sep 12 23:20:22 2021 GMT
            Not After : Aug 27 23:20:22 2024 GMT
        Subject: CN=team73-server
        Subject Public Key Info:
            Public Key Algorithm: rsaEncryption
                RSA Public-Key: (2048 bit)
                Modulus:
                    00:bf:f6:45:59:1e:d1:a3:df:58:1e:aa:4f:1a:65:
                    a4:88:3a:b3:65:cc:2a:56:32:6f:e6:c1:38:f5:04:
                    52:d7:3d:0f:55:fc:44:9e:be:74:69:94:b9:0f:53:
                    6d:84:b1:80:cd:88:44:ac:b2:99:3e:03:30:e8:b2:
                    27:bc:31:fe:b9:77:8b:55:5b:64:cd:c0:d5:60:a5:
                    9c:b3:d7:d8:25:fc:62:9d:7d:96:68:20:8c:95:fe:
                    55:50:b0:15:91:4a:a1:1e:9c:ac:29:5b:23:4d:04:
                    cf:1c:f4:1f:42:7c:4d:65:09:85:56:3d:29:79:b7:
                    f4:74:56:55:ad:b6:59:f6:30:74:fb:c8:96:67:66:
                    d7:ff:2d:57:4a:e1:c6:f3:5b:44:3c:db:c1:23:01:
                    22:13:fd:70:0d:18:a2:71:78:ac:04:94:91:c0:55:
                    63:d2:57:16:c7:d8:f9:c8:39:3c:f2:5c:e1:2e:81:
                    41:3b:82:77:e4:f5:69:f5:cc:06:84:6c:64:a2:86:
                    b2:48:54:9f:ea:84:14:b1:5e:a3:f9:66:c2:11:0f:
                    b8:5a:79:7f:ac:43:9c:82:42:75:db:12:5d:65:91:
                    bb:52:71:f8:88:24:41:aa:6f:2f:61:ff:47:5e:f2:
                    66:61:81:89:58:de:ac:72:d3:9a:41:7b:4f:3d:78:
                    07:9f
                Exponent: 65537 (0x10001)
        X509v3 extensions:
            X509v3 Basic Constraints: 
                CA:FALSE
            X509v3 Subject Key Identifier: 
                2E:94:19:F1:58:28:56:C2:73:E4:1F:B4:C9:91:E6:EA:34:84:3C:0F
            X509v3 Authority Key Identifier: 
                keyid:97:89:44:DD:E6:2C:F4:37:50:FC:40:7C:EF:00:CF:2B:92:5D:BF:58
                DirName:/CN=team73-net
                serial:22:B6:A4:EB:3C:67:2A:E2:F2:9C:C5:3F:99:F5:34:98:62:B7:16:F9

            X509v3 Extended Key Usage: 
                TLS Web Server Authentication
            X509v3 Key Usage: 
                Digital Signature, Key Encipherment
            X509v3 Subject Alternative Name: 
                DNS:team73-server
    Signature Algorithm: sha256WithRSAEncryption
         66:06:41:c8:8f:d6:f3:9a:04:0d:1d:51:26:5b:ec:9b:da:40:
         92:65:b4:a0:a4:0d:f1:8f:8a:5c:c5:fa:8f:5a:0a:d3:4a:74:
         30:f4:69:7a:4e:a4:7d:52:8f:96:d2:5c:6b:86:4c:4d:5a:c8:
         ec:b5:3a:98:9c:99:7c:d0:03:a9:93:ab:b0:fc:4d:4f:3b:bf:
         f8:06:65:ce:ab:9d:fb:b5:4a:b2:df:b8:eb:35:b3:e1:2b:a3:
         0c:34:ed:0e:aa:73:c1:f8:10:b8:51:1a:08:24:53:fd:4f:b6:
         ca:40:af:28:51:4d:ed:84:d8:03:0e:ab:d0:d8:1c:8c:df:28:
         0b:31:a3:e3:7a:51:3c:af:ff:f5:0f:07:dd:ce:5c:59:ff:a0:
         96:eb:db:93:2a:36:0a:84:6a:58:6c:a8:65:d7:ad:5c:2f:44:
         2e:1c:96:49:82:7d:d1:47:75:68:8f:88:0f:56:f4:22:b1:1c:
         b3:c7:07:c5:93:86:94:e4:62:cd:7b:5f:54:fc:18:e9:92:ff:
         36:01:9c:0a:1b:57:88:a2:77:63:6d:2c:62:61:94:3a:77:89:
         83:02:ea:80:17:11:e2:8f:b2:3f:e3:f7:bf:4a:d7:c8:bc:9c:
         19:b3:3d:4e:4e:d3:00:33:5c:50:8b:fc:8c:bf:e9:d9:18:35:
         c5:69:a5:aa
-----BEGIN CERTIFICATE-----
MIIDczCCAlugAwIBAgIQRxKL2UgT9taRCD2YTU1JwTANBgkqhkiG9w0BAQsFADAV
MRMwEQYDVQQDDAp0ZWFtNzMtbmV0MB4XDTIxMDkxMjIzMjAyMloXDTI0MDgyNzIz
MjAyMlowGDEWMBQGA1UEAwwNdGVhbTczLXNlcnZlcjCCASIwDQYJKoZIhvcNAQEB
BQADggEPADCCAQoCggEBAL/2RVke0aPfWB6qTxplpIg6s2XMKlYyb+bBOPUEUtc9
D1X8RJ6+dGmUuQ9TbYSxgM2IRKyymT4DMOiyJ7wx/rl3i1VbZM3A1WClnLPX2CX8
Yp19lmggjJX+VVCwFZFKoR6crClbI00Ezxz0H0J8TWUJhVY9KXm39HRWVa22WfYw
dPvIlmdm1/8tV0rhxvNbRDzbwSMBIhP9cA0YonF4rASUkcBVY9JXFsfY+cg5PPJc
4S6BQTuCd+T1afXMBoRsZKKGskhUn+qEFLFeo/lmwhEPuFp5f6xDnIJCddsSXWWR
u1Jx+IgkQapvL2H/R17yZmGBiVjerHLTmkF7Tz14B58CAwEAAaOBuzCBuDAJBgNV
HRMEAjAAMB0GA1UdDgQWBBQulBnxWChWwnPkH7TJkebqNIQ8DzBQBgNVHSMESTBH
gBSXiUTd5iz0N1D8QHzvAM8rkl2/WKEZpBcwFTETMBEGA1UEAwwKdGVhbTczLW5l
dIIUIrak6zxnKuLynMU/mfU0mGK3FvkwEwYDVR0lBAwwCgYIKwYBBQUHAwEwCwYD
VR0PBAQDAgWgMBgGA1UdEQQRMA+CDXRlYW03My1zZXJ2ZXIwDQYJKoZIhvcNAQEL
BQADggEBAGYGQciP1vOaBA0dUSZb7JvaQJJltKCkDfGPilzF+o9aCtNKdDD0aXpO
pH1Sj5bSXGuGTE1ayOy1OpicmXzQA6mTq7D8TU87v/gGZc6rnfu1SrLfuOs1s+Er
oww07Q6qc8H4ELhRGggkU/1PtspAryhRTe2E2AMOq9DYHIzfKAsxo+N6UTyv//UP
B93OXFn/oJbr25MqNgqEalhsqGXXrVwvRC4clkmCfdFHdWiPiA9W9CKxHLPHB8WT
hpTkYs17X1T8GOmS/zYBnAobV4iid2NtLGJhlDp3iYMC6oAXEeKPsj/j979K18i8
nBmzPU5O0wAzXFCL/Iy/6dkYNcVppao=
-----END CERTIFICATE-----
