Certificate:
    Data:
        Version: 3 (0x2)
        Serial Number:
            1e:c7:7c:76:11:d2:96:53:4f:7e:48:01:f0:cd:f5:5b
        Signature Algorithm: sha256WithRSAEncryption
        Issuer: CN=team325-net
        Validity
            Not Before: Sep 13 01:41:53 2021 GMT
            Not After : Aug 28 01:41:53 2024 GMT
        Subject: CN=team325-client
        Subject Public Key Info:
            Public Key Algorithm: rsaEncryption
                RSA Public-Key: (2048 bit)
                Modulus:
                    00:bc:b5:45:58:1c:ae:e5:5a:27:ee:91:e5:e1:76:
                    88:45:93:c8:2f:59:c7:eb:7e:c9:d2:48:f0:89:df:
                    e6:83:72:bc:74:0c:56:b3:2b:bd:98:79:14:c2:8c:
                    f1:7b:c1:2a:46:b6:88:a6:12:c4:cf:58:fe:fc:75:
                    a8:80:ee:87:e7:98:9a:fa:5e:4f:2b:89:31:28:c0:
                    33:b1:ad:60:12:01:e5:21:f5:5b:58:94:24:72:46:
                    31:c6:a8:8e:bb:01:d6:2d:ca:d5:82:af:a4:f6:5c:
                    30:b0:79:d7:e4:44:b3:c1:a7:7d:ee:9a:01:b4:9f:
                    68:0f:e3:cd:2d:d8:c6:70:99:30:a7:52:b5:02:12:
                    4e:21:6e:b4:04:18:92:c6:78:d5:c4:c3:fb:9a:2b:
                    0d:39:e5:be:2c:15:a7:ed:dc:e0:10:66:69:46:44:
                    e3:9c:82:19:b9:47:c9:d3:3c:d0:75:20:c3:c0:c1:
                    dc:29:3c:8b:78:a0:7c:2d:24:15:4f:ab:c6:27:dd:
                    c2:ed:ba:f1:3b:f2:6c:8a:87:37:14:95:ec:f2:bc:
                    48:7f:e6:ec:a1:23:ac:f5:70:6e:ce:cd:76:1d:1a:
                    b3:73:ff:3b:5d:9f:e4:39:91:d5:95:98:a0:bd:67:
                    25:f2:14:c9:05:a5:34:6d:0c:3e:02:71:74:48:95:
                    ce:73
                Exponent: 65537 (0x10001)
        X509v3 extensions:
            X509v3 Basic Constraints: 
                CA:FALSE
            X509v3 Subject Key Identifier: 
                68:C9:2E:33:18:13:67:7C:67:FC:AF:A4:B6:F3:B4:A5:F0:AC:42:60
            X509v3 Authority Key Identifier: 
                keyid:09:26:82:A8:04:A3:7D:9D:10:1E:7E:89:D0:4C:24:7B:6E:97:1E:71
                DirName:/CN=team325-net
                serial:5D:F7:0B:B2:31:20:5E:97:7E:93:84:B7:C8:48:75:35:3A:78:E0:A3

            X509v3 Extended Key Usage: 
                TLS Web Client Authentication
            X509v3 Key Usage: 
                Digital Signature
    Signature Algorithm: sha256WithRSAEncryption
         9d:ce:0e:16:64:83:49:a5:ec:39:ce:58:d5:e0:39:ff:c3:8b:
         9d:1b:52:7d:93:d5:dd:b5:65:63:74:ab:57:15:59:c2:65:0d:
         7c:b2:8f:47:0b:6f:5a:67:2c:f5:8c:7e:7e:f4:14:96:93:b2:
         32:23:21:23:47:9d:f0:22:aa:a4:2a:25:c0:64:7f:75:54:f7:
         e5:ae:b3:a6:71:ba:43:3d:e8:70:9d:b2:ee:7c:70:84:96:4c:
         67:23:9c:14:66:3a:a4:02:17:3b:02:28:35:bd:d7:aa:b4:f4:
         2b:b3:f5:ad:5a:d4:48:e1:38:e7:83:1e:c7:23:63:55:6b:cc:
         18:ba:b6:68:0e:1d:44:5c:d3:d8:01:59:d6:f3:06:b0:61:7c:
         ca:8b:75:3e:8e:c0:56:86:20:9f:1d:12:c2:b1:b9:40:6d:f0:
         5a:b1:54:f8:50:83:17:33:eb:9e:9f:12:8e:64:36:93:4b:d6:
         98:d6:19:8f:9d:2f:81:09:e0:4e:01:00:e5:2f:e5:15:de:b1:
         a0:f6:db:26:92:6c:00:1d:95:1f:a7:37:7d:2a:21:08:df:b5:
         e5:a3:e9:6d:30:58:75:cb:13:22:83:5e:f7:6b:33:85:8d:b5:
         ba:eb:b9:fd:cc:5f:73:0a:63:be:60:d4:a6:a7:51:1f:a0:3f:
         47:c9:a8:5d
-----BEGIN CERTIFICATE-----
MIIDXDCCAkSgAwIBAgIQHsd8dhHSllNPfkgB8M31WzANBgkqhkiG9w0BAQsFADAW
MRQwEgYDVQQDDAt0ZWFtMzI1LW5ldDAeFw0yMTA5MTMwMTQxNTNaFw0yNDA4Mjgw
MTQxNTNaMBkxFzAVBgNVBAMMDnRlYW0zMjUtY2xpZW50MIIBIjANBgkqhkiG9w0B
AQEFAAOCAQ8AMIIBCgKCAQEAvLVFWByu5Von7pHl4XaIRZPIL1nH637J0kjwid/m
g3K8dAxWsyu9mHkUwozxe8EqRraIphLEz1j+/HWogO6H55ia+l5PK4kxKMAzsa1g
EgHlIfVbWJQkckYxxqiOuwHWLcrVgq+k9lwwsHnX5ESzwad97poBtJ9oD+PNLdjG
cJkwp1K1AhJOIW60BBiSxnjVxMP7misNOeW+LBWn7dzgEGZpRkTjnIIZuUfJ0zzQ
dSDDwMHcKTyLeKB8LSQVT6vGJ93C7brxO/Jsioc3FJXs8rxIf+bsoSOs9XBuzs12
HRqzc/87XZ/kOZHVlZigvWcl8hTJBaU0bQw+AnF0SJXOcwIDAQABo4GiMIGfMAkG
A1UdEwQCMAAwHQYDVR0OBBYEFGjJLjMYE2d8Z/yvpLbztKXwrEJgMFEGA1UdIwRK
MEiAFAkmgqgEo32dEB5+idBMJHtulx5xoRqkGDAWMRQwEgYDVQQDDAt0ZWFtMzI1
LW5ldIIUXfcLsjEgXpd+k4S3yEh1NTp44KMwEwYDVR0lBAwwCgYIKwYBBQUHAwIw
CwYDVR0PBAQDAgeAMA0GCSqGSIb3DQEBCwUAA4IBAQCdzg4WZINJpew5zljV4Dn/
w4udG1J9k9XdtWVjdKtXFVnCZQ18so9HC29aZyz1jH5+9BSWk7IyIyEjR53wIqqk
KiXAZH91VPflrrOmcbpDPehwnbLufHCElkxnI5wUZjqkAhc7Aig1vdeqtPQrs/Wt
WtRI4Tjngx7HI2NVa8wYurZoDh1EXNPYAVnW8wawYXzKi3U+jsBWhiCfHRLCsblA
bfBasVT4UIMXM+uenxKOZDaTS9aY1hmPnS+BCeBOAQDlL+UV3rGg9tsmkmwAHZUf
pzd9KiEI37Xlo+ltMFh1yxMig173azOFjbW667n9zF9zCmO+YNSmp1EfoD9Hyahd
-----END CERTIFICATE-----
