Certificate:
    Data:
        Version: 3 (0x2)
        Serial Number:
            99:7a:92:5e:01:be:45:76:3b:d7:30:22:0c:fa:ff:92
        Signature Algorithm: sha256WithRSAEncryption
        Issuer: CN=team182-net
        Validity
            Not Before: Sep 13 00:21:06 2021 GMT
            Not After : Aug 28 00:21:06 2024 GMT
        Subject: CN=team182-client
        Subject Public Key Info:
            Public Key Algorithm: rsaEncryption
                RSA Public-Key: (2048 bit)
                Modulus:
                    00:ad:dd:69:66:23:29:bf:62:4b:eb:12:f8:f2:df:
                    19:9d:cf:96:41:d7:28:51:27:86:2f:3c:7c:c5:29:
                    01:74:ff:fd:2f:6f:0e:08:07:28:56:b5:9e:64:90:
                    9d:c5:26:5b:17:92:a0:fb:cf:6c:c9:61:c1:d6:6a:
                    03:78:5d:5a:82:5f:3d:d8:04:2b:02:b3:73:5d:0c:
                    f8:53:2a:55:f3:3c:3a:ed:a0:59:e5:13:f5:35:03:
                    d2:59:6b:9a:bc:5e:04:58:48:13:b3:16:f2:e0:ec:
                    ee:d6:1f:5e:29:85:6c:ea:4b:7f:a8:c8:e0:75:ef:
                    b0:ce:ba:6d:53:03:f1:fe:02:0a:76:fe:84:80:c2:
                    5d:32:e7:19:29:49:41:05:39:e9:d2:fc:d9:aa:c0:
                    f2:1d:9d:78:ad:94:0b:f3:a7:c8:73:b6:ba:97:1d:
                    c2:a7:be:72:86:66:9f:9e:ce:05:49:e2:3c:43:1f:
                    ec:11:13:77:0f:75:2d:8d:e4:c2:74:ea:b3:d6:a1:
                    94:1a:72:d4:1c:a0:e0:3e:f2:2a:a8:a7:0e:e0:0d:
                    4f:d7:3d:f0:9b:a8:f4:18:00:4d:34:63:65:7b:5e:
                    7a:9d:18:2e:99:b6:b6:f4:32:e1:fd:c7:0c:d8:7f:
                    0b:d0:54:f3:91:9d:cf:04:58:b3:11:44:a8:ca:89:
                    ca:e3
                Exponent: 65537 (0x10001)
        X509v3 extensions:
            X509v3 Basic Constraints: 
                CA:FALSE
            X509v3 Subject Key Identifier: 
                F6:B0:3E:60:CF:CF:80:6F:C4:F6:C9:C7:1C:2B:AE:3C:AD:75:9F:16
            X509v3 Authority Key Identifier: 
                keyid:12:A9:F2:54:47:0E:76:FC:80:B5:B0:42:6D:FB:AD:87:96:C9:73:48
                DirName:/CN=team182-net
                serial:45:FB:FE:E8:14:FC:F0:4C:6D:21:08:E2:94:19:3D:72:0A:8C:5C:95

            X509v3 Extended Key Usage: 
                TLS Web Client Authentication
            X509v3 Key Usage: 
                Digital Signature
    Signature Algorithm: sha256WithRSAEncryption
         69:5d:a8:83:3b:85:f1:1e:f9:17:a8:52:95:e8:19:4a:14:9f:
         13:69:7c:38:3e:da:73:28:02:db:5f:8b:5e:74:a7:6e:b2:9d:
         98:93:ad:14:3f:ea:ba:b0:bc:cf:a9:89:05:8a:8a:33:9e:16:
         c8:15:fd:99:d9:55:78:d3:e4:75:45:8b:45:2d:64:c5:9f:bf:
         bc:49:3d:9d:13:78:cc:79:c1:00:8c:9d:da:7b:19:d1:59:16:
         b4:dd:3b:f0:5e:d8:69:45:23:2e:b4:52:a3:b4:61:eb:4c:22:
         ef:8d:cc:f9:a0:4a:f1:90:3b:c9:5f:f4:3c:f7:c6:d7:4a:0a:
         46:59:1f:61:61:c3:ef:48:82:45:bc:a7:a2:f3:de:65:d9:ce:
         c8:39:31:24:98:54:b1:29:1c:45:dd:2a:8f:f3:7b:cb:e8:66:
         d1:2e:5f:c9:0e:93:55:cc:3a:ea:16:62:7c:80:c1:a7:c9:11:
         0e:4f:f7:6c:4d:5d:e6:6f:5b:bd:98:56:eb:f5:60:a3:7b:0b:
         aa:31:07:95:30:f9:87:02:18:30:4a:38:62:44:51:52:63:26:
         c3:2e:29:d1:a5:a6:85:2a:22:a7:7e:d7:6e:7f:c1:6e:fb:82:
         25:a0:ca:7e:bf:91:8b:e3:52:50:a8:23:55:36:e6:83:98:d6:
         f8:0e:71:11
-----BEGIN CERTIFICATE-----
MIIDXTCCAkWgAwIBAgIRAJl6kl4BvkV2O9cwIgz6/5IwDQYJKoZIhvcNAQELBQAw
FjEUMBIGA1UEAwwLdGVhbTE4Mi1uZXQwHhcNMjEwOTEzMDAyMTA2WhcNMjQwODI4
MDAyMTA2WjAZMRcwFQYDVQQDDA50ZWFtMTgyLWNsaWVudDCCASIwDQYJKoZIhvcN
AQEBBQADggEPADCCAQoCggEBAK3daWYjKb9iS+sS+PLfGZ3PlkHXKFEnhi88fMUp
AXT//S9vDggHKFa1nmSQncUmWxeSoPvPbMlhwdZqA3hdWoJfPdgEKwKzc10M+FMq
VfM8Ou2gWeUT9TUD0llrmrxeBFhIE7MW8uDs7tYfXimFbOpLf6jI4HXvsM66bVMD
8f4CCnb+hIDCXTLnGSlJQQU56dL82arA8h2deK2UC/OnyHO2upcdwqe+coZmn57O
BUniPEMf7BETdw91LY3kwnTqs9ahlBpy1Byg4D7yKqinDuANT9c98Juo9BgATTRj
ZXteep0YLpm2tvQy4f3HDNh/C9BU85GdzwRYsxFEqMqJyuMCAwEAAaOBojCBnzAJ
BgNVHRMEAjAAMB0GA1UdDgQWBBT2sD5gz8+Ab8T2ycccK648rXWfFjBRBgNVHSME
SjBIgBQSqfJURw52/IC1sEJt+62HlslzSKEapBgwFjEUMBIGA1UEAwwLdGVhbTE4
Mi1uZXSCFEX7/ugU/PBMbSEI4pQZPXIKjFyVMBMGA1UdJQQMMAoGCCsGAQUFBwMC
MAsGA1UdDwQEAwIHgDANBgkqhkiG9w0BAQsFAAOCAQEAaV2ogzuF8R75F6hSlegZ
ShSfE2l8OD7acygC21+LXnSnbrKdmJOtFD/qurC8z6mJBYqKM54WyBX9mdlVeNPk
dUWLRS1kxZ+/vEk9nRN4zHnBAIyd2nsZ0VkWtN078F7YaUUjLrRSo7Rh60wi743M
+aBK8ZA7yV/0PPfG10oKRlkfYWHD70iCRbynovPeZdnOyDkxJJhUsSkcRd0qj/N7
y+hm0S5fyQ6TVcw66hZifIDBp8kRDk/3bE1d5m9bvZhW6/Vgo3sLqjEHlTD5hwIY
MEo4YkRRUmMmwy4p0aWmhSoip37Xbn/BbvuCJaDKfr+Ri+NSUKgjVTbmg5jW+A5x
EQ==
-----END CERTIFICATE-----
