Certificate:
    Data:
        Version: 3 (0x2)
        Serial Number:
            d1:ab:43:59:b2:dd:df:98:a2:ba:5e:b4:a8:fd:5e:e4
        Signature Algorithm: sha256WithRSAEncryption
        Issuer: CN=team691-net
        Validity
            Not Before: Sep 13 05:14:39 2021 GMT
            Not After : Aug 28 05:14:39 2024 GMT
        Subject: CN=team691-server
        Subject Public Key Info:
            Public Key Algorithm: rsaEncryption
                RSA Public-Key: (2048 bit)
                Modulus:
                    00:9c:fa:61:1c:bb:ae:b3:0b:7d:65:d5:f6:86:e3:
                    b5:ce:d9:46:e6:92:c9:3b:a3:16:e4:66:e0:89:21:
                    a0:65:5a:b6:e4:78:bf:e4:06:f1:ee:ea:1c:96:1d:
                    72:9c:b9:53:42:84:8e:ec:46:f6:42:e6:cc:a7:70:
                    04:c1:a2:ff:80:1d:83:db:d0:1f:4a:fc:a1:d4:d2:
                    76:3c:ef:2d:bf:51:a3:bb:ff:07:1c:c9:10:af:28:
                    d9:bc:59:28:c7:0f:e5:2f:c8:36:cb:4c:ef:46:52:
                    8c:b4:58:68:d1:8b:b6:3e:10:fb:bc:30:6e:f4:14:
                    5b:ae:fe:91:e1:ec:ca:de:69:8b:e4:33:43:98:55:
                    ec:7a:01:48:7b:aa:f8:f7:ef:75:30:7e:d1:d8:82:
                    55:09:9e:75:1c:dc:49:0e:d3:88:67:9c:c7:20:ee:
                    cc:82:77:8e:f4:21:0a:68:ed:5f:db:72:7f:fb:bd:
                    ac:4f:e1:29:9a:4d:fb:32:6a:1e:9a:1d:6f:b4:17:
                    50:57:42:71:1d:76:ae:6d:88:b2:3f:68:f6:54:94:
                    1a:45:ac:6e:5c:fc:9c:c1:fb:b5:31:50:2b:1f:57:
                    6d:36:11:f4:0a:84:65:93:bb:02:97:b7:7c:12:02:
                    27:45:0c:a9:67:47:ad:84:59:0e:8a:03:7a:89:ff:
                    dd:fb
                Exponent: 65537 (0x10001)
        X509v3 extensions:
            X509v3 Basic Constraints: 
                CA:FALSE
            X509v3 Subject Key Identifier: 
                29:D7:41:DF:22:01:75:14:9C:AE:25:68:70:87:3D:5E:80:31:99:1E
            X509v3 Authority Key Identifier: 
                keyid:80:9F:6C:ED:C4:F7:AB:4D:33:4B:B5:D3:FE:68:BE:6B:DC:9A:38:CF
                DirName:/CN=team691-net
                serial:3F:CE:28:C1:1A:F1:92:AB:B5:93:A7:F2:8F:FD:DE:84:1F:AC:9E:B5

            X509v3 Extended Key Usage: 
                TLS Web Server Authentication
            X509v3 Key Usage: 
                Digital Signature, Key Encipherment
            X509v3 Subject Alternative Name: 
                DNS:team691-server
    Signature Algorithm: sha256WithRSAEncryption
         b9:d5:80:9d:8a:f1:81:fd:9e:fe:f7:db:69:52:c9:5b:d5:38:
         e1:7b:6b:52:1f:d9:28:0d:5e:b7:8b:31:87:a1:64:c7:a9:38:
         56:e4:72:d2:60:66:8f:d5:a6:34:35:5b:2c:ac:17:d8:ac:c0:
         a7:a8:fc:91:bd:b6:df:0c:cc:35:36:b0:e8:74:84:05:09:44:
         3d:1d:21:99:c8:e1:9c:7c:06:40:c3:6b:48:dc:64:c7:25:73:
         cc:6d:0b:88:45:d2:60:c5:5f:a4:b9:6f:0d:d6:9f:46:7a:b3:
         8b:ac:4e:9c:f7:11:1a:53:c5:af:1b:97:08:6e:ee:f5:01:f9:
         4d:b3:6d:92:6b:f7:ba:52:08:b4:cc:8d:52:ba:8b:97:8e:5a:
         86:8b:82:15:c4:d9:33:b6:69:db:a0:35:8b:41:b4:72:e9:09:
         3a:b5:36:d2:49:1d:5b:e7:74:bc:23:94:a8:87:21:28:4c:35:
         9e:cc:d1:3c:9a:e2:ad:7c:40:88:f1:4e:71:bb:91:02:ee:21:
         f7:33:33:be:f8:80:a8:6a:1a:b9:42:fc:db:b6:0f:1d:98:ae:
         d2:f6:c9:8f:a0:ad:9a:15:ff:6d:f8:ac:34:a7:43:8d:4a:16:
         be:16:13:59:92:51:14:98:d3:88:5a:9a:c9:c7:36:47:e3:00:
         fc:d2:40:f5
-----BEGIN CERTIFICATE-----
MIIDeDCCAmCgAwIBAgIRANGrQ1my3d+YorpetKj9XuQwDQYJKoZIhvcNAQELBQAw
FjEUMBIGA1UEAwwLdGVhbTY5MS1uZXQwHhcNMjEwOTEzMDUxNDM5WhcNMjQwODI4
MDUxNDM5WjAZMRcwFQYDVQQDDA50ZWFtNjkxLXNlcnZlcjCCASIwDQYJKoZIhvcN
AQEBBQADggEPADCCAQoCggEBAJz6YRy7rrMLfWXV9objtc7ZRuaSyTujFuRm4Ikh
oGVatuR4v+QG8e7qHJYdcpy5U0KEjuxG9kLmzKdwBMGi/4Adg9vQH0r8odTSdjzv
Lb9Ro7v/BxzJEK8o2bxZKMcP5S/INstM70ZSjLRYaNGLtj4Q+7wwbvQUW67+keHs
yt5pi+QzQ5hV7HoBSHuq+PfvdTB+0diCVQmedRzcSQ7TiGecxyDuzIJ3jvQhCmjt
X9tyf/u9rE/hKZpN+zJqHpodb7QXUFdCcR12rm2Isj9o9lSUGkWsblz8nMH7tTFQ
Kx9XbTYR9AqEZZO7Ape3fBICJ0UMqWdHrYRZDooDeon/3fsCAwEAAaOBvTCBujAJ
BgNVHRMEAjAAMB0GA1UdDgQWBBQp10HfIgF1FJyuJWhwhz1egDGZHjBRBgNVHSME
SjBIgBSAn2ztxPerTTNLtdP+aL5r3Jo4z6EapBgwFjEUMBIGA1UEAwwLdGVhbTY5
MS1uZXSCFD/OKMEa8ZKrtZOn8o/93oQfrJ61MBMGA1UdJQQMMAoGCCsGAQUFBwMB
MAsGA1UdDwQEAwIFoDAZBgNVHREEEjAQgg50ZWFtNjkxLXNlcnZlcjANBgkqhkiG
9w0BAQsFAAOCAQEAudWAnYrxgf2e/vfbaVLJW9U44XtrUh/ZKA1et4sxh6Fkx6k4
VuRy0mBmj9WmNDVbLKwX2KzAp6j8kb223wzMNTaw6HSEBQlEPR0hmcjhnHwGQMNr
SNxkxyVzzG0LiEXSYMVfpLlvDdafRnqzi6xOnPcRGlPFrxuXCG7u9QH5TbNtkmv3
ulIItMyNUrqLl45ahouCFcTZM7Zp26A1i0G0cukJOrU20kkdW+d0vCOUqIchKEw1
nszRPJrirXxAiPFOcbuRAu4h9zMzvviAqGoauUL827YPHZiu0vbJj6CtmhX/bfis
NKdDjUoWvhYTWZJRFJjTiFqaycc2R+MA/NJA9Q==
-----END CERTIFICATE-----
