Certificate:
    Data:
        Version: 3 (0x2)
        Serial Number:
            d4:29:37:9c:20:21:4e:00:70:c5:c3:48:c8:bb:55:a4
        Signature Algorithm: sha256WithRSAEncryption
        Issuer: CN=team103-net
        Validity
            Not Before: Sep 12 23:37:04 2021 GMT
            Not After : Aug 27 23:37:04 2024 GMT
        Subject: CN=team103-client
        Subject Public Key Info:
            Public Key Algorithm: rsaEncryption
                RSA Public-Key: (2048 bit)
                Modulus:
                    00:99:29:f2:e9:fb:dc:0c:7d:8b:85:b7:0c:83:1e:
                    25:97:80:fa:5c:a7:75:f1:44:f9:01:71:c2:cf:f4:
                    36:21:25:08:7d:0a:5c:6b:dc:91:7c:59:e9:03:ad:
                    bc:55:a9:82:89:23:53:54:1e:8c:60:76:04:a6:00:
                    e4:d9:ae:e8:4b:32:20:ca:d2:d6:f9:ae:8f:26:04:
                    b6:3d:8d:7e:36:64:f4:50:4b:02:bc:75:82:fb:51:
                    31:38:c4:9f:29:bd:8d:c6:ef:39:4f:4e:4c:1f:83:
                    ca:bb:a2:b0:e3:32:1b:c7:eb:b8:e0:75:46:da:ea:
                    c6:d9:fe:f5:2a:6f:d6:36:c5:30:67:c3:dc:e0:0a:
                    ba:f8:e3:d1:a5:47:42:6e:cc:54:03:59:c3:c7:bf:
                    15:81:7a:89:83:ec:2f:a2:91:b2:6b:c7:e7:fe:46:
                    ae:35:27:c3:1e:5b:2a:9e:17:3e:33:86:d9:fd:34:
                    8f:ec:12:41:bc:45:48:c7:56:29:8c:76:9d:77:89:
                    f4:f5:2e:93:3a:5a:6f:62:66:59:98:0b:e2:c7:1a:
                    33:7c:2e:24:f1:03:6b:95:c5:bb:ca:66:34:a4:77:
                    ba:9d:b0:47:db:e8:a1:5a:a0:78:41:aa:84:aa:99:
                    f2:60:e5:70:f5:21:5c:fa:c2:d2:34:1e:b9:54:fc:
                    bd:59
                Exponent: 65537 (0x10001)
        X509v3 extensions:
            X509v3 Basic Constraints: 
                CA:FALSE
            X509v3 Subject Key Identifier: 
                A3:B6:42:1A:FA:85:D9:74:BB:CF:01:53:F4:BE:F5:0B:CD:F6:0F:02
            X509v3 Authority Key Identifier: 
                keyid:04:C5:75:42:D7:FF:39:44:DB:EA:22:A6:64:77:3C:04:F4:E0:21:85
                DirName:/CN=team103-net
                serial:0D:07:C3:E4:F7:65:F2:38:40:FD:82:9C:93:0E:A7:43:A2:12:76:DB

            X509v3 Extended Key Usage: 
                TLS Web Client Authentication
            X509v3 Key Usage: 
                Digital Signature
    Signature Algorithm: sha256WithRSAEncryption
         8b:4f:88:fe:da:ac:82:a1:9f:5d:8c:12:45:2b:cf:a8:67:a4:
         af:54:78:5c:d9:a4:e5:a4:9a:12:50:4f:bc:1e:19:c9:40:2f:
         ee:8b:f0:58:ee:d6:77:24:88:a3:4c:cc:00:46:06:a5:c1:85:
         08:4c:a3:30:f3:5b:17:0b:4c:22:e5:af:91:7d:01:03:c1:5f:
         13:de:8a:3f:da:d2:30:2f:b6:5f:fe:33:34:93:d3:23:94:ca:
         21:72:a6:ab:2e:a3:c6:63:b6:8e:c3:8a:a3:57:85:61:89:d3:
         90:bc:72:fb:eb:3d:32:80:36:d7:5b:11:03:ae:d2:28:1c:4f:
         b9:9f:f9:d4:e8:d5:52:02:0e:22:b0:da:9c:12:3d:3e:b4:e7:
         5d:c8:5d:94:42:28:0e:ed:c3:a6:6f:9f:1a:fa:f5:bf:e0:4e:
         de:cd:16:6d:84:07:5f:94:bf:27:4d:78:2c:3a:6c:ce:b3:41:
         99:cc:e4:7c:68:b1:f0:f3:5e:e0:b2:6f:66:c7:43:88:87:28:
         cf:7a:d3:8f:fb:75:d4:0c:37:37:91:2d:d9:76:5a:60:b8:d0:
         d7:46:39:f1:a8:63:38:ee:49:86:77:4d:c8:d6:74:d3:3b:cc:
         52:b8:47:f2:4c:75:6c:d0:53:26:20:74:58:ea:53:5d:ae:7d:
         a1:c0:21:15
-----BEGIN CERTIFICATE-----
MIIDXTCCAkWgAwIBAgIRANQpN5wgIU4AcMXDSMi7VaQwDQYJKoZIhvcNAQELBQAw
FjEUMBIGA1UEAwwLdGVhbTEwMy1uZXQwHhcNMjEwOTEyMjMzNzA0WhcNMjQwODI3
MjMzNzA0WjAZMRcwFQYDVQQDDA50ZWFtMTAzLWNsaWVudDCCASIwDQYJKoZIhvcN
AQEBBQADggEPADCCAQoCggEBAJkp8un73Ax9i4W3DIMeJZeA+lyndfFE+QFxws/0
NiElCH0KXGvckXxZ6QOtvFWpgokjU1QejGB2BKYA5Nmu6EsyIMrS1vmujyYEtj2N
fjZk9FBLArx1gvtRMTjEnym9jcbvOU9OTB+DyruisOMyG8fruOB1Rtrqxtn+9Spv
1jbFMGfD3OAKuvjj0aVHQm7MVANZw8e/FYF6iYPsL6KRsmvH5/5GrjUnwx5bKp4X
PjOG2f00j+wSQbxFSMdWKYx2nXeJ9PUukzpab2JmWZgL4scaM3wuJPEDa5XFu8pm
NKR3up2wR9vooVqgeEGqhKqZ8mDlcPUhXPrC0jQeuVT8vVkCAwEAAaOBojCBnzAJ
BgNVHRMEAjAAMB0GA1UdDgQWBBSjtkIa+oXZdLvPAVP0vvULzfYPAjBRBgNVHSME
SjBIgBQExXVC1/85RNvqIqZkdzwE9OAhhaEapBgwFjEUMBIGA1UEAwwLdGVhbTEw
My1uZXSCFA0Hw+T3ZfI4QP2CnJMOp0OiEnbbMBMGA1UdJQQMMAoGCCsGAQUFBwMC
MAsGA1UdDwQEAwIHgDANBgkqhkiG9w0BAQsFAAOCAQEAi0+I/tqsgqGfXYwSRSvP
qGekr1R4XNmk5aSaElBPvB4ZyUAv7ovwWO7WdySIo0zMAEYGpcGFCEyjMPNbFwtM
IuWvkX0BA8FfE96KP9rSMC+2X/4zNJPTI5TKIXKmqy6jxmO2jsOKo1eFYYnTkLxy
++s9MoA211sRA67SKBxPuZ/51OjVUgIOIrDanBI9PrTnXchdlEIoDu3Dpm+fGvr1
v+BO3s0WbYQHX5S/J014LDpszrNBmczkfGix8PNe4LJvZsdDiIcoz3rTj/t11Aw3
N5Et2XZaYLjQ10Y58ahjOO5JhndNyNZ00zvMUrhH8kx1bNBTJiB0WOpTXa59ocAh
FQ==
-----END CERTIFICATE-----
