Certificate:
    Data:
        Version: 3 (0x2)
        Serial Number:
            fc:b5:da:5e:ed:e0:b9:3f:14:a8:07:86:0b:3f:e5:aa
        Signature Algorithm: sha256WithRSAEncryption
        Issuer: CN=team103-net
        Validity
            Not Before: Sep 12 23:37:05 2021 GMT
            Not After : Aug 27 23:37:05 2024 GMT
        Subject: CN=team103-server
        Subject Public Key Info:
            Public Key Algorithm: rsaEncryption
                RSA Public-Key: (2048 bit)
                Modulus:
                    00:a1:db:3e:9e:1e:ea:aa:60:b7:b4:2f:a9:b4:39:
                    4b:58:bb:d7:da:6f:0f:2a:67:67:e4:b6:2f:57:22:
                    65:5b:e6:55:6e:3b:9e:1d:85:eb:eb:54:0a:65:31:
                    d8:9d:fa:86:e8:76:aa:07:8e:e6:40:e5:82:36:36:
                    eb:fe:a0:1f:51:b4:4a:7c:ac:37:1f:52:1d:b7:9c:
                    63:0a:92:d8:f3:8e:62:9e:94:79:98:0e:9a:ff:54:
                    c6:7c:5f:af:f7:73:eb:be:81:57:08:35:e2:9b:6b:
                    af:8a:4f:eb:41:9b:11:0c:dd:44:63:a5:c7:c7:60:
                    21:3d:92:e2:d5:55:2e:fc:ee:54:5d:19:15:55:d0:
                    e6:e0:8a:7e:6e:08:05:01:18:4f:36:09:5b:a6:9f:
                    02:2b:1e:ac:13:0f:36:d9:2b:d9:3d:d9:ec:5a:60:
                    d9:b8:c0:86:86:64:b0:8c:f3:e6:fe:38:8a:bd:e8:
                    d8:7f:6e:6a:9a:f7:ad:7f:47:f7:e7:85:78:3c:15:
                    55:c1:bb:9a:7a:6c:06:b2:4d:48:10:72:64:a5:1c:
                    78:12:c5:fe:57:a8:bd:09:fc:14:d1:6c:fe:9f:59:
                    b2:e6:c2:27:4b:8e:d9:07:9f:e2:6d:3e:ac:d0:6b:
                    78:23:da:44:b2:04:d7:03:76:15:de:a8:e8:55:ae:
                    ca:9f
                Exponent: 65537 (0x10001)
        X509v3 extensions:
            X509v3 Basic Constraints: 
                CA:FALSE
            X509v3 Subject Key Identifier: 
                82:E2:DF:0A:B3:0E:C1:CD:A1:8D:D9:07:71:02:B5:20:62:FD:57:71
            X509v3 Authority Key Identifier: 
                keyid:04:C5:75:42:D7:FF:39:44:DB:EA:22:A6:64:77:3C:04:F4:E0:21:85
                DirName:/CN=team103-net
                serial:0D:07:C3:E4:F7:65:F2:38:40:FD:82:9C:93:0E:A7:43:A2:12:76:DB

            X509v3 Extended Key Usage: 
                TLS Web Server Authentication
            X509v3 Key Usage: 
                Digital Signature, Key Encipherment
            X509v3 Subject Alternative Name: 
                DNS:team103-server
    Signature Algorithm: sha256WithRSAEncryption
         00:a6:2a:b4:a6:37:3f:bd:be:00:58:d6:d4:69:5b:df:44:0e:
         16:69:0d:fb:e2:0c:dc:de:b2:11:e8:db:0c:60:bf:12:a3:a6:
         3d:4b:20:9c:1b:99:30:1b:5b:40:fa:8f:00:8c:5a:af:f6:c9:
         14:40:76:6d:10:3a:5e:a1:f2:72:32:d4:6e:5e:b1:ab:d3:ae:
         f7:27:85:ab:4d:b1:a7:04:5c:a5:e7:22:97:58:1d:90:75:ce:
         74:ed:68:e5:da:66:8c:88:a2:ec:8a:46:60:3a:a5:c5:41:e7:
         80:89:49:0c:d8:6f:d2:76:ea:83:c3:9b:be:47:58:34:0f:01:
         ef:24:61:08:5f:b1:9c:d7:e6:32:59:68:15:15:b2:8f:65:1a:
         65:5d:94:3a:be:e0:20:dc:8e:11:17:1f:38:e2:84:e0:57:cb:
         dd:5f:76:be:8f:10:10:3b:d7:19:03:83:82:10:43:c9:50:e5:
         af:2a:c0:e5:1d:85:93:09:b2:54:46:f8:62:13:90:21:d2:be:
         51:9a:6a:56:b4:ca:f7:33:8f:b4:57:6f:24:9a:a6:fb:bc:63:
         51:e6:38:d2:44:81:fd:a7:2d:83:f0:5a:de:6b:5f:86:e2:7e:
         89:87:b5:27:af:e8:91:bc:c7:21:7d:5d:3b:50:7a:97:9c:5d:
         18:8a:60:40
-----BEGIN CERTIFICATE-----
MIIDeDCCAmCgAwIBAgIRAPy12l7t4Lk/FKgHhgs/5aowDQYJKoZIhvcNAQELBQAw
FjEUMBIGA1UEAwwLdGVhbTEwMy1uZXQwHhcNMjEwOTEyMjMzNzA1WhcNMjQwODI3
MjMzNzA1WjAZMRcwFQYDVQQDDA50ZWFtMTAzLXNlcnZlcjCCASIwDQYJKoZIhvcN
AQEBBQADggEPADCCAQoCggEBAKHbPp4e6qpgt7QvqbQ5S1i719pvDypnZ+S2L1ci
ZVvmVW47nh2F6+tUCmUx2J36huh2qgeO5kDlgjY26/6gH1G0SnysNx9SHbecYwqS
2POOYp6UeZgOmv9Uxnxfr/dz676BVwg14ptrr4pP60GbEQzdRGOlx8dgIT2S4tVV
LvzuVF0ZFVXQ5uCKfm4IBQEYTzYJW6afAiserBMPNtkr2T3Z7Fpg2bjAhoZksIzz
5v44ir3o2H9uapr3rX9H9+eFeDwVVcG7mnpsBrJNSBByZKUceBLF/leovQn8FNFs
/p9ZsubCJ0uO2Qef4m0+rNBreCPaRLIE1wN2Fd6o6FWuyp8CAwEAAaOBvTCBujAJ
BgNVHRMEAjAAMB0GA1UdDgQWBBSC4t8Ksw7BzaGN2QdxArUgYv1XcTBRBgNVHSME
SjBIgBQExXVC1/85RNvqIqZkdzwE9OAhhaEapBgwFjEUMBIGA1UEAwwLdGVhbTEw
My1uZXSCFA0Hw+T3ZfI4QP2CnJMOp0OiEnbbMBMGA1UdJQQMMAoGCCsGAQUFBwMB
MAsGA1UdDwQEAwIFoDAZBgNVHREEEjAQgg50ZWFtMTAzLXNlcnZlcjANBgkqhkiG
9w0BAQsFAAOCAQEAAKYqtKY3P72+AFjW1Glb30QOFmkN++IM3N6yEejbDGC/EqOm
PUsgnBuZMBtbQPqPAIxar/bJFEB2bRA6XqHycjLUbl6xq9Ou9yeFq02xpwRcpeci
l1gdkHXOdO1o5dpmjIii7IpGYDqlxUHngIlJDNhv0nbqg8ObvkdYNA8B7yRhCF+x
nNfmMlloFRWyj2UaZV2UOr7gINyOERcfOOKE4FfL3V92vo8QEDvXGQODghBDyVDl
ryrA5R2FkwmyVEb4YhOQIdK+UZpqVrTK9zOPtFdvJJqm+7xjUeY40kSB/actg/Ba
3mtfhuJ+iYe1J6/okbzHIX1dO1B6l5xdGIpgQA==
-----END CERTIFICATE-----
