Certificate:
    Data:
        Version: 3 (0x2)
        Serial Number:
            b0:3b:df:c8:2b:2b:93:54:6e:b2:b3:c8:9b:1f:2c:d0
        Signature Algorithm: sha256WithRSAEncryption
        Issuer: CN=team390-net
        Validity
            Not Before: Sep 13 02:13:46 2021 GMT
            Not After : Aug 28 02:13:46 2024 GMT
        Subject: CN=team390-client
        Subject Public Key Info:
            Public Key Algorithm: rsaEncryption
                RSA Public-Key: (2048 bit)
                Modulus:
                    00:e3:6a:62:52:d0:62:a0:a7:ec:ea:7e:f8:e6:a6:
                    d2:b3:f6:73:5e:76:94:c9:2a:82:4d:1d:5e:cf:f0:
                    29:83:37:48:cc:88:60:51:d3:ae:28:3f:4c:72:13:
                    1d:be:4b:38:d3:a5:f9:1c:b2:30:d3:95:c2:e1:a7:
                    36:b2:9d:5d:22:6c:c2:00:e4:c1:ae:f1:53:c6:85:
                    2e:cc:d1:97:56:0e:91:7a:08:59:af:32:e2:29:8f:
                    16:09:fd:fa:db:eb:ef:36:1d:37:26:3f:5c:a3:d9:
                    10:c6:2e:47:e6:81:06:6d:04:09:2b:a3:08:0d:9b:
                    37:90:0f:fb:aa:40:02:fa:83:c6:11:a3:1c:f3:f3:
                    de:81:6e:4b:0e:1d:39:eb:a1:f0:20:fd:9f:be:2a:
                    ba:b8:91:3c:23:41:b1:b7:eb:b0:fa:4b:b0:1f:aa:
                    82:89:c4:f0:cb:8d:9f:84:37:af:ab:da:13:dc:47:
                    54:2d:98:99:77:52:a7:7a:dd:7a:b7:a1:c1:95:e7:
                    c2:5a:1c:ad:09:a8:11:c5:0d:18:a2:eb:4a:44:b1:
                    e9:9a:41:c9:a8:c3:be:21:8c:2c:23:1c:1d:4c:80:
                    2c:ec:43:9c:94:5b:87:2f:a1:67:55:50:e8:ab:8b:
                    44:66:09:f4:fa:11:33:e0:f2:d5:98:31:2f:c2:da:
                    f8:39
                Exponent: 65537 (0x10001)
        X509v3 extensions:
            X509v3 Basic Constraints: 
                CA:FALSE
            X509v3 Subject Key Identifier: 
                B8:BA:E3:36:A3:FB:08:09:A2:52:79:E7:5B:96:6F:A4:09:32:44:D9
            X509v3 Authority Key Identifier: 
                keyid:0A:48:98:5E:6F:3F:C5:32:60:73:1A:21:89:B2:99:E1:A3:E5:21:9E
                DirName:/CN=team390-net
                serial:49:48:C3:CA:CC:DA:30:4C:ED:91:29:A9:77:1A:A1:69:45:F9:D7:A9

            X509v3 Extended Key Usage: 
                TLS Web Client Authentication
            X509v3 Key Usage: 
                Digital Signature
    Signature Algorithm: sha256WithRSAEncryption
         83:d0:b8:fb:a1:16:5b:2c:09:f1:bc:3c:64:cd:ee:43:69:67:
         fe:98:e7:d7:9d:91:f8:ee:8b:94:a4:0f:29:69:00:60:e9:8d:
         9f:4f:96:a3:6a:9c:c2:9a:ea:6c:b8:61:fe:2f:eb:df:f6:e6:
         17:27:39:98:43:e0:74:24:8f:6d:12:5f:d4:3c:8b:87:66:7b:
         27:cc:f8:4a:3c:68:da:27:04:cf:cb:46:96:66:53:96:21:6e:
         b3:9a:02:47:66:df:b1:0a:8d:60:2b:6c:d3:39:76:ca:cd:92:
         02:ca:1b:dc:ef:a9:69:e0:03:7a:7c:67:35:fc:22:cb:3f:bc:
         9d:1b:09:5b:0d:10:99:85:2c:6b:84:1d:22:7d:b0:59:aa:59:
         6e:2f:07:5d:12:c0:fd:b8:05:6b:d9:2a:a9:b6:bc:88:29:96:
         2d:32:e1:aa:23:31:fb:85:9b:d8:27:fa:37:30:6d:b4:11:65:
         50:52:78:27:1b:e9:bf:7e:b7:db:13:90:84:7d:29:ad:52:f9:
         59:e1:8e:66:58:90:54:1f:ad:39:b4:49:84:85:f3:22:0f:19:
         da:93:70:58:90:23:76:4b:5e:d1:9a:bf:7a:d6:d0:d3:e0:78:
         29:b5:a9:ba:8d:89:48:c6:a4:2a:5e:09:81:aa:42:64:d1:c2:
         00:5c:f0:1d
-----BEGIN CERTIFICATE-----
MIIDXTCCAkWgAwIBAgIRALA738grK5NUbrKzyJsfLNAwDQYJKoZIhvcNAQELBQAw
FjEUMBIGA1UEAwwLdGVhbTM5MC1uZXQwHhcNMjEwOTEzMDIxMzQ2WhcNMjQwODI4
MDIxMzQ2WjAZMRcwFQYDVQQDDA50ZWFtMzkwLWNsaWVudDCCASIwDQYJKoZIhvcN
AQEBBQADggEPADCCAQoCggEBAONqYlLQYqCn7Op++Oam0rP2c152lMkqgk0dXs/w
KYM3SMyIYFHTrig/THITHb5LONOl+RyyMNOVwuGnNrKdXSJswgDkwa7xU8aFLszR
l1YOkXoIWa8y4imPFgn9+tvr7zYdNyY/XKPZEMYuR+aBBm0ECSujCA2bN5AP+6pA
AvqDxhGjHPPz3oFuSw4dOeuh8CD9n74quriRPCNBsbfrsPpLsB+qgonE8MuNn4Q3
r6vaE9xHVC2YmXdSp3rderehwZXnwlocrQmoEcUNGKLrSkSx6ZpByajDviGMLCMc
HUyALOxDnJRbhy+hZ1VQ6KuLRGYJ9PoRM+Dy1ZgxL8La+DkCAwEAAaOBojCBnzAJ
BgNVHRMEAjAAMB0GA1UdDgQWBBS4uuM2o/sICaJSeedblm+kCTJE2TBRBgNVHSME
SjBIgBQKSJhebz/FMmBzGiGJspnho+UhnqEapBgwFjEUMBIGA1UEAwwLdGVhbTM5
MC1uZXSCFElIw8rM2jBM7ZEpqXcaoWlF+depMBMGA1UdJQQMMAoGCCsGAQUFBwMC
MAsGA1UdDwQEAwIHgDANBgkqhkiG9w0BAQsFAAOCAQEAg9C4+6EWWywJ8bw8ZM3u
Q2ln/pjn152R+O6LlKQPKWkAYOmNn0+Wo2qcwprqbLhh/i/r3/bmFyc5mEPgdCSP
bRJf1DyLh2Z7J8z4Sjxo2icEz8tGlmZTliFus5oCR2bfsQqNYCts0zl2ys2SAsob
3O+paeADenxnNfwiyz+8nRsJWw0QmYUsa4QdIn2wWapZbi8HXRLA/bgFa9kqqba8
iCmWLTLhqiMx+4Wb2Cf6NzBttBFlUFJ4Jxvpv3632xOQhH0prVL5WeGOZliQVB+t
ObRJhIXzIg8Z2pNwWJAjdkte0Zq/etbQ0+B4KbWpuo2JSMakKl4JgapCZNHCAFzw
HQ==
-----END CERTIFICATE-----
