Certificate:
    Data:
        Version: 3 (0x2)
        Serial Number:
            e7:0f:aa:75:ad:b6:21:33:fa:a8:24:98:4f:f0:5c:32
        Signature Algorithm: sha256WithRSAEncryption
        Issuer: CN=team390-net
        Validity
            Not Before: Sep 13 02:13:47 2021 GMT
            Not After : Aug 28 02:13:47 2024 GMT
        Subject: CN=team390-server
        Subject Public Key Info:
            Public Key Algorithm: rsaEncryption
                RSA Public-Key: (2048 bit)
                Modulus:
                    00:a1:a8:8a:8c:4e:f4:02:7d:c4:b6:f6:50:ec:4d:
                    a4:24:58:7d:3e:38:a2:ee:e0:89:37:54:eb:59:e7:
                    cb:10:1c:5f:da:28:33:95:d3:54:a8:a4:65:2e:ad:
                    7d:32:be:17:31:23:f8:eb:bc:94:7c:53:ea:42:9b:
                    1d:4e:08:97:f9:d5:77:6a:3c:8e:96:f4:78:c2:2f:
                    09:57:f8:6e:f8:7b:50:dc:a7:74:a4:f1:e0:49:84:
                    ef:a6:22:7e:11:fb:ac:2f:14:fc:bb:84:b9:dd:41:
                    30:e1:54:22:27:e4:43:73:84:7e:79:38:8f:60:2a:
                    94:7f:35:3e:ad:51:32:ef:6e:79:78:5c:4e:81:7f:
                    05:c8:d6:05:07:69:02:1b:5d:77:b1:cf:42:30:2f:
                    50:83:5d:2f:44:3a:f1:ab:4f:27:43:21:f8:8a:ff:
                    05:33:05:5e:4b:71:d7:bb:0b:98:f8:ce:19:82:0b:
                    97:b3:c0:5b:a3:fc:ea:39:3f:81:71:8e:1b:fb:82:
                    fb:44:42:fa:35:5e:ab:bb:13:28:9b:3b:04:fc:bf:
                    b2:7a:6b:e5:d2:22:71:b4:07:35:10:3c:4c:04:26:
                    00:1a:85:70:00:72:75:a7:a5:8f:f2:68:25:8a:93:
                    2a:21:58:b6:78:e2:b9:1b:26:ac:e8:a7:13:9f:23:
                    a1:17
                Exponent: 65537 (0x10001)
        X509v3 extensions:
            X509v3 Basic Constraints: 
                CA:FALSE
            X509v3 Subject Key Identifier: 
                95:AE:75:67:EF:6F:3A:70:7D:7B:C6:FA:0E:63:7F:E5:57:33:BA:6E
            X509v3 Authority Key Identifier: 
                keyid:0A:48:98:5E:6F:3F:C5:32:60:73:1A:21:89:B2:99:E1:A3:E5:21:9E
                DirName:/CN=team390-net
                serial:49:48:C3:CA:CC:DA:30:4C:ED:91:29:A9:77:1A:A1:69:45:F9:D7:A9

            X509v3 Extended Key Usage: 
                TLS Web Server Authentication
            X509v3 Key Usage: 
                Digital Signature, Key Encipherment
            X509v3 Subject Alternative Name: 
                DNS:team390-server
    Signature Algorithm: sha256WithRSAEncryption
         92:e6:54:39:a6:a2:2f:d6:3b:9b:f3:86:25:ad:64:2f:db:e3:
         be:b4:ea:16:e1:20:b5:c5:24:16:96:c0:c7:36:bf:c0:fd:a2:
         b9:8c:05:ef:e4:9a:75:a0:0f:6f:66:56:dd:56:05:7e:b3:06:
         d5:91:a5:d8:0a:bd:e0:5b:88:ec:2c:45:a8:cd:be:09:19:c7:
         6b:c2:b9:fd:15:da:e2:b4:68:94:0f:c2:70:f5:9a:f1:89:1f:
         62:de:2d:fd:75:35:77:63:38:cc:d9:5a:12:08:fb:f0:99:99:
         75:01:13:05:d3:84:43:30:b9:7a:25:16:5b:f4:e8:f7:5e:f6:
         10:1a:b6:64:e5:3f:ff:2e:21:08:44:bc:96:ff:3e:6c:18:9e:
         b5:00:be:a5:61:7c:ce:0c:fe:ce:69:d4:54:20:55:70:1d:6b:
         9b:6b:b2:41:4e:8e:f8:d9:32:ec:b8:37:cb:44:45:ca:33:c0:
         e7:1b:38:63:d6:47:aa:e9:c5:0a:6d:4c:8c:0a:a5:db:80:db:
         ee:21:d6:2c:1b:d8:ae:f6:f2:14:d2:80:33:2a:d6:da:60:94:
         9f:ea:90:fa:a3:35:95:5b:09:d5:b4:e8:66:e9:17:3e:2c:ca:
         2f:a3:91:5d:59:d9:59:ac:5b:87:26:5c:89:91:51:46:01:11:
         62:aa:d9:d2
-----BEGIN CERTIFICATE-----
MIIDeDCCAmCgAwIBAgIRAOcPqnWttiEz+qgkmE/wXDIwDQYJKoZIhvcNAQELBQAw
FjEUMBIGA1UEAwwLdGVhbTM5MC1uZXQwHhcNMjEwOTEzMDIxMzQ3WhcNMjQwODI4
MDIxMzQ3WjAZMRcwFQYDVQQDDA50ZWFtMzkwLXNlcnZlcjCCASIwDQYJKoZIhvcN
AQEBBQADggEPADCCAQoCggEBAKGoioxO9AJ9xLb2UOxNpCRYfT44ou7giTdU61nn
yxAcX9ooM5XTVKikZS6tfTK+FzEj+Ou8lHxT6kKbHU4Il/nVd2o8jpb0eMIvCVf4
bvh7UNyndKTx4EmE76YifhH7rC8U/LuEud1BMOFUIifkQ3OEfnk4j2AqlH81Pq1R
Mu9ueXhcToF/BcjWBQdpAhtdd7HPQjAvUINdL0Q68atPJ0Mh+Ir/BTMFXktx17sL
mPjOGYILl7PAW6P86jk/gXGOG/uC+0RC+jVeq7sTKJs7BPy/snpr5dIicbQHNRA8
TAQmABqFcABydaelj/JoJYqTKiFYtnjiuRsmrOinE58joRcCAwEAAaOBvTCBujAJ
BgNVHRMEAjAAMB0GA1UdDgQWBBSVrnVn7286cH17xvoOY3/lVzO6bjBRBgNVHSME
SjBIgBQKSJhebz/FMmBzGiGJspnho+UhnqEapBgwFjEUMBIGA1UEAwwLdGVhbTM5
MC1uZXSCFElIw8rM2jBM7ZEpqXcaoWlF+depMBMGA1UdJQQMMAoGCCsGAQUFBwMB
MAsGA1UdDwQEAwIFoDAZBgNVHREEEjAQgg50ZWFtMzkwLXNlcnZlcjANBgkqhkiG
9w0BAQsFAAOCAQEAkuZUOaaiL9Y7m/OGJa1kL9vjvrTqFuEgtcUkFpbAxza/wP2i
uYwF7+SadaAPb2ZW3VYFfrMG1ZGl2Aq94FuI7CxFqM2+CRnHa8K5/RXa4rRolA/C
cPWa8YkfYt4t/XU1d2M4zNlaEgj78JmZdQETBdOEQzC5eiUWW/To9172EBq2ZOU/
/y4hCES8lv8+bBietQC+pWF8zgz+zmnUVCBVcB1rm2uyQU6O+Nky7Lg3y0RFyjPA
5xs4Y9ZHqunFCm1MjAql24Db7iHWLBvYrvbyFNKAMyrW2mCUn+qQ+qM1lVsJ1bTo
ZukXPizKL6ORXVnZWaxbhyZciZFRRgERYqrZ0g==
-----END CERTIFICATE-----
