Certificate:
    Data:
        Version: 3 (0x2)
        Serial Number:
            a1:00:ba:24:93:56:1a:de:82:0c:f6:48:37:b0:ed:d4
        Signature Algorithm: sha256WithRSAEncryption
        Issuer: CN=team509-net
        Validity
            Not Before: Sep 13 03:22:44 2021 GMT
            Not After : Aug 28 03:22:44 2024 GMT
        Subject: CN=team509-server
        Subject Public Key Info:
            Public Key Algorithm: rsaEncryption
                RSA Public-Key: (2048 bit)
                Modulus:
                    00:c4:02:65:fa:ef:de:5e:32:4d:b3:07:1b:34:a0:
                    55:7b:71:9e:13:1e:75:b4:df:51:81:82:26:d0:7c:
                    e4:51:62:b0:88:ad:f3:fb:49:4d:0d:8b:a4:85:d9:
                    ab:d4:e6:40:11:f9:ce:29:12:8b:0c:e7:3b:c4:1f:
                    f6:4d:64:0a:71:60:24:45:0f:44:d8:78:2e:5d:24:
                    d9:91:07:2a:e4:aa:03:ae:d9:b9:ce:3f:d8:d0:11:
                    96:01:46:2b:ec:7a:e1:58:d0:07:02:a0:5c:2a:03:
                    3a:84:d8:00:a3:a8:2a:3f:0e:b4:72:b4:bd:0a:7e:
                    29:1e:8e:45:d5:92:26:96:17:40:3d:ec:6c:5b:96:
                    87:e7:44:a5:ff:7a:87:25:a1:e0:3e:02:20:16:96:
                    3b:73:41:4a:0b:19:1f:f9:24:b0:64:b7:b5:ba:2a:
                    2a:8d:57:a1:b6:0a:09:a5:9d:47:df:05:54:3b:7f:
                    f3:eb:77:44:99:3b:a3:96:cd:4f:b3:f8:72:45:ca:
                    51:40:07:dd:f8:59:03:f6:7c:48:c6:e5:0d:d3:35:
                    6e:30:a2:3a:16:26:61:ce:42:25:c3:9f:ed:ea:e4:
                    cc:45:6d:54:b7:d4:04:6a:2d:35:61:8a:04:35:4b:
                    77:84:97:14:7c:31:2a:0d:bc:61:4a:c2:ec:b3:d9:
                    f9:1f
                Exponent: 65537 (0x10001)
        X509v3 extensions:
            X509v3 Basic Constraints: 
                CA:FALSE
            X509v3 Subject Key Identifier: 
                06:54:3E:CD:47:04:58:3A:06:5F:BD:73:BA:79:78:AF:61:83:4F:E3
            X509v3 Authority Key Identifier: 
                keyid:59:A6:AF:D2:FA:0F:5C:7B:BB:46:1A:DE:0C:2C:CB:C9:CD:64:35:23
                DirName:/CN=team509-net
                serial:60:D7:2A:CF:EC:DF:F2:57:44:65:1C:F6:EC:C6:26:39:E9:5F:0C:B3

            X509v3 Extended Key Usage: 
                TLS Web Server Authentication
            X509v3 Key Usage: 
                Digital Signature, Key Encipherment
            X509v3 Subject Alternative Name: 
                DNS:team509-server
    Signature Algorithm: sha256WithRSAEncryption
         74:f4:26:20:72:4f:06:03:e7:70:db:62:6a:7e:6a:bc:34:69:
         8c:e7:73:d3:bc:0c:11:24:f3:bb:e6:b5:3d:68:82:f8:f4:d6:
         c5:78:3c:4d:7a:2b:28:84:f3:87:c8:0a:bc:28:e4:38:39:d0:
         1a:39:d0:84:25:32:28:23:a4:3c:0e:40:35:9f:15:59:46:6c:
         cb:ad:c8:38:d4:be:08:3c:46:42:0c:19:3d:14:c3:ac:6d:21:
         0d:9f:b3:15:33:63:41:0b:06:55:17:7b:fe:16:4c:37:bf:c0:
         71:61:e3:19:a4:b0:06:32:94:93:8d:4e:74:33:51:49:b9:86:
         62:c6:cf:76:44:21:9c:e8:ce:9d:2b:da:dd:8e:4a:e0:a3:dd:
         4c:fc:a0:3f:4f:64:02:92:05:37:e2:5d:56:b4:9a:3e:c5:7f:
         6f:bf:e2:de:65:33:a1:10:27:e5:db:1c:6c:75:78:f8:18:ab:
         15:f9:cf:16:6b:29:f7:1e:b4:c1:ed:14:34:78:cf:37:73:75:
         67:17:92:ec:0f:f2:52:f0:5f:63:65:8f:f5:fc:84:79:9e:59:
         33:81:d4:e1:e8:36:34:33:56:74:ef:cd:a7:4b:70:60:bb:69:
         cd:06:eb:34:e0:53:34:65:c2:2a:58:0c:34:dc:a8:df:ea:b8:
         18:54:78:d7
-----BEGIN CERTIFICATE-----
MIIDeDCCAmCgAwIBAgIRAKEAuiSTVhreggz2SDew7dQwDQYJKoZIhvcNAQELBQAw
FjEUMBIGA1UEAwwLdGVhbTUwOS1uZXQwHhcNMjEwOTEzMDMyMjQ0WhcNMjQwODI4
MDMyMjQ0WjAZMRcwFQYDVQQDDA50ZWFtNTA5LXNlcnZlcjCCASIwDQYJKoZIhvcN
AQEBBQADggEPADCCAQoCggEBAMQCZfrv3l4yTbMHGzSgVXtxnhMedbTfUYGCJtB8
5FFisIit8/tJTQ2LpIXZq9TmQBH5zikSiwznO8Qf9k1kCnFgJEUPRNh4Ll0k2ZEH
KuSqA67Zuc4/2NARlgFGK+x64VjQBwKgXCoDOoTYAKOoKj8OtHK0vQp+KR6ORdWS
JpYXQD3sbFuWh+dEpf96hyWh4D4CIBaWO3NBSgsZH/kksGS3tboqKo1XobYKCaWd
R98FVDt/8+t3RJk7o5bNT7P4ckXKUUAH3fhZA/Z8SMblDdM1bjCiOhYmYc5CJcOf
7erkzEVtVLfUBGotNWGKBDVLd4SXFHwxKg28YUrC7LPZ+R8CAwEAAaOBvTCBujAJ
BgNVHRMEAjAAMB0GA1UdDgQWBBQGVD7NRwRYOgZfvXO6eXivYYNP4zBRBgNVHSME
SjBIgBRZpq/S+g9ce7tGGt4MLMvJzWQ1I6EapBgwFjEUMBIGA1UEAwwLdGVhbTUw
OS1uZXSCFGDXKs/s3/JXRGUc9uzGJjnpXwyzMBMGA1UdJQQMMAoGCCsGAQUFBwMB
MAsGA1UdDwQEAwIFoDAZBgNVHREEEjAQgg50ZWFtNTA5LXNlcnZlcjANBgkqhkiG
9w0BAQsFAAOCAQEAdPQmIHJPBgPncNtian5qvDRpjOdz07wMESTzu+a1PWiC+PTW
xXg8TXorKITzh8gKvCjkODnQGjnQhCUyKCOkPA5ANZ8VWUZsy63IONS+CDxGQgwZ
PRTDrG0hDZ+zFTNjQQsGVRd7/hZMN7/AcWHjGaSwBjKUk41OdDNRSbmGYsbPdkQh
nOjOnSva3Y5K4KPdTPygP09kApIFN+JdVrSaPsV/b7/i3mUzoRAn5dscbHV4+Bir
FfnPFmsp9x60we0UNHjPN3N1ZxeS7A/yUvBfY2WP9fyEeZ5ZM4HU4eg2NDNWdO/N
p0twYLtpzQbrNOBTNGXCKlgMNNyo3+q4GFR41w==
-----END CERTIFICATE-----
