Certificate:
    Data:
        Version: 3 (0x2)
        Serial Number:
            9e:2a:d7:6f:29:12:0c:46:44:fa:df:74:f2:8d:b2:84
        Signature Algorithm: sha256WithRSAEncryption
        Issuer: CN=team77-net
        Validity
            Not Before: Sep 12 23:22:50 2021 GMT
            Not After : Aug 27 23:22:50 2024 GMT
        Subject: CN=team77-server
        Subject Public Key Info:
            Public Key Algorithm: rsaEncryption
                RSA Public-Key: (2048 bit)
                Modulus:
                    00:b6:1f:c3:63:b3:3b:9c:d1:24:3e:8c:42:0d:b0:
                    7d:69:a6:8a:4b:ad:2b:ea:4e:2e:a9:b4:db:06:46:
                    f7:0e:d9:26:36:01:47:5c:c6:25:f0:46:3e:87:ac:
                    5a:cf:1f:d6:88:aa:8d:6c:54:b1:59:43:43:c4:00:
                    a7:a3:f2:83:a1:c7:e9:de:83:87:7f:2e:ef:b8:ce:
                    89:b6:9b:32:17:41:55:58:04:cc:82:c7:97:3d:84:
                    ff:2f:37:1f:20:15:b9:be:59:22:df:63:56:2c:5f:
                    a2:d5:6f:b8:6b:f4:62:dc:b8:0c:7f:c6:e9:0c:38:
                    b1:7f:0f:90:c8:4c:98:30:53:df:79:bd:29:66:4c:
                    33:27:86:4e:ed:57:04:3e:60:cf:96:6c:fd:02:be:
                    93:cb:71:4a:6b:55:93:b4:3a:08:20:00:97:c8:1f:
                    c0:4b:b9:a1:4e:ff:73:c5:76:c9:5c:13:fa:49:d1:
                    f0:50:8c:45:47:a6:7d:65:70:a6:2a:2b:e3:0f:0e:
                    2c:61:27:46:61:e4:6f:b0:75:cc:18:34:d4:e8:3f:
                    0e:52:84:d4:c3:9d:9b:6d:57:21:54:02:e4:0e:ad:
                    2f:48:30:29:c2:f7:26:28:f4:7c:8b:e7:83:b4:97:
                    47:14:25:41:fe:34:6f:aa:f0:a7:c6:94:18:71:44:
                    f6:93
                Exponent: 65537 (0x10001)
        X509v3 extensions:
            X509v3 Basic Constraints: 
                CA:FALSE
            X509v3 Subject Key Identifier: 
                C4:44:11:50:E5:1F:16:85:57:34:42:7E:B1:DF:B4:D4:E7:6D:11:BD
            X509v3 Authority Key Identifier: 
                keyid:1C:39:17:C6:16:4F:61:33:02:B7:05:4F:26:87:F4:D0:21:EE:AD:28
                DirName:/CN=team77-net
                serial:1E:C7:ED:66:9E:DE:E0:44:34:FE:E9:55:26:3C:C3:06:72:41:94:0F

            X509v3 Extended Key Usage: 
                TLS Web Server Authentication
            X509v3 Key Usage: 
                Digital Signature, Key Encipherment
            X509v3 Subject Alternative Name: 
                DNS:team77-server
    Signature Algorithm: sha256WithRSAEncryption
         0b:a0:51:41:5d:f4:11:31:09:40:f8:36:a9:d9:4a:26:10:71:
         11:7b:95:a3:62:ea:d7:91:ff:2e:a8:3a:1d:b1:2e:c0:89:7e:
         1e:b2:c0:83:c4:db:63:97:9a:c8:ac:9f:f9:bf:e9:8d:0c:d0:
         8c:bf:3a:01:c9:40:76:27:ea:32:2c:bf:b0:82:b9:5e:01:cf:
         d3:02:ba:85:13:1e:40:bf:d2:a7:00:2a:25:1a:f4:fd:0d:3c:
         0b:4e:46:c6:e4:e6:43:35:a5:fc:e7:08:45:17:46:0a:f8:2a:
         19:aa:e2:63:42:c9:38:16:c0:31:db:a6:f8:e9:73:13:6f:24:
         6d:06:89:69:f7:a2:a6:aa:0d:50:11:88:99:2e:42:16:b1:2f:
         81:34:51:67:83:c3:9f:85:7b:77:75:68:81:45:50:3e:bd:23:
         10:06:6f:41:65:9d:86:ca:df:56:1c:f4:94:a4:7c:77:01:e3:
         d0:fa:45:7a:08:51:6b:22:47:96:57:79:d5:96:13:26:ef:b0:
         88:9e:a3:47:5a:45:64:d4:a9:3e:ad:8e:1d:22:12:29:01:6e:
         2a:8f:b5:ac:a1:8e:bc:72:06:02:2f:1d:72:b8:e4:04:c3:52:
         66:e7:6c:8d:03:9b:65:a8:83:4b:2c:ac:c6:32:38:91:55:42:
         15:33:02:80
-----BEGIN CERTIFICATE-----
MIIDdDCCAlygAwIBAgIRAJ4q128pEgxGRPrfdPKNsoQwDQYJKoZIhvcNAQELBQAw
FTETMBEGA1UEAwwKdGVhbTc3LW5ldDAeFw0yMTA5MTIyMzIyNTBaFw0yNDA4Mjcy
MzIyNTBaMBgxFjAUBgNVBAMMDXRlYW03Ny1zZXJ2ZXIwggEiMA0GCSqGSIb3DQEB
AQUAA4IBDwAwggEKAoIBAQC2H8Njszuc0SQ+jEINsH1ppopLrSvqTi6ptNsGRvcO
2SY2AUdcxiXwRj6HrFrPH9aIqo1sVLFZQ0PEAKej8oOhx+neg4d/Lu+4zom2mzIX
QVVYBMyCx5c9hP8vNx8gFbm+WSLfY1YsX6LVb7hr9GLcuAx/xukMOLF/D5DITJgw
U995vSlmTDMnhk7tVwQ+YM+WbP0CvpPLcUprVZO0OgggAJfIH8BLuaFO/3PFdslc
E/pJ0fBQjEVHpn1lcKYqK+MPDixhJ0Zh5G+wdcwYNNToPw5ShNTDnZttVyFUAuQO
rS9IMCnC9yYo9HyL54O0l0cUJUH+NG+q8KfGlBhxRPaTAgMBAAGjgbswgbgwCQYD
VR0TBAIwADAdBgNVHQ4EFgQUxEQRUOUfFoVXNEJ+sd+01OdtEb0wUAYDVR0jBEkw
R4AUHDkXxhZPYTMCtwVPJof00CHurSihGaQXMBUxEzARBgNVBAMMCnRlYW03Ny1u
ZXSCFB7H7Wae3uBENP7pVSY8wwZyQZQPMBMGA1UdJQQMMAoGCCsGAQUFBwMBMAsG
A1UdDwQEAwIFoDAYBgNVHREEETAPgg10ZWFtNzctc2VydmVyMA0GCSqGSIb3DQEB
CwUAA4IBAQALoFFBXfQRMQlA+Dap2UomEHERe5WjYurXkf8uqDodsS7AiX4essCD
xNtjl5rIrJ/5v+mNDNCMvzoByUB2J+oyLL+wgrleAc/TArqFEx5Av9KnAColGvT9
DTwLTkbG5OZDNaX85whFF0YK+CoZquJjQsk4FsAx26b46XMTbyRtBolp96Kmqg1Q
EYiZLkIWsS+BNFFng8OfhXt3dWiBRVA+vSMQBm9BZZ2Gyt9WHPSUpHx3AePQ+kV6
CFFrIkeWV3nVlhMm77CInqNHWkVk1Kk+rY4dIhIpAW4qj7WsoY68cgYCLx1yuOQE
w1Jm52yNA5tlqINLLKzGMjiRVUIVMwKA
-----END CERTIFICATE-----
