Certificate:
    Data:
        Version: 3 (0x2)
        Serial Number:
            ee:45:fc:56:c3:d8:31:64:52:7a:63:d5:20:68:e9:46
        Signature Algorithm: sha256WithRSAEncryption
        Issuer: CN=team156-net
        Validity
            Not Before: Sep 13 00:07:35 2021 GMT
            Not After : Aug 28 00:07:35 2024 GMT
        Subject: CN=team156-client
        Subject Public Key Info:
            Public Key Algorithm: rsaEncryption
                RSA Public-Key: (2048 bit)
                Modulus:
                    00:c8:4d:15:e7:06:4c:49:ee:6b:74:d5:fb:e8:03:
                    de:9a:fc:3e:21:ac:ee:48:d8:ef:9a:b1:81:20:77:
                    70:dd:41:ca:ff:f4:33:b7:d1:c5:43:99:7e:92:82:
                    3d:1f:00:5b:d7:ad:20:21:88:ab:af:48:b9:f0:33:
                    59:31:d9:93:0a:1a:8f:75:b1:4e:b5:ce:95:cf:48:
                    54:84:8e:05:b6:ac:09:f0:c6:a8:14:5a:16:e3:3a:
                    05:86:09:1b:1c:70:91:4c:89:f3:d4:ea:d1:bc:fe:
                    77:52:b7:4c:0f:09:67:c8:bd:24:1b:cf:de:8d:26:
                    19:27:8f:15:af:2f:bf:6a:2c:e7:f7:49:24:eb:a3:
                    22:19:a0:ff:62:8d:e6:ff:cb:ef:28:14:9e:6a:75:
                    26:2a:28:f9:a1:8c:e4:ac:55:d8:02:cb:11:2d:10:
                    af:32:5c:bb:d6:b4:98:6d:eb:a0:23:66:2f:85:ac:
                    97:bf:1f:79:0e:29:d2:b0:55:4e:15:18:29:55:79:
                    26:ac:c3:c8:b4:7c:00:5a:e9:f0:7d:3f:f6:b6:d9:
                    7d:31:e6:4a:bf:a5:18:bc:19:96:68:5f:b2:81:fa:
                    c4:32:fb:ac:f1:a4:be:1f:43:7a:1b:b3:71:90:95:
                    74:8e:6d:d2:5b:c4:17:56:60:21:eb:22:df:d4:96:
                    16:55
                Exponent: 65537 (0x10001)
        X509v3 extensions:
            X509v3 Basic Constraints: 
                CA:FALSE
            X509v3 Subject Key Identifier: 
                B9:CA:A0:9C:BA:97:87:5E:A2:09:D1:DB:A5:D4:91:01:30:9B:FE:F3
            X509v3 Authority Key Identifier: 
                keyid:DB:7C:4C:A2:FE:2C:F8:88:2A:44:0C:C1:A2:33:BF:99:FE:E0:7D:B0
                DirName:/CN=team156-net
                serial:10:43:9D:C5:72:75:77:6E:9D:B6:FF:06:7E:E1:E7:CC:D2:1D:CB:98

            X509v3 Extended Key Usage: 
                TLS Web Client Authentication
            X509v3 Key Usage: 
                Digital Signature
    Signature Algorithm: sha256WithRSAEncryption
         b4:66:1b:e2:34:b7:27:ab:88:0d:c4:13:d9:3c:59:51:fa:29:
         0b:47:3c:f0:22:0e:20:56:77:e2:57:8d:be:44:8b:c1:63:4d:
         d6:32:f0:9b:9e:d9:c6:2a:4b:45:42:e2:1d:7f:39:db:87:11:
         8c:42:82:6a:04:40:62:da:72:02:6f:b7:31:3b:65:0b:b1:31:
         4d:83:95:d8:da:11:52:98:d6:ad:14:6a:41:f5:5d:db:ba:3b:
         5c:9d:b3:13:02:4e:c7:20:0a:f1:e7:c9:da:49:f3:63:03:3f:
         0d:bb:28:06:e5:3e:4e:d4:51:a3:22:dd:fd:62:dc:d9:7c:ce:
         7f:85:f7:9c:aa:2a:ad:5e:70:9a:36:a3:87:fd:3c:47:d7:b2:
         7e:f6:7e:70:d7:8a:c2:a1:48:de:e4:52:78:e8:d9:1e:3b:08:
         00:c0:4d:0e:c6:89:69:40:82:58:ba:d4:2d:58:1a:95:8a:40:
         10:bb:f4:64:af:13:cc:f4:12:b0:f8:cb:7f:ef:ce:52:bf:89:
         95:5b:71:b5:4d:f6:26:8f:12:5a:ed:e9:66:4c:51:4f:35:a8:
         b0:76:9e:c7:0a:5a:43:e9:49:bf:89:2d:7a:c1:fe:59:31:fc:
         01:6b:96:3f:1f:a1:61:0a:03:1c:e1:3b:be:e9:cc:ff:46:e6:
         80:8a:4a:75
-----BEGIN CERTIFICATE-----
MIIDXTCCAkWgAwIBAgIRAO5F/FbD2DFkUnpj1SBo6UYwDQYJKoZIhvcNAQELBQAw
FjEUMBIGA1UEAwwLdGVhbTE1Ni1uZXQwHhcNMjEwOTEzMDAwNzM1WhcNMjQwODI4
MDAwNzM1WjAZMRcwFQYDVQQDDA50ZWFtMTU2LWNsaWVudDCCASIwDQYJKoZIhvcN
AQEBBQADggEPADCCAQoCggEBAMhNFecGTEnua3TV++gD3pr8PiGs7kjY75qxgSB3
cN1Byv/0M7fRxUOZfpKCPR8AW9etICGIq69IufAzWTHZkwoaj3WxTrXOlc9IVISO
BbasCfDGqBRaFuM6BYYJGxxwkUyJ89Tq0bz+d1K3TA8JZ8i9JBvP3o0mGSePFa8v
v2os5/dJJOujIhmg/2KN5v/L7ygUnmp1Jioo+aGM5KxV2ALLES0QrzJcu9a0mG3r
oCNmL4Wsl78feQ4p0rBVThUYKVV5JqzDyLR8AFrp8H0/9rbZfTHmSr+lGLwZlmhf
soH6xDL7rPGkvh9DehuzcZCVdI5t0lvEF1ZgIesi39SWFlUCAwEAAaOBojCBnzAJ
BgNVHRMEAjAAMB0GA1UdDgQWBBS5yqCcupeHXqIJ0dul1JEBMJv+8zBRBgNVHSME
SjBIgBTbfEyi/iz4iCpEDMGiM7+Z/uB9sKEapBgwFjEUMBIGA1UEAwwLdGVhbTE1
Ni1uZXSCFBBDncVydXdunbb/Bn7h58zSHcuYMBMGA1UdJQQMMAoGCCsGAQUFBwMC
MAsGA1UdDwQEAwIHgDANBgkqhkiG9w0BAQsFAAOCAQEAtGYb4jS3J6uIDcQT2TxZ
UfopC0c88CIOIFZ34leNvkSLwWNN1jLwm57ZxipLRULiHX8524cRjEKCagRAYtpy
Am+3MTtlC7ExTYOV2NoRUpjWrRRqQfVd27o7XJ2zEwJOxyAK8efJ2knzYwM/Dbso
BuU+TtRRoyLd/WLc2XzOf4X3nKoqrV5wmjajh/08R9eyfvZ+cNeKwqFI3uRSeOjZ
HjsIAMBNDsaJaUCCWLrULVgalYpAELv0ZK8TzPQSsPjLf+/OUr+JlVtxtU32Jo8S
Wu3pZkxRTzWosHaexwpaQ+lJv4ktesH+WTH8AWuWPx+hYQoDHOE7vunM/0bmgIpK
dQ==
-----END CERTIFICATE-----
