Certificate:
    Data:
        Version: 3 (0x2)
        Serial Number:
            56:7e:35:7d:ae:51:8b:ba:02:20:ec:43:80:dd:56:79
        Signature Algorithm: sha256WithRSAEncryption
        Issuer: CN=team119-net
        Validity
            Not Before: Sep 12 23:48:42 2021 GMT
            Not After : Aug 27 23:48:42 2024 GMT
        Subject: CN=team119-server
        Subject Public Key Info:
            Public Key Algorithm: rsaEncryption
                RSA Public-Key: (2048 bit)
                Modulus:
                    00:b5:f9:26:1d:f3:61:f5:fc:2e:0f:cd:c3:ba:22:
                    02:86:19:49:90:1b:c8:56:0e:88:39:30:78:76:7c:
                    48:7c:4c:eb:c3:f1:e0:fc:f4:e9:d0:3a:3f:49:0e:
                    6d:d3:a7:51:fb:85:d5:64:50:80:08:17:f4:c6:ee:
                    fd:db:02:49:73:58:8e:35:69:0c:03:46:fe:1f:ea:
                    da:7c:45:7e:ac:ed:3b:7f:b8:d9:5c:07:15:f4:a3:
                    8c:92:37:17:ae:8b:08:33:2a:0b:e7:a2:22:1d:bf:
                    57:40:36:58:84:ed:2b:ca:fc:99:09:32:11:9f:c8:
                    45:9a:1a:0b:cb:fb:0b:e5:1b:50:7b:ed:52:b6:59:
                    21:fe:4c:e7:cd:e1:87:7c:8f:0b:81:a6:38:04:5c:
                    ad:fb:5b:a1:8a:d3:03:a4:5f:99:54:c8:95:3e:32:
                    9c:55:93:3c:46:47:9e:e0:2b:e3:46:b7:4f:da:fe:
                    d5:0b:e7:57:0e:17:6b:85:2a:ff:9b:9e:7f:56:49:
                    f3:cb:63:b4:70:48:e9:4a:65:5b:a3:87:20:0e:bb:
                    46:54:c7:a1:a0:26:5d:0c:d4:61:0b:40:6a:f6:80:
                    f0:09:99:d3:e4:7e:fc:70:ad:54:17:0a:44:2a:52:
                    ee:c9:78:2f:82:68:a1:c3:a3:31:7b:02:21:ca:c9:
                    91:3d
                Exponent: 65537 (0x10001)
        X509v3 extensions:
            X509v3 Basic Constraints: 
                CA:FALSE
            X509v3 Subject Key Identifier: 
                DE:5A:99:23:DC:F8:F0:15:96:DB:0D:A8:2E:C0:D3:02:C9:F7:CF:22
            X509v3 Authority Key Identifier: 
                keyid:49:BF:6B:70:7B:A5:6D:A8:E6:13:C5:1C:43:CA:E8:E9:23:04:B9:CF
                DirName:/CN=team119-net
                serial:36:6A:58:3E:11:8F:D0:CC:24:C9:E2:F1:9F:F7:29:27:CF:D8:36:C6

            X509v3 Extended Key Usage: 
                TLS Web Server Authentication
            X509v3 Key Usage: 
                Digital Signature, Key Encipherment
            X509v3 Subject Alternative Name: 
                DNS:team119-server
    Signature Algorithm: sha256WithRSAEncryption
         71:57:e5:5b:54:6a:56:ff:9d:a5:dc:72:9e:9b:0a:f0:d2:f5:
         8f:bc:1f:42:40:5a:de:69:ab:d5:66:63:4d:a8:7a:a5:6c:e4:
         1f:86:c4:6f:49:2a:52:8a:c3:2c:81:be:91:7c:9b:f8:34:1f:
         16:d7:d3:9c:8f:ef:a8:52:16:3a:75:51:86:51:97:e5:8b:27:
         57:23:87:82:a5:18:cc:fa:a3:2b:ad:da:eb:70:00:d6:9f:ff:
         cd:dc:53:53:e1:a4:a3:4c:f8:63:17:aa:42:23:5c:a6:4e:94:
         62:26:0a:c4:16:58:2d:a7:3e:4a:31:12:36:f4:f6:bf:a0:59:
         54:f6:b2:4f:9b:93:37:b0:0e:7d:70:37:36:6c:3b:2e:be:ce:
         7e:fe:87:4b:ff:23:e5:d4:5d:c9:62:39:f7:be:a1:e7:54:da:
         16:6e:84:0e:ed:02:16:a2:e9:b6:67:4a:8f:ab:e7:29:0b:ea:
         fd:02:59:ef:d6:38:9a:4f:73:a9:47:6c:66:ca:8c:52:c2:3b:
         b7:cd:3f:d2:a2:9e:1d:a4:8e:58:06:46:51:ba:78:3a:90:86:
         4d:59:c2:1b:d7:40:f6:1f:52:26:d8:0a:78:6b:27:9f:cb:07:
         a9:fb:91:bd:d3:4b:d7:2e:92:5c:82:92:52:d9:cb:a4:d6:73:
         94:3c:4f:b8
-----BEGIN CERTIFICATE-----
MIIDdzCCAl+gAwIBAgIQVn41fa5Ri7oCIOxDgN1WeTANBgkqhkiG9w0BAQsFADAW
MRQwEgYDVQQDDAt0ZWFtMTE5LW5ldDAeFw0yMTA5MTIyMzQ4NDJaFw0yNDA4Mjcy
MzQ4NDJaMBkxFzAVBgNVBAMMDnRlYW0xMTktc2VydmVyMIIBIjANBgkqhkiG9w0B
AQEFAAOCAQ8AMIIBCgKCAQEAtfkmHfNh9fwuD83DuiIChhlJkBvIVg6IOTB4dnxI
fEzrw/Hg/PTp0Do/SQ5t06dR+4XVZFCACBf0xu792wJJc1iONWkMA0b+H+rafEV+
rO07f7jZXAcV9KOMkjcXrosIMyoL56IiHb9XQDZYhO0ryvyZCTIRn8hFmhoLy/sL
5RtQe+1Stlkh/kznzeGHfI8LgaY4BFyt+1uhitMDpF+ZVMiVPjKcVZM8Rkee4Cvj
RrdP2v7VC+dXDhdrhSr/m55/Vknzy2O0cEjpSmVbo4cgDrtGVMehoCZdDNRhC0Bq
9oDwCZnT5H78cK1UFwpEKlLuyXgvgmihw6MxewIhysmRPQIDAQABo4G9MIG6MAkG
A1UdEwQCMAAwHQYDVR0OBBYEFN5amSPc+PAVltsNqC7A0wLJ988iMFEGA1UdIwRK
MEiAFEm/a3B7pW2o5hPFHEPK6OkjBLnPoRqkGDAWMRQwEgYDVQQDDAt0ZWFtMTE5
LW5ldIIUNmpYPhGP0MwkyeLxn/cpJ8/YNsYwEwYDVR0lBAwwCgYIKwYBBQUHAwEw
CwYDVR0PBAQDAgWgMBkGA1UdEQQSMBCCDnRlYW0xMTktc2VydmVyMA0GCSqGSIb3
DQEBCwUAA4IBAQBxV+VbVGpW/52l3HKemwrw0vWPvB9CQFreaavVZmNNqHqlbOQf
hsRvSSpSisMsgb6RfJv4NB8W19Ocj++oUhY6dVGGUZfliydXI4eCpRjM+qMrrdrr
cADWn//N3FNT4aSjTPhjF6pCI1ymTpRiJgrEFlgtpz5KMRI29Pa/oFlU9rJPm5M3
sA59cDc2bDsuvs5+/odL/yPl1F3JYjn3vqHnVNoWboQO7QIWoum2Z0qPq+cpC+r9
Alnv1jiaT3OpR2xmyoxSwju3zT/Sop4dpI5YBkZRung6kIZNWcIb10D2H1Im2Ap4
ayefywep+5G900vXLpJcgpJS2cuk1nOUPE+4
-----END CERTIFICATE-----
