Certificate:
    Data:
        Version: 3 (0x2)
        Serial Number:
            f1:85:62:b6:be:a7:79:95:59:0b:ec:dc:21:a6:86:17
        Signature Algorithm: sha256WithRSAEncryption
        Issuer: CN=team741-net
        Validity
            Not Before: Sep 13 05:08:03 2021 GMT
            Not After : Aug 28 05:08:03 2024 GMT
        Subject: CN=team741-client
        Subject Public Key Info:
            Public Key Algorithm: rsaEncryption
                RSA Public-Key: (2048 bit)
                Modulus:
                    00:c7:cb:bc:a5:7e:a8:71:17:31:10:60:ec:3a:8c:
                    d6:f7:ea:49:42:b0:1f:8b:54:29:45:23:78:e8:b4:
                    33:a6:42:b5:02:7b:bd:2e:db:b6:06:2e:89:d9:22:
                    c5:6c:24:e0:61:15:bd:15:4b:18:f9:ab:00:47:cd:
                    0e:68:62:1e:39:93:3b:4e:de:19:6c:9c:53:7f:81:
                    83:69:dd:2b:43:b6:7f:c4:87:47:5d:07:d8:1f:45:
                    13:9d:c1:49:98:b4:0f:f7:4f:ca:a3:a3:4c:01:a3:
                    25:df:68:dc:99:8d:00:b3:d2:70:d1:8e:7e:f8:b4:
                    f3:96:01:a1:8f:71:a9:54:0d:26:3a:94:ca:e7:3b:
                    fd:05:1c:15:c9:6b:84:70:49:6a:0a:31:53:75:03:
                    54:33:d5:f9:d7:a7:ee:5c:e2:fb:53:f8:f3:7d:5c:
                    af:4b:0d:8a:a1:08:bc:7b:c4:91:d3:78:b2:8b:5a:
                    b2:5a:06:44:33:70:9d:63:31:58:82:62:4c:cb:d9:
                    d4:32:8a:97:f8:33:96:f9:f1:50:c4:35:11:72:c5:
                    b5:6e:8a:1c:c3:3b:67:39:92:56:8c:12:03:da:89:
                    0b:d7:72:a4:30:7d:a8:56:c7:98:71:11:9d:6b:3d:
                    dd:a6:40:e6:96:b5:15:ab:ac:cb:8f:d0:21:ea:1f:
                    04:45
                Exponent: 65537 (0x10001)
        X509v3 extensions:
            X509v3 Basic Constraints: 
                CA:FALSE
            X509v3 Subject Key Identifier: 
                3D:44:44:5D:54:24:43:AC:A2:17:3B:E2:C1:7D:60:88:08:72:2B:60
            X509v3 Authority Key Identifier: 
                keyid:BD:19:C3:93:5F:F0:60:4E:27:0E:A9:3F:45:A5:B9:39:B4:37:4F:55
                DirName:/CN=team741-net
                serial:42:01:D1:8F:29:22:D2:FB:D7:3C:63:97:47:53:90:6F:71:03:6C:4E

            X509v3 Extended Key Usage: 
                TLS Web Client Authentication
            X509v3 Key Usage: 
                Digital Signature
    Signature Algorithm: sha256WithRSAEncryption
         7d:27:fb:5b:57:57:13:72:e1:c1:af:b3:b1:d7:61:e7:59:b0:
         ff:16:43:41:a2:e4:c9:1c:a9:d9:a2:b0:f0:28:51:b7:f2:23:
         50:da:7b:9a:21:f8:99:ef:50:12:a0:13:54:99:0b:9e:03:a2:
         cc:d3:7d:60:12:e4:1f:41:01:c3:7a:cb:32:6d:ae:89:47:c6:
         91:aa:fe:4f:0e:5d:47:db:1b:d6:35:a9:b4:20:39:d9:90:71:
         c7:2f:20:97:d9:26:07:68:43:48:79:83:a0:51:95:0b:06:9f:
         8f:7b:ef:83:72:eb:62:5f:8f:a5:c5:36:de:2b:81:81:a5:57:
         f8:a6:9d:0b:27:80:98:3e:d1:4c:b7:23:51:22:93:0e:d5:58:
         30:97:cc:b3:89:6a:bd:94:d8:3d:15:eb:0c:6a:d9:07:04:3f:
         92:2c:a1:7c:1c:56:c9:19:1e:d1:73:10:b2:c0:4b:98:1d:d4:
         0a:30:6b:99:24:b0:6d:36:4c:93:65:63:c8:62:58:f1:c3:c8:
         7d:b0:c6:66:32:49:b3:3e:fb:df:62:21:ca:f9:36:2a:d1:c6:
         61:17:fd:48:bf:c3:ca:f5:44:f3:22:92:df:88:73:96:38:64:
         ce:7a:b1:9d:6c:38:60:33:df:05:ee:0b:b9:4e:34:f9:62:d2:
         b4:5b:0b:d7
-----BEGIN CERTIFICATE-----
MIIDXTCCAkWgAwIBAgIRAPGFYra+p3mVWQvs3CGmhhcwDQYJKoZIhvcNAQELBQAw
FjEUMBIGA1UEAwwLdGVhbTc0MS1uZXQwHhcNMjEwOTEzMDUwODAzWhcNMjQwODI4
MDUwODAzWjAZMRcwFQYDVQQDDA50ZWFtNzQxLWNsaWVudDCCASIwDQYJKoZIhvcN
AQEBBQADggEPADCCAQoCggEBAMfLvKV+qHEXMRBg7DqM1vfqSUKwH4tUKUUjeOi0
M6ZCtQJ7vS7btgYuidkixWwk4GEVvRVLGPmrAEfNDmhiHjmTO07eGWycU3+Bg2nd
K0O2f8SHR10H2B9FE53BSZi0D/dPyqOjTAGjJd9o3JmNALPScNGOfvi085YBoY9x
qVQNJjqUyuc7/QUcFclrhHBJagoxU3UDVDPV+den7lzi+1P4831cr0sNiqEIvHvE
kdN4sotasloGRDNwnWMxWIJiTMvZ1DKKl/gzlvnxUMQ1EXLFtW6KHMM7ZzmSVowS
A9qJC9dypDB9qFbHmHERnWs93aZA5pa1Fausy4/QIeofBEUCAwEAAaOBojCBnzAJ
BgNVHRMEAjAAMB0GA1UdDgQWBBQ9RERdVCRDrKIXO+LBfWCICHIrYDBRBgNVHSME
SjBIgBS9GcOTX/BgTicOqT9Fpbk5tDdPVaEapBgwFjEUMBIGA1UEAwwLdGVhbTc0
MS1uZXSCFEIB0Y8pItL71zxjl0dTkG9xA2xOMBMGA1UdJQQMMAoGCCsGAQUFBwMC
MAsGA1UdDwQEAwIHgDANBgkqhkiG9w0BAQsFAAOCAQEAfSf7W1dXE3Lhwa+zsddh
51mw/xZDQaLkyRyp2aKw8ChRt/IjUNp7miH4me9QEqATVJkLngOizNN9YBLkH0EB
w3rLMm2uiUfGkar+Tw5dR9sb1jWptCA52ZBxxy8gl9kmB2hDSHmDoFGVCwafj3vv
g3LrYl+PpcU23iuBgaVX+KadCyeAmD7RTLcjUSKTDtVYMJfMs4lqvZTYPRXrDGrZ
BwQ/kiyhfBxWyRke0XMQssBLmB3UCjBrmSSwbTZMk2VjyGJY8cPIfbDGZjJJsz77
32Ihyvk2KtHGYRf9SL/DyvVE8yKS34hzljhkznqxnWw4YDPfBe4LuU40+WLStFsL
1w==
-----END CERTIFICATE-----
