Certificate:
    Data:
        Version: 3 (0x2)
        Serial Number:
            75:bb:56:8d:f4:7e:a5:18:4f:c1:bf:4f:70:5a:7d:75
        Signature Algorithm: sha256WithRSAEncryption
        Issuer: CN=team603-net
        Validity
            Not Before: Sep 13 04:20:24 2021 GMT
            Not After : Aug 28 04:20:24 2024 GMT
        Subject: CN=team603-client
        Subject Public Key Info:
            Public Key Algorithm: rsaEncryption
                RSA Public-Key: (2048 bit)
                Modulus:
                    00:b1:b7:b8:db:08:9e:d4:46:a4:3c:87:10:7d:d0:
                    30:8d:04:4b:9d:12:49:bc:23:d4:96:26:f3:b6:e0:
                    7f:4d:ac:1e:7d:22:ce:68:66:65:2c:a7:94:1a:26:
                    6d:af:cf:77:ed:b9:be:f3:74:c1:fd:f2:3a:14:b1:
                    9a:33:5b:6f:7f:5e:24:3d:1f:1a:01:96:1a:31:c2:
                    c1:66:2c:95:72:df:64:8a:10:05:09:b5:9e:95:12:
                    c1:89:22:73:cd:f2:15:db:bc:5c:dc:13:d9:b7:12:
                    5e:ac:ff:6a:bd:0e:93:79:a3:04:ee:f2:da:5b:4b:
                    1a:8c:5f:8a:e1:aa:d1:7b:e9:ea:75:2f:01:3b:65:
                    cf:f7:67:d4:8c:bb:de:66:e6:8b:3b:f1:7f:ac:e8:
                    fa:bc:1f:59:aa:3a:fe:56:ea:06:9f:b4:ff:29:14:
                    7c:be:a1:c5:21:16:4a:e8:bd:eb:c8:d5:af:27:68:
                    fb:71:aa:5f:fa:99:99:fa:1f:00:ab:ba:25:c0:6e:
                    95:92:a6:19:5d:9b:26:12:8e:0e:46:2f:51:b6:a1:
                    81:6f:85:72:2e:1b:fe:73:5b:cf:88:0f:f2:59:97:
                    6f:28:e8:a1:10:24:50:49:75:a3:93:7f:d5:12:db:
                    5a:a8:de:4f:45:43:17:03:3d:73:b5:3e:39:37:af:
                    59:15
                Exponent: 65537 (0x10001)
        X509v3 extensions:
            X509v3 Basic Constraints: 
                CA:FALSE
            X509v3 Subject Key Identifier: 
                D7:12:B3:07:D8:0D:81:D3:C6:48:2C:14:CD:37:F2:7C:A9:0B:6E:36
            X509v3 Authority Key Identifier: 
                keyid:ED:78:B6:65:3C:4C:83:92:84:B3:4B:34:77:AD:EF:21:6B:D7:25:65
                DirName:/CN=team603-net
                serial:4D:4E:CA:3E:06:F5:C4:0E:8E:49:25:F0:42:5B:69:BA:94:54:66:C4

            X509v3 Extended Key Usage: 
                TLS Web Client Authentication
            X509v3 Key Usage: 
                Digital Signature
    Signature Algorithm: sha256WithRSAEncryption
         9e:5d:b2:5c:46:3c:5c:33:2e:57:be:04:50:47:3e:b9:4f:4a:
         79:b1:6c:bd:ef:06:99:4d:66:92:6c:33:10:11:13:d5:5d:e9:
         f5:f5:3b:31:c8:85:fb:de:26:61:95:30:87:e5:de:33:46:b4:
         40:b4:f2:93:5b:df:1b:55:95:2e:24:70:42:f4:9a:5b:ad:65:
         69:d8:0b:c4:73:84:fe:d7:90:42:e5:83:c8:0f:dc:57:cd:21:
         b9:4e:94:43:e1:1d:72:12:08:99:56:5f:1a:cc:52:df:01:12:
         2d:a5:e7:f6:02:59:38:cf:7b:46:6e:b4:4e:9f:da:b0:86:9f:
         38:9c:19:fc:c4:d8:82:87:f0:02:2c:e4:8e:62:e2:2d:33:24:
         71:e2:f5:36:8e:ff:07:ba:27:9e:70:8c:06:70:72:c0:6e:40:
         5d:31:10:f3:81:a1:d2:f5:fc:e0:02:2a:e8:12:05:00:82:a5:
         67:49:86:40:c7:20:b6:8b:33:66:83:53:58:d9:42:fa:87:75:
         a9:59:15:de:2d:56:d1:3f:1d:84:48:0f:94:9e:74:d2:02:ae:
         2b:fb:29:d3:cd:e8:25:8f:23:1b:0d:85:5b:af:b5:c6:21:fc:
         47:d3:2d:0b:cc:0c:9e:ee:66:90:42:f8:31:8f:8b:d8:35:eb:
         e9:63:3c:4c
-----BEGIN CERTIFICATE-----
MIIDXDCCAkSgAwIBAgIQdbtWjfR+pRhPwb9PcFp9dTANBgkqhkiG9w0BAQsFADAW
MRQwEgYDVQQDDAt0ZWFtNjAzLW5ldDAeFw0yMTA5MTMwNDIwMjRaFw0yNDA4Mjgw
NDIwMjRaMBkxFzAVBgNVBAMMDnRlYW02MDMtY2xpZW50MIIBIjANBgkqhkiG9w0B
AQEFAAOCAQ8AMIIBCgKCAQEAsbe42wie1EakPIcQfdAwjQRLnRJJvCPUlibztuB/
TawefSLOaGZlLKeUGiZtr8937bm+83TB/fI6FLGaM1tvf14kPR8aAZYaMcLBZiyV
ct9kihAFCbWelRLBiSJzzfIV27xc3BPZtxJerP9qvQ6TeaME7vLaW0sajF+K4arR
e+nqdS8BO2XP92fUjLveZuaLO/F/rOj6vB9Zqjr+VuoGn7T/KRR8vqHFIRZK6L3r
yNWvJ2j7capf+pmZ+h8Aq7olwG6VkqYZXZsmEo4ORi9RtqGBb4VyLhv+c1vPiA/y
WZdvKOihECRQSXWjk3/VEttaqN5PRUMXAz1ztT45N69ZFQIDAQABo4GiMIGfMAkG
A1UdEwQCMAAwHQYDVR0OBBYEFNcSswfYDYHTxkgsFM038nypC242MFEGA1UdIwRK
MEiAFO14tmU8TIOShLNLNHet7yFr1yVloRqkGDAWMRQwEgYDVQQDDAt0ZWFtNjAz
LW5ldIIUTU7KPgb1xA6OSSXwQltpupRUZsQwEwYDVR0lBAwwCgYIKwYBBQUHAwIw
CwYDVR0PBAQDAgeAMA0GCSqGSIb3DQEBCwUAA4IBAQCeXbJcRjxcMy5XvgRQRz65
T0p5sWy97waZTWaSbDMQERPVXen19TsxyIX73iZhlTCH5d4zRrRAtPKTW98bVZUu
JHBC9JpbrWVp2AvEc4T+15BC5YPID9xXzSG5TpRD4R1yEgiZVl8azFLfARItpef2
Alk4z3tGbrROn9qwhp84nBn8xNiCh/ACLOSOYuItMyRx4vU2jv8HuieecIwGcHLA
bkBdMRDzgaHS9fzgAiroEgUAgqVnSYZAxyC2izNmg1NY2UL6h3WpWRXeLVbRPx2E
SA+UnnTSAq4r+ynTzegljyMbDYVbr7XGIfxH0y0LzAye7maQQvgxj4vYNevpYzxM
-----END CERTIFICATE-----
