Certificate:
    Data:
        Version: 3 (0x2)
        Serial Number:
            77:98:91:93:94:6d:12:47:0e:53:2a:70:52:db:e9:1b
        Signature Algorithm: sha256WithRSAEncryption
        Issuer: CN=team680-net
        Validity
            Not Before: Sep 13 04:38:01 2021 GMT
            Not After : Aug 28 04:38:01 2024 GMT
        Subject: CN=team680-client
        Subject Public Key Info:
            Public Key Algorithm: rsaEncryption
                RSA Public-Key: (2048 bit)
                Modulus:
                    00:b7:22:26:cc:fd:4b:55:e8:29:49:4d:b5:e0:8c:
                    8f:be:4c:a4:ad:c0:1f:92:9e:94:35:8f:f0:c4:7f:
                    cd:84:2f:53:73:51:4a:90:92:9c:9c:56:92:11:56:
                    37:73:26:36:54:c0:02:fd:24:18:9f:3f:77:7c:3e:
                    19:12:5e:f8:97:a6:48:df:fa:fb:10:57:78:8b:8f:
                    23:35:8e:b1:44:33:b5:39:3b:4d:63:c3:a4:0d:20:
                    5c:7e:30:0e:c8:2b:2f:ff:ce:03:b3:c3:d3:db:9a:
                    18:27:d9:3b:e6:c2:64:85:bd:b9:49:e1:89:3c:da:
                    c5:8e:89:8b:09:a7:b6:66:14:b6:6c:55:10:90:60:
                    c2:6e:a4:42:c9:6d:38:5d:73:3a:9b:6f:57:cc:1e:
                    02:f2:36:e4:3e:ff:e3:9c:af:39:5e:3b:05:07:2a:
                    35:4d:82:f1:77:57:14:e0:5b:ac:1d:50:5e:59:30:
                    bc:1a:17:93:3d:b7:53:d9:47:67:d8:17:5c:b3:1b:
                    d1:ac:25:48:db:c8:8e:88:f0:7d:c7:e6:0b:9e:54:
                    1b:17:4b:a7:19:64:71:75:8b:ea:05:c2:ff:60:1d:
                    18:df:d5:c0:2a:77:45:e1:f6:77:a7:02:d3:22:06:
                    55:f6:d9:75:81:af:7c:10:3e:35:47:29:64:74:3d:
                    99:29
                Exponent: 65537 (0x10001)
        X509v3 extensions:
            X509v3 Basic Constraints: 
                CA:FALSE
            X509v3 Subject Key Identifier: 
                31:D8:86:FB:CD:63:96:8D:20:DD:C0:DB:4A:03:07:14:3E:BC:98:5B
            X509v3 Authority Key Identifier: 
                keyid:15:BE:0F:63:F6:0F:F2:33:82:78:14:84:4A:8F:32:C7:C9:0C:EA:B6
                DirName:/CN=team680-net
                serial:11:C1:F5:F3:9B:5B:D6:35:D9:16:87:95:F5:90:7F:EE:A0:44:7F:BD

            X509v3 Extended Key Usage: 
                TLS Web Client Authentication
            X509v3 Key Usage: 
                Digital Signature
    Signature Algorithm: sha256WithRSAEncryption
         6f:cd:d7:ed:38:ba:b0:06:bc:0c:5d:70:b2:56:e3:5f:bd:27:
         9e:c7:e7:32:0d:19:b8:3d:11:83:12:da:2b:24:30:64:b0:9b:
         31:75:57:ad:45:5f:6f:90:94:17:3f:9c:33:ea:b7:6d:ed:75:
         7d:64:f1:97:76:81:46:81:47:95:cb:93:97:ce:fd:39:64:34:
         16:5b:9c:49:ce:8e:76:77:22:de:0a:0b:0e:00:6b:e0:5c:73:
         44:c9:80:46:4b:71:af:c7:5e:0c:88:47:7c:cf:0f:de:c5:62:
         09:76:61:c4:b8:df:61:c5:01:fc:53:77:8d:58:9a:08:3f:a4:
         5e:db:92:62:fb:ae:7c:c0:15:c6:32:12:63:58:13:6d:c2:52:
         2f:93:6b:b6:ff:db:be:8c:cc:da:d8:bf:bb:89:12:d9:7c:f9:
         4b:ba:5a:65:43:89:c8:0f:97:ca:ad:dd:2f:11:61:e4:21:e1:
         93:00:a3:75:4a:3e:61:28:d2:98:52:25:86:8f:0f:22:f5:12:
         5e:f2:6c:51:61:34:81:b7:85:41:5e:6e:21:34:a5:8c:85:92:
         fc:a7:59:fb:08:21:72:42:81:7e:a2:13:eb:08:31:a8:42:25:
         ff:47:f9:2d:1f:d8:b7:b5:8c:83:9e:53:f7:8d:63:e4:bd:8c:
         ab:1a:db:24
-----BEGIN CERTIFICATE-----
MIIDXDCCAkSgAwIBAgIQd5iRk5RtEkcOUypwUtvpGzANBgkqhkiG9w0BAQsFADAW
MRQwEgYDVQQDDAt0ZWFtNjgwLW5ldDAeFw0yMTA5MTMwNDM4MDFaFw0yNDA4Mjgw
NDM4MDFaMBkxFzAVBgNVBAMMDnRlYW02ODAtY2xpZW50MIIBIjANBgkqhkiG9w0B
AQEFAAOCAQ8AMIIBCgKCAQEAtyImzP1LVegpSU214IyPvkykrcAfkp6UNY/wxH/N
hC9Tc1FKkJKcnFaSEVY3cyY2VMAC/SQYnz93fD4ZEl74l6ZI3/r7EFd4i48jNY6x
RDO1OTtNY8OkDSBcfjAOyCsv/84Ds8PT25oYJ9k75sJkhb25SeGJPNrFjomLCae2
ZhS2bFUQkGDCbqRCyW04XXM6m29XzB4C8jbkPv/jnK85XjsFByo1TYLxd1cU4Fus
HVBeWTC8GheTPbdT2Udn2BdcsxvRrCVI28iOiPB9x+YLnlQbF0unGWRxdYvqBcL/
YB0Y39XAKndF4fZ3pwLTIgZV9tl1ga98ED41RylkdD2ZKQIDAQABo4GiMIGfMAkG
A1UdEwQCMAAwHQYDVR0OBBYEFDHYhvvNY5aNIN3A20oDBxQ+vJhbMFEGA1UdIwRK
MEiAFBW+D2P2D/IzgngUhEqPMsfJDOq2oRqkGDAWMRQwEgYDVQQDDAt0ZWFtNjgw
LW5ldIIUEcH185tb1jXZFoeV9ZB/7qBEf70wEwYDVR0lBAwwCgYIKwYBBQUHAwIw
CwYDVR0PBAQDAgeAMA0GCSqGSIb3DQEBCwUAA4IBAQBvzdftOLqwBrwMXXCyVuNf
vSeex+cyDRm4PRGDEtorJDBksJsxdVetRV9vkJQXP5wz6rdt7XV9ZPGXdoFGgUeV
y5OXzv05ZDQWW5xJzo52dyLeCgsOAGvgXHNEyYBGS3Gvx14MiEd8zw/exWIJdmHE
uN9hxQH8U3eNWJoIP6Re25Ji+658wBXGMhJjWBNtwlIvk2u2/9u+jMza2L+7iRLZ
fPlLulplQ4nID5fKrd0vEWHkIeGTAKN1Sj5hKNKYUiWGjw8i9RJe8mxRYTSBt4VB
Xm4hNKWMhZL8p1n7CCFyQoF+ohPrCDGoQiX/R/ktH9i3tYyDnlP3jWPkvYyrGtsk
-----END CERTIFICATE-----
