Certificate:
    Data:
        Version: 3 (0x2)
        Serial Number:
            83:8f:1f:2b:f1:eb:36:4a:47:d6:45:d2:14:40:76:6a
        Signature Algorithm: sha256WithRSAEncryption
        Issuer: CN=team358-net
        Validity
            Not Before: Sep 13 02:01:42 2021 GMT
            Not After : Aug 28 02:01:42 2024 GMT
        Subject: CN=team358-client
        Subject Public Key Info:
            Public Key Algorithm: rsaEncryption
                RSA Public-Key: (2048 bit)
                Modulus:
                    00:e3:75:ec:49:fb:82:c7:40:b1:8f:19:f2:ca:58:
                    59:7f:a8:78:5a:88:b9:b3:52:b4:a1:0c:8e:68:41:
                    2e:86:72:ab:ef:1e:d1:4e:55:0d:65:81:e9:7a:85:
                    a0:58:ac:1b:97:04:62:73:c9:fb:36:e5:2b:cf:f0:
                    bf:8f:b6:7b:61:33:10:e6:b3:97:a5:ca:ac:f9:3d:
                    cf:2d:e8:e6:aa:61:95:da:bf:71:3f:40:d0:37:7f:
                    ae:ab:b3:b9:8e:61:3e:bf:e6:26:c1:77:2a:8d:a8:
                    85:d4:3f:f7:99:8b:ec:82:24:c0:e0:6e:ad:f1:de:
                    c3:93:dc:01:d2:07:5f:92:68:fd:da:cc:f9:35:2f:
                    28:96:da:52:25:39:83:75:8a:63:d4:4a:f4:cb:41:
                    e9:07:27:e3:4b:3a:a9:12:5b:5c:48:cc:79:34:40:
                    c8:d6:6b:97:44:c5:d2:d2:8d:f8:ec:91:37:a3:2d:
                    f8:e5:e6:51:2a:ea:08:f9:47:27:9f:d1:fa:a0:f4:
                    9b:3c:96:3d:3b:06:bd:4c:ff:28:bd:bf:4b:87:91:
                    e8:47:6c:ca:43:1f:27:53:36:3d:ff:0c:ff:8e:55:
                    c7:c1:ec:0e:79:54:0d:b8:ae:3e:7b:c3:f3:70:d7:
                    1e:f8:1a:ad:71:0c:6b:54:94:80:1c:82:8c:4a:34:
                    3f:c1
                Exponent: 65537 (0x10001)
        X509v3 extensions:
            X509v3 Basic Constraints: 
                CA:FALSE
            X509v3 Subject Key Identifier: 
                A4:F1:31:27:6C:BE:D5:7F:2D:F6:0E:77:96:7C:0A:B8:3F:FC:E1:32
            X509v3 Authority Key Identifier: 
                keyid:04:2A:2F:9F:9D:89:74:80:43:24:85:3D:9A:B1:77:D1:50:65:1F:A2
                DirName:/CN=team358-net
                serial:23:E1:4E:9A:C1:EB:B2:33:42:F3:3F:87:FA:8F:2B:70:54:82:AC:18

            X509v3 Extended Key Usage: 
                TLS Web Client Authentication
            X509v3 Key Usage: 
                Digital Signature
    Signature Algorithm: sha256WithRSAEncryption
         b1:6a:1c:eb:2c:64:35:34:c8:7d:e3:ff:b3:27:91:ea:58:64:
         76:fb:a1:f1:7e:42:3a:d2:15:3d:bd:4f:fa:37:bc:0c:ad:a5:
         fe:41:53:04:0d:d4:76:3d:f5:4a:91:de:0f:16:3e:c1:73:12:
         7c:2b:56:09:54:15:5f:1e:8b:c8:75:6b:27:88:d4:d3:8c:81:
         d4:14:5d:9d:47:09:af:46:7a:61:1c:59:65:2e:a3:7b:87:c5:
         c6:b6:e4:ba:72:42:e0:14:dc:b1:bf:fa:88:7a:87:83:c3:9f:
         4b:4b:66:6d:e8:23:7c:49:fd:63:60:19:e2:2e:17:d7:3d:a4:
         71:dd:42:fb:7b:2f:83:47:e2:86:2d:85:ff:85:a1:26:44:79:
         a1:5f:d4:1d:13:ae:e2:27:1f:7f:f3:ad:0b:6c:1b:c1:82:99:
         9c:73:8d:67:43:ab:0d:eb:8b:05:9c:ca:57:88:c1:1c:18:58:
         23:0e:fd:7e:f0:c6:e6:26:4c:98:ee:77:bb:e3:99:ff:26:c4:
         28:ca:67:62:c1:e2:8e:e1:4e:5f:ef:45:5e:63:84:7b:81:4e:
         ac:7d:4f:e8:47:40:54:7c:48:7d:a7:50:25:ca:70:18:7c:59:
         fb:a9:31:f9:2a:8c:7f:cd:48:0b:46:a7:fa:72:fc:22:b8:59:
         82:a2:7b:af
-----BEGIN CERTIFICATE-----
MIIDXTCCAkWgAwIBAgIRAIOPHyvx6zZKR9ZF0hRAdmowDQYJKoZIhvcNAQELBQAw
FjEUMBIGA1UEAwwLdGVhbTM1OC1uZXQwHhcNMjEwOTEzMDIwMTQyWhcNMjQwODI4
MDIwMTQyWjAZMRcwFQYDVQQDDA50ZWFtMzU4LWNsaWVudDCCASIwDQYJKoZIhvcN
AQEBBQADggEPADCCAQoCggEBAON17En7gsdAsY8Z8spYWX+oeFqIubNStKEMjmhB
LoZyq+8e0U5VDWWB6XqFoFisG5cEYnPJ+zblK8/wv4+2e2EzEOazl6XKrPk9zy3o
5qphldq/cT9A0Dd/rquzuY5hPr/mJsF3Ko2ohdQ/95mL7IIkwOBurfHew5PcAdIH
X5Jo/drM+TUvKJbaUiU5g3WKY9RK9MtB6Qcn40s6qRJbXEjMeTRAyNZrl0TF0tKN
+OyRN6Mt+OXmUSrqCPlHJ5/R+qD0mzyWPTsGvUz/KL2/S4eR6EdsykMfJ1M2Pf8M
/45Vx8HsDnlUDbiuPnvD83DXHvgarXEMa1SUgByCjEo0P8ECAwEAAaOBojCBnzAJ
BgNVHRMEAjAAMB0GA1UdDgQWBBSk8TEnbL7Vfy32DneWfAq4P/zhMjBRBgNVHSME
SjBIgBQEKi+fnYl0gEMkhT2asXfRUGUfoqEapBgwFjEUMBIGA1UEAwwLdGVhbTM1
OC1uZXSCFCPhTprB67IzQvM/h/qPK3BUgqwYMBMGA1UdJQQMMAoGCCsGAQUFBwMC
MAsGA1UdDwQEAwIHgDANBgkqhkiG9w0BAQsFAAOCAQEAsWoc6yxkNTTIfeP/syeR
6lhkdvuh8X5COtIVPb1P+je8DK2l/kFTBA3Udj31SpHeDxY+wXMSfCtWCVQVXx6L
yHVrJ4jU04yB1BRdnUcJr0Z6YRxZZS6je4fFxrbkunJC4BTcsb/6iHqHg8OfS0tm
begjfEn9Y2AZ4i4X1z2kcd1C+3svg0fihi2F/4WhJkR5oV/UHROu4icff/OtC2wb
wYKZnHONZ0OrDeuLBZzKV4jBHBhYIw79fvDG5iZMmO53u+OZ/ybEKMpnYsHijuFO
X+9FXmOEe4FOrH1P6EdAVHxIfadQJcpwGHxZ+6kx+SqMf81IC0an+nL8IrhZgqJ7
rw==
-----END CERTIFICATE-----
