Certificate:
    Data:
        Version: 3 (0x2)
        Serial Number:
            e2:21:bf:62:a3:ec:ef:46:54:dc:f2:fe:f3:90:68:dc
        Signature Algorithm: sha256WithRSAEncryption
        Issuer: CN=team358-net
        Validity
            Not Before: Sep 13 02:01:42 2021 GMT
            Not After : Aug 28 02:01:42 2024 GMT
        Subject: CN=team358-server
        Subject Public Key Info:
            Public Key Algorithm: rsaEncryption
                RSA Public-Key: (2048 bit)
                Modulus:
                    00:cd:8a:9b:eb:c8:5f:28:ad:27:10:b6:f4:42:ef:
                    39:bd:af:57:63:7b:66:af:86:9b:76:eb:f7:06:be:
                    33:5f:70:3c:82:57:e7:11:de:27:0b:c3:37:88:a0:
                    51:74:27:db:89:58:90:c6:c7:19:98:b0:0b:ab:72:
                    2b:37:95:a0:04:b0:40:0b:a3:af:e3:6e:81:99:10:
                    f3:2b:c2:be:6a:81:4b:1c:32:36:85:35:b3:aa:6c:
                    60:bc:a5:dd:70:29:31:04:77:77:0e:72:88:2b:ea:
                    fe:a5:5d:08:1a:c9:e6:24:3f:2f:18:08:ef:5b:a1:
                    f0:25:f7:0e:20:b3:ab:42:90:08:27:da:0e:fb:c5:
                    89:dd:e5:15:2f:93:62:9e:33:ed:9f:58:5c:66:ea:
                    8d:3f:39:8f:0f:30:a6:0f:bb:53:64:bd:db:5a:4d:
                    f2:42:58:c6:86:5c:d7:a1:f0:b6:f2:94:82:b2:e6:
                    3f:b1:35:a6:c0:a4:7a:fd:f6:20:02:f5:f0:7d:c4:
                    a8:59:e5:c6:55:e0:67:31:11:bc:78:50:8a:34:db:
                    83:96:b7:05:1f:9d:71:d6:a1:dd:15:c5:be:2b:5b:
                    30:54:2b:f2:c3:c4:a1:fa:1d:60:3a:b9:d7:e4:5e:
                    9f:ef:98:e8:a6:36:f4:c6:c5:a4:d7:7c:10:1f:ac:
                    bd:f1
                Exponent: 65537 (0x10001)
        X509v3 extensions:
            X509v3 Basic Constraints: 
                CA:FALSE
            X509v3 Subject Key Identifier: 
                9E:4A:5F:D9:42:E1:F6:6F:FF:DC:05:20:B9:C8:3F:E2:ED:FF:43:D3
            X509v3 Authority Key Identifier: 
                keyid:04:2A:2F:9F:9D:89:74:80:43:24:85:3D:9A:B1:77:D1:50:65:1F:A2
                DirName:/CN=team358-net
                serial:23:E1:4E:9A:C1:EB:B2:33:42:F3:3F:87:FA:8F:2B:70:54:82:AC:18

            X509v3 Extended Key Usage: 
                TLS Web Server Authentication
            X509v3 Key Usage: 
                Digital Signature, Key Encipherment
            X509v3 Subject Alternative Name: 
                DNS:team358-server
    Signature Algorithm: sha256WithRSAEncryption
         aa:1a:02:22:a4:12:9e:c1:51:00:e6:57:45:ac:5d:62:02:1b:
         6b:17:d2:fa:ff:87:f1:b8:23:82:9b:fc:42:24:93:73:81:5a:
         52:de:3f:1c:f1:cd:83:1f:f2:08:2d:2f:ff:00:1e:97:ff:e1:
         4c:f5:45:77:1a:0e:25:b2:e9:e6:8c:13:a9:d5:0d:97:16:1e:
         0e:d6:d1:07:b4:09:d0:bc:a4:d9:68:70:6c:a0:be:53:aa:3b:
         1e:fc:31:5b:a7:a3:5f:e4:7f:1d:e7:7d:89:e0:b0:cc:84:2b:
         24:44:d6:78:17:20:f0:39:57:eb:85:69:64:9b:a4:09:9e:27:
         99:67:73:79:e9:f7:79:4d:95:27:8f:05:b8:85:bd:8b:03:67:
         8a:36:47:d2:da:5a:0b:82:cb:9d:aa:57:c8:86:6e:de:dc:d3:
         89:9a:41:f1:36:4b:a3:3e:f8:45:02:dc:72:71:ac:f8:19:1f:
         f6:e0:d1:9a:49:59:16:d6:42:dc:c4:ba:e2:39:6c:55:a8:a8:
         45:c5:da:6f:92:c0:01:63:4e:16:43:b2:c2:4a:61:6c:94:bc:
         f9:ff:cf:0f:a5:62:c1:6e:5e:57:2e:53:23:7e:1c:69:16:b9:
         fa:50:fc:59:05:b9:6c:1a:14:c6:34:a8:ed:dd:b3:f1:7e:f3:
         87:fd:45:e9
-----BEGIN CERTIFICATE-----
MIIDeDCCAmCgAwIBAgIRAOIhv2Kj7O9GVNzy/vOQaNwwDQYJKoZIhvcNAQELBQAw
FjEUMBIGA1UEAwwLdGVhbTM1OC1uZXQwHhcNMjEwOTEzMDIwMTQyWhcNMjQwODI4
MDIwMTQyWjAZMRcwFQYDVQQDDA50ZWFtMzU4LXNlcnZlcjCCASIwDQYJKoZIhvcN
AQEBBQADggEPADCCAQoCggEBAM2Km+vIXyitJxC29ELvOb2vV2N7Zq+Gm3br9wa+
M19wPIJX5xHeJwvDN4igUXQn24lYkMbHGZiwC6tyKzeVoASwQAujr+NugZkQ8yvC
vmqBSxwyNoU1s6psYLyl3XApMQR3dw5yiCvq/qVdCBrJ5iQ/LxgI71uh8CX3DiCz
q0KQCCfaDvvFid3lFS+TYp4z7Z9YXGbqjT85jw8wpg+7U2S921pN8kJYxoZc16Hw
tvKUgrLmP7E1psCkev32IAL18H3EqFnlxlXgZzERvHhQijTbg5a3BR+dcdah3RXF
vitbMFQr8sPEofodYDq51+Ren++Y6KY29MbFpNd8EB+svfECAwEAAaOBvTCBujAJ
BgNVHRMEAjAAMB0GA1UdDgQWBBSeSl/ZQuH2b//cBSC5yD/i7f9D0zBRBgNVHSME
SjBIgBQEKi+fnYl0gEMkhT2asXfRUGUfoqEapBgwFjEUMBIGA1UEAwwLdGVhbTM1
OC1uZXSCFCPhTprB67IzQvM/h/qPK3BUgqwYMBMGA1UdJQQMMAoGCCsGAQUFBwMB
MAsGA1UdDwQEAwIFoDAZBgNVHREEEjAQgg50ZWFtMzU4LXNlcnZlcjANBgkqhkiG
9w0BAQsFAAOCAQEAqhoCIqQSnsFRAOZXRaxdYgIbaxfS+v+H8bgjgpv8QiSTc4Fa
Ut4/HPHNgx/yCC0v/wAel//hTPVFdxoOJbLp5owTqdUNlxYeDtbRB7QJ0Lyk2Whw
bKC+U6o7HvwxW6ejX+R/Hed9ieCwzIQrJETWeBcg8DlX64VpZJukCZ4nmWdzeen3
eU2VJ48FuIW9iwNnijZH0tpaC4LLnapXyIZu3tzTiZpB8TZLoz74RQLccnGs+Bkf
9uDRmklZFtZC3MS64jlsVaioRcXab5LAAWNOFkOywkphbJS8+f/PD6ViwW5eVy5T
I34caRa5+lD8WQW5bBoUxjSo7d2z8X7zh/1F6Q==
-----END CERTIFICATE-----
