Certificate:
    Data:
        Version: 3 (0x2)
        Serial Number:
            9c:47:5c:8a:23:73:ca:82:80:5b:27:b2:19:56:36:76
        Signature Algorithm: sha256WithRSAEncryption
        Issuer: CN=team138-net
        Validity
            Not Before: Sep 12 23:58:31 2021 GMT
            Not After : Aug 27 23:58:31 2024 GMT
        Subject: CN=team138-server
        Subject Public Key Info:
            Public Key Algorithm: rsaEncryption
                RSA Public-Key: (2048 bit)
                Modulus:
                    00:ca:c5:e1:aa:43:fe:34:0b:36:8c:8c:38:a5:aa:
                    f0:63:07:1f:9a:39:28:4e:f6:7a:31:0d:ba:1d:95:
                    41:dd:77:30:c4:63:96:87:06:b1:4d:11:e4:b9:f3:
                    28:fb:94:35:8c:1f:4e:c3:66:3d:b2:2e:bf:74:ad:
                    b5:31:13:b8:2d:b4:f7:c4:d6:42:16:b3:27:99:60:
                    fc:e9:2b:4d:04:98:56:53:ac:97:56:5f:7c:11:1e:
                    99:21:06:b2:1c:fc:7f:c7:8a:05:9d:6d:1a:01:4c:
                    33:c1:d8:3e:cf:93:d7:46:47:c6:fc:2a:50:78:67:
                    72:a6:9b:03:ec:1b:7c:04:eb:de:95:68:77:25:f3:
                    0c:8b:db:62:77:ff:ca:01:83:6d:f4:7d:48:e2:fb:
                    05:42:7a:1b:d4:64:3f:ad:62:00:aa:83:35:b0:54:
                    8b:cf:6f:b2:68:b7:78:6d:ab:99:16:94:2f:3e:23:
                    4a:85:eb:a6:e8:89:17:ce:b0:52:26:11:2c:1a:22:
                    aa:9b:1e:67:d5:dd:7f:c1:a9:0a:e7:6f:e9:10:e5:
                    ce:22:fd:44:4c:17:87:92:58:ac:c9:72:8f:47:39:
                    48:00:45:c0:10:1c:47:25:a0:b9:fb:3c:94:4b:df:
                    62:73:8c:18:7f:9a:59:9e:cd:1c:9b:61:a1:1e:ad:
                    de:2b
                Exponent: 65537 (0x10001)
        X509v3 extensions:
            X509v3 Basic Constraints: 
                CA:FALSE
            X509v3 Subject Key Identifier: 
                6F:43:52:8B:A3:50:11:F7:13:50:AA:F2:3E:01:AF:CC:DF:9F:C3:CF
            X509v3 Authority Key Identifier: 
                keyid:74:B7:3B:22:C1:57:4B:25:33:93:BE:9B:86:0C:B2:A5:E6:39:71:6C
                DirName:/CN=team138-net
                serial:25:68:DE:A7:E1:B7:6C:E7:F9:B7:B4:4D:AF:4E:F3:D3:CD:A2:3F:C9

            X509v3 Extended Key Usage: 
                TLS Web Server Authentication
            X509v3 Key Usage: 
                Digital Signature, Key Encipherment
            X509v3 Subject Alternative Name: 
                DNS:team138-server
    Signature Algorithm: sha256WithRSAEncryption
         5d:b9:39:ac:b4:b8:35:76:46:00:80:3a:85:3c:a1:f6:1a:9e:
         7a:b3:8f:b3:30:7d:c1:4a:74:8a:4e:68:03:12:6d:cf:f3:6a:
         ba:eb:ad:3b:4d:d1:d6:01:ed:4c:5a:23:a9:10:c2:0e:c9:4d:
         84:50:ed:5a:b5:de:dc:88:f7:00:6d:16:d6:5b:8d:01:d4:3f:
         1a:d1:e8:d9:eb:dc:ce:49:b6:87:f7:6d:de:a9:d3:41:3b:98:
         51:23:dc:79:5a:c0:6f:93:61:8d:ad:e7:0b:08:f7:89:2b:a1:
         95:5c:51:e1:f9:bc:8c:1c:9b:4a:86:b0:ad:3e:1d:30:92:34:
         71:d7:c3:ea:a3:82:a6:9a:09:90:70:51:ad:32:4b:d8:a5:5e:
         fb:3e:24:52:d1:78:41:af:50:ee:da:8c:32:9f:0d:57:4d:fd:
         3b:1c:60:d0:25:40:06:a1:98:0b:0b:54:a8:b7:29:3d:0c:0e:
         a1:9d:81:19:60:93:82:cb:37:49:2d:eb:1f:b6:ea:f7:13:42:
         cf:ab:af:15:c9:75:3c:0d:96:9a:18:6a:4d:8b:06:cc:b5:92:
         89:6a:1c:86:3f:65:b8:dc:a1:01:88:63:fa:ae:45:25:d1:ea:
         2a:79:69:72:56:77:3f:16:2b:1a:95:02:18:8e:66:4b:2a:c2:
         f2:1f:98:1b
-----BEGIN CERTIFICATE-----
MIIDeDCCAmCgAwIBAgIRAJxHXIojc8qCgFsnshlWNnYwDQYJKoZIhvcNAQELBQAw
FjEUMBIGA1UEAwwLdGVhbTEzOC1uZXQwHhcNMjEwOTEyMjM1ODMxWhcNMjQwODI3
MjM1ODMxWjAZMRcwFQYDVQQDDA50ZWFtMTM4LXNlcnZlcjCCASIwDQYJKoZIhvcN
AQEBBQADggEPADCCAQoCggEBAMrF4apD/jQLNoyMOKWq8GMHH5o5KE72ejENuh2V
Qd13MMRjlocGsU0R5LnzKPuUNYwfTsNmPbIuv3SttTETuC2098TWQhazJ5lg/Okr
TQSYVlOsl1ZffBEemSEGshz8f8eKBZ1tGgFMM8HYPs+T10ZHxvwqUHhncqabA+wb
fATr3pVodyXzDIvbYnf/ygGDbfR9SOL7BUJ6G9RkP61iAKqDNbBUi89vsmi3eG2r
mRaULz4jSoXrpuiJF86wUiYRLBoiqpseZ9Xdf8GpCudv6RDlziL9REwXh5JYrMly
j0c5SABFwBAcRyWgufs8lEvfYnOMGH+aWZ7NHJthoR6t3isCAwEAAaOBvTCBujAJ
BgNVHRMEAjAAMB0GA1UdDgQWBBRvQ1KLo1AR9xNQqvI+Aa/M35/DzzBRBgNVHSME
SjBIgBR0tzsiwVdLJTOTvpuGDLKl5jlxbKEapBgwFjEUMBIGA1UEAwwLdGVhbTEz
OC1uZXSCFCVo3qfht2zn+be0Ta9O89PNoj/JMBMGA1UdJQQMMAoGCCsGAQUFBwMB
MAsGA1UdDwQEAwIFoDAZBgNVHREEEjAQgg50ZWFtMTM4LXNlcnZlcjANBgkqhkiG
9w0BAQsFAAOCAQEAXbk5rLS4NXZGAIA6hTyh9hqeerOPszB9wUp0ik5oAxJtz/Nq
uuutO03R1gHtTFojqRDCDslNhFDtWrXe3Ij3AG0W1luNAdQ/GtHo2evczkm2h/dt
3qnTQTuYUSPceVrAb5Nhja3nCwj3iSuhlVxR4fm8jBybSoawrT4dMJI0cdfD6qOC
ppoJkHBRrTJL2KVe+z4kUtF4Qa9Q7tqMMp8NV039Oxxg0CVABqGYCwtUqLcpPQwO
oZ2BGWCTgss3SS3rH7bq9xNCz6uvFcl1PA2WmhhqTYsGzLWSiWochj9luNyhAYhj
+q5FJdHqKnlpclZ3PxYrGpUCGI5mSyrC8h+YGw==
-----END CERTIFICATE-----
