Certificate:
    Data:
        Version: 3 (0x2)
        Serial Number:
            c3:1c:a7:1c:7f:3d:f0:91:c4:79:af:a4:8e:4e:21:d7
        Signature Algorithm: sha256WithRSAEncryption
        Issuer: CN=team382-net
        Validity
            Not Before: Sep 13 02:11:19 2021 GMT
            Not After : Aug 28 02:11:19 2024 GMT
        Subject: CN=team382-client
        Subject Public Key Info:
            Public Key Algorithm: rsaEncryption
                RSA Public-Key: (2048 bit)
                Modulus:
                    00:dc:42:b0:7e:c7:14:8d:ab:73:6e:76:30:cb:f3:
                    7f:c0:75:7c:31:f8:a6:4d:fe:43:ba:b2:19:8c:6c:
                    fb:48:b2:3b:9e:b9:0c:ed:4d:98:49:aa:ea:9d:1f:
                    e8:b2:93:d5:d8:5c:db:9b:6e:9f:76:69:45:2d:07:
                    93:d7:fc:8e:f6:c9:40:88:48:1e:7a:1f:67:df:01:
                    6e:60:d8:cb:b1:2d:7b:e3:0a:e1:f3:7b:06:a3:30:
                    0f:dd:25:92:df:70:9f:b7:a8:88:eb:ed:90:7e:dc:
                    9e:9c:78:05:16:a2:54:ec:6e:d3:7e:c6:36:f4:3c:
                    aa:40:0e:4c:3a:e1:37:12:15:85:63:4d:94:ee:e9:
                    fa:c7:dc:8f:b7:98:04:8d:c0:70:68:9f:09:e8:ad:
                    4b:7f:23:99:ce:61:0a:8d:89:0f:57:97:25:6b:f4:
                    e7:72:3b:7c:18:ec:f6:18:dc:2d:12:a8:77:df:be:
                    9b:ce:a9:f3:ce:d1:b9:b2:50:d1:cc:fc:79:f0:2c:
                    ee:e1:bd:d6:3d:1a:e4:bd:0c:7b:8a:cb:8c:72:b8:
                    8d:61:2f:ae:83:82:a8:04:08:6c:52:fc:48:e8:d5:
                    f0:0d:05:5b:ce:c5:b6:05:98:53:73:19:21:c9:7c:
                    c4:99:4a:46:11:40:7f:6c:10:ba:7d:26:30:96:7c:
                    58:6d
                Exponent: 65537 (0x10001)
        X509v3 extensions:
            X509v3 Basic Constraints: 
                CA:FALSE
            X509v3 Subject Key Identifier: 
                43:B0:20:AF:74:03:D1:F1:0E:EF:07:06:23:8C:FA:06:30:74:4C:46
            X509v3 Authority Key Identifier: 
                keyid:57:B8:45:57:93:E0:5B:D5:8D:22:64:6B:8C:7F:2A:F8:23:83:C5:BF
                DirName:/CN=team382-net
                serial:5C:8F:83:C2:5E:A5:8C:DD:86:A4:64:8A:F5:9E:CF:05:48:04:6C:5B

            X509v3 Extended Key Usage: 
                TLS Web Client Authentication
            X509v3 Key Usage: 
                Digital Signature
    Signature Algorithm: sha256WithRSAEncryption
         a9:2c:f6:4f:f3:d1:60:ad:86:c6:f6:41:ad:15:f4:de:57:b2:
         93:df:fc:d4:a2:08:a8:68:09:51:45:dc:39:df:0a:0c:32:09:
         6c:06:11:8d:20:f5:7c:85:e1:db:5d:e7:96:5d:2c:5c:4d:72:
         36:e1:c2:ed:6a:ad:18:c3:70:fb:0d:73:4b:59:c9:9f:41:86:
         94:60:f1:ba:be:1f:2c:f4:29:73:20:77:9b:99:37:fd:6f:37:
         4f:a2:86:47:63:da:08:99:27:ed:d9:5a:91:83:57:63:5f:63:
         eb:00:83:5e:9b:ae:b3:81:b3:33:82:52:a2:85:00:f9:75:e4:
         5a:3a:14:46:33:5b:56:85:49:03:76:7d:22:96:83:72:22:1a:
         a2:b8:e0:9b:d5:53:6b:8c:0f:6d:ca:10:80:9f:ec:68:0b:5d:
         ee:ae:74:e7:c2:bc:d2:0b:81:54:84:4d:2f:8e:a9:85:da:e5:
         b0:d2:9d:af:fb:b7:47:62:4c:89:9b:ec:7d:83:65:5b:1e:58:
         f7:ef:2e:83:36:4c:0f:bd:0f:0c:8d:ea:ca:87:d1:d2:a8:70:
         e2:a4:84:d0:f8:8a:91:04:b0:33:46:8c:fb:7b:66:21:9e:1f:
         ed:ee:0b:a8:6f:88:b6:d6:1c:6a:13:6a:6b:52:e6:60:13:c8:
         03:34:87:a3
-----BEGIN CERTIFICATE-----
MIIDXTCCAkWgAwIBAgIRAMMcpxx/PfCRxHmvpI5OIdcwDQYJKoZIhvcNAQELBQAw
FjEUMBIGA1UEAwwLdGVhbTM4Mi1uZXQwHhcNMjEwOTEzMDIxMTE5WhcNMjQwODI4
MDIxMTE5WjAZMRcwFQYDVQQDDA50ZWFtMzgyLWNsaWVudDCCASIwDQYJKoZIhvcN
AQEBBQADggEPADCCAQoCggEBANxCsH7HFI2rc252MMvzf8B1fDH4pk3+Q7qyGYxs
+0iyO565DO1NmEmq6p0f6LKT1dhc25tun3ZpRS0Hk9f8jvbJQIhIHnofZ98BbmDY
y7Ete+MK4fN7BqMwD90lkt9wn7eoiOvtkH7cnpx4BRaiVOxu037GNvQ8qkAOTDrh
NxIVhWNNlO7p+sfcj7eYBI3AcGifCeitS38jmc5hCo2JD1eXJWv053I7fBjs9hjc
LRKod9++m86p887RubJQ0cz8efAs7uG91j0a5L0Me4rLjHK4jWEvroOCqAQIbFL8
SOjV8A0FW87FtgWYU3MZIcl8xJlKRhFAf2wQun0mMJZ8WG0CAwEAAaOBojCBnzAJ
BgNVHRMEAjAAMB0GA1UdDgQWBBRDsCCvdAPR8Q7vBwYjjPoGMHRMRjBRBgNVHSME
SjBIgBRXuEVXk+Bb1Y0iZGuMfyr4I4PFv6EapBgwFjEUMBIGA1UEAwwLdGVhbTM4
Mi1uZXSCFFyPg8JepYzdhqRkivWezwVIBGxbMBMGA1UdJQQMMAoGCCsGAQUFBwMC
MAsGA1UdDwQEAwIHgDANBgkqhkiG9w0BAQsFAAOCAQEAqSz2T/PRYK2GxvZBrRX0
3leyk9/81KIIqGgJUUXcOd8KDDIJbAYRjSD1fIXh213nll0sXE1yNuHC7WqtGMNw
+w1zS1nJn0GGlGDxur4fLPQpcyB3m5k3/W83T6KGR2PaCJkn7dlakYNXY19j6wCD
Xpuus4GzM4JSooUA+XXkWjoURjNbVoVJA3Z9IpaDciIaorjgm9VTa4wPbcoQgJ/s
aAtd7q5058K80guBVIRNL46phdrlsNKdr/u3R2JMiZvsfYNlWx5Y9+8ugzZMD70P
DI3qyofR0qhw4qSE0PiKkQSwM0aM+3tmIZ4f7e4LqG+IttYcahNqa1LmYBPIAzSH
ow==
-----END CERTIFICATE-----
