Certificate:
    Data:
        Version: 3 (0x2)
        Serial Number:
            ef:90:20:67:6a:58:ec:e6:9d:da:fc:72:2a:1d:4a:a2
        Signature Algorithm: sha256WithRSAEncryption
        Issuer: CN=team766-net
        Validity
            Not Before: Sep 13 05:20:15 2021 GMT
            Not After : Aug 28 05:20:15 2024 GMT
        Subject: CN=team766-client
        Subject Public Key Info:
            Public Key Algorithm: rsaEncryption
                RSA Public-Key: (2048 bit)
                Modulus:
                    00:bd:ca:40:c6:62:a3:72:bf:0f:b0:9d:e7:b0:3b:
                    28:8d:25:cb:fe:9c:ad:77:cc:cb:7e:f1:1c:ad:8c:
                    cf:72:7b:55:a5:8f:86:8b:4b:02:15:ad:1c:fe:3b:
                    1b:39:74:45:84:fe:70:77:b0:55:32:21:0b:80:ef:
                    a8:b7:a8:a9:be:b9:2d:32:4d:48:d0:81:eb:89:9d:
                    da:f5:4c:25:3f:4a:2d:c4:da:4d:35:09:34:b1:d5:
                    49:45:34:df:49:6e:94:64:da:75:65:a6:05:a7:1b:
                    c2:4e:60:d5:a1:eb:62:23:9f:cd:b5:02:7b:83:de:
                    da:53:00:6b:b2:bb:c3:d9:dc:0e:52:77:fb:90:89:
                    60:c9:b8:44:f9:5a:31:30:5f:54:46:43:3f:d4:62:
                    01:d8:5d:ea:b2:65:fd:e7:36:c6:ca:61:c9:85:7e:
                    f4:fd:2e:04:44:9f:0b:d3:b3:c7:d3:6d:02:f6:5a:
                    29:71:fa:94:cc:d4:2a:e5:c5:5e:8c:67:e7:bc:2c:
                    d2:fa:7c:87:77:57:a0:c5:f8:05:94:03:f4:f1:6d:
                    98:8f:52:af:34:b0:a1:ea:9a:c3:32:57:9b:98:aa:
                    45:d8:2b:3b:e8:39:91:c9:79:7f:39:89:00:c5:2a:
                    af:ad:dd:b9:2b:af:95:37:87:e8:ae:6e:6e:d2:3b:
                    b4:97
                Exponent: 65537 (0x10001)
        X509v3 extensions:
            X509v3 Basic Constraints: 
                CA:FALSE
            X509v3 Subject Key Identifier: 
                EB:9F:52:BC:22:EC:C2:13:F7:D7:0A:ED:DE:AC:C8:75:94:D1:10:49
            X509v3 Authority Key Identifier: 
                keyid:A9:96:E0:1D:DD:C4:DC:18:AB:50:F7:57:D5:21:DC:51:DA:27:79:24
                DirName:/CN=team766-net
                serial:4D:88:C7:6D:F0:56:94:69:5E:CC:BF:96:FA:99:22:4D:E2:6C:D0:FF

            X509v3 Extended Key Usage: 
                TLS Web Client Authentication
            X509v3 Key Usage: 
                Digital Signature
    Signature Algorithm: sha256WithRSAEncryption
         12:2c:37:fc:94:09:7c:a2:ff:72:a1:32:1e:b2:05:bb:2c:06:
         bf:5f:0f:b2:86:a4:f5:68:f3:0a:6e:50:b5:51:9d:17:4b:be:
         f6:e2:2d:ac:f3:31:02:a2:b4:aa:05:f4:01:36:19:11:52:1c:
         90:d7:c3:9f:cc:0a:6f:f0:d5:b6:89:08:3d:69:13:8e:21:8a:
         20:84:82:70:01:33:79:5d:e3:74:f9:5f:b7:5d:60:6f:34:8e:
         a7:91:b6:2b:27:d4:fd:3d:62:d5:a9:f3:78:f0:46:9e:ca:48:
         40:a0:1c:4e:f8:f1:c3:67:6f:d5:64:4a:2a:92:df:7e:e2:17:
         7a:72:5e:a1:6f:08:f6:cc:3d:4e:d3:b1:95:f4:f0:7c:aa:1a:
         d5:72:3b:9f:12:8d:6b:0a:e1:d2:7e:88:f1:6a:50:f7:3a:5b:
         ac:1a:53:b4:9d:7d:0d:34:87:45:b9:06:49:61:6a:3f:ca:ed:
         83:b5:85:a5:4c:63:1d:b5:af:dc:e1:fe:d0:5b:5a:c9:32:2d:
         ba:27:44:e8:dd:20:f1:8c:ac:15:11:ec:7c:bb:3e:7c:47:f7:
         32:a7:71:4d:6d:09:63:af:5e:fb:4d:99:97:98:5f:d4:99:d1:
         c8:ee:68:51:7a:10:fe:01:55:32:3e:5e:de:b7:73:6c:03:8d:
         5b:fc:45:7d
-----BEGIN CERTIFICATE-----
MIIDXTCCAkWgAwIBAgIRAO+QIGdqWOzmndr8ciodSqIwDQYJKoZIhvcNAQELBQAw
FjEUMBIGA1UEAwwLdGVhbTc2Ni1uZXQwHhcNMjEwOTEzMDUyMDE1WhcNMjQwODI4
MDUyMDE1WjAZMRcwFQYDVQQDDA50ZWFtNzY2LWNsaWVudDCCASIwDQYJKoZIhvcN
AQEBBQADggEPADCCAQoCggEBAL3KQMZio3K/D7Cd57A7KI0ly/6crXfMy37xHK2M
z3J7VaWPhotLAhWtHP47Gzl0RYT+cHewVTIhC4DvqLeoqb65LTJNSNCB64md2vVM
JT9KLcTaTTUJNLHVSUU030lulGTadWWmBacbwk5g1aHrYiOfzbUCe4Pe2lMAa7K7
w9ncDlJ3+5CJYMm4RPlaMTBfVEZDP9RiAdhd6rJl/ec2xsphyYV+9P0uBESfC9Oz
x9NtAvZaKXH6lMzUKuXFXoxn57ws0vp8h3dXoMX4BZQD9PFtmI9SrzSwoeqawzJX
m5iqRdgrO+g5kcl5fzmJAMUqr63duSuvlTeH6K5ubtI7tJcCAwEAAaOBojCBnzAJ
BgNVHRMEAjAAMB0GA1UdDgQWBBTrn1K8IuzCE/fXCu3erMh1lNEQSTBRBgNVHSME
SjBIgBSpluAd3cTcGKtQ91fVIdxR2id5JKEapBgwFjEUMBIGA1UEAwwLdGVhbTc2
Ni1uZXSCFE2Ix23wVpRpXsy/lvqZIk3ibND/MBMGA1UdJQQMMAoGCCsGAQUFBwMC
MAsGA1UdDwQEAwIHgDANBgkqhkiG9w0BAQsFAAOCAQEAEiw3/JQJfKL/cqEyHrIF
uywGv18Psoak9WjzCm5QtVGdF0u+9uItrPMxAqK0qgX0ATYZEVIckNfDn8wKb/DV
tokIPWkTjiGKIISCcAEzeV3jdPlft11gbzSOp5G2KyfU/T1i1anzePBGnspIQKAc
Tvjxw2dv1WRKKpLffuIXenJeoW8I9sw9TtOxlfTwfKoa1XI7nxKNawrh0n6I8WpQ
9zpbrBpTtJ19DTSHRbkGSWFqP8rtg7WFpUxjHbWv3OH+0FtayTItuidE6N0g8Yys
FRHsfLs+fEf3MqdxTW0JY69e+02Zl5hf1JnRyO5oUXoQ/gFVMj5e3rdzbAONW/xF
fQ==
-----END CERTIFICATE-----
