Certificate:
    Data:
        Version: 3 (0x2)
        Serial Number:
            5d:c8:53:93:14:60:a6:70:46:ee:1a:1e:10:46:2a:55
        Signature Algorithm: sha256WithRSAEncryption
        Issuer: CN=team553-net
        Validity
            Not Before: Sep 13 03:49:03 2021 GMT
            Not After : Aug 28 03:49:03 2024 GMT
        Subject: CN=team553-client
        Subject Public Key Info:
            Public Key Algorithm: rsaEncryption
                RSA Public-Key: (2048 bit)
                Modulus:
                    00:da:a1:44:8e:b2:31:55:2b:bf:23:21:7e:f1:1e:
                    86:9f:3c:ef:f9:e2:f4:aa:ae:2a:79:a3:76:98:8e:
                    41:e3:ce:31:d4:87:83:72:d7:20:7d:21:61:0d:00:
                    bf:94:d4:d7:a7:b5:c3:9f:14:e5:f8:40:b7:e4:d4:
                    23:b6:d9:fb:57:1e:a0:c2:78:83:eb:eb:31:cb:20:
                    b2:fd:e7:77:4f:02:74:c2:62:64:66:6d:77:f0:5b:
                    c0:83:9b:9e:c6:23:0d:88:d7:16:30:a0:f4:5e:7f:
                    ee:45:ef:a6:8f:a9:14:7b:01:66:51:f4:6a:02:04:
                    2d:40:91:eb:77:3d:9f:97:f3:46:6a:c9:e2:36:11:
                    06:13:db:8c:1f:a7:e0:e8:8f:d2:d0:df:62:15:d9:
                    16:af:92:a7:c6:fc:2b:c6:f2:a1:a0:4c:13:6e:db:
                    71:06:ab:6e:50:2c:5d:26:b3:6f:da:0d:40:1d:c2:
                    24:a8:16:60:b6:7d:1e:07:7e:9f:90:79:6d:85:da:
                    ab:09:eb:fc:a7:c7:ce:97:b3:bf:66:66:09:2c:8f:
                    0c:e6:86:35:33:47:4b:d2:c8:df:df:36:7a:2a:4e:
                    3d:d5:74:76:f5:8e:65:bd:2c:d0:9d:34:f6:f4:07:
                    c1:ee:fc:fc:84:23:d3:da:12:1d:cc:af:d5:9e:be:
                    38:3d
                Exponent: 65537 (0x10001)
        X509v3 extensions:
            X509v3 Basic Constraints: 
                CA:FALSE
            X509v3 Subject Key Identifier: 
                0A:93:66:7A:86:4D:5F:38:2D:0A:F5:80:7C:3D:9E:CA:8B:E5:AB:60
            X509v3 Authority Key Identifier: 
                keyid:32:CC:97:A8:DC:32:77:02:AB:D2:EB:7B:D7:27:92:A7:16:E7:A9:B5
                DirName:/CN=team553-net
                serial:64:CA:4D:DC:2A:2B:3A:DF:80:B2:C4:2F:C5:0C:A7:05:92:6A:0A:E6

            X509v3 Extended Key Usage: 
                TLS Web Client Authentication
            X509v3 Key Usage: 
                Digital Signature
    Signature Algorithm: sha256WithRSAEncryption
         2a:cf:2f:8f:f8:18:36:34:02:7d:10:30:11:51:c7:20:6e:80:
         0a:4b:d3:c6:8a:78:10:11:45:f6:f3:1e:cd:93:8b:96:a2:69:
         86:ec:f1:1b:99:f6:a8:ce:8b:96:e3:86:d9:db:33:33:43:83:
         e3:81:08:ca:65:8c:e0:11:b4:92:6a:74:c2:49:b6:dc:15:aa:
         7d:31:f3:b5:6f:7d:25:88:a7:3e:8f:23:e2:f4:1d:0e:a5:f4:
         ab:ae:ea:31:3e:be:a0:76:2a:c5:66:7b:e5:d8:be:05:85:bc:
         f4:7b:b0:ac:9a:ee:30:b0:80:a4:73:8f:e7:a1:19:87:e2:4c:
         0c:68:be:5f:df:97:1b:28:34:ba:a1:5f:58:38:96:8b:4b:fe:
         4e:81:b7:b5:24:5d:e6:ec:aa:91:9e:ee:91:6c:22:ac:08:2c:
         c0:e8:ae:a6:9c:7b:45:bd:e7:5b:6b:ed:3e:69:48:fa:c4:e4:
         cb:ed:ca:c7:97:05:69:26:51:6d:6e:bd:b5:38:5d:39:20:0c:
         c6:93:8e:04:73:fb:dd:93:db:af:78:88:84:fe:2e:b3:36:ea:
         8f:54:c7:45:05:69:0e:61:b7:5d:08:2c:dc:f9:53:5b:96:2f:
         7b:54:7c:95:8f:2e:02:cc:cc:e9:61:a4:58:26:4b:f5:09:2d:
         a5:6a:2f:da
-----BEGIN CERTIFICATE-----
MIIDXDCCAkSgAwIBAgIQXchTkxRgpnBG7hoeEEYqVTANBgkqhkiG9w0BAQsFADAW
MRQwEgYDVQQDDAt0ZWFtNTUzLW5ldDAeFw0yMTA5MTMwMzQ5MDNaFw0yNDA4Mjgw
MzQ5MDNaMBkxFzAVBgNVBAMMDnRlYW01NTMtY2xpZW50MIIBIjANBgkqhkiG9w0B
AQEFAAOCAQ8AMIIBCgKCAQEA2qFEjrIxVSu/IyF+8R6Gnzzv+eL0qq4qeaN2mI5B
484x1IeDctcgfSFhDQC/lNTXp7XDnxTl+EC35NQjttn7Vx6gwniD6+sxyyCy/ed3
TwJ0wmJkZm138FvAg5uexiMNiNcWMKD0Xn/uRe+mj6kUewFmUfRqAgQtQJHrdz2f
l/NGasniNhEGE9uMH6fg6I/S0N9iFdkWr5KnxvwrxvKhoEwTbttxBqtuUCxdJrNv
2g1AHcIkqBZgtn0eB36fkHlthdqrCev8p8fOl7O/ZmYJLI8M5oY1M0dL0sjf3zZ6
Kk491XR29Y5lvSzQnTT29AfB7vz8hCPT2hIdzK/Vnr44PQIDAQABo4GiMIGfMAkG
A1UdEwQCMAAwHQYDVR0OBBYEFAqTZnqGTV84LQr1gHw9nsqL5atgMFEGA1UdIwRK
MEiAFDLMl6jcMncCq9Lre9cnkqcW56m1oRqkGDAWMRQwEgYDVQQDDAt0ZWFtNTUz
LW5ldIIUZMpN3CorOt+AssQvxQynBZJqCuYwEwYDVR0lBAwwCgYIKwYBBQUHAwIw
CwYDVR0PBAQDAgeAMA0GCSqGSIb3DQEBCwUAA4IBAQAqzy+P+Bg2NAJ9EDARUccg
boAKS9PGingQEUX28x7Nk4uWommG7PEbmfaozouW44bZ2zMzQ4PjgQjKZYzgEbSS
anTCSbbcFap9MfO1b30liKc+jyPi9B0OpfSrruoxPr6gdirFZnvl2L4Fhbz0e7Cs
mu4wsICkc4/noRmH4kwMaL5f35cbKDS6oV9YOJaLS/5Ogbe1JF3m7KqRnu6RbCKs
CCzA6K6mnHtFvedba+0+aUj6xOTL7crHlwVpJlFtbr21OF05IAzGk44Ec/vdk9uv
eIiE/i6zNuqPVMdFBWkOYbddCCzc+VNbli97VHyVjy4CzMzpYaRYJkv1CS2lai/a
-----END CERTIFICATE-----
