Certificate:
    Data:
        Version: 3 (0x2)
        Serial Number:
            30:cc:b3:d0:8e:cc:79:f1:ef:1e:13:a3:06:a9:a0:c6
        Signature Algorithm: sha256WithRSAEncryption
        Issuer: CN=team199-net
        Validity
            Not Before: Sep 13 00:36:48 2021 GMT
            Not After : Aug 28 00:36:48 2024 GMT
        Subject: CN=team199-client
        Subject Public Key Info:
            Public Key Algorithm: rsaEncryption
                RSA Public-Key: (2048 bit)
                Modulus:
                    00:ba:17:23:75:6b:ca:67:5d:8a:0c:59:22:14:74:
                    25:24:d6:8e:70:37:cd:a9:e5:bc:b6:27:99:92:d3:
                    5d:6c:03:18:c7:9c:b9:de:e2:63:d2:fb:aa:a3:4b:
                    0e:b4:f9:b2:98:a4:e1:b0:a3:b4:4b:9c:58:14:cc:
                    4e:53:3e:5f:2d:23:d1:92:9a:d4:d0:38:75:13:44:
                    48:88:1d:41:5b:d7:65:40:60:35:35:d7:bc:3b:c7:
                    6b:03:22:de:3a:28:5e:3b:63:cd:e0:93:4d:27:d0:
                    1c:98:b9:82:a3:89:9b:f2:88:06:19:e9:a8:ec:bb:
                    84:de:c0:e7:11:f8:3b:3e:c0:69:7b:e7:02:83:55:
                    47:8a:2b:7d:85:e5:83:10:52:df:a2:35:36:eb:57:
                    70:98:ad:22:94:11:d1:c5:02:b1:61:5d:38:43:4b:
                    b0:c6:47:77:8a:6b:28:89:7b:d7:7b:da:68:2f:6b:
                    8c:d3:b0:34:f3:b6:ea:c9:ea:95:fb:ea:90:5a:d1:
                    90:67:c9:83:77:cd:1a:71:c7:e1:98:bf:23:75:4f:
                    ec:75:88:ca:0f:16:cc:fa:3e:ef:5f:80:73:1e:a5:
                    45:d4:47:b3:72:0e:15:cf:3c:15:b0:da:6f:21:0b:
                    75:06:62:65:bb:65:00:41:fe:e4:b0:10:e7:c4:1d:
                    b4:57
                Exponent: 65537 (0x10001)
        X509v3 extensions:
            X509v3 Basic Constraints: 
                CA:FALSE
            X509v3 Subject Key Identifier: 
                74:B4:6A:35:C1:9D:EA:64:D4:43:5D:6E:D7:C3:D2:E6:26:81:22:E7
            X509v3 Authority Key Identifier: 
                keyid:FE:ED:C5:41:1F:24:E3:AA:47:A4:72:1A:0F:FF:4E:4D:79:A0:A4:08
                DirName:/CN=team199-net
                serial:2C:17:D9:14:29:F0:0D:3B:BC:30:54:E1:23:60:30:26:E5:24:D6:44

            X509v3 Extended Key Usage: 
                TLS Web Client Authentication
            X509v3 Key Usage: 
                Digital Signature
    Signature Algorithm: sha256WithRSAEncryption
         21:76:64:9f:c1:21:2c:97:85:be:f8:f1:42:77:54:15:4d:f8:
         63:42:c0:7c:bf:76:16:a1:8c:4b:39:f4:b7:28:98:25:b8:a2:
         17:93:96:cd:ec:1a:2f:af:43:d9:8d:9f:d3:12:46:e1:dd:0e:
         b1:fb:85:c6:99:4b:f4:9b:2e:50:f8:9b:02:ea:cb:86:f1:aa:
         67:06:0f:b4:13:dd:b3:b1:fb:bd:77:2b:a3:62:36:b5:ba:ce:
         d4:e0:d8:a1:a3:4c:36:95:c0:c4:ac:5c:44:e1:36:33:73:04:
         f2:cc:da:bb:83:7a:ee:2b:cd:e3:21:9b:fb:13:10:2e:ef:a9:
         73:e1:b5:fe:fd:55:b2:28:18:88:0a:9f:34:36:48:fa:b3:91:
         63:f7:66:ff:4c:89:42:8f:73:59:64:29:92:13:7b:7a:ac:92:
         21:c7:ac:e5:90:65:42:61:da:7c:43:16:b1:73:29:cf:98:6e:
         de:55:7f:6f:0b:8d:23:d7:3c:c6:0e:02:8f:48:65:24:18:5c:
         b8:4f:9e:b4:6b:6d:39:13:d7:72:29:08:2b:66:27:25:08:e0:
         e0:b7:fd:a9:43:5b:2d:39:a1:c1:03:40:2c:be:e0:0f:71:aa:
         3a:4a:2b:a8:07:68:4e:f0:ab:ca:8e:53:1e:3f:66:68:37:67:
         44:84:50:43
-----BEGIN CERTIFICATE-----
MIIDXDCCAkSgAwIBAgIQMMyz0I7MefHvHhOjBqmgxjANBgkqhkiG9w0BAQsFADAW
MRQwEgYDVQQDDAt0ZWFtMTk5LW5ldDAeFw0yMTA5MTMwMDM2NDhaFw0yNDA4Mjgw
MDM2NDhaMBkxFzAVBgNVBAMMDnRlYW0xOTktY2xpZW50MIIBIjANBgkqhkiG9w0B
AQEFAAOCAQ8AMIIBCgKCAQEAuhcjdWvKZ12KDFkiFHQlJNaOcDfNqeW8tieZktNd
bAMYx5y53uJj0vuqo0sOtPmymKThsKO0S5xYFMxOUz5fLSPRkprU0Dh1E0RIiB1B
W9dlQGA1Nde8O8drAyLeOiheO2PN4JNNJ9AcmLmCo4mb8ogGGemo7LuE3sDnEfg7
PsBpe+cCg1VHiit9heWDEFLfojU261dwmK0ilBHRxQKxYV04Q0uwxkd3imsoiXvX
e9poL2uM07A087bqyeqV++qQWtGQZ8mDd80accfhmL8jdU/sdYjKDxbM+j7vX4Bz
HqVF1Eezcg4VzzwVsNpvIQt1BmJlu2UAQf7ksBDnxB20VwIDAQABo4GiMIGfMAkG
A1UdEwQCMAAwHQYDVR0OBBYEFHS0ajXBnepk1ENdbtfD0uYmgSLnMFEGA1UdIwRK
MEiAFP7txUEfJOOqR6RyGg//Tk15oKQIoRqkGDAWMRQwEgYDVQQDDAt0ZWFtMTk5
LW5ldIIULBfZFCnwDTu8MFThI2AwJuUk1kQwEwYDVR0lBAwwCgYIKwYBBQUHAwIw
CwYDVR0PBAQDAgeAMA0GCSqGSIb3DQEBCwUAA4IBAQAhdmSfwSEsl4W++PFCd1QV
TfhjQsB8v3YWoYxLOfS3KJgluKIXk5bN7Bovr0PZjZ/TEkbh3Q6x+4XGmUv0my5Q
+JsC6suG8apnBg+0E92zsfu9dyujYja1us7U4Niho0w2lcDErFxE4TYzcwTyzNq7
g3ruK83jIZv7ExAu76lz4bX+/VWyKBiICp80Nkj6s5Fj92b/TIlCj3NZZCmSE3t6
rJIhx6zlkGVCYdp8QxaxcynPmG7eVX9vC40j1zzGDgKPSGUkGFy4T560a205E9dy
KQgrZiclCODgt/2pQ1stOaHBA0AsvuAPcao6SiuoB2hO8KvKjlMeP2ZoN2dEhFBD
-----END CERTIFICATE-----
