Certificate:
    Data:
        Version: 3 (0x2)
        Serial Number:
            36:f1:a8:d4:d4:93:8c:93:21:03:e2:54:7b:98:f9:ab
        Signature Algorithm: sha256WithRSAEncryption
        Issuer: CN=team345-net
        Validity
            Not Before: Sep 13 01:57:11 2021 GMT
            Not After : Aug 28 01:57:11 2024 GMT
        Subject: CN=team345-client
        Subject Public Key Info:
            Public Key Algorithm: rsaEncryption
                RSA Public-Key: (2048 bit)
                Modulus:
                    00:bd:76:fa:90:91:c5:cd:dc:d8:dd:7d:bf:36:a8:
                    6c:5b:8e:8b:f0:1e:a0:43:32:e0:c5:63:0f:b2:93:
                    c4:59:d3:74:ca:ef:81:8a:92:17:42:0c:d9:9a:1c:
                    82:75:f8:d6:49:e9:13:73:6e:6a:84:90:76:f1:16:
                    1a:4c:08:19:d1:26:84:b5:4f:e0:54:32:f6:61:5b:
                    36:b8:9e:06:71:05:08:94:1a:ef:bc:36:e7:3d:87:
                    78:7f:d6:9b:f5:27:c0:f9:c7:2d:4b:ed:fc:c8:c5:
                    49:0d:8c:f6:a5:3f:ba:32:ba:47:aa:74:17:2e:2b:
                    36:fc:19:50:1d:01:92:7c:b7:f9:85:29:75:83:29:
                    41:cc:29:9e:ed:6c:b7:81:3b:c4:b2:e9:59:33:2a:
                    d8:89:58:91:e1:0f:fe:16:ba:67:b1:d0:cd:09:04:
                    f9:ec:13:4e:d3:6f:26:54:20:b7:89:59:0d:34:6d:
                    ff:a4:3f:97:da:27:8f:b4:11:65:39:f0:8f:a2:fe:
                    cf:8a:b5:7f:55:00:45:85:46:20:2d:20:c1:8c:9c:
                    a9:63:97:1d:13:66:a8:6d:66:cd:09:13:be:fa:76:
                    d1:4b:07:33:bc:85:f5:cb:cb:9f:88:3c:e8:3e:e5:
                    eb:f6:ff:c6:1f:3c:13:31:35:b9:75:c7:6d:f7:da:
                    4c:49
                Exponent: 65537 (0x10001)
        X509v3 extensions:
            X509v3 Basic Constraints: 
                CA:FALSE
            X509v3 Subject Key Identifier: 
                13:18:19:A9:E1:A5:70:22:74:E3:62:83:3A:2C:34:BD:D8:43:08:B3
            X509v3 Authority Key Identifier: 
                keyid:6E:3B:E0:28:8E:A1:65:0B:B7:D6:26:90:DB:1E:34:70:79:21:99:49
                DirName:/CN=team345-net
                serial:52:E8:9D:2E:9C:D7:63:B7:EF:0A:79:B1:BD:95:2B:25:C8:1A:CA:8B

            X509v3 Extended Key Usage: 
                TLS Web Client Authentication
            X509v3 Key Usage: 
                Digital Signature
    Signature Algorithm: sha256WithRSAEncryption
         58:23:32:1b:57:7d:05:75:de:19:97:23:94:7e:d9:66:8d:22:
         0e:e2:bb:0a:36:a9:83:95:c9:a8:d3:a0:ed:85:e2:b4:82:5c:
         c4:cc:d7:3e:d7:0a:93:b7:41:84:58:24:21:2f:dc:63:1b:f9:
         1c:51:c6:7e:64:e2:32:1a:07:6d:86:ab:e9:df:0b:df:5c:51:
         7c:85:72:8b:1c:34:6a:b2:03:6b:77:98:ee:6d:dc:b8:b6:11:
         7a:ce:be:81:8c:be:e3:5c:3e:da:fd:71:c6:82:6c:91:7b:5a:
         0c:4b:bd:52:b0:7f:73:8e:50:c2:9d:1a:d2:1c:88:03:06:5b:
         52:be:47:5a:37:0d:93:86:e6:e2:17:1a:00:4b:c7:06:c2:5d:
         ce:ba:1a:1c:be:c6:04:c5:57:3b:44:49:ab:b0:2f:ff:9e:5a:
         4e:78:78:6d:33:4f:3a:27:27:0b:38:31:9e:ee:39:e3:bd:ca:
         ec:4e:2b:c4:9c:a4:a0:e5:fb:ec:fc:37:c4:31:66:1c:94:2c:
         39:a9:06:2c:8c:d6:71:b7:57:cf:a6:4a:03:8a:e4:87:7e:e2:
         de:7e:78:75:0e:b8:9d:c7:4c:e1:66:f8:e9:2d:91:e1:81:f1:
         8a:15:e5:7a:31:89:e6:69:49:74:08:4b:ce:30:44:b1:6c:17:
         f1:12:95:c3
-----BEGIN CERTIFICATE-----
MIIDXDCCAkSgAwIBAgIQNvGo1NSTjJMhA+JUe5j5qzANBgkqhkiG9w0BAQsFADAW
MRQwEgYDVQQDDAt0ZWFtMzQ1LW5ldDAeFw0yMTA5MTMwMTU3MTFaFw0yNDA4Mjgw
MTU3MTFaMBkxFzAVBgNVBAMMDnRlYW0zNDUtY2xpZW50MIIBIjANBgkqhkiG9w0B
AQEFAAOCAQ8AMIIBCgKCAQEAvXb6kJHFzdzY3X2/NqhsW46L8B6gQzLgxWMPspPE
WdN0yu+BipIXQgzZmhyCdfjWSekTc25qhJB28RYaTAgZ0SaEtU/gVDL2YVs2uJ4G
cQUIlBrvvDbnPYd4f9ab9SfA+cctS+38yMVJDYz2pT+6MrpHqnQXLis2/BlQHQGS
fLf5hSl1gylBzCme7Wy3gTvEsulZMyrYiViR4Q/+FrpnsdDNCQT57BNO028mVCC3
iVkNNG3/pD+X2iePtBFlOfCPov7PirV/VQBFhUYgLSDBjJypY5cdE2aobWbNCRO+
+nbRSwczvIX1y8ufiDzoPuXr9v/GHzwTMTW5dcdt99pMSQIDAQABo4GiMIGfMAkG
A1UdEwQCMAAwHQYDVR0OBBYEFBMYGanhpXAidONigzosNL3YQwizMFEGA1UdIwRK
MEiAFG474CiOoWULt9YmkNseNHB5IZlJoRqkGDAWMRQwEgYDVQQDDAt0ZWFtMzQ1
LW5ldIIUUuidLpzXY7fvCnmxvZUrJcgayoswEwYDVR0lBAwwCgYIKwYBBQUHAwIw
CwYDVR0PBAQDAgeAMA0GCSqGSIb3DQEBCwUAA4IBAQBYIzIbV30Fdd4ZlyOUftlm
jSIO4rsKNqmDlcmo06DtheK0glzEzNc+1wqTt0GEWCQhL9xjG/kcUcZ+ZOIyGgdt
hqvp3wvfXFF8hXKLHDRqsgNrd5jubdy4thF6zr6BjL7jXD7a/XHGgmyRe1oMS71S
sH9zjlDCnRrSHIgDBltSvkdaNw2ThubiFxoAS8cGwl3OuhocvsYExVc7REmrsC//
nlpOeHhtM086JycLODGe7jnjvcrsTivEnKSg5fvs/DfEMWYclCw5qQYsjNZxt1fP
pkoDiuSHfuLefnh1Dridx0zhZvjpLZHhgfGKFeV6MYnmaUl0CEvOMESxbBfxEpXD
-----END CERTIFICATE-----
