Certificate:
    Data:
        Version: 3 (0x2)
        Serial Number:
            66:33:66:b3:a1:45:5d:7b:75:72:1d:40:5d:f6:68:f2
        Signature Algorithm: sha256WithRSAEncryption
        Issuer: CN=team390-net
        Validity
            Not Before: Sep 13 02:18:07 2021 GMT
            Not After : Aug 28 02:18:07 2024 GMT
        Subject: CN=team390-server
        Subject Public Key Info:
            Public Key Algorithm: rsaEncryption
                RSA Public-Key: (2048 bit)
                Modulus:
                    00:d4:0b:3b:52:35:c4:08:5b:f7:90:fd:2b:79:04:
                    1f:3c:02:71:aa:33:8f:55:1d:9d:99:df:02:24:00:
                    5e:da:20:e8:d3:29:2f:2e:88:7f:56:a1:1f:55:89:
                    6e:a3:62:fc:16:b4:de:08:b2:5d:fd:71:c1:9c:80:
                    5c:1f:05:b5:af:2f:3d:be:36:df:88:67:91:df:1c:
                    f5:c5:86:17:97:ca:ed:29:e9:76:f7:9b:24:2f:ab:
                    30:68:2c:70:f4:2b:8a:40:c1:40:7b:d4:a4:53:0b:
                    d2:bb:da:ed:d9:3b:11:f6:17:c9:c2:d4:a1:f6:c7:
                    07:e0:09:1c:5c:5b:b3:d5:70:6c:5f:cc:4d:8b:05:
                    4d:bf:9d:58:e2:77:84:23:31:c4:03:b2:40:a7:f8:
                    a0:e5:f4:80:a1:e3:9e:1f:6c:45:77:3a:28:a3:85:
                    dc:a8:af:76:6b:7f:05:40:7f:fd:28:93:c4:10:71:
                    3b:d4:0a:a4:a7:a0:fe:ad:e9:66:db:95:03:e6:25:
                    09:6d:08:88:d1:85:f4:be:f0:6e:8d:f0:67:85:eb:
                    0f:4c:33:3b:d2:55:12:fa:81:13:cf:f1:35:fb:10:
                    d7:a9:29:75:13:fd:89:32:65:b0:54:6c:51:50:1b:
                    55:4e:c8:e9:af:e1:d8:2f:6c:ec:8d:60:d6:61:57:
                    cc:39
                Exponent: 65537 (0x10001)
        X509v3 extensions:
            X509v3 Basic Constraints: 
                CA:FALSE
            X509v3 Subject Key Identifier: 
                68:86:8C:B7:4B:53:BF:45:73:CA:D9:D9:41:43:B4:19:31:0A:28:8C
            X509v3 Authority Key Identifier: 
                keyid:93:A2:D4:F5:0D:94:C9:7B:51:3B:24:99:08:F7:DC:67:AF:25:63:64
                DirName:/CN=team390-net
                serial:4E:58:10:4D:3D:7D:BA:53:EA:BF:9A:29:C1:F1:EF:4E:BD:C9:27:C4

            X509v3 Extended Key Usage: 
                TLS Web Server Authentication
            X509v3 Key Usage: 
                Digital Signature, Key Encipherment
            X509v3 Subject Alternative Name: 
                DNS:team390-server
    Signature Algorithm: sha256WithRSAEncryption
         79:55:e0:a9:4a:41:05:fd:7f:67:de:f4:7c:f1:c7:a9:e7:b4:
         5f:5a:d8:e8:d1:21:fc:d4:5b:35:0c:83:44:ea:0a:bc:a4:16:
         b3:ee:16:5f:6a:e2:17:5c:9b:31:f7:e5:a6:5b:e6:77:b5:6c:
         b5:a7:97:28:d4:e2:bd:d0:2e:8a:96:30:b4:23:88:5b:cf:33:
         e1:c2:19:e4:c9:5a:90:9b:ef:21:fd:4d:f3:0d:fa:10:ff:c7:
         b2:a7:3f:82:c8:9f:16:2b:92:93:5c:75:8d:96:74:6d:3c:aa:
         1f:f1:92:a7:96:b7:10:07:c6:95:13:91:00:1b:7c:c2:54:e3:
         1c:73:7c:7a:74:60:1d:22:59:4b:8e:2a:03:e4:10:d6:3a:44:
         dc:70:6f:3c:52:a7:53:ae:d7:55:01:1e:0a:29:fd:17:40:cf:
         b4:94:6b:ab:9c:78:1d:38:45:b2:c1:d4:09:d8:7e:3d:82:12:
         cc:c7:bf:0f:39:e5:f0:bf:19:ff:47:ef:04:d7:98:40:33:a8:
         f7:e1:ef:65:92:99:a1:dd:48:77:22:7a:2f:03:42:c4:f2:73:
         d0:bc:dd:ff:f2:fd:58:d0:b3:0e:6c:7d:48:32:26:41:84:de:
         f8:41:0a:d2:7d:cd:45:ca:a4:fd:18:c0:af:d7:b8:9b:8d:95:
         8f:10:1f:21
-----BEGIN CERTIFICATE-----
MIIDdzCCAl+gAwIBAgIQZjNms6FFXXt1ch1AXfZo8jANBgkqhkiG9w0BAQsFADAW
MRQwEgYDVQQDDAt0ZWFtMzkwLW5ldDAeFw0yMTA5MTMwMjE4MDdaFw0yNDA4Mjgw
MjE4MDdaMBkxFzAVBgNVBAMMDnRlYW0zOTAtc2VydmVyMIIBIjANBgkqhkiG9w0B
AQEFAAOCAQ8AMIIBCgKCAQEA1As7UjXECFv3kP0reQQfPAJxqjOPVR2dmd8CJABe
2iDo0ykvLoh/VqEfVYluo2L8FrTeCLJd/XHBnIBcHwW1ry89vjbfiGeR3xz1xYYX
l8rtKel295skL6swaCxw9CuKQMFAe9SkUwvSu9rt2TsR9hfJwtSh9scH4AkcXFuz
1XBsX8xNiwVNv51Y4neEIzHEA7JAp/ig5fSAoeOeH2xFdzooo4XcqK92a38FQH/9
KJPEEHE71Aqkp6D+relm25UD5iUJbQiI0YX0vvBujfBnhesPTDM70lUS+oETz/E1
+xDXqSl1E/2JMmWwVGxRUBtVTsjpr+HYL2zsjWDWYVfMOQIDAQABo4G9MIG6MAkG
A1UdEwQCMAAwHQYDVR0OBBYEFGiGjLdLU79Fc8rZ2UFDtBkxCiiMMFEGA1UdIwRK
MEiAFJOi1PUNlMl7UTskmQj33GevJWNkoRqkGDAWMRQwEgYDVQQDDAt0ZWFtMzkw
LW5ldIIUTlgQTT19ulPqv5opwfHvTr3JJ8QwEwYDVR0lBAwwCgYIKwYBBQUHAwEw
CwYDVR0PBAQDAgWgMBkGA1UdEQQSMBCCDnRlYW0zOTAtc2VydmVyMA0GCSqGSIb3
DQEBCwUAA4IBAQB5VeCpSkEF/X9n3vR88cep57RfWtjo0SH81Fs1DINE6gq8pBaz
7hZfauIXXJsx9+WmW+Z3tWy1p5co1OK90C6KljC0I4hbzzPhwhnkyVqQm+8h/U3z
DfoQ/8eypz+CyJ8WK5KTXHWNlnRtPKof8ZKnlrcQB8aVE5EAG3zCVOMcc3x6dGAd
IllLjioD5BDWOkTccG88UqdTrtdVAR4KKf0XQM+0lGurnHgdOEWywdQJ2H49ghLM
x78POeXwvxn/R+8E15hAM6j34e9lkpmh3Uh3InovA0LE8nPQvN3/8v1Y0LMObH1I
MiZBhN74QQrSfc1FyqT9GMCv17ibjZWPEB8h
-----END CERTIFICATE-----
