Certificate:
    Data:
        Version: 3 (0x2)
        Serial Number:
            93:d5:d0:87:6f:1a:c3:ff:60:53:29:22:8d:d9:cc:60
        Signature Algorithm: sha256WithRSAEncryption
        Issuer: CN=team191-net
        Validity
            Not Before: Sep 13 00:25:46 2021 GMT
            Not After : Aug 28 00:25:46 2024 GMT
        Subject: CN=team191-client
        Subject Public Key Info:
            Public Key Algorithm: rsaEncryption
                RSA Public-Key: (2048 bit)
                Modulus:
                    00:aa:d1:75:55:7c:c1:f5:22:45:05:73:2a:73:e5:
                    e3:bf:97:d9:c3:8d:a3:e5:52:f8:d8:57:45:04:40:
                    7f:b4:4e:17:c6:23:58:40:b3:02:5a:bf:88:27:86:
                    93:b8:32:b9:b6:08:8c:87:8c:0a:92:d1:8b:ba:d4:
                    5e:8a:f4:0d:0c:76:45:e8:c4:68:3c:5f:fb:6b:97:
                    49:d7:35:62:ef:ae:1c:48:83:60:24:77:a2:0f:2e:
                    ce:8d:bb:49:1c:e2:c1:4c:2e:c2:45:9a:e8:e0:7e:
                    1d:e7:99:74:cd:3a:43:7f:6f:97:e6:0a:8f:ef:fb:
                    36:03:82:c7:c4:c0:64:a7:d8:cc:3b:87:ff:c5:e5:
                    5d:28:69:5e:d5:ca:18:c1:b9:5e:4d:4f:4d:5d:d7:
                    b0:d8:40:00:fd:a6:3e:d9:ec:50:24:43:2d:15:69:
                    f7:70:83:fc:7e:aa:cd:1f:a4:e1:5a:2c:c3:de:1a:
                    bf:c0:64:b0:80:a6:1b:87:24:3f:c1:94:b6:e3:c7:
                    23:8f:17:64:0f:d8:bc:06:97:a3:2c:f5:b3:4c:0d:
                    fd:aa:04:80:dd:1e:ca:ab:9f:a3:ba:50:b2:f8:4c:
                    48:f7:60:64:44:9a:5a:a5:ba:9c:b6:f7:a4:24:e8:
                    38:9c:bc:43:c6:26:ae:45:ee:58:cd:59:0d:9d:95:
                    4c:85
                Exponent: 65537 (0x10001)
        X509v3 extensions:
            X509v3 Basic Constraints: 
                CA:FALSE
            X509v3 Subject Key Identifier: 
                F6:88:B0:27:E3:B0:56:71:26:A4:16:24:A6:72:10:79:14:91:5E:FF
            X509v3 Authority Key Identifier: 
                keyid:00:4B:19:92:18:99:D4:DB:2F:8A:0B:D2:58:99:9F:28:2B:C1:F9:E0
                DirName:/CN=team191-net
                serial:1F:4D:9B:0F:8E:B9:3F:42:48:16:B8:BF:58:AC:FE:57:70:77:2D:B6

            X509v3 Extended Key Usage: 
                TLS Web Client Authentication
            X509v3 Key Usage: 
                Digital Signature
    Signature Algorithm: sha256WithRSAEncryption
         3a:74:f8:a5:18:f0:d3:74:d5:57:a6:f8:f2:36:6d:53:60:1e:
         54:e1:89:63:da:e3:c8:54:89:75:78:91:2e:10:31:80:0f:88:
         09:0d:7d:2a:54:9d:3d:cb:56:5c:ff:d2:67:9b:c3:1f:da:b0:
         33:c0:15:26:4d:4d:ae:78:2f:98:d3:5c:57:25:56:80:14:83:
         9b:07:ce:a6:52:d0:58:90:47:89:2d:f6:c6:a7:11:d6:b9:b9:
         df:26:b3:59:2f:19:7d:61:b0:01:e4:6b:68:b3:04:17:c9:84:
         45:fd:32:ff:85:f2:d9:7d:c7:a4:7f:fe:75:71:90:f1:d4:81:
         71:44:8f:44:df:01:ed:b1:c9:cb:39:4c:cb:ee:90:ac:d8:ec:
         b9:28:23:59:8e:e4:3c:95:4c:7b:ed:82:94:33:45:4b:a3:89:
         17:d5:05:67:2a:9c:e9:40:55:5f:f0:5a:ad:f5:31:58:dc:36:
         a9:7b:fa:cb:5b:09:fd:a5:d3:89:17:54:4e:ea:1b:82:47:95:
         35:21:07:b8:ff:fa:ac:66:a0:aa:5e:3b:b9:4c:35:c5:e8:3a:
         6c:a1:96:c2:88:fe:90:c9:07:9e:39:47:00:0e:19:b9:c8:fa:
         27:4a:78:02:f8:fe:bf:f4:2a:f8:f7:2b:bb:4b:11:d6:75:32:
         82:04:32:57
-----BEGIN CERTIFICATE-----
MIIDXTCCAkWgAwIBAgIRAJPV0IdvGsP/YFMpIo3ZzGAwDQYJKoZIhvcNAQELBQAw
FjEUMBIGA1UEAwwLdGVhbTE5MS1uZXQwHhcNMjEwOTEzMDAyNTQ2WhcNMjQwODI4
MDAyNTQ2WjAZMRcwFQYDVQQDDA50ZWFtMTkxLWNsaWVudDCCASIwDQYJKoZIhvcN
AQEBBQADggEPADCCAQoCggEBAKrRdVV8wfUiRQVzKnPl47+X2cONo+VS+NhXRQRA
f7ROF8YjWECzAlq/iCeGk7gyubYIjIeMCpLRi7rUXor0DQx2RejEaDxf+2uXSdc1
Yu+uHEiDYCR3og8uzo27SRziwUwuwkWa6OB+HeeZdM06Q39vl+YKj+/7NgOCx8TA
ZKfYzDuH/8XlXShpXtXKGMG5Xk1PTV3XsNhAAP2mPtnsUCRDLRVp93CD/H6qzR+k
4Vosw94av8BksICmG4ckP8GUtuPHI48XZA/YvAaXoyz1s0wN/aoEgN0eyqufo7pQ
svhMSPdgZESaWqW6nLb3pCToOJy8Q8YmrkXuWM1ZDZ2VTIUCAwEAAaOBojCBnzAJ
BgNVHRMEAjAAMB0GA1UdDgQWBBT2iLAn47BWcSakFiSmchB5FJFe/zBRBgNVHSME
SjBIgBQASxmSGJnU2y+KC9JYmZ8oK8H54KEapBgwFjEUMBIGA1UEAwwLdGVhbTE5
MS1uZXSCFB9Nmw+OuT9CSBa4v1is/ldwdy22MBMGA1UdJQQMMAoGCCsGAQUFBwMC
MAsGA1UdDwQEAwIHgDANBgkqhkiG9w0BAQsFAAOCAQEAOnT4pRjw03TVV6b48jZt
U2AeVOGJY9rjyFSJdXiRLhAxgA+ICQ19KlSdPctWXP/SZ5vDH9qwM8AVJk1Nrngv
mNNcVyVWgBSDmwfOplLQWJBHiS32xqcR1rm53yazWS8ZfWGwAeRraLMEF8mERf0y
/4Xy2X3HpH/+dXGQ8dSBcUSPRN8B7bHJyzlMy+6QrNjsuSgjWY7kPJVMe+2ClDNF
S6OJF9UFZyqc6UBVX/BarfUxWNw2qXv6y1sJ/aXTiRdUTuobgkeVNSEHuP/6rGag
ql47uUw1xeg6bKGWwoj+kMkHnjlHAA4Zucj6J0p4Avj+v/Qq+Pcru0sR1nUyggQy
Vw==
-----END CERTIFICATE-----
