Certificate:
    Data:
        Version: 3 (0x2)
        Serial Number:
            9c:52:e7:44:78:2b:b8:a4:3b:86:77:5c:2c:6a:86:67
        Signature Algorithm: sha256WithRSAEncryption
        Issuer: CN=team108-net
        Validity
            Not Before: Sep 12 23:43:56 2021 GMT
            Not After : Aug 27 23:43:56 2024 GMT
        Subject: CN=team108-server
        Subject Public Key Info:
            Public Key Algorithm: rsaEncryption
                RSA Public-Key: (2048 bit)
                Modulus:
                    00:b1:67:58:cb:38:d7:8e:f3:3f:e7:58:4e:45:25:
                    2c:a6:1f:71:5c:e9:d7:c1:a7:52:e8:bd:80:72:ae:
                    f8:97:31:ac:c7:97:18:8f:b6:f7:95:7a:e5:e3:79:
                    f8:1c:b1:47:50:7f:ee:b8:90:89:20:cd:4d:ff:6b:
                    92:d3:0f:0e:72:84:0f:0e:7e:db:0a:d6:57:10:97:
                    fb:d3:26:19:2b:eb:9e:4c:46:c7:6a:77:b2:23:b9:
                    e4:fe:74:15:e0:05:cc:cd:5e:e4:9f:46:fa:fe:30:
                    c6:c1:64:da:75:d5:ae:a7:b5:c1:93:a2:f7:bf:d4:
                    70:bf:13:35:af:0e:4d:ab:6d:15:12:46:d0:a8:6e:
                    e3:6c:1f:d9:cb:ae:e8:04:4f:8a:1b:f6:ae:bd:15:
                    c2:27:06:bf:23:6f:37:06:51:1a:6f:b2:7e:fe:98:
                    53:72:02:8f:4b:08:d6:d4:81:cb:27:37:61:2f:b0:
                    41:99:00:99:55:b1:cc:10:ef:45:f9:49:9f:1c:fe:
                    ab:f5:74:54:70:57:d0:2e:2f:67:6c:18:fd:f7:d3:
                    2d:99:6c:f3:42:61:80:3e:a8:4c:72:e9:39:a9:28:
                    e5:25:45:b9:40:55:bb:c8:65:53:9a:55:86:03:fb:
                    47:46:aa:6e:d3:f7:e9:c3:62:41:d8:3c:18:0c:88:
                    27:29
                Exponent: 65537 (0x10001)
        X509v3 extensions:
            X509v3 Basic Constraints: 
                CA:FALSE
            X509v3 Subject Key Identifier: 
                19:CE:99:68:25:45:88:6D:E9:65:03:7E:2E:20:00:DB:13:09:29:2D
            X509v3 Authority Key Identifier: 
                keyid:BF:A4:A6:5F:B1:64:B7:B5:B5:61:E3:75:59:E0:39:D7:42:78:21:5D
                DirName:/CN=team108-net
                serial:24:83:1D:68:A3:DB:51:75:2E:8B:58:E0:68:B0:E5:26:DC:26:0D:14

            X509v3 Extended Key Usage: 
                TLS Web Server Authentication
            X509v3 Key Usage: 
                Digital Signature, Key Encipherment
            X509v3 Subject Alternative Name: 
                DNS:team108-server
    Signature Algorithm: sha256WithRSAEncryption
         cc:2d:47:0f:13:44:72:b3:28:08:ec:47:3c:80:bb:41:f1:dd:
         98:41:3e:dc:8b:f0:f5:ca:f8:02:ae:be:9e:8b:46:84:e6:42:
         15:89:3d:8b:5b:29:22:42:0e:48:87:10:8a:b9:ca:ff:21:03:
         39:9c:32:8a:0f:df:24:d1:d3:7e:04:00:3e:0b:65:51:ed:05:
         07:a4:ac:f6:63:53:30:65:0e:cf:8d:d4:84:8a:ab:d7:66:c3:
         1d:01:69:55:a3:bd:0e:0b:de:f9:9a:90:88:e9:ad:f4:ef:f4:
         32:ea:43:f1:63:06:e2:3b:62:3e:dc:7a:1a:ef:73:93:94:8d:
         61:e5:e2:ae:1e:8c:ea:e9:76:f4:6d:78:1e:8c:82:d8:99:66:
         f9:77:3b:68:bc:99:3b:90:f0:85:4c:da:ca:2f:14:f0:8a:d3:
         72:e5:ef:1e:eb:5e:8f:32:d4:de:b6:21:2c:da:d1:51:bd:86:
         3a:c5:04:95:22:f0:e2:c1:92:75:8f:e1:6d:5f:5b:5b:3c:e2:
         5e:4b:8c:b2:13:30:5d:2b:aa:79:b8:ef:9d:97:b5:bd:a1:f7:
         6a:7d:9b:83:7e:01:de:b7:9b:93:c7:65:b0:96:2e:ad:ef:fc:
         42:f7:b5:62:14:06:1c:40:56:76:e8:92:b2:6b:3c:1b:e3:5e:
         64:89:c0:2e
-----BEGIN CERTIFICATE-----
MIIDeDCCAmCgAwIBAgIRAJxS50R4K7ikO4Z3XCxqhmcwDQYJKoZIhvcNAQELBQAw
FjEUMBIGA1UEAwwLdGVhbTEwOC1uZXQwHhcNMjEwOTEyMjM0MzU2WhcNMjQwODI3
MjM0MzU2WjAZMRcwFQYDVQQDDA50ZWFtMTA4LXNlcnZlcjCCASIwDQYJKoZIhvcN
AQEBBQADggEPADCCAQoCggEBALFnWMs4147zP+dYTkUlLKYfcVzp18GnUui9gHKu
+JcxrMeXGI+295V65eN5+ByxR1B/7riQiSDNTf9rktMPDnKEDw5+2wrWVxCX+9Mm
GSvrnkxGx2p3siO55P50FeAFzM1e5J9G+v4wxsFk2nXVrqe1wZOi97/UcL8TNa8O
TattFRJG0Khu42wf2cuu6ARPihv2rr0VwicGvyNvNwZRGm+yfv6YU3ICj0sI1tSB
yyc3YS+wQZkAmVWxzBDvRflJnxz+q/V0VHBX0C4vZ2wY/ffTLZls80JhgD6oTHLp
Oako5SVFuUBVu8hlU5pVhgP7R0aqbtP36cNiQdg8GAyIJykCAwEAAaOBvTCBujAJ
BgNVHRMEAjAAMB0GA1UdDgQWBBQZzploJUWIbellA34uIADbEwkpLTBRBgNVHSME
SjBIgBS/pKZfsWS3tbVh43VZ4DnXQnghXaEapBgwFjEUMBIGA1UEAwwLdGVhbTEw
OC1uZXSCFCSDHWij21F1LotY4Giw5SbcJg0UMBMGA1UdJQQMMAoGCCsGAQUFBwMB
MAsGA1UdDwQEAwIFoDAZBgNVHREEEjAQgg50ZWFtMTA4LXNlcnZlcjANBgkqhkiG
9w0BAQsFAAOCAQEAzC1HDxNEcrMoCOxHPIC7QfHdmEE+3Ivw9cr4Aq6+notGhOZC
FYk9i1spIkIOSIcQirnK/yEDOZwyig/fJNHTfgQAPgtlUe0FB6Ss9mNTMGUOz43U
hIqr12bDHQFpVaO9Dgve+ZqQiOmt9O/0MupD8WMG4jtiPtx6Gu9zk5SNYeXirh6M
6ul29G14HoyC2Jlm+Xc7aLyZO5DwhUzayi8U8IrTcuXvHutejzLU3rYhLNrRUb2G
OsUElSLw4sGSdY/hbV9bWzziXkuMshMwXSuqebjvnZe1vaH3an2bg34B3rebk8dl
sJYure/8Qve1YhQGHEBWduiSsms8G+NeZInALg==
-----END CERTIFICATE-----
