Certificate:
    Data:
        Version: 3 (0x2)
        Serial Number:
            38:b8:49:d4:58:cf:65:d8:30:dc:66:e7:92:71:30:8b
        Signature Algorithm: sha256WithRSAEncryption
        Issuer: CN=team402-net
        Validity
            Not Before: Sep 13 02:19:08 2021 GMT
            Not After : Aug 28 02:19:08 2024 GMT
        Subject: CN=team402-server
        Subject Public Key Info:
            Public Key Algorithm: rsaEncryption
                RSA Public-Key: (2048 bit)
                Modulus:
                    00:9d:01:a8:08:b4:33:d0:cf:a3:57:f4:19:e3:6b:
                    81:59:a8:55:02:c4:68:fe:4b:b9:3c:8b:c1:ad:a2:
                    a6:2b:88:f0:66:c4:d8:d2:88:0f:ce:39:00:39:7c:
                    ac:80:de:e1:83:6f:4c:63:6c:67:31:b3:82:dd:81:
                    5f:59:b2:9f:39:c2:26:f6:16:9e:b6:5c:9c:a5:57:
                    c9:06:1f:f6:26:9e:47:8d:2d:99:56:d9:c9:cb:6f:
                    95:97:4a:b6:7c:29:ef:6f:70:a0:c0:73:e5:b5:0e:
                    97:a1:3c:61:4c:f8:6b:61:be:e8:7e:64:48:a6:62:
                    56:9c:bb:d1:a9:ae:a4:25:31:0f:73:3a:f9:27:f0:
                    92:9a:6d:b1:f4:7f:79:e3:d6:9b:3f:2f:69:7a:3c:
                    da:00:29:3b:b3:85:77:ef:3a:3b:1d:9d:72:5c:cc:
                    1e:d6:b9:ab:42:11:a5:fd:33:ac:65:4e:90:a4:de:
                    de:b0:83:8d:70:03:6f:ad:0f:18:1c:83:92:87:2f:
                    43:0d:1f:44:6b:e7:b7:f1:ce:33:29:da:29:cd:dd:
                    05:55:df:03:e9:93:34:c4:92:42:cd:5a:51:fa:8b:
                    7a:54:26:f8:52:2d:d1:c7:69:1e:fd:77:61:16:b7:
                    96:eb:08:75:94:15:51:0b:84:0d:22:9f:f9:b4:a0:
                    fb:b5
                Exponent: 65537 (0x10001)
        X509v3 extensions:
            X509v3 Basic Constraints: 
                CA:FALSE
            X509v3 Subject Key Identifier: 
                86:E8:22:A3:D2:20:BB:7C:6D:CD:96:7D:4D:F5:44:6A:76:BE:51:03
            X509v3 Authority Key Identifier: 
                keyid:B5:39:D7:CC:B8:23:50:96:FA:DC:39:28:B9:17:2B:8B:87:19:D0:2F
                DirName:/CN=team402-net
                serial:2F:8B:B1:1E:7D:75:DB:88:3D:8F:EA:E4:B2:E0:95:9F:98:69:72:D4

            X509v3 Extended Key Usage: 
                TLS Web Server Authentication
            X509v3 Key Usage: 
                Digital Signature, Key Encipherment
            X509v3 Subject Alternative Name: 
                DNS:team402-server
    Signature Algorithm: sha256WithRSAEncryption
         56:73:ed:0f:d4:bc:5d:d5:60:31:de:c3:8d:0f:14:c2:56:7a:
         6a:f3:f1:b5:70:92:f5:44:d3:e3:13:8a:49:12:1c:f8:f9:bc:
         bf:31:33:9b:86:b8:84:ca:5b:42:59:bf:57:ab:d2:80:59:a8:
         44:cf:3b:73:16:70:c0:b4:16:10:c3:b1:0a:49:7e:97:59:d0:
         17:e9:1d:77:60:86:51:7c:ad:b8:3c:30:60:2c:54:36:97:77:
         90:f2:51:ad:1a:d7:8e:ff:96:03:48:56:04:7b:34:0a:9e:95:
         c3:00:1d:0f:84:04:5f:d2:41:33:02:0d:c0:40:11:d5:6f:94:
         a7:bf:12:ae:17:db:80:7d:9b:a3:23:30:f7:26:09:01:81:21:
         2d:0c:d3:db:f2:22:98:72:1a:fd:5d:a6:00:d5:27:3f:ce:a1:
         da:a1:79:c9:ce:e4:35:42:74:ba:b1:dd:50:9d:74:26:11:9d:
         74:f8:4c:f7:2c:05:4d:8f:70:3b:a1:99:06:f7:5f:e7:23:b5:
         5a:d8:b0:73:dc:75:28:10:65:b4:06:1d:b0:e7:66:37:5d:46:
         f8:af:e5:c0:16:bc:b2:65:9a:d3:d7:41:46:da:0a:eb:10:cf:
         81:fe:62:15:5a:7b:31:f7:95:49:fe:81:89:cf:90:51:a0:47:
         39:3c:c2:c6
-----BEGIN CERTIFICATE-----
MIIDdzCCAl+gAwIBAgIQOLhJ1FjPZdgw3GbnknEwizANBgkqhkiG9w0BAQsFADAW
MRQwEgYDVQQDDAt0ZWFtNDAyLW5ldDAeFw0yMTA5MTMwMjE5MDhaFw0yNDA4Mjgw
MjE5MDhaMBkxFzAVBgNVBAMMDnRlYW00MDItc2VydmVyMIIBIjANBgkqhkiG9w0B
AQEFAAOCAQ8AMIIBCgKCAQEAnQGoCLQz0M+jV/QZ42uBWahVAsRo/ku5PIvBraKm
K4jwZsTY0ogPzjkAOXysgN7hg29MY2xnMbOC3YFfWbKfOcIm9haetlycpVfJBh/2
Jp5HjS2ZVtnJy2+Vl0q2fCnvb3CgwHPltQ6XoTxhTPhrYb7ofmRIpmJWnLvRqa6k
JTEPczr5J/CSmm2x9H9549abPy9pejzaACk7s4V37zo7HZ1yXMwe1rmrQhGl/TOs
ZU6QpN7esIONcANvrQ8YHIOShy9DDR9Ea+e38c4zKdopzd0FVd8D6ZM0xJJCzVpR
+ot6VCb4Ui3Rx2ke/XdhFreW6wh1lBVRC4QNIp/5tKD7tQIDAQABo4G9MIG6MAkG
A1UdEwQCMAAwHQYDVR0OBBYEFIboIqPSILt8bc2WfU31RGp2vlEDMFEGA1UdIwRK
MEiAFLU518y4I1CW+tw5KLkXK4uHGdAvoRqkGDAWMRQwEgYDVQQDDAt0ZWFtNDAy
LW5ldIIUL4uxHn1124g9j+rksuCVn5hpctQwEwYDVR0lBAwwCgYIKwYBBQUHAwEw
CwYDVR0PBAQDAgWgMBkGA1UdEQQSMBCCDnRlYW00MDItc2VydmVyMA0GCSqGSIb3
DQEBCwUAA4IBAQBWc+0P1Lxd1WAx3sONDxTCVnpq8/G1cJL1RNPjE4pJEhz4+by/
MTObhriEyltCWb9Xq9KAWahEzztzFnDAtBYQw7EKSX6XWdAX6R13YIZRfK24PDBg
LFQ2l3eQ8lGtGteO/5YDSFYEezQKnpXDAB0PhARf0kEzAg3AQBHVb5SnvxKuF9uA
fZujIzD3JgkBgSEtDNPb8iKYchr9XaYA1Sc/zqHaoXnJzuQ1QnS6sd1QnXQmEZ10
+Ez3LAVNj3A7oZkG91/nI7Va2LBz3HUoEGW0Bh2w52Y3XUb4r+XAFryyZZrT10FG
2grrEM+B/mIVWnsx95VJ/oGJz5BRoEc5PMLG
-----END CERTIFICATE-----
