Certificate:
    Data:
        Version: 3 (0x2)
        Serial Number:
            b7:53:80:86:f6:9e:b0:c7:44:cc:0d:13:2b:c1:fc:4f
        Signature Algorithm: sha256WithRSAEncryption
        Issuer: CN=team114-net
        Validity
            Not Before: Sep 12 23:46:51 2021 GMT
            Not After : Aug 27 23:46:51 2024 GMT
        Subject: CN=team114-server
        Subject Public Key Info:
            Public Key Algorithm: rsaEncryption
                RSA Public-Key: (2048 bit)
                Modulus:
                    00:d6:d8:31:82:e4:3e:b2:a9:d2:07:b0:87:df:f1:
                    96:64:e4:52:68:dd:8a:0c:f2:9f:a1:01:7d:b8:1d:
                    c1:48:06:b5:e5:c6:6e:25:c2:b2:43:79:05:35:60:
                    ed:49:b2:9c:31:27:db:12:05:72:e7:97:f0:fa:c3:
                    1a:9f:19:c1:e5:d9:73:a6:e8:7b:bb:2d:a0:91:11:
                    6a:c0:66:b0:3d:c5:16:fa:f6:50:1d:b1:b6:46:d6:
                    83:5b:ab:ef:fc:92:b4:52:c4:52:e0:d8:96:b9:aa:
                    c8:1a:83:38:f9:ce:6d:83:e8:a9:d4:18:fb:af:3a:
                    f6:a3:cb:32:7e:bb:42:41:93:2b:06:92:13:f8:d8:
                    33:0b:80:1f:5c:1e:1d:dc:2f:f5:bc:d4:c7:f6:be:
                    9d:3b:31:70:06:e1:14:91:aa:16:1d:b3:c6:fd:8d:
                    ed:5a:4d:a2:43:c4:56:11:e0:c2:af:e9:16:37:8f:
                    ab:18:06:d0:84:47:a8:73:d9:14:3d:2d:df:38:b9:
                    88:a5:0d:46:66:00:32:4c:ba:0e:10:0e:fa:41:92:
                    77:1e:b0:53:02:54:73:03:4a:a0:85:5b:b2:85:88:
                    ae:c3:09:30:7a:84:cb:86:2f:c3:2c:f3:ad:b4:a8:
                    ee:36:50:e8:1d:3f:80:6d:7b:90:60:7c:19:ae:bc:
                    c6:a5
                Exponent: 65537 (0x10001)
        X509v3 extensions:
            X509v3 Basic Constraints: 
                CA:FALSE
            X509v3 Subject Key Identifier: 
                0A:37:3D:BC:5A:31:C3:4E:10:C9:E0:0D:E3:DA:35:EB:56:B2:15:26
            X509v3 Authority Key Identifier: 
                keyid:B2:2F:DC:69:97:38:7D:C9:5E:20:4D:56:92:64:93:E9:11:F1:18:44
                DirName:/CN=team114-net
                serial:18:18:F7:E8:68:2F:0C:F6:45:EF:E1:DE:CD:7D:CB:EE:79:1D:31:14

            X509v3 Extended Key Usage: 
                TLS Web Server Authentication
            X509v3 Key Usage: 
                Digital Signature, Key Encipherment
            X509v3 Subject Alternative Name: 
                DNS:team114-server
    Signature Algorithm: sha256WithRSAEncryption
         ad:60:96:da:83:cc:f0:20:b9:ca:e5:7f:36:46:dd:20:70:78:
         41:94:a4:7b:e2:59:86:fe:1b:d1:cc:31:31:2a:23:6a:d5:dd:
         5e:0f:1a:39:3a:42:65:ff:75:67:c7:55:d4:fc:d1:ba:1b:e5:
         38:31:10:67:c5:79:a6:98:49:2c:6b:0b:34:ab:e0:bf:1d:12:
         18:7e:58:00:5d:70:42:72:86:81:68:2e:ad:9b:d6:f0:e1:25:
         98:04:78:d4:9f:84:7c:bd:62:8d:7a:82:57:04:1e:9e:6a:14:
         71:e8:bb:d6:40:6b:b0:91:e1:bc:dc:76:ea:b7:a2:b3:8c:4c:
         eb:2c:17:b1:0c:43:a5:e8:8a:64:97:9e:64:d9:ea:af:a1:6a:
         a7:86:18:56:68:7e:54:80:e1:c9:b9:cb:61:e1:5f:c1:46:de:
         57:5b:65:7f:b2:28:1a:25:3d:7b:89:36:7e:97:24:68:a5:8a:
         06:f8:60:33:a7:27:da:99:27:e1:02:6c:c7:74:d0:21:f8:bc:
         8c:fb:8d:2d:e8:83:1b:a8:47:a3:78:60:5b:93:c1:00:b4:6a:
         57:7a:d2:de:56:f7:f5:37:88:f9:63:e1:1b:65:54:4f:42:2f:
         dd:22:f2:cd:97:30:34:40:8d:18:9e:24:48:a9:3e:4e:7a:66:
         51:02:aa:c7
-----BEGIN CERTIFICATE-----
MIIDeDCCAmCgAwIBAgIRALdTgIb2nrDHRMwNEyvB/E8wDQYJKoZIhvcNAQELBQAw
FjEUMBIGA1UEAwwLdGVhbTExNC1uZXQwHhcNMjEwOTEyMjM0NjUxWhcNMjQwODI3
MjM0NjUxWjAZMRcwFQYDVQQDDA50ZWFtMTE0LXNlcnZlcjCCASIwDQYJKoZIhvcN
AQEBBQADggEPADCCAQoCggEBANbYMYLkPrKp0gewh9/xlmTkUmjdigzyn6EBfbgd
wUgGteXGbiXCskN5BTVg7UmynDEn2xIFcueX8PrDGp8ZweXZc6boe7stoJERasBm
sD3FFvr2UB2xtkbWg1ur7/yStFLEUuDYlrmqyBqDOPnObYPoqdQY+6869qPLMn67
QkGTKwaSE/jYMwuAH1weHdwv9bzUx/a+nTsxcAbhFJGqFh2zxv2N7VpNokPEVhHg
wq/pFjePqxgG0IRHqHPZFD0t3zi5iKUNRmYAMky6DhAO+kGSdx6wUwJUcwNKoIVb
soWIrsMJMHqEy4YvwyzzrbSo7jZQ6B0/gG17kGB8Ga68xqUCAwEAAaOBvTCBujAJ
BgNVHRMEAjAAMB0GA1UdDgQWBBQKNz28WjHDThDJ4A3j2jXrVrIVJjBRBgNVHSME
SjBIgBSyL9xplzh9yV4gTVaSZJPpEfEYRKEapBgwFjEUMBIGA1UEAwwLdGVhbTEx
NC1uZXSCFBgY9+hoLwz2Re/h3s19y+55HTEUMBMGA1UdJQQMMAoGCCsGAQUFBwMB
MAsGA1UdDwQEAwIFoDAZBgNVHREEEjAQgg50ZWFtMTE0LXNlcnZlcjANBgkqhkiG
9w0BAQsFAAOCAQEArWCW2oPM8CC5yuV/NkbdIHB4QZSke+JZhv4b0cwxMSojatXd
Xg8aOTpCZf91Z8dV1PzRuhvlODEQZ8V5pphJLGsLNKvgvx0SGH5YAF1wQnKGgWgu
rZvW8OElmAR41J+EfL1ijXqCVwQenmoUcei71kBrsJHhvNx26reis4xM6ywXsQxD
peiKZJeeZNnqr6Fqp4YYVmh+VIDhybnLYeFfwUbeV1tlf7IoGiU9e4k2fpckaKWK
BvhgM6cn2pkn4QJsx3TQIfi8jPuNLeiDG6hHo3hgW5PBALRqV3rS3lb39TeI+WPh
G2VUT0Iv3SLyzZcwNECNGJ4kSKk+TnpmUQKqxw==
-----END CERTIFICATE-----
