Certificate:
    Data:
        Version: 3 (0x2)
        Serial Number:
            73:e0:3f:a0:ab:f7:ed:6d:c2:7d:ef:c8:6b:a3:40:4c
        Signature Algorithm: sha256WithRSAEncryption
        Issuer: CN=team736-net
        Validity
            Not Before: Sep 13 05:05:18 2021 GMT
            Not After : Aug 28 05:05:18 2024 GMT
        Subject: CN=team736-client
        Subject Public Key Info:
            Public Key Algorithm: rsaEncryption
                RSA Public-Key: (2048 bit)
                Modulus:
                    00:aa:a7:42:8c:6e:7b:60:bf:ee:cb:e1:e2:e3:a1:
                    2a:bf:87:f1:99:52:2f:f5:e6:02:3d:28:73:5a:19:
                    c1:5e:de:ab:af:17:86:eb:ba:6e:3a:05:7b:f6:99:
                    07:46:7c:71:dc:2d:45:2e:63:33:6b:88:47:9a:8c:
                    6b:31:4d:37:21:a6:fa:42:98:fd:d6:21:23:94:3b:
                    9d:66:17:52:49:3b:1f:47:0f:bd:0d:1e:a0:29:11:
                    e3:65:05:c7:75:97:b7:26:57:20:53:c4:5c:e9:2b:
                    d8:fe:4d:c5:a2:a9:f0:9a:5a:39:f0:78:d4:85:58:
                    a3:e6:60:6c:c0:c4:b1:a6:51:81:a3:c8:a2:7b:90:
                    21:1f:8d:a0:f8:6e:04:4f:ab:e5:20:a0:06:f7:43:
                    a1:46:2f:fd:61:58:7d:d2:ad:5d:f3:bd:a6:cf:88:
                    0f:38:6a:40:50:63:6b:b6:54:90:47:03:2c:ec:52:
                    d4:75:0e:71:1b:83:64:a6:63:d7:dc:75:f7:db:c5:
                    13:bc:54:9f:20:db:92:bf:30:1c:bf:7c:4a:86:c5:
                    be:b3:2c:48:e7:09:0b:70:e4:47:ba:9a:ca:ad:7d:
                    4a:bf:9c:9c:0c:36:37:15:b5:fc:bd:a9:82:da:f7:
                    18:59:b8:39:1f:3f:c9:c1:15:19:c8:b0:2a:6c:8d:
                    90:a1
                Exponent: 65537 (0x10001)
        X509v3 extensions:
            X509v3 Basic Constraints: 
                CA:FALSE
            X509v3 Subject Key Identifier: 
                33:F8:B0:53:C8:4D:BB:D1:E4:30:91:94:81:C0:77:E6:27:C3:D7:E8
            X509v3 Authority Key Identifier: 
                keyid:83:E2:75:D5:26:A0:7B:44:6E:1A:5A:FA:75:22:DF:C3:43:5A:00:71
                DirName:/CN=team736-net
                serial:7E:CF:12:85:87:40:4E:3F:8F:B5:10:1D:7A:F7:8F:76:CF:0A:2D:48

            X509v3 Extended Key Usage: 
                TLS Web Client Authentication
            X509v3 Key Usage: 
                Digital Signature
    Signature Algorithm: sha256WithRSAEncryption
         08:80:7a:a6:1c:32:fa:c8:1a:79:4b:19:6e:ad:25:60:cf:50:
         25:fd:0c:0a:6b:b7:a4:c2:56:ab:84:e4:e6:f0:ef:23:8f:57:
         7b:b7:b4:4c:d9:b5:bf:9a:82:41:23:80:4a:01:2d:97:04:2a:
         ce:ab:f3:41:be:73:33:52:2c:56:61:05:ca:7e:a1:9f:05:aa:
         60:69:2e:2f:53:05:67:18:fd:5f:12:a3:f8:39:e1:18:1e:24:
         bd:d3:2c:3f:dd:bc:b2:b7:35:48:f7:ef:e5:06:a9:7c:c8:c9:
         f6:8a:37:4c:d9:d6:8a:12:a9:30:d7:d9:99:17:ea:5f:85:9c:
         76:e5:4d:f6:49:37:ba:1c:00:b0:40:52:14:15:7a:ba:5c:19:
         6c:72:8e:b6:73:e2:78:aa:33:f0:44:52:56:b4:3c:f4:c8:36:
         d1:b6:7f:00:b2:70:b8:58:14:28:4e:2f:05:fe:44:d8:18:a5:
         84:0a:ab:a6:b5:dd:e3:6c:bf:4a:a1:93:7a:60:00:f6:93:29:
         db:18:38:be:74:94:c2:ff:88:4a:3c:b9:3d:2d:2e:cf:2f:03:
         d7:c9:50:4f:c4:cc:bb:26:5c:df:ee:e6:bf:13:a0:00:f3:f6:
         43:3f:02:19:53:b4:38:cf:19:ef:14:e6:48:d9:dc:74:ce:18:
         fb:ab:35:80
-----BEGIN CERTIFICATE-----
MIIDXDCCAkSgAwIBAgIQc+A/oKv37W3Cfe/Ia6NATDANBgkqhkiG9w0BAQsFADAW
MRQwEgYDVQQDDAt0ZWFtNzM2LW5ldDAeFw0yMTA5MTMwNTA1MThaFw0yNDA4Mjgw
NTA1MThaMBkxFzAVBgNVBAMMDnRlYW03MzYtY2xpZW50MIIBIjANBgkqhkiG9w0B
AQEFAAOCAQ8AMIIBCgKCAQEAqqdCjG57YL/uy+Hi46Eqv4fxmVIv9eYCPShzWhnB
Xt6rrxeG67puOgV79pkHRnxx3C1FLmMza4hHmoxrMU03Iab6Qpj91iEjlDudZhdS
STsfRw+9DR6gKRHjZQXHdZe3JlcgU8Rc6SvY/k3Foqnwmlo58HjUhVij5mBswMSx
plGBo8iie5AhH42g+G4ET6vlIKAG90OhRi/9YVh90q1d872mz4gPOGpAUGNrtlSQ
RwMs7FLUdQ5xG4NkpmPX3HX328UTvFSfINuSvzAcv3xKhsW+syxI5wkLcORHuprK
rX1Kv5ycDDY3FbX8vamC2vcYWbg5Hz/JwRUZyLAqbI2QoQIDAQABo4GiMIGfMAkG
A1UdEwQCMAAwHQYDVR0OBBYEFDP4sFPITbvR5DCRlIHAd+Ynw9foMFEGA1UdIwRK
MEiAFIPiddUmoHtEbhpa+nUi38NDWgBxoRqkGDAWMRQwEgYDVQQDDAt0ZWFtNzM2
LW5ldIIUfs8ShYdATj+PtRAdevePds8KLUgwEwYDVR0lBAwwCgYIKwYBBQUHAwIw
CwYDVR0PBAQDAgeAMA0GCSqGSIb3DQEBCwUAA4IBAQAIgHqmHDL6yBp5SxlurSVg
z1Al/QwKa7ekwlarhOTm8O8jj1d7t7RM2bW/moJBI4BKAS2XBCrOq/NBvnMzUixW
YQXKfqGfBapgaS4vUwVnGP1fEqP4OeEYHiS90yw/3byytzVI9+/lBql8yMn2ijdM
2daKEqkw19mZF+pfhZx25U32STe6HACwQFIUFXq6XBlsco62c+J4qjPwRFJWtDz0
yDbRtn8AsnC4WBQoTi8F/kTYGKWECqumtd3jbL9KoZN6YAD2kynbGDi+dJTC/4hK
PLk9LS7PLwPXyVBPxMy7Jlzf7ua/E6AA8/ZDPwIZU7Q4zxnvFOZI2dx0zhj7qzWA
-----END CERTIFICATE-----
