Certificate:
    Data:
        Version: 3 (0x2)
        Serial Number:
            fb:37:25:89:ce:58:04:8b:ea:ed:8c:fa:16:79:45:1b
        Signature Algorithm: sha256WithRSAEncryption
        Issuer: CN=team736-net
        Validity
            Not Before: Sep 13 05:05:19 2021 GMT
            Not After : Aug 28 05:05:19 2024 GMT
        Subject: CN=team736-server
        Subject Public Key Info:
            Public Key Algorithm: rsaEncryption
                RSA Public-Key: (2048 bit)
                Modulus:
                    00:bb:fe:51:d9:92:14:e9:e9:c7:61:94:6f:4e:af:
                    b4:ec:1e:6c:4a:46:bb:2b:16:be:38:9f:75:e2:b4:
                    47:29:a8:27:da:06:f6:e9:40:ca:90:98:1a:9d:b3:
                    f6:49:c1:ab:14:7f:f7:52:fd:aa:e7:24:78:2d:d8:
                    6f:5a:3c:1c:86:e1:4c:0d:4c:4e:0d:e8:e8:65:24:
                    fc:af:0b:ec:8d:80:5e:1e:a0:1d:ef:2c:5e:dc:66:
                    81:1e:9b:29:13:71:9a:04:b3:ce:e0:20:5b:58:89:
                    b1:16:35:5f:f5:f7:7c:7c:7a:c3:9f:5e:0c:22:e5:
                    68:df:a4:3e:c7:5f:8d:ef:5e:42:0e:c3:1d:68:3b:
                    c8:bb:1f:2e:c0:2f:8e:4f:a9:85:0e:5d:77:55:b7:
                    95:bf:1d:0f:79:5b:90:46:fb:47:13:17:b5:2d:dc:
                    de:bc:7d:89:a6:81:4c:87:dc:c0:c5:9c:d7:01:61:
                    0f:87:e1:77:50:59:fa:93:2c:e3:6c:d0:f6:79:86:
                    50:45:19:c1:4e:65:29:9f:b5:c6:b8:93:99:c9:43:
                    7b:bb:12:b8:03:49:41:9b:77:7f:85:a6:0d:ff:41:
                    f2:4b:f9:f0:b0:f9:94:19:d9:4e:f4:cf:fd:c9:ad:
                    06:91:dc:79:4d:19:60:9c:de:7d:cf:b4:9a:68:18:
                    0e:03
                Exponent: 65537 (0x10001)
        X509v3 extensions:
            X509v3 Basic Constraints: 
                CA:FALSE
            X509v3 Subject Key Identifier: 
                05:DE:59:EE:B8:72:14:43:21:FA:44:87:1B:B0:9F:C6:43:1F:8B:DC
            X509v3 Authority Key Identifier: 
                keyid:83:E2:75:D5:26:A0:7B:44:6E:1A:5A:FA:75:22:DF:C3:43:5A:00:71
                DirName:/CN=team736-net
                serial:7E:CF:12:85:87:40:4E:3F:8F:B5:10:1D:7A:F7:8F:76:CF:0A:2D:48

            X509v3 Extended Key Usage: 
                TLS Web Server Authentication
            X509v3 Key Usage: 
                Digital Signature, Key Encipherment
            X509v3 Subject Alternative Name: 
                DNS:team736-server
    Signature Algorithm: sha256WithRSAEncryption
         8f:ec:ae:fe:b7:68:af:21:94:df:af:70:f5:bd:75:02:5e:b2:
         0c:fe:12:01:c8:f5:a6:23:20:93:7d:63:70:fb:eb:6b:29:97:
         b3:c8:31:08:a3:60:d1:ca:63:32:ac:f6:9c:0c:57:46:2e:cb:
         0f:5f:b9:8c:64:d0:6b:23:47:10:0e:f5:6a:67:bd:22:c9:7d:
         09:30:49:43:f0:24:36:18:77:7b:4d:09:31:02:c0:4a:eb:b4:
         03:5b:cd:03:d4:1d:59:56:a9:e1:99:55:f6:05:1c:10:ae:b2:
         88:7a:4b:b6:dc:f2:2c:e1:e8:dd:be:cd:77:a8:a8:bf:d0:d1:
         a9:c9:9d:29:85:a7:43:b7:93:92:fd:ad:e8:76:0c:91:de:73:
         cb:3b:ab:0f:12:38:6c:6a:eb:4f:01:d3:08:ad:8b:8b:44:84:
         c5:19:15:61:13:d0:a1:4e:4c:ff:6c:66:ab:1d:1c:86:5b:ea:
         bc:2b:d2:01:1d:d3:f5:e3:6a:19:25:09:a1:b8:ef:66:21:65:
         de:e1:a0:ed:43:f6:da:6e:ec:17:84:0d:97:11:c2:c3:eb:06:
         03:8a:68:62:f1:24:24:87:30:95:8b:fa:76:f0:87:1f:bd:82:
         7e:40:e2:62:76:8a:82:7f:77:e6:5d:3a:a7:f0:c0:62:a1:0d:
         21:b6:14:eb
-----BEGIN CERTIFICATE-----
MIIDeDCCAmCgAwIBAgIRAPs3JYnOWASL6u2M+hZ5RRswDQYJKoZIhvcNAQELBQAw
FjEUMBIGA1UEAwwLdGVhbTczNi1uZXQwHhcNMjEwOTEzMDUwNTE5WhcNMjQwODI4
MDUwNTE5WjAZMRcwFQYDVQQDDA50ZWFtNzM2LXNlcnZlcjCCASIwDQYJKoZIhvcN
AQEBBQADggEPADCCAQoCggEBALv+UdmSFOnpx2GUb06vtOwebEpGuysWvjifdeK0
RymoJ9oG9ulAypCYGp2z9knBqxR/91L9quckeC3Yb1o8HIbhTA1MTg3o6GUk/K8L
7I2AXh6gHe8sXtxmgR6bKRNxmgSzzuAgW1iJsRY1X/X3fHx6w59eDCLlaN+kPsdf
je9eQg7DHWg7yLsfLsAvjk+phQ5dd1W3lb8dD3lbkEb7RxMXtS3c3rx9iaaBTIfc
wMWc1wFhD4fhd1BZ+pMs42zQ9nmGUEUZwU5lKZ+1xriTmclDe7sSuANJQZt3f4Wm
Df9B8kv58LD5lBnZTvTP/cmtBpHceU0ZYJzefc+0mmgYDgMCAwEAAaOBvTCBujAJ
BgNVHRMEAjAAMB0GA1UdDgQWBBQF3lnuuHIUQyH6RIcbsJ/GQx+L3DBRBgNVHSME
SjBIgBSD4nXVJqB7RG4aWvp1It/DQ1oAcaEapBgwFjEUMBIGA1UEAwwLdGVhbTcz
Ni1uZXSCFH7PEoWHQE4/j7UQHXr3j3bPCi1IMBMGA1UdJQQMMAoGCCsGAQUFBwMB
MAsGA1UdDwQEAwIFoDAZBgNVHREEEjAQgg50ZWFtNzM2LXNlcnZlcjANBgkqhkiG
9w0BAQsFAAOCAQEAj+yu/rdoryGU369w9b11Al6yDP4SAcj1piMgk31jcPvraymX
s8gxCKNg0cpjMqz2nAxXRi7LD1+5jGTQayNHEA71ame9Isl9CTBJQ/AkNhh3e00J
MQLASuu0A1vNA9QdWVap4ZlV9gUcEK6yiHpLttzyLOHo3b7Nd6iov9DRqcmdKYWn
Q7eTkv2t6HYMkd5zyzurDxI4bGrrTwHTCK2Li0SExRkVYRPQoU5M/2xmqx0chlvq
vCvSAR3T9eNqGSUJobjvZiFl3uGg7UP22m7sF4QNlxHCw+sGA4poYvEkJIcwlYv6
dvCHH72CfkDiYnaKgn935l06p/DAYqENIbYU6w==
-----END CERTIFICATE-----
