Certificate:
    Data:
        Version: 3 (0x2)
        Serial Number:
            2c:c9:7d:99:34:30:3f:60:66:fc:7d:47:ff:b4:d3:7f
        Signature Algorithm: sha256WithRSAEncryption
        Issuer: CN=team155-net
        Validity
            Not Before: Sep 13 00:14:49 2021 GMT
            Not After : Aug 28 00:14:49 2024 GMT
        Subject: CN=team155-server
        Subject Public Key Info:
            Public Key Algorithm: rsaEncryption
                RSA Public-Key: (2048 bit)
                Modulus:
                    00:db:12:de:4f:99:0a:6c:c6:2f:99:28:70:04:1b:
                    10:0c:c0:bd:20:f0:15:36:24:78:f1:c6:b0:df:34:
                    89:4a:5b:c4:58:88:98:c9:41:2e:56:a6:3e:7f:59:
                    f6:f4:9b:8f:e4:1d:c3:f6:7c:5e:0a:22:48:76:63:
                    cf:c7:b9:13:83:3c:77:ef:ff:ec:66:62:99:65:d6:
                    4d:fc:3d:f9:40:da:fa:65:2d:69:59:f2:69:44:bc:
                    7a:88:5c:51:92:c8:9f:29:0b:c1:cf:72:76:2a:04:
                    b1:7a:b1:c1:86:c7:1f:20:da:b4:8d:85:f4:bf:6e:
                    1b:dd:a7:92:0c:74:67:be:a6:e6:4f:22:1e:59:02:
                    b2:87:45:8d:5b:4f:0f:f0:cb:9f:65:41:86:f8:f9:
                    5b:f1:6c:c3:17:f0:d0:33:70:39:76:70:fe:94:f9:
                    61:44:65:f6:5b:10:e4:3f:1d:2e:78:32:2e:89:9e:
                    c0:61:eb:9a:a5:bd:48:2d:92:2d:6f:0a:b9:c6:36:
                    04:02:e8:6f:52:41:1a:7e:fa:5d:25:a3:2a:e0:cc:
                    ef:56:59:34:bf:2a:79:ca:9c:e8:2e:93:99:c8:a9:
                    e2:76:f8:8a:48:ab:6e:2c:14:49:af:6c:34:c5:5a:
                    9f:5c:27:6c:fe:36:e8:04:70:c6:53:6c:92:eb:50:
                    51:17
                Exponent: 65537 (0x10001)
        X509v3 extensions:
            X509v3 Basic Constraints: 
                CA:FALSE
            X509v3 Subject Key Identifier: 
                7E:35:B6:C8:5B:62:98:76:DF:5C:19:91:EE:46:4C:6F:C7:4E:D5:54
            X509v3 Authority Key Identifier: 
                keyid:9A:8E:A4:FE:71:26:4B:AE:6B:D4:FF:77:70:F2:D3:F2:B6:A7:7D:D7
                DirName:/CN=team155-net
                serial:3B:D2:34:26:07:38:1F:B4:55:82:10:D1:A3:F7:97:13:A2:88:72:A4

            X509v3 Extended Key Usage: 
                TLS Web Server Authentication
            X509v3 Key Usage: 
                Digital Signature, Key Encipherment
            X509v3 Subject Alternative Name: 
                DNS:team155-server
    Signature Algorithm: sha256WithRSAEncryption
         95:25:4f:95:94:cc:a3:76:ec:db:4c:7b:3a:42:55:52:7e:2f:
         1d:dc:fb:ed:c3:97:f8:5e:fc:bf:53:b9:e8:8d:0b:fe:3b:57:
         00:17:77:65:ea:25:fd:c4:1f:02:ae:b8:25:3e:07:b4:59:0a:
         2a:f2:a3:13:97:32:e8:f5:5d:07:e1:ae:c9:b2:16:ff:f2:89:
         ff:7d:70:98:72:54:e6:45:cf:e8:08:d3:bb:1b:b7:78:a1:4b:
         8d:94:a8:59:e3:95:25:e1:d2:12:59:77:71:e2:71:88:92:4b:
         d9:fb:42:dc:83:e8:cd:26:a0:ad:27:4d:09:96:9d:ca:ea:ee:
         a0:82:d9:e0:db:f2:08:78:fc:cc:7f:d8:c7:68:cc:6a:5f:57:
         3f:1c:f3:22:cd:06:aa:8e:34:b1:60:ac:1d:26:2e:72:2f:15:
         3d:18:04:fa:4d:20:4f:f8:5b:59:6b:bf:30:68:b6:2f:f0:3e:
         e6:6b:80:7f:62:92:a5:93:fc:bc:06:c5:5d:b4:3b:54:8a:3c:
         fe:ef:57:7a:84:20:e8:d8:52:d4:df:d6:7f:07:25:89:ca:22:
         52:4e:ea:84:76:0f:5e:90:fe:de:da:e9:62:2b:ac:b0:b5:04:
         16:af:22:99:03:ce:ee:30:fd:8e:22:18:5d:dd:92:8c:2c:a1:
         11:09:6c:70
-----BEGIN CERTIFICATE-----
MIIDdzCCAl+gAwIBAgIQLMl9mTQwP2Bm/H1H/7TTfzANBgkqhkiG9w0BAQsFADAW
MRQwEgYDVQQDDAt0ZWFtMTU1LW5ldDAeFw0yMTA5MTMwMDE0NDlaFw0yNDA4Mjgw
MDE0NDlaMBkxFzAVBgNVBAMMDnRlYW0xNTUtc2VydmVyMIIBIjANBgkqhkiG9w0B
AQEFAAOCAQ8AMIIBCgKCAQEA2xLeT5kKbMYvmShwBBsQDMC9IPAVNiR48caw3zSJ
SlvEWIiYyUEuVqY+f1n29JuP5B3D9nxeCiJIdmPPx7kTgzx37//sZmKZZdZN/D35
QNr6ZS1pWfJpRLx6iFxRksifKQvBz3J2KgSxerHBhscfINq0jYX0v24b3aeSDHRn
vqbmTyIeWQKyh0WNW08P8MufZUGG+Plb8WzDF/DQM3A5dnD+lPlhRGX2WxDkPx0u
eDIuiZ7AYeuapb1ILZItbwq5xjYEAuhvUkEafvpdJaMq4MzvVlk0vyp5ypzoLpOZ
yKnidviKSKtuLBRJr2w0xVqfXCds/jboBHDGU2yS61BRFwIDAQABo4G9MIG6MAkG
A1UdEwQCMAAwHQYDVR0OBBYEFH41tshbYph231wZke5GTG/HTtVUMFEGA1UdIwRK
MEiAFJqOpP5xJkuua9T/d3Dy0/K2p33XoRqkGDAWMRQwEgYDVQQDDAt0ZWFtMTU1
LW5ldIIUO9I0Jgc4H7RVghDRo/eXE6KIcqQwEwYDVR0lBAwwCgYIKwYBBQUHAwEw
CwYDVR0PBAQDAgWgMBkGA1UdEQQSMBCCDnRlYW0xNTUtc2VydmVyMA0GCSqGSIb3
DQEBCwUAA4IBAQCVJU+VlMyjduzbTHs6QlVSfi8d3Pvtw5f4Xvy/U7nojQv+O1cA
F3dl6iX9xB8CrrglPge0WQoq8qMTlzLo9V0H4a7Jshb/8on/fXCYclTmRc/oCNO7
G7d4oUuNlKhZ45Ul4dISWXdx4nGIkkvZ+0Lcg+jNJqCtJ00Jlp3K6u6ggtng2/II
ePzMf9jHaMxqX1c/HPMizQaqjjSxYKwdJi5yLxU9GAT6TSBP+FtZa78waLYv8D7m
a4B/YpKlk/y8BsVdtDtUijz+71d6hCDo2FLU39Z/ByWJyiJSTuqEdg9ekP7e2uli
K6ywtQQWryKZA87uMP2OIhhd3ZKMLKERCWxw
-----END CERTIFICATE-----
