Certificate:
    Data:
        Version: 3 (0x2)
        Serial Number:
            7f:77:d7:e8:9b:37:dd:de:f5:02:e8:4d:78:96:63:99
        Signature Algorithm: sha256WithRSAEncryption
        Issuer: CN=team617-net
        Validity
            Not Before: Sep 13 04:08:51 2021 GMT
            Not After : Aug 28 04:08:51 2024 GMT
        Subject: CN=team617-client
        Subject Public Key Info:
            Public Key Algorithm: rsaEncryption
                RSA Public-Key: (2048 bit)
                Modulus:
                    00:bb:11:c6:8a:9b:0c:19:29:58:f4:7f:d4:e3:cc:
                    7b:c4:fe:92:8e:32:c2:e1:1c:07:da:cc:5d:31:ed:
                    f0:a0:24:78:c3:5d:99:3b:a2:1d:bd:71:88:69:51:
                    92:40:ad:ba:e3:2e:6f:20:30:6a:40:c6:c7:9d:25:
                    d5:6c:6f:86:05:28:03:2d:b1:9e:13:60:12:18:c5:
                    b2:bd:d1:0a:bb:e4:46:92:34:0e:62:cb:26:68:2f:
                    f4:6d:5f:33:13:f3:be:56:ab:64:3d:43:2c:a8:d0:
                    45:4c:f4:7a:de:1c:25:d0:3e:de:1b:36:c7:c3:66:
                    85:8e:14:4b:4a:98:fc:56:2d:66:90:01:09:d1:21:
                    4b:6e:3b:1a:c8:52:be:e3:fa:1b:15:88:8e:55:b7:
                    b9:9c:a4:44:53:ef:6b:11:ab:5c:fc:a4:63:51:d4:
                    4b:ba:4f:28:6e:df:a7:cd:90:0c:85:14:83:26:15:
                    fe:7a:4d:ce:5f:77:e2:33:bb:fb:ab:c9:72:9c:00:
                    11:02:3b:0c:d9:4a:05:ef:56:e2:a8:31:75:3d:49:
                    1a:6e:9a:b1:38:22:7a:7f:ac:32:17:02:8a:28:dc:
                    2b:ba:22:72:0b:34:7d:0d:7b:23:d3:c2:79:8a:45:
                    ee:e1:c1:ce:bc:cc:a2:3d:98:26:a9:92:df:0e:79:
                    d9:c9
                Exponent: 65537 (0x10001)
        X509v3 extensions:
            X509v3 Basic Constraints: 
                CA:FALSE
            X509v3 Subject Key Identifier: 
                79:55:26:C4:E4:AD:E7:76:0D:A7:5F:3B:7D:23:B2:15:2A:20:44:2E
            X509v3 Authority Key Identifier: 
                keyid:DA:FF:17:E1:A2:EF:4E:9F:05:5C:62:96:32:81:F9:B2:E6:A1:5D:C5
                DirName:/CN=team617-net
                serial:2D:B7:42:E6:26:09:4C:51:8B:7B:EB:02:78:AB:7B:6D:BC:A8:E9:31

            X509v3 Extended Key Usage: 
                TLS Web Client Authentication
            X509v3 Key Usage: 
                Digital Signature
    Signature Algorithm: sha256WithRSAEncryption
         70:5e:2f:58:60:bc:d7:0d:1f:13:75:0f:b9:79:f8:46:6a:d7:
         15:50:d0:d5:58:96:8f:44:19:5e:6a:7b:14:11:a2:59:cf:01:
         77:04:3e:33:50:93:29:10:20:6c:1b:85:63:b4:9b:99:56:89:
         35:25:ca:7e:f2:2e:a8:9f:c1:5b:09:97:0b:76:41:77:2b:7b:
         cc:ff:14:93:1b:bd:81:76:90:f5:62:b4:b1:d4:3b:2b:dc:ca:
         bb:a1:56:24:4f:7b:0e:ef:51:b0:c1:34:cf:e2:24:10:5d:97:
         8f:85:81:2b:68:61:a5:51:bb:94:4b:9c:7b:2e:b9:e2:9c:bf:
         3f:41:a0:a3:82:b7:00:ab:1a:d7:82:44:39:72:88:dc:22:7c:
         b9:a1:fb:7d:9d:e9:50:6a:08:fb:d4:1a:3a:6c:7b:eb:61:d6:
         7a:f4:18:0a:01:1b:01:ed:10:26:82:90:02:90:14:a6:b6:cd:
         cf:6c:2b:3b:4b:b7:13:c1:3f:9d:12:58:9d:52:a7:5f:fb:6c:
         a6:4c:17:06:eb:be:a6:22:3b:c3:d1:61:40:07:6d:9a:91:7b:
         1a:f9:53:41:4d:78:d2:6e:8a:02:b8:54:9d:9a:aa:6d:56:62:
         a4:bd:58:9c:ef:50:9c:8c:a3:0d:45:e1:8e:48:ad:d4:9c:3b:
         ad:1e:9a:55
-----BEGIN CERTIFICATE-----
MIIDXDCCAkSgAwIBAgIQf3fX6Js33d71AuhNeJZjmTANBgkqhkiG9w0BAQsFADAW
MRQwEgYDVQQDDAt0ZWFtNjE3LW5ldDAeFw0yMTA5MTMwNDA4NTFaFw0yNDA4Mjgw
NDA4NTFaMBkxFzAVBgNVBAMMDnRlYW02MTctY2xpZW50MIIBIjANBgkqhkiG9w0B
AQEFAAOCAQ8AMIIBCgKCAQEAuxHGipsMGSlY9H/U48x7xP6SjjLC4RwH2sxdMe3w
oCR4w12ZO6IdvXGIaVGSQK264y5vIDBqQMbHnSXVbG+GBSgDLbGeE2ASGMWyvdEK
u+RGkjQOYssmaC/0bV8zE/O+VqtkPUMsqNBFTPR63hwl0D7eGzbHw2aFjhRLSpj8
Vi1mkAEJ0SFLbjsayFK+4/obFYiOVbe5nKREU+9rEatc/KRjUdRLuk8obt+nzZAM
hRSDJhX+ek3OX3fiM7v7q8lynAARAjsM2UoF71biqDF1PUkabpqxOCJ6f6wyFwKK
KNwruiJyCzR9DXsj08J5ikXu4cHOvMyiPZgmqZLfDnnZyQIDAQABo4GiMIGfMAkG
A1UdEwQCMAAwHQYDVR0OBBYEFHlVJsTkred2DadfO30jshUqIEQuMFEGA1UdIwRK
MEiAFNr/F+Gi706fBVxiljKB+bLmoV3FoRqkGDAWMRQwEgYDVQQDDAt0ZWFtNjE3
LW5ldIIULbdC5iYJTFGLe+sCeKt7bbyo6TEwEwYDVR0lBAwwCgYIKwYBBQUHAwIw
CwYDVR0PBAQDAgeAMA0GCSqGSIb3DQEBCwUAA4IBAQBwXi9YYLzXDR8TdQ+5efhG
atcVUNDVWJaPRBleansUEaJZzwF3BD4zUJMpECBsG4VjtJuZVok1Jcp+8i6on8Fb
CZcLdkF3K3vM/xSTG72BdpD1YrSx1Dsr3Mq7oVYkT3sO71GwwTTP4iQQXZePhYEr
aGGlUbuUS5x7LrninL8/QaCjgrcAqxrXgkQ5cojcIny5oft9nelQagj71Bo6bHvr
YdZ69BgKARsB7RAmgpACkBSmts3PbCs7S7cTwT+dElidUqdf+2ymTBcG676mIjvD
0WFAB22akXsa+VNBTXjSbooCuFSdmqptVmKkvVic71CcjKMNReGOSK3UnDutHppV
-----END CERTIFICATE-----
