Certificate:
    Data:
        Version: 3 (0x2)
        Serial Number:
            8b:84:3c:66:37:46:d0:54:0a:07:62:de:54:5d:b7:59
        Signature Algorithm: sha256WithRSAEncryption
        Issuer: CN=team617-net
        Validity
            Not Before: Sep 13 04:30:46 2021 GMT
            Not After : Aug 28 04:30:46 2024 GMT
        Subject: CN=team617-client
        Subject Public Key Info:
            Public Key Algorithm: rsaEncryption
                RSA Public-Key: (2048 bit)
                Modulus:
                    00:a2:6f:f8:11:40:03:67:c9:97:1a:9a:f1:8d:ec:
                    67:27:f8:93:d4:b7:22:b3:96:5c:33:bd:ff:d5:bf:
                    27:66:ac:f1:90:4a:59:05:f7:a6:00:35:5f:ae:ce:
                    77:62:81:1d:3d:a1:a0:bd:7a:ab:e8:b0:38:1f:56:
                    ff:6c:ae:91:bc:e7:e4:d4:97:5d:1c:ef:6f:af:d4:
                    56:11:b4:5f:f3:9d:e2:9c:d5:1f:d7:d0:19:3a:01:
                    99:b6:81:91:65:2c:5d:a5:7a:b0:2e:7d:c9:38:39:
                    7d:eb:6d:37:84:21:ba:7c:f1:ec:91:c1:b1:f7:9c:
                    fc:24:7d:27:b4:65:91:aa:31:53:d6:90:0f:31:d2:
                    a0:f5:f3:6b:55:de:59:f5:1f:bd:47:36:1e:06:a3:
                    ea:30:17:73:43:5d:36:ea:3f:a2:8c:81:10:85:ae:
                    74:d7:f7:54:ca:6c:0d:17:2d:1e:0d:8b:0d:5c:b1:
                    dd:51:40:27:1c:ca:c4:0d:3c:91:52:2c:4e:bf:d7:
                    52:24:35:05:e5:ce:75:77:d8:78:c6:b5:0b:52:33:
                    ac:8e:03:d5:0c:8c:65:53:e5:97:ce:d9:7a:0d:74:
                    c2:33:55:35:ad:47:f9:e7:84:95:f9:2f:df:92:a2:
                    9a:d6:f9:47:65:4d:69:27:5b:39:e0:de:71:48:99:
                    60:5b
                Exponent: 65537 (0x10001)
        X509v3 extensions:
            X509v3 Basic Constraints: 
                CA:FALSE
            X509v3 Subject Key Identifier: 
                10:07:8E:2E:9B:61:BC:66:A5:F5:07:7C:D6:DE:B3:DF:47:A3:B3:75
            X509v3 Authority Key Identifier: 
                keyid:0E:11:FC:0A:BF:4C:9C:28:CE:0F:CA:93:BB:1A:9C:A1:F6:8B:33:62
                DirName:/CN=team617-net
                serial:3A:49:EC:1C:F2:FA:2A:A4:0F:9D:AB:80:B6:18:C8:8A:99:EA:79:0E

            X509v3 Extended Key Usage: 
                TLS Web Client Authentication
            X509v3 Key Usage: 
                Digital Signature
    Signature Algorithm: sha256WithRSAEncryption
         49:99:b6:fb:e3:0b:b0:58:21:44:c3:5e:60:7f:f9:38:dc:d7:
         6e:5b:37:a5:c8:e1:60:35:ba:97:78:3b:1d:0a:58:c3:dd:75:
         48:e9:4b:47:4f:ad:87:c9:db:82:86:6f:bc:fb:c9:33:c7:f0:
         36:f5:b8:f5:08:1e:ff:60:4c:12:a3:24:4c:d5:d1:90:07:b7:
         77:8a:d7:a6:8b:51:04:bd:c9:1d:1e:23:28:28:ae:9a:9e:14:
         40:a1:e3:a0:ef:c4:86:e1:6f:3a:90:37:01:3e:7a:ed:93:68:
         8f:42:60:8c:81:46:74:72:da:ab:4b:bc:d7:61:73:60:dd:d3:
         c2:98:59:3f:91:96:c8:17:de:6f:60:62:e4:95:a7:89:fb:3e:
         77:51:7a:f1:a1:36:ba:60:44:76:93:d9:83:eb:4a:8b:da:ea:
         1c:9c:27:44:e6:cf:cb:d6:37:27:30:8e:6c:51:6e:76:d4:0a:
         d0:b3:d3:51:c5:79:57:5a:ec:83:4a:a6:40:d5:42:fc:d5:cd:
         a8:3e:7a:69:84:aa:05:db:da:a3:bf:aa:e3:d0:63:9d:94:bc:
         39:ce:06:e4:e4:6e:46:6e:14:8a:a4:09:94:9a:97:78:34:aa:
         e9:3a:61:ed:c5:fd:9b:cd:1b:eb:40:3e:72:53:76:42:f9:0b:
         af:a6:11:e8
-----BEGIN CERTIFICATE-----
MIIDXTCCAkWgAwIBAgIRAIuEPGY3RtBUCgdi3lRdt1kwDQYJKoZIhvcNAQELBQAw
FjEUMBIGA1UEAwwLdGVhbTYxNy1uZXQwHhcNMjEwOTEzMDQzMDQ2WhcNMjQwODI4
MDQzMDQ2WjAZMRcwFQYDVQQDDA50ZWFtNjE3LWNsaWVudDCCASIwDQYJKoZIhvcN
AQEBBQADggEPADCCAQoCggEBAKJv+BFAA2fJlxqa8Y3sZyf4k9S3IrOWXDO9/9W/
J2as8ZBKWQX3pgA1X67Od2KBHT2hoL16q+iwOB9W/2yukbzn5NSXXRzvb6/UVhG0
X/Od4pzVH9fQGToBmbaBkWUsXaV6sC59yTg5fettN4Qhunzx7JHBsfec/CR9J7Rl
kaoxU9aQDzHSoPXza1XeWfUfvUc2Hgaj6jAXc0NdNuo/ooyBEIWudNf3VMpsDRct
Hg2LDVyx3VFAJxzKxA08kVIsTr/XUiQ1BeXOdXfYeMa1C1IzrI4D1QyMZVPll87Z
eg10wjNVNa1H+eeElfkv35Kimtb5R2VNaSdbOeDecUiZYFsCAwEAAaOBojCBnzAJ
BgNVHRMEAjAAMB0GA1UdDgQWBBQQB44um2G8ZqX1B3zW3rPfR6OzdTBRBgNVHSME
SjBIgBQOEfwKv0ycKM4PypO7Gpyh9oszYqEapBgwFjEUMBIGA1UEAwwLdGVhbTYx
Ny1uZXSCFDpJ7Bzy+iqkD52rgLYYyIqZ6nkOMBMGA1UdJQQMMAoGCCsGAQUFBwMC
MAsGA1UdDwQEAwIHgDANBgkqhkiG9w0BAQsFAAOCAQEASZm2++MLsFghRMNeYH/5
ONzXbls3pcjhYDW6l3g7HQpYw911SOlLR0+th8nbgoZvvPvJM8fwNvW49Qge/2BM
EqMkTNXRkAe3d4rXpotRBL3JHR4jKCiump4UQKHjoO/EhuFvOpA3AT567ZNoj0Jg
jIFGdHLaq0u812FzYN3TwphZP5GWyBfeb2Bi5JWnifs+d1F68aE2umBEdpPZg+tK
i9rqHJwnRObPy9Y3JzCObFFudtQK0LPTUcV5V1rsg0qmQNVC/NXNqD56aYSqBdva
o7+q49BjnZS8Oc4G5ORuRm4UiqQJlJqXeDSq6Tph7cX9m80b60A+clN2QvkLr6YR
6A==
-----END CERTIFICATE-----
