Certificate:
    Data:
        Version: 3 (0x2)
        Serial Number:
            51:b1:cf:6e:31:b2:37:58:5d:d9:2b:33:90:11:65:90
        Signature Algorithm: sha256WithRSAEncryption
        Issuer: CN=team341-net
        Validity
            Not Before: Sep 13 01:53:10 2021 GMT
            Not After : Aug 28 01:53:10 2024 GMT
        Subject: CN=team341-client
        Subject Public Key Info:
            Public Key Algorithm: rsaEncryption
                RSA Public-Key: (2048 bit)
                Modulus:
                    00:c2:ff:54:ef:45:a8:b3:bf:58:1a:1d:f5:35:d4:
                    b2:03:ba:ff:4f:d8:f6:d6:f2:8f:28:fe:7a:55:5f:
                    cc:38:4b:00:0c:97:e6:60:22:25:a3:5a:48:47:71:
                    8b:fd:77:47:19:64:39:2c:f9:f4:e5:60:fb:a4:78:
                    89:58:71:db:2c:ab:1f:e9:cc:db:8f:8f:e6:06:fa:
                    5e:30:bd:ad:f0:f2:43:d2:4d:31:e4:57:69:df:f2:
                    d4:d3:d4:2d:1b:89:1f:c6:5e:a5:31:3f:89:be:be:
                    49:d0:0e:d1:23:52:cb:4c:64:0d:1d:72:3d:82:97:
                    04:48:71:38:ec:7d:8f:c8:ea:eb:2b:52:af:74:f5:
                    cc:cb:c4:0f:0d:89:9f:34:f7:41:8c:02:dc:c2:f6:
                    68:7e:af:6a:79:fb:4e:76:60:ca:27:ea:6c:48:5a:
                    b1:5c:ed:64:76:08:d0:a6:f9:fe:69:b0:9b:3d:71:
                    cf:2e:d9:c1:66:28:c1:33:c0:e9:ab:e9:c0:92:ca:
                    13:85:85:5e:a6:e3:01:e6:8f:0d:58:cc:92:94:a8:
                    f6:38:2f:8c:e9:15:fd:31:bb:38:20:0b:75:6f:9d:
                    e7:5f:a0:47:c2:84:65:dc:18:3a:d8:af:db:f6:2c:
                    44:fa:47:74:d1:ac:2e:ed:7f:69:b4:75:a8:8b:c6:
                    be:47
                Exponent: 65537 (0x10001)
        X509v3 extensions:
            X509v3 Basic Constraints: 
                CA:FALSE
            X509v3 Subject Key Identifier: 
                AF:5D:63:17:CE:83:12:B1:B0:46:4B:FD:4C:1C:EC:91:F1:F0:7B:5C
            X509v3 Authority Key Identifier: 
                keyid:AC:69:B9:A2:43:0B:63:CA:A1:90:72:78:B1:2F:F3:A4:94:F2:56:AE
                DirName:/CN=team341-net
                serial:6D:83:47:38:5B:76:74:1B:BD:0C:DE:8F:4C:A8:B1:18:6F:E8:DE:B9

            X509v3 Extended Key Usage: 
                TLS Web Client Authentication
            X509v3 Key Usage: 
                Digital Signature
    Signature Algorithm: sha256WithRSAEncryption
         c3:97:fb:da:7b:8e:c2:aa:f5:60:9c:c5:5f:5e:e2:83:0f:6e:
         e3:8f:d4:75:3d:c4:aa:5a:8f:f5:b7:63:84:91:b4:28:be:07:
         d5:83:ea:63:3b:2a:04:1c:d7:24:bb:c7:f2:d7:11:d3:d4:ef:
         da:3f:82:50:60:d5:37:87:3f:db:10:95:24:e4:54:4d:02:d1:
         e0:99:00:5f:5a:b7:aa:f9:4f:1a:7c:f6:8f:1f:5d:24:4f:d2:
         4f:0d:b6:1f:4c:65:87:8c:b8:09:ae:86:ee:a7:04:ad:bd:55:
         c2:2f:d6:60:ac:fa:bb:86:77:23:36:fe:32:53:26:f6:9b:f9:
         56:92:bc:09:83:1e:58:49:26:22:cb:aa:b9:96:08:f4:1a:11:
         82:f1:a1:32:d1:56:95:ec:f3:68:1c:ff:0b:11:c9:79:ea:27:
         72:56:2d:87:3e:e0:d5:62:fe:d2:45:5d:e4:b7:6b:22:cb:aa:
         52:09:19:2b:48:f2:d2:9e:6e:77:53:17:45:44:d8:cd:c6:c7:
         ef:7a:84:1b:df:ce:d8:b8:b6:24:e7:1a:5a:4a:d3:af:55:de:
         db:97:03:78:9b:a4:bb:5c:91:69:29:e1:a0:bf:3e:71:df:16:
         27:37:a3:3a:10:a0:49:aa:f4:ce:3e:02:4e:b0:7b:23:e8:06:
         e4:f5:f6:10
-----BEGIN CERTIFICATE-----
MIIDXDCCAkSgAwIBAgIQUbHPbjGyN1hd2SszkBFlkDANBgkqhkiG9w0BAQsFADAW
MRQwEgYDVQQDDAt0ZWFtMzQxLW5ldDAeFw0yMTA5MTMwMTUzMTBaFw0yNDA4Mjgw
MTUzMTBaMBkxFzAVBgNVBAMMDnRlYW0zNDEtY2xpZW50MIIBIjANBgkqhkiG9w0B
AQEFAAOCAQ8AMIIBCgKCAQEAwv9U70Wos79YGh31NdSyA7r/T9j21vKPKP56VV/M
OEsADJfmYCIlo1pIR3GL/XdHGWQ5LPn05WD7pHiJWHHbLKsf6czbj4/mBvpeML2t
8PJD0k0x5Fdp3/LU09QtG4kfxl6lMT+Jvr5J0A7RI1LLTGQNHXI9gpcESHE47H2P
yOrrK1KvdPXMy8QPDYmfNPdBjALcwvZofq9qeftOdmDKJ+psSFqxXO1kdgjQpvn+
abCbPXHPLtnBZijBM8Dpq+nAksoThYVepuMB5o8NWMySlKj2OC+M6RX9Mbs4IAt1
b53nX6BHwoRl3Bg62K/b9ixE+kd00awu7X9ptHWoi8a+RwIDAQABo4GiMIGfMAkG
A1UdEwQCMAAwHQYDVR0OBBYEFK9dYxfOgxKxsEZL/Uwc7JHx8HtcMFEGA1UdIwRK
MEiAFKxpuaJDC2PKoZByeLEv86SU8lauoRqkGDAWMRQwEgYDVQQDDAt0ZWFtMzQx
LW5ldIIUbYNHOFt2dBu9DN6PTKixGG/o3rkwEwYDVR0lBAwwCgYIKwYBBQUHAwIw
CwYDVR0PBAQDAgeAMA0GCSqGSIb3DQEBCwUAA4IBAQDDl/vae47CqvVgnMVfXuKD
D27jj9R1PcSqWo/1t2OEkbQovgfVg+pjOyoEHNcku8fy1xHT1O/aP4JQYNU3hz/b
EJUk5FRNAtHgmQBfWreq+U8afPaPH10kT9JPDbYfTGWHjLgJrobupwStvVXCL9Zg
rPq7hncjNv4yUyb2m/lWkrwJgx5YSSYiy6q5lgj0GhGC8aEy0VaV7PNoHP8LEcl5
6idyVi2HPuDVYv7SRV3kt2siy6pSCRkrSPLSnm53UxdFRNjNxsfveoQb387YuLYk
5xpaStOvVd7blwN4m6S7XJFpKeGgvz5x3xYnN6M6EKBJqvTOPgJOsHsj6Abk9fYQ
-----END CERTIFICATE-----
