Certificate:
    Data:
        Version: 3 (0x2)
        Serial Number:
            f7:54:25:6d:8a:fd:67:0d:5f:4f:c2:5b:58:0f:91:41
        Signature Algorithm: sha256WithRSAEncryption
        Issuer: CN=team332-net
        Validity
            Not Before: Sep 13 01:45:29 2021 GMT
            Not After : Aug 28 01:45:29 2024 GMT
        Subject: CN=team332-server
        Subject Public Key Info:
            Public Key Algorithm: rsaEncryption
                RSA Public-Key: (2048 bit)
                Modulus:
                    00:c5:6d:5e:60:7f:9a:3d:50:26:dd:b0:0c:4a:9a:
                    30:ec:8e:41:93:06:a1:55:92:cd:72:24:57:9c:d6:
                    61:6d:37:7f:a3:33:6d:7b:58:2e:3d:7b:d5:10:81:
                    af:6c:7d:db:20:88:55:54:6c:ba:e9:53:c5:2f:a6:
                    84:8f:c8:b9:d7:c7:0b:d9:8d:9e:54:4f:3b:62:19:
                    c1:7a:41:c1:35:40:12:a8:a1:07:ff:de:fc:f8:7b:
                    71:2d:bd:f7:45:90:f5:61:9e:ae:7b:7e:22:35:99:
                    78:a8:79:6b:1f:1f:3b:c1:b6:27:52:28:8f:ae:ba:
                    85:b0:8f:e1:59:e0:a4:a8:4d:5e:e9:68:e5:65:7d:
                    9d:59:d7:f8:cb:2b:47:ab:0d:ae:68:1b:43:7f:18:
                    97:8d:ed:24:3e:b8:dd:fe:2a:5e:de:e6:f1:47:3b:
                    9b:d9:6f:fe:db:38:44:97:b2:7e:09:02:3e:a1:67:
                    93:93:d1:45:a5:0e:3b:1c:ef:a6:3c:f3:3f:69:02:
                    ee:47:b7:e0:54:51:85:d6:f0:eb:66:42:e9:36:c0:
                    e0:3a:ac:27:a1:86:94:5c:e9:2b:7d:6d:b8:dd:a4:
                    d8:06:c1:4a:fc:90:6a:50:24:e9:68:d6:33:bc:dc:
                    42:97:4c:8a:9b:73:ee:5f:0d:6f:16:b3:f8:2c:e0:
                    90:ed
                Exponent: 65537 (0x10001)
        X509v3 extensions:
            X509v3 Basic Constraints: 
                CA:FALSE
            X509v3 Subject Key Identifier: 
                39:53:FB:5A:CB:7F:B1:A4:87:83:CF:F4:04:64:B2:16:3A:A7:93:B0
            X509v3 Authority Key Identifier: 
                keyid:20:23:F2:B0:C1:D8:40:2D:4C:F4:3C:6D:17:24:23:51:BD:15:24:BA
                DirName:/CN=team332-net
                serial:57:F0:2D:58:E9:15:C8:31:B3:F1:9B:95:53:21:81:F3:2B:54:29:7A

            X509v3 Extended Key Usage: 
                TLS Web Server Authentication
            X509v3 Key Usage: 
                Digital Signature, Key Encipherment
            X509v3 Subject Alternative Name: 
                DNS:team332-server
    Signature Algorithm: sha256WithRSAEncryption
         a3:ac:7a:51:98:9a:17:e3:46:f0:c3:da:f1:d7:9d:9a:19:08:
         8f:3f:25:2e:f1:20:ab:30:4f:58:92:8f:ba:b5:10:6a:aa:25:
         1e:c5:13:63:86:d5:3f:0d:8b:3a:2b:37:7b:75:1f:df:1f:ea:
         8c:f9:55:ec:39:0c:d6:a5:bd:5c:e0:81:98:2d:e9:9d:c2:94:
         39:fe:81:dd:37:18:8c:4a:d6:ad:61:22:60:42:eb:16:66:b1:
         79:61:6b:5d:46:ad:02:b8:b1:a0:8f:c4:a0:d9:c7:ea:77:f1:
         4e:0d:5e:e2:9a:75:e2:f5:07:89:79:ae:e7:26:cf:06:28:6f:
         a7:49:51:e2:eb:30:f3:c4:df:13:99:fd:79:e2:42:36:73:86:
         80:c6:95:d6:5a:3a:c6:e4:f2:f5:e6:88:bb:ec:e9:28:27:c5:
         04:b2:1b:ef:58:86:e2:e0:65:a1:61:b0:69:0b:4c:f2:d9:d9:
         b6:54:d0:59:b5:6f:a5:b5:99:c3:de:6d:64:f0:26:9d:1f:33:
         a5:b4:4c:21:33:07:32:42:82:3c:de:1d:8e:e2:e2:72:da:43:
         a8:6b:45:e2:f1:d2:18:49:e2:a6:69:a4:fb:d5:43:60:b4:f6:
         15:92:5c:38:11:11:95:67:16:72:2c:97:7d:3d:d9:32:d3:42:
         73:1f:09:b0
-----BEGIN CERTIFICATE-----
MIIDeDCCAmCgAwIBAgIRAPdUJW2K/WcNX0/CW1gPkUEwDQYJKoZIhvcNAQELBQAw
FjEUMBIGA1UEAwwLdGVhbTMzMi1uZXQwHhcNMjEwOTEzMDE0NTI5WhcNMjQwODI4
MDE0NTI5WjAZMRcwFQYDVQQDDA50ZWFtMzMyLXNlcnZlcjCCASIwDQYJKoZIhvcN
AQEBBQADggEPADCCAQoCggEBAMVtXmB/mj1QJt2wDEqaMOyOQZMGoVWSzXIkV5zW
YW03f6MzbXtYLj171RCBr2x92yCIVVRsuulTxS+mhI/IudfHC9mNnlRPO2IZwXpB
wTVAEqihB//e/Ph7cS2990WQ9WGernt+IjWZeKh5ax8fO8G2J1Ioj666hbCP4Vng
pKhNXulo5WV9nVnX+MsrR6sNrmgbQ38Yl43tJD643f4qXt7m8Uc7m9lv/ts4RJey
fgkCPqFnk5PRRaUOOxzvpjzzP2kC7ke34FRRhdbw62ZC6TbA4DqsJ6GGlFzpK31t
uN2k2AbBSvyQalAk6WjWM7zcQpdMiptz7l8Nbxaz+CzgkO0CAwEAAaOBvTCBujAJ
BgNVHRMEAjAAMB0GA1UdDgQWBBQ5U/tay3+xpIeDz/QEZLIWOqeTsDBRBgNVHSME
SjBIgBQgI/KwwdhALUz0PG0XJCNRvRUkuqEapBgwFjEUMBIGA1UEAwwLdGVhbTMz
Mi1uZXSCFFfwLVjpFcgxs/GblVMhgfMrVCl6MBMGA1UdJQQMMAoGCCsGAQUFBwMB
MAsGA1UdDwQEAwIFoDAZBgNVHREEEjAQgg50ZWFtMzMyLXNlcnZlcjANBgkqhkiG
9w0BAQsFAAOCAQEAo6x6UZiaF+NG8MPa8dedmhkIjz8lLvEgqzBPWJKPurUQaqol
HsUTY4bVPw2LOis3e3Uf3x/qjPlV7DkM1qW9XOCBmC3pncKUOf6B3TcYjErWrWEi
YELrFmaxeWFrXUatArixoI/EoNnH6nfxTg1e4pp14vUHiXmu5ybPBihvp0lR4usw
88TfE5n9eeJCNnOGgMaV1lo6xuTy9eaIu+zpKCfFBLIb71iG4uBloWGwaQtM8tnZ
tlTQWbVvpbWZw95tZPAmnR8zpbRMITMHMkKCPN4djuLictpDqGtF4vHSGEnipmmk
+9VDYLT2FZJcOBERlWcWciyXfT3ZMtNCcx8JsA==
-----END CERTIFICATE-----
