Certificate:
    Data:
        Version: 3 (0x2)
        Serial Number:
            bd:5c:43:67:f4:02:40:21:0c:86:98:ee:e4:e2:30:f9
        Signature Algorithm: sha256WithRSAEncryption
        Issuer: CN=team685-net
        Validity
            Not Before: Sep 13 05:11:33 2021 GMT
            Not After : Aug 28 05:11:33 2024 GMT
        Subject: CN=team685-client
        Subject Public Key Info:
            Public Key Algorithm: rsaEncryption
                RSA Public-Key: (2048 bit)
                Modulus:
                    00:c1:7b:89:95:2c:99:5c:a1:7e:ce:3c:42:6e:4e:
                    72:bd:66:a6:b6:9b:36:a4:c3:2c:46:22:66:97:37:
                    70:c8:8e:a2:62:71:d2:15:d6:b8:79:e5:0f:2b:0b:
                    e9:3a:9c:0e:54:ab:93:97:8b:af:e9:ab:2e:f6:9f:
                    c8:23:59:6e:45:c4:0d:61:68:82:a5:0e:50:74:9d:
                    73:36:dc:3d:6b:f9:a8:26:e5:86:4c:e0:e2:ac:e4:
                    4b:ea:4c:62:8b:84:3f:b7:a7:4d:d6:e1:ea:5e:6b:
                    5e:07:4c:4e:9e:f5:64:d7:ad:7b:5b:4d:c7:9a:7d:
                    75:7f:24:e5:31:cc:77:5f:7e:38:66:14:a2:3a:61:
                    da:be:21:4b:a1:1f:2f:4f:f9:2e:a1:a5:79:40:5b:
                    8b:45:ce:c9:e6:6e:0c:15:58:c9:46:2a:87:51:6c:
                    d4:03:bf:a3:0d:01:ef:86:19:1a:2f:08:a3:a0:08:
                    c9:8e:93:04:10:42:ee:98:aa:d2:3b:3f:b1:23:1d:
                    7c:ec:c2:43:8d:6a:a0:28:90:66:12:e1:8b:0a:fe:
                    c1:81:85:0d:4f:5e:43:37:77:d6:f6:e1:67:d4:d4:
                    0b:a0:03:bb:99:b5:1b:76:2f:64:45:e2:c7:d1:23:
                    5e:60:92:1d:0e:93:90:3f:48:9a:8c:aa:28:43:91:
                    04:45
                Exponent: 65537 (0x10001)
        X509v3 extensions:
            X509v3 Basic Constraints: 
                CA:FALSE
            X509v3 Subject Key Identifier: 
                4F:11:40:11:0B:26:A7:12:1F:1E:8C:96:76:FB:5E:C2:D5:4A:26:38
            X509v3 Authority Key Identifier: 
                keyid:70:CF:B5:CB:6F:6F:CC:BB:8E:8A:0A:14:E3:A4:91:EF:B0:2D:A6:89
                DirName:/CN=team685-net
                serial:20:0A:C9:9A:30:B3:B1:3C:AA:39:E8:B3:70:39:E6:8C:E0:8C:AD:81

            X509v3 Extended Key Usage: 
                TLS Web Client Authentication
            X509v3 Key Usage: 
                Digital Signature
    Signature Algorithm: sha256WithRSAEncryption
         06:83:d6:a9:f8:b9:33:41:c2:0d:22:c6:3d:3d:3a:97:1f:e9:
         1a:38:55:b7:19:f7:30:83:d0:b7:c9:8d:2b:27:7d:c6:67:32:
         69:7d:6f:5a:6b:58:18:1a:97:03:d7:a3:a1:d0:f1:a8:7f:db:
         d2:8d:9e:18:cd:97:a1:a6:e6:0f:ea:e4:73:03:29:e9:75:b2:
         d3:8d:51:9b:18:c6:1a:59:b2:c1:07:fa:b3:fd:b0:5c:aa:4d:
         33:94:28:65:b8:14:47:29:a0:ef:d5:5f:83:a5:66:a5:a9:c6:
         58:6d:94:3e:50:c3:55:3e:7e:15:3b:bf:d0:eb:0b:06:2b:fa:
         5f:4b:22:05:db:b6:fd:36:04:a1:ea:00:1f:3c:57:1d:d0:38:
         3a:4e:0b:1a:f6:e1:69:8c:f2:5e:52:2e:ab:44:8c:e3:da:43:
         9d:19:3f:e7:29:7b:3b:cf:58:d1:de:ae:72:31:58:95:fb:53:
         50:dc:bf:1e:1f:49:eb:b9:df:86:fc:f3:66:5c:3f:4b:95:4f:
         ef:f7:92:7f:cb:e7:4b:c9:68:fc:e3:53:11:f4:a3:f7:ac:2b:
         d9:27:80:5f:f1:a4:c2:45:87:f7:9e:93:6e:e8:23:1b:df:17:
         9a:cd:25:11:13:21:e5:c6:1c:25:de:45:6b:6b:94:44:0e:08:
         9e:20:81:eb
-----BEGIN CERTIFICATE-----
MIIDXTCCAkWgAwIBAgIRAL1cQ2f0AkAhDIaY7uTiMPkwDQYJKoZIhvcNAQELBQAw
FjEUMBIGA1UEAwwLdGVhbTY4NS1uZXQwHhcNMjEwOTEzMDUxMTMzWhcNMjQwODI4
MDUxMTMzWjAZMRcwFQYDVQQDDA50ZWFtNjg1LWNsaWVudDCCASIwDQYJKoZIhvcN
AQEBBQADggEPADCCAQoCggEBAMF7iZUsmVyhfs48Qm5Ocr1mprabNqTDLEYiZpc3
cMiOomJx0hXWuHnlDysL6TqcDlSrk5eLr+mrLvafyCNZbkXEDWFogqUOUHSdczbc
PWv5qCblhkzg4qzkS+pMYouEP7enTdbh6l5rXgdMTp71ZNete1tNx5p9dX8k5THM
d19+OGYUojph2r4hS6EfL0/5LqGleUBbi0XOyeZuDBVYyUYqh1Fs1AO/ow0B74YZ
Gi8Io6AIyY6TBBBC7piq0js/sSMdfOzCQ41qoCiQZhLhiwr+wYGFDU9eQzd31vbh
Z9TUC6ADu5m1G3YvZEXix9EjXmCSHQ6TkD9ImoyqKEORBEUCAwEAAaOBojCBnzAJ
BgNVHRMEAjAAMB0GA1UdDgQWBBRPEUARCyanEh8ejJZ2+17C1UomODBRBgNVHSME
SjBIgBRwz7XLb2/Mu46KChTjpJHvsC2miaEapBgwFjEUMBIGA1UEAwwLdGVhbTY4
NS1uZXSCFCAKyZows7E8qjnos3A55ozgjK2BMBMGA1UdJQQMMAoGCCsGAQUFBwMC
MAsGA1UdDwQEAwIHgDANBgkqhkiG9w0BAQsFAAOCAQEABoPWqfi5M0HCDSLGPT06
lx/pGjhVtxn3MIPQt8mNKyd9xmcyaX1vWmtYGBqXA9ejodDxqH/b0o2eGM2Xoabm
D+rkcwMp6XWy041RmxjGGlmywQf6s/2wXKpNM5QoZbgURymg79Vfg6VmpanGWG2U
PlDDVT5+FTu/0OsLBiv6X0siBdu2/TYEoeoAHzxXHdA4Ok4LGvbhaYzyXlIuq0SM
49pDnRk/5yl7O89Y0d6ucjFYlftTUNy/Hh9J67nfhvzzZlw/S5VP7/eSf8vnS8lo
/ONTEfSj96wr2SeAX/GkwkWH956TbugjG98Xms0lERMh5cYcJd5Fa2uURA4IniCB
6w==
-----END CERTIFICATE-----
