Certificate:
    Data:
        Version: 3 (0x2)
        Serial Number:
            51:8c:57:4d:e2:5c:f7:f0:99:08:69:06:55:6b:40:02
        Signature Algorithm: sha256WithRSAEncryption
        Issuer: CN=team434-net
        Validity
            Not Before: Sep 13 02:34:35 2021 GMT
            Not After : Aug 28 02:34:35 2024 GMT
        Subject: CN=team434-client
        Subject Public Key Info:
            Public Key Algorithm: rsaEncryption
                RSA Public-Key: (2048 bit)
                Modulus:
                    00:ac:69:a6:2d:23:e3:fb:12:71:dd:17:c8:58:da:
                    58:ed:e4:d2:1c:2c:4e:02:ed:e9:42:ab:44:95:b0:
                    86:be:aa:83:dc:51:51:6d:1c:8e:f5:7d:e3:03:aa:
                    e7:a6:42:06:dc:e3:c4:bd:5f:35:b4:f9:00:8d:bd:
                    68:1b:14:dc:84:2a:b7:4c:83:f5:b3:c9:eb:07:69:
                    a4:23:be:cb:8c:30:84:30:a6:ff:57:6f:5f:9a:78:
                    cd:a5:03:99:a6:eb:f1:27:08:d3:f8:90:75:9c:55:
                    cd:84:40:5f:36:96:56:4c:8b:1c:1e:04:00:40:1a:
                    ed:21:6a:b8:19:a7:7f:7c:0c:ae:3f:77:b2:44:52:
                    d7:ca:3a:6e:12:b0:01:ad:01:cf:7c:1e:4c:22:12:
                    4c:33:78:eb:12:15:92:c4:e4:48:7a:f0:ee:13:b0:
                    68:dd:79:6b:c2:71:38:44:62:f7:b3:b8:9e:0e:c9:
                    20:07:19:07:3b:5d:26:c6:76:04:7d:e6:d0:5e:6c:
                    fe:a0:81:df:96:f3:83:b0:80:18:42:80:e2:d9:a1:
                    fc:27:7f:02:8b:48:de:bd:9e:27:28:35:2d:ea:af:
                    f5:fa:e0:96:5e:a7:c7:82:ca:e7:21:24:a6:5e:9e:
                    29:5d:ca:a1:46:3e:eb:e4:ec:91:f4:a6:e3:9a:55:
                    15:ff
                Exponent: 65537 (0x10001)
        X509v3 extensions:
            X509v3 Basic Constraints: 
                CA:FALSE
            X509v3 Subject Key Identifier: 
                3C:CA:A1:26:7E:75:FD:16:D2:B0:9D:A4:D7:D1:5A:01:D0:42:5A:34
            X509v3 Authority Key Identifier: 
                keyid:E4:2E:21:C6:B2:A0:02:49:0D:B6:C7:6F:43:F2:93:A8:C5:DB:A2:A0
                DirName:/CN=team434-net
                serial:54:0C:97:DF:73:A4:EE:10:2D:5F:A6:5D:A4:0C:E8:8E:3C:B6:53:4D

            X509v3 Extended Key Usage: 
                TLS Web Client Authentication
            X509v3 Key Usage: 
                Digital Signature
    Signature Algorithm: sha256WithRSAEncryption
         21:ec:39:5f:86:43:50:0e:16:d6:64:15:18:86:54:7b:6d:c9:
         12:bb:b9:7d:c3:30:81:0a:ae:33:91:27:39:cb:15:27:76:ab:
         53:7b:0d:28:b4:a2:11:75:3f:fd:55:8c:47:3d:1c:5c:b0:dc:
         63:89:53:63:89:b8:68:64:78:4a:3a:84:6d:fc:00:d9:4d:ae:
         66:05:ea:62:0a:2c:2a:c1:dd:27:9f:8f:32:19:f9:21:be:77:
         20:8d:1f:b9:c9:b4:04:2a:7e:79:31:f3:93:e6:c0:e6:5b:8d:
         56:20:4b:fa:f4:eb:47:0c:13:0c:15:25:29:94:02:d8:84:db:
         b8:d6:d6:6c:19:1a:00:9b:d0:be:21:5e:21:df:6c:5f:5f:31:
         42:53:36:ff:52:d6:7c:2a:7d:c4:76:1b:ed:b8:91:45:87:f4:
         f4:15:fb:ec:cd:8c:73:05:20:3e:70:8e:de:5a:83:f9:a8:47:
         12:ec:b1:6a:4b:36:6f:18:b6:88:f5:02:e2:6f:9e:71:d0:65:
         e6:2d:89:84:3b:e5:94:a5:08:16:fd:0a:fc:bf:46:cd:2c:69:
         a3:83:da:fb:e9:50:74:65:76:4c:bf:f0:39:68:f7:95:bd:b6:
         93:7c:b1:b4:20:d5:08:be:87:69:e8:e0:e7:3c:6f:49:a3:7a:
         76:7c:42:a0
-----BEGIN CERTIFICATE-----
MIIDXDCCAkSgAwIBAgIQUYxXTeJc9/CZCGkGVWtAAjANBgkqhkiG9w0BAQsFADAW
MRQwEgYDVQQDDAt0ZWFtNDM0LW5ldDAeFw0yMTA5MTMwMjM0MzVaFw0yNDA4Mjgw
MjM0MzVaMBkxFzAVBgNVBAMMDnRlYW00MzQtY2xpZW50MIIBIjANBgkqhkiG9w0B
AQEFAAOCAQ8AMIIBCgKCAQEArGmmLSPj+xJx3RfIWNpY7eTSHCxOAu3pQqtElbCG
vqqD3FFRbRyO9X3jA6rnpkIG3OPEvV81tPkAjb1oGxTchCq3TIP1s8nrB2mkI77L
jDCEMKb/V29fmnjNpQOZpuvxJwjT+JB1nFXNhEBfNpZWTIscHgQAQBrtIWq4Gad/
fAyuP3eyRFLXyjpuErABrQHPfB5MIhJMM3jrEhWSxORIevDuE7Bo3XlrwnE4RGL3
s7ieDskgBxkHO10mxnYEfebQXmz+oIHflvODsIAYQoDi2aH8J38Ci0jevZ4nKDUt
6q/1+uCWXqfHgsrnISSmXp4pXcqhRj7r5OyR9KbjmlUV/wIDAQABo4GiMIGfMAkG
A1UdEwQCMAAwHQYDVR0OBBYEFDzKoSZ+df0W0rCdpNfRWgHQQlo0MFEGA1UdIwRK
MEiAFOQuIcayoAJJDbbHb0Pyk6jF26KgoRqkGDAWMRQwEgYDVQQDDAt0ZWFtNDM0
LW5ldIIUVAyX33Ok7hAtX6ZdpAzojjy2U00wEwYDVR0lBAwwCgYIKwYBBQUHAwIw
CwYDVR0PBAQDAgeAMA0GCSqGSIb3DQEBCwUAA4IBAQAh7DlfhkNQDhbWZBUYhlR7
bckSu7l9wzCBCq4zkSc5yxUndqtTew0otKIRdT/9VYxHPRxcsNxjiVNjibhoZHhK
OoRt/ADZTa5mBepiCiwqwd0nn48yGfkhvncgjR+5ybQEKn55MfOT5sDmW41WIEv6
9OtHDBMMFSUplALYhNu41tZsGRoAm9C+IV4h32xfXzFCUzb/UtZ8Kn3EdhvtuJFF
h/T0FfvszYxzBSA+cI7eWoP5qEcS7LFqSzZvGLaI9QLib55x0GXmLYmEO+WUpQgW
/Qr8v0bNLGmjg9r76VB0ZXZMv/A5aPeVvbaTfLG0INUIvodp6ODnPG9Jo3p2fEKg
-----END CERTIFICATE-----
