Certificate:
    Data:
        Version: 3 (0x2)
        Serial Number:
            86:25:e5:12:a4:d0:1c:0a:dc:38:f2:92:25:c5:d7:3a
        Signature Algorithm: sha256WithRSAEncryption
        Issuer: CN=team721-net
        Validity
            Not Before: Sep 13 05:34:35 2021 GMT
            Not After : Aug 28 05:34:35 2024 GMT
        Subject: CN=team721-server
        Subject Public Key Info:
            Public Key Algorithm: rsaEncryption
                RSA Public-Key: (2048 bit)
                Modulus:
                    00:d0:79:01:b6:30:78:a0:04:00:21:8a:a5:b1:be:
                    a2:53:97:13:b6:be:3b:6a:60:0d:f6:ae:c3:04:cb:
                    7e:bc:46:31:0a:8d:36:88:27:44:3d:51:a9:4a:1a:
                    f4:3e:b3:2c:81:0d:e4:0c:22:0e:25:26:2a:df:61:
                    2a:a4:e7:f9:b9:6d:1a:d4:67:9f:96:57:cd:0f:e7:
                    44:13:bd:fc:8e:8c:ce:11:45:f4:60:02:2c:8d:41:
                    fd:d0:8a:da:7d:4a:38:a6:20:fd:ef:22:0c:02:77:
                    cf:29:dc:fe:e5:fa:5e:d4:6c:57:05:a3:20:a1:05:
                    0e:d5:46:90:57:e5:0d:e6:5e:5b:20:7d:aa:23:93:
                    58:21:d5:00:7f:03:81:4b:4f:a6:27:62:0c:53:14:
                    67:88:91:0a:f8:de:66:e0:46:44:c9:dd:d0:0e:9d:
                    f7:85:55:12:f3:f3:e2:db:18:2b:15:85:a5:55:a4:
                    61:dd:e9:40:70:28:f6:da:d7:91:70:07:d1:3c:ad:
                    bf:74:c3:16:7a:b8:dc:be:c3:12:17:d9:e5:0d:28:
                    c9:fc:08:30:51:33:79:92:52:ce:e0:91:ef:cc:d5:
                    23:cb:21:98:ba:33:e9:b6:69:0f:52:8b:2b:5d:5c:
                    c9:63:01:7a:12:0f:c5:03:c6:1e:84:c9:74:76:b2:
                    b6:c9
                Exponent: 65537 (0x10001)
        X509v3 extensions:
            X509v3 Basic Constraints: 
                CA:FALSE
            X509v3 Subject Key Identifier: 
                D0:C3:C9:92:66:1B:F8:CA:38:A9:67:83:FC:B2:22:A0:24:13:80:D5
            X509v3 Authority Key Identifier: 
                keyid:59:0B:05:98:90:75:C6:9F:FD:A8:AF:15:83:FD:EF:B1:2D:15:01:FB
                DirName:/CN=team721-net
                serial:04:CE:63:EC:BE:A4:77:2E:FB:21:BE:F9:4C:3B:08:66:51:BE:CE:6A

            X509v3 Extended Key Usage: 
                TLS Web Server Authentication
            X509v3 Key Usage: 
                Digital Signature, Key Encipherment
            X509v3 Subject Alternative Name: 
                DNS:team721-server
    Signature Algorithm: sha256WithRSAEncryption
         b1:12:71:e4:46:65:53:ff:27:c4:55:44:39:5f:46:f2:df:1d:
         a2:e5:85:b1:a9:66:e1:12:d9:f9:24:22:44:e0:9f:8d:2c:5e:
         03:4d:66:9b:7a:c9:bc:db:f8:52:bc:65:de:95:aa:45:fc:e2:
         f7:0f:a9:49:7b:b5:71:ca:be:b4:da:94:e7:90:10:ad:d1:b1:
         a3:a5:97:4b:1f:46:aa:40:fa:2f:29:0f:2e:13:61:3a:fd:17:
         c9:d2:0c:ae:a8:29:06:bd:db:99:32:14:57:fb:8c:21:ac:cc:
         2a:0b:bc:23:47:97:54:3a:51:d7:d7:72:b2:29:7a:02:0c:63:
         3c:87:f9:4f:0d:ed:c8:57:ec:05:fd:3b:f3:01:78:f3:e1:74:
         f1:47:47:27:58:96:a3:74:c7:b6:ff:23:8f:02:e5:db:a2:a1:
         b0:8c:a9:40:bc:8b:df:2d:7f:56:cf:dc:91:53:fb:72:4f:90:
         00:a1:eb:43:6e:34:3d:3a:bf:f0:5b:73:0d:85:c6:39:95:43:
         66:00:a6:27:fe:27:4f:f9:02:74:72:bf:37:a2:73:56:16:8e:
         28:fa:4c:a9:22:75:a8:c2:17:bb:92:95:c8:69:25:ac:1f:c4:
         8c:81:09:bd:e2:ea:7a:ac:ad:aa:91:3d:5b:ab:40:ba:90:76:
         da:c2:2b:96
-----BEGIN CERTIFICATE-----
MIIDeDCCAmCgAwIBAgIRAIYl5RKk0BwK3DjykiXF1zowDQYJKoZIhvcNAQELBQAw
FjEUMBIGA1UEAwwLdGVhbTcyMS1uZXQwHhcNMjEwOTEzMDUzNDM1WhcNMjQwODI4
MDUzNDM1WjAZMRcwFQYDVQQDDA50ZWFtNzIxLXNlcnZlcjCCASIwDQYJKoZIhvcN
AQEBBQADggEPADCCAQoCggEBANB5AbYweKAEACGKpbG+olOXE7a+O2pgDfauwwTL
frxGMQqNNognRD1RqUoa9D6zLIEN5AwiDiUmKt9hKqTn+bltGtRnn5ZXzQ/nRBO9
/I6MzhFF9GACLI1B/dCK2n1KOKYg/e8iDAJ3zync/uX6XtRsVwWjIKEFDtVGkFfl
DeZeWyB9qiOTWCHVAH8DgUtPpidiDFMUZ4iRCvjeZuBGRMnd0A6d94VVEvPz4tsY
KxWFpVWkYd3pQHAo9trXkXAH0Tytv3TDFnq43L7DEhfZ5Q0oyfwIMFEzeZJSzuCR
78zVI8shmLoz6bZpD1KLK11cyWMBehIPxQPGHoTJdHaytskCAwEAAaOBvTCBujAJ
BgNVHRMEAjAAMB0GA1UdDgQWBBTQw8mSZhv4yjipZ4P8siKgJBOA1TBRBgNVHSME
SjBIgBRZCwWYkHXGn/2orxWD/e+xLRUB+6EapBgwFjEUMBIGA1UEAwwLdGVhbTcy
MS1uZXSCFATOY+y+pHcu+yG++Uw7CGZRvs5qMBMGA1UdJQQMMAoGCCsGAQUFBwMB
MAsGA1UdDwQEAwIFoDAZBgNVHREEEjAQgg50ZWFtNzIxLXNlcnZlcjANBgkqhkiG
9w0BAQsFAAOCAQEAsRJx5EZlU/8nxFVEOV9G8t8douWFsalm4RLZ+SQiROCfjSxe
A01mm3rJvNv4Urxl3pWqRfzi9w+pSXu1ccq+tNqU55AQrdGxo6WXSx9GqkD6LykP
LhNhOv0XydIMrqgpBr3bmTIUV/uMIazMKgu8I0eXVDpR19dysil6AgxjPIf5Tw3t
yFfsBf078wF48+F08UdHJ1iWo3THtv8jjwLl26KhsIypQLyL3y1/Vs/ckVP7ck+Q
AKHrQ240PTq/8FtzDYXGOZVDZgCmJ/4nT/kCdHK/N6JzVhaOKPpMqSJ1qMIXu5KV
yGklrB/EjIEJveLqeqytqpE9W6tAupB22sIrlg==
-----END CERTIFICATE-----
