Certificate:
    Data:
        Version: 3 (0x2)
        Serial Number:
            73:77:51:37:4f:49:b6:bb:25:25:9e:d5:cc:69:ed:16
        Signature Algorithm: sha256WithRSAEncryption
        Issuer: CN=team521-net
        Validity
            Not Before: Sep 13 03:17:13 2021 GMT
            Not After : Aug 28 03:17:13 2024 GMT
        Subject: CN=team521-client
        Subject Public Key Info:
            Public Key Algorithm: rsaEncryption
                RSA Public-Key: (2048 bit)
                Modulus:
                    00:d4:44:8f:ad:42:b0:76:72:4f:13:ff:13:3e:c5:
                    de:86:74:6d:a6:a6:b0:28:c5:4e:55:f8:1b:d7:1f:
                    45:42:3b:ad:0f:0a:b6:c3:67:f7:07:7f:0e:b7:ff:
                    fa:92:0d:68:63:cf:08:c8:dc:db:4e:2e:d2:65:09:
                    4e:7b:e1:26:e4:34:e3:f5:31:95:92:7e:38:b6:e2:
                    21:ec:9e:ca:c4:0b:cc:a8:7a:71:a3:a9:ab:90:af:
                    42:a4:7e:4f:a2:f3:90:06:f4:9a:08:61:67:43:0c:
                    91:fe:5f:74:6e:0f:3a:66:4a:62:ac:88:6c:9a:70:
                    43:63:02:2a:e5:69:70:48:c5:6c:e6:f6:3b:fc:58:
                    5a:e6:7b:7e:4c:94:fd:4e:27:06:6e:db:0e:96:b8:
                    04:ef:6d:d0:b5:69:17:75:c0:3d:e7:89:76:93:59:
                    c0:8e:18:1c:11:4f:1a:17:ef:ee:65:54:be:e9:ec:
                    8b:4d:b6:7f:2b:b0:92:75:f8:f5:73:c8:50:00:ed:
                    31:cd:ad:7f:6f:af:c0:87:b5:93:9d:1e:26:b3:89:
                    8d:c3:d5:5c:0a:40:cd:de:a2:21:c3:08:2d:4b:fe:
                    6a:cb:a6:00:9d:38:40:aa:ed:29:b3:e7:40:14:fe:
                    81:00:bd:04:92:48:45:52:89:5d:5f:c9:f4:88:71:
                    64:9f
                Exponent: 65537 (0x10001)
        X509v3 extensions:
            X509v3 Basic Constraints: 
                CA:FALSE
            X509v3 Subject Key Identifier: 
                F2:1E:28:C4:58:13:0A:AF:DF:55:9C:EA:D2:E9:D3:9C:6D:09:F1:52
            X509v3 Authority Key Identifier: 
                keyid:FE:C8:90:4E:A5:3D:33:74:44:87:1A:33:29:D9:98:91:57:9F:BC:95
                DirName:/CN=team521-net
                serial:26:9A:7F:C1:69:7A:30:FB:9A:7E:F3:6C:8F:EC:E9:BE:DF:1D:2B:3F

            X509v3 Extended Key Usage: 
                TLS Web Client Authentication
            X509v3 Key Usage: 
                Digital Signature
    Signature Algorithm: sha256WithRSAEncryption
         e0:aa:e0:9d:d9:14:40:27:72:81:82:2c:f0:b7:37:93:91:74:
         19:34:04:d0:ef:a2:c7:8d:8a:15:15:e6:bc:a2:b9:4a:b3:17:
         7e:46:f7:3f:5f:6d:71:4b:72:ed:7b:0f:bc:a8:53:a8:af:9a:
         b1:a5:c6:fd:91:20:7f:23:c2:10:4b:ff:cd:24:bd:b1:d8:c5:
         84:00:b4:ef:76:97:f7:30:52:ed:44:6f:0c:1e:7c:66:8c:86:
         2d:36:33:2e:07:5c:4a:14:ec:b4:fe:da:34:9b:85:6b:3e:af:
         eb:b9:ee:ae:10:68:0e:ab:f5:1e:a0:ce:5a:bc:f2:1d:5b:2b:
         38:21:cf:dc:f6:4c:53:0b:b5:09:32:dd:6f:66:42:ac:fc:37:
         af:2b:6b:3b:de:fa:53:90:8a:06:b0:9e:ba:4a:5b:79:d1:57:
         48:51:47:da:ba:76:4a:eb:0b:1f:81:4d:e9:36:e4:a0:00:81:
         48:6b:a0:27:b3:87:29:3f:21:8f:94:9e:fd:39:af:88:4f:59:
         bd:db:4c:36:6c:19:5c:d6:07:55:cf:ce:d1:81:a5:ac:f5:5d:
         77:e7:e9:1e:b2:f2:ef:78:2b:74:cb:80:59:fa:72:8c:8c:69:
         06:ca:a9:34:91:16:fd:3a:15:e6:09:86:28:55:92:9b:35:1d:
         b5:e7:03:72
-----BEGIN CERTIFICATE-----
MIIDXDCCAkSgAwIBAgIQc3dRN09JtrslJZ7VzGntFjANBgkqhkiG9w0BAQsFADAW
MRQwEgYDVQQDDAt0ZWFtNTIxLW5ldDAeFw0yMTA5MTMwMzE3MTNaFw0yNDA4Mjgw
MzE3MTNaMBkxFzAVBgNVBAMMDnRlYW01MjEtY2xpZW50MIIBIjANBgkqhkiG9w0B
AQEFAAOCAQ8AMIIBCgKCAQEA1ESPrUKwdnJPE/8TPsXehnRtpqawKMVOVfgb1x9F
QjutDwq2w2f3B38Ot//6kg1oY88IyNzbTi7SZQlOe+Em5DTj9TGVkn44tuIh7J7K
xAvMqHpxo6mrkK9CpH5PovOQBvSaCGFnQwyR/l90bg86ZkpirIhsmnBDYwIq5Wlw
SMVs5vY7/Fha5nt+TJT9TicGbtsOlrgE723QtWkXdcA954l2k1nAjhgcEU8aF+/u
ZVS+6eyLTbZ/K7CSdfj1c8hQAO0xza1/b6/Ah7WTnR4ms4mNw9VcCkDN3qIhwwgt
S/5qy6YAnThAqu0ps+dAFP6BAL0EkkhFUoldX8n0iHFknwIDAQABo4GiMIGfMAkG
A1UdEwQCMAAwHQYDVR0OBBYEFPIeKMRYEwqv31Wc6tLp05xtCfFSMFEGA1UdIwRK
MEiAFP7IkE6lPTN0RIcaMynZmJFXn7yVoRqkGDAWMRQwEgYDVQQDDAt0ZWFtNTIx
LW5ldIIUJpp/wWl6MPuafvNsj+zpvt8dKz8wEwYDVR0lBAwwCgYIKwYBBQUHAwIw
CwYDVR0PBAQDAgeAMA0GCSqGSIb3DQEBCwUAA4IBAQDgquCd2RRAJ3KBgizwtzeT
kXQZNATQ76LHjYoVFea8orlKsxd+Rvc/X21xS3Ltew+8qFOor5qxpcb9kSB/I8IQ
S//NJL2x2MWEALTvdpf3MFLtRG8MHnxmjIYtNjMuB1xKFOy0/to0m4VrPq/rue6u
EGgOq/UeoM5avPIdWys4Ic/c9kxTC7UJMt1vZkKs/DevK2s73vpTkIoGsJ66Slt5
0VdIUUfaunZK6wsfgU3pNuSgAIFIa6Ans4cpPyGPlJ79Oa+IT1m920w2bBlc1gdV
z87RgaWs9V135+kesvLveCt0y4BZ+nKMjGkGyqk0kRb9OhXmCYYoVZKbNR215wNy
-----END CERTIFICATE-----
