Certificate:
    Data:
        Version: 3 (0x2)
        Serial Number:
            42:f2:10:89:19:f4:98:10:33:cd:ab:9a:32:c5:c9:b0
        Signature Algorithm: sha256WithRSAEncryption
        Issuer: CN=team128-net
        Validity
            Not Before: Sep 12 23:53:33 2021 GMT
            Not After : Aug 27 23:53:33 2024 GMT
        Subject: CN=team128-client
        Subject Public Key Info:
            Public Key Algorithm: rsaEncryption
                RSA Public-Key: (2048 bit)
                Modulus:
                    00:9b:1a:a9:12:b4:05:1d:e6:a9:47:5c:d8:84:db:
                    52:84:dd:32:a6:c0:26:19:62:7d:6a:78:35:8f:85:
                    4d:75:29:76:b3:ac:07:be:a4:20:b8:71:ff:df:ec:
                    e4:f9:80:6f:3e:2f:d6:66:96:39:9e:46:4d:17:2b:
                    07:7b:50:35:fa:e9:23:0f:fe:d5:7f:4e:63:99:59:
                    36:4e:b0:00:d8:04:c5:13:9a:6f:d7:72:0b:33:d5:
                    f9:8d:8b:ff:c0:ef:e8:af:dc:ed:81:db:79:16:b7:
                    5b:07:e7:77:6a:e5:55:08:bd:f3:ad:d6:0c:2a:31:
                    a7:35:3e:85:ff:bd:63:9b:59:f1:80:1c:0d:ea:17:
                    12:62:f1:a2:32:c4:a8:13:e5:4c:e1:45:49:f5:39:
                    2f:ff:f6:35:2c:ec:36:b3:14:c9:6b:c2:f1:47:f4:
                    f7:1e:21:18:ba:10:72:37:0c:ba:45:4c:b7:09:4b:
                    3f:15:a8:c7:9e:e7:cc:1e:94:0f:08:03:92:b4:b0:
                    db:cc:c6:03:46:bb:95:ea:aa:1e:9c:bb:45:ff:43:
                    10:a5:9c:29:96:bf:6c:00:7a:fd:d1:cb:2d:44:43:
                    af:ef:50:f8:55:32:90:39:db:6b:83:38:be:8f:a2:
                    33:76:d9:b1:a6:f1:38:3a:66:b1:18:f3:8e:30:b5:
                    cb:df
                Exponent: 65537 (0x10001)
        X509v3 extensions:
            X509v3 Basic Constraints: 
                CA:FALSE
            X509v3 Subject Key Identifier: 
                AB:98:FC:6A:8C:EA:D6:E8:B2:9E:B7:2C:75:32:28:DF:7C:C7:39:28
            X509v3 Authority Key Identifier: 
                keyid:4F:11:AF:FC:30:48:C0:7C:CB:77:B0:57:33:F3:05:57:F7:77:29:89
                DirName:/CN=team128-net
                serial:48:60:B9:78:0F:09:DC:8B:55:75:89:1C:61:F1:5E:0E:B4:CD:E2:69

            X509v3 Extended Key Usage: 
                TLS Web Client Authentication
            X509v3 Key Usage: 
                Digital Signature
    Signature Algorithm: sha256WithRSAEncryption
         bf:c3:c1:21:b0:bf:c9:3b:d9:c0:32:7d:36:93:42:2f:96:de:
         f2:46:d1:28:8e:ec:b5:2a:21:fc:68:92:55:41:70:c5:8c:eb:
         9d:ed:32:c4:f7:33:d5:2f:0d:63:51:4e:b3:73:21:9b:7e:9b:
         1c:86:4a:9c:00:99:15:56:26:5c:c7:28:af:9b:25:87:2d:61:
         1c:f2:84:46:de:77:b9:f3:be:ea:4b:be:1a:7f:3f:03:a6:2c:
         8b:42:af:ae:3d:fd:1a:cc:85:b0:51:97:24:8b:30:ea:a8:3b:
         0d:4f:e8:1f:f9:8d:95:1f:fe:6e:ec:25:67:e7:b9:52:08:70:
         56:ff:f4:20:ab:96:b5:d7:00:bc:11:d4:2b:5f:e6:93:aa:7f:
         9d:91:a9:e1:3c:b0:be:9e:6a:f9:f6:84:00:23:47:6c:71:97:
         4e:82:c1:2f:f0:0a:81:81:32:11:a5:2a:69:df:b3:1c:3e:43:
         78:56:67:fe:fa:cd:04:ce:84:84:d4:b3:87:35:b8:77:7d:f5:
         fb:f5:1b:91:25:01:58:b8:ee:09:60:c1:ac:e0:78:cb:5d:09:
         e2:70:4d:0b:9b:cf:32:0f:1a:4b:51:4c:3a:50:e6:64:02:5d:
         c4:ea:a3:bb:ac:fd:23:4f:ea:19:de:9b:52:aa:56:af:18:15:
         09:51:7f:8b
-----BEGIN CERTIFICATE-----
MIIDXDCCAkSgAwIBAgIQQvIQiRn0mBAzzauaMsXJsDANBgkqhkiG9w0BAQsFADAW
MRQwEgYDVQQDDAt0ZWFtMTI4LW5ldDAeFw0yMTA5MTIyMzUzMzNaFw0yNDA4Mjcy
MzUzMzNaMBkxFzAVBgNVBAMMDnRlYW0xMjgtY2xpZW50MIIBIjANBgkqhkiG9w0B
AQEFAAOCAQ8AMIIBCgKCAQEAmxqpErQFHeapR1zYhNtShN0ypsAmGWJ9ang1j4VN
dSl2s6wHvqQguHH/3+zk+YBvPi/WZpY5nkZNFysHe1A1+ukjD/7Vf05jmVk2TrAA
2ATFE5pv13ILM9X5jYv/wO/or9ztgdt5FrdbB+d3auVVCL3zrdYMKjGnNT6F/71j
m1nxgBwN6hcSYvGiMsSoE+VM4UVJ9Tkv//Y1LOw2sxTJa8LxR/T3HiEYuhByNwy6
RUy3CUs/FajHnufMHpQPCAOStLDbzMYDRruV6qoenLtF/0MQpZwplr9sAHr90cst
REOv71D4VTKQOdtrgzi+j6IzdtmxpvE4OmaxGPOOMLXL3wIDAQABo4GiMIGfMAkG
A1UdEwQCMAAwHQYDVR0OBBYEFKuY/GqM6tbosp63LHUyKN98xzkoMFEGA1UdIwRK
MEiAFE8Rr/wwSMB8y3ewVzPzBVf3dymJoRqkGDAWMRQwEgYDVQQDDAt0ZWFtMTI4
LW5ldIIUSGC5eA8J3ItVdYkcYfFeDrTN4mkwEwYDVR0lBAwwCgYIKwYBBQUHAwIw
CwYDVR0PBAQDAgeAMA0GCSqGSIb3DQEBCwUAA4IBAQC/w8EhsL/JO9nAMn02k0Iv
lt7yRtEojuy1KiH8aJJVQXDFjOud7TLE9zPVLw1jUU6zcyGbfpschkqcAJkVViZc
xyivmyWHLWEc8oRG3ne5877qS74afz8DpiyLQq+uPf0azIWwUZckizDqqDsNT+gf
+Y2VH/5u7CVn57lSCHBW//Qgq5a11wC8EdQrX+aTqn+dkanhPLC+nmr59oQAI0ds
cZdOgsEv8AqBgTIRpSpp37McPkN4Vmf++s0EzoSE1LOHNbh3ffX79RuRJQFYuO4J
YMGs4HjLXQnicE0Lm88yDxpLUUw6UOZkAl3E6qO7rP0jT+oZ3ptSqlavGBUJUX+L
-----END CERTIFICATE-----
