Certificate:
    Data:
        Version: 3 (0x2)
        Serial Number:
            da:a0:63:d7:77:e1:62:36:8b:14:02:98:ac:53:42:23
        Signature Algorithm: sha256WithRSAEncryption
        Issuer: CN=team128-net
        Validity
            Not Before: Sep 12 23:53:34 2021 GMT
            Not After : Aug 27 23:53:34 2024 GMT
        Subject: CN=team128-server
        Subject Public Key Info:
            Public Key Algorithm: rsaEncryption
                RSA Public-Key: (2048 bit)
                Modulus:
                    00:97:36:2a:4a:68:e2:4c:e4:1b:e7:68:8d:fa:3d:
                    3a:f1:b9:55:54:84:11:68:9e:9c:e0:9a:d3:73:9e:
                    98:e1:54:14:18:a9:a9:dc:14:82:8d:7f:dd:01:f1:
                    3a:e2:06:08:55:d9:6a:d5:dc:e3:fa:26:a7:db:a7:
                    6a:67:65:ff:64:6b:41:ff:e2:49:de:be:38:3e:3e:
                    e0:69:14:3b:57:14:a8:9c:bd:4c:ea:66:f3:b2:f5:
                    fa:fc:9b:58:56:41:51:cb:19:88:37:90:5e:85:84:
                    97:f5:95:0d:49:96:ab:08:24:8d:2b:36:cb:ef:61:
                    e5:89:5b:7f:4c:b7:d7:4a:fc:82:9c:4a:88:60:9c:
                    37:06:1e:a3:3a:ba:83:59:5e:da:40:27:9e:9d:99:
                    67:24:4e:b2:45:f4:07:79:fd:51:5a:e6:de:2b:e8:
                    43:d2:6f:79:8e:8f:26:53:3b:e5:18:28:28:61:9d:
                    28:e6:5d:a2:0a:39:82:99:ee:4a:9f:f4:80:f1:24:
                    29:37:08:d9:20:37:f2:cc:b0:75:5c:41:4e:a2:f8:
                    29:86:97:b7:89:b1:63:dc:fd:31:94:a3:3d:b3:4a:
                    46:57:60:09:55:62:ed:48:5b:d3:f7:64:c6:52:e0:
                    cd:8c:94:48:5a:11:16:c1:ad:f2:71:00:0a:f2:4e:
                    9d:2b
                Exponent: 65537 (0x10001)
        X509v3 extensions:
            X509v3 Basic Constraints: 
                CA:FALSE
            X509v3 Subject Key Identifier: 
                88:C4:55:E2:74:5F:05:8D:45:02:45:EF:86:57:C9:40:FC:FD:67:96
            X509v3 Authority Key Identifier: 
                keyid:4F:11:AF:FC:30:48:C0:7C:CB:77:B0:57:33:F3:05:57:F7:77:29:89
                DirName:/CN=team128-net
                serial:48:60:B9:78:0F:09:DC:8B:55:75:89:1C:61:F1:5E:0E:B4:CD:E2:69

            X509v3 Extended Key Usage: 
                TLS Web Server Authentication
            X509v3 Key Usage: 
                Digital Signature, Key Encipherment
            X509v3 Subject Alternative Name: 
                DNS:team128-server
    Signature Algorithm: sha256WithRSAEncryption
         73:24:a0:e1:73:9f:5e:0f:1d:6b:d8:5d:5d:50:95:6b:e4:6a:
         01:71:55:a2:cf:72:4c:68:78:6e:17:d8:75:d4:25:59:23:ce:
         9c:84:32:f8:a1:e1:62:0a:8b:26:70:e6:70:83:d0:74:9f:ef:
         40:0d:d6:01:b9:7e:fa:8a:33:11:bf:4c:6b:fa:5f:ed:c0:bf:
         cb:59:55:5c:6e:dc:19:5b:c5:60:a2:00:26:0e:63:0b:cf:93:
         19:ca:52:36:92:25:a9:a2:57:36:96:25:93:0b:0e:30:41:07:
         37:05:ef:4a:ae:81:a5:f9:6f:30:57:61:26:fa:ab:12:57:31:
         ca:19:61:99:f5:43:0a:8a:50:e4:9d:8c:40:e9:44:80:75:df:
         ab:e3:66:d7:6f:53:1c:98:77:ad:32:81:24:7e:14:eb:5a:4a:
         f0:10:4c:77:5f:9a:80:1a:29:d1:19:ad:e3:05:d7:ae:71:4d:
         1d:ab:f4:5b:4d:d9:71:75:f2:65:86:f8:1f:23:b3:53:0b:12:
         73:85:6b:8a:00:93:df:d2:19:6a:2d:8e:ba:8c:47:af:1f:6f:
         8c:7b:f6:8d:db:62:45:5f:0e:3f:79:89:dc:d9:63:32:e1:67:
         75:95:9b:f2:b9:01:1d:46:53:7c:f9:6d:33:f1:06:59:c9:b3:
         ea:7d:a2:1f
-----BEGIN CERTIFICATE-----
MIIDeDCCAmCgAwIBAgIRANqgY9d34WI2ixQCmKxTQiMwDQYJKoZIhvcNAQELBQAw
FjEUMBIGA1UEAwwLdGVhbTEyOC1uZXQwHhcNMjEwOTEyMjM1MzM0WhcNMjQwODI3
MjM1MzM0WjAZMRcwFQYDVQQDDA50ZWFtMTI4LXNlcnZlcjCCASIwDQYJKoZIhvcN
AQEBBQADggEPADCCAQoCggEBAJc2Kkpo4kzkG+dojfo9OvG5VVSEEWienOCa03Oe
mOFUFBipqdwUgo1/3QHxOuIGCFXZatXc4/omp9unamdl/2RrQf/iSd6+OD4+4GkU
O1cUqJy9TOpm87L1+vybWFZBUcsZiDeQXoWEl/WVDUmWqwgkjSs2y+9h5Ylbf0y3
10r8gpxKiGCcNwYeozq6g1le2kAnnp2ZZyROskX0B3n9UVrm3ivoQ9JveY6PJlM7
5RgoKGGdKOZdogo5gpnuSp/0gPEkKTcI2SA38sywdVxBTqL4KYaXt4mxY9z9MZSj
PbNKRldgCVVi7Uhb0/dkxlLgzYyUSFoRFsGt8nEACvJOnSsCAwEAAaOBvTCBujAJ
BgNVHRMEAjAAMB0GA1UdDgQWBBSIxFXidF8FjUUCRe+GV8lA/P1nljBRBgNVHSME
SjBIgBRPEa/8MEjAfMt3sFcz8wVX93cpiaEapBgwFjEUMBIGA1UEAwwLdGVhbTEy
OC1uZXSCFEhguXgPCdyLVXWJHGHxXg60zeJpMBMGA1UdJQQMMAoGCCsGAQUFBwMB
MAsGA1UdDwQEAwIFoDAZBgNVHREEEjAQgg50ZWFtMTI4LXNlcnZlcjANBgkqhkiG
9w0BAQsFAAOCAQEAcySg4XOfXg8da9hdXVCVa+RqAXFVos9yTGh4bhfYddQlWSPO
nIQy+KHhYgqLJnDmcIPQdJ/vQA3WAbl++oozEb9Ma/pf7cC/y1lVXG7cGVvFYKIA
Jg5jC8+TGcpSNpIlqaJXNpYlkwsOMEEHNwXvSq6BpflvMFdhJvqrElcxyhlhmfVD
CopQ5J2MQOlEgHXfq+Nm129THJh3rTKBJH4U61pK8BBMd1+agBop0Rmt4wXXrnFN
Hav0W03ZcXXyZYb4HyOzUwsSc4VrigCT39IZai2OuoxHrx9vjHv2jdtiRV8OP3mJ
3NljMuFndZWb8rkBHUZTfPltM/EGWcmz6n2iHw==
-----END CERTIFICATE-----
