Certificate:
    Data:
        Version: 3 (0x2)
        Serial Number:
            8f:78:b6:3e:b1:5a:7f:de:24:3c:9e:28:01:1f:f1:09
        Signature Algorithm: sha256WithRSAEncryption
        Issuer: CN=team235-net
        Validity
            Not Before: Sep 13 00:43:12 2021 GMT
            Not After : Aug 28 00:43:12 2024 GMT
        Subject: CN=team235-server
        Subject Public Key Info:
            Public Key Algorithm: rsaEncryption
                RSA Public-Key: (2048 bit)
                Modulus:
                    00:c1:d0:24:b6:fa:87:a5:65:66:5d:b8:7e:ff:7c:
                    ef:3f:6c:55:ac:93:2d:d2:95:69:92:aa:95:75:bb:
                    80:d6:1a:85:7b:a7:79:d3:1d:d3:57:48:46:8e:ee:
                    27:36:fa:85:9b:92:d2:6b:e3:f4:15:21:47:04:1e:
                    43:1e:d3:e1:63:0c:59:87:a5:4d:5f:f8:0c:85:7b:
                    2f:aa:54:54:a6:32:8a:31:73:25:29:be:c3:04:4c:
                    a0:b9:fd:54:44:65:0f:8f:17:88:3e:c3:12:e8:d3:
                    48:b9:61:2f:aa:95:07:a4:89:1a:76:2d:1a:ad:f7:
                    c1:44:1e:a1:02:33:14:09:83:58:1a:1d:2e:9f:de:
                    d9:89:92:78:d3:69:4a:a8:42:b4:34:68:07:91:14:
                    b4:4d:16:4a:b6:30:73:76:ed:51:7d:47:de:7a:f1:
                    f0:d4:ec:ea:c6:0b:2a:f2:d8:81:a6:54:ce:95:c5:
                    af:dd:b7:a9:35:12:e6:b6:8e:66:dc:50:ed:7f:85:
                    40:69:ae:9d:a0:9d:12:37:e5:92:fa:5c:1b:19:12:
                    51:da:a1:6d:14:22:a7:df:00:bc:2e:f2:d3:95:f3:
                    1d:26:10:e8:7a:2a:74:70:f1:6f:48:6a:f3:3e:c4:
                    3d:eb:dc:22:75:ec:67:2a:72:91:95:e0:77:fc:68:
                    81:5b
                Exponent: 65537 (0x10001)
        X509v3 extensions:
            X509v3 Basic Constraints: 
                CA:FALSE
            X509v3 Subject Key Identifier: 
                07:D0:87:56:92:BD:E0:C3:5E:22:23:9C:0D:EA:3B:88:BB:C3:ED:8F
            X509v3 Authority Key Identifier: 
                keyid:D5:18:A2:D2:65:DF:5B:58:55:F1:9B:C1:1F:EB:B9:49:4E:EB:B0:9E
                DirName:/CN=team235-net
                serial:56:C2:3B:AD:CD:C7:22:9D:4C:D9:8F:22:DF:92:8C:1B:11:9B:E9:B7

            X509v3 Extended Key Usage: 
                TLS Web Server Authentication
            X509v3 Key Usage: 
                Digital Signature, Key Encipherment
            X509v3 Subject Alternative Name: 
                DNS:team235-server
    Signature Algorithm: sha256WithRSAEncryption
         55:70:ad:57:f3:8e:29:15:2b:1c:f8:1f:74:99:e2:2e:3b:f9:
         b5:e2:66:ec:70:07:34:b2:34:09:88:00:6a:b8:d2:72:9d:b4:
         b3:b3:a6:8d:aa:25:43:85:94:6f:bf:2c:09:2f:38:72:79:b3:
         11:53:4a:2f:34:61:91:1c:f9:fe:51:6d:d6:34:c9:64:57:61:
         f1:e9:0a:a1:4d:60:91:3c:62:7c:87:e2:6e:75:82:81:bf:36:
         7f:f7:7b:da:28:60:d3:a7:4c:3b:a8:e8:29:5d:0d:64:a3:af:
         65:9c:60:2c:6d:38:4d:43:fe:3d:cd:cd:ba:c2:39:7d:97:f6:
         8d:3e:a4:13:ae:59:c7:09:05:19:59:97:6e:27:19:ca:4c:23:
         9c:60:ac:9c:34:7b:b9:14:05:82:4b:cb:56:42:3c:a5:da:ee:
         49:76:9d:e5:a2:c7:3b:d6:96:d7:ed:5b:9c:d9:b3:db:fd:43:
         48:db:ab:25:0b:de:17:4b:3d:67:ee:31:eb:48:0b:6e:73:f5:
         e2:92:41:ec:83:9f:1c:26:da:2f:13:16:02:3f:57:8c:1c:8f:
         e4:e5:29:a3:bb:e1:c2:0c:93:70:b0:fc:c6:48:b5:c3:2d:4b:
         54:f8:85:9a:99:15:5f:65:d1:13:dd:fe:d0:bd:c1:e1:e7:70:
         85:33:e4:49
-----BEGIN CERTIFICATE-----
MIIDeDCCAmCgAwIBAgIRAI94tj6xWn/eJDyeKAEf8QkwDQYJKoZIhvcNAQELBQAw
FjEUMBIGA1UEAwwLdGVhbTIzNS1uZXQwHhcNMjEwOTEzMDA0MzEyWhcNMjQwODI4
MDA0MzEyWjAZMRcwFQYDVQQDDA50ZWFtMjM1LXNlcnZlcjCCASIwDQYJKoZIhvcN
AQEBBQADggEPADCCAQoCggEBAMHQJLb6h6VlZl24fv987z9sVayTLdKVaZKqlXW7
gNYahXunedMd01dIRo7uJzb6hZuS0mvj9BUhRwQeQx7T4WMMWYelTV/4DIV7L6pU
VKYyijFzJSm+wwRMoLn9VERlD48XiD7DEujTSLlhL6qVB6SJGnYtGq33wUQeoQIz
FAmDWBodLp/e2YmSeNNpSqhCtDRoB5EUtE0WSrYwc3btUX1H3nrx8NTs6sYLKvLY
gaZUzpXFr923qTUS5raOZtxQ7X+FQGmunaCdEjflkvpcGxkSUdqhbRQip98AvC7y
05XzHSYQ6HoqdHDxb0hq8z7EPevcInXsZypykZXgd/xogVsCAwEAAaOBvTCBujAJ
BgNVHRMEAjAAMB0GA1UdDgQWBBQH0IdWkr3gw14iI5wN6juIu8PtjzBRBgNVHSME
SjBIgBTVGKLSZd9bWFXxm8Ef67lJTuuwnqEapBgwFjEUMBIGA1UEAwwLdGVhbTIz
NS1uZXSCFFbCO63NxyKdTNmPIt+SjBsRm+m3MBMGA1UdJQQMMAoGCCsGAQUFBwMB
MAsGA1UdDwQEAwIFoDAZBgNVHREEEjAQgg50ZWFtMjM1LXNlcnZlcjANBgkqhkiG
9w0BAQsFAAOCAQEAVXCtV/OOKRUrHPgfdJniLjv5teJm7HAHNLI0CYgAarjScp20
s7OmjaolQ4WUb78sCS84cnmzEVNKLzRhkRz5/lFt1jTJZFdh8ekKoU1gkTxifIfi
bnWCgb82f/d72ihg06dMO6joKV0NZKOvZZxgLG04TUP+Pc3NusI5fZf2jT6kE65Z
xwkFGVmXbicZykwjnGCsnDR7uRQFgkvLVkI8pdruSXad5aLHO9aW1+1bnNmz2/1D
SNurJQveF0s9Z+4x60gLbnP14pJB7IOfHCbaLxMWAj9XjByP5OUpo7vhwgyTcLD8
xki1wy1LVPiFmpkVX2XRE93+0L3B4edwhTPkSQ==
-----END CERTIFICATE-----
