Certificate:
    Data:
        Version: 3 (0x2)
        Serial Number:
            7c:d5:b4:00:42:e9:fa:9c:3d:6d:1f:83:d8:50:43:24
        Signature Algorithm: sha256WithRSAEncryption
        Issuer: CN=team313-net
        Validity
            Not Before: Sep 13 01:34:27 2021 GMT
            Not After : Aug 28 01:34:27 2024 GMT
        Subject: CN=team313-client
        Subject Public Key Info:
            Public Key Algorithm: rsaEncryption
                RSA Public-Key: (2048 bit)
                Modulus:
                    00:d1:27:91:af:b6:85:fa:30:10:16:77:31:e2:de:
                    6d:e4:a2:69:35:ec:d3:b2:bd:88:1b:82:db:59:7a:
                    9f:45:be:82:a1:7f:c0:c7:d4:a5:01:c5:1c:a1:29:
                    fd:16:7e:cb:68:5c:7e:93:54:e6:41:09:7d:9d:e3:
                    34:ec:79:fc:84:f8:a4:7f:87:bb:ca:e7:64:5e:25:
                    43:5f:fa:04:9f:8c:c3:a4:4e:e1:53:ea:f3:97:dd:
                    eb:7d:85:77:9c:ce:2d:9f:b9:8e:5f:b6:12:22:76:
                    33:f6:5e:cd:54:20:ec:cd:4f:5c:0b:87:e9:a3:a2:
                    d1:b3:b7:cf:3b:92:ad:a5:95:ef:a0:e3:3a:5f:a8:
                    b8:8f:e9:f8:d1:ae:de:25:0c:c3:1e:f8:69:a5:ae:
                    c8:83:84:19:91:e4:91:eb:c7:ae:ca:46:9b:a7:e9:
                    24:5f:f7:76:36:d9:6b:63:5c:80:c3:de:9a:74:51:
                    be:d4:4d:ba:00:07:1a:58:cf:0b:da:41:23:3c:53:
                    7d:22:fc:98:64:a2:5d:f8:80:d4:1e:e1:71:4f:10:
                    9a:cd:c9:f0:c4:16:d8:96:22:db:36:97:b6:1b:dd:
                    dc:a5:50:3e:04:28:d0:1d:61:b6:cc:1e:c9:a1:22:
                    b9:9f:d7:c5:06:b3:37:ec:13:9a:3f:6d:5e:f5:74:
                    49:05
                Exponent: 65537 (0x10001)
        X509v3 extensions:
            X509v3 Basic Constraints: 
                CA:FALSE
            X509v3 Subject Key Identifier: 
                3C:EB:52:AB:AF:92:83:96:67:D5:E2:2D:12:D2:58:DB:E6:A7:4B:47
            X509v3 Authority Key Identifier: 
                keyid:F8:5E:DA:09:85:3C:82:21:23:39:BD:1C:75:54:D2:AC:60:0B:36:74
                DirName:/CN=team313-net
                serial:65:2B:58:FF:2C:9C:F6:43:69:0D:A6:37:0B:25:5F:55:6C:B3:DD:B0

            X509v3 Extended Key Usage: 
                TLS Web Client Authentication
            X509v3 Key Usage: 
                Digital Signature
    Signature Algorithm: sha256WithRSAEncryption
         d4:f3:ec:4d:24:58:0a:86:61:4d:09:7e:30:10:04:99:3b:53:
         c7:54:c7:5c:93:58:2f:33:38:6b:8d:96:b3:16:9f:7d:2a:3e:
         15:82:c4:66:63:e0:ae:78:32:4c:94:42:6f:84:63:d4:c4:e8:
         9d:b5:7e:44:0a:25:7b:07:62:ed:10:3b:eb:f0:7a:55:cb:9c:
         07:b2:0e:06:69:96:29:33:64:be:0c:18:28:72:ca:88:23:d8:
         c1:db:c5:70:dd:55:45:cb:05:1f:76:6e:b4:2e:5a:a2:4f:a4:
         cc:18:cd:79:3f:82:5f:a3:b7:a2:ba:b5:42:72:82:5a:5c:65:
         55:95:22:ee:f1:42:a6:ce:c8:5a:d8:0f:12:0f:3b:c8:94:8e:
         df:5b:29:6c:8b:78:a3:bb:3e:e8:9e:54:8f:ea:81:03:80:77:
         64:5c:17:f1:0c:cf:d2:6a:e2:ac:9e:29:38:86:1f:14:e6:21:
         3b:72:36:5a:23:fc:7d:9e:98:37:e3:0d:4a:2a:e1:93:43:94:
         c0:da:e2:2d:8b:e3:15:75:71:24:6e:a0:f9:83:1a:8f:37:d8:
         0f:c7:99:0c:c7:85:d4:b9:8c:5b:6b:d7:72:99:dc:fa:a3:13:
         61:a1:8f:ca:53:55:df:ed:ef:09:a8:03:54:aa:9a:0e:ad:6b:
         2c:68:3f:2a
-----BEGIN CERTIFICATE-----
MIIDXDCCAkSgAwIBAgIQfNW0AELp+pw9bR+D2FBDJDANBgkqhkiG9w0BAQsFADAW
MRQwEgYDVQQDDAt0ZWFtMzEzLW5ldDAeFw0yMTA5MTMwMTM0MjdaFw0yNDA4Mjgw
MTM0MjdaMBkxFzAVBgNVBAMMDnRlYW0zMTMtY2xpZW50MIIBIjANBgkqhkiG9w0B
AQEFAAOCAQ8AMIIBCgKCAQEA0SeRr7aF+jAQFncx4t5t5KJpNezTsr2IG4LbWXqf
Rb6CoX/Ax9SlAcUcoSn9Fn7LaFx+k1TmQQl9neM07Hn8hPikf4e7yudkXiVDX/oE
n4zDpE7hU+rzl93rfYV3nM4tn7mOX7YSInYz9l7NVCDszU9cC4fpo6LRs7fPO5Kt
pZXvoOM6X6i4j+n40a7eJQzDHvhppa7Ig4QZkeSR68euykabp+kkX/d2NtlrY1yA
w96adFG+1E26AAcaWM8L2kEjPFN9IvyYZKJd+IDUHuFxTxCazcnwxBbYliLbNpe2
G93cpVA+BCjQHWG2zB7JoSK5n9fFBrM37BOaP21e9XRJBQIDAQABo4GiMIGfMAkG
A1UdEwQCMAAwHQYDVR0OBBYEFDzrUquvkoOWZ9XiLRLSWNvmp0tHMFEGA1UdIwRK
MEiAFPhe2gmFPIIhIzm9HHVU0qxgCzZ0oRqkGDAWMRQwEgYDVQQDDAt0ZWFtMzEz
LW5ldIIUZStY/yyc9kNpDaY3CyVfVWyz3bAwEwYDVR0lBAwwCgYIKwYBBQUHAwIw
CwYDVR0PBAQDAgeAMA0GCSqGSIb3DQEBCwUAA4IBAQDU8+xNJFgKhmFNCX4wEASZ
O1PHVMdck1gvMzhrjZazFp99Kj4VgsRmY+CueDJMlEJvhGPUxOidtX5ECiV7B2Lt
EDvr8HpVy5wHsg4GaZYpM2S+DBgocsqII9jB28Vw3VVFywUfdm60LlqiT6TMGM15
P4Jfo7eiurVCcoJaXGVVlSLu8UKmzsha2A8SDzvIlI7fWylsi3ijuz7onlSP6oED
gHdkXBfxDM/SauKsnik4hh8U5iE7cjZaI/x9npg34w1KKuGTQ5TA2uIti+MVdXEk
bqD5gxqPN9gPx5kMx4XUuYxba9dymdz6oxNhoY/KU1Xf7e8JqANUqpoOrWssaD8q
-----END CERTIFICATE-----
