Certificate:
    Data:
        Version: 3 (0x2)
        Serial Number:
            87:02:6c:7d:89:71:ed:14:d9:b8:d6:ec:5d:44:07:c5
        Signature Algorithm: sha256WithRSAEncryption
        Issuer: CN=team313-net
        Validity
            Not Before: Sep 13 01:34:27 2021 GMT
            Not After : Aug 28 01:34:27 2024 GMT
        Subject: CN=team313-server
        Subject Public Key Info:
            Public Key Algorithm: rsaEncryption
                RSA Public-Key: (2048 bit)
                Modulus:
                    00:c6:49:b4:7d:d5:73:47:4b:67:54:92:ff:ab:b1:
                    ca:fd:d4:82:ff:fd:f7:db:46:ac:75:36:95:7c:f4:
                    48:26:af:30:d6:92:5c:fb:ab:da:1a:2f:3f:80:21:
                    f8:23:1d:89:be:a3:9a:ca:2d:f5:69:db:6c:04:8e:
                    85:9a:be:2b:a4:53:39:3f:69:64:3c:c5:f3:5f:89:
                    85:77:bb:3a:de:54:51:45:6e:a7:ae:b6:3c:88:c1:
                    f1:2b:44:84:bb:7e:8c:d5:d5:78:c6:9d:d8:99:5a:
                    ac:b8:7e:52:c7:84:f0:0f:b3:0f:c5:e9:2f:4d:96:
                    6c:a2:88:4b:3c:f8:cc:46:5c:c2:3d:32:f8:37:db:
                    96:93:e8:56:61:2e:0e:ae:47:24:8b:c7:07:90:5d:
                    08:59:2c:e9:18:a7:99:f0:d2:4c:f0:b0:60:70:fb:
                    23:ef:5d:a5:02:68:32:bc:96:52:d3:1e:3f:c7:14:
                    04:ce:d0:84:f7:87:0c:c7:c2:23:32:aa:41:d0:7d:
                    b0:0e:5e:b9:15:81:15:f2:30:da:85:78:f6:6f:ba:
                    3e:9f:bf:ce:ca:dc:b0:a3:37:17:38:63:2d:da:22:
                    f8:ca:79:df:da:74:35:16:45:c6:f4:ae:f6:4f:33:
                    1d:0e:ef:16:1a:39:c6:c1:c0:81:c7:42:3c:13:cd:
                    c5:c1
                Exponent: 65537 (0x10001)
        X509v3 extensions:
            X509v3 Basic Constraints: 
                CA:FALSE
            X509v3 Subject Key Identifier: 
                CF:51:D1:2B:E3:E6:54:93:04:0E:97:EC:EB:D9:21:AB:44:B0:02:C9
            X509v3 Authority Key Identifier: 
                keyid:F8:5E:DA:09:85:3C:82:21:23:39:BD:1C:75:54:D2:AC:60:0B:36:74
                DirName:/CN=team313-net
                serial:65:2B:58:FF:2C:9C:F6:43:69:0D:A6:37:0B:25:5F:55:6C:B3:DD:B0

            X509v3 Extended Key Usage: 
                TLS Web Server Authentication
            X509v3 Key Usage: 
                Digital Signature, Key Encipherment
            X509v3 Subject Alternative Name: 
                DNS:team313-server
    Signature Algorithm: sha256WithRSAEncryption
         6c:f3:7c:08:eb:dd:9b:04:8b:d4:19:e2:4c:62:52:31:99:0b:
         38:b8:9a:42:1e:47:68:5c:f4:e8:94:69:e2:b1:40:63:cc:68:
         2c:d1:7f:b3:58:83:97:12:4a:25:24:14:f5:b7:d3:29:b4:16:
         27:e2:2c:6a:c5:8f:87:a4:b4:64:a1:5e:4c:40:81:51:7f:3b:
         66:3c:da:1c:da:46:4d:8b:a6:cf:b3:9b:b4:50:01:57:37:9b:
         6e:98:a9:d3:2d:36:2c:f9:09:42:6f:71:4f:c6:81:4c:b8:b7:
         cf:c3:fb:d5:63:2b:5e:44:dd:e9:52:3d:ae:2f:7d:55:a8:00:
         e2:fa:76:5f:59:58:ec:86:9c:b5:4b:d7:23:81:11:af:2b:38:
         e7:ba:25:4b:0f:69:30:77:e0:cb:af:a5:16:d0:1f:3c:a3:14:
         02:4a:f8:2e:bd:23:57:b9:d4:3b:f9:9f:e6:7e:7f:23:8a:1c:
         5b:4e:b0:ed:bc:c6:fe:cc:2e:8f:11:85:ea:c8:85:9a:dc:74:
         b7:17:f4:8c:a6:0f:01:41:5d:7a:b0:5e:f5:05:3a:72:9b:6e:
         c7:67:d6:97:f8:86:6f:2a:21:5d:bc:67:82:6f:52:35:ff:22:
         b5:54:ee:77:4b:3a:b3:90:a2:0b:9e:69:e8:a1:d4:4d:f4:c9:
         64:6e:a6:3c
-----BEGIN CERTIFICATE-----
MIIDeDCCAmCgAwIBAgIRAIcCbH2Jce0U2bjW7F1EB8UwDQYJKoZIhvcNAQELBQAw
FjEUMBIGA1UEAwwLdGVhbTMxMy1uZXQwHhcNMjEwOTEzMDEzNDI3WhcNMjQwODI4
MDEzNDI3WjAZMRcwFQYDVQQDDA50ZWFtMzEzLXNlcnZlcjCCASIwDQYJKoZIhvcN
AQEBBQADggEPADCCAQoCggEBAMZJtH3Vc0dLZ1SS/6uxyv3Ugv/999tGrHU2lXz0
SCavMNaSXPur2hovP4Ah+CMdib6jmsot9WnbbASOhZq+K6RTOT9pZDzF81+JhXe7
Ot5UUUVup662PIjB8StEhLt+jNXVeMad2JlarLh+UseE8A+zD8XpL02WbKKISzz4
zEZcwj0y+DfblpPoVmEuDq5HJIvHB5BdCFks6RinmfDSTPCwYHD7I+9dpQJoMryW
UtMeP8cUBM7QhPeHDMfCIzKqQdB9sA5euRWBFfIw2oV49m+6Pp+/zsrcsKM3Fzhj
Ldoi+Mp539p0NRZFxvSu9k8zHQ7vFho5xsHAgcdCPBPNxcECAwEAAaOBvTCBujAJ
BgNVHRMEAjAAMB0GA1UdDgQWBBTPUdEr4+ZUkwQOl+zr2SGrRLACyTBRBgNVHSME
SjBIgBT4XtoJhTyCISM5vRx1VNKsYAs2dKEapBgwFjEUMBIGA1UEAwwLdGVhbTMx
My1uZXSCFGUrWP8snPZDaQ2mNwslX1Vss92wMBMGA1UdJQQMMAoGCCsGAQUFBwMB
MAsGA1UdDwQEAwIFoDAZBgNVHREEEjAQgg50ZWFtMzEzLXNlcnZlcjANBgkqhkiG
9w0BAQsFAAOCAQEAbPN8COvdmwSL1BniTGJSMZkLOLiaQh5HaFz06JRp4rFAY8xo
LNF/s1iDlxJKJSQU9bfTKbQWJ+IsasWPh6S0ZKFeTECBUX87ZjzaHNpGTYumz7Ob
tFABVzebbpip0y02LPkJQm9xT8aBTLi3z8P71WMrXkTd6VI9ri99VagA4vp2X1lY
7IactUvXI4ERrys457olSw9pMHfgy6+lFtAfPKMUAkr4Lr0jV7nUO/mf5n5/I4oc
W06w7bzG/swujxGF6siFmtx0txf0jKYPAUFderBe9QU6cptux2fWl/iGbyohXbxn
gm9SNf8itVTud0s6s5CiC55p6KHUTfTJZG6mPA==
-----END CERTIFICATE-----
