Certificate:
    Data:
        Version: 3 (0x2)
        Serial Number:
            30:97:e0:56:07:1d:43:d9:4c:e6:5c:a5:95:d0:0f:76
        Signature Algorithm: sha256WithRSAEncryption
        Issuer: CN=team606-net
        Validity
            Not Before: Sep 13 04:21:45 2021 GMT
            Not After : Aug 28 04:21:45 2024 GMT
        Subject: CN=team606-server
        Subject Public Key Info:
            Public Key Algorithm: rsaEncryption
                RSA Public-Key: (2048 bit)
                Modulus:
                    00:a7:94:3b:a9:2f:77:bf:e6:a5:1e:5c:b9:a6:65:
                    d2:ea:45:7c:8d:ec:8f:c5:ae:7f:df:3b:75:69:2f:
                    5c:c5:d2:56:b3:73:d9:5e:24:2f:1a:1f:11:b2:f6:
                    11:70:54:e6:48:a9:7f:37:ee:dd:e1:d2:c6:c2:7b:
                    dc:64:93:7e:0c:df:e3:bc:73:dd:72:2c:11:ef:ee:
                    15:af:2e:08:ba:8d:5a:c9:8e:ed:b5:35:2a:92:66:
                    24:44:14:f5:d0:14:6b:bc:69:8a:0d:e5:f8:44:a6:
                    2b:75:1e:d8:31:2d:df:dd:8c:0a:af:17:0f:ca:60:
                    94:69:f8:aa:13:be:3b:28:8c:53:3c:38:80:f3:73:
                    d6:b0:b4:03:5e:f8:01:c1:03:83:6f:66:19:49:ca:
                    91:48:f1:9f:fd:25:4d:f7:60:62:ba:7c:2b:6d:48:
                    f4:28:dc:aa:02:c2:7e:4a:4a:35:3a:d7:93:0c:97:
                    10:d2:22:7c:65:96:38:4f:57:34:51:b0:cc:f0:0a:
                    81:a9:ac:16:bd:17:08:bd:04:5f:6b:8c:08:3f:5b:
                    cf:7f:18:26:14:e9:65:1a:6f:a6:87:ac:b4:75:88:
                    6e:94:74:64:c7:cf:e3:2b:89:ad:e0:73:96:ed:ef:
                    3a:9c:43:a5:e8:8b:99:93:fd:30:33:7a:ac:d0:af:
                    3a:d3
                Exponent: 65537 (0x10001)
        X509v3 extensions:
            X509v3 Basic Constraints: 
                CA:FALSE
            X509v3 Subject Key Identifier: 
                52:9C:06:F0:1C:CE:4E:5C:B3:D7:C3:96:9E:83:0B:5E:7F:D3:8C:4B
            X509v3 Authority Key Identifier: 
                keyid:C2:A8:89:DB:2B:1C:0B:E3:7E:C6:CC:78:DE:E2:B9:E1:FE:99:80:B1
                DirName:/CN=team606-net
                serial:4F:25:FC:32:D7:BE:90:4C:D6:39:0A:10:31:2C:3C:9D:7D:74:D4:DF

            X509v3 Extended Key Usage: 
                TLS Web Server Authentication
            X509v3 Key Usage: 
                Digital Signature, Key Encipherment
            X509v3 Subject Alternative Name: 
                DNS:team606-server
    Signature Algorithm: sha256WithRSAEncryption
         7f:5d:f9:a7:20:89:e6:eb:78:e5:14:09:9b:ed:76:17:25:63:
         1c:38:a9:16:84:fa:3d:02:a1:a5:b5:c3:be:d7:16:e1:c5:16:
         03:f8:88:5b:90:d8:66:1b:d1:f7:4a:43:fc:fd:a7:45:9c:72:
         7d:fe:43:e7:fb:a0:a3:d4:d9:64:44:15:ad:99:9d:34:ac:2a:
         8a:cd:16:e7:7a:c0:c3:64:20:3e:1e:e8:01:42:7e:e8:7d:b4:
         d3:e9:7b:90:ad:d1:90:83:62:43:9a:30:b0:5f:08:f9:c7:07:
         57:12:7e:fb:fc:4a:6b:4a:10:59:ee:cc:3c:e9:cb:12:14:e1:
         7d:59:29:09:ad:3e:7e:94:11:2e:b4:79:65:92:fb:27:8d:ae:
         c7:ac:d4:70:a0:f5:0e:c9:97:61:43:ff:fa:72:fc:b5:47:fd:
         ac:d7:3f:c3:f4:d9:27:7f:df:27:d1:60:94:95:81:30:62:bb:
         33:09:89:d2:7d:4f:20:53:24:a6:7e:d7:2a:9f:2e:ae:7b:92:
         f3:01:34:15:af:c4:bc:f0:ae:ff:2d:f7:dc:3b:79:81:13:f4:
         ae:ca:0d:08:3a:98:79:ff:bc:4e:4b:a6:56:0b:4c:7c:51:07:
         5a:de:f9:fc:2b:ff:64:2b:a9:02:96:97:72:d2:18:6f:0d:b0:
         0f:df:27:96
-----BEGIN CERTIFICATE-----
MIIDdzCCAl+gAwIBAgIQMJfgVgcdQ9lM5lylldAPdjANBgkqhkiG9w0BAQsFADAW
MRQwEgYDVQQDDAt0ZWFtNjA2LW5ldDAeFw0yMTA5MTMwNDIxNDVaFw0yNDA4Mjgw
NDIxNDVaMBkxFzAVBgNVBAMMDnRlYW02MDYtc2VydmVyMIIBIjANBgkqhkiG9w0B
AQEFAAOCAQ8AMIIBCgKCAQEAp5Q7qS93v+alHly5pmXS6kV8jeyPxa5/3zt1aS9c
xdJWs3PZXiQvGh8RsvYRcFTmSKl/N+7d4dLGwnvcZJN+DN/jvHPdciwR7+4Vry4I
uo1ayY7ttTUqkmYkRBT10BRrvGmKDeX4RKYrdR7YMS3f3YwKrxcPymCUafiqE747
KIxTPDiA83PWsLQDXvgBwQODb2YZScqRSPGf/SVN92BiunwrbUj0KNyqAsJ+Sko1
OteTDJcQ0iJ8ZZY4T1c0UbDM8AqBqawWvRcIvQRfa4wIP1vPfxgmFOllGm+mh6y0
dYhulHRkx8/jK4mt4HOW7e86nEOl6IuZk/0wM3qs0K860wIDAQABo4G9MIG6MAkG
A1UdEwQCMAAwHQYDVR0OBBYEFFKcBvAczk5cs9fDlp6DC15/04xLMFEGA1UdIwRK
MEiAFMKoidsrHAvjfsbMeN7iueH+mYCxoRqkGDAWMRQwEgYDVQQDDAt0ZWFtNjA2
LW5ldIIUTyX8Mte+kEzWOQoQMSw8nX101N8wEwYDVR0lBAwwCgYIKwYBBQUHAwEw
CwYDVR0PBAQDAgWgMBkGA1UdEQQSMBCCDnRlYW02MDYtc2VydmVyMA0GCSqGSIb3
DQEBCwUAA4IBAQB/XfmnIInm63jlFAmb7XYXJWMcOKkWhPo9AqGltcO+1xbhxRYD
+IhbkNhmG9H3SkP8/adFnHJ9/kPn+6Cj1NlkRBWtmZ00rCqKzRbnesDDZCA+HugB
Qn7ofbTT6XuQrdGQg2JDmjCwXwj5xwdXEn77/EprShBZ7sw86csSFOF9WSkJrT5+
lBEutHllkvsnja7HrNRwoPUOyZdhQ//6cvy1R/2s1z/D9Nknf98n0WCUlYEwYrsz
CYnSfU8gUySmftcqny6ue5LzATQVr8S88K7/LffcO3mBE/Suyg0IOph5/7xOS6ZW
C0x8UQda3vn8K/9kK6kClpdy0hhvDbAP3yeW
-----END CERTIFICATE-----
