Certificate:
    Data:
        Version: 3 (0x2)
        Serial Number:
            84:58:66:e6:54:8b:c5:1f:55:77:80:83:3a:a0:6b:3a
        Signature Algorithm: sha256WithRSAEncryption
        Issuer: CN=team471-net
        Validity
            Not Before: Sep 13 02:58:26 2021 GMT
            Not After : Aug 28 02:58:26 2024 GMT
        Subject: CN=team471-server
        Subject Public Key Info:
            Public Key Algorithm: rsaEncryption
                RSA Public-Key: (2048 bit)
                Modulus:
                    00:a4:a6:7a:9b:09:a8:a0:7d:ed:f4:3e:bd:2f:71:
                    2a:99:77:f8:2a:9d:92:44:e9:d9:ce:42:0d:39:2b:
                    d1:d8:d2:65:16:d5:8b:3a:a2:bc:27:a9:01:58:b7:
                    23:5d:8d:e3:6d:82:04:b9:ef:bf:4b:5b:95:29:28:
                    9d:d5:88:c4:c5:c6:43:90:a5:cb:f1:c4:3d:f4:05:
                    9f:d5:f3:23:ea:fd:bc:f7:0a:4a:1f:ce:56:bf:58:
                    54:fd:bd:bc:16:e1:11:72:48:e3:1d:bc:c9:d3:20:
                    3e:10:b2:48:27:04:c3:32:86:86:ba:d0:df:04:17:
                    78:0b:24:af:12:17:1c:33:5e:8b:8b:b2:80:35:15:
                    ae:61:ed:35:44:00:1c:df:96:e3:30:f4:fa:eb:27:
                    86:c0:02:77:1f:1f:f1:d6:33:4d:dd:71:81:d0:6a:
                    2d:4c:bd:11:02:7d:66:cf:6c:c2:2a:4a:53:ec:dd:
                    24:f8:4a:39:0c:17:53:d7:4d:28:3c:48:b2:24:4b:
                    75:4a:4a:59:c6:b1:dc:51:9e:28:03:d9:29:98:44:
                    09:88:bc:de:ee:3a:db:5a:0c:f2:c9:12:6b:74:e3:
                    49:b0:67:83:a2:99:82:0e:9b:cd:1d:28:8c:c8:41:
                    10:8a:0f:73:4b:65:31:e5:85:2f:3d:3c:52:a6:f7:
                    8d:c1
                Exponent: 65537 (0x10001)
        X509v3 extensions:
            X509v3 Basic Constraints: 
                CA:FALSE
            X509v3 Subject Key Identifier: 
                FC:42:78:4C:99:21:78:9F:51:D8:92:44:EB:0B:DD:CA:79:C3:1D:08
            X509v3 Authority Key Identifier: 
                keyid:28:C4:B0:F5:58:E4:EB:D0:92:95:E9:90:F4:2F:A3:1C:55:46:67:4D
                DirName:/CN=team471-net
                serial:4B:36:05:19:E3:24:39:23:6A:A3:7D:32:E0:BC:73:61:0F:41:19:55

            X509v3 Extended Key Usage: 
                TLS Web Server Authentication
            X509v3 Key Usage: 
                Digital Signature, Key Encipherment
            X509v3 Subject Alternative Name: 
                DNS:team471-server
    Signature Algorithm: sha256WithRSAEncryption
         58:b0:36:55:fc:f4:65:36:02:e9:30:15:17:c9:dd:a4:5a:42:
         4a:2e:74:f8:1f:7f:6c:e4:3d:c7:f8:e4:fa:54:81:f4:fa:f2:
         18:c2:8f:73:38:14:34:7f:49:92:43:22:0c:4f:ee:9c:32:d3:
         87:e3:cf:6d:3e:b2:50:b1:fc:52:42:b6:61:6d:a2:45:40:30:
         a5:ea:92:5e:97:5a:8d:dd:6c:24:49:72:3c:7c:f2:4f:af:11:
         85:84:79:8b:83:00:7c:e7:8a:cd:6d:49:b0:6a:df:48:13:9d:
         53:9e:bc:18:a2:54:5b:b9:c0:72:d0:5f:ae:e1:99:25:a4:e4:
         9d:be:4f:cb:e8:c4:06:4a:be:44:68:66:3e:18:f8:59:93:2f:
         f6:5f:f2:c4:a9:50:0a:2b:86:d8:ea:aa:d5:f7:ce:f7:9f:74:
         41:57:6a:52:3f:85:30:bf:7e:75:ed:13:c3:c5:a1:69:b1:a0:
         0d:ad:be:f5:44:3a:84:0e:0b:4d:4c:e9:29:bc:8d:61:5e:6f:
         5b:f7:d2:d4:14:96:48:0b:ec:b1:3a:e3:55:2b:ab:47:90:80:
         92:d8:fd:fc:9e:39:b8:e7:57:91:98:8f:e1:98:5c:90:e3:5c:
         83:4e:fa:78:4d:3c:c0:34:63:26:ee:5a:80:65:a3:f7:5d:6c:
         4d:bc:e4:be
-----BEGIN CERTIFICATE-----
MIIDeDCCAmCgAwIBAgIRAIRYZuZUi8UfVXeAgzqgazowDQYJKoZIhvcNAQELBQAw
FjEUMBIGA1UEAwwLdGVhbTQ3MS1uZXQwHhcNMjEwOTEzMDI1ODI2WhcNMjQwODI4
MDI1ODI2WjAZMRcwFQYDVQQDDA50ZWFtNDcxLXNlcnZlcjCCASIwDQYJKoZIhvcN
AQEBBQADggEPADCCAQoCggEBAKSmepsJqKB97fQ+vS9xKpl3+CqdkkTp2c5CDTkr
0djSZRbVizqivCepAVi3I12N422CBLnvv0tblSkondWIxMXGQ5Cly/HEPfQFn9Xz
I+r9vPcKSh/OVr9YVP29vBbhEXJI4x28ydMgPhCySCcEwzKGhrrQ3wQXeAskrxIX
HDNei4uygDUVrmHtNUQAHN+W4zD0+usnhsACdx8f8dYzTd1xgdBqLUy9EQJ9Zs9s
wipKU+zdJPhKOQwXU9dNKDxIsiRLdUpKWcax3FGeKAPZKZhECYi83u4621oM8skS
a3TjSbBng6KZgg6bzR0ojMhBEIoPc0tlMeWFLz08Uqb3jcECAwEAAaOBvTCBujAJ
BgNVHRMEAjAAMB0GA1UdDgQWBBT8QnhMmSF4n1HYkkTrC93KecMdCDBRBgNVHSME
SjBIgBQoxLD1WOTr0JKV6ZD0L6McVUZnTaEapBgwFjEUMBIGA1UEAwwLdGVhbTQ3
MS1uZXSCFEs2BRnjJDkjaqN9MuC8c2EPQRlVMBMGA1UdJQQMMAoGCCsGAQUFBwMB
MAsGA1UdDwQEAwIFoDAZBgNVHREEEjAQgg50ZWFtNDcxLXNlcnZlcjANBgkqhkiG
9w0BAQsFAAOCAQEAWLA2Vfz0ZTYC6TAVF8ndpFpCSi50+B9/bOQ9x/jk+lSB9Pry
GMKPczgUNH9JkkMiDE/unDLTh+PPbT6yULH8UkK2YW2iRUAwpeqSXpdajd1sJEly
PHzyT68RhYR5i4MAfOeKzW1JsGrfSBOdU568GKJUW7nActBfruGZJaTknb5Py+jE
Bkq+RGhmPhj4WZMv9l/yxKlQCiuG2Oqq1ffO9590QVdqUj+FML9+de0Tw8WhabGg
Da2+9UQ6hA4LTUzpKbyNYV5vW/fS1BSWSAvssTrjVSurR5CAktj9/J45uOdXkZiP
4ZhckONcg076eE08wDRjJu5agGWj911sTbzkvg==
-----END CERTIFICATE-----
