Certificate:
    Data:
        Version: 3 (0x2)
        Serial Number:
            b4:f3:f4:ee:da:85:e9:39:15:d9:84:67:d2:76:57:2c
        Signature Algorithm: sha256WithRSAEncryption
        Issuer: CN=team512-net
        Validity
            Not Before: Sep 13 03:24:31 2021 GMT
            Not After : Aug 28 03:24:31 2024 GMT
        Subject: CN=team512-server
        Subject Public Key Info:
            Public Key Algorithm: rsaEncryption
                RSA Public-Key: (2048 bit)
                Modulus:
                    00:bd:6f:22:16:d8:d9:d0:17:9c:1c:70:36:de:07:
                    f2:25:35:45:2e:95:91:92:45:f8:6c:be:e1:62:a2:
                    2d:b2:0d:ac:01:cf:3c:d2:a1:1a:81:07:5a:49:51:
                    f2:fd:0f:66:ca:59:65:35:1c:43:d7:c7:23:d3:cb:
                    03:57:be:60:a3:58:d3:dc:b8:b4:bf:c9:25:ea:7b:
                    c8:53:64:55:5c:dd:fb:3c:0c:c4:96:07:de:5b:99:
                    f6:ff:d3:10:74:44:2f:88:00:2b:8d:21:63:19:6f:
                    18:45:79:f4:6a:66:ce:4a:45:97:dc:44:cc:0d:6c:
                    65:d5:b8:94:9d:64:51:24:da:0b:7c:04:cf:60:8d:
                    4a:fe:97:35:ad:c4:94:0b:ab:d3:9f:7f:b5:a0:5d:
                    f5:b5:bb:59:64:63:56:fb:58:e4:c9:54:a3:1c:6f:
                    9c:65:bd:58:aa:3c:1f:ee:81:2b:d6:8b:4c:0d:ee:
                    0c:55:fc:9f:20:4b:53:a8:c3:0e:84:72:21:69:1b:
                    d0:0c:86:9e:8b:dc:51:35:63:8f:05:0a:29:8f:63:
                    42:c0:d7:d2:3f:b3:6b:be:bc:6e:a1:b1:27:5b:b2:
                    54:6b:3e:bb:4c:d3:9f:e3:61:5a:63:5b:ab:58:94:
                    1a:97:08:6f:95:bd:b3:5a:be:e9:84:cd:68:81:65:
                    87:fd
                Exponent: 65537 (0x10001)
        X509v3 extensions:
            X509v3 Basic Constraints: 
                CA:FALSE
            X509v3 Subject Key Identifier: 
                41:EB:8A:B8:AF:B9:8B:3D:7B:28:BA:1F:01:21:68:E4:B3:39:3A:74
            X509v3 Authority Key Identifier: 
                keyid:E9:BF:39:2C:F3:D9:BB:D2:8C:F9:7F:92:6B:89:AB:DD:E5:F6:79:CC
                DirName:/CN=team512-net
                serial:10:36:A4:58:52:85:FC:69:60:7A:B0:DE:81:24:DC:18:6B:97:90:E4

            X509v3 Extended Key Usage: 
                TLS Web Server Authentication
            X509v3 Key Usage: 
                Digital Signature, Key Encipherment
            X509v3 Subject Alternative Name: 
                DNS:team512-server
    Signature Algorithm: sha256WithRSAEncryption
         76:3e:7d:ea:3f:9c:93:0c:df:c1:13:57:5f:b5:d8:05:69:ee:
         b0:cb:b1:7c:05:86:72:7f:e9:f4:15:cc:ea:0c:39:67:d8:d9:
         27:9c:ab:05:26:0b:fe:9b:37:44:20:4e:c3:c1:e0:2a:e0:5e:
         20:6a:25:4f:9b:8a:a5:08:4f:57:24:7e:62:32:f3:31:05:91:
         d9:da:32:fa:eb:8e:e2:ba:a0:b1:07:9f:18:d0:5b:f5:1d:03:
         c9:d4:a7:48:b2:ee:ab:d9:a4:a5:42:ca:b5:b1:61:74:09:d7:
         f7:52:30:d3:ec:16:75:1c:76:7f:54:a5:ed:ea:29:9e:2f:40:
         85:5a:a6:29:5c:66:50:97:d9:6c:20:58:d7:5c:66:a6:72:ec:
         d4:37:92:eb:63:fa:83:d5:5e:bb:bb:c6:5c:8d:ae:64:03:cf:
         a6:64:b9:62:a7:c7:40:46:70:56:88:ff:7d:b1:5d:52:d3:c6:
         bf:3e:3a:5d:74:7b:c5:80:ce:58:0b:13:5a:ad:52:05:f1:01:
         bc:95:9b:1c:ea:4f:30:f1:ba:3f:b3:95:37:6b:e2:46:b4:66:
         87:3a:8b:b7:18:c4:25:d0:56:7b:6e:62:69:77:db:97:d2:a2:
         db:4a:7d:a1:d1:ff:a3:ab:fe:ef:05:70:c6:e1:c6:e6:aa:45:
         a7:9c:66:83
-----BEGIN CERTIFICATE-----
MIIDeDCCAmCgAwIBAgIRALTz9O7ahek5FdmEZ9J2VywwDQYJKoZIhvcNAQELBQAw
FjEUMBIGA1UEAwwLdGVhbTUxMi1uZXQwHhcNMjEwOTEzMDMyNDMxWhcNMjQwODI4
MDMyNDMxWjAZMRcwFQYDVQQDDA50ZWFtNTEyLXNlcnZlcjCCASIwDQYJKoZIhvcN
AQEBBQADggEPADCCAQoCggEBAL1vIhbY2dAXnBxwNt4H8iU1RS6VkZJF+Gy+4WKi
LbINrAHPPNKhGoEHWklR8v0PZspZZTUcQ9fHI9PLA1e+YKNY09y4tL/JJep7yFNk
VVzd+zwMxJYH3luZ9v/TEHREL4gAK40hYxlvGEV59GpmzkpFl9xEzA1sZdW4lJ1k
USTaC3wEz2CNSv6XNa3ElAur059/taBd9bW7WWRjVvtY5MlUoxxvnGW9WKo8H+6B
K9aLTA3uDFX8nyBLU6jDDoRyIWkb0AyGnovcUTVjjwUKKY9jQsDX0j+za768bqGx
J1uyVGs+u0zTn+NhWmNbq1iUGpcIb5W9s1q+6YTNaIFlh/0CAwEAAaOBvTCBujAJ
BgNVHRMEAjAAMB0GA1UdDgQWBBRB64q4r7mLPXsouh8BIWjkszk6dDBRBgNVHSME
SjBIgBTpvzks89m70oz5f5Jriavd5fZ5zKEapBgwFjEUMBIGA1UEAwwLdGVhbTUx
Mi1uZXSCFBA2pFhShfxpYHqw3oEk3Bhrl5DkMBMGA1UdJQQMMAoGCCsGAQUFBwMB
MAsGA1UdDwQEAwIFoDAZBgNVHREEEjAQgg50ZWFtNTEyLXNlcnZlcjANBgkqhkiG
9w0BAQsFAAOCAQEAdj596j+ckwzfwRNXX7XYBWnusMuxfAWGcn/p9BXM6gw5Z9jZ
J5yrBSYL/ps3RCBOw8HgKuBeIGolT5uKpQhPVyR+YjLzMQWR2doy+uuO4rqgsQef
GNBb9R0DydSnSLLuq9mkpULKtbFhdAnX91Iw0+wWdRx2f1Sl7eopni9AhVqmKVxm
UJfZbCBY11xmpnLs1DeS62P6g9Veu7vGXI2uZAPPpmS5YqfHQEZwVoj/fbFdUtPG
vz46XXR7xYDOWAsTWq1SBfEBvJWbHOpPMPG6P7OVN2viRrRmhzqLtxjEJdBWe25i
aXfbl9Ki20p9odH/o6v+7wVwxuHG5qpFp5xmgw==
-----END CERTIFICATE-----
