Certificate:
    Data:
        Version: 3 (0x2)
        Serial Number:
            19:72:0e:95:c3:83:6f:ec:e4:c9:66:ab:c6:f1:13:b2
        Signature Algorithm: sha256WithRSAEncryption
        Issuer: CN=team74-net
        Validity
            Not Before: Sep 12 23:20:04 2021 GMT
            Not After : Aug 27 23:20:04 2024 GMT
        Subject: CN=team74-client
        Subject Public Key Info:
            Public Key Algorithm: rsaEncryption
                RSA Public-Key: (2048 bit)
                Modulus:
                    00:b3:a7:53:8e:96:6b:1c:dd:54:42:d7:70:39:23:
                    c6:4f:20:52:f1:da:a3:9f:c6:7c:12:e2:6e:56:96:
                    c3:ca:e2:e5:2c:36:9d:8f:13:2a:16:1d:82:bf:de:
                    74:d0:4f:ec:e1:db:71:9a:9f:97:16:26:38:be:68:
                    17:1b:97:1c:48:1c:3d:f6:dd:f2:9d:c0:a8:c4:8c:
                    15:2e:15:9e:70:5b:3d:d0:8b:72:04:61:3b:cb:66:
                    d5:79:23:87:da:4f:86:33:34:5f:71:c1:e8:0f:85:
                    3a:9a:51:8c:96:dc:b5:de:8b:d4:39:49:15:a2:fe:
                    76:71:03:1d:46:97:b2:45:18:67:5b:1a:38:04:70:
                    4c:e2:65:56:d8:c8:cc:9a:47:8a:05:91:13:a8:e9:
                    91:ec:d4:31:ff:72:bb:48:0e:45:05:16:0e:ab:a6:
                    d6:0f:df:c3:8a:81:1c:1a:e2:cc:bf:c9:05:da:17:
                    8d:3a:5f:78:85:2e:4a:26:a3:9a:b6:22:92:c3:7e:
                    21:59:96:f3:b5:15:60:06:06:bf:08:93:f1:3d:c5:
                    19:2a:f1:d9:e3:46:0f:13:16:fd:44:d9:2a:c9:ee:
                    ea:50:9d:44:63:eb:b0:79:ac:6d:5b:df:66:38:a2:
                    4e:4a:77:79:a6:ea:4d:a1:f9:14:cc:50:62:9b:37:
                    4a:49
                Exponent: 65537 (0x10001)
        X509v3 extensions:
            X509v3 Basic Constraints: 
                CA:FALSE
            X509v3 Subject Key Identifier: 
                0C:9E:E4:E6:FD:4E:58:4C:38:C8:7C:B7:BC:A8:58:22:1D:21:4C:11
            X509v3 Authority Key Identifier: 
                keyid:80:6C:65:A4:D3:43:D3:75:F3:75:CA:EF:15:D3:A8:4A:75:68:22:E4
                DirName:/CN=team74-net
                serial:75:CF:4A:0F:E9:6D:06:0F:EE:59:9C:43:86:00:ED:D9:0C:3F:A8:C5

            X509v3 Extended Key Usage: 
                TLS Web Client Authentication
            X509v3 Key Usage: 
                Digital Signature
    Signature Algorithm: sha256WithRSAEncryption
         87:5c:c2:12:0e:86:11:de:16:ce:dd:b5:93:59:3e:a3:79:db:
         76:ed:9a:b5:bd:6d:86:05:b5:dd:95:92:fb:c6:42:61:c2:f4:
         fd:df:f5:f5:dc:08:83:c9:a4:cf:20:f9:97:97:12:ed:63:98:
         60:5a:2b:e4:3c:49:47:51:e1:a2:1f:a5:19:0d:9c:30:e1:7e:
         11:7b:61:6c:0b:89:cf:6c:81:f4:61:58:a2:82:1e:73:da:a8:
         11:2c:da:de:3e:c4:46:6b:73:91:ac:61:7e:83:df:bc:4a:1a:
         2b:cd:11:ce:8e:6c:07:ca:f6:15:66:2c:1c:d0:64:48:f5:58:
         db:e9:81:47:44:22:2c:cb:3a:08:c4:4a:a8:ad:48:66:8d:81:
         ac:5d:08:1b:6a:fe:f1:23:d9:db:9b:d8:2c:45:6a:f4:aa:6a:
         c3:20:c5:72:2f:11:53:e5:a2:2c:ec:72:96:1b:dd:06:7f:9d:
         99:33:a3:98:66:ba:8a:74:16:df:f3:ce:70:74:90:5b:74:37:
         f7:65:70:26:54:f1:27:97:b3:57:e5:5e:22:69:9a:e4:18:2e:
         a2:b2:fa:9a:c7:c6:e8:7b:64:90:c4:6b:2d:c6:b7:ef:d1:a9:
         71:7c:75:83:05:47:18:52:20:c5:47:d6:c6:ff:15:b5:a8:b8:
         75:db:48:18
-----BEGIN CERTIFICATE-----
MIIDWTCCAkGgAwIBAgIQGXIOlcODb+zkyWarxvETsjANBgkqhkiG9w0BAQsFADAV
MRMwEQYDVQQDDAp0ZWFtNzQtbmV0MB4XDTIxMDkxMjIzMjAwNFoXDTI0MDgyNzIz
MjAwNFowGDEWMBQGA1UEAwwNdGVhbTc0LWNsaWVudDCCASIwDQYJKoZIhvcNAQEB
BQADggEPADCCAQoCggEBALOnU46WaxzdVELXcDkjxk8gUvHao5/GfBLiblaWw8ri
5Sw2nY8TKhYdgr/edNBP7OHbcZqflxYmOL5oFxuXHEgcPfbd8p3AqMSMFS4VnnBb
PdCLcgRhO8tm1Xkjh9pPhjM0X3HB6A+FOppRjJbctd6L1DlJFaL+dnEDHUaXskUY
Z1saOARwTOJlVtjIzJpHigWRE6jpkezUMf9yu0gORQUWDqum1g/fw4qBHBrizL/J
BdoXjTpfeIUuSiajmrYiksN+IVmW87UVYAYGvwiT8T3FGSrx2eNGDxMW/UTZKsnu
6lCdRGPrsHmsbVvfZjiiTkp3eabqTaH5FMxQYps3SkkCAwEAAaOBoTCBnjAJBgNV
HRMEAjAAMB0GA1UdDgQWBBQMnuTm/U5YTDjIfLe8qFgiHSFMETBQBgNVHSMESTBH
gBSAbGWk00PTdfN1yu8V06hKdWgi5KEZpBcwFTETMBEGA1UEAwwKdGVhbTc0LW5l
dIIUdc9KD+ltBg/uWZxDhgDt2Qw/qMUwEwYDVR0lBAwwCgYIKwYBBQUHAwIwCwYD
VR0PBAQDAgeAMA0GCSqGSIb3DQEBCwUAA4IBAQCHXMISDoYR3hbO3bWTWT6jedt2
7Zq1vW2GBbXdlZL7xkJhwvT93/X13AiDyaTPIPmXlxLtY5hgWivkPElHUeGiH6UZ
DZww4X4Re2FsC4nPbIH0YViigh5z2qgRLNrePsRGa3ORrGF+g9+8ShorzRHOjmwH
yvYVZiwc0GRI9Vjb6YFHRCIsyzoIxEqorUhmjYGsXQgbav7xI9nbm9gsRWr0qmrD
IMVyLxFT5aIs7HKWG90Gf52ZM6OYZrqKdBbf885wdJBbdDf3ZXAmVPEnl7NX5V4i
aZrkGC6isvqax8boe2SQxGstxrfv0alxfHWDBUcYUiDFR9bG/xW1qLh120gY
-----END CERTIFICATE-----
