Certificate:
    Data:
        Version: 3 (0x2)
        Serial Number:
            63:f3:da:a7:ad:97:8c:bf:0c:79:9d:4a:70:1f:f1:c9
        Signature Algorithm: sha256WithRSAEncryption
        Issuer: CN=team575-net
        Validity
            Not Before: Sep 13 03:42:34 2021 GMT
            Not After : Aug 28 03:42:34 2024 GMT
        Subject: CN=team575-server
        Subject Public Key Info:
            Public Key Algorithm: rsaEncryption
                RSA Public-Key: (2048 bit)
                Modulus:
                    00:c2:2b:e4:1d:78:28:3a:1b:d3:52:86:94:e4:f8:
                    c5:9e:d7:31:4d:4c:31:fb:61:6c:0f:dd:0b:f2:ff:
                    e2:70:67:9c:51:b8:b1:c8:c0:24:89:af:52:9a:5c:
                    49:6b:7e:2a:33:b3:02:30:59:c9:a0:af:6d:d1:df:
                    2b:e3:96:f7:71:be:3e:b3:14:4d:45:3d:6b:94:43:
                    e5:0f:30:10:6e:74:a9:19:99:38:98:9e:fd:03:5b:
                    9c:f2:58:74:5f:9d:fd:60:79:f6:77:70:1f:d6:2c:
                    06:94:c3:97:13:83:fc:c8:6b:6b:a1:96:80:8f:e7:
                    a5:f9:31:75:c3:e1:1c:e9:b6:dd:e8:8d:a1:6d:75:
                    a7:8d:96:97:05:eb:f9:0e:2d:1c:a2:3d:e5:66:57:
                    06:f6:8c:bc:37:5d:b6:c8:5c:df:ca:13:f9:31:65:
                    9f:ab:a4:47:da:c8:99:bf:10:ec:01:9c:84:3e:49:
                    10:01:a0:66:7b:8b:4c:75:19:5f:f1:34:b2:b4:e4:
                    1e:e3:28:73:bb:71:f3:ee:a1:ba:30:21:c6:7f:73:
                    25:68:0f:2b:15:2f:cf:1c:d8:b8:2c:a2:5a:0b:0d:
                    54:20:7a:21:26:c1:ea:6e:80:cd:47:55:4d:63:6a:
                    2b:79:2a:8c:ae:d7:2f:cc:39:c7:60:13:a8:95:3a:
                    99:ff
                Exponent: 65537 (0x10001)
        X509v3 extensions:
            X509v3 Basic Constraints: 
                CA:FALSE
            X509v3 Subject Key Identifier: 
                40:6A:7E:5D:52:84:8B:FF:EF:A8:27:DA:99:35:59:1A:5E:CB:7E:4F
            X509v3 Authority Key Identifier: 
                keyid:80:06:32:FC:2F:71:2E:F7:3D:3A:D8:6D:69:EF:5C:55:40:58:FE:01
                DirName:/CN=team575-net
                serial:0F:D1:43:37:BE:DA:0B:E6:F2:CB:79:27:F8:FA:6B:B7:84:08:AB:9A

            X509v3 Extended Key Usage: 
                TLS Web Server Authentication
            X509v3 Key Usage: 
                Digital Signature, Key Encipherment
            X509v3 Subject Alternative Name: 
                DNS:team575-server
    Signature Algorithm: sha256WithRSAEncryption
         b9:48:5a:f5:fa:ee:f0:d3:b7:03:19:79:8d:e4:eb:d5:3c:ad:
         4f:98:cb:7d:01:d5:82:1d:74:5d:9d:77:f4:06:db:2f:be:8a:
         38:17:79:63:11:d2:c4:c5:b9:fd:97:45:83:4e:25:cc:7c:10:
         84:e6:5b:bf:1f:36:04:d5:18:e2:ee:1c:33:b5:40:4d:7c:f3:
         28:c6:63:08:b9:c5:82:14:d1:91:73:7d:bf:78:ff:3d:0d:b8:
         1c:dd:ea:8e:d3:ab:41:79:fd:87:63:b7:25:76:df:03:03:24:
         9b:95:fa:5a:c1:b4:03:c0:1b:36:81:87:ae:6c:f2:c5:17:c6:
         a1:7e:89:1c:f0:fb:0f:45:08:1c:7a:14:e9:20:eb:80:4f:9d:
         ff:ef:f3:fe:cd:49:f1:20:bd:44:17:ed:12:d7:a0:7c:b1:f2:
         86:2c:85:4e:cf:64:a0:7d:88:83:75:22:c5:de:cc:0a:be:43:
         8b:d3:f1:f4:b3:57:0b:1d:e6:a0:26:32:ba:d0:fe:30:c7:02:
         75:66:70:64:18:1d:e5:fc:a6:a2:b2:c9:af:56:89:ea:5d:47:
         0c:00:9f:da:92:ae:f7:de:a6:e5:5a:65:d9:f3:70:d3:dc:79:
         5b:bd:82:c2:1f:d7:22:99:a2:34:39:d7:26:73:ee:12:be:ae:
         90:36:e4:b6
-----BEGIN CERTIFICATE-----
MIIDdzCCAl+gAwIBAgIQY/Pap62XjL8MeZ1KcB/xyTANBgkqhkiG9w0BAQsFADAW
MRQwEgYDVQQDDAt0ZWFtNTc1LW5ldDAeFw0yMTA5MTMwMzQyMzRaFw0yNDA4Mjgw
MzQyMzRaMBkxFzAVBgNVBAMMDnRlYW01NzUtc2VydmVyMIIBIjANBgkqhkiG9w0B
AQEFAAOCAQ8AMIIBCgKCAQEAwivkHXgoOhvTUoaU5PjFntcxTUwx+2FsD90L8v/i
cGecUbixyMAkia9SmlxJa34qM7MCMFnJoK9t0d8r45b3cb4+sxRNRT1rlEPlDzAQ
bnSpGZk4mJ79A1uc8lh0X539YHn2d3Af1iwGlMOXE4P8yGtroZaAj+el+TF1w+Ec
6bbd6I2hbXWnjZaXBev5Di0coj3lZlcG9oy8N122yFzfyhP5MWWfq6RH2siZvxDs
AZyEPkkQAaBme4tMdRlf8TSytOQe4yhzu3Hz7qG6MCHGf3MlaA8rFS/PHNi4LKJa
Cw1UIHohJsHqboDNR1VNY2oreSqMrtcvzDnHYBOolTqZ/wIDAQABo4G9MIG6MAkG
A1UdEwQCMAAwHQYDVR0OBBYEFEBqfl1ShIv/76gn2pk1WRpey35PMFEGA1UdIwRK
MEiAFIAGMvwvcS73PTrYbWnvXFVAWP4BoRqkGDAWMRQwEgYDVQQDDAt0ZWFtNTc1
LW5ldIIUD9FDN77aC+byy3kn+Pprt4QIq5owEwYDVR0lBAwwCgYIKwYBBQUHAwEw
CwYDVR0PBAQDAgWgMBkGA1UdEQQSMBCCDnRlYW01NzUtc2VydmVyMA0GCSqGSIb3
DQEBCwUAA4IBAQC5SFr1+u7w07cDGXmN5OvVPK1PmMt9AdWCHXRdnXf0Btsvvoo4
F3ljEdLExbn9l0WDTiXMfBCE5lu/HzYE1Rji7hwztUBNfPMoxmMIucWCFNGRc32/
eP89Dbgc3eqO06tBef2HY7cldt8DAySblfpawbQDwBs2gYeubPLFF8ahfokc8PsP
RQgcehTpIOuAT53/7/P+zUnxIL1EF+0S16B8sfKGLIVOz2SgfYiDdSLF3swKvkOL
0/H0s1cLHeagJjK60P4wxwJ1ZnBkGB3l/KaissmvVonqXUcMAJ/akq733qblWmXZ
83DT3HlbvYLCH9cimaI0Odcmc+4Svq6QNuS2
-----END CERTIFICATE-----
