Certificate:
    Data:
        Version: 3 (0x2)
        Serial Number:
            2b:88:9b:4e:30:2c:8b:5a:17:0c:7b:03:7d:89:b6:3e
        Signature Algorithm: sha256WithRSAEncryption
        Issuer: CN=team200-net
        Validity
            Not Before: Sep 13 00:28:53 2021 GMT
            Not After : Aug 28 00:28:53 2024 GMT
        Subject: CN=team200-server
        Subject Public Key Info:
            Public Key Algorithm: rsaEncryption
                RSA Public-Key: (2048 bit)
                Modulus:
                    00:b8:75:ad:0d:29:3b:0e:85:7a:8d:bf:e2:74:8e:
                    81:0f:b7:06:af:00:4f:19:92:af:01:83:b3:21:a3:
                    c2:fe:3a:cf:48:13:b2:e5:72:05:67:21:ea:60:70:
                    18:70:91:21:81:5c:76:3e:50:4c:cb:46:af:38:0f:
                    20:e1:d8:36:c5:8d:0d:80:9f:9b:e0:93:07:de:bc:
                    d2:bc:4d:8b:65:9b:cc:b5:5d:9b:53:50:17:da:d7:
                    4c:3e:9a:6c:37:47:ec:af:58:7b:06:8f:da:d4:e9:
                    20:79:8b:d5:59:fd:4b:3f:28:58:c1:41:2b:09:4f:
                    2d:7b:b9:6e:14:4b:e0:db:b7:0b:12:51:00:ab:fd:
                    43:c9:71:5b:ee:90:73:ec:04:4e:33:81:b8:63:89:
                    f1:76:79:87:b0:5e:00:96:94:28:ad:a4:a6:ee:48:
                    51:a8:23:5b:a8:53:f4:ae:ca:75:f4:44:e9:14:82:
                    30:24:69:11:30:08:1d:97:a4:e8:85:2f:50:b0:79:
                    35:92:0e:a1:d0:13:41:5c:17:03:a9:e4:fc:09:3d:
                    a2:9f:ad:f1:eb:96:33:fb:28:de:19:e3:c8:ec:29:
                    40:7f:b4:fe:75:1a:46:fa:e7:14:19:40:38:3c:53:
                    77:59:30:d7:03:dc:42:bc:f8:9b:d9:c7:4e:8c:0f:
                    2b:75
                Exponent: 65537 (0x10001)
        X509v3 extensions:
            X509v3 Basic Constraints: 
                CA:FALSE
            X509v3 Subject Key Identifier: 
                61:65:72:1C:7D:68:6A:EE:67:B3:7B:84:D3:46:07:A5:85:08:41:67
            X509v3 Authority Key Identifier: 
                keyid:DD:4E:68:EB:75:AA:23:D5:F2:19:0A:DA:16:99:B4:64:3B:E4:D1:1B
                DirName:/CN=team200-net
                serial:3E:C4:4D:F6:E7:91:88:72:2E:E3:1B:2F:FF:A9:A4:64:BF:BE:8C:E2

            X509v3 Extended Key Usage: 
                TLS Web Server Authentication
            X509v3 Key Usage: 
                Digital Signature, Key Encipherment
            X509v3 Subject Alternative Name: 
                DNS:team200-server
    Signature Algorithm: sha256WithRSAEncryption
         ad:9e:6a:09:05:2b:e9:78:cb:20:a1:06:8b:4a:5c:b7:14:1d:
         3c:29:dc:4c:93:61:98:3d:10:a5:bd:bd:63:9b:1f:73:13:70:
         7d:02:3a:25:e5:c9:a0:71:f2:b0:da:76:c4:48:e4:bf:ca:65:
         3d:7b:2f:3a:4f:dd:df:c0:8e:39:a5:c2:68:a4:c7:22:68:8a:
         f5:f7:b1:49:87:c5:4b:b8:04:c3:76:0b:37:8c:ff:f9:ea:80:
         8c:8d:07:06:57:8b:d7:d6:a1:d0:4f:54:f4:c3:3d:34:a1:1b:
         db:ed:a7:03:0e:18:a0:af:c9:77:89:71:56:08:75:3f:c9:3b:
         4a:a5:cd:3b:7b:c7:f9:f0:a7:f8:e6:b6:e1:44:75:0e:5d:7d:
         65:75:23:ae:04:19:65:34:7e:52:01:1d:13:27:30:cc:6d:47:
         f3:e2:79:08:f0:41:c0:2c:85:3d:4a:a1:25:bb:2c:dc:4e:c1:
         90:8d:14:78:4a:6d:ec:22:f2:15:48:56:66:fc:40:0e:34:d3:
         9d:ac:9b:37:93:1c:f0:fb:48:22:b9:20:26:7b:b0:60:7b:89:
         87:8f:e8:58:2d:75:84:0a:74:37:33:a5:bd:14:19:2d:9f:1e:
         e4:95:8d:26:df:14:2e:bc:61:48:38:e2:49:1f:c7:5e:f7:d7:
         8e:b1:d9:ad
-----BEGIN CERTIFICATE-----
MIIDdzCCAl+gAwIBAgIQK4ibTjAsi1oXDHsDfYm2PjANBgkqhkiG9w0BAQsFADAW
MRQwEgYDVQQDDAt0ZWFtMjAwLW5ldDAeFw0yMTA5MTMwMDI4NTNaFw0yNDA4Mjgw
MDI4NTNaMBkxFzAVBgNVBAMMDnRlYW0yMDAtc2VydmVyMIIBIjANBgkqhkiG9w0B
AQEFAAOCAQ8AMIIBCgKCAQEAuHWtDSk7DoV6jb/idI6BD7cGrwBPGZKvAYOzIaPC
/jrPSBOy5XIFZyHqYHAYcJEhgVx2PlBMy0avOA8g4dg2xY0NgJ+b4JMH3rzSvE2L
ZZvMtV2bU1AX2tdMPppsN0fsr1h7Bo/a1OkgeYvVWf1LPyhYwUErCU8te7luFEvg
27cLElEAq/1DyXFb7pBz7AROM4G4Y4nxdnmHsF4AlpQoraSm7khRqCNbqFP0rsp1
9ETpFIIwJGkRMAgdl6TohS9QsHk1kg6h0BNBXBcDqeT8CT2in63x65Yz+yjeGePI
7ClAf7T+dRpG+ucUGUA4PFN3WTDXA9xCvPib2cdOjA8rdQIDAQABo4G9MIG6MAkG
A1UdEwQCMAAwHQYDVR0OBBYEFGFlchx9aGruZ7N7hNNGB6WFCEFnMFEGA1UdIwRK
MEiAFN1OaOt1qiPV8hkK2haZtGQ75NEboRqkGDAWMRQwEgYDVQQDDAt0ZWFtMjAw
LW5ldIIUPsRN9ueRiHIu4xsv/6mkZL++jOIwEwYDVR0lBAwwCgYIKwYBBQUHAwEw
CwYDVR0PBAQDAgWgMBkGA1UdEQQSMBCCDnRlYW0yMDAtc2VydmVyMA0GCSqGSIb3
DQEBCwUAA4IBAQCtnmoJBSvpeMsgoQaLSly3FB08KdxMk2GYPRClvb1jmx9zE3B9
Ajol5cmgcfKw2nbESOS/ymU9ey86T93fwI45pcJopMciaIr197FJh8VLuATDdgs3
jP/56oCMjQcGV4vX1qHQT1T0wz00oRvb7acDDhigr8l3iXFWCHU/yTtKpc07e8f5
8Kf45rbhRHUOXX1ldSOuBBllNH5SAR0TJzDMbUfz4nkI8EHALIU9SqEluyzcTsGQ
jRR4Sm3sIvIVSFZm/EAONNOdrJs3kxzw+0giuSAme7Bge4mHj+hYLXWECnQ3M6W9
FBktnx7klY0m3xQuvGFIOOJJH8de99eOsdmt
-----END CERTIFICATE-----
