Certificate:
    Data:
        Version: 3 (0x2)
        Serial Number:
            b2:22:b3:fa:fb:2e:e2:87:f3:20:0b:43:6b:c0:4d:10
        Signature Algorithm: sha256WithRSAEncryption
        Issuer: CN=team200-net
        Validity
            Not Before: Sep 13 00:28:53 2021 GMT
            Not After : Aug 28 00:28:53 2024 GMT
        Subject: CN=team200-client
        Subject Public Key Info:
            Public Key Algorithm: rsaEncryption
                RSA Public-Key: (2048 bit)
                Modulus:
                    00:eb:5a:fa:b8:4d:8f:e1:1b:44:e0:d4:b6:16:3b:
                    49:de:3f:01:dc:78:dd:e9:40:f5:86:24:2a:1e:c9:
                    0f:57:2f:8c:ca:62:29:84:3d:a1:49:2a:48:a8:ab:
                    3d:5f:21:66:5c:00:36:05:27:05:26:b2:33:88:67:
                    4c:f2:0e:75:68:af:d7:f8:fc:30:aa:e9:20:e7:60:
                    1a:cd:f5:37:da:33:f2:2f:ea:5d:17:fa:b9:65:04:
                    88:bf:be:31:eb:2a:f8:75:81:ae:b9:f0:2c:73:20:
                    91:42:03:6a:51:a0:fe:67:35:5b:7d:0b:c5:54:5e:
                    ef:53:9a:a0:74:14:68:93:10:c5:e3:bf:9e:98:04:
                    2a:1a:02:3c:68:f7:bc:06:3b:e7:19:07:c9:cf:75:
                    4c:db:a9:85:9a:71:f4:b4:72:c0:0c:b0:5b:79:51:
                    be:58:18:88:66:d8:32:a0:3a:f4:77:a6:20:76:89:
                    9d:e4:4f:0c:34:68:19:3e:4a:da:83:85:73:88:11:
                    a0:36:f7:93:6a:cf:12:73:61:0d:19:06:97:13:f2:
                    23:33:45:cc:ec:d6:14:ed:6b:b4:3c:a4:5a:a3:a1:
                    8c:e3:78:b7:fa:3a:81:78:f6:df:82:c3:89:ac:ea:
                    7e:2d:c7:28:98:df:ab:49:29:4a:95:f4:db:e4:bb:
                    37:21
                Exponent: 65537 (0x10001)
        X509v3 extensions:
            X509v3 Basic Constraints: 
                CA:FALSE
            X509v3 Subject Key Identifier: 
                00:20:16:B3:B1:43:48:B2:0A:4E:E6:BE:61:6D:A3:16:D8:10:6D:28
            X509v3 Authority Key Identifier: 
                keyid:DD:4E:68:EB:75:AA:23:D5:F2:19:0A:DA:16:99:B4:64:3B:E4:D1:1B
                DirName:/CN=team200-net
                serial:3E:C4:4D:F6:E7:91:88:72:2E:E3:1B:2F:FF:A9:A4:64:BF:BE:8C:E2

            X509v3 Extended Key Usage: 
                TLS Web Client Authentication
            X509v3 Key Usage: 
                Digital Signature
    Signature Algorithm: sha256WithRSAEncryption
         0d:f2:79:d0:ed:b2:a0:d5:49:a1:43:db:aa:3b:cf:e7:4f:bf:
         66:27:d4:54:2f:12:e3:cb:3d:13:5b:64:65:f7:66:de:93:d5:
         a2:54:91:2d:0f:0f:40:a1:82:b5:17:18:6b:c0:fb:88:39:54:
         02:aa:87:10:91:99:c9:17:7d:3a:6d:c0:48:68:70:8e:84:eb:
         79:cb:70:33:61:4d:e6:4a:bf:6c:9d:fd:52:69:a4:69:0f:bd:
         96:1a:dc:ef:73:05:33:f8:72:6d:63:08:0f:d1:5b:b5:74:22:
         20:22:eb:c4:21:2f:82:4b:7d:c8:f9:77:bb:28:2c:39:05:09:
         14:32:66:9a:cd:32:a0:56:bf:b8:d5:9f:da:66:d8:37:e6:74:
         c4:0e:9a:27:61:24:75:3c:86:71:83:55:0f:ae:eb:2f:22:56:
         3c:85:c3:85:9e:be:97:a4:00:95:e0:6c:1b:b8:9c:27:fa:cf:
         3a:4d:8d:c2:5e:fa:08:3b:7f:a3:9f:a7:a2:5c:9c:91:cb:e9:
         b8:37:95:65:a6:bd:b9:93:7a:11:1a:15:7a:ae:fb:80:89:d5:
         3b:e5:2a:56:2d:69:bd:b1:25:d1:37:e2:a7:3d:f1:be:8a:c7:
         64:60:ea:d0:9b:30:9a:e0:6c:7d:cd:89:95:85:1b:f6:22:cc:
         a5:ed:40:67
-----BEGIN CERTIFICATE-----
MIIDXTCCAkWgAwIBAgIRALIis/r7LuKH8yALQ2vATRAwDQYJKoZIhvcNAQELBQAw
FjEUMBIGA1UEAwwLdGVhbTIwMC1uZXQwHhcNMjEwOTEzMDAyODUzWhcNMjQwODI4
MDAyODUzWjAZMRcwFQYDVQQDDA50ZWFtMjAwLWNsaWVudDCCASIwDQYJKoZIhvcN
AQEBBQADggEPADCCAQoCggEBAOta+rhNj+EbRODUthY7Sd4/Adx43elA9YYkKh7J
D1cvjMpiKYQ9oUkqSKirPV8hZlwANgUnBSayM4hnTPIOdWiv1/j8MKrpIOdgGs31
N9oz8i/qXRf6uWUEiL++Mesq+HWBrrnwLHMgkUIDalGg/mc1W30LxVRe71OaoHQU
aJMQxeO/npgEKhoCPGj3vAY75xkHyc91TNuphZpx9LRywAywW3lRvlgYiGbYMqA6
9HemIHaJneRPDDRoGT5K2oOFc4gRoDb3k2rPEnNhDRkGlxPyIzNFzOzWFO1rtDyk
WqOhjON4t/o6gXj234LDiazqfi3HKJjfq0kpSpX02+S7NyECAwEAAaOBojCBnzAJ
BgNVHRMEAjAAMB0GA1UdDgQWBBQAIBazsUNIsgpO5r5hbaMW2BBtKDBRBgNVHSME
SjBIgBTdTmjrdaoj1fIZCtoWmbRkO+TRG6EapBgwFjEUMBIGA1UEAwwLdGVhbTIw
MC1uZXSCFD7ETfbnkYhyLuMbL/+ppGS/voziMBMGA1UdJQQMMAoGCCsGAQUFBwMC
MAsGA1UdDwQEAwIHgDANBgkqhkiG9w0BAQsFAAOCAQEADfJ50O2yoNVJoUPbqjvP
50+/ZifUVC8S48s9E1tkZfdm3pPVolSRLQ8PQKGCtRcYa8D7iDlUAqqHEJGZyRd9
Om3ASGhwjoTrectwM2FN5kq/bJ39UmmkaQ+9lhrc73MFM/hybWMID9FbtXQiICLr
xCEvgkt9yPl3uygsOQUJFDJmms0yoFa/uNWf2mbYN+Z0xA6aJ2EkdTyGcYNVD67r
LyJWPIXDhZ6+l6QAleBsG7icJ/rPOk2Nwl76CDt/o5+nolyckcvpuDeVZaa9uZN6
ERoVeq77gInVO+UqVi1pvbEl0Tfipz3xvorHZGDq0JswmuBsfc2JlYUb9iLMpe1A
Zw==
-----END CERTIFICATE-----
