Certificate:
    Data:
        Version: 3 (0x2)
        Serial Number:
            ac:be:c4:63:de:91:a9:36:db:8c:e0:1e:52:0f:1e:75
        Signature Algorithm: sha256WithRSAEncryption
        Issuer: CN=team444-net
        Validity
            Not Before: Sep 13 02:38:29 2021 GMT
            Not After : Aug 28 02:38:29 2024 GMT
        Subject: CN=team444-server
        Subject Public Key Info:
            Public Key Algorithm: rsaEncryption
                RSA Public-Key: (2048 bit)
                Modulus:
                    00:d1:00:87:78:26:92:c4:e5:f6:6f:fe:61:ec:d5:
                    87:e9:eb:05:08:8a:e4:be:08:39:9a:4e:7b:cc:a9:
                    49:b5:97:56:3c:df:eb:7b:8d:50:0c:9d:0a:dd:ac:
                    eb:ca:25:fc:8b:95:8c:00:fa:5d:d3:9d:28:9c:1b:
                    fb:be:11:94:6c:40:c2:aa:94:b1:2b:a0:97:62:6c:
                    88:92:aa:8b:cd:51:28:6c:e9:ee:8e:8b:de:c6:d3:
                    c4:89:01:05:1b:44:1b:44:ca:c9:4c:2b:e9:f7:2f:
                    1d:9d:19:be:26:1a:34:84:2c:62:90:8d:4e:e4:ba:
                    a4:ae:b8:59:24:27:f1:28:fd:06:5c:65:3d:c9:14:
                    13:0f:cf:52:a4:4d:8b:87:8e:f9:34:21:b0:f3:72:
                    a5:b1:0b:02:04:0a:a3:ed:8a:f8:2c:ed:26:64:f6:
                    4a:1f:d4:60:c1:9b:f5:66:0b:f2:9b:cd:db:d0:5a:
                    2f:84:83:85:b8:07:1a:22:01:a6:15:61:97:25:3c:
                    7c:05:c8:0d:47:ed:18:67:1a:fc:f2:e7:19:89:73:
                    db:82:76:1e:df:a2:e1:d9:ea:58:9f:29:26:46:6f:
                    05:0e:cc:05:f4:01:f8:91:b7:67:27:a1:93:2f:af:
                    a5:29:e4:0e:9f:da:a0:84:37:0d:93:28:0b:50:3a:
                    b8:7b
                Exponent: 65537 (0x10001)
        X509v3 extensions:
            X509v3 Basic Constraints: 
                CA:FALSE
            X509v3 Subject Key Identifier: 
                86:B7:C3:48:2A:74:91:A7:E3:2C:3C:F3:D6:44:F9:3A:C6:A7:12:20
            X509v3 Authority Key Identifier: 
                keyid:46:FC:15:20:27:46:15:02:DE:37:85:2E:CD:53:39:47:8D:33:26:1B
                DirName:/CN=team444-net
                serial:1B:FB:55:82:BA:B4:AC:E3:74:F3:B0:7F:AD:C8:56:32:3A:3D:B5:C0

            X509v3 Extended Key Usage: 
                TLS Web Server Authentication
            X509v3 Key Usage: 
                Digital Signature, Key Encipherment
            X509v3 Subject Alternative Name: 
                DNS:team444-server
    Signature Algorithm: sha256WithRSAEncryption
         74:2b:71:57:d1:a8:8d:74:ab:2e:d8:70:f1:63:c6:7b:33:9e:
         ad:04:64:7f:8f:c2:ec:66:f8:92:45:1a:35:7e:e3:a4:8a:b7:
         cd:cf:0c:2a:c6:60:fe:50:91:ce:1b:fc:eb:6b:5e:92:8a:ea:
         09:ba:a7:73:89:62:52:a4:b5:91:15:04:03:97:62:36:37:59:
         c3:7d:d7:98:7e:dd:4e:08:09:69:52:43:8b:ae:8b:69:ee:5a:
         a4:62:9c:14:f5:30:b3:05:b7:e1:29:e2:ca:15:3c:1e:89:da:
         cf:01:66:52:d4:88:ce:7d:0d:aa:92:7e:47:57:bb:8c:32:f2:
         cc:dc:48:90:9b:11:9c:00:3c:29:e6:18:c1:4a:cd:86:c0:4d:
         77:b6:57:40:de:b3:6c:91:72:c4:d7:ed:fb:2a:9f:70:5c:cc:
         2c:44:b9:1c:bf:7c:0d:62:ab:99:84:83:ef:6d:59:b3:2f:01:
         af:88:e8:c4:f0:74:c6:c8:4a:ff:a9:8a:e0:b0:00:d5:74:bc:
         f4:99:ee:8e:b0:e0:ad:e2:af:d6:f5:ff:3a:eb:53:dd:fc:c3:
         09:29:ec:c0:2c:b6:9b:e3:97:1d:c2:b0:24:6a:29:9f:59:df:
         8d:30:d1:b0:79:aa:8c:56:44:f6:da:1f:a5:60:d8:37:83:e2:
         44:3c:de:cf
-----BEGIN CERTIFICATE-----
MIIDeDCCAmCgAwIBAgIRAKy+xGPekak224zgHlIPHnUwDQYJKoZIhvcNAQELBQAw
FjEUMBIGA1UEAwwLdGVhbTQ0NC1uZXQwHhcNMjEwOTEzMDIzODI5WhcNMjQwODI4
MDIzODI5WjAZMRcwFQYDVQQDDA50ZWFtNDQ0LXNlcnZlcjCCASIwDQYJKoZIhvcN
AQEBBQADggEPADCCAQoCggEBANEAh3gmksTl9m/+YezVh+nrBQiK5L4IOZpOe8yp
SbWXVjzf63uNUAydCt2s68ol/IuVjAD6XdOdKJwb+74RlGxAwqqUsSugl2JsiJKq
i81RKGzp7o6L3sbTxIkBBRtEG0TKyUwr6fcvHZ0ZviYaNIQsYpCNTuS6pK64WSQn
8Sj9BlxlPckUEw/PUqRNi4eO+TQhsPNypbELAgQKo+2K+CztJmT2Sh/UYMGb9WYL
8pvN29BaL4SDhbgHGiIBphVhlyU8fAXIDUftGGca/PLnGYlz24J2Ht+i4dnqWJ8p
JkZvBQ7MBfQB+JG3Zyehky+vpSnkDp/aoIQ3DZMoC1A6uHsCAwEAAaOBvTCBujAJ
BgNVHRMEAjAAMB0GA1UdDgQWBBSGt8NIKnSRp+MsPPPWRPk6xqcSIDBRBgNVHSME
SjBIgBRG/BUgJ0YVAt43hS7NUzlHjTMmG6EapBgwFjEUMBIGA1UEAwwLdGVhbTQ0
NC1uZXSCFBv7VYK6tKzjdPOwf63IVjI6PbXAMBMGA1UdJQQMMAoGCCsGAQUFBwMB
MAsGA1UdDwQEAwIFoDAZBgNVHREEEjAQgg50ZWFtNDQ0LXNlcnZlcjANBgkqhkiG
9w0BAQsFAAOCAQEAdCtxV9GojXSrLthw8WPGezOerQRkf4/C7Gb4kkUaNX7jpIq3
zc8MKsZg/lCRzhv862tekorqCbqnc4liUqS1kRUEA5diNjdZw33XmH7dTggJaVJD
i66Lae5apGKcFPUwswW34SniyhU8HonazwFmUtSIzn0NqpJ+R1e7jDLyzNxIkJsR
nAA8KeYYwUrNhsBNd7ZXQN6zbJFyxNft+yqfcFzMLES5HL98DWKrmYSD721Zsy8B
r4joxPB0xshK/6mK4LAA1XS89JnujrDgreKv1vX/OutT3fzDCSnswCy2m+OXHcKw
JGopn1nfjTDRsHmqjFZE9tofpWDYN4PiRDzezw==
-----END CERTIFICATE-----
