Certificate:
    Data:
        Version: 3 (0x2)
        Serial Number:
            bf:b1:a7:99:e8:c4:be:ed:e8:2c:7c:3a:e1:91:10:17
        Signature Algorithm: sha256WithRSAEncryption
        Issuer: CN=team444-net
        Validity
            Not Before: Sep 13 02:38:28 2021 GMT
            Not After : Aug 28 02:38:28 2024 GMT
        Subject: CN=team444-client
        Subject Public Key Info:
            Public Key Algorithm: rsaEncryption
                RSA Public-Key: (2048 bit)
                Modulus:
                    00:ba:4e:93:66:13:d2:3b:ad:4d:00:da:c8:9f:9a:
                    82:d1:ed:43:81:a4:9a:b2:ae:e3:db:97:6f:d8:da:
                    d9:59:05:32:e1:c5:8a:98:03:4a:c7:ef:32:a7:4e:
                    02:8c:f6:87:4d:2b:c8:e6:0a:ce:0a:30:5b:d0:ba:
                    78:4d:52:ef:1c:b7:d7:d3:61:b5:2a:ba:9f:1d:30:
                    7f:9c:5a:c6:96:9f:27:1b:b1:c5:fd:8c:7f:26:3e:
                    f3:45:50:8e:08:43:c2:96:22:04:87:94:b0:29:38:
                    4c:8c:e9:7b:b1:a7:64:90:6b:31:13:62:23:5f:35:
                    be:16:0b:7b:57:eb:de:37:6a:f1:5f:84:86:fc:2b:
                    4e:6e:e3:70:96:07:c8:2e:f3:05:06:3c:3a:cd:94:
                    e5:9d:3b:b6:81:36:ec:c3:c1:bc:de:0b:d6:25:f2:
                    84:71:f1:07:1e:89:2f:5b:9d:a9:ae:3b:e3:2b:7d:
                    75:82:0f:4c:0a:ca:4f:63:72:0d:ee:a0:4a:e2:11:
                    bd:2b:8e:de:3a:50:6b:49:01:42:14:50:4b:aa:f6:
                    9e:7b:aa:27:23:2d:4e:8d:06:5d:b2:16:be:ed:e2:
                    35:8a:31:1f:72:9f:a1:83:59:c2:8c:90:81:45:05:
                    11:87:91:b6:3f:52:61:39:c3:13:29:48:a9:43:ad:
                    4f:a7
                Exponent: 65537 (0x10001)
        X509v3 extensions:
            X509v3 Basic Constraints: 
                CA:FALSE
            X509v3 Subject Key Identifier: 
                A0:E5:5C:DB:2B:13:27:57:1A:69:03:04:BB:91:F5:D1:BE:B8:AA:D0
            X509v3 Authority Key Identifier: 
                keyid:46:FC:15:20:27:46:15:02:DE:37:85:2E:CD:53:39:47:8D:33:26:1B
                DirName:/CN=team444-net
                serial:1B:FB:55:82:BA:B4:AC:E3:74:F3:B0:7F:AD:C8:56:32:3A:3D:B5:C0

            X509v3 Extended Key Usage: 
                TLS Web Client Authentication
            X509v3 Key Usage: 
                Digital Signature
    Signature Algorithm: sha256WithRSAEncryption
         8d:65:c2:c5:7f:ac:21:8e:68:25:17:a6:11:62:4c:e0:e9:6c:
         17:2e:ac:86:84:64:67:a8:c9:f5:1f:ed:31:04:db:a0:f8:e0:
         3b:d2:33:49:78:cf:ee:4f:52:f2:74:b6:95:9b:90:d2:0d:8d:
         5b:d9:1d:21:29:c8:dd:aa:b4:5f:c9:78:34:87:1d:1a:f3:2f:
         c2:2a:9c:80:d3:43:be:a8:cf:c4:ab:95:ec:2a:4b:3e:c1:5e:
         79:d2:fb:67:cc:89:73:1a:ed:c1:44:a0:41:08:47:28:a9:a6:
         ea:da:ee:24:8c:cc:e5:f1:11:72:a0:f4:ea:5f:49:7c:59:e7:
         7c:a6:03:2b:63:96:b0:13:a2:10:23:a6:18:b5:81:94:9b:8a:
         e3:75:b7:01:1e:ab:8e:e5:8d:3c:89:cf:d8:51:64:5b:f6:f1:
         c1:00:16:b7:e7:66:16:43:a1:21:f3:a4:ab:e3:03:09:14:92:
         83:26:92:8e:aa:c8:38:f1:ed:b0:7f:34:59:d5:fa:6c:b1:33:
         8c:60:ba:f3:bd:e7:b1:c3:9f:7f:6d:06:46:1f:8e:2c:2f:37:
         9b:f1:63:fc:c1:59:20:5e:fb:6d:50:33:0d:d5:71:59:a4:e4:
         94:a7:0a:f5:4a:cc:ec:b7:47:36:66:8e:a8:fa:a0:e4:d7:50:
         17:b7:87:29
-----BEGIN CERTIFICATE-----
MIIDXTCCAkWgAwIBAgIRAL+xp5noxL7t6Cx8OuGREBcwDQYJKoZIhvcNAQELBQAw
FjEUMBIGA1UEAwwLdGVhbTQ0NC1uZXQwHhcNMjEwOTEzMDIzODI4WhcNMjQwODI4
MDIzODI4WjAZMRcwFQYDVQQDDA50ZWFtNDQ0LWNsaWVudDCCASIwDQYJKoZIhvcN
AQEBBQADggEPADCCAQoCggEBALpOk2YT0jutTQDayJ+agtHtQ4GkmrKu49uXb9ja
2VkFMuHFipgDSsfvMqdOAoz2h00ryOYKzgowW9C6eE1S7xy319NhtSq6nx0wf5xa
xpafJxuxxf2MfyY+80VQjghDwpYiBIeUsCk4TIzpe7GnZJBrMRNiI181vhYLe1fr
3jdq8V+EhvwrTm7jcJYHyC7zBQY8Os2U5Z07toE27MPBvN4L1iXyhHHxBx6JL1ud
qa474yt9dYIPTArKT2NyDe6gSuIRvSuO3jpQa0kBQhRQS6r2nnuqJyMtTo0GXbIW
vu3iNYoxH3KfoYNZwoyQgUUFEYeRtj9SYTnDEylIqUOtT6cCAwEAAaOBojCBnzAJ
BgNVHRMEAjAAMB0GA1UdDgQWBBSg5VzbKxMnVxppAwS7kfXRvriq0DBRBgNVHSME
SjBIgBRG/BUgJ0YVAt43hS7NUzlHjTMmG6EapBgwFjEUMBIGA1UEAwwLdGVhbTQ0
NC1uZXSCFBv7VYK6tKzjdPOwf63IVjI6PbXAMBMGA1UdJQQMMAoGCCsGAQUFBwMC
MAsGA1UdDwQEAwIHgDANBgkqhkiG9w0BAQsFAAOCAQEAjWXCxX+sIY5oJRemEWJM
4OlsFy6shoRkZ6jJ9R/tMQTboPjgO9IzSXjP7k9S8nS2lZuQ0g2NW9kdISnI3aq0
X8l4NIcdGvMvwiqcgNNDvqjPxKuV7CpLPsFeedL7Z8yJcxrtwUSgQQhHKKmm6tru
JIzM5fERcqD06l9JfFnnfKYDK2OWsBOiECOmGLWBlJuK43W3AR6rjuWNPInP2FFk
W/bxwQAWt+dmFkOhIfOkq+MDCRSSgyaSjqrIOPHtsH80WdX6bLEzjGC6873nscOf
f20GRh+OLC83m/Fj/MFZIF77bVAzDdVxWaTklKcK9UrM7LdHNmaOqPqg5NdQF7eH
KQ==
-----END CERTIFICATE-----
