Certificate:
    Data:
        Version: 3 (0x2)
        Serial Number:
            82:41:11:d3:d5:4e:d9:ba:d9:76:05:f1:81:45:46:74
        Signature Algorithm: sha256WithRSAEncryption
        Issuer: CN=team259-net
        Validity
            Not Before: Sep 13 01:08:29 2021 GMT
            Not After : Aug 28 01:08:29 2024 GMT
        Subject: CN=team259-server
        Subject Public Key Info:
            Public Key Algorithm: rsaEncryption
                RSA Public-Key: (2048 bit)
                Modulus:
                    00:c6:28:71:05:87:1c:cf:89:58:41:d1:b9:f1:d3:
                    3f:c9:03:f2:98:e2:bd:e2:93:5b:b3:74:03:dc:01:
                    9c:5d:a2:3d:5c:83:fa:4a:a3:5f:a3:e8:a7:3a:07:
                    ba:28:b6:47:b2:26:3c:57:0f:3a:26:52:80:f1:d1:
                    43:f4:87:3a:99:32:a9:a7:1b:de:47:d1:7d:1e:c9:
                    da:3b:88:8c:e1:44:07:f5:b2:53:b1:a7:dc:96:2d:
                    61:0e:10:ed:e8:35:7b:d0:77:74:1d:21:85:d0:74:
                    40:77:50:1e:d3:b1:70:23:32:4d:fb:46:09:b6:ef:
                    59:a1:2f:37:1b:14:ff:a7:74:e4:32:2d:6b:87:2d:
                    b8:90:f1:8e:0f:1f:88:1f:b5:09:e9:83:90:83:0f:
                    e3:3f:26:90:29:02:72:28:1d:e4:bc:04:b4:85:57:
                    15:ba:ee:39:6b:fb:79:5b:30:59:8e:24:26:fb:05:
                    86:7d:46:3e:ed:f0:d9:a1:38:09:c5:0a:3f:ed:fd:
                    c7:c2:c9:f2:50:a8:d3:73:2c:04:b9:ed:a9:81:4f:
                    c4:4e:8e:be:5a:7b:ab:fe:f6:b1:3a:84:45:0d:39:
                    92:c0:53:70:1c:9f:c8:48:9e:ff:2b:de:b5:93:e5:
                    e5:fd:e1:6a:74:ce:78:1e:25:ec:93:0c:3a:3d:0b:
                    a9:4f
                Exponent: 65537 (0x10001)
        X509v3 extensions:
            X509v3 Basic Constraints: 
                CA:FALSE
            X509v3 Subject Key Identifier: 
                5F:34:C7:4C:80:87:E8:9B:09:47:2C:B8:B5:9E:01:67:DA:D2:D8:02
            X509v3 Authority Key Identifier: 
                keyid:59:AD:55:2D:76:EA:F5:29:98:4B:C3:01:27:69:F7:50:49:30:C4:14
                DirName:/CN=team259-net
                serial:75:2B:57:B5:AD:0C:E3:25:B3:91:03:00:D8:B8:2E:2F:37:37:E6:8C

            X509v3 Extended Key Usage: 
                TLS Web Server Authentication
            X509v3 Key Usage: 
                Digital Signature, Key Encipherment
            X509v3 Subject Alternative Name: 
                DNS:team259-server
    Signature Algorithm: sha256WithRSAEncryption
         5f:18:0d:43:89:7d:0a:a7:c6:31:4a:c5:09:71:38:9e:1e:5b:
         50:a7:b0:47:81:31:2d:ea:67:e4:ae:0f:69:79:ac:28:f8:5f:
         32:94:c6:2f:3a:f8:0e:b0:24:e7:de:80:a7:4e:80:ad:ab:8d:
         84:34:b6:5b:d4:44:cb:8d:cf:1c:ca:03:a7:50:2e:7a:6a:f0:
         c0:f8:09:b1:64:a2:9c:74:63:dd:88:84:4f:45:fa:bc:34:37:
         b7:4f:84:53:30:96:b5:22:32:63:ae:71:d8:4b:c8:22:8a:79:
         60:b6:78:66:2a:25:8b:e0:d8:c3:3a:19:5b:29:cf:a8:ea:15:
         bd:35:f8:a2:c7:49:d3:be:d2:67:7e:34:ee:02:c9:59:95:d0:
         56:d1:84:7f:77:66:21:a0:45:13:e3:c1:c8:de:0a:8b:70:0a:
         18:b7:15:ee:a8:c2:e9:3d:6c:53:77:51:d5:58:88:37:46:25:
         04:57:a7:c9:29:20:c5:64:30:ef:84:ca:49:3b:11:16:a9:cd:
         15:a4:9a:6d:43:ce:2c:6f:94:18:1f:03:0e:70:6e:ee:0a:d1:
         6f:54:25:d7:e3:15:5a:2b:48:e5:0a:2e:6b:8a:c0:b9:c3:3e:
         af:61:67:f8:1f:1f:8f:b5:79:5c:be:7c:58:f1:d0:1f:fa:2b:
         11:e9:81:81
-----BEGIN CERTIFICATE-----
MIIDeDCCAmCgAwIBAgIRAIJBEdPVTtm62XYF8YFFRnQwDQYJKoZIhvcNAQELBQAw
FjEUMBIGA1UEAwwLdGVhbTI1OS1uZXQwHhcNMjEwOTEzMDEwODI5WhcNMjQwODI4
MDEwODI5WjAZMRcwFQYDVQQDDA50ZWFtMjU5LXNlcnZlcjCCASIwDQYJKoZIhvcN
AQEBBQADggEPADCCAQoCggEBAMYocQWHHM+JWEHRufHTP8kD8pjiveKTW7N0A9wB
nF2iPVyD+kqjX6PopzoHuii2R7ImPFcPOiZSgPHRQ/SHOpkyqacb3kfRfR7J2juI
jOFEB/WyU7Gn3JYtYQ4Q7eg1e9B3dB0hhdB0QHdQHtOxcCMyTftGCbbvWaEvNxsU
/6d05DIta4ctuJDxjg8fiB+1CemDkIMP4z8mkCkCcigd5LwEtIVXFbruOWv7eVsw
WY4kJvsFhn1GPu3w2aE4CcUKP+39x8LJ8lCo03MsBLntqYFPxE6Ovlp7q/72sTqE
RQ05ksBTcByfyEie/yvetZPl5f3hanTOeB4l7JMMOj0LqU8CAwEAAaOBvTCBujAJ
BgNVHRMEAjAAMB0GA1UdDgQWBBRfNMdMgIfomwlHLLi1ngFn2tLYAjBRBgNVHSME
SjBIgBRZrVUtdur1KZhLwwEnafdQSTDEFKEapBgwFjEUMBIGA1UEAwwLdGVhbTI1
OS1uZXSCFHUrV7WtDOMls5EDANi4Li83N+aMMBMGA1UdJQQMMAoGCCsGAQUFBwMB
MAsGA1UdDwQEAwIFoDAZBgNVHREEEjAQgg50ZWFtMjU5LXNlcnZlcjANBgkqhkiG
9w0BAQsFAAOCAQEAXxgNQ4l9CqfGMUrFCXE4nh5bUKewR4ExLepn5K4PaXmsKPhf
MpTGLzr4DrAk596Ap06ArauNhDS2W9REy43PHMoDp1AuemrwwPgJsWSinHRj3YiE
T0X6vDQ3t0+EUzCWtSIyY65x2EvIIop5YLZ4Zioli+DYwzoZWynPqOoVvTX4osdJ
077SZ3407gLJWZXQVtGEf3dmIaBFE+PByN4Ki3AKGLcV7qjC6T1sU3dR1ViIN0Yl
BFenySkgxWQw74TKSTsRFqnNFaSabUPOLG+UGB8DDnBu7grRb1Ql1+MVWitI5Qou
a4rAucM+r2Fn+B8fj7V5XL58WPHQH/orEemBgQ==
-----END CERTIFICATE-----
