Certificate:
    Data:
        Version: 3 (0x2)
        Serial Number:
            fd:71:77:66:d8:71:be:9e:54:7e:ef:69:63:ca:87:b3
        Signature Algorithm: sha256WithRSAEncryption
        Issuer: CN=team126-net
        Validity
            Not Before: Sep 12 23:50:27 2021 GMT
            Not After : Aug 27 23:50:27 2024 GMT
        Subject: CN=team126-client
        Subject Public Key Info:
            Public Key Algorithm: rsaEncryption
                RSA Public-Key: (2048 bit)
                Modulus:
                    00:c6:4d:5d:d2:ea:2d:ab:a8:78:35:4b:64:c6:4b:
                    91:40:25:d6:e8:7d:9f:ce:e0:c5:30:d1:11:b7:6d:
                    ad:5d:b5:f7:20:8d:78:ae:00:33:45:76:81:e1:31:
                    0e:00:4b:ae:39:31:97:7e:80:17:fd:74:72:26:da:
                    9f:c0:61:49:79:86:7b:e0:16:ab:ae:35:65:0a:d6:
                    ba:bd:fa:77:44:7b:a4:cf:cc:50:8d:94:09:1c:6c:
                    71:9c:76:74:f9:46:35:1c:9f:bf:b0:60:2b:a8:2d:
                    c6:75:62:da:61:32:96:61:65:79:3f:5c:81:32:19:
                    b2:23:12:91:07:7c:8f:87:9c:ef:2f:2c:89:ae:47:
                    5e:cd:85:3a:40:2e:88:99:c8:ff:6f:46:a2:5a:4d:
                    d3:72:f1:4b:8a:bb:a0:fa:ac:9b:56:6a:2a:e9:39:
                    7a:59:86:8f:11:98:c6:4a:77:c0:22:12:a0:7f:6e:
                    90:1a:88:c2:7e:7b:fb:31:06:51:dc:de:31:5e:33:
                    25:61:54:9c:a5:fd:3d:32:e7:9e:03:68:33:dc:36:
                    f9:3c:1e:45:3a:48:a2:7e:ff:5e:55:e2:17:2a:ac:
                    95:4b:8f:0a:10:05:88:4b:ac:e4:9a:cd:26:21:a8:
                    80:cb:77:6f:19:eb:d1:17:0e:18:d1:29:f8:99:33:
                    0c:73
                Exponent: 65537 (0x10001)
        X509v3 extensions:
            X509v3 Basic Constraints: 
                CA:FALSE
            X509v3 Subject Key Identifier: 
                59:60:2B:A0:E6:A5:17:4A:DB:04:CA:EE:61:B5:25:C9:37:AC:9C:9A
            X509v3 Authority Key Identifier: 
                keyid:B8:AC:ED:E6:C5:BB:8E:C7:5E:F0:0C:50:92:EF:D6:57:59:2B:65:FE
                DirName:/CN=team126-net
                serial:68:F2:0A:57:0B:CE:4A:7E:32:CC:EE:68:EC:B7:4B:38:42:49:69:05

            X509v3 Extended Key Usage: 
                TLS Web Client Authentication
            X509v3 Key Usage: 
                Digital Signature
    Signature Algorithm: sha256WithRSAEncryption
         be:e3:c1:0c:83:46:02:4b:eb:04:6a:e2:46:a2:20:b6:3c:8b:
         0b:5d:e9:d1:27:33:17:21:e7:29:16:b6:8b:78:b4:f1:d6:0a:
         7f:61:2a:b3:af:f2:9a:73:38:2d:49:b9:18:00:ac:a9:7e:44:
         d0:1b:52:94:cd:12:7b:db:cc:76:bd:81:0e:23:0e:cc:28:e9:
         5c:84:33:23:a4:cf:7b:63:f0:0b:05:33:f3:43:fe:3a:86:e1:
         c9:1d:5f:84:21:b2:bc:9d:3c:8e:f6:10:4e:c2:07:37:08:18:
         88:8c:37:5d:24:6c:06:8d:9e:30:1c:1c:03:ec:97:1d:0f:22:
         a5:02:5d:e9:dc:66:4c:9a:bb:41:01:75:bd:a8:e8:8d:32:00:
         b5:2f:34:86:84:48:44:82:47:c0:c2:cd:fd:d5:2d:b5:b0:6c:
         d8:b5:ed:2a:15:a8:b3:10:1b:11:b8:9b:b2:e2:c1:6a:29:99:
         2c:71:90:67:d4:86:65:f9:31:73:56:eb:54:16:83:42:8f:58:
         ed:58:8e:94:b6:a4:f4:a7:ac:60:42:5e:4e:45:f9:72:fc:06:
         dd:6a:64:67:c5:d8:29:85:d5:61:59:f4:76:b5:68:e8:5a:c8:
         dc:10:e7:ec:37:ff:47:0b:4a:df:73:6c:c1:6b:92:66:1f:c1:
         00:4a:15:87
-----BEGIN CERTIFICATE-----
MIIDXTCCAkWgAwIBAgIRAP1xd2bYcb6eVH7vaWPKh7MwDQYJKoZIhvcNAQELBQAw
FjEUMBIGA1UEAwwLdGVhbTEyNi1uZXQwHhcNMjEwOTEyMjM1MDI3WhcNMjQwODI3
MjM1MDI3WjAZMRcwFQYDVQQDDA50ZWFtMTI2LWNsaWVudDCCASIwDQYJKoZIhvcN
AQEBBQADggEPADCCAQoCggEBAMZNXdLqLauoeDVLZMZLkUAl1uh9n87gxTDREbdt
rV219yCNeK4AM0V2geExDgBLrjkxl36AF/10ciban8BhSXmGe+AWq641ZQrWur36
d0R7pM/MUI2UCRxscZx2dPlGNRyfv7BgK6gtxnVi2mEylmFleT9cgTIZsiMSkQd8
j4ec7y8sia5HXs2FOkAuiJnI/29GolpN03LxS4q7oPqsm1ZqKuk5elmGjxGYxkp3
wCISoH9ukBqIwn57+zEGUdzeMV4zJWFUnKX9PTLnngNoM9w2+TweRTpIon7/XlXi
FyqslUuPChAFiEus5JrNJiGogMt3bxnr0RcOGNEp+JkzDHMCAwEAAaOBojCBnzAJ
BgNVHRMEAjAAMB0GA1UdDgQWBBRZYCug5qUXStsEyu5htSXJN6ycmjBRBgNVHSME
SjBIgBS4rO3mxbuOx17wDFCS79ZXWStl/qEapBgwFjEUMBIGA1UEAwwLdGVhbTEy
Ni1uZXSCFGjyClcLzkp+MszuaOy3SzhCSWkFMBMGA1UdJQQMMAoGCCsGAQUFBwMC
MAsGA1UdDwQEAwIHgDANBgkqhkiG9w0BAQsFAAOCAQEAvuPBDINGAkvrBGriRqIg
tjyLC13p0SczFyHnKRa2i3i08dYKf2Eqs6/ymnM4LUm5GACsqX5E0BtSlM0Se9vM
dr2BDiMOzCjpXIQzI6TPe2PwCwUz80P+OobhyR1fhCGyvJ08jvYQTsIHNwgYiIw3
XSRsBo2eMBwcA+yXHQ8ipQJd6dxmTJq7QQF1vajojTIAtS80hoRIRIJHwMLN/dUt
tbBs2LXtKhWosxAbEbibsuLBaimZLHGQZ9SGZfkxc1brVBaDQo9Y7ViOlLak9Kes
YEJeTkX5cvwG3WpkZ8XYKYXVYVn0drVo6FrI3BDn7Df/RwtK33NswWuSZh/BAEoV
hw==
-----END CERTIFICATE-----
