Certificate:
    Data:
        Version: 3 (0x2)
        Serial Number:
            68:14:57:c3:07:97:51:23:69:20:ae:ee:47:0f:8b:61
        Signature Algorithm: sha256WithRSAEncryption
        Issuer: CN=team699-net
        Validity
            Not Before: Sep 13 05:19:53 2021 GMT
            Not After : Aug 28 05:19:53 2024 GMT
        Subject: CN=team699-server
        Subject Public Key Info:
            Public Key Algorithm: rsaEncryption
                RSA Public-Key: (2048 bit)
                Modulus:
                    00:d8:7c:6c:73:c0:7b:0c:81:1f:cf:8f:1d:af:69:
                    f7:3a:b0:03:b4:2d:bd:96:a5:21:e8:62:93:d6:58:
                    97:51:4b:d9:bd:80:ef:d8:02:d7:82:d9:27:13:49:
                    4e:07:ba:04:3c:9c:06:a7:c5:e2:c8:26:ec:a5:92:
                    e7:02:6d:80:0d:a6:07:31:48:13:75:12:e9:66:a2:
                    98:44:20:a6:2a:c3:66:13:48:67:f0:3d:82:ab:ba:
                    30:ac:18:c1:22:8f:5f:32:04:13:4b:dd:c1:a0:ea:
                    d1:47:12:0d:8c:7e:3e:31:95:8c:f5:fe:36:00:21:
                    de:e6:6f:d4:bb:e2:1a:cb:9e:00:4f:ec:c8:aa:09:
                    be:b0:53:7c:38:bb:c2:e2:6a:a2:f1:30:00:c3:3c:
                    35:17:0f:0c:08:4a:50:72:f1:6b:99:d2:1b:70:fd:
                    e0:9a:c6:03:a3:94:9a:22:33:72:c2:50:0b:4e:aa:
                    17:08:a5:43:4a:c6:10:60:0b:64:6b:9b:74:62:0d:
                    1c:6f:c2:a3:b7:6f:22:23:5c:d5:00:6d:a7:07:bd:
                    46:07:eb:a3:8b:09:d8:37:d3:6d:b1:60:17:81:f4:
                    f2:20:74:35:b7:dc:e2:f4:7a:a0:28:86:59:79:64:
                    d6:16:2d:fd:f1:80:30:75:97:28:74:62:6e:e4:24:
                    ff:bd
                Exponent: 65537 (0x10001)
        X509v3 extensions:
            X509v3 Basic Constraints: 
                CA:FALSE
            X509v3 Subject Key Identifier: 
                A7:FE:F1:E1:43:45:48:3B:DE:68:66:4D:CF:3A:77:B2:CF:6B:5D:C0
            X509v3 Authority Key Identifier: 
                keyid:BC:01:D8:7A:68:15:AE:D5:70:20:88:82:96:0C:3A:DF:5D:A4:90:85
                DirName:/CN=team699-net
                serial:22:DF:57:51:13:5A:92:34:21:72:3E:FB:B4:79:99:7A:A7:61:00:CF

            X509v3 Extended Key Usage: 
                TLS Web Server Authentication
            X509v3 Key Usage: 
                Digital Signature, Key Encipherment
            X509v3 Subject Alternative Name: 
                DNS:team699-server
    Signature Algorithm: sha256WithRSAEncryption
         b0:97:72:97:34:9d:58:bd:48:bb:35:09:8e:33:4d:ed:43:5d:
         1e:e6:43:d5:04:da:dc:d3:f4:d1:01:9c:fb:35:91:d5:f7:a4:
         a9:60:be:5a:49:90:29:e4:0e:68:52:70:c2:75:ce:22:39:b4:
         de:43:3e:17:08:ef:8b:42:bd:cc:32:57:c2:95:12:d1:3f:93:
         33:bb:19:94:3f:64:9b:3d:00:8b:fe:90:dd:4d:96:cb:53:8b:
         29:c8:9c:3d:34:f7:63:9d:34:b9:70:7d:7e:0d:ac:16:7f:f1:
         78:25:16:55:21:38:a8:68:73:20:f5:ed:82:d1:fb:d3:23:ac:
         74:3f:a7:84:ee:b7:34:75:2a:6c:05:9c:64:f3:00:35:ca:aa:
         76:66:98:97:64:80:cf:77:30:53:1a:be:b8:26:03:8f:5a:26:
         34:90:9c:a9:2e:89:eb:c1:5d:95:54:92:5c:71:1b:90:96:ee:
         da:19:fc:94:34:6a:56:91:de:d3:9f:38:6d:e2:02:7f:1f:ed:
         07:e4:05:13:03:b3:ac:6f:cc:f6:00:b5:de:6f:6e:8a:af:4c:
         16:54:b4:74:2a:08:f1:ef:a4:07:c6:54:f4:2c:7d:11:ae:61:
         d1:00:23:d4:3c:53:bb:58:a7:ba:90:4b:0f:77:d3:8d:3d:5b:
         19:bb:9f:8f
-----BEGIN CERTIFICATE-----
MIIDdzCCAl+gAwIBAgIQaBRXwweXUSNpIK7uRw+LYTANBgkqhkiG9w0BAQsFADAW
MRQwEgYDVQQDDAt0ZWFtNjk5LW5ldDAeFw0yMTA5MTMwNTE5NTNaFw0yNDA4Mjgw
NTE5NTNaMBkxFzAVBgNVBAMMDnRlYW02OTktc2VydmVyMIIBIjANBgkqhkiG9w0B
AQEFAAOCAQ8AMIIBCgKCAQEA2Hxsc8B7DIEfz48dr2n3OrADtC29lqUh6GKT1liX
UUvZvYDv2ALXgtknE0lOB7oEPJwGp8XiyCbspZLnAm2ADaYHMUgTdRLpZqKYRCCm
KsNmE0hn8D2Cq7owrBjBIo9fMgQTS93BoOrRRxINjH4+MZWM9f42ACHe5m/Uu+Ia
y54AT+zIqgm+sFN8OLvC4mqi8TAAwzw1Fw8MCEpQcvFrmdIbcP3gmsYDo5SaIjNy
wlALTqoXCKVDSsYQYAtka5t0Yg0cb8Kjt28iI1zVAG2nB71GB+ujiwnYN9NtsWAX
gfTyIHQ1t9zi9HqgKIZZeWTWFi398YAwdZcodGJu5CT/vQIDAQABo4G9MIG6MAkG
A1UdEwQCMAAwHQYDVR0OBBYEFKf+8eFDRUg73mhmTc86d7LPa13AMFEGA1UdIwRK
MEiAFLwB2HpoFa7VcCCIgpYMOt9dpJCFoRqkGDAWMRQwEgYDVQQDDAt0ZWFtNjk5
LW5ldIIUIt9XURNakjQhcj77tHmZeqdhAM8wEwYDVR0lBAwwCgYIKwYBBQUHAwEw
CwYDVR0PBAQDAgWgMBkGA1UdEQQSMBCCDnRlYW02OTktc2VydmVyMA0GCSqGSIb3
DQEBCwUAA4IBAQCwl3KXNJ1YvUi7NQmOM03tQ10e5kPVBNrc0/TRAZz7NZHV96Sp
YL5aSZAp5A5oUnDCdc4iObTeQz4XCO+LQr3MMlfClRLRP5MzuxmUP2SbPQCL/pDd
TZbLU4spyJw9NPdjnTS5cH1+DawWf/F4JRZVITioaHMg9e2C0fvTI6x0P6eE7rc0
dSpsBZxk8wA1yqp2ZpiXZIDPdzBTGr64JgOPWiY0kJypLonrwV2VVJJccRuQlu7a
GfyUNGpWkd7Tnzht4gJ/H+0H5AUTA7Osb8z2ALXeb26Kr0wWVLR0Kgjx76QHxlT0
LH0RrmHRACPUPFO7WKe6kEsPd9ONPVsZu5+P
-----END CERTIFICATE-----
