Certificate:
    Data:
        Version: 3 (0x2)
        Serial Number:
            73:e0:d9:e7:63:d9:99:94:3a:51:08:e5:95:dc:74:20
        Signature Algorithm: sha256WithRSAEncryption
        Issuer: CN=team392-net
        Validity
            Not Before: Sep 13 02:14:35 2021 GMT
            Not After : Aug 28 02:14:35 2024 GMT
        Subject: CN=team392-client
        Subject Public Key Info:
            Public Key Algorithm: rsaEncryption
                RSA Public-Key: (2048 bit)
                Modulus:
                    00:d0:49:c5:df:88:ec:b0:e6:d0:b3:90:59:f4:28:
                    f0:52:cf:de:6a:0c:88:5e:c0:3a:9c:0a:8f:7a:50:
                    03:27:a5:f1:aa:fd:44:64:3a:2b:3c:47:82:40:12:
                    96:c1:44:0a:56:d1:e6:e2:ba:4d:1e:91:cc:ac:e5:
                    18:b6:b4:07:5c:9e:b6:90:71:ca:29:8f:36:77:ae:
                    9e:f3:56:a8:1d:cf:27:f9:dc:b8:61:bb:2c:0e:bc:
                    f5:8c:97:6c:45:85:61:76:aa:2e:8a:66:de:1d:3e:
                    f4:d1:23:52:42:f5:e6:2e:c4:fb:4d:6a:28:1a:c5:
                    5f:00:1a:68:a6:c6:bc:c0:ed:bf:48:39:39:3f:fe:
                    cd:6a:e6:c9:c1:cf:db:36:e5:15:36:1d:d5:8d:85:
                    49:72:ab:36:d6:7c:58:47:c1:cc:c0:6e:0b:db:60:
                    62:d4:ed:a5:f2:4f:f3:03:26:a2:7a:b4:b2:20:a4:
                    47:e1:1e:d7:80:2f:22:1c:65:ef:db:42:02:c9:a2:
                    56:4f:39:75:8c:43:02:3d:33:61:64:2e:c0:74:16:
                    e8:e3:3d:62:6a:74:33:20:6b:df:6e:e8:f3:6a:cf:
                    8e:69:91:ab:66:51:15:7f:2b:3f:aa:8e:14:79:3a:
                    4e:97:cd:d9:12:67:87:98:4d:bb:11:3e:c4:a9:72:
                    76:bd
                Exponent: 65537 (0x10001)
        X509v3 extensions:
            X509v3 Basic Constraints: 
                CA:FALSE
            X509v3 Subject Key Identifier: 
                92:17:F4:E1:4A:AC:E1:54:38:E5:B0:6A:85:47:83:BF:78:25:8D:BE
            X509v3 Authority Key Identifier: 
                keyid:E9:78:8B:C4:3B:00:3F:C5:46:09:38:8F:8F:56:48:71:88:2A:FD:D4
                DirName:/CN=team392-net
                serial:29:6E:B7:84:A5:D1:42:4C:1A:F0:20:5C:D5:03:48:D2:D1:DF:94:50

            X509v3 Extended Key Usage: 
                TLS Web Client Authentication
            X509v3 Key Usage: 
                Digital Signature
    Signature Algorithm: sha256WithRSAEncryption
         27:b3:eb:41:eb:59:d3:0a:f1:ee:c6:f8:97:e7:7d:c2:0f:b0:
         49:70:2d:5e:a0:87:e5:5d:1b:c9:45:8a:98:3f:89:c9:1f:11:
         b9:d6:6a:1a:19:82:95:8f:f4:ef:cf:da:35:bb:42:0e:d1:1e:
         59:c3:fd:e3:a0:7b:f7:a3:10:0f:33:d2:d0:c4:a4:90:95:70:
         6e:e6:b6:72:d0:b5:cb:db:6b:eb:f0:97:bc:b0:17:12:e9:25:
         a7:7e:7f:04:82:7c:92:b3:61:13:26:68:4f:57:9c:e7:ef:8d:
         87:7e:d4:83:59:98:bf:6f:f1:b7:f3:9b:28:65:ae:3c:da:3b:
         9f:51:e7:ce:29:d1:4c:70:f4:39:9f:d1:eb:06:07:6b:d3:14:
         78:c6:ae:b2:10:4a:0f:04:ce:1b:b2:49:89:31:eb:26:95:e3:
         54:2c:8a:d5:81:8a:70:55:dc:b7:8a:1a:e9:ea:83:8d:fd:33:
         dd:5d:5c:44:c6:22:9f:92:2b:ca:d6:21:c6:57:e4:d5:98:cd:
         1f:39:2c:5d:73:87:4f:35:2b:66:ba:c8:23:c2:46:d8:96:cb:
         4f:57:50:ad:03:1d:17:1d:52:68:29:0d:b5:69:d9:3b:f9:dd:
         dd:b1:4d:1f:37:ff:f3:20:98:64:5e:df:62:78:7b:62:4d:e3:
         41:89:c3:cb
-----BEGIN CERTIFICATE-----
MIIDXDCCAkSgAwIBAgIQc+DZ52PZmZQ6UQjlldx0IDANBgkqhkiG9w0BAQsFADAW
MRQwEgYDVQQDDAt0ZWFtMzkyLW5ldDAeFw0yMTA5MTMwMjE0MzVaFw0yNDA4Mjgw
MjE0MzVaMBkxFzAVBgNVBAMMDnRlYW0zOTItY2xpZW50MIIBIjANBgkqhkiG9w0B
AQEFAAOCAQ8AMIIBCgKCAQEA0EnF34jssObQs5BZ9CjwUs/eagyIXsA6nAqPelAD
J6Xxqv1EZDorPEeCQBKWwUQKVtHm4rpNHpHMrOUYtrQHXJ62kHHKKY82d66e81ao
Hc8n+dy4YbssDrz1jJdsRYVhdqouimbeHT700SNSQvXmLsT7TWooGsVfABpopsa8
wO2/SDk5P/7NaubJwc/bNuUVNh3VjYVJcqs21nxYR8HMwG4L22Bi1O2l8k/zAyai
erSyIKRH4R7XgC8iHGXv20ICyaJWTzl1jEMCPTNhZC7AdBbo4z1ianQzIGvfbujz
as+OaZGrZlEVfys/qo4UeTpOl83ZEmeHmE27ET7EqXJ2vQIDAQABo4GiMIGfMAkG
A1UdEwQCMAAwHQYDVR0OBBYEFJIX9OFKrOFUOOWwaoVHg794JY2+MFEGA1UdIwRK
MEiAFOl4i8Q7AD/FRgk4j49WSHGIKv3UoRqkGDAWMRQwEgYDVQQDDAt0ZWFtMzky
LW5ldIIUKW63hKXRQkwa8CBc1QNI0tHflFAwEwYDVR0lBAwwCgYIKwYBBQUHAwIw
CwYDVR0PBAQDAgeAMA0GCSqGSIb3DQEBCwUAA4IBAQAns+tB61nTCvHuxviX533C
D7BJcC1eoIflXRvJRYqYP4nJHxG51moaGYKVj/Tvz9o1u0IO0R5Zw/3joHv3oxAP
M9LQxKSQlXBu5rZy0LXL22vr8Je8sBcS6SWnfn8EgnySs2ETJmhPV5zn742HftSD
WZi/b/G385soZa482jufUefOKdFMcPQ5n9HrBgdr0xR4xq6yEEoPBM4bskmJMesm
leNULIrVgYpwVdy3ihrp6oON/TPdXVxExiKfkivK1iHGV+TVmM0fOSxdc4dPNStm
usgjwkbYlstPV1CtAx0XHVJoKQ21adk7+d3dsU0fN//zIJhkXt9ieHtiTeNBicPL
-----END CERTIFICATE-----
