Certificate:
    Data:
        Version: 3 (0x2)
        Serial Number:
            bc:bb:0c:07:0a:0d:12:3a:f6:c7:cb:f8:a3:c1:15:f0
        Signature Algorithm: sha256WithRSAEncryption
        Issuer: CN=team392-net
        Validity
            Not Before: Sep 13 02:14:35 2021 GMT
            Not After : Aug 28 02:14:35 2024 GMT
        Subject: CN=team392-server
        Subject Public Key Info:
            Public Key Algorithm: rsaEncryption
                RSA Public-Key: (2048 bit)
                Modulus:
                    00:c3:e0:ef:dc:3e:cb:1d:7b:d4:8a:f6:64:8e:40:
                    6d:cf:c2:b9:7d:98:43:55:69:9f:12:54:3a:00:0a:
                    f3:b5:1f:c3:4b:68:08:df:7d:a1:23:e5:02:81:9f:
                    f2:32:59:4d:6f:f8:d4:51:eb:14:d3:d8:50:f5:fb:
                    54:36:73:a2:08:d2:fa:9b:c1:66:39:c2:1c:8f:66:
                    0c:b2:8c:20:66:fa:ca:1d:4e:36:a9:d0:a4:80:f7:
                    23:4c:c4:e6:61:dc:81:04:8d:77:78:df:4a:2f:3c:
                    98:ed:bf:c5:6b:ca:ea:0a:17:6b:34:86:05:82:54:
                    46:a2:f7:ad:dc:37:22:a3:3a:be:78:d7:5b:1d:ae:
                    34:00:bc:05:bc:29:40:32:36:77:48:e5:13:5f:10:
                    ca:f5:17:45:72:1b:fc:4d:47:b5:fb:57:a9:7e:b7:
                    ed:83:fe:0c:de:7a:03:12:9e:ea:37:27:bb:6b:b9:
                    18:66:01:6e:ba:99:f9:f2:04:a0:ad:fc:ce:fe:12:
                    db:0f:ce:f9:96:85:8e:9e:cb:5f:13:be:10:6c:cf:
                    8e:cc:88:8d:d2:f2:1f:36:3b:5c:25:05:1b:f5:ae:
                    52:50:41:a3:3b:f3:58:f7:f9:ce:11:87:cc:34:b5:
                    90:1a:b9:20:2c:4e:7f:bb:0a:7c:1c:38:db:4d:88:
                    07:9d
                Exponent: 65537 (0x10001)
        X509v3 extensions:
            X509v3 Basic Constraints: 
                CA:FALSE
            X509v3 Subject Key Identifier: 
                2C:AE:FE:42:54:DE:83:D1:70:C5:E4:FE:8F:AE:0B:4D:08:92:7A:B5
            X509v3 Authority Key Identifier: 
                keyid:E9:78:8B:C4:3B:00:3F:C5:46:09:38:8F:8F:56:48:71:88:2A:FD:D4
                DirName:/CN=team392-net
                serial:29:6E:B7:84:A5:D1:42:4C:1A:F0:20:5C:D5:03:48:D2:D1:DF:94:50

            X509v3 Extended Key Usage: 
                TLS Web Server Authentication
            X509v3 Key Usage: 
                Digital Signature, Key Encipherment
            X509v3 Subject Alternative Name: 
                DNS:team392-server
    Signature Algorithm: sha256WithRSAEncryption
         ae:39:fe:34:da:bf:ec:f0:af:d2:32:3b:98:7c:de:97:c0:e0:
         c4:cd:c3:fe:76:13:1f:c4:2b:35:89:26:57:30:db:8a:2a:20:
         cf:e0:2c:6a:16:9e:c2:91:f3:cc:93:19:84:19:fc:d7:6f:82:
         43:fd:49:01:81:59:92:c5:ca:b7:5f:e5:ec:1b:01:c9:d8:2a:
         c1:42:17:a3:78:9c:5a:da:61:4a:57:46:41:6e:0b:80:f7:b8:
         4b:18:7b:0d:d3:90:94:d8:be:57:fe:0f:92:1c:e1:91:28:e3:
         12:df:62:51:07:20:a0:3b:c0:cd:f3:e9:80:7a:27:61:d0:9b:
         72:4a:0b:a8:e3:3f:b2:e1:fd:84:28:0e:32:34:16:29:4d:85:
         dd:0e:9b:b9:1d:47:83:5d:88:7f:68:86:6f:2e:30:98:10:f5:
         33:31:87:c7:06:8a:69:e8:27:64:7d:6b:6a:2c:f7:51:e1:9f:
         67:24:db:2c:36:8c:45:15:2d:65:d6:31:69:a2:79:1f:99:cf:
         d9:1d:a3:10:97:55:86:56:61:0e:ac:bd:e1:df:0b:3f:3c:48:
         93:4c:7e:48:be:0c:fe:7a:9c:e9:a3:af:40:db:3e:76:41:3b:
         6b:04:0f:8a:2e:58:1b:47:78:62:65:4b:ae:38:ec:f4:1b:15:
         20:ab:0e:4f
-----BEGIN CERTIFICATE-----
MIIDeDCCAmCgAwIBAgIRALy7DAcKDRI69sfL+KPBFfAwDQYJKoZIhvcNAQELBQAw
FjEUMBIGA1UEAwwLdGVhbTM5Mi1uZXQwHhcNMjEwOTEzMDIxNDM1WhcNMjQwODI4
MDIxNDM1WjAZMRcwFQYDVQQDDA50ZWFtMzkyLXNlcnZlcjCCASIwDQYJKoZIhvcN
AQEBBQADggEPADCCAQoCggEBAMPg79w+yx171Ir2ZI5Abc/CuX2YQ1VpnxJUOgAK
87Ufw0toCN99oSPlAoGf8jJZTW/41FHrFNPYUPX7VDZzogjS+pvBZjnCHI9mDLKM
IGb6yh1ONqnQpID3I0zE5mHcgQSNd3jfSi88mO2/xWvK6goXazSGBYJURqL3rdw3
IqM6vnjXWx2uNAC8BbwpQDI2d0jlE18QyvUXRXIb/E1HtftXqX637YP+DN56AxKe
6jcnu2u5GGYBbrqZ+fIEoK38zv4S2w/O+ZaFjp7LXxO+EGzPjsyIjdLyHzY7XCUF
G/WuUlBBozvzWPf5zhGHzDS1kBq5ICxOf7sKfBw4202IB50CAwEAAaOBvTCBujAJ
BgNVHRMEAjAAMB0GA1UdDgQWBBQsrv5CVN6D0XDF5P6PrgtNCJJ6tTBRBgNVHSME
SjBIgBTpeIvEOwA/xUYJOI+PVkhxiCr91KEapBgwFjEUMBIGA1UEAwwLdGVhbTM5
Mi1uZXSCFClut4Sl0UJMGvAgXNUDSNLR35RQMBMGA1UdJQQMMAoGCCsGAQUFBwMB
MAsGA1UdDwQEAwIFoDAZBgNVHREEEjAQgg50ZWFtMzkyLXNlcnZlcjANBgkqhkiG
9w0BAQsFAAOCAQEArjn+NNq/7PCv0jI7mHzel8DgxM3D/nYTH8QrNYkmVzDbiiog
z+AsahaewpHzzJMZhBn812+CQ/1JAYFZksXKt1/l7BsBydgqwUIXo3icWtphSldG
QW4LgPe4Sxh7DdOQlNi+V/4PkhzhkSjjEt9iUQcgoDvAzfPpgHonYdCbckoLqOM/
suH9hCgOMjQWKU2F3Q6buR1Hg12If2iGby4wmBD1MzGHxwaKaegnZH1raiz3UeGf
ZyTbLDaMRRUtZdYxaaJ5H5nP2R2jEJdVhlZhDqy94d8LPzxIk0x+SL4M/nqc6aOv
QNs+dkE7awQPii5YG0d4YmVLrjjs9BsVIKsOTw==
-----END CERTIFICATE-----
