Certificate:
    Data:
        Version: 3 (0x2)
        Serial Number:
            32:22:1f:87:66:6f:fb:37:49:c0:77:1f:85:1f:9c:5b
        Signature Algorithm: sha256WithRSAEncryption
        Issuer: CN=team186-net
        Validity
            Not Before: Sep 13 00:23:50 2021 GMT
            Not After : Aug 28 00:23:50 2024 GMT
        Subject: CN=team186-server
        Subject Public Key Info:
            Public Key Algorithm: rsaEncryption
                RSA Public-Key: (2048 bit)
                Modulus:
                    00:d3:34:48:bb:f9:56:78:92:c6:8a:49:db:f6:0c:
                    1f:d9:ff:5e:4f:d2:50:64:cd:cf:82:e2:42:eb:27:
                    69:3b:df:06:25:9e:44:da:68:d2:6c:eb:d7:c8:13:
                    34:57:55:ff:24:da:7d:cc:5b:d3:bf:2b:8d:f1:7e:
                    c6:57:30:56:91:7e:2b:a2:ff:c4:c2:d0:61:5f:5f:
                    fe:ab:4c:c9:76:96:96:70:4c:33:ea:6e:2b:e8:e1:
                    38:dc:d9:bc:38:68:0d:bf:95:64:86:99:3e:c1:94:
                    50:e5:a4:92:a1:13:e9:80:52:02:d0:d2:03:78:68:
                    e4:2a:b0:e6:4f:e4:cf:09:8c:a7:45:22:28:e8:ee:
                    08:ff:6d:bb:5e:cb:1d:00:5c:53:d1:dd:39:a1:79:
                    5f:67:eb:9f:53:1b:3f:d5:23:9f:2f:9e:85:11:1e:
                    b6:32:6e:dd:9c:10:cf:10:04:82:ac:c2:14:7e:9b:
                    81:70:bd:02:19:e2:0a:cb:e6:14:77:29:4b:10:05:
                    9f:db:93:ab:78:75:31:07:bf:12:80:8c:8b:3b:f0:
                    50:1d:1c:2f:b1:4f:4e:6f:8a:12:40:ef:9b:6e:41:
                    38:38:3a:f8:9b:a6:fb:ec:ae:cb:de:fe:43:5f:51:
                    af:03:d1:41:b0:d9:5d:8c:70:fe:5b:bc:c8:d7:4e:
                    d1:3d
                Exponent: 65537 (0x10001)
        X509v3 extensions:
            X509v3 Basic Constraints: 
                CA:FALSE
            X509v3 Subject Key Identifier: 
                4E:93:09:BF:50:D7:9C:A1:74:64:08:3D:76:66:BB:85:BB:75:E6:5D
            X509v3 Authority Key Identifier: 
                keyid:A7:0C:71:AE:D1:BA:C4:60:38:C5:EB:8D:CF:FB:0E:64:0D:85:FB:48
                DirName:/CN=team186-net
                serial:6C:8C:24:79:CD:9B:D6:EF:26:70:44:64:01:95:C4:8E:DB:A4:9E:4E

            X509v3 Extended Key Usage: 
                TLS Web Server Authentication
            X509v3 Key Usage: 
                Digital Signature, Key Encipherment
            X509v3 Subject Alternative Name: 
                DNS:team186-server
    Signature Algorithm: sha256WithRSAEncryption
         27:0b:99:d2:54:94:a3:b2:74:c9:7d:19:74:fb:f7:1f:29:56:
         03:1f:aa:9c:8e:9d:d0:96:e0:47:0d:c7:68:b3:8e:8b:1f:c3:
         12:e7:85:af:18:33:c5:34:e6:3b:ad:f1:20:8c:38:0d:96:a2:
         10:fc:29:78:bd:2d:24:ec:91:df:bf:4e:39:dc:88:53:ea:1e:
         d0:21:b3:97:9f:1d:b2:21:32:fc:b0:d1:e4:4d:7a:04:04:4a:
         95:7a:8f:78:2d:70:07:1d:70:98:cf:3c:68:43:ab:ee:84:79:
         87:47:04:db:d4:e8:df:c0:84:50:26:7f:f6:a7:bd:67:2b:1a:
         83:9f:2e:64:ad:05:7d:71:69:af:7a:e1:93:cd:eb:75:4a:d2:
         4f:f5:cf:c8:c5:45:a6:c8:73:cb:f5:98:68:21:a8:da:fa:9c:
         b7:78:4c:61:bb:5f:42:76:8f:6f:32:1b:07:5a:c3:b0:39:d7:
         d5:bf:fc:0a:2f:ef:e4:c5:60:96:3e:40:3a:51:34:f5:66:62:
         aa:73:2e:53:9a:1e:c8:63:4c:23:84:f3:d8:28:5f:37:96:fc:
         48:bd:1c:03:64:72:70:3a:30:d1:4b:91:43:38:cd:64:ea:d0:
         da:c1:72:c5:98:e5:8a:b1:90:c8:f6:47:93:24:84:71:16:e2:
         74:52:e5:12
-----BEGIN CERTIFICATE-----
MIIDdzCCAl+gAwIBAgIQMiIfh2Zv+zdJwHcfhR+cWzANBgkqhkiG9w0BAQsFADAW
MRQwEgYDVQQDDAt0ZWFtMTg2LW5ldDAeFw0yMTA5MTMwMDIzNTBaFw0yNDA4Mjgw
MDIzNTBaMBkxFzAVBgNVBAMMDnRlYW0xODYtc2VydmVyMIIBIjANBgkqhkiG9w0B
AQEFAAOCAQ8AMIIBCgKCAQEA0zRIu/lWeJLGiknb9gwf2f9eT9JQZM3PguJC6ydp
O98GJZ5E2mjSbOvXyBM0V1X/JNp9zFvTvyuN8X7GVzBWkX4rov/EwtBhX1/+q0zJ
dpaWcEwz6m4r6OE43Nm8OGgNv5Vkhpk+wZRQ5aSSoRPpgFIC0NIDeGjkKrDmT+TP
CYynRSIo6O4I/227XssdAFxT0d05oXlfZ+ufUxs/1SOfL56FER62Mm7dnBDPEASC
rMIUfpuBcL0CGeIKy+YUdylLEAWf25OreHUxB78SgIyLO/BQHRwvsU9Ob4oSQO+b
bkE4ODr4m6b77K7L3v5DX1GvA9FBsNldjHD+W7zI107RPQIDAQABo4G9MIG6MAkG
A1UdEwQCMAAwHQYDVR0OBBYEFE6TCb9Q15yhdGQIPXZmu4W7deZdMFEGA1UdIwRK
MEiAFKcMca7RusRgOMXrjc/7DmQNhftIoRqkGDAWMRQwEgYDVQQDDAt0ZWFtMTg2
LW5ldIIUbIwkec2b1u8mcERkAZXEjtuknk4wEwYDVR0lBAwwCgYIKwYBBQUHAwEw
CwYDVR0PBAQDAgWgMBkGA1UdEQQSMBCCDnRlYW0xODYtc2VydmVyMA0GCSqGSIb3
DQEBCwUAA4IBAQAnC5nSVJSjsnTJfRl0+/cfKVYDH6qcjp3QluBHDcdos46LH8MS
54WvGDPFNOY7rfEgjDgNlqIQ/Cl4vS0k7JHfv0453IhT6h7QIbOXnx2yITL8sNHk
TXoEBEqVeo94LXAHHXCYzzxoQ6vuhHmHRwTb1OjfwIRQJn/2p71nKxqDny5krQV9
cWmveuGTzet1StJP9c/IxUWmyHPL9ZhoIaja+py3eExhu19Cdo9vMhsHWsOwOdfV
v/wKL+/kxWCWPkA6UTT1ZmKqcy5Tmh7IY0wjhPPYKF83lvxIvRwDZHJwOjDRS5FD
OM1k6tDawXLFmOWKsZDI9keTJIRxFuJ0UuUS
-----END CERTIFICATE-----
