Certificate:
    Data:
        Version: 3 (0x2)
        Serial Number:
            d5:c2:a4:92:88:bb:a7:77:7a:8c:96:1d:41:24:ca:9c
        Signature Algorithm: sha256WithRSAEncryption
        Issuer: CN=team91-net
        Validity
            Not Before: Sep 12 23:32:06 2021 GMT
            Not After : Aug 27 23:32:06 2024 GMT
        Subject: CN=team91-client
        Subject Public Key Info:
            Public Key Algorithm: rsaEncryption
                RSA Public-Key: (2048 bit)
                Modulus:
                    00:c8:4e:38:cb:c1:4b:86:64:40:08:96:b8:d0:3d:
                    bd:47:07:1b:21:9f:7b:22:62:31:36:ad:50:88:c1:
                    06:18:ff:80:87:9a:8d:6a:ef:8a:c8:45:b3:d4:02:
                    1a:bf:56:4d:02:5a:66:26:94:97:3a:83:37:a7:a4:
                    5c:2d:28:27:dc:1d:00:25:02:b0:a0:c7:d6:31:e2:
                    ec:a1:fd:9a:b1:d6:76:23:69:fe:01:d0:c0:83:f4:
                    8b:ac:65:6e:b5:28:1c:2b:aa:77:a0:68:17:90:02:
                    f6:2c:ce:64:39:fa:52:aa:d2:cc:28:c6:97:f2:2e:
                    d9:74:17:13:51:8a:73:40:9c:70:79:61:0e:43:46:
                    da:37:d1:47:46:6c:69:b0:4b:be:f9:ab:e3:08:ec:
                    b5:b2:96:9a:91:ab:65:47:c3:d7:73:58:7b:cb:d3:
                    e2:92:96:6f:de:9d:15:75:0d:bb:a6:61:96:ff:64:
                    7b:0a:3d:e1:aa:36:d8:e3:36:56:b3:ee:80:3e:1e:
                    ca:5f:21:0a:27:68:0b:19:c2:08:2e:b3:fb:7b:20:
                    c5:cd:65:bf:f1:67:79:b6:4c:35:1a:d6:5f:fc:c0:
                    48:5c:92:96:06:c9:43:d6:6d:2d:79:4b:15:33:ee:
                    68:c5:77:b4:74:ea:c0:34:1e:7d:18:f2:c3:df:f5:
                    9f:53
                Exponent: 65537 (0x10001)
        X509v3 extensions:
            X509v3 Basic Constraints: 
                CA:FALSE
            X509v3 Subject Key Identifier: 
                29:85:75:FC:F1:C3:AA:3D:2B:47:80:61:8E:B0:B7:DD:EA:70:4C:10
            X509v3 Authority Key Identifier: 
                keyid:6B:89:A3:92:BC:EF:D0:33:E2:D9:CC:4B:2D:48:33:46:5B:79:F2:55
                DirName:/CN=team91-net
                serial:3D:6E:85:7D:34:60:25:47:E2:7A:12:38:30:EB:06:DC:07:CB:F3:E2

            X509v3 Extended Key Usage: 
                TLS Web Client Authentication
            X509v3 Key Usage: 
                Digital Signature
    Signature Algorithm: sha256WithRSAEncryption
         24:df:9d:b8:f3:39:db:ca:01:53:e9:23:4b:37:98:7f:a6:ed:
         2b:46:a9:d5:27:7e:71:f3:f9:77:58:85:09:d2:cf:9b:7c:3c:
         db:91:fd:41:24:81:37:45:30:5a:26:55:73:74:ae:38:9b:b2:
         f8:c0:f2:8a:f5:73:ad:f9:c6:2d:bf:13:d0:38:00:09:ba:a8:
         f0:9f:eb:bb:a0:9f:bd:6b:8f:79:3a:73:f2:63:1e:99:ee:44:
         c3:dc:8e:79:e7:15:c0:5e:f1:0a:39:7b:cb:46:c8:74:a1:89:
         41:e3:1e:ed:d9:ad:2d:34:ed:48:71:68:54:38:ed:9a:d7:24:
         25:36:84:93:81:3b:da:bb:57:18:49:af:c7:9a:b7:71:31:36:
         98:59:b6:83:d6:07:4b:82:f6:d5:49:bd:f4:80:ea:90:33:4a:
         31:fa:ec:d7:f0:25:e2:3d:69:2e:3c:3c:45:e4:c5:48:f0:61:
         da:b2:5d:7f:ad:e0:60:f6:f7:2b:7c:70:2b:e0:9b:c0:92:2b:
         eb:7b:a8:69:d7:5a:82:5e:f2:07:4c:fc:ad:42:ae:81:21:c5:
         f3:98:2c:a6:be:eb:48:ed:6c:c8:4d:79:ea:a0:84:e8:3c:ca:
         4c:76:b3:9f:1f:34:ac:8d:d2:1f:14:38:af:5b:c8:ad:c2:7a:
         77:a1:73:b3
-----BEGIN CERTIFICATE-----
MIIDWjCCAkKgAwIBAgIRANXCpJKIu6d3eoyWHUEkypwwDQYJKoZIhvcNAQELBQAw
FTETMBEGA1UEAwwKdGVhbTkxLW5ldDAeFw0yMTA5MTIyMzMyMDZaFw0yNDA4Mjcy
MzMyMDZaMBgxFjAUBgNVBAMMDXRlYW05MS1jbGllbnQwggEiMA0GCSqGSIb3DQEB
AQUAA4IBDwAwggEKAoIBAQDITjjLwUuGZEAIlrjQPb1HBxshn3siYjE2rVCIwQYY
/4CHmo1q74rIRbPUAhq/Vk0CWmYmlJc6gzenpFwtKCfcHQAlArCgx9Yx4uyh/Zqx
1nYjaf4B0MCD9IusZW61KBwrqnegaBeQAvYszmQ5+lKq0swoxpfyLtl0FxNRinNA
nHB5YQ5DRto30UdGbGmwS775q+MI7LWylpqRq2VHw9dzWHvL0+KSlm/enRV1Dbum
YZb/ZHsKPeGqNtjjNlaz7oA+HspfIQonaAsZwggus/t7IMXNZb/xZ3m2TDUa1l/8
wEhckpYGyUPWbS15SxUz7mjFd7R06sA0Hn0Y8sPf9Z9TAgMBAAGjgaEwgZ4wCQYD
VR0TBAIwADAdBgNVHQ4EFgQUKYV1/PHDqj0rR4BhjrC33epwTBAwUAYDVR0jBEkw
R4AUa4mjkrzv0DPi2cxLLUgzRlt58lWhGaQXMBUxEzARBgNVBAMMCnRlYW05MS1u
ZXSCFD1uhX00YCVH4noSODDrBtwHy/PiMBMGA1UdJQQMMAoGCCsGAQUFBwMCMAsG
A1UdDwQEAwIHgDANBgkqhkiG9w0BAQsFAAOCAQEAJN+duPM528oBU+kjSzeYf6bt
K0ap1Sd+cfP5d1iFCdLPm3w825H9QSSBN0UwWiZVc3SuOJuy+MDyivVzrfnGLb8T
0DgACbqo8J/ru6CfvWuPeTpz8mMeme5Ew9yOeecVwF7xCjl7y0bIdKGJQeMe7dmt
LTTtSHFoVDjtmtckJTaEk4E72rtXGEmvx5q3cTE2mFm2g9YHS4L21Um99IDqkDNK
Mfrs1/Al4j1pLjw8ReTFSPBh2rJdf63gYPb3K3xwK+CbwJIr63uoaddagl7yB0z8
rUKugSHF85gspr7rSO1syE156qCE6DzKTHaznx80rI3SHxQ4r1vIrcJ6d6Fzsw==
-----END CERTIFICATE-----
