Certificate:
    Data:
        Version: 3 (0x2)
        Serial Number:
            e2:44:3d:6e:f8:4a:28:30:e3:94:aa:77:89:25:6a:48
        Signature Algorithm: sha256WithRSAEncryption
        Issuer: CN=team131-net
        Validity
            Not Before: Sep 12 23:52:36 2021 GMT
            Not After : Aug 27 23:52:36 2024 GMT
        Subject: CN=team131-client
        Subject Public Key Info:
            Public Key Algorithm: rsaEncryption
                RSA Public-Key: (2048 bit)
                Modulus:
                    00:9f:dc:79:93:f5:4e:89:38:af:d2:8d:c9:3a:1b:
                    99:ce:c7:2e:d7:90:93:8c:0a:e8:e0:11:8d:95:71:
                    e9:cb:e5:9f:f7:15:39:65:bc:c0:9e:bc:22:fa:5f:
                    78:9a:ec:e4:a5:93:67:bc:e4:69:20:04:76:d1:40:
                    54:3e:d4:c8:a6:9d:72:1e:47:27:c3:ab:c7:9e:21:
                    dc:38:d8:d5:71:d8:8e:98:54:c2:1e:71:26:c5:5c:
                    b8:d6:4e:af:68:17:e8:24:23:90:09:78:4e:0a:2d:
                    fe:0f:8d:dc:15:0a:f5:9c:05:0d:07:88:e5:74:51:
                    b4:bd:2b:32:e5:24:eb:12:3c:b6:b4:d1:3e:47:e9:
                    f8:f7:6d:ad:a5:04:be:e2:03:14:77:39:ef:48:05:
                    19:20:5b:69:3c:a8:3f:77:99:48:48:01:80:b8:ae:
                    2b:38:00:b5:a2:24:ff:69:b8:a1:89:89:2d:c3:59:
                    cd:5f:f6:fd:92:1e:a1:99:81:95:36:9d:9f:d0:2c:
                    2e:f4:c4:bd:92:0a:24:85:50:a4:65:7e:93:04:e5:
                    c3:fa:ea:7e:14:03:92:a0:46:cb:ad:20:c2:76:95:
                    68:01:de:98:72:de:83:7a:14:a3:29:d7:90:5b:44:
                    18:f7:e3:b4:7f:26:f4:82:b5:4a:77:21:93:0d:2b:
                    6c:57
                Exponent: 65537 (0x10001)
        X509v3 extensions:
            X509v3 Basic Constraints: 
                CA:FALSE
            X509v3 Subject Key Identifier: 
                89:3B:11:2D:B7:31:E9:E5:09:9D:3F:5F:90:2D:FC:FC:EE:2A:00:C2
            X509v3 Authority Key Identifier: 
                keyid:BE:12:6D:1D:CB:56:0A:B7:42:4C:8D:03:D8:A1:D7:F4:95:65:B2:9B
                DirName:/CN=team131-net
                serial:25:42:13:0D:45:C3:25:82:BC:18:B2:D2:68:0E:4E:32:29:A8:9C:5D

            X509v3 Extended Key Usage: 
                TLS Web Client Authentication
            X509v3 Key Usage: 
                Digital Signature
    Signature Algorithm: sha256WithRSAEncryption
         b1:f3:74:90:fb:72:91:12:9a:3e:a3:40:07:20:9f:e9:37:3f:
         be:96:7d:ae:16:b1:b2:0d:e5:c2:e7:e4:ce:6a:74:b9:7c:00:
         3b:19:85:f0:43:f2:b9:a3:77:48:47:56:d5:73:b7:6e:77:de:
         5c:fa:e5:2e:46:d7:0c:d9:24:e7:6c:67:57:11:58:c3:33:48:
         15:b5:bc:9f:1e:6b:0e:01:66:8c:51:14:8f:f9:6a:59:42:e5:
         e2:b3:f2:5f:f8:1a:0f:be:68:fe:30:e5:71:96:9f:16:4b:b7:
         d6:1b:54:30:e5:b3:27:be:56:82:55:76:72:72:a5:bd:c8:ec:
         10:f4:b8:7b:77:d1:0f:19:f6:f4:c0:99:93:40:c0:b5:fb:e2:
         b3:15:35:dc:29:02:a1:00:04:03:56:52:d0:0e:3c:06:f9:fc:
         9c:34:3e:e3:ef:0d:e7:a8:3f:e3:50:98:d2:a6:1a:d1:55:2c:
         03:e5:2b:13:e0:9a:da:49:ae:15:a0:a3:97:31:0f:1f:8a:43:
         2c:e8:de:34:5e:bf:bc:46:2d:96:fe:d4:0f:62:e4:92:63:ee:
         ca:04:3a:a5:60:55:b8:f6:e7:0f:f9:79:ef:b9:1b:19:cc:12:
         83:d6:a0:48:d6:a1:a1:62:2f:81:82:3b:b1:ea:66:78:fc:39:
         6d:94:be:67
-----BEGIN CERTIFICATE-----
MIIDXTCCAkWgAwIBAgIRAOJEPW74Sigw45Sqd4klakgwDQYJKoZIhvcNAQELBQAw
FjEUMBIGA1UEAwwLdGVhbTEzMS1uZXQwHhcNMjEwOTEyMjM1MjM2WhcNMjQwODI3
MjM1MjM2WjAZMRcwFQYDVQQDDA50ZWFtMTMxLWNsaWVudDCCASIwDQYJKoZIhvcN
AQEBBQADggEPADCCAQoCggEBAJ/ceZP1Tok4r9KNyTobmc7HLteQk4wK6OARjZVx
6cvln/cVOWW8wJ68IvpfeJrs5KWTZ7zkaSAEdtFAVD7UyKadch5HJ8Orx54h3DjY
1XHYjphUwh5xJsVcuNZOr2gX6CQjkAl4Tgot/g+N3BUK9ZwFDQeI5XRRtL0rMuUk
6xI8trTRPkfp+PdtraUEvuIDFHc570gFGSBbaTyoP3eZSEgBgLiuKzgAtaIk/2m4
oYmJLcNZzV/2/ZIeoZmBlTadn9AsLvTEvZIKJIVQpGV+kwTlw/rqfhQDkqBGy60g
wnaVaAHemHLeg3oUoynXkFtEGPfjtH8m9IK1Snchkw0rbFcCAwEAAaOBojCBnzAJ
BgNVHRMEAjAAMB0GA1UdDgQWBBSJOxEttzHp5QmdP1+QLfz87ioAwjBRBgNVHSME
SjBIgBS+Em0dy1YKt0JMjQPYodf0lWWym6EapBgwFjEUMBIGA1UEAwwLdGVhbTEz
MS1uZXSCFCVCEw1FwyWCvBiy0mgOTjIpqJxdMBMGA1UdJQQMMAoGCCsGAQUFBwMC
MAsGA1UdDwQEAwIHgDANBgkqhkiG9w0BAQsFAAOCAQEAsfN0kPtykRKaPqNAByCf
6Tc/vpZ9rhaxsg3lwufkzmp0uXwAOxmF8EPyuaN3SEdW1XO3bnfeXPrlLkbXDNkk
52xnVxFYwzNIFbW8nx5rDgFmjFEUj/lqWULl4rPyX/gaD75o/jDlcZafFku31htU
MOWzJ75WglV2cnKlvcjsEPS4e3fRDxn29MCZk0DAtfvisxU13CkCoQAEA1ZS0A48
Bvn8nDQ+4+8N56g/41CY0qYa0VUsA+UrE+Ca2kmuFaCjlzEPH4pDLOjeNF6/vEYt
lv7UD2LkkmPuygQ6pWBVuPbnD/l577kbGcwSg9agSNahoWIvgYI7sepmePw5bZS+
Zw==
-----END CERTIFICATE-----
