Certificate:
    Data:
        Version: 3 (0x2)
        Serial Number:
            42:ef:db:39:b0:07:eb:ac:70:04:ca:45:e4:09:bf:48
        Signature Algorithm: sha256WithRSAEncryption
        Issuer: CN=team131-net
        Validity
            Not Before: Sep 12 23:52:36 2021 GMT
            Not After : Aug 27 23:52:36 2024 GMT
        Subject: CN=team131-server
        Subject Public Key Info:
            Public Key Algorithm: rsaEncryption
                RSA Public-Key: (2048 bit)
                Modulus:
                    00:bf:ba:3d:34:7b:d8:15:be:54:27:00:51:00:4d:
                    b7:8d:be:68:18:49:42:e5:0b:dc:3c:12:90:62:8d:
                    f8:27:d0:c0:b5:6f:a9:1c:eb:d9:b2:2e:ba:86:18:
                    e9:8f:2f:31:c2:5d:06:23:3c:1b:eb:bf:85:02:29:
                    c0:4a:c7:98:4f:e1:65:b6:c2:ca:e7:51:73:95:cd:
                    a9:a2:27:f7:21:87:18:d3:b2:72:8c:d2:6c:55:53:
                    c3:20:65:a8:58:67:b4:89:2b:a0:b5:91:fd:0b:cd:
                    83:29:ac:95:c3:2f:7e:d6:cc:36:ac:1c:74:fa:56:
                    12:52:bb:f2:60:b3:03:b6:28:2e:65:0c:c2:f7:51:
                    f8:6c:a2:a3:4b:b7:43:ff:48:01:a6:45:0e:c3:ad:
                    ec:af:bc:4c:e2:c2:9c:da:57:fe:0d:2a:39:7d:0f:
                    fa:22:7b:c2:15:6e:48:8d:c3:94:4c:5a:72:71:eb:
                    7e:22:73:81:56:66:f9:9d:f7:d2:ec:2b:ae:53:f1:
                    e9:22:47:40:1b:9b:cc:5e:4d:a3:05:bb:29:e4:91:
                    b6:d3:c7:b8:a2:35:8b:f3:41:39:c5:c2:ba:9e:e3:
                    21:c2:69:f9:b3:54:7a:14:d5:6a:0c:2d:f4:3c:e1:
                    ba:cb:e6:60:ad:01:be:8e:8e:b8:31:2d:a6:ee:1b:
                    5b:19
                Exponent: 65537 (0x10001)
        X509v3 extensions:
            X509v3 Basic Constraints: 
                CA:FALSE
            X509v3 Subject Key Identifier: 
                B5:52:F2:1D:B6:2E:56:97:47:59:AD:C7:07:C5:5D:AE:BC:A1:A4:A1
            X509v3 Authority Key Identifier: 
                keyid:BE:12:6D:1D:CB:56:0A:B7:42:4C:8D:03:D8:A1:D7:F4:95:65:B2:9B
                DirName:/CN=team131-net
                serial:25:42:13:0D:45:C3:25:82:BC:18:B2:D2:68:0E:4E:32:29:A8:9C:5D

            X509v3 Extended Key Usage: 
                TLS Web Server Authentication
            X509v3 Key Usage: 
                Digital Signature, Key Encipherment
            X509v3 Subject Alternative Name: 
                DNS:team131-server
    Signature Algorithm: sha256WithRSAEncryption
         03:39:a7:c8:57:0a:10:e0:d6:f0:26:05:1d:72:ed:40:4f:e3:
         18:7f:2a:d9:da:c9:8d:92:5c:71:7f:fd:d1:39:a2:28:a1:01:
         0f:80:09:d8:d4:3e:51:db:2e:55:f8:95:d6:29:4c:71:be:6e:
         ae:35:45:f6:05:6a:35:12:d5:9f:2b:b3:ca:ed:19:c4:df:5e:
         3c:01:32:27:36:8c:a6:b1:0e:a4:71:6a:a1:04:5f:92:7a:2f:
         c4:05:f9:a1:f9:02:95:45:4f:66:67:62:50:7d:9e:9b:d1:66:
         ce:e6:2d:e2:88:5f:1b:14:1a:3c:08:08:3a:f1:d4:a2:d1:39:
         98:55:d4:da:f7:22:b3:fc:c6:3a:26:46:55:31:0e:ff:a8:0a:
         58:73:44:79:1d:a1:5e:1e:87:79:ac:8f:9a:12:72:62:de:7f:
         49:88:c8:18:47:f0:2d:86:c2:6a:5e:b2:b9:2b:14:a2:e0:e4:
         06:c5:7e:63:e8:8c:e7:85:56:be:80:42:0a:9e:6e:94:1d:2f:
         e7:02:ff:b2:b3:af:78:1b:85:19:d2:61:70:a2:fc:d2:93:9c:
         68:55:e6:af:d8:2d:15:bf:72:38:ea:73:15:6e:c0:19:40:b3:
         d8:fa:54:66:a4:93:b6:66:9c:c4:a0:a1:fd:35:9f:02:d9:1a:
         7d:d3:59:18
-----BEGIN CERTIFICATE-----
MIIDdzCCAl+gAwIBAgIQQu/bObAH66xwBMpF5Am/SDANBgkqhkiG9w0BAQsFADAW
MRQwEgYDVQQDDAt0ZWFtMTMxLW5ldDAeFw0yMTA5MTIyMzUyMzZaFw0yNDA4Mjcy
MzUyMzZaMBkxFzAVBgNVBAMMDnRlYW0xMzEtc2VydmVyMIIBIjANBgkqhkiG9w0B
AQEFAAOCAQ8AMIIBCgKCAQEAv7o9NHvYFb5UJwBRAE23jb5oGElC5QvcPBKQYo34
J9DAtW+pHOvZsi66hhjpjy8xwl0GIzwb67+FAinASseYT+FltsLK51Fzlc2poif3
IYcY07JyjNJsVVPDIGWoWGe0iSugtZH9C82DKayVwy9+1sw2rBx0+lYSUrvyYLMD
tiguZQzC91H4bKKjS7dD/0gBpkUOw63sr7xM4sKc2lf+DSo5fQ/6InvCFW5IjcOU
TFpycet+InOBVmb5nffS7CuuU/HpIkdAG5vMXk2jBbsp5JG208e4ojWL80E5xcK6
nuMhwmn5s1R6FNVqDC30POG6y+ZgrQG+jo64MS2m7htbGQIDAQABo4G9MIG6MAkG
A1UdEwQCMAAwHQYDVR0OBBYEFLVS8h22LlaXR1mtxwfFXa68oaShMFEGA1UdIwRK
MEiAFL4SbR3LVgq3QkyNA9ih1/SVZbKboRqkGDAWMRQwEgYDVQQDDAt0ZWFtMTMx
LW5ldIIUJUITDUXDJYK8GLLSaA5OMimonF0wEwYDVR0lBAwwCgYIKwYBBQUHAwEw
CwYDVR0PBAQDAgWgMBkGA1UdEQQSMBCCDnRlYW0xMzEtc2VydmVyMA0GCSqGSIb3
DQEBCwUAA4IBAQADOafIVwoQ4NbwJgUdcu1AT+MYfyrZ2smNklxxf/3ROaIooQEP
gAnY1D5R2y5V+JXWKUxxvm6uNUX2BWo1EtWfK7PK7RnE3148ATInNoymsQ6kcWqh
BF+Sei/EBfmh+QKVRU9mZ2JQfZ6b0WbO5i3iiF8bFBo8CAg68dSi0TmYVdTa9yKz
/MY6JkZVMQ7/qApYc0R5HaFeHod5rI+aEnJi3n9JiMgYR/AthsJqXrK5KxSi4OQG
xX5j6IznhVa+gEIKnm6UHS/nAv+ys694G4UZ0mFwovzSk5xoVeav2C0Vv3I46nMV
bsAZQLPY+lRmpJO2ZpzEoKH9NZ8C2Rp901kY
-----END CERTIFICATE-----
