Certificate:
    Data:
        Version: 3 (0x2)
        Serial Number:
            bb:66:cb:4c:c8:69:ff:0d:ea:39:d5:26:1b:07:48:25
        Signature Algorithm: sha256WithRSAEncryption
        Issuer: CN=team450-net
        Validity
            Not Before: Sep 13 02:51:27 2021 GMT
            Not After : Aug 28 02:51:27 2024 GMT
        Subject: CN=team450-client
        Subject Public Key Info:
            Public Key Algorithm: rsaEncryption
                RSA Public-Key: (2048 bit)
                Modulus:
                    00:bb:c9:64:c8:27:ea:13:d7:61:97:cf:91:36:a2:
                    06:a5:19:7e:89:e8:69:23:4e:27:bd:ba:e3:01:02:
                    ac:32:1e:aa:9a:e1:12:bd:36:f6:5c:37:79:26:5e:
                    53:d1:90:0b:42:c9:19:cf:9b:9f:83:cf:bf:eb:64:
                    b3:41:e0:b1:33:33:ed:28:bf:e5:86:9d:d3:40:ca:
                    c7:6a:11:0f:74:b9:1b:10:f6:4d:0d:00:b3:17:92:
                    8a:29:4c:f1:2a:ec:ae:19:b2:85:1b:10:c9:0c:0f:
                    b2:56:77:c7:d0:5f:42:cd:44:00:da:80:ce:15:94:
                    b3:d3:9b:11:08:82:bc:90:d1:56:a7:4d:e6:0a:30:
                    16:9f:9e:e6:c5:5a:81:8a:5b:1b:15:22:09:b0:7d:
                    70:ff:5c:8e:51:1e:48:12:27:7d:8a:e1:6c:78:f0:
                    54:d6:2a:56:39:af:32:82:e5:3f:4f:51:c3:4d:2a:
                    b7:7b:98:d6:14:3e:4a:1c:63:10:84:7b:80:6e:8d:
                    d3:e8:09:2c:d8:91:c1:f9:9a:f8:d5:60:54:cc:a7:
                    e2:c5:48:04:e4:bd:e4:e2:5f:cc:0b:50:0a:91:eb:
                    5e:b6:0c:f6:9e:60:a3:75:3e:7f:c6:00:52:8a:53:
                    de:49:14:0d:64:6f:19:4c:6b:21:bb:bb:ee:bf:b3:
                    1f:6b
                Exponent: 65537 (0x10001)
        X509v3 extensions:
            X509v3 Basic Constraints: 
                CA:FALSE
            X509v3 Subject Key Identifier: 
                F4:B7:08:E1:B9:42:B3:DE:8B:53:15:35:B8:2F:F3:AB:4A:6B:FF:DC
            X509v3 Authority Key Identifier: 
                keyid:C8:AA:D9:7B:75:45:1B:16:46:BA:57:34:B1:DA:B6:99:0C:0C:B3:06
                DirName:/CN=team450-net
                serial:09:9A:3E:46:75:43:EE:A4:F5:DB:09:01:2A:6F:B9:37:4F:32:79:AF

            X509v3 Extended Key Usage: 
                TLS Web Client Authentication
            X509v3 Key Usage: 
                Digital Signature
    Signature Algorithm: sha256WithRSAEncryption
         53:6d:d4:a6:3e:bb:fe:12:68:f4:a2:4a:03:5e:e4:4e:02:a5:
         b0:d7:4d:d0:d8:0f:c3:7c:e5:68:5b:a2:81:94:b0:43:f1:56:
         94:50:cc:2a:2a:64:bc:05:ff:03:69:a5:20:4c:e6:dd:1e:b4:
         16:7c:64:20:03:37:19:b6:10:7b:0f:27:53:4b:18:41:6a:1f:
         32:f3:cc:c1:d4:49:27:b4:26:31:a6:d5:58:a2:5b:6a:59:a9:
         4e:48:cf:f7:89:45:f3:f6:8f:87:4e:e8:6f:31:f7:7f:75:4c:
         44:d7:e1:fc:bc:84:5d:47:01:c9:b9:bc:14:d4:3c:d5:07:36:
         b8:1d:e7:e4:98:c9:c0:1f:d4:2c:b7:0a:eb:f4:25:6f:3d:50:
         53:9f:e7:ee:60:a3:1e:b9:db:42:cd:f1:84:91:08:16:6e:b4:
         05:c8:16:52:1e:b6:77:7b:c7:83:7e:33:73:d2:9e:42:a0:2d:
         0c:3c:be:4e:8f:31:1e:7a:a4:16:3e:e4:e1:32:0f:16:77:64:
         52:cd:9d:b8:e9:94:e2:d4:46:fa:ad:40:ee:e5:4c:7f:d3:43:
         e7:52:d7:fe:fc:74:64:02:de:ae:f7:cc:2d:01:8b:4d:bf:18:
         fe:90:56:6a:56:0b:e9:80:c2:4f:6b:ec:e3:36:0b:d0:eb:24:
         ac:8c:b4:ac
-----BEGIN CERTIFICATE-----
MIIDXTCCAkWgAwIBAgIRALtmy0zIaf8N6jnVJhsHSCUwDQYJKoZIhvcNAQELBQAw
FjEUMBIGA1UEAwwLdGVhbTQ1MC1uZXQwHhcNMjEwOTEzMDI1MTI3WhcNMjQwODI4
MDI1MTI3WjAZMRcwFQYDVQQDDA50ZWFtNDUwLWNsaWVudDCCASIwDQYJKoZIhvcN
AQEBBQADggEPADCCAQoCggEBALvJZMgn6hPXYZfPkTaiBqUZfonoaSNOJ7264wEC
rDIeqprhEr029lw3eSZeU9GQC0LJGc+bn4PPv+tks0HgsTMz7Si/5Yad00DKx2oR
D3S5GxD2TQ0AsxeSiilM8SrsrhmyhRsQyQwPslZ3x9BfQs1EANqAzhWUs9ObEQiC
vJDRVqdN5gowFp+e5sVagYpbGxUiCbB9cP9cjlEeSBInfYrhbHjwVNYqVjmvMoLl
P09Rw00qt3uY1hQ+ShxjEIR7gG6N0+gJLNiRwfma+NVgVMyn4sVIBOS95OJfzAtQ
CpHrXrYM9p5go3U+f8YAUopT3kkUDWRvGUxrIbu77r+zH2sCAwEAAaOBojCBnzAJ
BgNVHRMEAjAAMB0GA1UdDgQWBBT0twjhuUKz3otTFTW4L/OrSmv/3DBRBgNVHSME
SjBIgBTIqtl7dUUbFka6VzSx2raZDAyzBqEapBgwFjEUMBIGA1UEAwwLdGVhbTQ1
MC1uZXSCFAmaPkZ1Q+6k9dsJASpvuTdPMnmvMBMGA1UdJQQMMAoGCCsGAQUFBwMC
MAsGA1UdDwQEAwIHgDANBgkqhkiG9w0BAQsFAAOCAQEAU23Upj67/hJo9KJKA17k
TgKlsNdN0NgPw3zlaFuigZSwQ/FWlFDMKipkvAX/A2mlIEzm3R60FnxkIAM3GbYQ
ew8nU0sYQWofMvPMwdRJJ7QmMabVWKJbalmpTkjP94lF8/aPh07obzH3f3VMRNfh
/LyEXUcBybm8FNQ81Qc2uB3n5JjJwB/ULLcK6/Qlbz1QU5/n7mCjHrnbQs3xhJEI
Fm60BcgWUh62d3vHg34zc9KeQqAtDDy+To8xHnqkFj7k4TIPFndkUs2duOmU4tRG
+q1A7uVMf9ND51LX/vx0ZALervfMLQGLTb8Y/pBWalYL6YDCT2vs4zYL0OskrIy0
rA==
-----END CERTIFICATE-----
