Certificate:
    Data:
        Version: 3 (0x2)
        Serial Number:
            d2:45:5f:80:89:98:e9:e4:07:ff:17:a2:56:71:cb:89
        Signature Algorithm: sha256WithRSAEncryption
        Issuer: CN=team58-net
        Validity
            Not Before: Sep 12 23:14:54 2021 GMT
            Not After : Aug 27 23:14:54 2024 GMT
        Subject: CN=team58-client
        Subject Public Key Info:
            Public Key Algorithm: rsaEncryption
                RSA Public-Key: (2048 bit)
                Modulus:
                    00:9d:20:0b:38:80:48:3a:a7:94:fd:01:22:92:a0:
                    89:55:50:20:d3:aa:16:a3:e9:0b:2c:bf:b8:5b:ee:
                    1d:05:c0:d4:da:82:82:81:d5:76:32:8d:c8:37:6b:
                    cb:92:14:73:7b:fd:85:c1:95:59:54:31:31:a2:4e:
                    77:53:a8:56:90:40:93:ea:0a:50:a5:d2:fb:66:21:
                    7d:45:24:cf:c4:d9:43:22:7f:94:7c:ca:98:8c:d0:
                    32:27:82:59:f3:49:1d:08:da:27:29:38:6f:9d:6b:
                    3c:3b:8e:37:cd:3e:08:1f:09:e5:e0:ad:58:78:6e:
                    6d:11:9f:c3:c6:7d:1e:ef:9f:76:22:e2:ea:5e:8e:
                    56:6d:25:4a:85:6a:19:d6:80:e0:bb:57:ec:6a:24:
                    03:26:04:90:42:c8:ae:78:83:a4:1a:04:2c:d2:a0:
                    1d:4c:86:60:1f:4c:e8:cc:8f:70:bd:fe:83:a9:2b:
                    ff:40:c1:b0:fa:93:b6:91:97:66:7b:25:f5:86:fe:
                    90:e8:0a:46:df:b3:5b:4f:fb:22:30:13:af:c4:00:
                    59:ec:56:70:09:89:fc:d3:98:03:16:4e:6a:08:df:
                    65:08:e6:a7:d5:3e:a2:1d:ca:c2:7d:a1:91:17:86:
                    76:ec:af:56:ad:6a:5b:fd:fe:9d:44:be:4a:7f:32:
                    24:13
                Exponent: 65537 (0x10001)
        X509v3 extensions:
            X509v3 Basic Constraints: 
                CA:FALSE
            X509v3 Subject Key Identifier: 
                91:96:E3:90:65:0A:4F:9E:CA:E9:A5:99:C1:73:4A:8E:20:AC:8B:67
            X509v3 Authority Key Identifier: 
                keyid:5C:9A:D2:E3:7E:00:DA:1B:78:5A:AC:29:7C:CD:AD:53:DD:3C:E0:87
                DirName:/CN=team58-net
                serial:42:8A:16:C9:42:C7:FB:7E:35:56:E3:E9:A4:66:6D:F3:36:B4:F8:90

            X509v3 Extended Key Usage: 
                TLS Web Client Authentication
            X509v3 Key Usage: 
                Digital Signature
    Signature Algorithm: sha256WithRSAEncryption
         32:a1:68:16:d8:96:20:7c:09:53:aa:d8:32:28:99:3a:5f:89:
         50:36:13:fd:cb:57:04:0b:1e:28:c4:0d:7c:79:3d:e2:c4:d1:
         14:91:60:4b:ac:14:c7:ab:16:4a:f5:ab:89:b5:ed:13:1b:f2:
         a9:7e:c4:05:11:88:02:62:e1:13:c3:85:e7:09:0b:14:a4:37:
         aa:48:7a:11:3c:a3:cd:ba:f9:6a:66:03:03:f0:71:10:d2:8e:
         2e:ae:bb:8f:1e:df:05:98:5e:1f:d5:db:e7:c8:35:11:d9:d4:
         78:e5:13:d2:09:c6:8d:b1:c9:b0:1f:19:55:71:cb:d2:81:a7:
         93:c4:cc:82:38:bf:33:59:52:3c:97:f9:01:ce:e2:1a:2c:a1:
         67:f5:72:2f:74:75:b7:c4:69:82:94:00:44:ec:66:43:dc:92:
         3a:72:63:99:e8:89:c9:6f:aa:85:2f:5a:6b:b0:33:7e:b4:ca:
         3d:de:d4:bd:5f:b5:39:4c:5a:9e:d0:3a:79:28:00:05:07:b1:
         19:94:7f:15:5a:a0:8e:61:72:8a:8f:6b:7a:61:a1:62:b6:9e:
         3b:01:bc:87:79:e0:f5:42:e6:28:2b:32:42:a0:ec:c9:26:b9:
         e6:e8:ed:02:bb:fb:55:5c:29:a4:a0:ce:1e:80:4f:7c:08:51:
         f0:c7:f3:33
-----BEGIN CERTIFICATE-----
MIIDWjCCAkKgAwIBAgIRANJFX4CJmOnkB/8XolZxy4kwDQYJKoZIhvcNAQELBQAw
FTETMBEGA1UEAwwKdGVhbTU4LW5ldDAeFw0yMTA5MTIyMzE0NTRaFw0yNDA4Mjcy
MzE0NTRaMBgxFjAUBgNVBAMMDXRlYW01OC1jbGllbnQwggEiMA0GCSqGSIb3DQEB
AQUAA4IBDwAwggEKAoIBAQCdIAs4gEg6p5T9ASKSoIlVUCDTqhaj6Qssv7hb7h0F
wNTagoKB1XYyjcg3a8uSFHN7/YXBlVlUMTGiTndTqFaQQJPqClCl0vtmIX1FJM/E
2UMif5R8ypiM0DInglnzSR0I2icpOG+dazw7jjfNPggfCeXgrVh4bm0Rn8PGfR7v
n3Yi4upejlZtJUqFahnWgOC7V+xqJAMmBJBCyK54g6QaBCzSoB1MhmAfTOjMj3C9
/oOpK/9AwbD6k7aRl2Z7JfWG/pDoCkbfs1tP+yIwE6/EAFnsVnAJifzTmAMWTmoI
32UI5qfVPqIdysJ9oZEXhnbsr1atalv9/p1Evkp/MiQTAgMBAAGjgaEwgZ4wCQYD
VR0TBAIwADAdBgNVHQ4EFgQUkZbjkGUKT57K6aWZwXNKjiCsi2cwUAYDVR0jBEkw
R4AUXJrS434A2ht4WqwpfM2tU9084IehGaQXMBUxEzARBgNVBAMMCnRlYW01OC1u
ZXSCFEKKFslCx/t+NVbj6aRmbfM2tPiQMBMGA1UdJQQMMAoGCCsGAQUFBwMCMAsG
A1UdDwQEAwIHgDANBgkqhkiG9w0BAQsFAAOCAQEAMqFoFtiWIHwJU6rYMiiZOl+J
UDYT/ctXBAseKMQNfHk94sTRFJFgS6wUx6sWSvWribXtExvyqX7EBRGIAmLhE8OF
5wkLFKQ3qkh6ETyjzbr5amYDA/BxENKOLq67jx7fBZheH9Xb58g1EdnUeOUT0gnG
jbHJsB8ZVXHL0oGnk8TMgji/M1lSPJf5Ac7iGiyhZ/VyL3R1t8RpgpQAROxmQ9yS
OnJjmeiJyW+qhS9aa7AzfrTKPd7UvV+1OUxantA6eSgABQexGZR/FVqgjmFyio9r
emGhYraeOwG8h3ng9ULmKCsyQqDsySa55ujtArv7VVwppKDOHoBPfAhR8MfzMw==
-----END CERTIFICATE-----
