Certificate:
    Data:
        Version: 3 (0x2)
        Serial Number:
            59:49:bf:f1:15:ef:10:a5:5e:13:6b:b7:fe:dc:47:ef
        Signature Algorithm: sha256WithRSAEncryption
        Issuer: CN=team299-net
        Validity
            Not Before: Sep 13 01:25:14 2021 GMT
            Not After : Aug 28 01:25:14 2024 GMT
        Subject: CN=team299-server
        Subject Public Key Info:
            Public Key Algorithm: rsaEncryption
                RSA Public-Key: (2048 bit)
                Modulus:
                    00:94:60:87:13:a1:1b:b3:02:22:0d:f7:a2:56:ce:
                    fc:6c:d8:9e:af:d1:90:8b:49:d7:6e:a2:66:cd:ca:
                    f9:06:2e:d8:ec:6d:50:d2:87:80:bb:a1:ce:58:92:
                    2d:26:57:45:bd:b8:ef:6a:2a:c4:04:85:2e:29:ff:
                    cd:55:79:66:71:a6:a1:40:3e:4b:8a:66:34:4d:bc:
                    62:ff:e2:b9:39:48:7c:dd:72:68:46:e6:c1:28:e7:
                    71:48:e2:ce:40:e1:31:1a:af:f1:9d:96:3f:8b:d9:
                    3a:c7:55:92:6e:ab:4f:5d:01:14:9c:38:fb:52:6f:
                    74:fe:58:a6:31:06:aa:04:cb:72:1d:e5:54:11:5c:
                    7e:08:d4:bf:f2:5a:0d:45:ff:eb:b1:b7:4d:a5:74:
                    00:80:f5:56:2e:5b:c2:f6:f9:cd:48:58:ef:e9:e2:
                    c5:59:9b:b5:37:2c:bd:5a:8e:f8:64:f2:1f:ba:57:
                    e7:f8:df:a8:92:e6:58:6a:2b:bc:b3:21:68:d1:d5:
                    0a:9e:98:01:e8:75:9c:f5:45:37:95:b1:3d:c6:04:
                    e4:d1:f2:85:13:68:35:e8:c4:0e:7b:39:88:66:71:
                    d5:80:64:e8:b4:98:df:43:e2:f4:08:5a:27:ac:ab:
                    82:73:d8:66:90:41:2f:25:fd:cb:47:31:87:1b:c6:
                    05:e5
                Exponent: 65537 (0x10001)
        X509v3 extensions:
            X509v3 Basic Constraints: 
                CA:FALSE
            X509v3 Subject Key Identifier: 
                9F:B7:5D:E5:7D:71:8A:3D:EB:A9:9C:D8:CF:C3:F5:90:9D:F8:08:F7
            X509v3 Authority Key Identifier: 
                keyid:24:7A:16:2C:3F:B9:19:8C:1A:DD:15:7A:4F:BA:FD:9A:E6:62:37:A0
                DirName:/CN=team299-net
                serial:39:61:FC:0B:D9:93:D3:48:91:A4:38:3E:DB:F7:93:D8:E2:C6:CF:1F

            X509v3 Extended Key Usage: 
                TLS Web Server Authentication
            X509v3 Key Usage: 
                Digital Signature, Key Encipherment
            X509v3 Subject Alternative Name: 
                DNS:team299-server
    Signature Algorithm: sha256WithRSAEncryption
         e9:7f:48:ea:f2:39:9d:6f:26:5c:fb:a3:53:d6:8a:ba:c5:3d:
         79:f3:84:1a:66:5a:c6:f2:63:c6:83:5b:6a:90:5b:a7:c8:08:
         96:3c:0c:f2:ae:6d:23:06:ca:5a:67:f6:74:9e:f7:11:70:f7:
         4f:df:9f:d9:49:a1:64:45:92:0a:ba:31:a3:eb:e7:5f:23:df:
         52:2d:93:21:c6:4e:10:b7:a0:83:a6:0d:a8:9c:48:d9:39:88:
         8d:d6:c0:69:2b:6b:e8:62:02:58:5f:e1:f3:8b:e1:bc:26:ae:
         be:c0:4a:0e:8b:50:30:c3:6b:77:fe:4b:ca:c9:61:ab:76:87:
         2a:c7:2e:b2:bd:44:8d:fb:03:bf:13:2c:23:aa:ad:eb:7a:33:
         4c:1f:a5:9c:04:8b:25:dd:f0:a9:3c:ac:12:40:a7:ab:59:a9:
         64:85:7f:e6:6a:2c:2f:4b:ec:90:f6:9e:0b:de:fe:53:08:e9:
         c0:1a:ee:56:2b:3b:33:7a:b6:4d:37:e7:02:be:5d:50:1e:0a:
         5d:69:61:bb:ca:02:39:5f:23:2d:7d:fb:e5:17:0e:12:87:a1:
         3f:a9:e7:31:ed:02:5d:fc:c4:5d:9b:c3:ba:1c:17:bf:76:b8:
         72:0a:16:94:aa:87:55:95:d0:94:e4:47:69:e0:0b:d3:90:4c:
         cd:b0:55:42
-----BEGIN CERTIFICATE-----
MIIDdzCCAl+gAwIBAgIQWUm/8RXvEKVeE2u3/txH7zANBgkqhkiG9w0BAQsFADAW
MRQwEgYDVQQDDAt0ZWFtMjk5LW5ldDAeFw0yMTA5MTMwMTI1MTRaFw0yNDA4Mjgw
MTI1MTRaMBkxFzAVBgNVBAMMDnRlYW0yOTktc2VydmVyMIIBIjANBgkqhkiG9w0B
AQEFAAOCAQ8AMIIBCgKCAQEAlGCHE6EbswIiDfeiVs78bNier9GQi0nXbqJmzcr5
Bi7Y7G1Q0oeAu6HOWJItJldFvbjvairEBIUuKf/NVXlmcaahQD5LimY0Tbxi/+K5
OUh83XJoRubBKOdxSOLOQOExGq/xnZY/i9k6x1WSbqtPXQEUnDj7Um90/limMQaq
BMtyHeVUEVx+CNS/8loNRf/rsbdNpXQAgPVWLlvC9vnNSFjv6eLFWZu1Nyy9Wo74
ZPIfulfn+N+okuZYaiu8syFo0dUKnpgB6HWc9UU3lbE9xgTk0fKFE2g16MQOezmI
ZnHVgGTotJjfQ+L0CFonrKuCc9hmkEEvJf3LRzGHG8YF5QIDAQABo4G9MIG6MAkG
A1UdEwQCMAAwHQYDVR0OBBYEFJ+3XeV9cYo966mc2M/D9ZCd+Aj3MFEGA1UdIwRK
MEiAFCR6Fiw/uRmMGt0Vek+6/ZrmYjegoRqkGDAWMRQwEgYDVQQDDAt0ZWFtMjk5
LW5ldIIUOWH8C9mT00iRpDg+2/eT2OLGzx8wEwYDVR0lBAwwCgYIKwYBBQUHAwEw
CwYDVR0PBAQDAgWgMBkGA1UdEQQSMBCCDnRlYW0yOTktc2VydmVyMA0GCSqGSIb3
DQEBCwUAA4IBAQDpf0jq8jmdbyZc+6NT1oq6xT1584QaZlrG8mPGg1tqkFunyAiW
PAzyrm0jBspaZ/Z0nvcRcPdP35/ZSaFkRZIKujGj6+dfI99SLZMhxk4Qt6CDpg2o
nEjZOYiN1sBpK2voYgJYX+Hzi+G8Jq6+wEoOi1Aww2t3/kvKyWGrdocqxy6yvUSN
+wO/Eywjqq3rejNMH6WcBIsl3fCpPKwSQKerWalkhX/maiwvS+yQ9p4L3v5TCOnA
Gu5WKzszerZNN+cCvl1QHgpdaWG7ygI5XyMtffvlFw4Sh6E/qecx7QJd/MRdm8O6
HBe/drhyChaUqodVldCU5Edp4AvTkEzNsFVC
-----END CERTIFICATE-----
