Certificate:
    Data:
        Version: 3 (0x2)
        Serial Number:
            aa:5f:f6:b0:7e:c5:60:2d:20:31:c9:fd:0d:dc:c5:9f
        Signature Algorithm: sha256WithRSAEncryption
        Issuer: CN=team299-net
        Validity
            Not Before: Sep 13 01:25:13 2021 GMT
            Not After : Aug 28 01:25:13 2024 GMT
        Subject: CN=team299-client
        Subject Public Key Info:
            Public Key Algorithm: rsaEncryption
                RSA Public-Key: (2048 bit)
                Modulus:
                    00:d7:59:93:0c:f7:bf:fd:cf:29:d4:89:6a:8b:18:
                    24:b5:58:85:a2:b8:e9:59:1f:29:f6:c3:39:1d:b2:
                    37:25:b2:b2:f8:59:bb:56:97:c8:20:ed:22:0a:65:
                    d4:e1:3c:82:d4:6c:22:9d:87:63:1b:db:a7:a4:85:
                    7d:4c:99:fd:89:ef:24:f1:11:84:36:0e:55:b6:36:
                    f2:a9:e8:96:5e:1d:ad:df:b6:fe:7c:46:52:34:6a:
                    05:a1:ef:52:1f:39:3b:ed:25:d1:77:1d:a0:17:34:
                    e8:c8:b3:2a:dd:10:a5:31:33:0c:52:5b:3c:33:9e:
                    55:14:fd:f2:d5:f5:60:36:e8:79:b9:24:dc:d2:68:
                    a6:40:c9:08:c0:94:6e:13:e0:8e:15:57:cb:1b:3b:
                    18:82:9f:4d:34:c3:6e:57:e2:0b:50:e9:91:bd:0d:
                    58:26:a3:dc:ee:0a:f3:ce:34:61:77:28:6e:5c:c5:
                    9f:7a:50:60:bf:37:2b:ed:48:e3:11:d8:8b:fc:af:
                    00:91:25:0f:4e:a9:bc:a5:f7:74:cf:3a:22:8b:9f:
                    1e:a9:37:35:16:e5:37:6d:25:1b:2b:d5:90:8b:64:
                    48:55:0c:eb:eb:27:bf:1f:81:9f:b4:9c:18:cb:45:
                    3b:a3:18:24:2c:ad:d2:81:f2:26:80:5e:78:3a:d0:
                    d6:47
                Exponent: 65537 (0x10001)
        X509v3 extensions:
            X509v3 Basic Constraints: 
                CA:FALSE
            X509v3 Subject Key Identifier: 
                9F:57:31:2A:BA:27:71:51:18:F9:04:8A:31:08:84:DF:82:12:D4:C0
            X509v3 Authority Key Identifier: 
                keyid:24:7A:16:2C:3F:B9:19:8C:1A:DD:15:7A:4F:BA:FD:9A:E6:62:37:A0
                DirName:/CN=team299-net
                serial:39:61:FC:0B:D9:93:D3:48:91:A4:38:3E:DB:F7:93:D8:E2:C6:CF:1F

            X509v3 Extended Key Usage: 
                TLS Web Client Authentication
            X509v3 Key Usage: 
                Digital Signature
    Signature Algorithm: sha256WithRSAEncryption
         78:2f:00:a3:3a:d1:59:10:d5:24:9e:96:4e:15:15:c8:bf:d9:
         1e:4f:81:4f:a5:f6:61:b6:fe:67:00:eb:ab:fa:b8:00:ea:07:
         da:54:08:40:57:18:c6:0a:77:0d:2b:57:1b:18:a4:3e:13:9f:
         b4:16:b5:e0:20:ae:66:79:f1:5e:3d:a9:58:97:c0:4e:b6:63:
         3e:30:fe:2e:17:e6:a2:03:4a:d9:79:d8:d9:72:5a:a9:e9:50:
         0a:12:b8:b2:75:56:a9:a4:db:a4:76:d3:1a:f2:7e:45:c8:b3:
         cc:ec:81:a6:64:e5:23:a1:6c:4d:eb:7d:b7:da:45:88:91:49:
         6c:4d:90:05:af:04:ad:96:67:35:2b:ef:ce:f4:c9:dc:42:17:
         76:4d:21:63:8e:0e:23:e7:b4:16:7e:7b:bc:8a:d8:61:5f:56:
         49:e2:26:3d:ea:0e:21:48:0e:16:09:66:11:47:dc:d5:86:6b:
         ff:aa:bb:6f:85:0d:c3:2a:a5:15:f8:25:9f:69:97:ad:fa:f6:
         72:d0:4f:ce:ad:c0:54:74:22:99:49:81:55:84:22:8e:81:07:
         ad:50:35:77:77:b9:01:f7:9e:21:67:60:cf:a2:45:fc:bc:9e:
         89:ee:75:7d:2b:38:09:4c:ae:3e:98:9c:90:59:bf:44:cd:eb:
         cb:42:38:2e
-----BEGIN CERTIFICATE-----
MIIDXTCCAkWgAwIBAgIRAKpf9rB+xWAtIDHJ/Q3cxZ8wDQYJKoZIhvcNAQELBQAw
FjEUMBIGA1UEAwwLdGVhbTI5OS1uZXQwHhcNMjEwOTEzMDEyNTEzWhcNMjQwODI4
MDEyNTEzWjAZMRcwFQYDVQQDDA50ZWFtMjk5LWNsaWVudDCCASIwDQYJKoZIhvcN
AQEBBQADggEPADCCAQoCggEBANdZkwz3v/3PKdSJaosYJLVYhaK46VkfKfbDOR2y
NyWysvhZu1aXyCDtIgpl1OE8gtRsIp2HYxvbp6SFfUyZ/YnvJPERhDYOVbY28qno
ll4drd+2/nxGUjRqBaHvUh85O+0l0XcdoBc06MizKt0QpTEzDFJbPDOeVRT98tX1
YDboebkk3NJopkDJCMCUbhPgjhVXyxs7GIKfTTTDblfiC1Dpkb0NWCaj3O4K8840
YXcoblzFn3pQYL83K+1I4xHYi/yvAJElD06pvKX3dM86IoufHqk3NRblN20lGyvV
kItkSFUM6+snvx+Bn7ScGMtFO6MYJCyt0oHyJoBeeDrQ1kcCAwEAAaOBojCBnzAJ
BgNVHRMEAjAAMB0GA1UdDgQWBBSfVzEquidxURj5BIoxCITfghLUwDBRBgNVHSME
SjBIgBQkehYsP7kZjBrdFXpPuv2a5mI3oKEapBgwFjEUMBIGA1UEAwwLdGVhbTI5
OS1uZXSCFDlh/AvZk9NIkaQ4Ptv3k9jixs8fMBMGA1UdJQQMMAoGCCsGAQUFBwMC
MAsGA1UdDwQEAwIHgDANBgkqhkiG9w0BAQsFAAOCAQEAeC8AozrRWRDVJJ6WThUV
yL/ZHk+BT6X2Ybb+ZwDrq/q4AOoH2lQIQFcYxgp3DStXGxikPhOftBa14CCuZnnx
Xj2pWJfATrZjPjD+LhfmogNK2XnY2XJaqelQChK4snVWqaTbpHbTGvJ+RcizzOyB
pmTlI6FsTet9t9pFiJFJbE2QBa8ErZZnNSvvzvTJ3EIXdk0hY44OI+e0Fn57vIrY
YV9WSeImPeoOIUgOFglmEUfc1YZr/6q7b4UNwyqlFfgln2mXrfr2ctBPzq3AVHQi
mUmBVYQijoEHrVA1d3e5AfeeIWdgz6JF/Lyeie51fSs4CUyuPpickFm/RM3ry0I4
Lg==
-----END CERTIFICATE-----
