Certificate:
    Data:
        Version: 3 (0x2)
        Serial Number:
            65:4d:1d:5c:2a:e6:76:6b:ee:94:f3:2b:68:ce:ae:e3
        Signature Algorithm: sha256WithRSAEncryption
        Issuer: CN=team324-net
        Validity
            Not Before: Sep 13 01:40:40 2021 GMT
            Not After : Aug 28 01:40:40 2024 GMT
        Subject: CN=team324-client
        Subject Public Key Info:
            Public Key Algorithm: rsaEncryption
                RSA Public-Key: (2048 bit)
                Modulus:
                    00:ad:d0:92:81:cf:e0:bc:b8:9b:d3:c4:37:31:fd:
                    17:5f:5b:bd:e8:8a:c1:9f:7c:83:d0:bf:50:1e:34:
                    3b:ab:55:d3:1f:55:f1:40:01:c7:62:15:7d:9f:1c:
                    f7:40:39:e4:cf:38:d5:06:09:d6:0e:7d:65:fe:d8:
                    36:d7:1b:c6:47:3d:21:ce:90:9a:68:5e:e0:ec:41:
                    4d:ff:93:ca:a5:b3:0e:a9:b0:76:16:cd:33:5f:61:
                    8a:9d:b4:96:9e:0b:94:6d:31:2a:cf:5a:6d:d9:09:
                    b0:c7:2f:d2:77:19:26:dc:94:3f:93:3a:29:2a:b2:
                    99:9e:f9:9f:fc:18:25:59:59:99:37:11:76:51:9b:
                    64:85:77:1b:0e:ff:3d:e6:79:e2:30:59:83:6e:fd:
                    19:a6:d3:87:1f:ce:e8:63:03:a9:e0:07:95:3e:2a:
                    04:c1:b1:65:e7:55:69:32:45:94:45:f3:bf:ca:ca:
                    de:02:0b:10:1b:d9:af:9c:c4:05:43:47:8f:cf:ab:
                    29:99:84:67:8c:fc:0d:76:70:a9:f2:7b:56:53:77:
                    9b:7d:68:e1:52:84:7a:82:df:7b:16:a4:68:69:6f:
                    24:82:7a:b2:57:8b:9e:be:b4:a7:b1:05:a1:12:05:
                    8d:dc:f7:6c:a5:33:fa:1a:f8:59:d1:8c:62:da:26:
                    e7:ef
                Exponent: 65537 (0x10001)
        X509v3 extensions:
            X509v3 Basic Constraints: 
                CA:FALSE
            X509v3 Subject Key Identifier: 
                53:A7:9E:E2:3E:06:B6:35:7F:2F:77:A4:44:1F:17:A0:F1:ED:C6:30
            X509v3 Authority Key Identifier: 
                keyid:02:8D:40:45:85:6C:C8:2E:1D:1C:A2:2C:3F:DA:1F:45:58:AD:49:84
                DirName:/CN=team324-net
                serial:4A:99:6A:52:60:36:2C:C5:96:92:E9:40:FE:0C:56:0B:E6:5D:F5:5D

            X509v3 Extended Key Usage: 
                TLS Web Client Authentication
            X509v3 Key Usage: 
                Digital Signature
    Signature Algorithm: sha256WithRSAEncryption
         21:dc:f9:52:ff:c4:a0:10:8f:f2:e1:82:94:be:00:e8:2d:b0:
         99:67:2f:97:91:b1:9a:33:6b:10:1f:0c:a3:a6:37:63:f9:59:
         0f:31:21:78:30:3b:f9:b0:12:0d:db:94:28:3d:f5:b6:aa:02:
         07:38:bd:e5:69:05:ed:2e:38:cf:e0:2d:8c:92:eb:4d:f4:fb:
         23:39:5c:8e:df:a9:b0:b9:41:46:9c:9e:ce:af:6e:16:cb:5d:
         f0:b2:2b:43:79:00:0f:3b:11:9f:4b:4f:7e:83:52:3f:e4:20:
         32:fc:a5:93:23:cd:a7:ab:ad:6e:ba:49:36:f9:69:dc:60:e6:
         93:1e:16:b3:08:41:d7:90:44:19:af:98:b5:18:aa:c0:c0:bd:
         08:70:41:62:2d:17:15:08:a8:12:c7:4a:70:a4:56:3f:73:6c:
         fc:db:48:14:f7:e0:79:ed:b1:bf:7e:2e:8e:73:ef:a0:7a:7f:
         0c:32:ba:5b:8b:fe:c5:a4:48:7d:54:02:e9:44:91:47:53:cd:
         5d:ba:93:bd:de:ea:2c:84:49:dd:08:9b:e6:bd:47:b2:d3:87:
         53:f8:36:0d:d6:6a:9f:ec:c3:15:ea:0d:f2:de:5b:16:6a:d2:
         72:79:e4:91:1f:38:eb:1c:e1:09:75:6c:df:29:6d:a0:67:87:
         8e:21:10:d6
-----BEGIN CERTIFICATE-----
MIIDXDCCAkSgAwIBAgIQZU0dXCrmdmvulPMraM6u4zANBgkqhkiG9w0BAQsFADAW
MRQwEgYDVQQDDAt0ZWFtMzI0LW5ldDAeFw0yMTA5MTMwMTQwNDBaFw0yNDA4Mjgw
MTQwNDBaMBkxFzAVBgNVBAMMDnRlYW0zMjQtY2xpZW50MIIBIjANBgkqhkiG9w0B
AQEFAAOCAQ8AMIIBCgKCAQEArdCSgc/gvLib08Q3Mf0XX1u96IrBn3yD0L9QHjQ7
q1XTH1XxQAHHYhV9nxz3QDnkzzjVBgnWDn1l/tg21xvGRz0hzpCaaF7g7EFN/5PK
pbMOqbB2Fs0zX2GKnbSWnguUbTEqz1pt2Qmwxy/Sdxkm3JQ/kzopKrKZnvmf/Bgl
WVmZNxF2UZtkhXcbDv895nniMFmDbv0ZptOHH87oYwOp4AeVPioEwbFl51VpMkWU
RfO/ysreAgsQG9mvnMQFQ0ePz6spmYRnjPwNdnCp8ntWU3ebfWjhUoR6gt97FqRo
aW8kgnqyV4uevrSnsQWhEgWN3PdspTP6GvhZ0Yxi2ibn7wIDAQABo4GiMIGfMAkG
A1UdEwQCMAAwHQYDVR0OBBYEFFOnnuI+BrY1fy93pEQfF6Dx7cYwMFEGA1UdIwRK
MEiAFAKNQEWFbMguHRyiLD/aH0VYrUmEoRqkGDAWMRQwEgYDVQQDDAt0ZWFtMzI0
LW5ldIIUSplqUmA2LMWWkulA/gxWC+Zd9V0wEwYDVR0lBAwwCgYIKwYBBQUHAwIw
CwYDVR0PBAQDAgeAMA0GCSqGSIb3DQEBCwUAA4IBAQAh3PlS/8SgEI/y4YKUvgDo
LbCZZy+XkbGaM2sQHwyjpjdj+VkPMSF4MDv5sBIN25QoPfW2qgIHOL3laQXtLjjP
4C2MkutN9PsjOVyO36mwuUFGnJ7Or24Wy13wsitDeQAPOxGfS09+g1I/5CAy/KWT
I82nq61uukk2+WncYOaTHhazCEHXkEQZr5i1GKrAwL0IcEFiLRcVCKgSx0pwpFY/
c2z820gU9+B57bG/fi6Oc++gen8MMrpbi/7FpEh9VALpRJFHU81dupO93uoshEnd
CJvmvUey04dT+DYN1mqf7MMV6g3y3lsWatJyeeSRHzjrHOEJdWzfKW2gZ4eOIRDW
-----END CERTIFICATE-----
