Certificate:
    Data:
        Version: 3 (0x2)
        Serial Number:
            d3:42:b7:2e:35:ba:e8:df:07:46:6a:0e:4f:42:64:18
        Signature Algorithm: sha256WithRSAEncryption
        Issuer: CN=team324-net
        Validity
            Not Before: Sep 13 01:40:40 2021 GMT
            Not After : Aug 28 01:40:40 2024 GMT
        Subject: CN=team324-server
        Subject Public Key Info:
            Public Key Algorithm: rsaEncryption
                RSA Public-Key: (2048 bit)
                Modulus:
                    00:cd:f9:bc:67:70:c9:86:95:63:ac:17:58:95:be:
                    18:c2:2f:6d:ce:df:e1:cc:13:c6:f7:f4:17:37:77:
                    68:53:0c:be:18:01:65:22:19:c1:12:cc:99:c1:26:
                    50:d9:67:ee:49:61:f5:d5:e4:2d:a2:02:f8:18:6a:
                    cb:a3:e7:cf:f5:8f:69:71:b3:ee:bf:ba:1b:25:78:
                    d3:5c:b2:da:51:44:0a:f4:ca:6c:33:5d:cb:76:0f:
                    39:07:69:8b:2b:70:7e:90:10:3a:fc:04:27:73:e7:
                    c2:c8:98:89:68:84:a7:a1:b8:bd:92:22:26:91:25:
                    80:93:74:b3:35:35:df:82:5f:91:94:11:46:6a:7c:
                    fc:77:05:a2:34:63:c9:e5:83:c7:3c:13:2e:e8:e7:
                    2b:8f:43:ae:c7:13:48:46:02:0f:3f:7c:39:b3:ae:
                    f3:ab:96:1f:37:45:6b:57:5c:6e:ef:ce:97:14:09:
                    e1:86:cd:01:7c:e8:77:24:5e:8e:0e:bd:3e:83:c5:
                    cc:3d:8c:c9:9a:d8:b7:d1:74:b5:86:1f:f9:7e:62:
                    95:1a:3d:1b:88:e6:0f:94:9f:c7:ac:2a:f9:54:27:
                    02:e2:3d:fb:10:c4:cb:9b:8c:e8:74:16:a6:b0:1a:
                    99:54:7f:1c:99:48:39:27:9e:32:2b:c5:49:49:9b:
                    0d:15
                Exponent: 65537 (0x10001)
        X509v3 extensions:
            X509v3 Basic Constraints: 
                CA:FALSE
            X509v3 Subject Key Identifier: 
                79:0D:5D:68:6B:FF:15:5C:32:D7:3B:7E:CC:2A:2F:85:22:F3:07:3A
            X509v3 Authority Key Identifier: 
                keyid:02:8D:40:45:85:6C:C8:2E:1D:1C:A2:2C:3F:DA:1F:45:58:AD:49:84
                DirName:/CN=team324-net
                serial:4A:99:6A:52:60:36:2C:C5:96:92:E9:40:FE:0C:56:0B:E6:5D:F5:5D

            X509v3 Extended Key Usage: 
                TLS Web Server Authentication
            X509v3 Key Usage: 
                Digital Signature, Key Encipherment
            X509v3 Subject Alternative Name: 
                DNS:team324-server
    Signature Algorithm: sha256WithRSAEncryption
         20:a5:35:05:17:82:f4:c6:bb:8b:da:47:7a:f4:55:e5:79:1a:
         84:11:0f:bd:c7:8d:fe:de:21:73:21:4f:09:5a:82:48:c8:04:
         aa:a6:16:57:7f:12:e1:bc:5c:3a:c6:f3:15:4d:2e:c9:1f:43:
         93:3d:15:69:35:d8:ae:44:b9:bf:66:44:82:e7:56:50:49:3e:
         a4:6b:10:87:f3:84:50:16:3d:9b:6b:d4:fd:1b:4f:c1:56:de:
         65:a8:7d:36:b1:8c:c5:f7:d5:a6:fe:98:6f:d1:68:33:4b:b1:
         1f:b3:01:64:29:3d:07:4f:f6:52:04:b3:34:4d:1b:d9:f2:ff:
         3a:bf:b7:3c:fa:74:ad:c4:15:ed:e5:35:77:e2:43:ca:24:4a:
         12:93:71:66:f2:66:6d:65:1a:4e:f7:de:d1:79:e1:d9:93:34:
         7c:7e:01:db:d3:15:73:9b:f2:41:65:07:74:9f:0d:89:4a:a0:
         8f:6b:42:39:3f:a5:eb:ab:37:6f:ee:07:d5:05:d9:ed:bd:c1:
         cd:18:e7:a7:e1:d8:dc:cc:38:cc:8c:c6:01:9c:4c:55:8d:14:
         6b:33:68:90:84:e6:83:84:ab:69:21:c7:8a:a2:57:e8:54:e9:
         f9:ab:90:2e:36:3c:2e:89:a3:7b:4e:ec:a6:bb:90:6a:40:fe:
         78:59:50:05
-----BEGIN CERTIFICATE-----
MIIDeDCCAmCgAwIBAgIRANNCty41uujfB0ZqDk9CZBgwDQYJKoZIhvcNAQELBQAw
FjEUMBIGA1UEAwwLdGVhbTMyNC1uZXQwHhcNMjEwOTEzMDE0MDQwWhcNMjQwODI4
MDE0MDQwWjAZMRcwFQYDVQQDDA50ZWFtMzI0LXNlcnZlcjCCASIwDQYJKoZIhvcN
AQEBBQADggEPADCCAQoCggEBAM35vGdwyYaVY6wXWJW+GMIvbc7f4cwTxvf0Fzd3
aFMMvhgBZSIZwRLMmcEmUNln7klh9dXkLaIC+Bhqy6Pnz/WPaXGz7r+6GyV401yy
2lFECvTKbDNdy3YPOQdpiytwfpAQOvwEJ3PnwsiYiWiEp6G4vZIiJpElgJN0szU1
34JfkZQRRmp8/HcFojRjyeWDxzwTLujnK49DrscTSEYCDz98ObOu86uWHzdFa1dc
bu/OlxQJ4YbNAXzodyRejg69PoPFzD2MyZrYt9F0tYYf+X5ilRo9G4jmD5Sfx6wq
+VQnAuI9+xDEy5uM6HQWprAamVR/HJlIOSeeMivFSUmbDRUCAwEAAaOBvTCBujAJ
BgNVHRMEAjAAMB0GA1UdDgQWBBR5DV1oa/8VXDLXO37MKi+FIvMHOjBRBgNVHSME
SjBIgBQCjUBFhWzILh0coiw/2h9FWK1JhKEapBgwFjEUMBIGA1UEAwwLdGVhbTMy
NC1uZXSCFEqZalJgNizFlpLpQP4MVgvmXfVdMBMGA1UdJQQMMAoGCCsGAQUFBwMB
MAsGA1UdDwQEAwIFoDAZBgNVHREEEjAQgg50ZWFtMzI0LXNlcnZlcjANBgkqhkiG
9w0BAQsFAAOCAQEAIKU1BReC9Ma7i9pHevRV5XkahBEPvceN/t4hcyFPCVqCSMgE
qqYWV38S4bxcOsbzFU0uyR9Dkz0VaTXYrkS5v2ZEgudWUEk+pGsQh/OEUBY9m2vU
/RtPwVbeZah9NrGMxffVpv6Yb9FoM0uxH7MBZCk9B0/2UgSzNE0b2fL/Or+3PPp0
rcQV7eU1d+JDyiRKEpNxZvJmbWUaTvfe0Xnh2ZM0fH4B29MVc5vyQWUHdJ8NiUqg
j2tCOT+l66s3b+4H1QXZ7b3BzRjnp+HY3Mw4zIzGAZxMVY0UazNokITmg4SraSHH
iqJX6FTp+auQLjY8Lomje07spruQakD+eFlQBQ==
-----END CERTIFICATE-----
