Certificate:
    Data:
        Version: 3 (0x2)
        Serial Number:
            c2:5c:f0:3f:ea:0e:bd:f7:3f:d8:81:47:ba:e9:39:c6
        Signature Algorithm: sha256WithRSAEncryption
        Issuer: CN=team439-net
        Validity
            Not Before: Sep 13 02:46:34 2021 GMT
            Not After : Aug 28 02:46:34 2024 GMT
        Subject: CN=team439-server
        Subject Public Key Info:
            Public Key Algorithm: rsaEncryption
                RSA Public-Key: (2048 bit)
                Modulus:
                    00:c4:6c:83:91:1b:e3:4d:5c:59:82:d1:4b:63:d5:
                    4a:0d:24:5a:ed:42:be:fd:ac:af:9d:ef:f5:0d:dc:
                    fc:ee:25:1a:34:79:c9:f4:d6:0d:58:fa:ba:07:a6:
                    e9:70:07:c4:c8:85:10:c9:39:c5:79:aa:e8:cc:cf:
                    7e:7e:a8:9e:06:97:06:97:59:5f:f6:da:97:8f:61:
                    64:9e:91:f6:4e:f2:7b:04:62:d5:80:1d:a3:d3:90:
                    bd:9a:fb:bb:e7:ef:8f:d7:63:27:37:77:94:c5:c5:
                    20:b8:5b:9a:b5:23:f9:68:28:37:e6:8c:df:fc:a7:
                    dc:6c:19:80:a2:37:82:06:69:59:75:7c:3f:9e:b9:
                    9e:bb:f5:92:85:3f:80:44:0c:19:2f:a8:44:b3:85:
                    c7:66:da:9b:2f:77:72:56:57:de:ef:a3:bc:46:67:
                    7a:86:4e:b8:2d:04:82:84:9a:8e:7e:be:c3:50:fb:
                    2f:c7:0c:e2:81:44:31:c8:22:0d:d2:c6:c6:af:8e:
                    d7:c3:8e:a0:05:70:d7:92:20:8f:72:9d:8b:77:35:
                    e2:09:6c:c0:98:1c:02:4c:53:06:53:24:76:95:30:
                    48:08:48:7c:16:6c:57:76:1a:c9:bc:34:56:73:92:
                    f0:84:e0:b5:fd:d2:67:18:fb:fc:d1:a5:63:d5:b2:
                    60:8f
                Exponent: 65537 (0x10001)
        X509v3 extensions:
            X509v3 Basic Constraints: 
                CA:FALSE
            X509v3 Subject Key Identifier: 
                2C:B8:FC:92:EF:EC:C3:07:FA:D4:1F:F5:34:76:01:41:0D:2F:9E:A4
            X509v3 Authority Key Identifier: 
                keyid:AA:26:90:92:E3:2C:06:69:AA:36:D0:DA:AC:FA:79:60:B8:2A:46:8B
                DirName:/CN=team439-net
                serial:1D:7A:8B:0C:B8:2A:BB:51:92:7E:4A:39:16:0A:D5:6E:90:70:A6:A1

            X509v3 Extended Key Usage: 
                TLS Web Server Authentication
            X509v3 Key Usage: 
                Digital Signature, Key Encipherment
            X509v3 Subject Alternative Name: 
                DNS:team439-server
    Signature Algorithm: sha256WithRSAEncryption
         12:98:9e:6d:48:e3:76:56:f6:0a:46:ea:04:00:81:8a:a7:d6:
         a0:76:f1:8f:3a:9a:ea:4b:b6:ad:0c:dd:9e:63:57:60:93:04:
         66:4d:49:19:50:8f:46:ed:f1:f1:b1:d0:2f:33:01:b7:b1:70:
         9c:66:53:e7:29:2e:3c:d2:29:d1:04:b7:4f:22:f4:20:4c:73:
         71:c6:8b:a7:65:26:74:78:20:d9:d0:23:f8:5e:74:16:ce:6a:
         53:64:0a:3e:2a:d2:77:54:79:4a:00:19:e1:0f:9e:3b:fe:37:
         1a:10:12:fc:f3:da:ac:ba:a6:01:2e:57:97:01:e5:e8:ae:a8:
         30:3f:68:91:66:25:ba:18:d0:08:15:a2:b0:54:0a:1e:8c:2d:
         33:eb:5d:69:2f:67:6c:2b:4b:3e:17:39:01:0d:5b:f6:b0:70:
         4a:51:4e:16:e1:1e:39:68:a9:45:9a:65:83:4c:13:d4:02:4b:
         39:e6:a1:bc:1f:ef:00:67:1d:b9:b3:f4:b3:b2:7f:fc:e3:05:
         10:6f:67:27:54:d2:51:23:cd:9d:0b:2e:bd:6e:f8:9c:58:0b:
         5d:9d:7d:0d:1c:6c:91:a8:29:c0:b9:af:11:0b:68:07:24:64:
         48:87:bc:cd:99:e0:f0:bd:ae:ba:73:2b:3d:66:19:a9:35:9a:
         c7:ff:72:ed
-----BEGIN CERTIFICATE-----
MIIDeDCCAmCgAwIBAgIRAMJc8D/qDr33P9iBR7rpOcYwDQYJKoZIhvcNAQELBQAw
FjEUMBIGA1UEAwwLdGVhbTQzOS1uZXQwHhcNMjEwOTEzMDI0NjM0WhcNMjQwODI4
MDI0NjM0WjAZMRcwFQYDVQQDDA50ZWFtNDM5LXNlcnZlcjCCASIwDQYJKoZIhvcN
AQEBBQADggEPADCCAQoCggEBAMRsg5Eb401cWYLRS2PVSg0kWu1Cvv2sr53v9Q3c
/O4lGjR5yfTWDVj6ugem6XAHxMiFEMk5xXmq6MzPfn6ongaXBpdZX/bal49hZJ6R
9k7yewRi1YAdo9OQvZr7u+fvj9djJzd3lMXFILhbmrUj+WgoN+aM3/yn3GwZgKI3
ggZpWXV8P565nrv1koU/gEQMGS+oRLOFx2bamy93clZX3u+jvEZneoZOuC0EgoSa
jn6+w1D7L8cM4oFEMcgiDdLGxq+O18OOoAVw15Igj3Kdi3c14glswJgcAkxTBlMk
dpUwSAhIfBZsV3Yaybw0VnOS8ITgtf3SZxj7/NGlY9WyYI8CAwEAAaOBvTCBujAJ
BgNVHRMEAjAAMB0GA1UdDgQWBBQsuPyS7+zDB/rUH/U0dgFBDS+epDBRBgNVHSME
SjBIgBSqJpCS4ywGaao20Nqs+nlguCpGi6EapBgwFjEUMBIGA1UEAwwLdGVhbTQz
OS1uZXSCFB16iwy4KrtRkn5KORYK1W6QcKahMBMGA1UdJQQMMAoGCCsGAQUFBwMB
MAsGA1UdDwQEAwIFoDAZBgNVHREEEjAQgg50ZWFtNDM5LXNlcnZlcjANBgkqhkiG
9w0BAQsFAAOCAQEAEpiebUjjdlb2CkbqBACBiqfWoHbxjzqa6ku2rQzdnmNXYJME
Zk1JGVCPRu3x8bHQLzMBt7FwnGZT5ykuPNIp0QS3TyL0IExzccaLp2UmdHgg2dAj
+F50Fs5qU2QKPirSd1R5SgAZ4Q+eO/43GhAS/PParLqmAS5XlwHl6K6oMD9okWYl
uhjQCBWisFQKHowtM+tdaS9nbCtLPhc5AQ1b9rBwSlFOFuEeOWipRZplg0wT1AJL
OeahvB/vAGcdubP0s7J//OMFEG9nJ1TSUSPNnQsuvW74nFgLXZ19DRxskagpwLmv
EQtoByRkSIe8zZng8L2uunMrPWYZqTWax/9y7Q==
-----END CERTIFICATE-----
