Certificate:
    Data:
        Version: 3 (0x2)
        Serial Number:
            cc:4c:e1:d1:b5:0b:e9:a1:2e:fd:ef:05:07:42:b9:da
        Signature Algorithm: sha256WithRSAEncryption
        Issuer: CN=team439-net
        Validity
            Not Before: Sep 13 02:46:34 2021 GMT
            Not After : Aug 28 02:46:34 2024 GMT
        Subject: CN=team439-client
        Subject Public Key Info:
            Public Key Algorithm: rsaEncryption
                RSA Public-Key: (2048 bit)
                Modulus:
                    00:cd:6d:47:a4:c7:03:01:8d:90:19:e1:74:77:89:
                    fb:57:e0:41:dd:4f:44:24:6e:97:22:4d:71:aa:d6:
                    a2:b2:a4:58:8f:ed:55:3b:e5:8c:55:6d:4a:20:6b:
                    e8:58:22:ad:b2:5b:11:a6:d7:f6:5d:37:51:96:d3:
                    f3:93:55:f7:9a:65:15:77:b1:72:23:3d:da:f7:21:
                    03:62:b1:84:a1:e7:a9:35:71:88:07:74:e4:5e:76:
                    64:03:71:72:a5:11:01:69:f6:bc:f4:89:0e:f8:29:
                    3e:76:01:73:1e:16:3b:72:d5:48:d5:bc:e4:56:3e:
                    fe:72:7b:23:71:f3:3c:cf:0d:7b:f3:18:ad:6c:c4:
                    56:98:c2:ef:01:54:d7:10:52:30:b5:53:d9:e9:d9:
                    ca:63:68:bb:58:e1:2b:7b:7c:00:95:a1:3b:2c:c6:
                    aa:63:56:6c:b2:c0:c1:32:a3:bc:7b:3f:75:e0:71:
                    16:dc:f9:f4:45:82:67:02:b7:cd:65:16:09:07:50:
                    83:01:0e:f6:24:f3:c9:43:bf:a6:96:bc:86:7b:af:
                    b2:ea:84:14:0e:bd:b2:d7:35:6c:60:59:29:c5:b3:
                    57:46:00:f9:89:16:66:7f:b8:92:95:00:a7:d3:28:
                    c4:4b:54:0f:b3:d0:80:c1:f4:33:f9:b8:cc:e7:c2:
                    32:e1
                Exponent: 65537 (0x10001)
        X509v3 extensions:
            X509v3 Basic Constraints: 
                CA:FALSE
            X509v3 Subject Key Identifier: 
                34:60:66:22:68:7C:BF:64:F1:E6:50:01:64:4B:CA:43:C6:4B:F0:04
            X509v3 Authority Key Identifier: 
                keyid:AA:26:90:92:E3:2C:06:69:AA:36:D0:DA:AC:FA:79:60:B8:2A:46:8B
                DirName:/CN=team439-net
                serial:1D:7A:8B:0C:B8:2A:BB:51:92:7E:4A:39:16:0A:D5:6E:90:70:A6:A1

            X509v3 Extended Key Usage: 
                TLS Web Client Authentication
            X509v3 Key Usage: 
                Digital Signature
    Signature Algorithm: sha256WithRSAEncryption
         3c:4b:0a:2d:d9:0f:b3:ee:40:0b:21:df:d7:f3:8a:b8:64:3a:
         bc:2a:5e:0f:60:f9:97:11:ff:61:bf:ad:3a:0d:3f:ac:67:95:
         5a:71:f9:61:96:f2:ee:a6:a5:ea:f3:d4:cb:31:d2:25:e1:51:
         f4:45:ea:b1:e1:77:b2:41:bd:8d:65:8f:29:0c:5d:e3:82:23:
         9c:47:42:01:37:c5:64:eb:73:0d:61:f8:37:ee:72:e8:82:a8:
         f3:95:60:7e:cc:0c:a2:0e:3f:4a:d3:0b:e1:e8:73:5e:88:ee:
         0e:c8:5a:64:36:a7:30:7c:8a:b4:fd:01:25:b2:f0:d8:bd:6d:
         6e:bb:bd:86:26:1d:73:84:bf:d0:c7:ec:05:d4:4e:38:d5:5d:
         dd:38:ac:aa:65:26:0f:ea:2e:af:61:eb:94:76:c6:8b:8c:cb:
         3d:22:3e:27:a0:ca:6a:52:5b:7a:01:48:2e:1e:89:7d:76:65:
         ad:ea:c3:d6:07:1a:c4:4f:b2:62:ba:84:f0:32:a7:5f:9f:f6:
         62:ce:5d:ab:64:e8:9b:fb:76:65:ed:c7:89:36:c6:7b:2c:85:
         3e:d3:7f:4f:a2:9d:ee:79:f3:bf:2b:8b:fe:47:ec:30:fe:19:
         4b:f6:ef:b0:f4:1e:8f:72:19:a9:55:71:be:85:00:ca:96:53:
         c8:c1:28:62
-----BEGIN CERTIFICATE-----
MIIDXTCCAkWgAwIBAgIRAMxM4dG1C+mhLv3vBQdCudowDQYJKoZIhvcNAQELBQAw
FjEUMBIGA1UEAwwLdGVhbTQzOS1uZXQwHhcNMjEwOTEzMDI0NjM0WhcNMjQwODI4
MDI0NjM0WjAZMRcwFQYDVQQDDA50ZWFtNDM5LWNsaWVudDCCASIwDQYJKoZIhvcN
AQEBBQADggEPADCCAQoCggEBAM1tR6THAwGNkBnhdHeJ+1fgQd1PRCRulyJNcarW
orKkWI/tVTvljFVtSiBr6FgirbJbEabX9l03UZbT85NV95plFXexciM92vchA2Kx
hKHnqTVxiAd05F52ZANxcqURAWn2vPSJDvgpPnYBcx4WO3LVSNW85FY+/nJ7I3Hz
PM8Ne/MYrWzEVpjC7wFU1xBSMLVT2enZymNou1jhK3t8AJWhOyzGqmNWbLLAwTKj
vHs/deBxFtz59EWCZwK3zWUWCQdQgwEO9iTzyUO/ppa8hnuvsuqEFA69stc1bGBZ
KcWzV0YA+YkWZn+4kpUAp9MoxEtUD7PQgMH0M/m4zOfCMuECAwEAAaOBojCBnzAJ
BgNVHRMEAjAAMB0GA1UdDgQWBBQ0YGYiaHy/ZPHmUAFkS8pDxkvwBDBRBgNVHSME
SjBIgBSqJpCS4ywGaao20Nqs+nlguCpGi6EapBgwFjEUMBIGA1UEAwwLdGVhbTQz
OS1uZXSCFB16iwy4KrtRkn5KORYK1W6QcKahMBMGA1UdJQQMMAoGCCsGAQUFBwMC
MAsGA1UdDwQEAwIHgDANBgkqhkiG9w0BAQsFAAOCAQEAPEsKLdkPs+5ACyHf1/OK
uGQ6vCpeD2D5lxH/Yb+tOg0/rGeVWnH5YZby7qal6vPUyzHSJeFR9EXqseF3skG9
jWWPKQxd44IjnEdCATfFZOtzDWH4N+5y6IKo85VgfswMog4/StML4ehzXojuDsha
ZDanMHyKtP0BJbLw2L1tbru9hiYdc4S/0MfsBdROONVd3TisqmUmD+our2HrlHbG
i4zLPSI+J6DKalJbegFILh6JfXZlrerD1gcaxE+yYrqE8DKnX5/2Ys5dq2Tom/t2
Ze3HiTbGeyyFPtN/T6Kd7nnzvyuL/kfsMP4ZS/bvsPQej3IZqVVxvoUAypZTyMEo
Yg==
-----END CERTIFICATE-----
