Certificate:
    Data:
        Version: 3 (0x2)
        Serial Number:
            48:75:6e:3c:25:80:17:07:fd:0e:5f:de:3f:0c:ec:5b
        Signature Algorithm: sha256WithRSAEncryption
        Issuer: CN=team761-net
        Validity
            Not Before: Sep 13 05:19:26 2021 GMT
            Not After : Aug 28 05:19:26 2024 GMT
        Subject: CN=team761-server
        Subject Public Key Info:
            Public Key Algorithm: rsaEncryption
                RSA Public-Key: (2048 bit)
                Modulus:
                    00:f2:7f:c3:1f:19:cc:c1:9b:93:72:6c:7c:c5:4e:
                    6a:47:70:7d:75:5a:7b:21:6d:b5:7e:8a:68:0c:72:
                    da:b2:46:59:b2:4d:68:fc:df:7b:86:1a:ad:63:4f:
                    9d:46:ae:32:8c:49:e4:f2:ec:04:f7:d9:81:c7:5e:
                    b8:3d:81:ba:9d:66:b6:b3:5d:60:da:73:02:bf:ad:
                    55:a9:e8:d7:fb:6e:9c:8b:39:94:b9:a0:7c:47:bd:
                    79:e5:35:ff:3e:fe:0c:bd:82:b7:be:a4:45:8c:d7:
                    7f:63:6c:48:da:ae:2e:d3:ef:2b:27:06:05:d3:fb:
                    ff:e8:78:30:f6:a1:52:72:4a:e7:fa:82:26:3d:93:
                    13:dc:69:bb:61:58:2a:e1:22:cc:d5:b5:69:fd:ad:
                    d6:6f:46:bf:c6:41:2f:b4:75:6a:1f:c5:96:f1:c7:
                    7e:48:f4:02:e6:ab:d1:b7:15:6d:74:80:ac:1a:78:
                    7b:98:3c:c2:10:5b:20:a5:c1:20:8c:d9:ab:d0:55:
                    67:eb:e5:d5:e7:3a:1d:22:6c:9a:cb:0b:f2:5c:91:
                    c6:0b:27:73:bc:23:e1:1d:2a:9a:95:82:e9:2c:00:
                    75:d6:6b:49:80:5c:ab:9b:4c:19:5e:15:08:eb:c5:
                    58:cb:4f:b9:6d:b5:bc:a1:9d:7f:c2:e2:43:2d:2f:
                    9d:53
                Exponent: 65537 (0x10001)
        X509v3 extensions:
            X509v3 Basic Constraints: 
                CA:FALSE
            X509v3 Subject Key Identifier: 
                DB:ED:7B:AA:51:8B:A9:70:5B:CF:AE:B2:9B:EC:5D:35:5C:2C:51:4E
            X509v3 Authority Key Identifier: 
                keyid:6A:B8:04:68:59:14:15:2E:E2:CE:C3:0D:45:F7:1A:62:E6:D1:5F:AE
                DirName:/CN=team761-net
                serial:51:C6:3A:C0:E1:F9:0E:BB:2D:AE:93:BB:0E:4B:E7:AC:0F:BC:98:85

            X509v3 Extended Key Usage: 
                TLS Web Server Authentication
            X509v3 Key Usage: 
                Digital Signature, Key Encipherment
            X509v3 Subject Alternative Name: 
                DNS:team761-server
    Signature Algorithm: sha256WithRSAEncryption
         21:54:cc:a8:b7:89:ef:1f:5b:4a:a6:2e:0e:9b:e8:bc:ea:55:
         a2:9a:40:e4:58:74:53:bc:00:02:4e:79:f9:da:ac:68:dd:a0:
         18:d5:ac:4c:1c:f7:dd:da:cf:a2:d5:cd:72:42:e0:0b:04:41:
         ee:5a:3d:c9:c7:04:5e:5d:8c:e4:46:a0:26:ca:88:1d:cf:83:
         90:0d:3b:8e:26:ba:d5:4b:49:84:3a:4b:f8:f4:23:75:e7:06:
         1c:3c:9d:75:b9:62:b8:78:d0:f9:fe:3a:15:4a:4b:6a:6e:f6:
         48:a5:5c:91:08:08:de:83:39:2c:90:4a:f1:64:b6:73:a1:9f:
         45:3d:82:e6:fe:cc:1c:12:71:8e:c5:f4:70:1e:f1:2d:17:3f:
         9a:33:b6:1f:06:10:eb:be:30:a8:55:f9:dc:1e:c5:94:5f:30:
         09:71:3f:1b:99:74:58:54:bc:96:7f:83:9f:79:e2:67:5a:85:
         05:c9:b3:25:48:ec:30:99:65:3c:60:70:fc:f1:87:ab:46:ff:
         de:a2:0a:54:34:d0:1c:57:00:86:16:7f:c0:68:20:15:10:82:
         60:bb:cc:8c:2b:e3:f0:18:47:43:bb:ee:c6:85:7e:e6:0e:9e:
         ef:1b:01:a4:5c:86:81:f4:e9:c0:25:c8:f2:44:fb:e8:e8:d5:
         91:fd:d6:0d
-----BEGIN CERTIFICATE-----
MIIDdzCCAl+gAwIBAgIQSHVuPCWAFwf9Dl/ePwzsWzANBgkqhkiG9w0BAQsFADAW
MRQwEgYDVQQDDAt0ZWFtNzYxLW5ldDAeFw0yMTA5MTMwNTE5MjZaFw0yNDA4Mjgw
NTE5MjZaMBkxFzAVBgNVBAMMDnRlYW03NjEtc2VydmVyMIIBIjANBgkqhkiG9w0B
AQEFAAOCAQ8AMIIBCgKCAQEA8n/DHxnMwZuTcmx8xU5qR3B9dVp7IW21fopoDHLa
skZZsk1o/N97hhqtY0+dRq4yjEnk8uwE99mBx164PYG6nWa2s11g2nMCv61VqejX
+26cizmUuaB8R7155TX/Pv4MvYK3vqRFjNd/Y2xI2q4u0+8rJwYF0/v/6Hgw9qFS
ckrn+oImPZMT3Gm7YVgq4SLM1bVp/a3Wb0a/xkEvtHVqH8WW8cd+SPQC5qvRtxVt
dICsGnh7mDzCEFsgpcEgjNmr0FVn6+XV5zodImyaywvyXJHGCydzvCPhHSqalYLp
LAB11mtJgFyrm0wZXhUI68VYy0+5bbW8oZ1/wuJDLS+dUwIDAQABo4G9MIG6MAkG
A1UdEwQCMAAwHQYDVR0OBBYEFNvte6pRi6lwW8+uspvsXTVcLFFOMFEGA1UdIwRK
MEiAFGq4BGhZFBUu4s7DDUX3GmLm0V+uoRqkGDAWMRQwEgYDVQQDDAt0ZWFtNzYx
LW5ldIIUUcY6wOH5DrstrpO7DkvnrA+8mIUwEwYDVR0lBAwwCgYIKwYBBQUHAwEw
CwYDVR0PBAQDAgWgMBkGA1UdEQQSMBCCDnRlYW03NjEtc2VydmVyMA0GCSqGSIb3
DQEBCwUAA4IBAQAhVMyot4nvH1tKpi4Om+i86lWimkDkWHRTvAACTnn52qxo3aAY
1axMHPfd2s+i1c1yQuALBEHuWj3JxwReXYzkRqAmyogdz4OQDTuOJrrVS0mEOkv4
9CN15wYcPJ11uWK4eND5/joVSktqbvZIpVyRCAjegzkskErxZLZzoZ9FPYLm/swc
EnGOxfRwHvEtFz+aM7YfBhDrvjCoVfncHsWUXzAJcT8bmXRYVLyWf4OfeeJnWoUF
ybMlSOwwmWU8YHD88YerRv/eogpUNNAcVwCGFn/AaCAVEIJgu8yMK+PwGEdDu+7G
hX7mDp7vGwGkXIaB9OnAJcjyRPvo6NWR/dYN
-----END CERTIFICATE-----
