Certificate:
    Data:
        Version: 3 (0x2)
        Serial Number:
            6c:82:35:66:80:bb:aa:b8:39:35:65:80:8e:c4:87:91
        Signature Algorithm: sha256WithRSAEncryption
        Issuer: CN=team761-net
        Validity
            Not Before: Sep 13 05:19:26 2021 GMT
            Not After : Aug 28 05:19:26 2024 GMT
        Subject: CN=team761-client
        Subject Public Key Info:
            Public Key Algorithm: rsaEncryption
                RSA Public-Key: (2048 bit)
                Modulus:
                    00:b7:e3:5b:51:08:1a:29:8d:4c:8d:1a:41:97:26:
                    e8:4b:cb:e7:ab:32:c8:09:fe:f7:d4:2d:a0:d6:65:
                    6f:dd:84:98:5a:37:0b:3f:a0:8a:46:54:24:06:4c:
                    a6:ef:cb:d0:a3:35:e1:62:3c:6a:7c:e7:6d:15:eb:
                    45:92:c5:b8:9a:21:da:29:f4:dd:eb:b6:81:89:6f:
                    e4:a9:f1:a3:5f:19:3a:37:5a:56:e4:f4:8c:7f:fa:
                    c9:46:fc:66:20:29:56:1f:39:a3:96:78:d1:36:aa:
                    da:5c:52:c5:29:46:04:09:f7:d2:99:02:b1:77:c7:
                    f2:c4:0a:e7:4a:4f:28:e6:dc:fe:e0:58:89:08:ca:
                    d8:48:f8:da:a7:57:5e:54:ea:07:3e:04:26:77:5a:
                    29:46:b8:b9:76:b6:99:14:f9:35:ff:8d:88:74:d3:
                    9f:46:e1:17:f7:db:67:fc:e2:a3:ac:92:91:76:cb:
                    86:f0:c4:41:2e:b7:ce:44:98:f4:47:72:fe:ff:fa:
                    26:6c:74:4e:b4:34:58:77:ee:32:b2:34:1c:36:a5:
                    91:fb:00:07:83:9a:d7:03:23:55:05:eb:19:f0:19:
                    25:b6:82:e7:ff:0a:a6:8a:80:bc:2e:66:49:41:2e:
                    d4:9c:30:2b:14:88:3f:2d:7a:61:76:76:65:40:b0:
                    b2:d5
                Exponent: 65537 (0x10001)
        X509v3 extensions:
            X509v3 Basic Constraints: 
                CA:FALSE
            X509v3 Subject Key Identifier: 
                F0:60:7F:DA:DB:DF:28:95:27:B1:33:7D:DF:F7:44:3D:29:5E:F4:93
            X509v3 Authority Key Identifier: 
                keyid:6A:B8:04:68:59:14:15:2E:E2:CE:C3:0D:45:F7:1A:62:E6:D1:5F:AE
                DirName:/CN=team761-net
                serial:51:C6:3A:C0:E1:F9:0E:BB:2D:AE:93:BB:0E:4B:E7:AC:0F:BC:98:85

            X509v3 Extended Key Usage: 
                TLS Web Client Authentication
            X509v3 Key Usage: 
                Digital Signature
    Signature Algorithm: sha256WithRSAEncryption
         69:f5:4f:da:0c:ef:a4:ad:4a:96:be:77:96:0d:fa:92:08:ea:
         b1:94:14:fc:be:3d:e2:d3:65:a3:84:35:d6:90:ef:c2:df:03:
         38:22:23:5a:67:a0:5f:c6:d2:cf:ea:7b:66:a8:d3:f7:4a:8c:
         99:7d:df:04:be:a0:42:46:d3:bb:4a:22:47:12:69:9c:8a:7d:
         30:f4:07:a8:22:be:9b:74:ab:de:75:d6:6d:c8:be:20:fc:b8:
         dc:f5:fc:ac:95:b3:f5:a7:e9:83:15:93:b5:b5:64:01:4d:35:
         cc:1b:b2:25:b0:4e:40:4d:5b:8f:d5:56:13:82:c6:d7:5c:7b:
         f6:94:d8:4f:0f:c2:6d:4b:00:d4:88:04:17:de:96:51:25:2a:
         6e:f8:ce:e1:17:1c:cd:9f:78:d0:5a:6c:95:35:26:a2:d8:30:
         8e:cd:4d:8c:97:4e:c3:eb:8d:4e:a7:b9:20:45:96:c9:c0:c3:
         83:d4:f6:41:a2:bf:58:90:3c:a3:35:96:3b:ac:3a:b2:2e:d5:
         16:3e:a8:f0:db:c1:12:2a:df:45:58:f9:d4:b9:f5:dc:00:0d:
         7a:2c:c7:8d:e4:d7:25:bd:2e:c8:01:e4:02:a6:5b:58:68:61:
         1c:bd:7e:28:a6:ad:f1:23:2f:a8:68:2b:04:38:73:a6:84:ef:
         48:53:9f:77
-----BEGIN CERTIFICATE-----
MIIDXDCCAkSgAwIBAgIQbII1ZoC7qrg5NWWAjsSHkTANBgkqhkiG9w0BAQsFADAW
MRQwEgYDVQQDDAt0ZWFtNzYxLW5ldDAeFw0yMTA5MTMwNTE5MjZaFw0yNDA4Mjgw
NTE5MjZaMBkxFzAVBgNVBAMMDnRlYW03NjEtY2xpZW50MIIBIjANBgkqhkiG9w0B
AQEFAAOCAQ8AMIIBCgKCAQEAt+NbUQgaKY1MjRpBlyboS8vnqzLICf731C2g1mVv
3YSYWjcLP6CKRlQkBkym78vQozXhYjxqfOdtFetFksW4miHaKfTd67aBiW/kqfGj
Xxk6N1pW5PSMf/rJRvxmIClWHzmjlnjRNqraXFLFKUYECffSmQKxd8fyxArnSk8o
5tz+4FiJCMrYSPjap1deVOoHPgQmd1opRri5draZFPk1/42IdNOfRuEX99tn/OKj
rJKRdsuG8MRBLrfORJj0R3L+//ombHROtDRYd+4ysjQcNqWR+wAHg5rXAyNVBesZ
8BkltoLn/wqmioC8LmZJQS7UnDArFIg/LXphdnZlQLCy1QIDAQABo4GiMIGfMAkG
A1UdEwQCMAAwHQYDVR0OBBYEFPBgf9rb3yiVJ7Ezfd/3RD0pXvSTMFEGA1UdIwRK
MEiAFGq4BGhZFBUu4s7DDUX3GmLm0V+uoRqkGDAWMRQwEgYDVQQDDAt0ZWFtNzYx
LW5ldIIUUcY6wOH5DrstrpO7DkvnrA+8mIUwEwYDVR0lBAwwCgYIKwYBBQUHAwIw
CwYDVR0PBAQDAgeAMA0GCSqGSIb3DQEBCwUAA4IBAQBp9U/aDO+krUqWvneWDfqS
COqxlBT8vj3i02WjhDXWkO/C3wM4IiNaZ6BfxtLP6ntmqNP3SoyZfd8EvqBCRtO7
SiJHEmmcin0w9AeoIr6bdKveddZtyL4g/Ljc9fyslbP1p+mDFZO1tWQBTTXMG7Il
sE5ATVuP1VYTgsbXXHv2lNhPD8JtSwDUiAQX3pZRJSpu+M7hFxzNn3jQWmyVNSai
2DCOzU2Ml07D641Op7kgRZbJwMOD1PZBor9YkDyjNZY7rDqyLtUWPqjw28ESKt9F
WPnUufXcAA16LMeN5NclvS7IAeQCpltYaGEcvX4opq3xIy+oaCsEOHOmhO9IU593
-----END CERTIFICATE-----
