Certificate:
    Data:
        Version: 3 (0x2)
        Serial Number:
            bf:49:97:a7:bf:f3:34:d0:67:88:d8:b6:f0:8f:7f:7b
        Signature Algorithm: sha256WithRSAEncryption
        Issuer: CN=team315-net
        Validity
            Not Before: Sep 13 01:38:55 2021 GMT
            Not After : Aug 28 01:38:55 2024 GMT
        Subject: CN=team315-server
        Subject Public Key Info:
            Public Key Algorithm: rsaEncryption
                RSA Public-Key: (2048 bit)
                Modulus:
                    00:a5:68:19:ee:ca:2e:08:dd:05:e3:50:df:39:db:
                    85:60:97:d3:c6:e1:a5:3d:23:0a:44:00:63:8f:8e:
                    4b:94:87:ec:06:24:b6:05:54:cb:f3:25:b8:83:a3:
                    aa:c8:a7:06:58:89:d7:3a:f2:6a:e9:91:09:6c:10:
                    7b:c2:b9:1b:36:dd:e3:98:fd:80:d3:a0:99:99:54:
                    95:0d:9c:dd:c1:60:ae:af:24:b8:28:b6:62:7f:f9:
                    0c:20:74:23:eb:66:fa:77:32:28:7e:5c:12:29:a4:
                    ab:50:34:63:5f:db:bf:fc:37:7e:86:ce:d5:9d:0f:
                    08:b9:fd:e1:37:3f:45:88:ec:8b:43:b2:c0:cb:9b:
                    13:e8:05:06:38:ad:56:fa:83:ef:86:28:19:48:0a:
                    4a:d0:d9:b1:da:01:8b:6d:b7:2e:d4:9e:20:6c:69:
                    23:b9:17:1f:b2:97:ea:ed:18:e6:57:74:0b:25:fc:
                    5e:e5:88:98:36:f2:d3:f6:51:2f:ab:e0:e9:b4:6f:
                    2c:ef:76:1a:76:f6:6d:4c:74:21:3e:ec:71:54:be:
                    76:2f:71:6d:4b:f7:25:9a:79:e6:64:ec:e4:35:e1:
                    cc:2e:93:0f:8e:de:42:99:20:43:ab:a1:73:2e:47:
                    1e:71:26:cd:51:11:d4:66:17:a8:09:e9:d3:9f:c7:
                    9a:25
                Exponent: 65537 (0x10001)
        X509v3 extensions:
            X509v3 Basic Constraints: 
                CA:FALSE
            X509v3 Subject Key Identifier: 
                6B:BA:F1:7F:A1:31:D5:0D:62:32:F1:43:63:60:E3:EC:BC:4F:A8:66
            X509v3 Authority Key Identifier: 
                keyid:45:98:F2:48:11:98:A5:4E:F3:CE:FC:C3:CE:CE:4E:EF:29:3B:09:DD
                DirName:/CN=team315-net
                serial:24:BD:DF:90:92:4D:89:D9:10:2B:5C:67:89:41:44:39:B4:6E:62:21

            X509v3 Extended Key Usage: 
                TLS Web Server Authentication
            X509v3 Key Usage: 
                Digital Signature, Key Encipherment
            X509v3 Subject Alternative Name: 
                DNS:team315-server
    Signature Algorithm: sha256WithRSAEncryption
         24:dd:95:72:aa:9c:80:65:94:28:86:1a:9a:49:bc:db:6f:e5:
         ea:65:a1:13:2c:d8:b3:3c:2e:ec:aa:7d:20:9c:1d:15:5a:0e:
         8f:f7:55:4b:b6:dd:7d:3a:a2:ae:ca:16:d7:be:12:75:05:49:
         45:31:6b:0a:de:a1:7a:cc:2b:00:bb:98:55:8f:f4:de:36:3c:
         81:af:66:4e:be:57:16:a0:5d:00:9b:d4:96:40:70:ea:55:80:
         31:5a:0d:6e:3d:44:93:cf:70:1b:ba:19:17:6a:8b:67:d6:c8:
         91:78:65:48:6f:6e:3e:f2:a2:9e:85:55:3d:a4:10:7d:00:2c:
         ae:c1:c3:05:ae:9e:cf:25:52:79:d5:f3:52:03:f7:30:cc:92:
         3b:32:cb:e5:64:d5:9d:f3:68:ad:57:98:98:04:51:5d:98:c2:
         1f:74:47:4e:c2:07:79:67:4e:25:5f:f0:28:68:fd:4d:9c:c8:
         4d:1f:00:fb:12:11:20:c6:21:b8:7f:f5:78:0b:c4:87:90:f4:
         83:77:f0:33:43:fc:4b:fd:07:c3:74:6f:ec:c5:71:db:ba:40:
         1d:5b:22:4c:ee:54:05:e9:c6:33:8f:d4:cb:22:a6:82:4a:09:
         49:83:cf:ec:d2:3b:fe:38:57:12:16:c0:8f:38:08:52:46:d7:
         37:36:66:8e
-----BEGIN CERTIFICATE-----
MIIDeDCCAmCgAwIBAgIRAL9Jl6e/8zTQZ4jYtvCPf3swDQYJKoZIhvcNAQELBQAw
FjEUMBIGA1UEAwwLdGVhbTMxNS1uZXQwHhcNMjEwOTEzMDEzODU1WhcNMjQwODI4
MDEzODU1WjAZMRcwFQYDVQQDDA50ZWFtMzE1LXNlcnZlcjCCASIwDQYJKoZIhvcN
AQEBBQADggEPADCCAQoCggEBAKVoGe7KLgjdBeNQ3znbhWCX08bhpT0jCkQAY4+O
S5SH7AYktgVUy/MluIOjqsinBliJ1zryaumRCWwQe8K5Gzbd45j9gNOgmZlUlQ2c
3cFgrq8kuCi2Yn/5DCB0I+tm+ncyKH5cEimkq1A0Y1/bv/w3fobO1Z0PCLn94Tc/
RYjsi0OywMubE+gFBjitVvqD74YoGUgKStDZsdoBi223LtSeIGxpI7kXH7KX6u0Y
5ld0CyX8XuWImDby0/ZRL6vg6bRvLO92Gnb2bUx0IT7scVS+di9xbUv3JZp55mTs
5DXhzC6TD47eQpkgQ6uhcy5HHnEmzVER1GYXqAnp05/HmiUCAwEAAaOBvTCBujAJ
BgNVHRMEAjAAMB0GA1UdDgQWBBRruvF/oTHVDWIy8UNjYOPsvE+oZjBRBgNVHSME
SjBIgBRFmPJIEZilTvPO/MPOzk7vKTsJ3aEapBgwFjEUMBIGA1UEAwwLdGVhbTMx
NS1uZXSCFCS935CSTYnZECtcZ4lBRDm0bmIhMBMGA1UdJQQMMAoGCCsGAQUFBwMB
MAsGA1UdDwQEAwIFoDAZBgNVHREEEjAQgg50ZWFtMzE1LXNlcnZlcjANBgkqhkiG
9w0BAQsFAAOCAQEAJN2VcqqcgGWUKIYamkm822/l6mWhEyzYszwu7Kp9IJwdFVoO
j/dVS7bdfTqirsoW174SdQVJRTFrCt6heswrALuYVY/03jY8ga9mTr5XFqBdAJvU
lkBw6lWAMVoNbj1Ek89wG7oZF2qLZ9bIkXhlSG9uPvKinoVVPaQQfQAsrsHDBa6e
zyVSedXzUgP3MMySOzLL5WTVnfNorVeYmARRXZjCH3RHTsIHeWdOJV/wKGj9TZzI
TR8A+xIRIMYhuH/1eAvEh5D0g3fwM0P8S/0Hw3Rv7MVx27pAHVsiTO5UBenGM4/U
yyKmgkoJSYPP7NI7/jhXEhbAjzgIUkbXNzZmjg==
-----END CERTIFICATE-----
