Certificate:
    Data:
        Version: 3 (0x2)
        Serial Number:
            7a:9b:7e:bb:eb:11:69:dd:f7:9d:6e:19:76:06:92:9c
        Signature Algorithm: sha256WithRSAEncryption
        Issuer: CN=team626-net
        Validity
            Not Before: Sep 13 04:12:26 2021 GMT
            Not After : Aug 28 04:12:26 2024 GMT
        Subject: CN=team626-server
        Subject Public Key Info:
            Public Key Algorithm: rsaEncryption
                RSA Public-Key: (2048 bit)
                Modulus:
                    00:b9:ee:4b:23:88:c9:e9:4f:05:aa:e0:b1:0d:20:
                    ec:3d:87:43:09:94:08:77:fc:51:73:33:8f:df:57:
                    77:f8:43:7f:75:07:15:59:77:eb:1f:d3:be:22:6a:
                    ba:30:82:5e:52:b4:75:1a:ae:f2:eb:65:56:ed:aa:
                    52:a4:3b:e2:c8:1f:13:3e:46:9d:4f:2e:0e:ab:15:
                    ed:88:b7:e0:19:fb:77:70:00:3b:f7:ab:fd:17:ec:
                    72:3b:e6:59:bb:cf:c2:6a:75:65:f1:e9:d6:0a:6d:
                    c6:be:57:9f:0c:16:6f:04:d5:6b:c2:74:8d:c3:52:
                    97:94:1e:02:5e:c2:a8:47:12:0c:c6:b2:4d:0f:19:
                    1e:15:39:75:08:0a:ca:29:8c:a4:ed:c5:3e:52:82:
                    c1:99:f3:11:51:cc:37:06:9a:db:4d:2a:dc:01:47:
                    99:a7:c5:c0:a7:10:ae:a1:36:0b:ad:66:09:e7:03:
                    ea:ad:58:77:8c:80:91:f7:c3:27:3f:d5:9e:c7:85:
                    1d:ad:43:9c:b2:e4:77:56:5e:c6:64:3e:c7:b0:4b:
                    25:6c:a8:0b:62:89:6e:95:77:82:5d:4f:15:ec:6e:
                    97:af:fa:6b:b8:cb:43:d6:40:5e:a7:fa:44:86:26:
                    36:e1:49:5d:49:13:b2:c7:9e:83:cb:d0:2a:30:e9:
                    4c:db
                Exponent: 65537 (0x10001)
        X509v3 extensions:
            X509v3 Basic Constraints: 
                CA:FALSE
            X509v3 Subject Key Identifier: 
                FC:8F:12:F3:96:76:1E:51:6F:11:4C:1E:7E:39:ED:6A:25:53:61:41
            X509v3 Authority Key Identifier: 
                keyid:AE:FB:1D:1C:00:52:3E:81:66:56:4C:42:91:FB:39:E7:6F:C1:C2:46
                DirName:/CN=team626-net
                serial:28:1A:FC:46:21:EB:4D:FB:95:9C:CF:B2:D2:1E:E3:DC:71:14:F2:96

            X509v3 Extended Key Usage: 
                TLS Web Server Authentication
            X509v3 Key Usage: 
                Digital Signature, Key Encipherment
            X509v3 Subject Alternative Name: 
                DNS:team626-server
    Signature Algorithm: sha256WithRSAEncryption
         e8:c0:50:d5:d2:78:5c:4c:4c:eb:eb:45:b5:e1:88:6d:52:aa:
         86:f9:51:fe:4f:e1:75:51:c9:55:81:75:0a:29:9c:28:0c:d0:
         36:23:ff:70:9f:14:13:b2:98:65:d8:40:55:81:2e:ae:ad:2a:
         b3:65:45:a1:27:6f:88:10:ca:c0:57:40:76:3b:46:d0:3b:dc:
         da:87:3d:0c:7c:b3:a9:1a:5f:c5:1c:2f:71:62:03:70:6e:19:
         bd:94:34:e0:9b:a8:47:b5:ba:34:5b:e9:cb:4a:55:36:cc:ef:
         ce:10:b0:ba:c8:68:1c:32:3e:8a:2a:da:b7:b1:87:00:4f:e1:
         33:ce:e6:9d:41:28:86:28:4d:de:65:e2:ae:72:e5:b2:d3:eb:
         df:14:5e:eb:67:eb:c8:63:24:1d:50:48:70:5b:cd:bd:43:0c:
         7c:f3:10:32:58:d2:80:e6:67:1f:a1:98:3a:22:92:d4:d3:85:
         5b:75:98:23:e6:98:cd:a2:32:c6:e0:8f:50:86:a3:d9:b2:26:
         65:6c:09:12:0b:4f:d0:ff:77:73:aa:a9:e8:76:01:d0:8b:08:
         fa:61:39:cb:86:4a:ff:bb:80:dc:99:03:05:72:89:e9:03:e0:
         9e:55:88:d0:b6:2e:fa:de:f3:89:ba:8c:2f:7e:5c:d6:34:46:
         2b:00:de:74
-----BEGIN CERTIFICATE-----
MIIDdzCCAl+gAwIBAgIQept+u+sRad33nW4ZdgaSnDANBgkqhkiG9w0BAQsFADAW
MRQwEgYDVQQDDAt0ZWFtNjI2LW5ldDAeFw0yMTA5MTMwNDEyMjZaFw0yNDA4Mjgw
NDEyMjZaMBkxFzAVBgNVBAMMDnRlYW02MjYtc2VydmVyMIIBIjANBgkqhkiG9w0B
AQEFAAOCAQ8AMIIBCgKCAQEAue5LI4jJ6U8FquCxDSDsPYdDCZQId/xRczOP31d3
+EN/dQcVWXfrH9O+Imq6MIJeUrR1Gq7y62VW7apSpDviyB8TPkadTy4OqxXtiLfg
Gft3cAA796v9F+xyO+ZZu8/CanVl8enWCm3GvlefDBZvBNVrwnSNw1KXlB4CXsKo
RxIMxrJNDxkeFTl1CArKKYyk7cU+UoLBmfMRUcw3BprbTSrcAUeZp8XApxCuoTYL
rWYJ5wPqrVh3jICR98MnP9Wex4UdrUOcsuR3Vl7GZD7HsEslbKgLYolulXeCXU8V
7G6Xr/pruMtD1kBep/pEhiY24UldSROyx56Dy9AqMOlM2wIDAQABo4G9MIG6MAkG
A1UdEwQCMAAwHQYDVR0OBBYEFPyPEvOWdh5RbxFMHn457WolU2FBMFEGA1UdIwRK
MEiAFK77HRwAUj6BZlZMQpH7OedvwcJGoRqkGDAWMRQwEgYDVQQDDAt0ZWFtNjI2
LW5ldIIUKBr8RiHrTfuVnM+y0h7j3HEU8pYwEwYDVR0lBAwwCgYIKwYBBQUHAwEw
CwYDVR0PBAQDAgWgMBkGA1UdEQQSMBCCDnRlYW02MjYtc2VydmVyMA0GCSqGSIb3
DQEBCwUAA4IBAQDowFDV0nhcTEzr60W14YhtUqqG+VH+T+F1UclVgXUKKZwoDNA2
I/9wnxQTsphl2EBVgS6urSqzZUWhJ2+IEMrAV0B2O0bQO9zahz0MfLOpGl/FHC9x
YgNwbhm9lDTgm6hHtbo0W+nLSlU2zO/OELC6yGgcMj6KKtq3sYcAT+EzzuadQSiG
KE3eZeKucuWy0+vfFF7rZ+vIYyQdUEhwW829Qwx88xAyWNKA5mcfoZg6IpLU04Vb
dZgj5pjNojLG4I9QhqPZsiZlbAkSC0/Q/3dzqqnodgHQiwj6YTnLhkr/u4DcmQMF
conpA+CeVYjQti763vOJuowvflzWNEYrAN50
-----END CERTIFICATE-----
