Certificate:
    Data:
        Version: 3 (0x2)
        Serial Number:
            1e:bb:0e:7f:55:96:69:25:22:dc:94:39:a8:db:93:39
        Signature Algorithm: sha256WithRSAEncryption
        Issuer: CN=team61-net
        Validity
            Not Before: Sep 12 23:12:32 2021 GMT
            Not After : Aug 27 23:12:32 2024 GMT
        Subject: CN=team61-server
        Subject Public Key Info:
            Public Key Algorithm: rsaEncryption
                RSA Public-Key: (2048 bit)
                Modulus:
                    00:b2:c0:00:f2:30:a0:4c:47:ca:d3:1b:bd:f7:58:
                    dc:ca:59:b2:aa:88:7a:86:04:08:bb:5b:6b:c7:12:
                    85:c5:6b:f7:62:1c:d7:6a:9c:98:8d:a0:90:c0:c3:
                    c4:66:2f:0d:9a:ae:1f:f1:68:15:6b:58:6a:be:01:
                    08:59:16:6e:6c:73:c1:24:6f:48:60:e5:24:41:62:
                    98:a2:81:ec:24:4f:3f:74:3f:57:6a:1b:06:28:3f:
                    28:6e:2a:61:1d:86:b5:d8:8d:93:03:20:99:b9:1e:
                    10:d4:2d:10:78:74:a1:dd:41:c0:3e:a8:7a:ba:10:
                    82:3a:d6:bd:2f:0b:99:ed:53:3f:5f:2a:38:aa:41:
                    6a:b4:05:07:2d:76:b1:cd:04:e0:28:96:1a:a6:58:
                    68:90:7f:4c:3d:2e:08:4f:2b:89:59:4b:71:dd:9c:
                    b2:e0:f2:7e:62:69:4d:3f:4a:14:69:38:2a:7e:20:
                    8f:a7:6e:ab:0a:c6:f4:8d:c1:bf:c3:1c:4b:ea:a5:
                    5a:32:ef:d3:b7:d9:91:a3:f6:03:37:6f:19:36:50:
                    f6:7a:9d:98:94:e9:cd:a5:18:e6:78:b5:de:bf:72:
                    8e:b0:90:de:7e:b3:de:8f:8d:4c:5f:b5:d8:a5:aa:
                    e0:78:a8:f5:2b:d1:7e:5b:89:45:13:8b:60:a3:bf:
                    d1:0f
                Exponent: 65537 (0x10001)
        X509v3 extensions:
            X509v3 Basic Constraints: 
                CA:FALSE
            X509v3 Subject Key Identifier: 
                24:49:E5:FD:CE:44:71:1E:B9:3E:A4:8F:0D:F1:75:2A:E8:A6:E3:B6
            X509v3 Authority Key Identifier: 
                keyid:4D:26:75:EF:6A:F7:D6:84:EE:01:D5:59:6D:16:14:7A:CF:87:51:DF
                DirName:/CN=team61-net
                serial:50:85:A6:54:07:C3:E6:0C:E8:5D:8F:F9:D7:29:F8:47:57:51:AC:1E

            X509v3 Extended Key Usage: 
                TLS Web Server Authentication
            X509v3 Key Usage: 
                Digital Signature, Key Encipherment
            X509v3 Subject Alternative Name: 
                DNS:team61-server
    Signature Algorithm: sha256WithRSAEncryption
         89:af:24:fb:54:35:cc:fe:b5:cf:ec:8a:e3:24:79:27:f8:48:
         4e:4c:dc:69:ca:f4:90:2f:ae:95:a3:86:af:69:b2:33:26:58:
         76:cc:7f:ce:f3:46:78:41:36:3e:d3:e3:14:00:18:27:49:bd:
         24:2f:93:dc:f9:3c:44:f5:03:c9:e7:06:41:95:60:13:04:01:
         68:63:71:5d:b4:a3:79:c5:61:6c:ca:6f:06:7b:a6:64:a2:5d:
         2f:aa:79:1e:31:ed:f4:c7:ea:44:60:79:7e:be:f8:9f:59:c6:
         0a:65:03:1b:7c:25:cc:a0:1c:42:7f:c1:6e:d5:77:84:9e:59:
         53:88:19:0f:1d:ef:61:e3:4b:fc:35:99:f7:30:6a:e1:08:68:
         06:0b:6e:49:f8:46:c6:e4:7b:c1:0d:a3:1b:ae:17:5a:0c:ec:
         a9:76:34:66:d1:55:51:8d:04:ea:41:fd:c8:a8:dc:21:79:4d:
         a4:61:85:5f:20:47:31:80:f1:80:bb:16:f7:56:b7:5c:4f:69:
         78:1f:d3:d0:eb:1f:9c:ff:9d:23:d9:a1:0f:9d:3a:66:92:e9:
         3b:ad:69:e7:e8:ae:37:94:a5:df:b3:b9:c0:57:4e:85:fa:8c:
         fa:eb:b3:86:06:5c:0a:14:92:a8:95:7f:02:bd:21:42:8f:65:
         79:24:f6:38
-----BEGIN CERTIFICATE-----
MIIDczCCAlugAwIBAgIQHrsOf1WWaSUi3JQ5qNuTOTANBgkqhkiG9w0BAQsFADAV
MRMwEQYDVQQDDAp0ZWFtNjEtbmV0MB4XDTIxMDkxMjIzMTIzMloXDTI0MDgyNzIz
MTIzMlowGDEWMBQGA1UEAwwNdGVhbTYxLXNlcnZlcjCCASIwDQYJKoZIhvcNAQEB
BQADggEPADCCAQoCggEBALLAAPIwoExHytMbvfdY3MpZsqqIeoYECLtba8cShcVr
92Ic12qcmI2gkMDDxGYvDZquH/FoFWtYar4BCFkWbmxzwSRvSGDlJEFimKKB7CRP
P3Q/V2obBig/KG4qYR2GtdiNkwMgmbkeENQtEHh0od1BwD6oeroQgjrWvS8Lme1T
P18qOKpBarQFBy12sc0E4CiWGqZYaJB/TD0uCE8riVlLcd2csuDyfmJpTT9KFGk4
Kn4gj6duqwrG9I3Bv8McS+qlWjLv07fZkaP2AzdvGTZQ9nqdmJTpzaUY5ni13r9y
jrCQ3n6z3o+NTF+12KWq4Hio9SvRfluJRROLYKO/0Q8CAwEAAaOBuzCBuDAJBgNV
HRMEAjAAMB0GA1UdDgQWBBQkSeX9zkRxHrk+pI8N8XUq6KbjtjBQBgNVHSMESTBH
gBRNJnXvavfWhO4B1VltFhR6z4dR36EZpBcwFTETMBEGA1UEAwwKdGVhbTYxLW5l
dIIUUIWmVAfD5gzoXY/51yn4R1dRrB4wEwYDVR0lBAwwCgYIKwYBBQUHAwEwCwYD
VR0PBAQDAgWgMBgGA1UdEQQRMA+CDXRlYW02MS1zZXJ2ZXIwDQYJKoZIhvcNAQEL
BQADggEBAImvJPtUNcz+tc/siuMkeSf4SE5M3GnK9JAvrpWjhq9psjMmWHbMf87z
RnhBNj7T4xQAGCdJvSQvk9z5PET1A8nnBkGVYBMEAWhjcV20o3nFYWzKbwZ7pmSi
XS+qeR4x7fTH6kRgeX6++J9ZxgplAxt8JcygHEJ/wW7Vd4SeWVOIGQ8d72HjS/w1
mfcwauEIaAYLbkn4Rsbke8ENoxuuF1oM7Kl2NGbRVVGNBOpB/cio3CF5TaRhhV8g
RzGA8YC7FvdWt1xPaXgf09DrH5z/nSPZoQ+dOmaS6TutaeforjeUpd+zucBXToX6
jPrrs4YGXAoUkqiVfwK9IUKPZXkk9jg=
-----END CERTIFICATE-----
