Certificate:
    Data:
        Version: 3 (0x2)
        Serial Number:
            86:80:f5:89:c1:45:88:df:1f:1a:29:c8:56:e4:3b:9c
        Signature Algorithm: sha256WithRSAEncryption
        Issuer: CN=team61-net
        Validity
            Not Before: Sep 12 23:12:32 2021 GMT
            Not After : Aug 27 23:12:32 2024 GMT
        Subject: CN=team61-client
        Subject Public Key Info:
            Public Key Algorithm: rsaEncryption
                RSA Public-Key: (2048 bit)
                Modulus:
                    00:d0:f1:ac:aa:9e:32:f3:a9:10:51:5e:3b:aa:88:
                    10:11:af:80:23:30:07:5c:e9:4d:7c:86:f2:52:a1:
                    4b:32:86:33:d7:51:9f:a0:11:63:42:26:ac:c3:28:
                    34:98:89:1b:88:00:d9:d4:e3:8f:0c:98:1a:a3:f2:
                    92:75:22:22:7f:8b:d5:da:47:9a:08:17:70:b7:b1:
                    80:a3:9c:80:09:04:33:b9:61:88:b3:11:bb:f4:c0:
                    09:3f:04:67:cc:dc:d4:1a:85:67:03:4e:4f:04:34:
                    7b:55:b3:41:25:0b:f4:6b:12:e6:8d:6a:42:f7:74:
                    6d:cc:5d:83:55:16:84:b9:ae:7d:b5:7f:1c:33:53:
                    4a:17:9d:87:12:01:ca:45:38:9e:8d:2e:23:06:6f:
                    ac:2c:2e:a6:7c:50:eb:b5:23:d0:7a:79:a8:32:19:
                    08:b8:c0:64:ea:c5:7b:48:e6:3b:ca:74:58:4f:96:
                    47:a2:cb:2b:2b:0f:fd:ab:55:c0:37:69:81:6b:bf:
                    f1:8d:a3:ca:af:ad:30:2e:c3:53:52:0a:57:08:36:
                    06:1b:46:2a:17:68:74:81:e1:64:27:3c:48:4c:bb:
                    65:d1:71:23:68:01:26:0a:45:73:cc:be:2b:59:9a:
                    5d:5c:04:ea:b9:9c:4e:49:8a:5b:ce:95:7c:84:12:
                    35:bf
                Exponent: 65537 (0x10001)
        X509v3 extensions:
            X509v3 Basic Constraints: 
                CA:FALSE
            X509v3 Subject Key Identifier: 
                D2:58:9B:A6:00:9B:2F:BA:15:9D:C3:06:98:66:72:AB:4E:16:FF:AE
            X509v3 Authority Key Identifier: 
                keyid:4D:26:75:EF:6A:F7:D6:84:EE:01:D5:59:6D:16:14:7A:CF:87:51:DF
                DirName:/CN=team61-net
                serial:50:85:A6:54:07:C3:E6:0C:E8:5D:8F:F9:D7:29:F8:47:57:51:AC:1E

            X509v3 Extended Key Usage: 
                TLS Web Client Authentication
            X509v3 Key Usage: 
                Digital Signature
    Signature Algorithm: sha256WithRSAEncryption
         9c:55:ee:1f:98:d4:f3:dd:e8:8c:ba:13:7f:8e:12:06:d6:14:
         2b:0e:aa:db:0a:d2:93:85:aa:4b:b5:09:1e:56:96:54:c1:2b:
         e3:14:2e:21:f1:19:0f:57:12:f4:a7:2e:2c:90:40:6a:ba:79:
         23:44:5d:63:ef:d7:dc:12:9f:a8:87:66:ae:ee:c8:81:82:1d:
         b9:9c:c0:07:95:aa:41:3f:23:11:b0:ed:c0:f5:3b:a2:96:46:
         34:e9:59:d0:f7:b8:a2:fe:ea:f6:f9:05:58:be:75:c8:75:b7:
         27:60:b5:4c:4a:11:7d:5c:87:b4:ec:ef:38:1d:5c:53:6e:69:
         e6:f4:97:10:47:0e:5b:e9:e3:81:fe:d4:db:6e:f8:10:d6:7d:
         97:71:ca:04:aa:63:39:87:a2:7f:66:45:ed:4c:de:1e:5d:15:
         b8:b6:25:0c:0d:3c:1a:b9:3e:1e:72:34:b7:2d:8f:c8:a5:7b:
         9b:18:4e:ec:b0:48:6b:1f:99:03:e8:36:8f:83:4f:73:e6:f3:
         1e:f6:36:31:f3:85:b3:ec:b1:6a:fb:5c:2f:73:bf:b5:49:a6:
         fa:43:cc:8a:44:26:88:d9:9a:fb:27:75:06:73:78:e9:5b:3a:
         00:53:96:d2:a1:44:28:c1:65:26:31:6d:f6:95:69:ac:a2:df:
         a1:6d:4a:14
-----BEGIN CERTIFICATE-----
MIIDWjCCAkKgAwIBAgIRAIaA9YnBRYjfHxopyFbkO5wwDQYJKoZIhvcNAQELBQAw
FTETMBEGA1UEAwwKdGVhbTYxLW5ldDAeFw0yMTA5MTIyMzEyMzJaFw0yNDA4Mjcy
MzEyMzJaMBgxFjAUBgNVBAMMDXRlYW02MS1jbGllbnQwggEiMA0GCSqGSIb3DQEB
AQUAA4IBDwAwggEKAoIBAQDQ8ayqnjLzqRBRXjuqiBARr4AjMAdc6U18hvJSoUsy
hjPXUZ+gEWNCJqzDKDSYiRuIANnU448MmBqj8pJ1IiJ/i9XaR5oIF3C3sYCjnIAJ
BDO5YYizEbv0wAk/BGfM3NQahWcDTk8ENHtVs0ElC/RrEuaNakL3dG3MXYNVFoS5
rn21fxwzU0oXnYcSAcpFOJ6NLiMGb6wsLqZ8UOu1I9B6eagyGQi4wGTqxXtI5jvK
dFhPlkeiyysrD/2rVcA3aYFrv/GNo8qvrTAuw1NSClcINgYbRioXaHSB4WQnPEhM
u2XRcSNoASYKRXPMvitZml1cBOq5nE5JilvOlXyEEjW/AgMBAAGjgaEwgZ4wCQYD
VR0TBAIwADAdBgNVHQ4EFgQU0libpgCbL7oVncMGmGZyq04W/64wUAYDVR0jBEkw
R4AUTSZ172r31oTuAdVZbRYUes+HUd+hGaQXMBUxEzARBgNVBAMMCnRlYW02MS1u
ZXSCFFCFplQHw+YM6F2P+dcp+EdXUaweMBMGA1UdJQQMMAoGCCsGAQUFBwMCMAsG
A1UdDwQEAwIHgDANBgkqhkiG9w0BAQsFAAOCAQEAnFXuH5jU893ojLoTf44SBtYU
Kw6q2wrSk4WqS7UJHlaWVMEr4xQuIfEZD1cS9KcuLJBAarp5I0RdY+/X3BKfqIdm
ru7IgYIduZzAB5WqQT8jEbDtwPU7opZGNOlZ0Pe4ov7q9vkFWL51yHW3J2C1TEoR
fVyHtOzvOB1cU25p5vSXEEcOW+njgf7U2274ENZ9l3HKBKpjOYeif2ZF7UzeHl0V
uLYlDA08Grk+HnI0ty2PyKV7mxhO7LBIax+ZA+g2j4NPc+bzHvY2MfOFs+yxavtc
L3O/tUmm+kPMikQmiNma+yd1BnN46Vs6AFOW0qFEKMFlJjFt9pVprKLfoW1KFA==
-----END CERTIFICATE-----
