Certificate:
    Data:
        Version: 3 (0x2)
        Serial Number:
            67:42:7c:5e:be:5c:cf:c0:39:db:af:d1:41:5f:ee:9d
        Signature Algorithm: sha256WithRSAEncryption
        Issuer: CN=team641-net
        Validity
            Not Before: Sep 13 04:43:58 2021 GMT
            Not After : Aug 28 04:43:58 2024 GMT
        Subject: CN=team641-server
        Subject Public Key Info:
            Public Key Algorithm: rsaEncryption
                RSA Public-Key: (2048 bit)
                Modulus:
                    00:b9:7e:4e:4a:69:a7:16:78:6d:9b:f9:1b:d9:31:
                    f0:b3:d5:c7:73:9f:9c:89:45:2a:39:7d:fa:ee:de:
                    8b:fd:ca:7b:87:f8:47:b7:3e:56:f9:14:9b:ad:55:
                    b7:15:0e:89:24:2d:72:58:be:67:b3:0f:18:23:12:
                    73:ce:5b:a3:6a:9b:26:d6:90:68:34:25:d6:ae:63:
                    3c:7e:f7:e8:07:24:c2:0f:d7:fc:29:b2:a3:c2:34:
                    e8:96:f4:15:72:8e:87:9d:ae:55:91:a3:28:76:fb:
                    0f:43:43:e6:5c:fb:90:07:ee:7b:bc:6f:8a:9a:81:
                    87:5b:d4:9a:52:59:ef:19:b7:a8:81:80:29:17:20:
                    8a:b2:1d:69:46:de:66:c4:e8:e7:2d:f6:19:d3:21:
                    42:14:fc:48:8a:9e:30:bb:cf:d8:50:30:92:f1:e3:
                    5d:3e:81:26:e7:71:3c:27:66:2e:4b:72:2e:89:5f:
                    f6:ae:a8:8c:e6:72:ab:c4:67:70:d7:3e:c8:90:86:
                    58:2e:60:a1:19:1d:4c:03:8f:16:7d:99:f6:98:34:
                    40:33:14:bc:47:ca:fa:74:53:73:86:b1:48:ce:96:
                    59:28:7a:23:c0:ce:4d:59:0f:e0:bb:4e:c6:29:30:
                    a4:46:b6:a0:6f:57:43:e5:bb:ca:26:6c:d7:31:72:
                    87:29
                Exponent: 65537 (0x10001)
        X509v3 extensions:
            X509v3 Basic Constraints: 
                CA:FALSE
            X509v3 Subject Key Identifier: 
                AF:6D:7C:4A:29:D8:6B:A2:31:9C:0E:32:BD:46:4A:0E:75:FE:64:06
            X509v3 Authority Key Identifier: 
                keyid:90:87:8A:AA:3A:D5:9E:9D:BB:C9:67:9C:84:D7:6C:3D:E5:D3:EF:4A
                DirName:/CN=team641-net
                serial:14:0C:E4:8C:6B:1E:0E:5A:1D:C9:EB:81:53:C2:48:16:46:30:AF:F7

            X509v3 Extended Key Usage: 
                TLS Web Server Authentication
            X509v3 Key Usage: 
                Digital Signature, Key Encipherment
            X509v3 Subject Alternative Name: 
                DNS:team641-server
    Signature Algorithm: sha256WithRSAEncryption
         4d:2a:7e:2f:71:22:12:97:ff:5e:be:ae:d4:72:0c:9f:71:c6:
         84:c9:9f:c2:fe:72:dc:e3:aa:44:fe:d8:c9:b4:e4:3a:fe:cb:
         a9:d5:16:ef:3f:4e:3b:b3:79:24:e4:de:9e:d6:47:b5:39:95:
         56:0b:3f:42:71:91:9e:d9:25:46:bc:b1:04:99:ea:dc:e2:0a:
         d6:da:42:e2:c8:e3:04:b1:7e:8c:3a:08:7b:07:30:c5:43:6b:
         ac:d6:65:4f:b0:c6:d7:40:6c:b9:15:80:a4:1d:1b:13:ce:3b:
         29:fa:f1:04:eb:8f:f5:94:5a:15:ac:f8:ad:fd:7b:3b:bb:77:
         d3:e5:78:75:f7:6d:5c:ed:d1:ff:f5:65:93:39:bd:57:87:1a:
         bb:ac:76:b0:26:e8:ad:6a:1f:15:dc:52:d5:8f:15:a8:b1:5c:
         62:a3:1c:0e:30:85:d6:48:77:f2:49:9a:12:be:65:c3:ed:12:
         d5:7d:b0:85:31:84:4a:13:dd:ba:66:91:3a:6d:70:0e:f7:38:
         ce:b6:90:9e:1f:75:d5:49:e2:40:be:d9:2a:c0:1b:e5:c8:3e:
         89:e7:e0:12:f8:c0:ca:1b:9a:04:99:99:c8:3e:ed:92:75:e9:
         d8:0b:d6:3a:63:01:da:c8:73:ec:c9:ab:aa:a6:3d:06:2c:50:
         59:8f:90:7a
-----BEGIN CERTIFICATE-----
MIIDdzCCAl+gAwIBAgIQZ0J8Xr5cz8A526/RQV/unTANBgkqhkiG9w0BAQsFADAW
MRQwEgYDVQQDDAt0ZWFtNjQxLW5ldDAeFw0yMTA5MTMwNDQzNThaFw0yNDA4Mjgw
NDQzNThaMBkxFzAVBgNVBAMMDnRlYW02NDEtc2VydmVyMIIBIjANBgkqhkiG9w0B
AQEFAAOCAQ8AMIIBCgKCAQEAuX5OSmmnFnhtm/kb2THws9XHc5+ciUUqOX367t6L
/cp7h/hHtz5W+RSbrVW3FQ6JJC1yWL5nsw8YIxJzzlujapsm1pBoNCXWrmM8fvfo
ByTCD9f8KbKjwjTolvQVco6Hna5VkaModvsPQ0PmXPuQB+57vG+KmoGHW9SaUlnv
GbeogYApFyCKsh1pRt5mxOjnLfYZ0yFCFPxIip4wu8/YUDCS8eNdPoEm53E8J2Yu
S3IuiV/2rqiM5nKrxGdw1z7IkIZYLmChGR1MA48WfZn2mDRAMxS8R8r6dFNzhrFI
zpZZKHojwM5NWQ/gu07GKTCkRragb1dD5bvKJmzXMXKHKQIDAQABo4G9MIG6MAkG
A1UdEwQCMAAwHQYDVR0OBBYEFK9tfEop2GuiMZwOMr1GSg51/mQGMFEGA1UdIwRK
MEiAFJCHiqo61Z6du8lnnITXbD3l0+9KoRqkGDAWMRQwEgYDVQQDDAt0ZWFtNjQx
LW5ldIIUFAzkjGseDlodyeuBU8JIFkYwr/cwEwYDVR0lBAwwCgYIKwYBBQUHAwEw
CwYDVR0PBAQDAgWgMBkGA1UdEQQSMBCCDnRlYW02NDEtc2VydmVyMA0GCSqGSIb3
DQEBCwUAA4IBAQBNKn4vcSISl/9evq7UcgyfccaEyZ/C/nLc46pE/tjJtOQ6/sup
1RbvP047s3kk5N6e1ke1OZVWCz9CcZGe2SVGvLEEmerc4grW2kLiyOMEsX6MOgh7
BzDFQ2us1mVPsMbXQGy5FYCkHRsTzjsp+vEE64/1lFoVrPit/Xs7u3fT5Xh1921c
7dH/9WWTOb1Xhxq7rHawJuitah8V3FLVjxWosVxioxwOMIXWSHfySZoSvmXD7RLV
fbCFMYRKE926ZpE6bXAO9zjOtpCeH3XVSeJAvtkqwBvlyD6J5+AS+MDKG5oEmZnI
Pu2SdenYC9Y6YwHayHPsyauqpj0GLFBZj5B6
-----END CERTIFICATE-----
