Certificate:
    Data:
        Version: 3 (0x2)
        Serial Number:
            63:9e:98:42:58:24:f7:e3:07:ee:73:d8:c7:7c:13:ba
        Signature Algorithm: sha256WithRSAEncryption
        Issuer: CN=team21-net
        Validity
            Not Before: Sep 12 22:53:49 2021 GMT
            Not After : Aug 27 22:53:49 2024 GMT
        Subject: CN=team21-client
        Subject Public Key Info:
            Public Key Algorithm: rsaEncryption
                RSA Public-Key: (2048 bit)
                Modulus:
                    00:ca:40:d3:8c:50:83:9e:5b:13:48:fa:a7:2e:be:
                    74:f4:0b:45:9a:ca:48:7c:0e:73:55:54:89:f3:19:
                    30:7a:95:71:ec:2e:57:ce:8e:70:46:99:e6:d3:f6:
                    7b:7c:08:b0:73:5f:9c:52:89:4b:9e:16:fc:53:43:
                    8f:4a:c1:5d:66:8e:28:c4:0b:e8:a3:15:ff:48:13:
                    b6:12:4d:7d:31:d9:07:8e:56:d1:2d:e6:5c:52:fd:
                    14:6e:36:5c:f2:42:9a:1e:a8:2c:af:4b:7c:27:fc:
                    83:62:49:24:cb:d9:c5:16:ed:dc:d8:5d:69:2b:31:
                    c5:ec:09:e8:04:e1:56:40:95:bf:f6:3a:a2:59:2a:
                    33:6e:77:29:e2:8f:a3:58:90:23:52:84:e4:21:3f:
                    3d:f3:36:43:56:31:1e:30:d8:ac:ce:67:bf:9d:f0:
                    4e:4e:37:13:21:5d:aa:4c:8c:ee:76:ba:2f:37:cd:
                    90:f1:63:fc:04:d7:db:ba:3e:a5:44:4e:7e:6b:95:
                    86:4e:26:4b:39:57:05:85:41:22:71:c8:ed:0b:e5:
                    85:2f:7a:e3:e7:e6:ff:51:0f:06:bf:87:6f:42:91:
                    0c:65:e0:fc:48:83:fa:b1:d5:5f:47:03:10:cd:5d:
                    bb:0a:97:19:c9:46:73:87:37:9a:8d:57:e6:4c:00:
                    bd:07
                Exponent: 65537 (0x10001)
        X509v3 extensions:
            X509v3 Basic Constraints: 
                CA:FALSE
            X509v3 Subject Key Identifier: 
                F2:E3:C5:86:C9:8B:4A:75:17:A7:25:20:DC:CA:89:22:C7:E6:11:E8
            X509v3 Authority Key Identifier: 
                keyid:F6:44:BF:AC:CF:E2:6A:60:13:31:88:F5:62:BE:21:00:65:02:8C:DF
                DirName:/CN=team21-net
                serial:64:0D:A2:54:1E:B4:2B:32:E4:7F:48:CD:CD:7A:D9:ED:50:D5:1B:53

            X509v3 Extended Key Usage: 
                TLS Web Client Authentication
            X509v3 Key Usage: 
                Digital Signature
    Signature Algorithm: sha256WithRSAEncryption
         83:4c:12:a5:0d:d4:df:c3:af:38:29:8d:90:25:b5:d7:8c:fc:
         c7:86:fe:99:fe:0b:12:cf:d8:d0:fc:24:7d:f0:e0:d6:b4:8b:
         8f:ed:f8:16:74:5e:49:80:a5:19:9e:dc:88:c9:86:a2:52:9f:
         5b:47:af:d5:19:eb:a0:7f:bc:68:8a:da:ff:ff:ec:3a:6b:28:
         1f:35:6f:0a:9c:b8:57:b7:68:7f:a2:e3:63:51:20:a6:4b:78:
         59:b9:19:e9:9d:53:fc:7d:f1:6c:2a:8b:b8:be:55:2d:0c:e6:
         78:5f:c3:b5:80:5b:ae:e9:26:dc:0c:74:14:cd:69:46:ea:79:
         56:94:1a:b2:5d:ea:26:78:0f:af:0d:26:ca:05:28:45:ec:cc:
         c5:fa:55:ce:4f:74:7e:00:b4:27:04:96:23:dc:a1:4a:10:19:
         40:e4:27:1b:12:ca:a0:62:4c:be:55:07:70:5b:e9:da:71:36:
         43:99:6b:21:7f:a5:3a:2c:79:ef:c0:32:41:d0:ee:55:16:f1:
         3e:df:a1:43:87:32:8f:88:a8:c9:90:18:1b:01:97:1a:6e:f7:
         b2:12:e2:12:01:25:83:e8:30:00:d5:ef:2a:f1:f6:72:84:43:
         67:41:f5:c8:17:7a:d2:99:97:f8:66:04:cd:ba:09:08:07:0a:
         cd:25:04:93
-----BEGIN CERTIFICATE-----
MIIDWTCCAkGgAwIBAgIQY56YQlgk9+MH7nPYx3wTujANBgkqhkiG9w0BAQsFADAV
MRMwEQYDVQQDDAp0ZWFtMjEtbmV0MB4XDTIxMDkxMjIyNTM0OVoXDTI0MDgyNzIy
NTM0OVowGDEWMBQGA1UEAwwNdGVhbTIxLWNsaWVudDCCASIwDQYJKoZIhvcNAQEB
BQADggEPADCCAQoCggEBAMpA04xQg55bE0j6py6+dPQLRZrKSHwOc1VUifMZMHqV
cewuV86OcEaZ5tP2e3wIsHNfnFKJS54W/FNDj0rBXWaOKMQL6KMV/0gTthJNfTHZ
B45W0S3mXFL9FG42XPJCmh6oLK9LfCf8g2JJJMvZxRbt3NhdaSsxxewJ6AThVkCV
v/Y6olkqM253KeKPo1iQI1KE5CE/PfM2Q1YxHjDYrM5nv53wTk43EyFdqkyM7na6
LzfNkPFj/ATX27o+pUROfmuVhk4mSzlXBYVBInHI7QvlhS964+fm/1EPBr+Hb0KR
DGXg/EiD+rHVX0cDEM1duwqXGclGc4c3mo1X5kwAvQcCAwEAAaOBoTCBnjAJBgNV
HRMEAjAAMB0GA1UdDgQWBBTy48WGyYtKdRenJSDcyokix+YR6DBQBgNVHSMESTBH
gBT2RL+sz+JqYBMxiPViviEAZQKM36EZpBcwFTETMBEGA1UEAwwKdGVhbTIxLW5l
dIIUZA2iVB60KzLkf0jNzXrZ7VDVG1MwEwYDVR0lBAwwCgYIKwYBBQUHAwIwCwYD
VR0PBAQDAgeAMA0GCSqGSIb3DQEBCwUAA4IBAQCDTBKlDdTfw684KY2QJbXXjPzH
hv6Z/gsSz9jQ/CR98ODWtIuP7fgWdF5JgKUZntyIyYaiUp9bR6/VGeugf7xoitr/
/+w6aygfNW8KnLhXt2h/ouNjUSCmS3hZuRnpnVP8ffFsKou4vlUtDOZ4X8O1gFuu
6SbcDHQUzWlG6nlWlBqyXeomeA+vDSbKBShF7MzF+lXOT3R+ALQnBJYj3KFKEBlA
5CcbEsqgYky+VQdwW+nacTZDmWshf6U6LHnvwDJB0O5VFvE+36FDhzKPiKjJkBgb
AZcabveyEuISASWD6DAA1e8q8fZyhENnQfXIF3rSmZf4ZgTNugkIBwrNJQST
-----END CERTIFICATE-----
