Certificate:
    Data:
        Version: 3 (0x2)
        Serial Number:
            ed:5e:90:48:b7:62:95:81:51:2d:4d:c5:4e:04:4a:0c
        Signature Algorithm: sha256WithRSAEncryption
        Issuer: CN=team677-net
        Validity
            Not Before: Sep 13 04:35:46 2021 GMT
            Not After : Aug 28 04:35:46 2024 GMT
        Subject: CN=team677-client
        Subject Public Key Info:
            Public Key Algorithm: rsaEncryption
                RSA Public-Key: (2048 bit)
                Modulus:
                    00:ae:4b:46:63:6c:9d:be:ba:be:f9:1c:7a:af:ab:
                    a8:3f:35:b6:fd:f3:41:ce:fa:39:2a:31:fe:6d:e2:
                    57:f8:93:5d:6a:df:5d:9f:d0:eb:18:46:01:a6:09:
                    cd:35:01:21:5f:1f:15:56:7e:14:93:21:db:c1:6d:
                    40:09:45:14:9e:39:cd:a5:84:5f:f5:87:3e:29:f2:
                    30:ad:91:0e:8f:7d:46:06:7f:48:3b:56:4d:dd:1e:
                    d9:5d:20:77:97:b3:29:79:74:e5:a0:e1:e6:5e:59:
                    32:dd:ea:27:8c:7a:f0:f7:4e:58:b8:6f:ba:dd:5b:
                    31:86:29:bf:b0:74:9f:e9:34:e6:a6:8d:5d:7a:14:
                    69:f9:0b:cf:b1:ab:10:fc:ba:8a:fa:39:18:46:81:
                    5f:da:52:a5:c5:4a:c1:27:15:b6:df:03:92:fa:86:
                    c2:77:64:0e:d6:73:44:b1:9a:11:06:6e:6f:04:66:
                    5e:0a:56:64:08:d4:b7:01:6b:24:45:28:d9:4c:c3:
                    73:8c:e8:6c:f5:b4:e0:64:10:e2:74:b6:c0:c4:32:
                    a6:cc:d2:e2:37:48:84:54:2e:ff:fc:94:b0:0d:e2:
                    65:52:56:d7:16:ae:c6:4c:ff:e1:8f:a4:d2:ce:f2:
                    5d:de:41:fd:1e:e8:27:ba:6b:55:eb:5c:e3:ef:9e:
                    ce:2f
                Exponent: 65537 (0x10001)
        X509v3 extensions:
            X509v3 Basic Constraints: 
                CA:FALSE
            X509v3 Subject Key Identifier: 
                2D:74:4A:A6:65:DA:4F:E4:AA:B2:9D:84:DD:DA:19:74:D7:8E:52:03
            X509v3 Authority Key Identifier: 
                keyid:A5:4D:58:3A:6B:CF:F7:F2:AB:E2:61:07:43:DB:BA:65:F1:73:8C:16
                DirName:/CN=team677-net
                serial:2E:F7:14:C0:6F:35:23:6C:C9:93:70:CB:97:2C:E1:E0:2C:E6:C9:4B

            X509v3 Extended Key Usage: 
                TLS Web Client Authentication
            X509v3 Key Usage: 
                Digital Signature
    Signature Algorithm: sha256WithRSAEncryption
         07:d9:0d:60:2b:af:34:34:52:67:09:3c:e0:84:5c:61:ce:80:
         6e:c3:a3:22:ed:17:a5:ac:ea:d0:5c:3f:a6:00:20:b7:a5:ed:
         f3:35:1f:14:31:bb:d6:52:13:f2:b2:a2:b3:60:38:2c:da:fe:
         a1:fd:6a:5e:58:59:7c:4b:f8:78:b3:a3:5b:56:1b:1f:bc:20:
         6a:68:56:d5:01:d2:99:2e:a5:5b:b5:1c:6b:aa:a2:2c:f5:31:
         31:6f:9b:03:a7:9b:6e:63:bd:35:01:82:32:cf:a4:46:d6:39:
         24:c4:44:7b:16:d2:98:7b:33:1e:71:ab:cc:6f:b3:d3:82:0c:
         54:d3:74:4c:13:5a:9f:06:7b:52:33:c2:bc:93:68:41:cd:28:
         22:57:53:e0:00:92:0f:5d:05:47:35:e6:5e:52:f5:25:0c:57:
         62:eb:50:27:08:2e:12:ce:d2:6c:7f:f8:fa:2d:eb:0d:71:d2:
         e8:93:7d:f9:28:9b:4f:aa:f2:49:22:0c:24:29:35:5e:f0:e4:
         42:2d:52:b1:39:c5:68:37:2b:18:d7:b8:4b:35:5a:fb:16:1d:
         ef:e0:1e:fb:53:70:e5:aa:32:aa:cb:5e:67:81:ed:ef:28:c2:
         02:81:51:a2:2c:29:b2:24:aa:52:22:7c:f1:4b:ee:ec:69:67:
         6a:1a:05:15
-----BEGIN CERTIFICATE-----
MIIDXTCCAkWgAwIBAgIRAO1ekEi3YpWBUS1NxU4ESgwwDQYJKoZIhvcNAQELBQAw
FjEUMBIGA1UEAwwLdGVhbTY3Ny1uZXQwHhcNMjEwOTEzMDQzNTQ2WhcNMjQwODI4
MDQzNTQ2WjAZMRcwFQYDVQQDDA50ZWFtNjc3LWNsaWVudDCCASIwDQYJKoZIhvcN
AQEBBQADggEPADCCAQoCggEBAK5LRmNsnb66vvkceq+rqD81tv3zQc76OSox/m3i
V/iTXWrfXZ/Q6xhGAaYJzTUBIV8fFVZ+FJMh28FtQAlFFJ45zaWEX/WHPinyMK2R
Do99RgZ/SDtWTd0e2V0gd5ezKXl05aDh5l5ZMt3qJ4x68PdOWLhvut1bMYYpv7B0
n+k05qaNXXoUafkLz7GrEPy6ivo5GEaBX9pSpcVKwScVtt8DkvqGwndkDtZzRLGa
EQZubwRmXgpWZAjUtwFrJEUo2UzDc4zobPW04GQQ4nS2wMQypszS4jdIhFQu//yU
sA3iZVJW1xauxkz/4Y+k0s7yXd5B/R7oJ7prVetc4++ezi8CAwEAAaOBojCBnzAJ
BgNVHRMEAjAAMB0GA1UdDgQWBBQtdEqmZdpP5KqynYTd2hl0145SAzBRBgNVHSME
SjBIgBSlTVg6a8/38qviYQdD27pl8XOMFqEapBgwFjEUMBIGA1UEAwwLdGVhbTY3
Ny1uZXSCFC73FMBvNSNsyZNwy5cs4eAs5slLMBMGA1UdJQQMMAoGCCsGAQUFBwMC
MAsGA1UdDwQEAwIHgDANBgkqhkiG9w0BAQsFAAOCAQEAB9kNYCuvNDRSZwk84IRc
Yc6AbsOjIu0Xpazq0Fw/pgAgt6Xt8zUfFDG71lIT8rKis2A4LNr+of1qXlhZfEv4
eLOjW1YbH7wgamhW1QHSmS6lW7Uca6qiLPUxMW+bA6ebbmO9NQGCMs+kRtY5JMRE
exbSmHszHnGrzG+z04IMVNN0TBNanwZ7UjPCvJNoQc0oIldT4ACSD10FRzXmXlL1
JQxXYutQJwguEs7SbH/4+i3rDXHS6JN9+SibT6rySSIMJCk1XvDkQi1SsTnFaDcr
GNe4SzVa+xYd7+Ae+1Nw5aoyqsteZ4Ht7yjCAoFRoiwpsiSqUiJ88Uvu7GlnahoF
FQ==
-----END CERTIFICATE-----
