Certificate:
    Data:
        Version: 3 (0x2)
        Serial Number:
            dc:4f:05:fb:fe:4b:59:62:12:05:20:80:ce:a8:13:be
        Signature Algorithm: sha256WithRSAEncryption
        Issuer: CN=team498-net
        Validity
            Not Before: Sep 13 03:16:54 2021 GMT
            Not After : Aug 28 03:16:54 2024 GMT
        Subject: CN=team498-client
        Subject Public Key Info:
            Public Key Algorithm: rsaEncryption
                RSA Public-Key: (2048 bit)
                Modulus:
                    00:ec:bb:04:6f:8f:c4:4f:5d:66:f6:d4:9a:fa:19:
                    46:dd:0c:64:91:78:1f:dc:83:55:03:97:4b:94:f9:
                    58:d9:97:e7:a2:d1:49:b5:62:5a:e3:0d:15:14:1b:
                    e4:67:90:12:d1:40:17:9b:49:c2:d3:a5:11:b9:a9:
                    f0:41:0e:97:aa:7d:c7:3b:cf:47:1c:0f:5c:3f:97:
                    a9:52:47:4c:44:99:23:cb:9f:17:38:7f:33:c5:37:
                    cf:ef:d5:32:c9:cf:23:8d:77:a6:82:b1:25:59:92:
                    04:f7:3e:09:86:4d:c8:4a:c2:62:3b:02:ca:b0:8d:
                    3b:27:91:77:70:2b:70:4d:b3:7f:09:55:ca:f7:a7:
                    a5:76:ec:bd:68:f8:df:0d:7b:dc:ff:28:ca:e6:a6:
                    f9:b4:30:0c:7c:f2:db:db:64:b8:f7:78:88:3d:4c:
                    61:5c:54:e9:d6:0b:ce:75:40:33:01:92:01:d5:11:
                    2e:9f:24:c8:2d:6f:1c:ec:12:1c:15:55:41:de:56:
                    b9:5b:ad:8a:e1:a0:a2:97:52:3b:50:a5:e5:7d:54:
                    06:e6:3e:3f:f3:2e:35:f1:3f:35:5e:7d:af:43:99:
                    58:6d:8b:3f:21:90:f3:5f:05:3d:a2:60:e1:fd:e2:
                    3a:16:a4:7e:b2:2d:2b:18:bd:2b:8a:8c:86:ec:1f:
                    bb:21
                Exponent: 65537 (0x10001)
        X509v3 extensions:
            X509v3 Basic Constraints: 
                CA:FALSE
            X509v3 Subject Key Identifier: 
                1C:EA:DF:64:93:4E:67:0D:90:AC:41:46:7E:F6:4D:22:95:E0:D8:25
            X509v3 Authority Key Identifier: 
                keyid:D8:E4:39:41:CF:A7:F0:C2:E8:38:22:C4:07:23:E9:EA:60:E7:D4:16
                DirName:/CN=team498-net
                serial:46:6D:A6:E4:79:EF:3E:8C:AF:B4:80:3C:23:CD:A5:06:AC:9B:D7:42

            X509v3 Extended Key Usage: 
                TLS Web Client Authentication
            X509v3 Key Usage: 
                Digital Signature
    Signature Algorithm: sha256WithRSAEncryption
         21:a4:a5:c2:12:e8:d1:36:3f:c6:f9:54:5b:35:6d:6e:7c:9e:
         7b:43:68:a5:8b:bc:24:f2:f6:46:92:58:0c:08:8e:d7:28:21:
         fe:8e:3f:e1:29:4e:bd:7d:7d:5f:6f:a6:fc:69:a5:65:47:46:
         50:64:4d:76:fd:9e:7f:2c:9d:1c:33:48:04:cf:ff:de:80:77:
         8f:84:7e:2d:bf:7b:51:31:11:89:b6:55:f6:8d:9a:ea:eb:02:
         a0:7d:57:e6:bf:78:c1:9e:2a:d3:e4:a9:ed:e3:a0:70:b7:97:
         b4:0b:93:56:63:75:78:ff:5a:37:9c:0a:b8:93:ea:9f:05:65:
         41:27:75:1e:28:f8:16:2f:f2:12:ad:d3:bb:b2:3b:aa:d5:45:
         22:60:50:d5:fc:12:f8:59:e7:97:35:c8:9b:4b:90:ea:40:98:
         46:5f:2a:20:50:f3:2e:c7:97:92:dc:d9:d9:61:3a:e3:e9:a1:
         ff:7c:b5:0d:4f:8d:56:70:8e:9a:69:f1:86:41:87:cd:f6:89:
         5c:85:df:80:7d:34:55:08:e4:7e:1e:1f:36:fd:35:ad:ae:d4:
         db:f1:d7:53:c1:5f:6f:70:46:73:24:63:4b:68:b7:33:5d:6e:
         83:5e:72:e3:e3:02:4f:01:b5:b8:2d:b5:d6:36:26:46:f8:2a:
         db:bf:09:84
-----BEGIN CERTIFICATE-----
MIIDXTCCAkWgAwIBAgIRANxPBfv+S1liEgUggM6oE74wDQYJKoZIhvcNAQELBQAw
FjEUMBIGA1UEAwwLdGVhbTQ5OC1uZXQwHhcNMjEwOTEzMDMxNjU0WhcNMjQwODI4
MDMxNjU0WjAZMRcwFQYDVQQDDA50ZWFtNDk4LWNsaWVudDCCASIwDQYJKoZIhvcN
AQEBBQADggEPADCCAQoCggEBAOy7BG+PxE9dZvbUmvoZRt0MZJF4H9yDVQOXS5T5
WNmX56LRSbViWuMNFRQb5GeQEtFAF5tJwtOlEbmp8EEOl6p9xzvPRxwPXD+XqVJH
TESZI8ufFzh/M8U3z+/VMsnPI413poKxJVmSBPc+CYZNyErCYjsCyrCNOyeRd3Ar
cE2zfwlVyvenpXbsvWj43w173P8oyuam+bQwDHzy29tkuPd4iD1MYVxU6dYLznVA
MwGSAdURLp8kyC1vHOwSHBVVQd5WuVutiuGgopdSO1Cl5X1UBuY+P/MuNfE/NV59
r0OZWG2LPyGQ818FPaJg4f3iOhakfrItKxi9K4qMhuwfuyECAwEAAaOBojCBnzAJ
BgNVHRMEAjAAMB0GA1UdDgQWBBQc6t9kk05nDZCsQUZ+9k0ileDYJTBRBgNVHSME
SjBIgBTY5DlBz6fwwug4IsQHI+nqYOfUFqEapBgwFjEUMBIGA1UEAwwLdGVhbTQ5
OC1uZXSCFEZtpuR57z6Mr7SAPCPNpQasm9dCMBMGA1UdJQQMMAoGCCsGAQUFBwMC
MAsGA1UdDwQEAwIHgDANBgkqhkiG9w0BAQsFAAOCAQEAIaSlwhLo0TY/xvlUWzVt
bnyee0NopYu8JPL2RpJYDAiO1ygh/o4/4SlOvX19X2+m/GmlZUdGUGRNdv2efyyd
HDNIBM//3oB3j4R+Lb97UTERibZV9o2a6usCoH1X5r94wZ4q0+Sp7eOgcLeXtAuT
VmN1eP9aN5wKuJPqnwVlQSd1Hij4Fi/yEq3Tu7I7qtVFImBQ1fwS+FnnlzXIm0uQ
6kCYRl8qIFDzLseXktzZ2WE64+mh/3y1DU+NVnCOmmnxhkGHzfaJXIXfgH00VQjk
fh4fNv01ra7U2/HXU8Ffb3BGcyRjS2i3M11ug15y4+MCTwG1uC211jYmRvgq278J
hA==
-----END CERTIFICATE-----
