Certificate:
    Data:
        Version: 3 (0x2)
        Serial Number:
            ee:dd:11:95:79:2e:01:98:32:d8:2b:75:5c:c6:c6:fb
        Signature Algorithm: sha256WithRSAEncryption
        Issuer: CN=team353-net
        Validity
            Not Before: Sep 13 02:00:05 2021 GMT
            Not After : Aug 28 02:00:05 2024 GMT
        Subject: CN=team353-server
        Subject Public Key Info:
            Public Key Algorithm: rsaEncryption
                RSA Public-Key: (2048 bit)
                Modulus:
                    00:c2:49:f0:69:d5:e2:49:37:3b:3b:5a:bb:f4:64:
                    54:c3:b0:db:7e:96:93:85:30:d0:91:a5:30:93:42:
                    25:db:0e:24:32:a9:b5:3a:5e:8d:3e:08:d3:ef:9c:
                    66:fa:9c:8e:98:57:8c:30:61:db:35:ec:66:7c:eb:
                    48:9e:b9:e1:64:1f:01:0c:f7:50:ad:db:43:f7:71:
                    e0:b5:b8:f4:52:3a:33:29:e3:7b:84:59:7b:84:ce:
                    f1:f8:69:8a:de:4d:9a:71:93:a9:bd:85:35:fd:25:
                    8c:10:d3:1c:e9:bf:19:f4:d5:5a:e9:6a:fd:79:dc:
                    0c:65:de:4e:f0:de:c2:01:67:ae:52:17:73:1b:c0:
                    73:cd:51:08:b4:a4:26:b4:42:a9:e7:9a:23:a1:a7:
                    c4:f0:6a:07:c6:1e:46:c2:4e:09:86:97:81:2c:ac:
                    71:1d:cc:65:37:c6:a9:7a:52:7f:09:0c:d2:0b:96:
                    f5:fe:fe:f0:22:97:b4:bc:9a:2d:1f:4b:c8:17:1e:
                    d4:d6:00:f5:37:65:82:26:1c:53:8f:d4:1a:35:5c:
                    07:67:f1:e7:f7:4f:cb:5b:0d:1e:19:1e:0c:79:3b:
                    11:0d:aa:74:6b:06:5d:63:15:12:3f:55:db:30:c9:
                    4f:42:2c:8f:fe:57:a2:0a:0d:b1:d4:49:61:de:00:
                    1f:55
                Exponent: 65537 (0x10001)
        X509v3 extensions:
            X509v3 Basic Constraints: 
                CA:FALSE
            X509v3 Subject Key Identifier: 
                71:11:C9:0F:47:01:C5:18:99:62:78:7D:29:1F:C1:F7:7D:26:D3:5F
            X509v3 Authority Key Identifier: 
                keyid:2D:69:2A:18:7B:D5:3D:29:00:8D:8E:E6:77:DA:8A:58:BB:31:2B:71
                DirName:/CN=team353-net
                serial:34:05:36:52:0A:57:B9:FD:D1:F5:52:04:06:29:40:20:AE:4A:A3:62

            X509v3 Extended Key Usage: 
                TLS Web Server Authentication
            X509v3 Key Usage: 
                Digital Signature, Key Encipherment
            X509v3 Subject Alternative Name: 
                DNS:team353-server
    Signature Algorithm: sha256WithRSAEncryption
         82:dc:8b:c8:e1:30:69:bb:9e:a4:25:5c:c1:15:6c:c0:d0:ee:
         64:79:ca:45:14:12:e3:c9:7c:5a:39:d2:5a:b1:ac:f1:b8:a6:
         77:1b:bf:04:f0:07:f7:ac:64:e3:2d:65:e8:6d:bc:dd:0c:d6:
         af:eb:9c:d6:38:2f:96:bb:39:37:cc:9a:d4:f6:7b:eb:dd:c9:
         af:5f:22:79:63:6c:39:fe:5a:3b:b7:4c:df:13:94:93:d4:e2:
         34:22:7f:3f:04:73:ec:ed:6d:3e:27:57:c2:b1:7e:54:cb:75:
         8f:4e:9c:3a:8d:97:3d:5e:e5:3b:d4:b2:ab:5c:9f:3d:22:1c:
         93:65:64:91:8b:76:bd:13:17:a0:24:72:9f:ef:c8:30:f0:da:
         f8:d8:50:69:5c:44:64:cd:b8:26:0d:27:d8:31:5d:d0:47:7a:
         30:82:66:1c:ea:30:76:91:8a:12:dd:44:e9:d2:35:52:b2:a6:
         06:30:ab:47:16:84:d1:ab:53:ad:8a:ad:66:98:e0:75:bc:80:
         7c:ce:8a:3e:12:e9:4c:5b:92:23:bb:d1:ab:e0:d6:20:4d:4d:
         15:a8:9e:3c:0a:51:29:7b:00:ed:53:73:f7:81:14:6e:45:98:
         d7:b4:55:e0:d3:7e:ec:47:6c:1d:7a:a0:4b:3c:1b:35:9d:79:
         74:25:7d:fb
-----BEGIN CERTIFICATE-----
MIIDeDCCAmCgAwIBAgIRAO7dEZV5LgGYMtgrdVzGxvswDQYJKoZIhvcNAQELBQAw
FjEUMBIGA1UEAwwLdGVhbTM1My1uZXQwHhcNMjEwOTEzMDIwMDA1WhcNMjQwODI4
MDIwMDA1WjAZMRcwFQYDVQQDDA50ZWFtMzUzLXNlcnZlcjCCASIwDQYJKoZIhvcN
AQEBBQADggEPADCCAQoCggEBAMJJ8GnV4kk3Oztau/RkVMOw236Wk4Uw0JGlMJNC
JdsOJDKptTpejT4I0++cZvqcjphXjDBh2zXsZnzrSJ654WQfAQz3UK3bQ/dx4LW4
9FI6Mynje4RZe4TO8fhpit5NmnGTqb2FNf0ljBDTHOm/GfTVWulq/XncDGXeTvDe
wgFnrlIXcxvAc81RCLSkJrRCqeeaI6GnxPBqB8YeRsJOCYaXgSyscR3MZTfGqXpS
fwkM0guW9f7+8CKXtLyaLR9LyBce1NYA9TdlgiYcU4/UGjVcB2fx5/dPy1sNHhke
DHk7EQ2qdGsGXWMVEj9V2zDJT0Isj/5XogoNsdRJYd4AH1UCAwEAAaOBvTCBujAJ
BgNVHRMEAjAAMB0GA1UdDgQWBBRxEckPRwHFGJlieH0pH8H3fSbTXzBRBgNVHSME
SjBIgBQtaSoYe9U9KQCNjuZ32opYuzErcaEapBgwFjEUMBIGA1UEAwwLdGVhbTM1
My1uZXSCFDQFNlIKV7n90fVSBAYpQCCuSqNiMBMGA1UdJQQMMAoGCCsGAQUFBwMB
MAsGA1UdDwQEAwIFoDAZBgNVHREEEjAQgg50ZWFtMzUzLXNlcnZlcjANBgkqhkiG
9w0BAQsFAAOCAQEAgtyLyOEwabuepCVcwRVswNDuZHnKRRQS48l8WjnSWrGs8bim
dxu/BPAH96xk4y1l6G283QzWr+uc1jgvlrs5N8ya1PZ7693Jr18ieWNsOf5aO7dM
3xOUk9TiNCJ/PwRz7O1tPidXwrF+VMt1j06cOo2XPV7lO9Syq1yfPSIck2VkkYt2
vRMXoCRyn+/IMPDa+NhQaVxEZM24Jg0n2DFd0Ed6MIJmHOowdpGKEt1E6dI1UrKm
BjCrRxaE0atTrYqtZpjgdbyAfM6KPhLpTFuSI7vRq+DWIE1NFaiePApRKXsA7VNz
94EUbkWY17RV4NN+7EdsHXqgSzwbNZ15dCV9+w==
-----END CERTIFICATE-----
