Certificate:
    Data:
        Version: 3 (0x2)
        Serial Number:
            70:bb:a3:8e:ce:dd:44:34:6e:17:0c:d4:19:76:c8:5c
        Signature Algorithm: sha256WithRSAEncryption
        Issuer: CN=team123-net
        Validity
            Not Before: Sep 12 23:49:48 2021 GMT
            Not After : Aug 27 23:49:48 2024 GMT
        Subject: CN=team123-server
        Subject Public Key Info:
            Public Key Algorithm: rsaEncryption
                RSA Public-Key: (2048 bit)
                Modulus:
                    00:ee:a0:81:1a:4d:ec:ee:67:ce:3e:0d:5c:25:30:
                    ae:ba:fa:98:63:15:01:eb:ec:46:61:40:b4:59:47:
                    fa:72:da:dc:aa:91:da:61:45:45:73:77:ef:61:21:
                    d1:8b:18:71:3d:8b:0d:9a:57:ea:f4:86:6e:40:36:
                    2e:54:ac:b7:c4:70:44:c9:1e:06:76:1d:9a:b9:2e:
                    5e:42:7f:97:2e:c9:52:43:c6:7b:d0:c6:16:bb:86:
                    e0:24:84:ec:2a:01:a1:10:4e:db:b7:fc:40:a4:30:
                    67:7d:f8:67:0d:37:f5:36:78:11:bf:51:a0:88:24:
                    6a:f4:b7:78:02:b0:58:3d:c1:44:0a:89:65:2f:c9:
                    ad:43:47:0e:b7:4a:bf:0e:cc:51:75:15:ff:78:2e:
                    38:84:29:77:ca:8b:66:15:56:4d:7e:69:8b:6c:86:
                    24:ef:55:69:e4:5c:11:53:a8:e6:0a:66:33:bf:fe:
                    d5:62:70:a7:8e:bc:48:b6:c1:1e:21:0f:4a:cb:25:
                    39:c8:c8:56:10:ba:28:15:99:9c:13:33:56:0d:db:
                    d3:39:e4:e8:47:40:bb:78:26:16:b6:d5:74:4b:97:
                    c4:ea:81:08:bd:84:b9:8d:96:13:c0:56:eb:15:8c:
                    24:ba:ae:b1:e9:c3:fb:3a:84:27:a4:8f:06:57:14:
                    e4:df
                Exponent: 65537 (0x10001)
        X509v3 extensions:
            X509v3 Basic Constraints: 
                CA:FALSE
            X509v3 Subject Key Identifier: 
                2D:C0:F6:74:AD:9D:AB:F7:04:17:3A:CB:11:59:45:CD:D6:41:9A:A9
            X509v3 Authority Key Identifier: 
                keyid:24:EE:33:C7:A7:56:39:D9:37:A3:7F:E9:6F:6D:C1:70:C4:B9:BB:23
                DirName:/CN=team123-net
                serial:48:EE:06:F9:E5:51:9D:AA:20:64:F4:B9:01:A0:9C:01:8D:15:22:EB

            X509v3 Extended Key Usage: 
                TLS Web Server Authentication
            X509v3 Key Usage: 
                Digital Signature, Key Encipherment
            X509v3 Subject Alternative Name: 
                DNS:team123-server
    Signature Algorithm: sha256WithRSAEncryption
         bf:ea:cc:0d:1f:72:cd:1a:6b:7b:16:2a:68:5b:9b:07:b2:52:
         80:99:4e:a7:29:2c:d3:4d:1a:8d:59:53:2b:b0:4b:9e:74:68:
         78:97:32:fd:bb:a6:21:f7:8d:5e:61:35:9e:c6:ce:17:94:f4:
         a1:5a:71:6d:66:8c:c2:9e:a2:d9:4e:0c:40:be:44:63:a1:dc:
         cc:1e:71:46:13:f2:e7:77:4e:45:4d:3d:52:80:4d:5c:89:be:
         70:ee:c5:ef:0e:7b:52:64:01:c2:97:22:5b:9e:e1:ac:22:07:
         e6:b5:2b:43:5a:f6:cd:a7:af:cd:b6:9a:26:ec:2b:53:a0:16:
         4e:b6:a3:2e:0b:8d:ed:2c:09:d6:fe:12:71:0e:90:d1:e0:c7:
         26:68:a2:00:57:6d:ec:95:b0:35:fa:6c:25:11:9d:8a:df:60:
         d3:3a:7f:3b:4e:b2:66:99:fb:93:c8:38:e9:7d:5b:e4:62:f9:
         c0:25:cb:f2:27:9c:c6:d3:0f:08:f3:9c:a0:67:ec:f3:f0:48:
         3d:9b:c6:97:46:9a:fc:0b:7f:c9:72:ed:d2:34:d3:c5:46:9e:
         e2:31:8e:c4:03:8b:b4:5e:59:0e:d3:7c:27:36:99:89:d5:14:
         ba:57:27:81:57:f5:e2:87:bd:98:aa:ec:ab:f8:2c:39:32:f9:
         11:e9:80:48
-----BEGIN CERTIFICATE-----
MIIDdzCCAl+gAwIBAgIQcLujjs7dRDRuFwzUGXbIXDANBgkqhkiG9w0BAQsFADAW
MRQwEgYDVQQDDAt0ZWFtMTIzLW5ldDAeFw0yMTA5MTIyMzQ5NDhaFw0yNDA4Mjcy
MzQ5NDhaMBkxFzAVBgNVBAMMDnRlYW0xMjMtc2VydmVyMIIBIjANBgkqhkiG9w0B
AQEFAAOCAQ8AMIIBCgKCAQEA7qCBGk3s7mfOPg1cJTCuuvqYYxUB6+xGYUC0WUf6
ctrcqpHaYUVFc3fvYSHRixhxPYsNmlfq9IZuQDYuVKy3xHBEyR4Gdh2auS5eQn+X
LslSQ8Z70MYWu4bgJITsKgGhEE7bt/xApDBnffhnDTf1NngRv1GgiCRq9Ld4ArBY
PcFECollL8mtQ0cOt0q/DsxRdRX/eC44hCl3yotmFVZNfmmLbIYk71Vp5FwRU6jm
CmYzv/7VYnCnjrxItsEeIQ9KyyU5yMhWELooFZmcEzNWDdvTOeToR0C7eCYWttV0
S5fE6oEIvYS5jZYTwFbrFYwkuq6x6cP7OoQnpI8GVxTk3wIDAQABo4G9MIG6MAkG
A1UdEwQCMAAwHQYDVR0OBBYEFC3A9nStnav3BBc6yxFZRc3WQZqpMFEGA1UdIwRK
MEiAFCTuM8enVjnZN6N/6W9twXDEubsjoRqkGDAWMRQwEgYDVQQDDAt0ZWFtMTIz
LW5ldIIUSO4G+eVRnaogZPS5AaCcAY0VIuswEwYDVR0lBAwwCgYIKwYBBQUHAwEw
CwYDVR0PBAQDAgWgMBkGA1UdEQQSMBCCDnRlYW0xMjMtc2VydmVyMA0GCSqGSIb3
DQEBCwUAA4IBAQC/6swNH3LNGmt7FipoW5sHslKAmU6nKSzTTRqNWVMrsEuedGh4
lzL9u6Yh941eYTWexs4XlPShWnFtZozCnqLZTgxAvkRjodzMHnFGE/Lnd05FTT1S
gE1cib5w7sXvDntSZAHClyJbnuGsIgfmtStDWvbNp6/Ntpom7CtToBZOtqMuC43t
LAnW/hJxDpDR4McmaKIAV23slbA1+mwlEZ2K32DTOn87TrJmmfuTyDjpfVvkYvnA
JcvyJ5zG0w8I85ygZ+zz8Eg9m8aXRpr8C3/Jcu3SNNPFRp7iMY7EA4u0XlkO03wn
NpmJ1RS6VyeBV/Xih72Yquyr+Cw5MvkR6YBI
-----END CERTIFICATE-----
