Certificate:
    Data:
        Version: 3 (0x2)
        Serial Number:
            e7:e1:6c:ef:79:c7:a8:e4:83:ef:85:8e:7a:d9:57:38
        Signature Algorithm: sha256WithRSAEncryption
        Issuer: CN=team123-net
        Validity
            Not Before: Sep 12 23:49:48 2021 GMT
            Not After : Aug 27 23:49:48 2024 GMT
        Subject: CN=team123-client
        Subject Public Key Info:
            Public Key Algorithm: rsaEncryption
                RSA Public-Key: (2048 bit)
                Modulus:
                    00:cb:47:17:40:06:e7:13:6a:55:6c:39:b2:8d:5d:
                    77:6a:26:da:8b:3e:32:7a:6d:f9:03:14:e7:e0:45:
                    b7:1f:79:f4:2c:d0:d2:9b:10:79:54:aa:0e:45:11:
                    5e:37:8b:76:39:24:54:1a:ae:71:75:3c:ef:9d:07:
                    dd:a0:c0:27:d6:5f:cb:41:4e:74:9a:87:f0:1f:bb:
                    c8:0d:1b:d7:88:15:c5:7f:5d:2f:21:97:2a:67:76:
                    ac:2d:0a:35:96:bc:17:21:6f:9f:ec:1c:9f:58:ba:
                    42:3b:2e:e1:70:3e:6d:02:72:df:f8:93:4e:6c:e7:
                    e7:2c:41:7f:b0:bf:9e:1c:9e:e5:dd:41:b5:ca:7a:
                    36:c6:7a:9c:d4:63:8c:39:3c:9e:69:4b:d4:81:fb:
                    df:de:7d:16:06:16:00:3b:30:f5:49:84:4c:d8:0b:
                    ee:45:28:10:4e:47:c1:8f:a9:35:5a:b9:8c:82:4e:
                    26:1b:96:23:4b:28:a6:f7:b3:57:7b:17:3c:01:f4:
                    3c:22:e7:d8:7a:21:59:e9:3e:81:0f:3a:03:4f:2c:
                    01:05:a5:07:1b:06:d5:e1:8b:3b:fb:e1:16:a1:5a:
                    0b:2c:4b:31:67:42:0d:e8:9e:90:06:50:4d:f7:cc:
                    d0:43:8e:03:da:88:10:54:32:b9:d3:32:23:61:76:
                    31:c7
                Exponent: 65537 (0x10001)
        X509v3 extensions:
            X509v3 Basic Constraints: 
                CA:FALSE
            X509v3 Subject Key Identifier: 
                0D:B2:A7:31:0F:87:8A:2D:C6:CC:A3:D7:10:D5:EB:7B:32:E7:49:5D
            X509v3 Authority Key Identifier: 
                keyid:24:EE:33:C7:A7:56:39:D9:37:A3:7F:E9:6F:6D:C1:70:C4:B9:BB:23
                DirName:/CN=team123-net
                serial:48:EE:06:F9:E5:51:9D:AA:20:64:F4:B9:01:A0:9C:01:8D:15:22:EB

            X509v3 Extended Key Usage: 
                TLS Web Client Authentication
            X509v3 Key Usage: 
                Digital Signature
    Signature Algorithm: sha256WithRSAEncryption
         5c:48:fb:a7:62:56:da:60:f5:d7:a4:49:bb:0e:6e:76:33:94:
         24:8c:70:0d:d4:72:c3:ee:47:c3:8e:c4:c9:4a:17:ab:83:fc:
         b5:62:f3:b2:a9:70:c8:a4:80:15:93:de:89:72:47:78:aa:72:
         72:56:7d:d7:a0:05:a3:5c:93:62:43:17:21:e1:65:d5:1a:86:
         31:b7:b8:0a:f5:59:05:0e:22:ba:46:9b:27:de:6b:42:41:13:
         96:4c:f7:86:31:2c:b5:68:d4:64:27:fa:56:01:0f:51:c8:91:
         da:3a:d3:dc:89:a5:e8:27:7a:b4:e3:53:12:6c:c8:6d:6d:ba:
         a2:de:c3:18:bf:ce:a7:0c:d4:c4:af:b9:b4:5c:4b:e4:19:10:
         8a:b7:e8:13:de:86:79:90:7c:c5:56:46:6e:c7:36:73:20:5e:
         f1:0e:37:42:23:75:15:bb:52:bf:09:ec:43:89:52:67:c5:e2:
         e8:4e:4d:c2:4a:9f:e2:2f:a1:92:75:2c:fa:74:d7:9b:3e:2f:
         6d:e3:08:70:76:55:67:46:ae:2c:46:a5:ea:df:d8:83:92:a1:
         8b:17:10:c2:e6:84:da:3e:b2:62:b6:f3:b3:35:cc:e3:1e:0b:
         39:b2:0d:f4:2e:e2:36:19:c5:08:dc:7c:5e:ae:fb:2c:3d:c5:
         dc:bd:55:ec
-----BEGIN CERTIFICATE-----
MIIDXTCCAkWgAwIBAgIRAOfhbO95x6jkg++FjnrZVzgwDQYJKoZIhvcNAQELBQAw
FjEUMBIGA1UEAwwLdGVhbTEyMy1uZXQwHhcNMjEwOTEyMjM0OTQ4WhcNMjQwODI3
MjM0OTQ4WjAZMRcwFQYDVQQDDA50ZWFtMTIzLWNsaWVudDCCASIwDQYJKoZIhvcN
AQEBBQADggEPADCCAQoCggEBAMtHF0AG5xNqVWw5so1dd2om2os+Mnpt+QMU5+BF
tx959CzQ0psQeVSqDkURXjeLdjkkVBqucXU8750H3aDAJ9Zfy0FOdJqH8B+7yA0b
14gVxX9dLyGXKmd2rC0KNZa8FyFvn+wcn1i6Qjsu4XA+bQJy3/iTTmzn5yxBf7C/
nhye5d1Btcp6NsZ6nNRjjDk8nmlL1IH73959FgYWADsw9UmETNgL7kUoEE5HwY+p
NVq5jIJOJhuWI0sopvezV3sXPAH0PCLn2HohWek+gQ86A08sAQWlBxsG1eGLO/vh
FqFaCyxLMWdCDeiekAZQTffM0EOOA9qIEFQyudMyI2F2MccCAwEAAaOBojCBnzAJ
BgNVHRMEAjAAMB0GA1UdDgQWBBQNsqcxD4eKLcbMo9cQ1et7MudJXTBRBgNVHSME
SjBIgBQk7jPHp1Y52Tejf+lvbcFwxLm7I6EapBgwFjEUMBIGA1UEAwwLdGVhbTEy
My1uZXSCFEjuBvnlUZ2qIGT0uQGgnAGNFSLrMBMGA1UdJQQMMAoGCCsGAQUFBwMC
MAsGA1UdDwQEAwIHgDANBgkqhkiG9w0BAQsFAAOCAQEAXEj7p2JW2mD116RJuw5u
djOUJIxwDdRyw+5Hw47EyUoXq4P8tWLzsqlwyKSAFZPeiXJHeKpyclZ916AFo1yT
YkMXIeFl1RqGMbe4CvVZBQ4iukabJ95rQkETlkz3hjEstWjUZCf6VgEPUciR2jrT
3Iml6Cd6tONTEmzIbW26ot7DGL/OpwzUxK+5tFxL5BkQirfoE96GeZB8xVZGbsc2
cyBe8Q43QiN1FbtSvwnsQ4lSZ8Xi6E5Nwkqf4i+hknUs+nTXmz4vbeMIcHZVZ0au
LEal6t/Yg5KhixcQwuaE2j6yYrbzszXM4x4LObIN9C7iNhnFCNx8Xq77LD3F3L1V
7A==
-----END CERTIFICATE-----
