Certificate:
    Data:
        Version: 3 (0x2)
        Serial Number:
            b6:63:33:3e:44:6f:f4:fa:90:0d:ea:b4:d9:d9:b2:0e
        Signature Algorithm: sha256WithRSAEncryption
        Issuer: CN=team510-net
        Validity
            Not Before: Sep 13 03:10:51 2021 GMT
            Not After : Aug 28 03:10:51 2024 GMT
        Subject: CN=team510-server
        Subject Public Key Info:
            Public Key Algorithm: rsaEncryption
                RSA Public-Key: (2048 bit)
                Modulus:
                    00:aa:a8:e1:1d:2b:be:95:3d:9c:f9:44:95:c5:32:
                    86:41:a7:ad:1a:92:76:ae:8e:62:9e:06:17:c7:fd:
                    63:f3:33:0f:f1:bc:5c:ae:96:60:c4:7c:be:48:e0:
                    bd:a8:ea:c3:d2:20:b3:a5:7d:e6:94:e5:03:ec:2e:
                    ee:f2:a8:00:99:16:a9:8c:f5:9b:13:85:60:1f:5c:
                    b7:81:79:92:0b:81:b8:af:9b:24:a5:dd:cd:4c:98:
                    25:23:32:06:2d:2a:21:53:83:a8:46:65:52:3b:42:
                    32:f5:2d:48:63:53:90:d6:ef:70:e3:d9:97:77:e0:
                    ce:ce:cd:bf:30:2f:aa:7f:76:f2:0f:38:7b:58:b7:
                    c5:77:08:f5:db:dc:9a:42:0b:21:9d:15:df:1e:45:
                    89:f0:2c:d1:3d:4c:f4:32:99:f9:78:13:74:e0:5c:
                    57:be:42:6f:db:aa:04:fa:e5:55:09:1e:cd:e0:db:
                    5a:86:a4:45:2e:54:78:84:5e:72:f8:5b:f5:56:1f:
                    be:cc:94:e9:45:af:d9:df:29:ed:5f:d0:54:8b:7a:
                    51:89:99:04:09:b6:81:28:89:f8:61:85:ec:02:b4:
                    dd:01:48:ab:54:08:d5:23:60:aa:44:16:c0:f4:8e:
                    7a:f4:18:85:1c:df:91:c8:6b:15:41:75:b5:9f:f8:
                    43:03
                Exponent: 65537 (0x10001)
        X509v3 extensions:
            X509v3 Basic Constraints: 
                CA:FALSE
            X509v3 Subject Key Identifier: 
                38:73:1E:C6:38:23:AD:56:BF:D4:75:85:88:D4:89:14:D2:4A:9C:CC
            X509v3 Authority Key Identifier: 
                keyid:9E:A9:CC:72:16:47:85:3A:44:19:BC:25:9C:FE:F7:26:11:91:D2:C3
                DirName:/CN=team510-net
                serial:60:E0:89:61:D2:FD:CC:4B:68:22:8E:4F:E3:8D:29:A8:0B:C8:81:23

            X509v3 Extended Key Usage: 
                TLS Web Server Authentication
            X509v3 Key Usage: 
                Digital Signature, Key Encipherment
            X509v3 Subject Alternative Name: 
                DNS:team510-server
    Signature Algorithm: sha256WithRSAEncryption
         4e:7f:29:77:20:68:fc:33:d5:6f:02:92:3c:b3:37:24:89:99:
         4d:49:bc:17:9d:b7:4a:e0:b8:7d:fa:10:2d:ae:92:6d:72:e3:
         18:44:08:a4:80:62:9b:3e:cd:39:a1:ee:01:90:1a:15:50:8d:
         f2:03:5a:38:ed:b1:c0:16:79:7e:df:48:24:4a:51:10:57:a2:
         f4:fb:4e:a7:e6:93:24:53:a9:f7:1b:26:4b:b2:08:2b:63:81:
         d7:8e:e4:f3:a3:74:3d:b2:75:9e:9b:96:33:64:a2:09:c4:7c:
         25:bc:38:9a:e9:3b:ec:0e:9e:5b:14:ac:95:ce:71:23:ee:46:
         0c:03:92:0b:b5:4d:7e:23:45:46:2a:2e:cd:c6:8a:53:9c:2b:
         00:33:6c:6f:15:57:57:f6:4b:0e:76:02:11:37:61:05:b4:e5:
         9e:fb:af:da:0d:5c:a2:dd:14:61:0b:00:fb:2b:4b:53:56:bb:
         93:89:99:1e:b5:0e:53:1c:e9:7b:ae:76:ac:ef:14:f7:e2:06:
         c8:9e:fb:21:7c:c7:df:bf:20:d3:87:9a:5d:7f:55:c7:16:23:
         80:b5:d0:ea:f2:9a:8f:f1:d7:4e:2d:65:71:32:90:35:eb:71:
         86:fe:09:d7:92:62:ed:ca:a6:88:6e:c3:9d:50:35:32:e8:eb:
         fe:eb:00:94
-----BEGIN CERTIFICATE-----
MIIDeDCCAmCgAwIBAgIRALZjMz5Eb/T6kA3qtNnZsg4wDQYJKoZIhvcNAQELBQAw
FjEUMBIGA1UEAwwLdGVhbTUxMC1uZXQwHhcNMjEwOTEzMDMxMDUxWhcNMjQwODI4
MDMxMDUxWjAZMRcwFQYDVQQDDA50ZWFtNTEwLXNlcnZlcjCCASIwDQYJKoZIhvcN
AQEBBQADggEPADCCAQoCggEBAKqo4R0rvpU9nPlElcUyhkGnrRqSdq6OYp4GF8f9
Y/MzD/G8XK6WYMR8vkjgvajqw9Igs6V95pTlA+wu7vKoAJkWqYz1mxOFYB9ct4F5
kguBuK+bJKXdzUyYJSMyBi0qIVODqEZlUjtCMvUtSGNTkNbvcOPZl3fgzs7NvzAv
qn928g84e1i3xXcI9dvcmkILIZ0V3x5FifAs0T1M9DKZ+XgTdOBcV75Cb9uqBPrl
VQkezeDbWoakRS5UeIRecvhb9VYfvsyU6UWv2d8p7V/QVIt6UYmZBAm2gSiJ+GGF
7AK03QFIq1QI1SNgqkQWwPSOevQYhRzfkchrFUF1tZ/4QwMCAwEAAaOBvTCBujAJ
BgNVHRMEAjAAMB0GA1UdDgQWBBQ4cx7GOCOtVr/UdYWI1IkU0kqczDBRBgNVHSME
SjBIgBSeqcxyFkeFOkQZvCWc/vcmEZHSw6EapBgwFjEUMBIGA1UEAwwLdGVhbTUx
MC1uZXSCFGDgiWHS/cxLaCKOT+ONKagLyIEjMBMGA1UdJQQMMAoGCCsGAQUFBwMB
MAsGA1UdDwQEAwIFoDAZBgNVHREEEjAQgg50ZWFtNTEwLXNlcnZlcjANBgkqhkiG
9w0BAQsFAAOCAQEATn8pdyBo/DPVbwKSPLM3JImZTUm8F523SuC4ffoQLa6SbXLj
GEQIpIBimz7NOaHuAZAaFVCN8gNaOO2xwBZ5ft9IJEpREFei9PtOp+aTJFOp9xsm
S7IIK2OB147k86N0PbJ1npuWM2SiCcR8Jbw4muk77A6eWxSslc5xI+5GDAOSC7VN
fiNFRiouzcaKU5wrADNsbxVXV/ZLDnYCETdhBbTlnvuv2g1cot0UYQsA+ytLU1a7
k4mZHrUOUxzpe652rO8U9+IGyJ77IXzH378g04eaXX9VxxYjgLXQ6vKaj/HXTi1l
cTKQNetxhv4J15Ji7cqmiG7DnVA1Mujr/usAlA==
-----END CERTIFICATE-----
