Certificate:
    Data:
        Version: 3 (0x2)
        Serial Number:
            a1:9c:27:77:cb:5d:18:51:8d:95:98:4f:0c:cd:b1:6a
        Signature Algorithm: sha256WithRSAEncryption
        Issuer: CN=team294-net
        Validity
            Not Before: Sep 13 01:24:03 2021 GMT
            Not After : Aug 28 01:24:03 2024 GMT
        Subject: CN=team294-client
        Subject Public Key Info:
            Public Key Algorithm: rsaEncryption
                RSA Public-Key: (2048 bit)
                Modulus:
                    00:b6:c9:cb:6d:98:ee:00:fe:86:bc:8d:7f:5a:67:
                    fb:55:bd:c3:9d:1c:07:99:62:3d:bc:16:b3:be:c5:
                    76:1e:35:2f:b9:33:36:a2:f2:34:73:cd:79:8f:8c:
                    55:32:e4:08:10:6b:e0:26:8e:ff:c2:ba:7d:00:17:
                    45:81:48:eb:16:dc:f8:24:02:a0:06:7e:9e:21:b9:
                    8c:42:c4:13:08:ad:ba:2e:79:e4:6b:0b:3d:b0:16:
                    51:73:2d:3f:59:97:74:81:0f:b1:5c:d4:51:2c:2c:
                    de:13:3d:71:46:f3:6e:d9:f3:5b:1a:2c:80:8e:4c:
                    d4:ac:9b:2b:20:88:37:7d:d3:7a:ce:98:5d:bb:b5:
                    69:30:2c:35:02:57:c4:fe:1b:67:2a:fa:82:54:75:
                    41:48:2e:0a:3b:44:89:f8:f7:a4:28:d5:2c:a9:fc:
                    12:39:74:91:ed:71:54:5a:8a:14:57:e1:49:96:8b:
                    82:1b:a7:7a:9f:df:43:d4:40:ef:4f:a7:dc:1f:48:
                    59:67:fc:12:8d:ef:ca:8e:d9:1c:d8:af:d4:d7:ad:
                    9c:4a:f3:a7:fb:df:66:1c:be:53:bc:31:7d:a7:08:
                    5c:30:02:e3:36:7f:ce:79:c3:bc:17:d2:2a:1d:9b:
                    59:ad:84:26:52:e0:5d:3c:33:2b:8e:88:5f:fc:c7:
                    05:07
                Exponent: 65537 (0x10001)
        X509v3 extensions:
            X509v3 Basic Constraints: 
                CA:FALSE
            X509v3 Subject Key Identifier: 
                C5:88:30:45:3B:3B:16:24:6E:69:C0:53:F4:61:2A:51:A2:5B:13:F4
            X509v3 Authority Key Identifier: 
                keyid:B3:A3:C4:30:47:2F:C8:1D:0E:8D:71:51:45:A2:B1:F2:73:AD:4B:93
                DirName:/CN=team294-net
                serial:18:F6:6E:00:1E:42:FC:C0:0E:01:BB:37:5C:FA:F0:C1:00:45:F4:4C

            X509v3 Extended Key Usage: 
                TLS Web Client Authentication
            X509v3 Key Usage: 
                Digital Signature
    Signature Algorithm: sha256WithRSAEncryption
         ba:32:c5:c3:51:b5:33:a8:8b:40:e3:0c:68:ed:ca:08:7a:ab:
         9d:78:a3:95:29:50:b0:31:5b:2a:89:90:f3:a9:30:bb:69:9b:
         84:2f:d0:62:65:5e:55:e5:85:7a:10:b7:5c:d3:68:c2:87:f7:
         16:ff:a0:f8:af:24:7f:89:32:dd:78:ba:e4:3e:76:b2:02:46:
         35:70:25:71:fc:37:82:23:59:9f:26:83:e7:db:53:39:44:3a:
         04:92:86:21:1b:0c:10:18:9e:5a:1c:aa:ab:ed:78:ae:f7:ad:
         4c:f0:02:3e:2b:6c:a8:ba:de:b4:cf:4e:b8:ab:4a:13:58:8e:
         b3:36:3c:33:fa:a8:2a:96:28:19:2c:6f:86:c5:33:a3:a8:98:
         f6:04:75:89:a2:b4:20:6e:a6:8e:97:e1:7c:d9:d6:0c:81:fb:
         2c:ad:10:9a:df:06:81:3d:27:2a:1b:97:1c:83:fa:18:5e:09:
         d5:43:1c:70:37:e5:a2:c9:41:e5:38:5e:dd:3d:b0:9e:ec:3f:
         27:87:e3:26:15:41:86:c6:8a:4d:3e:da:cd:15:be:a7:5c:f8:
         b6:6e:7c:d9:74:c9:45:4d:c8:9d:8a:a7:f8:ba:5c:fc:46:15:
         fb:29:c3:fc:b2:8a:83:1c:2b:b1:27:0c:93:35:ee:0e:a3:0d:
         5c:1e:1a:f6
-----BEGIN CERTIFICATE-----
MIIDXTCCAkWgAwIBAgIRAKGcJ3fLXRhRjZWYTwzNsWowDQYJKoZIhvcNAQELBQAw
FjEUMBIGA1UEAwwLdGVhbTI5NC1uZXQwHhcNMjEwOTEzMDEyNDAzWhcNMjQwODI4
MDEyNDAzWjAZMRcwFQYDVQQDDA50ZWFtMjk0LWNsaWVudDCCASIwDQYJKoZIhvcN
AQEBBQADggEPADCCAQoCggEBALbJy22Y7gD+hryNf1pn+1W9w50cB5liPbwWs77F
dh41L7kzNqLyNHPNeY+MVTLkCBBr4CaO/8K6fQAXRYFI6xbc+CQCoAZ+niG5jELE
Ewitui555GsLPbAWUXMtP1mXdIEPsVzUUSws3hM9cUbzbtnzWxosgI5M1KybKyCI
N33Tes6YXbu1aTAsNQJXxP4bZyr6glR1QUguCjtEifj3pCjVLKn8Ejl0ke1xVFqK
FFfhSZaLghunep/fQ9RA70+n3B9IWWf8Eo3vyo7ZHNiv1NetnErzp/vfZhy+U7wx
facIXDAC4zZ/znnDvBfSKh2bWa2EJlLgXTwzK46IX/zHBQcCAwEAAaOBojCBnzAJ
BgNVHRMEAjAAMB0GA1UdDgQWBBTFiDBFOzsWJG5pwFP0YSpRolsT9DBRBgNVHSME
SjBIgBSzo8QwRy/IHQ6NcVFForHyc61Lk6EapBgwFjEUMBIGA1UEAwwLdGVhbTI5
NC1uZXSCFBj2bgAeQvzADgG7N1z68MEARfRMMBMGA1UdJQQMMAoGCCsGAQUFBwMC
MAsGA1UdDwQEAwIHgDANBgkqhkiG9w0BAQsFAAOCAQEAujLFw1G1M6iLQOMMaO3K
CHqrnXijlSlQsDFbKomQ86kwu2mbhC/QYmVeVeWFehC3XNNowof3Fv+g+K8kf4ky
3Xi65D52sgJGNXAlcfw3giNZnyaD59tTOUQ6BJKGIRsMEBieWhyqq+14rvetTPAC
PitsqLretM9OuKtKE1iOszY8M/qoKpYoGSxvhsUzo6iY9gR1iaK0IG6mjpfhfNnW
DIH7LK0Qmt8GgT0nKhuXHIP6GF4J1UMccDfloslB5The3T2wnuw/J4fjJhVBhsaK
TT7azRW+p1z4tm582XTJRU3InYqn+Lpc/EYV+ynD/LKKgxwrsScMkzXuDqMNXB4a
9g==
-----END CERTIFICATE-----
