Certificate:
    Data:
        Version: 3 (0x2)
        Serial Number:
            9a:60:f8:25:bc:8e:79:05:de:d5:20:ce:7d:4f:2e:94
        Signature Algorithm: sha256WithRSAEncryption
        Issuer: CN=team26-net
        Validity
            Not Before: Sep 12 22:56:43 2021 GMT
            Not After : Aug 27 22:56:43 2024 GMT
        Subject: CN=team26-server
        Subject Public Key Info:
            Public Key Algorithm: rsaEncryption
                RSA Public-Key: (2048 bit)
                Modulus:
                    00:f7:2f:e1:6f:8e:0a:51:17:99:05:42:97:85:65:
                    58:18:52:9b:91:54:ed:69:0b:73:c5:7a:ca:95:0a:
                    ee:1d:ef:46:ed:8b:f3:12:79:a1:a7:d0:0b:65:6a:
                    dd:10:f8:6c:02:eb:4c:6d:b6:bb:ab:8d:eb:74:d0:
                    f9:d5:f8:fe:a2:ae:0d:61:c0:2c:55:fa:9a:4f:b2:
                    57:52:b2:21:19:bc:46:39:f7:5e:83:44:a0:1d:79:
                    3f:2e:09:03:00:3f:29:d0:36:c6:1e:20:b2:16:28:
                    23:5f:c1:9d:5e:fe:46:2f:6f:e4:c1:5c:30:a0:72:
                    c8:95:b0:70:91:99:61:66:6c:15:ee:a0:6f:32:ce:
                    5b:08:1b:ca:c9:aa:3c:ff:d4:f5:01:1a:21:07:9e:
                    a9:56:5d:ab:96:75:55:29:9e:64:3d:36:20:1b:f5:
                    52:e9:ce:25:ee:3d:c5:89:a9:9c:8d:5a:06:63:67:
                    ad:44:c7:ef:4e:e3:7f:7f:23:bd:82:c0:4e:48:c8:
                    4a:f8:05:c9:c0:1e:0a:91:41:84:66:20:05:03:83:
                    69:6d:cc:f5:80:3f:d7:ad:36:4a:10:61:fa:f6:b1:
                    3f:f2:92:80:c6:f6:23:fe:1d:63:a7:87:f7:01:31:
                    c5:2c:da:72:2a:9a:70:47:af:a8:3a:ba:03:6e:a1:
                    8a:d3
                Exponent: 65537 (0x10001)
        X509v3 extensions:
            X509v3 Basic Constraints: 
                CA:FALSE
            X509v3 Subject Key Identifier: 
                4D:1D:8D:27:04:37:69:2F:D0:BB:46:28:6B:4A:5D:E1:6B:33:EA:9A
            X509v3 Authority Key Identifier: 
                keyid:A0:E4:87:B9:2A:7D:87:E8:C6:E4:B9:2A:D3:29:02:68:22:9B:67:18
                DirName:/CN=team26-net
                serial:3E:4F:CD:E7:54:40:B2:50:B6:1F:03:1E:D7:CB:42:66:00:4A:DC

            X509v3 Extended Key Usage: 
                TLS Web Server Authentication
            X509v3 Key Usage: 
                Digital Signature, Key Encipherment
            X509v3 Subject Alternative Name: 
                DNS:team26-server
    Signature Algorithm: sha256WithRSAEncryption
         36:38:c9:12:9c:12:d0:b0:4f:86:5f:34:e0:74:30:25:cb:3e:
         06:12:0a:05:33:0e:5d:37:e9:6d:d5:c0:89:2b:91:98:1e:50:
         fd:cc:c7:2d:4b:1c:76:2f:9b:9d:76:9c:8b:44:82:1a:64:81:
         86:92:66:f9:7c:e3:f7:32:fe:bc:d5:7b:35:57:ee:1a:19:56:
         26:9f:b7:95:51:d0:14:55:ce:30:2c:36:3d:86:eb:6a:3f:f7:
         38:a3:52:f2:51:e5:76:57:59:19:40:a1:5b:08:21:c1:3e:99:
         ad:2e:30:e3:96:f9:47:03:db:75:0c:a9:d2:87:49:1f:18:af:
         ec:23:72:2f:27:9a:8f:bf:84:ff:6e:f9:50:5f:37:dc:b5:47:
         9a:93:04:fc:8f:ad:2b:6d:88:ba:76:d9:e9:ec:a9:c9:1f:cf:
         39:5f:99:56:cb:d4:19:05:61:c2:ab:83:0f:5f:19:90:18:57:
         f4:b3:a0:51:26:49:ce:bc:a8:46:70:90:eb:f8:51:34:75:f4:
         97:77:58:eb:45:bc:c7:19:37:04:34:a0:6e:0f:ab:84:2c:77:
         02:a8:0f:64:42:04:25:fe:eb:49:44:39:ae:f9:8d:90:a8:d6:
         cb:ca:d0:76:c4:bb:71:02:63:9e:af:35:36:6d:74:fb:d2:87:
         e0:4f:a1:bc
-----BEGIN CERTIFICATE-----
MIIDczCCAlugAwIBAgIRAJpg+CW8jnkF3tUgzn1PLpQwDQYJKoZIhvcNAQELBQAw
FTETMBEGA1UEAwwKdGVhbTI2LW5ldDAeFw0yMTA5MTIyMjU2NDNaFw0yNDA4Mjcy
MjU2NDNaMBgxFjAUBgNVBAMMDXRlYW0yNi1zZXJ2ZXIwggEiMA0GCSqGSIb3DQEB
AQUAA4IBDwAwggEKAoIBAQD3L+FvjgpRF5kFQpeFZVgYUpuRVO1pC3PFesqVCu4d
70bti/MSeaGn0Atlat0Q+GwC60xttrurjet00PnV+P6irg1hwCxV+ppPsldSsiEZ
vEY5916DRKAdeT8uCQMAPynQNsYeILIWKCNfwZ1e/kYvb+TBXDCgcsiVsHCRmWFm
bBXuoG8yzlsIG8rJqjz/1PUBGiEHnqlWXauWdVUpnmQ9NiAb9VLpziXuPcWJqZyN
WgZjZ61Ex+9O439/I72CwE5IyEr4BcnAHgqRQYRmIAUDg2ltzPWAP9etNkoQYfr2
sT/ykoDG9iP+HWOnh/cBMcUs2nIqmnBHr6g6ugNuoYrTAgMBAAGjgbowgbcwCQYD
VR0TBAIwADAdBgNVHQ4EFgQUTR2NJwQ3aS/Qu0Yoa0pd4Wsz6powTwYDVR0jBEgw
RoAUoOSHuSp9h+jG5Lkq0ykCaCKbZxihGaQXMBUxEzARBgNVBAMMCnRlYW0yNi1u
ZXSCEz5PzedUQLJQth8DHtfLQmYAStwwEwYDVR0lBAwwCgYIKwYBBQUHAwEwCwYD
VR0PBAQDAgWgMBgGA1UdEQQRMA+CDXRlYW0yNi1zZXJ2ZXIwDQYJKoZIhvcNAQEL
BQADggEBADY4yRKcEtCwT4ZfNOB0MCXLPgYSCgUzDl036W3VwIkrkZgeUP3Mxy1L
HHYvm512nItEghpkgYaSZvl84/cy/rzVezVX7hoZViaft5VR0BRVzjAsNj2G62o/
9zijUvJR5XZXWRlAoVsIIcE+ma0uMOOW+UcD23UMqdKHSR8Yr+wjci8nmo+/hP9u
+VBfN9y1R5qTBPyPrSttiLp22ensqckfzzlfmVbL1BkFYcKrgw9fGZAYV/SzoFEm
Sc68qEZwkOv4UTR19Jd3WOtFvMcZNwQ0oG4Pq4QsdwKoD2RCBCX+60lEOa75jZCo
1svK0HbEu3ECY56vNTZtdPvSh+BPobw=
-----END CERTIFICATE-----
