Certificate:
    Data:
        Version: 3 (0x2)
        Serial Number:
            a7:e6:3a:e8:1f:e5:d7:fd:4b:f8:4e:3a:df:6e:be:6b
        Signature Algorithm: sha256WithRSAEncryption
        Issuer: CN=team170-net
        Validity
            Not Before: Sep 13 00:23:08 2021 GMT
            Not After : Aug 28 00:23:08 2024 GMT
        Subject: CN=team170-client
        Subject Public Key Info:
            Public Key Algorithm: rsaEncryption
                RSA Public-Key: (2048 bit)
                Modulus:
                    00:dd:05:db:ff:06:14:81:df:9f:9b:58:5b:d7:71:
                    8a:fa:66:7e:11:10:aa:92:af:79:1a:5e:d7:ad:16:
                    80:45:b5:ca:cb:c9:75:30:c0:83:74:e8:4a:10:4a:
                    45:5c:6a:f5:55:d8:f3:a4:43:29:ac:38:7b:4a:aa:
                    45:a9:9f:05:57:c9:8f:85:47:8d:a0:10:62:fe:2e:
                    4e:6e:4c:a3:ba:82:91:21:b0:34:be:04:89:bb:96:
                    68:f4:db:e3:00:4d:b0:dc:4a:8e:0f:7a:ea:b0:5d:
                    31:36:58:ff:02:2e:95:13:24:d2:17:d0:4a:51:7c:
                    8d:fa:f3:77:05:8c:ea:11:42:aa:aa:d6:01:cf:e0:
                    84:22:fe:ec:84:76:3c:24:25:8f:f7:a9:84:80:2b:
                    9b:05:e4:38:31:f9:c3:50:ef:dd:3d:c9:36:6f:1f:
                    c7:9f:1f:4e:c8:2e:be:af:ae:10:3e:63:bb:64:02:
                    ad:f7:0e:b1:63:86:a3:ee:bf:57:01:25:c4:67:e1:
                    af:fe:e8:f1:d3:eb:f3:b8:c3:e0:1b:42:2e:1e:13:
                    42:f8:de:5f:25:78:73:3b:e0:f3:1b:f3:d5:de:3c:
                    1d:9e:80:66:d2:3a:c0:02:a4:48:3d:1e:be:ff:fe:
                    ea:6e:20:0f:60:7f:6e:f1:7d:0d:67:08:d8:8f:8f:
                    28:07
                Exponent: 65537 (0x10001)
        X509v3 extensions:
            X509v3 Basic Constraints: 
                CA:FALSE
            X509v3 Subject Key Identifier: 
                63:F7:2A:89:81:28:DC:21:A7:69:E9:C1:23:40:42:CB:E6:D8:3C:22
            X509v3 Authority Key Identifier: 
                keyid:C2:CD:B1:B6:BB:68:82:6A:BA:1E:D4:91:BB:82:8F:B1:2E:BA:7A:EF
                DirName:/CN=team170-net
                serial:07:2B:DD:79:FB:A6:5F:6B:A4:4D:11:01:C9:96:AC:2E:F2:12:C6:F6

            X509v3 Extended Key Usage: 
                TLS Web Client Authentication
            X509v3 Key Usage: 
                Digital Signature
    Signature Algorithm: sha256WithRSAEncryption
         75:6f:af:18:30:84:64:c8:54:9b:81:36:2b:42:f6:e6:3b:db:
         be:ae:ba:ed:c0:a7:b5:d9:ea:a3:76:90:b3:2e:07:70:b3:7a:
         ba:ef:93:36:2a:b1:91:be:3f:c9:ab:a1:31:65:25:bb:4d:9a:
         5e:38:6c:af:99:0c:41:52:10:6f:7d:d7:d8:3e:eb:b4:f1:e0:
         00:b3:a0:bd:e5:03:78:05:3b:0e:63:36:21:16:ef:02:c9:37:
         ac:70:a4:6e:1c:eb:fe:2b:9b:bd:59:56:24:03:b2:6c:b8:bb:
         08:11:28:25:15:e2:bb:0f:8f:22:cf:36:71:20:f2:83:0d:78:
         6c:78:eb:a9:39:32:04:c2:07:3a:8d:48:18:03:d8:b6:ca:86:
         aa:6b:60:ff:1f:17:c1:ea:c3:c3:50:09:22:2b:1e:3b:b9:a2:
         81:53:1b:13:9c:1b:0d:bf:84:af:a4:1c:b3:6a:95:8b:7d:ac:
         48:a2:c8:98:3f:b6:f6:95:5f:f0:0d:80:3f:ce:20:bb:32:8b:
         a6:a6:88:74:9f:65:05:e8:1e:2d:8e:84:b8:ee:ff:05:ef:03:
         20:ca:85:e8:47:82:f3:16:7f:05:97:c5:b6:1c:0a:ba:10:ed:
         2f:60:c5:25:f3:2d:24:43:51:9a:71:ce:98:6d:67:4b:2d:1c:
         a9:21:cc:2e
-----BEGIN CERTIFICATE-----
MIIDXTCCAkWgAwIBAgIRAKfmOugf5df9S/hOOt9uvmswDQYJKoZIhvcNAQELBQAw
FjEUMBIGA1UEAwwLdGVhbTE3MC1uZXQwHhcNMjEwOTEzMDAyMzA4WhcNMjQwODI4
MDAyMzA4WjAZMRcwFQYDVQQDDA50ZWFtMTcwLWNsaWVudDCCASIwDQYJKoZIhvcN
AQEBBQADggEPADCCAQoCggEBAN0F2/8GFIHfn5tYW9dxivpmfhEQqpKveRpe160W
gEW1ysvJdTDAg3ToShBKRVxq9VXY86RDKaw4e0qqRamfBVfJj4VHjaAQYv4uTm5M
o7qCkSGwNL4EibuWaPTb4wBNsNxKjg966rBdMTZY/wIulRMk0hfQSlF8jfrzdwWM
6hFCqqrWAc/ghCL+7IR2PCQlj/ephIArmwXkODH5w1Dv3T3JNm8fx58fTsguvq+u
ED5ju2QCrfcOsWOGo+6/VwElxGfhr/7o8dPr87jD4BtCLh4TQvjeXyV4czvg8xvz
1d48HZ6AZtI6wAKkSD0evv/+6m4gD2B/bvF9DWcI2I+PKAcCAwEAAaOBojCBnzAJ
BgNVHRMEAjAAMB0GA1UdDgQWBBRj9yqJgSjcIadp6cEjQELL5tg8IjBRBgNVHSME
SjBIgBTCzbG2u2iCaroe1JG7go+xLrp676EapBgwFjEUMBIGA1UEAwwLdGVhbTE3
MC1uZXSCFAcr3Xn7pl9rpE0RAcmWrC7yEsb2MBMGA1UdJQQMMAoGCCsGAQUFBwMC
MAsGA1UdDwQEAwIHgDANBgkqhkiG9w0BAQsFAAOCAQEAdW+vGDCEZMhUm4E2K0L2
5jvbvq667cCntdnqo3aQsy4HcLN6uu+TNiqxkb4/yauhMWUlu02aXjhsr5kMQVIQ
b33X2D7rtPHgALOgveUDeAU7DmM2IRbvAsk3rHCkbhzr/iubvVlWJAOybLi7CBEo
JRXiuw+PIs82cSDygw14bHjrqTkyBMIHOo1IGAPYtsqGqmtg/x8XwerDw1AJIise
O7migVMbE5wbDb+Er6Qcs2qVi32sSKLImD+29pVf8A2AP84guzKLpqaIdJ9lBege
LY6EuO7/Be8DIMqF6EeC8xZ/BZfFthwKuhDtL2DFJfMtJENRmnHOmG1nSy0cqSHM
Lg==
-----END CERTIFICATE-----
