Certificate:
    Data:
        Version: 3 (0x2)
        Serial Number:
            8e:ec:8b:db:a8:d7:78:bb:86:64:57:9f:d9:be:00:bd
        Signature Algorithm: sha256WithRSAEncryption
        Issuer: CN=team166-net
        Validity
            Not Before: Sep 13 00:12:46 2021 GMT
            Not After : Aug 28 00:12:46 2024 GMT
        Subject: CN=team166-server
        Subject Public Key Info:
            Public Key Algorithm: rsaEncryption
                RSA Public-Key: (2048 bit)
                Modulus:
                    00:ea:0f:e1:45:e2:be:d8:c9:6d:50:3a:51:5f:0a:
                    1e:5f:5a:71:72:8e:35:f7:76:6c:44:ab:6e:eb:7a:
                    16:d9:40:76:e4:7f:f5:70:42:24:dc:35:99:96:86:
                    b4:96:7c:b1:07:ce:2e:b6:45:de:71:45:5d:db:bf:
                    a0:66:4a:d9:20:4b:07:a4:f1:c8:9a:7c:d2:df:bb:
                    92:65:88:98:a1:7b:11:1b:33:46:8c:af:65:5f:bd:
                    48:d1:a0:be:89:50:3c:14:2d:e1:77:42:93:45:49:
                    25:f1:42:b0:a7:79:e0:46:43:bc:0a:81:3c:bf:b2:
                    7d:5d:ba:ac:10:e9:45:93:36:48:45:58:7d:09:c0:
                    ab:fd:6f:37:d7:df:cb:92:b6:96:74:c0:ba:66:23:
                    69:d1:2f:0c:98:46:55:2d:88:f7:fe:7a:0b:31:10:
                    a6:48:67:3e:79:3b:f8:3b:3b:a6:5d:b8:81:56:67:
                    39:d0:5d:69:14:55:89:57:7f:b7:bf:4f:9f:2f:d5:
                    25:9a:27:66:32:83:3e:5b:10:e7:95:eb:ce:92:d9:
                    5d:5b:a5:e1:5d:e9:03:61:89:7d:6a:71:0f:17:da:
                    b1:01:5d:7d:bb:9f:4b:34:3e:4f:d9:78:de:fa:22:
                    ad:15:43:6e:64:ec:a8:be:92:fe:5c:ab:c5:25:5a:
                    ec:6d
                Exponent: 65537 (0x10001)
        X509v3 extensions:
            X509v3 Basic Constraints: 
                CA:FALSE
            X509v3 Subject Key Identifier: 
                FF:D9:EA:A7:F1:E5:26:BF:17:5F:31:DE:17:E9:D7:2D:DA:3F:D5:27
            X509v3 Authority Key Identifier: 
                keyid:A8:52:C0:EF:85:3B:8C:7E:F0:CF:87:60:C4:62:5C:AB:26:56:F5:03
                DirName:/CN=team166-net
                serial:66:A1:20:5A:8D:83:78:D3:B3:6C:32:52:42:4E:D6:F6:A8:63:13:6E

            X509v3 Extended Key Usage: 
                TLS Web Server Authentication
            X509v3 Key Usage: 
                Digital Signature, Key Encipherment
            X509v3 Subject Alternative Name: 
                DNS:team166-server
    Signature Algorithm: sha256WithRSAEncryption
         6a:70:84:ba:6e:22:a4:c2:cc:a9:17:85:10:0c:7d:f0:d2:c4:
         19:22:02:b7:de:ad:6b:b5:e6:5a:89:6a:d6:db:5b:fb:3a:4f:
         d8:97:cb:d8:ab:8c:ea:5a:d2:57:27:ce:7c:ad:e5:2e:9e:43:
         f3:f0:91:e3:4c:24:66:01:e6:14:a5:2a:dd:8b:be:96:d7:9b:
         a9:e6:96:90:9d:9e:42:d8:3b:16:ec:15:64:89:7a:a4:f0:8a:
         58:75:4a:05:1e:69:24:99:a8:63:49:59:b8:c3:25:25:b5:2d:
         7c:68:40:52:56:ec:33:14:f7:74:6c:b0:ae:83:85:87:0e:0d:
         b9:5f:ef:2f:93:99:24:72:6a:e5:75:3b:26:1e:4b:02:2a:22:
         e3:66:e0:0c:e5:ef:42:a0:2e:4c:bc:33:13:a5:95:da:e9:0e:
         ff:60:e1:b6:c2:08:ae:41:71:d8:c9:31:fc:3d:34:67:49:9f:
         9f:f1:7f:9b:0d:43:1c:56:cf:47:c2:81:4e:1d:32:65:5a:01:
         ce:8c:cc:86:33:17:9b:be:d5:bd:a7:06:a5:21:06:ea:db:5e:
         46:89:8f:55:55:bb:42:ef:7f:ab:72:a4:13:1d:86:e0:f3:bf:
         57:92:c8:36:d4:d4:72:b4:ee:0d:7b:f1:f4:1d:9b:e1:2d:28:
         cc:a2:66:2e
-----BEGIN CERTIFICATE-----
MIIDeDCCAmCgAwIBAgIRAI7si9uo13i7hmRXn9m+AL0wDQYJKoZIhvcNAQELBQAw
FjEUMBIGA1UEAwwLdGVhbTE2Ni1uZXQwHhcNMjEwOTEzMDAxMjQ2WhcNMjQwODI4
MDAxMjQ2WjAZMRcwFQYDVQQDDA50ZWFtMTY2LXNlcnZlcjCCASIwDQYJKoZIhvcN
AQEBBQADggEPADCCAQoCggEBAOoP4UXivtjJbVA6UV8KHl9acXKONfd2bESrbut6
FtlAduR/9XBCJNw1mZaGtJZ8sQfOLrZF3nFFXdu/oGZK2SBLB6TxyJp80t+7kmWI
mKF7ERszRoyvZV+9SNGgvolQPBQt4XdCk0VJJfFCsKd54EZDvAqBPL+yfV26rBDp
RZM2SEVYfQnAq/1vN9ffy5K2lnTAumYjadEvDJhGVS2I9/56CzEQpkhnPnk7+Ds7
pl24gVZnOdBdaRRViVd/t79Pny/VJZonZjKDPlsQ55XrzpLZXVul4V3pA2GJfWpx
DxfasQFdfbufSzQ+T9l43voirRVDbmTsqL6S/lyrxSVa7G0CAwEAAaOBvTCBujAJ
BgNVHRMEAjAAMB0GA1UdDgQWBBT/2eqn8eUmvxdfMd4X6dct2j/VJzBRBgNVHSME
SjBIgBSoUsDvhTuMfvDPh2DEYlyrJlb1A6EapBgwFjEUMBIGA1UEAwwLdGVhbTE2
Ni1uZXSCFGahIFqNg3jTs2wyUkJO1vaoYxNuMBMGA1UdJQQMMAoGCCsGAQUFBwMB
MAsGA1UdDwQEAwIFoDAZBgNVHREEEjAQgg50ZWFtMTY2LXNlcnZlcjANBgkqhkiG
9w0BAQsFAAOCAQEAanCEum4ipMLMqReFEAx98NLEGSICt96ta7XmWolq1ttb+zpP
2JfL2KuM6lrSVyfOfK3lLp5D8/CR40wkZgHmFKUq3Yu+ltebqeaWkJ2eQtg7FuwV
ZIl6pPCKWHVKBR5pJJmoY0lZuMMlJbUtfGhAUlbsMxT3dGywroOFhw4NuV/vL5OZ
JHJq5XU7Jh5LAioi42bgDOXvQqAuTLwzE6WV2ukO/2DhtsIIrkFx2Mkx/D00Z0mf
n/F/mw1DHFbPR8KBTh0yZVoBzozMhjMXm77VvacGpSEG6tteRomPVVW7Qu9/q3Kk
Ex2G4PO/V5LINtTUcrTuDXvx9B2b4S0ozKJmLg==
-----END CERTIFICATE-----
