Certificate:
    Data:
        Version: 3 (0x2)
        Serial Number:
            3d:87:51:f2:47:ff:dd:67:2d:26:39:2e:c4:2b:94:77
        Signature Algorithm: sha256WithRSAEncryption
        Issuer: CN=team289-net
        Validity
            Not Before: Sep 13 01:22:48 2021 GMT
            Not After : Aug 28 01:22:48 2024 GMT
        Subject: CN=team289-server
        Subject Public Key Info:
            Public Key Algorithm: rsaEncryption
                RSA Public-Key: (2048 bit)
                Modulus:
                    00:d1:12:a3:67:10:46:f7:54:ae:8f:00:f1:fa:ad:
                    de:1a:13:61:0d:39:2f:3f:d5:68:f3:b9:7f:a3:19:
                    0a:15:62:9b:eb:71:06:4b:55:78:9c:d8:cb:61:22:
                    ba:e6:ad:9a:f4:d2:ce:66:b3:01:b8:31:da:c1:0f:
                    14:22:94:e8:0a:d3:25:74:11:11:ca:ea:48:a0:1c:
                    43:f4:78:8e:9d:f1:32:3c:cf:7f:88:0c:bd:89:e5:
                    60:16:68:c1:8d:db:46:b5:1f:f9:98:38:b2:30:7b:
                    fc:de:21:1b:20:d4:be:1d:a2:ec:c5:2f:7a:38:8a:
                    14:c3:74:44:2e:16:b7:76:24:17:f3:46:47:57:d7:
                    ef:c4:2e:5e:1d:49:2f:25:a8:38:b6:66:96:43:32:
                    d4:00:23:ee:66:46:82:54:6f:7a:28:1b:20:b9:e1:
                    24:2d:71:cc:23:17:96:31:c7:3c:6f:3a:95:fa:e6:
                    e3:4d:86:99:8f:3a:71:92:02:87:0d:bd:d3:a0:43:
                    d8:5f:8e:80:50:30:5d:5b:56:dd:14:bd:ac:82:e9:
                    78:01:5c:32:13:79:7c:0f:e8:86:d8:ae:8a:de:bd:
                    78:34:f3:ab:86:39:c8:8e:5b:d7:dd:9c:94:20:e5:
                    6c:1b:c0:76:38:d5:58:dc:32:97:58:1f:c1:74:a2:
                    b4:cd
                Exponent: 65537 (0x10001)
        X509v3 extensions:
            X509v3 Basic Constraints: 
                CA:FALSE
            X509v3 Subject Key Identifier: 
                30:21:10:53:18:DE:33:C9:1A:CA:24:E0:88:9A:53:77:97:EB:42:B0
            X509v3 Authority Key Identifier: 
                keyid:B6:BE:EC:E6:03:AA:6E:4C:56:EF:27:0D:69:1C:EF:A0:16:CC:C6:C9
                DirName:/CN=team289-net
                serial:50:00:B6:14:D0:F2:57:FE:DB:92:4E:85:E4:07:9C:65:A7:1F:61:FE

            X509v3 Extended Key Usage: 
                TLS Web Server Authentication
            X509v3 Key Usage: 
                Digital Signature, Key Encipherment
            X509v3 Subject Alternative Name: 
                DNS:team289-server
    Signature Algorithm: sha256WithRSAEncryption
         b7:b3:eb:6b:c6:87:de:65:d2:77:9b:af:f5:59:24:ea:50:62:
         d0:c6:8e:2a:e5:a3:be:06:d1:da:cd:2e:76:c5:0c:06:7c:48:
         04:8f:98:04:1a:e3:f4:93:c9:18:2d:1f:50:f2:b9:06:13:44:
         37:6b:14:8a:c2:e9:40:a8:a8:0b:44:5c:a2:27:ce:6d:22:cf:
         00:70:bb:2d:99:31:a5:94:44:70:df:c5:23:f9:bb:98:ee:39:
         71:96:02:91:27:45:cc:46:8f:4c:5c:a5:d6:50:49:91:94:77:
         36:69:49:01:7b:dd:96:f3:0e:06:cd:20:57:00:68:c7:65:17:
         c2:5d:08:e6:1b:eb:04:db:ab:a4:65:77:00:3e:70:4a:6b:44:
         b3:8d:f6:69:3e:54:5a:c6:19:3e:ba:08:cd:54:97:91:ae:03:
         d6:a7:ca:0e:e6:3c:77:6f:50:54:71:79:24:e3:ab:67:54:f8:
         d1:c5:46:f4:ca:84:34:ca:81:c5:42:43:68:68:21:32:a4:73:
         c7:e5:f6:71:12:92:25:c3:a7:df:52:1c:6f:36:17:45:71:3a:
         50:c7:0f:41:62:9b:18:7d:57:4b:4c:d9:f5:56:6c:8f:3f:8c:
         f1:cd:e4:e9:bc:97:0c:10:1c:9e:0d:d6:8f:fb:68:15:9b:c9:
         31:e7:1a:85
-----BEGIN CERTIFICATE-----
MIIDdzCCAl+gAwIBAgIQPYdR8kf/3WctJjkuxCuUdzANBgkqhkiG9w0BAQsFADAW
MRQwEgYDVQQDDAt0ZWFtMjg5LW5ldDAeFw0yMTA5MTMwMTIyNDhaFw0yNDA4Mjgw
MTIyNDhaMBkxFzAVBgNVBAMMDnRlYW0yODktc2VydmVyMIIBIjANBgkqhkiG9w0B
AQEFAAOCAQ8AMIIBCgKCAQEA0RKjZxBG91SujwDx+q3eGhNhDTkvP9Vo87l/oxkK
FWKb63EGS1V4nNjLYSK65q2a9NLOZrMBuDHawQ8UIpToCtMldBERyupIoBxD9HiO
nfEyPM9/iAy9ieVgFmjBjdtGtR/5mDiyMHv83iEbINS+HaLsxS96OIoUw3RELha3
diQX80ZHV9fvxC5eHUkvJag4tmaWQzLUACPuZkaCVG96KBsgueEkLXHMIxeWMcc8
bzqV+ubjTYaZjzpxkgKHDb3ToEPYX46AUDBdW1bdFL2sgul4AVwyE3l8D+iG2K6K
3r14NPOrhjnIjlvX3ZyUIOVsG8B2ONVY3DKXWB/BdKK0zQIDAQABo4G9MIG6MAkG
A1UdEwQCMAAwHQYDVR0OBBYEFDAhEFMY3jPJGsok4IiaU3eX60KwMFEGA1UdIwRK
MEiAFLa+7OYDqm5MVu8nDWkc76AWzMbJoRqkGDAWMRQwEgYDVQQDDAt0ZWFtMjg5
LW5ldIIUUAC2FNDyV/7bkk6F5AecZacfYf4wEwYDVR0lBAwwCgYIKwYBBQUHAwEw
CwYDVR0PBAQDAgWgMBkGA1UdEQQSMBCCDnRlYW0yODktc2VydmVyMA0GCSqGSIb3
DQEBCwUAA4IBAQC3s+trxofeZdJ3m6/1WSTqUGLQxo4q5aO+BtHazS52xQwGfEgE
j5gEGuP0k8kYLR9Q8rkGE0Q3axSKwulAqKgLRFyiJ85tIs8AcLstmTGllERw38Uj
+buY7jlxlgKRJ0XMRo9MXKXWUEmRlHc2aUkBe92W8w4GzSBXAGjHZRfCXQjmG+sE
26ukZXcAPnBKa0SzjfZpPlRaxhk+ugjNVJeRrgPWp8oO5jx3b1BUcXkk46tnVPjR
xUb0yoQ0yoHFQkNoaCEypHPH5fZxEpIlw6ffUhxvNhdFcTpQxw9BYpsYfVdLTNn1
VmyPP4zxzeTpvJcMEByeDdaP+2gVm8kx5xqF
-----END CERTIFICATE-----
