Certificate:
    Data:
        Version: 3 (0x2)
        Serial Number:
            6e:bf:71:5d:41:2f:53:9d:11:6a:69:5d:14:bb:3d:fc
        Signature Algorithm: sha256WithRSAEncryption
        Issuer: CN=team289-net
        Validity
            Not Before: Sep 13 01:22:48 2021 GMT
            Not After : Aug 28 01:22:48 2024 GMT
        Subject: CN=team289-client
        Subject Public Key Info:
            Public Key Algorithm: rsaEncryption
                RSA Public-Key: (2048 bit)
                Modulus:
                    00:d2:2e:28:87:d5:3e:08:78:d3:c8:51:6c:71:4e:
                    3a:2d:51:28:89:b8:fd:bc:86:26:7a:92:0a:d2:b4:
                    d3:6d:9a:49:54:de:2c:4c:69:22:6a:e6:a9:76:24:
                    f1:3b:f6:ec:08:00:7d:f1:dc:b8:45:81:e4:f5:b0:
                    93:b1:2b:b4:6a:45:ca:3e:b5:2a:a0:24:a2:28:9c:
                    62:35:bb:6f:0a:88:ea:ab:98:70:00:02:89:e0:34:
                    18:28:13:98:97:1f:19:b1:37:fd:a0:8c:5d:47:77:
                    fe:a0:d1:a1:de:53:c2:e8:35:89:ba:cd:d7:f1:2a:
                    60:55:e1:bb:31:3c:eb:a6:b0:bf:f5:1f:93:6f:4a:
                    98:7a:58:aa:df:c1:96:df:66:f2:16:88:41:c2:6f:
                    2c:4d:28:0d:72:15:9a:01:e3:c8:17:c3:b8:98:91:
                    98:81:20:e9:02:96:b8:4e:07:74:57:d2:1a:44:57:
                    83:8c:d2:6b:19:37:33:91:c6:42:a5:84:53:71:31:
                    bc:38:82:e1:74:07:80:b2:a4:d7:5c:ea:db:0c:28:
                    06:b7:75:8e:b6:48:03:cd:ff:3b:08:47:9f:73:8c:
                    72:51:dd:f3:01:6d:02:f8:60:d8:13:8e:81:33:d9:
                    1e:db:d0:2b:f7:28:30:de:d4:5d:5d:96:05:16:e6:
                    10:fd
                Exponent: 65537 (0x10001)
        X509v3 extensions:
            X509v3 Basic Constraints: 
                CA:FALSE
            X509v3 Subject Key Identifier: 
                36:6A:CF:D3:64:65:87:72:F6:87:2C:BE:7F:72:67:09:38:A2:B0:91
            X509v3 Authority Key Identifier: 
                keyid:B6:BE:EC:E6:03:AA:6E:4C:56:EF:27:0D:69:1C:EF:A0:16:CC:C6:C9
                DirName:/CN=team289-net
                serial:50:00:B6:14:D0:F2:57:FE:DB:92:4E:85:E4:07:9C:65:A7:1F:61:FE

            X509v3 Extended Key Usage: 
                TLS Web Client Authentication
            X509v3 Key Usage: 
                Digital Signature
    Signature Algorithm: sha256WithRSAEncryption
         1c:59:8c:e2:52:6c:ab:8f:9c:51:2c:36:14:ca:03:b1:70:bf:
         25:c5:96:48:e3:06:1d:fb:6c:ff:ff:a9:db:67:bb:41:65:3a:
         19:a9:39:8b:db:bf:aa:f8:60:99:17:c3:e9:16:82:39:64:84:
         df:04:87:b0:ad:95:d2:11:f0:36:e2:4e:c1:45:f4:e3:fa:49:
         a3:09:30:1b:a8:09:70:5c:23:4b:31:04:b6:59:41:e2:4c:1b:
         b4:41:93:2d:76:f8:3c:df:d5:76:d5:2b:24:13:4b:5a:5d:56:
         ab:67:d8:98:76:d2:56:19:56:68:3d:c0:f3:3b:73:ce:f9:74:
         32:5d:7f:82:b9:2c:4d:59:44:27:5f:ab:e9:d2:17:03:ad:c5:
         c1:d9:b0:78:0f:f3:f5:33:8f:46:2f:9c:38:7b:7b:f6:a5:6d:
         94:35:80:15:43:3e:f0:ab:05:63:e4:f5:1c:a3:df:34:2d:fb:
         04:01:4c:80:73:85:ed:e5:fd:1d:49:ca:84:b0:b1:c6:72:a7:
         03:dc:cc:aa:cc:52:e1:35:0f:54:d1:39:c3:af:c9:61:fb:53:
         ae:28:b2:ad:87:31:eb:88:f5:06:00:ae:d5:81:cd:6a:9d:2f:
         d3:22:6a:a6:e2:8b:2d:e9:e3:48:b7:97:87:70:57:49:fd:00:
         0b:27:f5:a9
-----BEGIN CERTIFICATE-----
MIIDXDCCAkSgAwIBAgIQbr9xXUEvU50RamldFLs9/DANBgkqhkiG9w0BAQsFADAW
MRQwEgYDVQQDDAt0ZWFtMjg5LW5ldDAeFw0yMTA5MTMwMTIyNDhaFw0yNDA4Mjgw
MTIyNDhaMBkxFzAVBgNVBAMMDnRlYW0yODktY2xpZW50MIIBIjANBgkqhkiG9w0B
AQEFAAOCAQ8AMIIBCgKCAQEA0i4oh9U+CHjTyFFscU46LVEoibj9vIYmepIK0rTT
bZpJVN4sTGkiauapdiTxO/bsCAB98dy4RYHk9bCTsSu0akXKPrUqoCSiKJxiNbtv
Cojqq5hwAAKJ4DQYKBOYlx8ZsTf9oIxdR3f+oNGh3lPC6DWJus3X8SpgVeG7MTzr
prC/9R+Tb0qYeliq38GW32byFohBwm8sTSgNchWaAePIF8O4mJGYgSDpApa4Tgd0
V9IaRFeDjNJrGTczkcZCpYRTcTG8OILhdAeAsqTXXOrbDCgGt3WOtkgDzf87CEef
c4xyUd3zAW0C+GDYE46BM9ke29Ar9ygw3tRdXZYFFuYQ/QIDAQABo4GiMIGfMAkG
A1UdEwQCMAAwHQYDVR0OBBYEFDZqz9NkZYdy9ocsvn9yZwk4orCRMFEGA1UdIwRK
MEiAFLa+7OYDqm5MVu8nDWkc76AWzMbJoRqkGDAWMRQwEgYDVQQDDAt0ZWFtMjg5
LW5ldIIUUAC2FNDyV/7bkk6F5AecZacfYf4wEwYDVR0lBAwwCgYIKwYBBQUHAwIw
CwYDVR0PBAQDAgeAMA0GCSqGSIb3DQEBCwUAA4IBAQAcWYziUmyrj5xRLDYUygOx
cL8lxZZI4wYd+2z//6nbZ7tBZToZqTmL27+q+GCZF8PpFoI5ZITfBIewrZXSEfA2
4k7BRfTj+kmjCTAbqAlwXCNLMQS2WUHiTBu0QZMtdvg839V21SskE0taXVarZ9iY
dtJWGVZoPcDzO3PO+XQyXX+CuSxNWUQnX6vp0hcDrcXB2bB4D/P1M49GL5w4e3v2
pW2UNYAVQz7wqwVj5PUco980LfsEAUyAc4Xt5f0dScqEsLHGcqcD3MyqzFLhNQ9U
0TnDr8lh+1OuKLKthzHriPUGAK7Vgc1qnS/TImqm4ost6eNIt5eHcFdJ/QALJ/Wp
-----END CERTIFICATE-----
