Certificate:
    Data:
        Version: 3 (0x2)
        Serial Number:
            3a:b4:70:c8:82:b3:28:70:6c:3b:64:29:5f:8f:db:1c
        Signature Algorithm: sha256WithRSAEncryption
        Issuer: CN=team681-net
        Validity
            Not Before: Sep 13 05:08:46 2021 GMT
            Not After : Aug 28 05:08:46 2024 GMT
        Subject: CN=team681-server
        Subject Public Key Info:
            Public Key Algorithm: rsaEncryption
                RSA Public-Key: (2048 bit)
                Modulus:
                    00:a9:06:33:59:23:56:32:99:ac:11:fe:7d:5f:e3:
                    5e:37:76:8e:39:a1:7b:6d:20:4d:fa:fb:e5:88:1a:
                    6d:2a:a1:79:22:e4:c6:c6:7c:75:2b:a2:2e:e0:a2:
                    3f:75:a0:9b:de:2b:27:f5:0d:c9:58:66:57:5d:60:
                    42:fc:05:9a:66:94:86:ae:5a:db:af:40:33:60:41:
                    5b:ee:68:00:3d:84:10:a2:99:a4:90:cf:46:a2:20:
                    60:7a:9c:67:91:a9:a4:d9:ec:70:f2:46:c4:56:95:
                    78:bb:b5:fb:ed:05:6d:8c:83:cc:3f:8f:6f:46:a0:
                    0e:34:f2:84:a2:60:af:07:65:2c:a3:f0:ff:38:af:
                    0c:11:2b:4a:a8:cf:04:84:e6:7d:8c:7a:16:05:68:
                    e1:a7:93:9a:cb:fa:06:65:02:7e:07:46:d5:c8:da:
                    80:88:9d:d0:ea:ea:4a:4a:6f:04:bd:53:51:af:a6:
                    6a:ee:99:ab:9e:a5:62:de:9a:8b:35:82:b8:d8:92:
                    6b:36:d4:85:85:42:9e:49:d7:d8:51:36:fd:5a:2d:
                    f2:ac:f4:33:e2:b6:3b:21:dd:ad:c2:19:f8:4b:7f:
                    c0:03:bf:34:c8:bd:30:32:ee:21:84:9c:0b:85:87:
                    d5:c0:d4:ac:6f:86:7a:27:65:a3:b0:68:b3:7c:db:
                    86:03
                Exponent: 65537 (0x10001)
        X509v3 extensions:
            X509v3 Basic Constraints: 
                CA:FALSE
            X509v3 Subject Key Identifier: 
                69:99:52:5F:6C:60:CD:BC:DC:12:2A:44:B2:22:77:CF:BE:E4:67:11
            X509v3 Authority Key Identifier: 
                keyid:38:F6:3B:D9:6C:89:6F:A0:91:21:D2:B9:75:7E:7E:3F:33:EC:AC:AF
                DirName:/CN=team681-net
                serial:05:7C:2A:7F:A1:2E:A1:1F:78:9B:8A:3D:5A:EE:39:DC:C4:9A:68:41

            X509v3 Extended Key Usage: 
                TLS Web Server Authentication
            X509v3 Key Usage: 
                Digital Signature, Key Encipherment
            X509v3 Subject Alternative Name: 
                DNS:team681-server
    Signature Algorithm: sha256WithRSAEncryption
         e6:79:be:31:94:c7:15:3d:96:10:8f:08:13:d4:81:94:29:05:
         6b:60:52:be:c6:03:53:ab:d7:26:f8:b9:c1:e6:87:cf:6e:a6:
         39:28:02:f8:37:83:d4:d3:0d:81:aa:49:ab:db:db:51:77:6c:
         0d:02:01:bf:b3:b7:1c:27:a5:e5:b1:07:86:46:08:28:28:ed:
         40:ee:f5:90:20:09:25:d3:c5:d8:f6:91:b6:b9:87:e6:a9:d5:
         d9:39:dc:d2:88:64:97:33:c8:ee:48:2f:0b:e5:2d:68:37:e0:
         0e:0a:0f:8c:b3:ce:d9:79:c4:99:d8:13:80:2a:b6:15:43:0d:
         07:4e:0c:45:2b:8d:d6:2d:93:db:71:9e:0f:8f:9f:12:11:86:
         84:ce:6a:4a:83:06:e3:48:20:41:1f:51:34:9e:46:98:3d:9d:
         5a:33:4c:4e:33:84:12:31:14:8b:4b:c5:ed:79:4c:6d:f2:88:
         ba:56:b2:54:55:b6:0e:0d:36:30:b5:32:8b:67:ff:ac:f0:7d:
         a4:9c:5d:b2:15:62:d7:c7:68:81:be:47:bd:b7:3b:18:00:a6:
         18:0a:8f:45:f1:9c:09:9a:53:2f:31:85:f2:9c:47:cf:93:d9:
         f1:dc:fe:69:64:89:96:38:58:9b:2f:1d:7b:62:e8:f1:3c:f4:
         85:a9:98:88
-----BEGIN CERTIFICATE-----
MIIDdzCCAl+gAwIBAgIQOrRwyIKzKHBsO2QpX4/bHDANBgkqhkiG9w0BAQsFADAW
MRQwEgYDVQQDDAt0ZWFtNjgxLW5ldDAeFw0yMTA5MTMwNTA4NDZaFw0yNDA4Mjgw
NTA4NDZaMBkxFzAVBgNVBAMMDnRlYW02ODEtc2VydmVyMIIBIjANBgkqhkiG9w0B
AQEFAAOCAQ8AMIIBCgKCAQEAqQYzWSNWMpmsEf59X+NeN3aOOaF7bSBN+vvliBpt
KqF5IuTGxnx1K6Iu4KI/daCb3isn9Q3JWGZXXWBC/AWaZpSGrlrbr0AzYEFb7mgA
PYQQopmkkM9GoiBgepxnkamk2exw8kbEVpV4u7X77QVtjIPMP49vRqAONPKEomCv
B2Uso/D/OK8MEStKqM8EhOZ9jHoWBWjhp5Oay/oGZQJ+B0bVyNqAiJ3Q6upKSm8E
vVNRr6Zq7pmrnqVi3pqLNYK42JJrNtSFhUKeSdfYUTb9Wi3yrPQz4rY7Id2twhn4
S3/AA780yL0wMu4hhJwLhYfVwNSsb4Z6J2WjsGizfNuGAwIDAQABo4G9MIG6MAkG
A1UdEwQCMAAwHQYDVR0OBBYEFGmZUl9sYM283BIqRLIid8++5GcRMFEGA1UdIwRK
MEiAFDj2O9lsiW+gkSHSuXV+fj8z7KyvoRqkGDAWMRQwEgYDVQQDDAt0ZWFtNjgx
LW5ldIIUBXwqf6EuoR94m4o9Wu453MSaaEEwEwYDVR0lBAwwCgYIKwYBBQUHAwEw
CwYDVR0PBAQDAgWgMBkGA1UdEQQSMBCCDnRlYW02ODEtc2VydmVyMA0GCSqGSIb3
DQEBCwUAA4IBAQDmeb4xlMcVPZYQjwgT1IGUKQVrYFK+xgNTq9cm+LnB5ofPbqY5
KAL4N4PU0w2Bqkmr29tRd2wNAgG/s7ccJ6XlsQeGRggoKO1A7vWQIAkl08XY9pG2
uYfmqdXZOdzSiGSXM8juSC8L5S1oN+AOCg+Ms87ZecSZ2BOAKrYVQw0HTgxFK43W
LZPbcZ4Pj58SEYaEzmpKgwbjSCBBH1E0nkaYPZ1aM0xOM4QSMRSLS8XteUxt8oi6
VrJUVbYODTYwtTKLZ/+s8H2knF2yFWLXx2iBvke9tzsYAKYYCo9F8ZwJmlMvMYXy
nEfPk9nx3P5pZImWOFibLx17YujxPPSFqZiI
-----END CERTIFICATE-----
