Certificate:
    Data:
        Version: 3 (0x2)
        Serial Number:
            58:d5:74:a8:74:f4:8c:a5:b9:c9:9d:da:78:d1:c0:d5
        Signature Algorithm: sha256WithRSAEncryption
        Issuer: CN=team681-net
        Validity
            Not Before: Sep 13 05:08:46 2021 GMT
            Not After : Aug 28 05:08:46 2024 GMT
        Subject: CN=team681-client
        Subject Public Key Info:
            Public Key Algorithm: rsaEncryption
                RSA Public-Key: (2048 bit)
                Modulus:
                    00:ca:bf:d0:f4:78:b2:de:74:2c:2b:8a:d8:71:13:
                    a1:b9:dd:36:a6:f1:c0:c7:d9:cf:31:1c:ab:43:b1:
                    7b:be:43:bd:33:e0:e3:5e:c2:eb:d6:37:8b:f7:a6:
                    f4:e6:0f:4d:99:db:ac:5b:0e:b4:8d:fa:20:57:36:
                    81:11:43:f7:ab:40:4c:04:76:db:e4:44:be:17:51:
                    88:81:fa:e3:44:3a:ee:ec:49:66:9e:a6:30:6e:d8:
                    7e:b4:74:d9:de:46:93:5f:c0:f3:7a:a3:4b:ae:06:
                    eb:e4:4c:25:28:85:f4:0a:21:36:cc:9b:22:c0:86:
                    f8:89:52:ca:32:95:92:b0:a0:72:49:7c:6c:2d:cb:
                    b3:88:3c:6c:39:e0:a1:84:f6:d4:d1:dd:ae:10:14:
                    7f:6f:7d:05:ca:4a:05:fd:77:c3:fb:9a:55:c2:ad:
                    62:ce:93:45:35:3f:82:0e:66:d8:6b:96:b6:38:ff:
                    ac:6c:9a:74:dd:32:59:b8:ba:4e:df:d6:a1:70:a5:
                    d2:ee:07:57:f2:d7:77:3a:cc:d4:79:50:3b:86:ec:
                    ed:38:06:53:ef:d9:a2:da:da:6b:a8:be:b7:db:91:
                    85:43:ab:15:5b:13:c7:09:88:6b:da:ba:64:a4:d8:
                    3b:21:3a:aa:91:11:73:f3:b3:02:ba:7e:b2:71:e1:
                    7e:bf
                Exponent: 65537 (0x10001)
        X509v3 extensions:
            X509v3 Basic Constraints: 
                CA:FALSE
            X509v3 Subject Key Identifier: 
                93:44:29:E0:E7:BB:5D:9E:F3:8D:00:6E:09:09:06:6A:E4:9C:8E:3E
            X509v3 Authority Key Identifier: 
                keyid:38:F6:3B:D9:6C:89:6F:A0:91:21:D2:B9:75:7E:7E:3F:33:EC:AC:AF
                DirName:/CN=team681-net
                serial:05:7C:2A:7F:A1:2E:A1:1F:78:9B:8A:3D:5A:EE:39:DC:C4:9A:68:41

            X509v3 Extended Key Usage: 
                TLS Web Client Authentication
            X509v3 Key Usage: 
                Digital Signature
    Signature Algorithm: sha256WithRSAEncryption
         11:13:59:ce:4a:90:83:a7:5c:c8:ab:bd:28:07:2c:a0:ba:13:
         a5:ef:18:6a:51:9c:58:41:37:a9:64:84:3a:77:ab:47:4d:00:
         a8:a8:08:62:ef:e0:45:a3:d3:9e:12:de:ac:6a:df:59:85:23:
         4f:83:e7:e1:33:3b:cc:19:d3:96:6b:1e:7e:09:80:f2:a8:f4:
         10:25:eb:64:87:92:4a:6e:d8:98:7b:cb:91:cd:1c:76:c0:50:
         b0:61:89:1b:ce:8c:c1:43:2e:a1:79:07:a9:37:4b:f5:04:05:
         9f:bc:c2:54:79:7c:b0:47:21:61:56:a9:7e:94:3a:00:97:86:
         de:50:79:fb:7d:94:c3:1a:27:86:89:f1:61:98:67:69:4d:5e:
         15:00:c6:c5:50:9d:54:80:34:2e:5c:c0:f3:9e:7d:4c:f2:da:
         00:7e:c6:1b:69:40:9c:c5:90:75:fb:69:6f:00:c3:08:b5:d6:
         d7:15:9a:ad:b0:a9:3b:93:76:c3:ca:4a:89:a0:a5:59:7e:a2:
         1a:57:4d:2f:02:2a:0d:1b:6f:44:58:98:92:0c:e7:b4:56:27:
         9a:8e:2f:bf:75:51:f5:17:9e:1b:d1:80:cf:f2:ad:eb:98:7c:
         8c:ce:e0:8d:cc:60:be:ff:e2:6a:77:8e:e6:db:01:e5:38:5f:
         ae:05:b3:07
-----BEGIN CERTIFICATE-----
MIIDXDCCAkSgAwIBAgIQWNV0qHT0jKW5yZ3aeNHA1TANBgkqhkiG9w0BAQsFADAW
MRQwEgYDVQQDDAt0ZWFtNjgxLW5ldDAeFw0yMTA5MTMwNTA4NDZaFw0yNDA4Mjgw
NTA4NDZaMBkxFzAVBgNVBAMMDnRlYW02ODEtY2xpZW50MIIBIjANBgkqhkiG9w0B
AQEFAAOCAQ8AMIIBCgKCAQEAyr/Q9Hiy3nQsK4rYcROhud02pvHAx9nPMRyrQ7F7
vkO9M+DjXsLr1jeL96b05g9NmdusWw60jfogVzaBEUP3q0BMBHbb5ES+F1GIgfrj
RDru7ElmnqYwbth+tHTZ3kaTX8DzeqNLrgbr5EwlKIX0CiE2zJsiwIb4iVLKMpWS
sKBySXxsLcuziDxsOeChhPbU0d2uEBR/b30FykoF/XfD+5pVwq1izpNFNT+CDmbY
a5a2OP+sbJp03TJZuLpO39ahcKXS7gdX8td3OszUeVA7huztOAZT79mi2tprqL63
25GFQ6sVWxPHCYhr2rpkpNg7ITqqkRFz87MCun6yceF+vwIDAQABo4GiMIGfMAkG
A1UdEwQCMAAwHQYDVR0OBBYEFJNEKeDnu12e840AbgkJBmrknI4+MFEGA1UdIwRK
MEiAFDj2O9lsiW+gkSHSuXV+fj8z7KyvoRqkGDAWMRQwEgYDVQQDDAt0ZWFtNjgx
LW5ldIIUBXwqf6EuoR94m4o9Wu453MSaaEEwEwYDVR0lBAwwCgYIKwYBBQUHAwIw
CwYDVR0PBAQDAgeAMA0GCSqGSIb3DQEBCwUAA4IBAQARE1nOSpCDp1zIq70oByyg
uhOl7xhqUZxYQTepZIQ6d6tHTQCoqAhi7+BFo9OeEt6sat9ZhSNPg+fhMzvMGdOW
ax5+CYDyqPQQJetkh5JKbtiYe8uRzRx2wFCwYYkbzozBQy6heQepN0v1BAWfvMJU
eXywRyFhVql+lDoAl4beUHn7fZTDGieGifFhmGdpTV4VAMbFUJ1UgDQuXMDznn1M
8toAfsYbaUCcxZB1+2lvAMMItdbXFZqtsKk7k3bDykqJoKVZfqIaV00vAioNG29E
WJiSDOe0Vieaji+/dVH1F54b0YDP8q3rmHyMzuCNzGC+/+Jqd47m2wHlOF+uBbMH
-----END CERTIFICATE-----
