Certificate:
    Data:
        Version: 3 (0x2)
        Serial Number:
            72:5b:55:6a:c9:38:ac:cf:b3:00:49:fd:c5:49:3c:b1
        Signature Algorithm: sha256WithRSAEncryption
        Issuer: CN=team511-net
        Validity
            Not Before: Sep 13 03:11:11 2021 GMT
            Not After : Aug 28 03:11:11 2024 GMT
        Subject: CN=team511-server
        Subject Public Key Info:
            Public Key Algorithm: rsaEncryption
                RSA Public-Key: (2048 bit)
                Modulus:
                    00:ad:49:ac:f3:ad:fc:ba:8b:6b:c0:2a:38:d4:67:
                    32:de:5f:e5:b1:0e:9f:68:cc:89:e4:c4:84:b6:19:
                    a5:31:2f:dc:c7:9d:c0:1d:ef:73:64:68:7a:57:e7:
                    7e:ae:9d:b5:36:39:83:48:97:f2:c2:36:6c:a5:61:
                    2b:83:94:f2:ee:94:73:8f:a0:e4:0e:74:a8:51:1b:
                    9a:62:1d:f6:ef:02:ef:ab:bc:21:e7:2f:a6:95:47:
                    41:bf:38:e5:0d:dd:f4:06:20:2f:be:91:65:54:5a:
                    28:cb:1c:8c:81:03:da:b0:b9:ce:28:f6:f7:3c:f1:
                    7c:80:c4:db:c2:a2:85:cd:31:20:d7:9f:05:5a:28:
                    4c:fc:e9:ab:12:91:7b:ed:c8:c6:0d:a1:c2:4c:a1:
                    70:b7:31:28:41:2a:52:81:32:c1:11:ce:8c:fd:33:
                    2d:7b:f2:74:45:f4:7a:9e:90:7f:25:d0:71:cd:62:
                    69:22:d5:25:3f:ec:1c:0f:20:a1:2f:b7:96:d1:d9:
                    44:e1:8d:df:c7:10:d4:1c:41:f1:53:d9:33:b7:db:
                    0b:94:1a:d0:60:34:82:ee:84:a7:e8:4f:cf:fb:64:
                    32:3c:5d:8b:5c:91:d6:c2:f4:03:0f:28:7c:95:29:
                    f1:ed:e1:3d:a6:7f:6e:a0:f0:fc:8c:c7:92:00:17:
                    3c:41
                Exponent: 65537 (0x10001)
        X509v3 extensions:
            X509v3 Basic Constraints: 
                CA:FALSE
            X509v3 Subject Key Identifier: 
                29:01:2B:C5:FB:CB:11:72:E3:62:0B:B6:2D:9A:25:7B:4B:70:BD:78
            X509v3 Authority Key Identifier: 
                keyid:BD:BE:09:3B:4E:C5:AA:F8:8D:63:FC:C7:B2:59:0C:A6:CE:4D:D4:A9
                DirName:/CN=team511-net
                serial:78:E5:7C:4B:53:8B:62:49:B0:B4:C4:3C:F5:3F:FD:AB:FD:DB:D3:A8

            X509v3 Extended Key Usage: 
                TLS Web Server Authentication
            X509v3 Key Usage: 
                Digital Signature, Key Encipherment
            X509v3 Subject Alternative Name: 
                DNS:team511-server
    Signature Algorithm: sha256WithRSAEncryption
         7e:cc:63:c4:56:85:8c:52:3a:7d:4b:20:46:5d:d6:7c:6b:dd:
         0d:3d:64:5d:59:11:19:f3:54:31:33:ab:1f:6b:2d:6f:4e:95:
         8a:d2:f5:ba:7d:81:f0:40:19:94:31:a4:73:4c:6b:32:a0:91:
         bf:0c:d3:5b:ba:fb:4f:9f:ca:23:5e:8d:c2:50:1c:1b:28:e2:
         d8:b6:16:9e:f8:eb:72:3c:00:63:c7:b9:52:0f:30:79:f1:9a:
         b6:97:ff:03:7a:15:9b:f8:ee:61:e5:d4:1c:3b:75:89:0a:42:
         1e:97:f1:4c:a7:93:98:13:ab:53:49:4b:a3:0d:51:a2:11:8d:
         ee:9b:e6:38:4c:c4:5b:6a:fe:73:c4:c1:81:4b:06:54:03:29:
         2f:9e:06:94:94:79:97:fc:cf:26:aa:63:97:5d:32:ec:57:21:
         73:0d:d9:bf:8d:3a:f5:95:b2:0c:53:29:9a:d2:31:ca:28:df:
         03:a0:3c:98:07:75:a7:70:9f:60:85:eb:68:23:c3:f0:77:7c:
         17:7c:b7:3f:5a:65:4d:07:e4:dd:86:3e:08:17:be:52:71:db:
         9b:1a:7c:5e:55:18:de:96:eb:5c:72:3a:67:50:46:a6:00:d7:
         f7:ac:1c:47:20:b5:b1:91:88:35:ee:8d:e9:f3:b8:d0:6f:11:
         23:ed:d9:4e
-----BEGIN CERTIFICATE-----
MIIDdzCCAl+gAwIBAgIQcltVask4rM+zAEn9xUk8sTANBgkqhkiG9w0BAQsFADAW
MRQwEgYDVQQDDAt0ZWFtNTExLW5ldDAeFw0yMTA5MTMwMzExMTFaFw0yNDA4Mjgw
MzExMTFaMBkxFzAVBgNVBAMMDnRlYW01MTEtc2VydmVyMIIBIjANBgkqhkiG9w0B
AQEFAAOCAQ8AMIIBCgKCAQEArUms8638uotrwCo41Gcy3l/lsQ6faMyJ5MSEthml
MS/cx53AHe9zZGh6V+d+rp21NjmDSJfywjZspWErg5Ty7pRzj6DkDnSoURuaYh32
7wLvq7wh5y+mlUdBvzjlDd30BiAvvpFlVFooyxyMgQPasLnOKPb3PPF8gMTbwqKF
zTEg158FWihM/OmrEpF77cjGDaHCTKFwtzEoQSpSgTLBEc6M/TMte/J0RfR6npB/
JdBxzWJpItUlP+wcDyChL7eW0dlE4Y3fxxDUHEHxU9kzt9sLlBrQYDSC7oSn6E/P
+2QyPF2LXJHWwvQDDyh8lSnx7eE9pn9uoPD8jMeSABc8QQIDAQABo4G9MIG6MAkG
A1UdEwQCMAAwHQYDVR0OBBYEFCkBK8X7yxFy42ILti2aJXtLcL14MFEGA1UdIwRK
MEiAFL2+CTtOxar4jWP8x7JZDKbOTdSpoRqkGDAWMRQwEgYDVQQDDAt0ZWFtNTEx
LW5ldIIUeOV8S1OLYkmwtMQ89T/9q/3b06gwEwYDVR0lBAwwCgYIKwYBBQUHAwEw
CwYDVR0PBAQDAgWgMBkGA1UdEQQSMBCCDnRlYW01MTEtc2VydmVyMA0GCSqGSIb3
DQEBCwUAA4IBAQB+zGPEVoWMUjp9SyBGXdZ8a90NPWRdWREZ81QxM6sfay1vTpWK
0vW6fYHwQBmUMaRzTGsyoJG/DNNbuvtPn8ojXo3CUBwbKOLYthae+OtyPABjx7lS
DzB58Zq2l/8DehWb+O5h5dQcO3WJCkIel/FMp5OYE6tTSUujDVGiEY3um+Y4TMRb
av5zxMGBSwZUAykvngaUlHmX/M8mqmOXXTLsVyFzDdm/jTr1lbIMUyma0jHKKN8D
oDyYB3WncJ9ghetoI8Pwd3wXfLc/WmVNB+Tdhj4IF75ScdubGnxeVRjelutccjpn
UEamANf3rBxHILWxkYg17o3p87jQbxEj7dlO
-----END CERTIFICATE-----
