Certificate:
    Data:
        Version: 3 (0x2)
        Serial Number:
            d5:d1:ab:ed:c0:03:d9:8f:b0:f3:f2:26:a7:35:85:ab
        Signature Algorithm: sha256WithRSAEncryption
        Issuer: CN=team151-net
        Validity
            Not Before: Sep 13 00:05:30 2021 GMT
            Not After : Aug 28 00:05:30 2024 GMT
        Subject: CN=team151-server
        Subject Public Key Info:
            Public Key Algorithm: rsaEncryption
                RSA Public-Key: (2048 bit)
                Modulus:
                    00:ce:cf:89:e2:e9:5a:9f:2c:4a:f6:67:cb:df:60:
                    49:ba:86:f1:06:92:cf:ad:b2:57:7c:a7:8c:84:e0:
                    2f:38:00:19:e5:67:85:39:b5:67:3f:9a:2e:73:b7:
                    bf:54:c9:22:d8:ae:8a:5f:86:aa:45:76:4e:59:20:
                    fa:79:88:bd:44:43:97:fc:07:01:1a:7a:12:7e:e9:
                    82:90:02:a2:21:09:6d:95:01:3e:76:7f:68:7f:dc:
                    8b:fe:d5:04:5b:69:77:2f:ba:e7:bd:bc:c0:12:d0:
                    23:74:17:a8:57:fa:b9:d4:b5:12:6b:4b:99:a1:b4:
                    19:75:ee:7a:1c:52:4b:9e:35:60:c0:ab:ce:cd:51:
                    50:af:32:a1:77:f0:7c:11:0b:5d:c2:78:f0:43:b8:
                    3c:b4:a2:78:39:9b:c7:c3:03:9e:80:dd:2e:00:ee:
                    3a:c6:6a:2e:a9:eb:d2:51:87:da:00:2c:45:b2:2a:
                    8c:8a:3d:86:5e:a1:ce:25:69:ad:2e:1d:9d:9a:e2:
                    54:d5:df:d2:21:19:4a:81:f4:f7:2f:05:25:dc:ab:
                    95:ae:4b:fe:6e:35:fc:fc:95:9a:99:3e:f3:f0:8f:
                    23:4f:44:4a:1c:90:f5:26:b2:23:73:0f:5b:43:5d:
                    18:11:5e:32:e2:2d:f6:fc:5f:38:34:8e:b8:19:a4:
                    4b:09
                Exponent: 65537 (0x10001)
        X509v3 extensions:
            X509v3 Basic Constraints: 
                CA:FALSE
            X509v3 Subject Key Identifier: 
                0C:EF:51:0F:13:34:28:30:AA:F5:36:BA:FA:56:30:B8:64:06:23:15
            X509v3 Authority Key Identifier: 
                keyid:CE:23:B2:94:36:F5:C4:9E:88:EB:3A:7E:2E:76:74:57:26:A9:C5:B5
                DirName:/CN=team151-net
                serial:7B:B5:4C:A0:5F:A4:22:46:EE:F3:4F:4E:05:00:56:0D:A1:B2:EC:1E

            X509v3 Extended Key Usage: 
                TLS Web Server Authentication
            X509v3 Key Usage: 
                Digital Signature, Key Encipherment
            X509v3 Subject Alternative Name: 
                DNS:team151-server
    Signature Algorithm: sha256WithRSAEncryption
         a9:01:69:83:a0:b1:79:e8:b5:de:cd:92:50:84:38:11:c7:6b:
         aa:32:3c:a2:c1:bd:c5:08:8f:e6:eb:15:26:b9:16:36:b6:62:
         fa:10:4e:1f:b3:a6:2a:05:4a:31:df:c0:9c:e8:90:f2:93:67:
         d5:5a:5b:b7:58:55:0a:c0:bc:36:44:e8:4e:7e:2e:1d:d9:be:
         d2:c3:03:81:e7:55:fe:10:20:fc:71:ed:f1:fd:55:fb:4a:df:
         52:4b:b9:08:af:71:2d:68:48:77:21:9a:6a:03:43:06:f9:cf:
         16:e0:f1:ee:d8:b7:68:90:ce:7a:53:19:39:60:9e:03:1b:64:
         54:c8:c2:ab:bc:7e:c5:3e:88:2d:48:63:98:87:16:9d:80:81:
         9d:41:86:f9:e8:c0:6c:29:d7:00:22:b5:ea:d5:d7:cc:16:37:
         15:d9:0f:01:69:0a:f5:57:a5:ca:90:6d:40:81:2b:c0:3f:52:
         c3:0b:ee:59:a8:d1:6e:ab:b3:f2:99:e7:7e:9d:4a:2b:30:a3:
         73:44:a5:53:38:a4:30:04:be:51:a8:41:ec:f1:7f:74:a0:a6:
         53:b0:e7:d9:b6:d5:a2:0c:1d:3e:b0:40:5d:9f:38:83:80:f8:
         23:d8:59:8f:86:be:8d:83:a0:76:41:ed:a4:eb:6e:4f:62:d4:
         d4:f6:67:65
-----BEGIN CERTIFICATE-----
MIIDeDCCAmCgAwIBAgIRANXRq+3AA9mPsPPyJqc1haswDQYJKoZIhvcNAQELBQAw
FjEUMBIGA1UEAwwLdGVhbTE1MS1uZXQwHhcNMjEwOTEzMDAwNTMwWhcNMjQwODI4
MDAwNTMwWjAZMRcwFQYDVQQDDA50ZWFtMTUxLXNlcnZlcjCCASIwDQYJKoZIhvcN
AQEBBQADggEPADCCAQoCggEBAM7PieLpWp8sSvZny99gSbqG8QaSz62yV3ynjITg
LzgAGeVnhTm1Zz+aLnO3v1TJItiuil+GqkV2Tlkg+nmIvURDl/wHARp6En7pgpAC
oiEJbZUBPnZ/aH/ci/7VBFtpdy+65728wBLQI3QXqFf6udS1EmtLmaG0GXXuehxS
S541YMCrzs1RUK8yoXfwfBELXcJ48EO4PLSieDmbx8MDnoDdLgDuOsZqLqnr0lGH
2gAsRbIqjIo9hl6hziVprS4dnZriVNXf0iEZSoH09y8FJdyrla5L/m41/PyVmpk+
8/CPI09EShyQ9SayI3MPW0NdGBFeMuIt9vxfODSOuBmkSwkCAwEAAaOBvTCBujAJ
BgNVHRMEAjAAMB0GA1UdDgQWBBQM71EPEzQoMKr1Nrr6VjC4ZAYjFTBRBgNVHSME
SjBIgBTOI7KUNvXEnojrOn4udnRXJqnFtaEapBgwFjEUMBIGA1UEAwwLdGVhbTE1
MS1uZXSCFHu1TKBfpCJG7vNPTgUAVg2hsuweMBMGA1UdJQQMMAoGCCsGAQUFBwMB
MAsGA1UdDwQEAwIFoDAZBgNVHREEEjAQgg50ZWFtMTUxLXNlcnZlcjANBgkqhkiG
9w0BAQsFAAOCAQEAqQFpg6Cxeei13s2SUIQ4EcdrqjI8osG9xQiP5usVJrkWNrZi
+hBOH7OmKgVKMd/AnOiQ8pNn1Vpbt1hVCsC8NkToTn4uHdm+0sMDgedV/hAg/HHt
8f1V+0rfUku5CK9xLWhIdyGaagNDBvnPFuDx7ti3aJDOelMZOWCeAxtkVMjCq7x+
xT6ILUhjmIcWnYCBnUGG+ejAbCnXACK16tXXzBY3FdkPAWkK9VelypBtQIErwD9S
wwvuWajRbquz8pnnfp1KKzCjc0SlUzikMAS+UahB7PF/dKCmU7Dn2bbVogwdPrBA
XZ84g4D4I9hZj4a+jYOgdkHtpOtuT2LU1PZnZQ==
-----END CERTIFICATE-----
