Certificate:
    Data:
        Version: 3 (0x2)
        Serial Number:
            f7:11:19:6e:52:df:c7:fe:f2:8f:91:08:c3:ac:56:0e
        Signature Algorithm: sha256WithRSAEncryption
        Issuer: CN=team363-net
        Validity
            Not Before: Sep 13 02:06:08 2021 GMT
            Not After : Aug 28 02:06:08 2024 GMT
        Subject: CN=team363-server
        Subject Public Key Info:
            Public Key Algorithm: rsaEncryption
                RSA Public-Key: (2048 bit)
                Modulus:
                    00:ad:58:94:6a:8e:fb:fd:3a:2e:53:da:3c:8e:8a:
                    0a:44:ec:df:a2:23:55:a0:9e:d6:cd:82:99:00:bf:
                    7a:1e:95:1c:6f:70:8e:2a:84:d3:6f:bd:e4:e2:e9:
                    ec:0f:c9:77:a0:54:8c:c7:94:6a:b2:5d:29:dc:ea:
                    7d:bb:94:b1:d7:f8:8a:6b:2c:21:4b:fb:26:79:4e:
                    4b:35:85:50:d9:5f:c8:f6:5c:92:e9:a5:fe:cb:65:
                    80:6c:9e:67:32:10:b5:1b:fa:83:53:5b:ce:a5:2e:
                    e5:d8:b1:44:c1:e5:4b:f2:e0:fb:b1:04:75:62:2c:
                    96:f7:69:e3:92:b7:a0:22:ab:49:fd:7e:19:fd:02:
                    c2:3d:20:6f:71:90:ca:30:cf:b2:a0:db:c6:fc:3f:
                    28:fa:5a:7f:6a:22:ff:63:40:23:c8:7d:12:53:04:
                    0a:85:56:fe:c1:a0:aa:0a:b7:80:cb:22:b6:06:b5:
                    12:1d:f1:c5:90:6a:15:4e:0e:12:fb:2a:8f:87:94:
                    90:f6:0f:b3:df:ea:a2:d7:52:9d:09:b0:e5:42:27:
                    1f:f0:a2:a7:b9:06:2d:85:ba:8f:7e:5d:d6:57:9f:
                    9b:e6:f8:d3:60:0e:fd:b2:54:5f:bf:eb:43:16:2d:
                    15:34:bf:dd:c7:2f:6b:98:e9:82:a0:25:68:dc:75:
                    d0:ed
                Exponent: 65537 (0x10001)
        X509v3 extensions:
            X509v3 Basic Constraints: 
                CA:FALSE
            X509v3 Subject Key Identifier: 
                3F:97:E1:CF:01:C7:3D:98:1F:9F:90:23:89:1E:9B:D0:54:6C:4B:E5
            X509v3 Authority Key Identifier: 
                keyid:FE:7D:68:80:B7:D9:8B:1A:06:34:8D:4C:69:2D:42:95:21:51:04:94
                DirName:/CN=team363-net
                serial:4A:E4:FF:EF:5D:AD:6A:C8:F2:FF:05:D9:66:F3:21:C1:3B:93:0E:4E

            X509v3 Extended Key Usage: 
                TLS Web Server Authentication
            X509v3 Key Usage: 
                Digital Signature, Key Encipherment
            X509v3 Subject Alternative Name: 
                DNS:team363-server
    Signature Algorithm: sha256WithRSAEncryption
         cb:a9:dd:2a:2b:f2:0f:67:b1:8a:c6:c4:5a:72:aa:a4:f3:32:
         45:34:67:04:48:3b:be:98:30:b1:7e:8d:a5:05:bd:4b:0f:f0:
         cb:f4:cd:82:b6:4a:dd:35:99:57:3d:9a:ba:26:24:dd:fc:8f:
         5c:c1:45:4c:c3:b6:b7:74:d8:29:9d:5d:03:31:39:15:26:c5:
         7a:2a:51:f9:bf:0b:a4:af:e7:fa:8e:03:82:c0:67:06:67:37:
         39:85:1c:8d:d9:25:d0:41:09:25:92:ed:79:6f:4c:4a:73:1a:
         28:ce:db:b6:7a:da:4f:c4:b3:66:5c:5b:b9:5d:cd:e3:de:45:
         82:5c:7f:61:10:78:59:34:5e:03:ef:19:d2:12:d2:6f:70:43:
         8d:f3:93:d2:f2:43:41:34:e5:bf:26:8c:0d:01:ee:82:11:08:
         37:16:be:81:8d:9a:7f:9c:ef:10:58:1f:7f:f4:db:64:e2:f6:
         80:23:8f:a7:fa:dc:78:1a:2f:20:a9:ee:74:17:b1:be:47:3f:
         57:2b:f0:d5:a8:fc:ae:d0:fa:e1:9e:25:2a:59:30:a3:c9:14:
         15:97:c0:e8:bc:05:21:70:a3:bf:bf:c2:38:b5:d3:2c:fa:d3:
         0f:d8:25:c4:e3:49:ca:b4:af:94:22:66:ee:23:92:c4:24:be:
         bc:71:54:b1
-----BEGIN CERTIFICATE-----
MIIDeDCCAmCgAwIBAgIRAPcRGW5S38f+8o+RCMOsVg4wDQYJKoZIhvcNAQELBQAw
FjEUMBIGA1UEAwwLdGVhbTM2My1uZXQwHhcNMjEwOTEzMDIwNjA4WhcNMjQwODI4
MDIwNjA4WjAZMRcwFQYDVQQDDA50ZWFtMzYzLXNlcnZlcjCCASIwDQYJKoZIhvcN
AQEBBQADggEPADCCAQoCggEBAK1YlGqO+/06LlPaPI6KCkTs36IjVaCe1s2CmQC/
eh6VHG9wjiqE02+95OLp7A/Jd6BUjMeUarJdKdzqfbuUsdf4imssIUv7JnlOSzWF
UNlfyPZckuml/stlgGyeZzIQtRv6g1NbzqUu5dixRMHlS/Lg+7EEdWIslvdp45K3
oCKrSf1+Gf0Cwj0gb3GQyjDPsqDbxvw/KPpaf2oi/2NAI8h9ElMECoVW/sGgqgq3
gMsitga1Eh3xxZBqFU4OEvsqj4eUkPYPs9/qotdSnQmw5UInH/Cip7kGLYW6j35d
1lefm+b402AO/bJUX7/rQxYtFTS/3ccva5jpgqAlaNx10O0CAwEAAaOBvTCBujAJ
BgNVHRMEAjAAMB0GA1UdDgQWBBQ/l+HPAcc9mB+fkCOJHpvQVGxL5TBRBgNVHSME
SjBIgBT+fWiAt9mLGgY0jUxpLUKVIVEElKEapBgwFjEUMBIGA1UEAwwLdGVhbTM2
My1uZXSCFErk/+9drWrI8v8F2WbzIcE7kw5OMBMGA1UdJQQMMAoGCCsGAQUFBwMB
MAsGA1UdDwQEAwIFoDAZBgNVHREEEjAQgg50ZWFtMzYzLXNlcnZlcjANBgkqhkiG
9w0BAQsFAAOCAQEAy6ndKivyD2exisbEWnKqpPMyRTRnBEg7vpgwsX6NpQW9Sw/w
y/TNgrZK3TWZVz2auiYk3fyPXMFFTMO2t3TYKZ1dAzE5FSbFeipR+b8LpK/n+o4D
gsBnBmc3OYUcjdkl0EEJJZLteW9MSnMaKM7btnraT8SzZlxbuV3N495Fglx/YRB4
WTReA+8Z0hLSb3BDjfOT0vJDQTTlvyaMDQHughEINxa+gY2af5zvEFgff/TbZOL2
gCOPp/rceBovIKnudBexvkc/Vyvw1aj8rtD64Z4lKlkwo8kUFZfA6LwFIXCjv7/C
OLXTLPrTD9glxONJyrSvlCJm7iOSxCS+vHFUsQ==
-----END CERTIFICATE-----
