Certificate:
    Data:
        Version: 3 (0x2)
        Serial Number:
            79:d0:4d:b0:bf:07:c9:92:71:db:9a:b9:93:f9:40:b3
        Signature Algorithm: sha256WithRSAEncryption
        Issuer: CN=team32-net
        Validity
            Not Before: Sep 12 23:01:31 2021 GMT
            Not After : Aug 27 23:01:31 2024 GMT
        Subject: CN=team32-client
        Subject Public Key Info:
            Public Key Algorithm: rsaEncryption
                RSA Public-Key: (2048 bit)
                Modulus:
                    00:f5:72:c5:ea:8d:d5:50:37:19:18:7b:48:88:76:
                    37:24:51:d3:45:1e:61:fd:a7:b0:d9:f4:1d:39:96:
                    6c:1b:bb:83:01:ec:0b:dc:77:f3:ac:d5:9f:df:03:
                    32:ed:fd:3c:11:2e:f7:98:4c:73:33:a8:4e:dd:ed:
                    92:46:96:64:95:1a:28:77:df:7b:b5:3a:a5:ff:71:
                    65:ce:60:c9:e3:fc:58:9a:2f:f8:e2:91:17:37:f8:
                    08:d7:ba:b3:b8:a7:f7:6f:79:33:46:d5:71:77:b2:
                    78:d2:9a:61:82:cd:ce:88:c8:e4:d5:ec:49:30:2f:
                    a7:52:d7:cc:aa:32:b1:f6:92:78:f9:ed:fb:cf:24:
                    31:26:5f:47:3b:97:48:6d:5f:6c:51:e7:fc:a1:ed:
                    08:58:b8:44:a3:b2:d9:75:ea:99:b5:77:04:63:01:
                    dc:89:75:c2:cf:4d:dd:02:fd:79:e9:56:fa:93:ae:
                    46:2b:e0:dc:74:5f:da:b6:bb:10:ed:ba:45:7f:ac:
                    bb:d3:79:5c:68:13:cb:cb:53:95:91:ba:50:40:a5:
                    4d:e7:36:7c:48:e5:7d:4b:88:c3:c9:bb:4c:d9:45:
                    6b:5d:ce:d0:6e:a1:a2:71:9e:ac:0e:a4:29:28:bb:
                    db:da:eb:14:9d:86:b1:a8:02:89:0a:28:43:f4:11:
                    63:11
                Exponent: 65537 (0x10001)
        X509v3 extensions:
            X509v3 Basic Constraints: 
                CA:FALSE
            X509v3 Subject Key Identifier: 
                BB:C8:E6:85:37:A6:70:6C:F1:D9:3F:19:F4:98:0E:9E:34:6E:4E:D7
            X509v3 Authority Key Identifier: 
                keyid:31:E6:FA:0F:90:41:4A:05:10:C0:42:66:2B:ED:ED:7E:DD:60:D3:BA
                DirName:/CN=team32-net
                serial:36:55:0E:99:45:F4:B6:21:84:F4:D0:30:52:45:76:72:68:14:21:4D

            X509v3 Extended Key Usage: 
                TLS Web Client Authentication
            X509v3 Key Usage: 
                Digital Signature
    Signature Algorithm: sha256WithRSAEncryption
         97:1f:0d:3a:22:2c:ff:ba:2d:33:c1:42:da:91:2b:6b:a4:93:
         e9:e2:96:1c:1f:8b:18:ee:25:74:f0:af:87:32:33:97:58:d6:
         9d:84:80:48:f4:25:1b:55:dc:6f:18:88:9c:d5:f0:ed:df:7a:
         be:18:3e:c9:0f:30:51:e9:ed:14:0c:aa:9a:c9:43:6d:0d:1e:
         43:23:0d:5a:17:ec:38:3a:9b:f9:ed:ff:b6:0c:0d:76:18:90:
         23:d7:40:82:86:77:87:31:d0:d3:f4:c2:c5:bb:79:a3:df:a1:
         c0:ce:36:1d:87:bc:91:67:61:a7:ab:41:fa:f9:fd:59:ed:07:
         73:20:13:87:ca:d0:1c:81:9f:81:cc:b4:5d:3f:9f:35:39:39:
         11:e0:e4:a1:f0:15:0e:e5:03:a5:c0:de:c2:ee:f4:15:b1:6a:
         00:e8:db:9f:fc:c7:86:44:d8:e6:b4:35:06:e2:a7:10:97:c5:
         b2:bb:3d:2e:ac:9e:7c:0e:82:77:33:8a:f3:5d:e5:bd:ee:3a:
         be:a2:7d:25:38:d3:e1:a5:3c:cb:5b:cc:8f:62:c2:76:6b:26:
         c1:b0:e6:4a:e4:16:41:54:32:dd:49:c0:77:aa:a5:1a:74:cb:
         ff:66:27:fc:8b:82:6c:3b:af:80:e1:47:a9:78:a7:30:9b:19:
         47:63:b2:5a
-----BEGIN CERTIFICATE-----
MIIDWTCCAkGgAwIBAgIQedBNsL8HyZJx25q5k/lAszANBgkqhkiG9w0BAQsFADAV
MRMwEQYDVQQDDAp0ZWFtMzItbmV0MB4XDTIxMDkxMjIzMDEzMVoXDTI0MDgyNzIz
MDEzMVowGDEWMBQGA1UEAwwNdGVhbTMyLWNsaWVudDCCASIwDQYJKoZIhvcNAQEB
BQADggEPADCCAQoCggEBAPVyxeqN1VA3GRh7SIh2NyRR00UeYf2nsNn0HTmWbBu7
gwHsC9x386zVn98DMu39PBEu95hMczOoTt3tkkaWZJUaKHffe7U6pf9xZc5gyeP8
WJov+OKRFzf4CNe6s7in9295M0bVcXeyeNKaYYLNzojI5NXsSTAvp1LXzKoysfaS
ePnt+88kMSZfRzuXSG1fbFHn/KHtCFi4RKOy2XXqmbV3BGMB3Il1ws9N3QL9eelW
+pOuRivg3HRf2ra7EO26RX+su9N5XGgTy8tTlZG6UEClTec2fEjlfUuIw8m7TNlF
a13O0G6honGerA6kKSi729rrFJ2GsagCiQooQ/QRYxECAwEAAaOBoTCBnjAJBgNV
HRMEAjAAMB0GA1UdDgQWBBS7yOaFN6ZwbPHZPxn0mA6eNG5O1zBQBgNVHSMESTBH
gBQx5voPkEFKBRDAQmYr7e1+3WDTuqEZpBcwFTETMBEGA1UEAwwKdGVhbTMyLW5l
dIIUNlUOmUX0tiGE9NAwUkV2cmgUIU0wEwYDVR0lBAwwCgYIKwYBBQUHAwIwCwYD
VR0PBAQDAgeAMA0GCSqGSIb3DQEBCwUAA4IBAQCXHw06Iiz/ui0zwULakStrpJPp
4pYcH4sY7iV08K+HMjOXWNadhIBI9CUbVdxvGIic1fDt33q+GD7JDzBR6e0UDKqa
yUNtDR5DIw1aF+w4Opv57f+2DA12GJAj10CChneHMdDT9MLFu3mj36HAzjYdh7yR
Z2Gnq0H6+f1Z7QdzIBOHytAcgZ+BzLRdP581OTkR4OSh8BUO5QOlwN7C7vQVsWoA
6Nuf/MeGRNjmtDUG4qcQl8Wyuz0urJ58DoJ3M4rzXeW97jq+on0lONPhpTzLW8yP
YsJ2aybBsOZK5BZBVDLdScB3qqUadMv/Zif8i4JsO6+A4UepeKcwmxlHY7Ja
-----END CERTIFICATE-----
