Certificate:
    Data:
        Version: 3 (0x2)
        Serial Number:
            ee:e8:94:96:f4:bc:0e:40:de:2b:35:a1:5b:28:38:d6
        Signature Algorithm: sha256WithRSAEncryption
        Issuer: CN=team32-net
        Validity
            Not Before: Sep 12 23:01:31 2021 GMT
            Not After : Aug 27 23:01:31 2024 GMT
        Subject: CN=team32-server
        Subject Public Key Info:
            Public Key Algorithm: rsaEncryption
                RSA Public-Key: (2048 bit)
                Modulus:
                    00:d7:4d:ce:30:4f:70:a4:81:c9:20:31:89:04:83:
                    98:dc:11:a4:33:50:de:7a:d1:89:e7:97:e2:51:da:
                    d1:99:96:ac:5c:7e:91:92:d1:0b:ae:73:11:0d:a0:
                    a9:0f:c2:ff:89:de:26:e8:71:aa:be:66:75:9e:7f:
                    e3:b6:52:f7:2e:02:21:ee:82:a2:df:7a:2a:26:69:
                    44:8e:d7:a4:79:60:f2:f4:f1:c1:e3:53:38:49:ed:
                    60:e8:f7:81:c5:7a:ff:a8:66:25:85:18:2e:fc:2b:
                    81:f5:5d:82:7e:23:6b:b9:db:ae:ce:18:5e:b9:45:
                    57:5a:87:a4:3a:73:d4:2a:47:a9:e1:a5:85:14:fa:
                    13:d1:8a:2d:12:c2:f9:24:d1:e9:73:be:d8:38:f7:
                    fb:10:24:33:a0:d5:47:6c:08:76:69:03:6a:54:7e:
                    58:17:d0:4a:e7:17:c4:1c:44:2f:6f:4d:61:d8:1f:
                    aa:52:6f:20:88:46:b2:11:39:6f:88:4a:e2:78:01:
                    58:f2:b8:b0:08:65:a2:77:c8:8c:91:e1:d6:3d:49:
                    63:50:6a:57:f6:c4:d5:a8:6b:68:57:b9:83:d5:c7:
                    cc:2d:2a:5f:67:b0:ac:c6:73:6f:18:db:5e:33:7d:
                    1f:a0:0c:ab:f3:75:80:f8:5f:d7:50:91:ae:9c:cd:
                    a6:c7
                Exponent: 65537 (0x10001)
        X509v3 extensions:
            X509v3 Basic Constraints: 
                CA:FALSE
            X509v3 Subject Key Identifier: 
                E1:EF:2A:7F:4F:EA:B5:88:4D:90:A8:3F:0A:01:0D:EA:55:0C:85:D2
            X509v3 Authority Key Identifier: 
                keyid:31:E6:FA:0F:90:41:4A:05:10:C0:42:66:2B:ED:ED:7E:DD:60:D3:BA
                DirName:/CN=team32-net
                serial:36:55:0E:99:45:F4:B6:21:84:F4:D0:30:52:45:76:72:68:14:21:4D

            X509v3 Extended Key Usage: 
                TLS Web Server Authentication
            X509v3 Key Usage: 
                Digital Signature, Key Encipherment
            X509v3 Subject Alternative Name: 
                DNS:team32-server
    Signature Algorithm: sha256WithRSAEncryption
         32:d7:ff:a9:ec:61:e8:18:a2:7e:f4:56:27:2e:ac:fc:8c:ba:
         54:fb:e0:fe:9e:78:a0:57:e0:2f:63:d5:92:f2:e7:af:d2:3b:
         32:8e:15:c8:c5:bc:35:89:b2:f8:cd:56:85:4a:e3:36:73:aa:
         76:af:39:34:63:e9:8b:86:b2:8e:ed:a6:ec:45:a2:67:1b:d4:
         39:89:86:9b:09:d0:7d:e7:5f:4e:38:a9:93:6f:3c:15:60:5e:
         5e:ba:65:f6:fa:40:5b:11:3f:bf:5f:e9:44:16:e4:30:0b:53:
         67:64:29:d3:0b:b3:d4:dc:8a:49:02:14:98:a8:6a:69:55:f0:
         14:c1:56:ad:3c:07:7f:18:a0:6b:ad:55:e3:0e:8a:d2:e1:64:
         b0:cd:93:2a:76:39:d7:92:c2:ef:51:61:3e:55:73:b4:bb:73:
         f9:ce:28:47:b7:d4:7b:f5:fa:6a:54:85:2c:4a:4b:91:49:33:
         60:5e:14:e3:49:ce:9f:c5:44:3c:1c:dc:c1:0d:8b:8f:a3:17:
         3a:7e:2f:39:e1:a6:1a:97:b4:96:4d:24:a6:b7:40:78:37:d0:
         fa:39:f6:f8:ac:3a:d0:2e:f4:9b:6c:ea:41:a1:a1:d7:34:d6:
         a9:9e:77:fc:5c:14:c4:23:a2:04:77:1a:87:94:6f:d2:94:92:
         9d:25:c9:50
-----BEGIN CERTIFICATE-----
MIIDdDCCAlygAwIBAgIRAO7olJb0vA5A3is1oVsoONYwDQYJKoZIhvcNAQELBQAw
FTETMBEGA1UEAwwKdGVhbTMyLW5ldDAeFw0yMTA5MTIyMzAxMzFaFw0yNDA4Mjcy
MzAxMzFaMBgxFjAUBgNVBAMMDXRlYW0zMi1zZXJ2ZXIwggEiMA0GCSqGSIb3DQEB
AQUAA4IBDwAwggEKAoIBAQDXTc4wT3CkgckgMYkEg5jcEaQzUN560Ynnl+JR2tGZ
lqxcfpGS0QuucxENoKkPwv+J3ibocaq+ZnWef+O2UvcuAiHugqLfeiomaUSO16R5
YPL08cHjUzhJ7WDo94HFev+oZiWFGC78K4H1XYJ+I2u5267OGF65RVdah6Q6c9Qq
R6nhpYUU+hPRii0Swvkk0elzvtg49/sQJDOg1UdsCHZpA2pUflgX0ErnF8QcRC9v
TWHYH6pSbyCIRrIROW+ISuJ4AVjyuLAIZaJ3yIyR4dY9SWNQalf2xNWoa2hXuYPV
x8wtKl9nsKzGc28Y214zfR+gDKvzdYD4X9dQka6czabHAgMBAAGjgbswgbgwCQYD
VR0TBAIwADAdBgNVHQ4EFgQU4e8qf0/qtYhNkKg/CgEN6lUMhdIwUAYDVR0jBEkw
R4AUMeb6D5BBSgUQwEJmK+3tft1g07qhGaQXMBUxEzARBgNVBAMMCnRlYW0zMi1u
ZXSCFDZVDplF9LYhhPTQMFJFdnJoFCFNMBMGA1UdJQQMMAoGCCsGAQUFBwMBMAsG
A1UdDwQEAwIFoDAYBgNVHREEETAPgg10ZWFtMzItc2VydmVyMA0GCSqGSIb3DQEB
CwUAA4IBAQAy1/+p7GHoGKJ+9FYnLqz8jLpU++D+nnigV+AvY9WS8uev0jsyjhXI
xbw1ibL4zVaFSuM2c6p2rzk0Y+mLhrKO7absRaJnG9Q5iYabCdB9519OOKmTbzwV
YF5eumX2+kBbET+/X+lEFuQwC1NnZCnTC7PU3IpJAhSYqGppVfAUwVatPAd/GKBr
rVXjDorS4WSwzZMqdjnXksLvUWE+VXO0u3P5zihHt9R79fpqVIUsSkuRSTNgXhTj
Sc6fxUQ8HNzBDYuPoxc6fi854aYal7SWTSSmt0B4N9D6Ofb4rDrQLvSbbOpBoaHX
NNapnnf8XBTEI6IEdxqHlG/SlJKdJclQ
-----END CERTIFICATE-----
