Certificate:
    Data:
        Version: 3 (0x2)
        Serial Number:
            94:3c:b3:e0:2a:25:9d:a0:34:92:7f:6f:9a:86:ab:5d
        Signature Algorithm: sha256WithRSAEncryption
        Issuer: CN=team152-net
        Validity
            Not Before: Sep 13 00:05:40 2021 GMT
            Not After : Aug 28 00:05:40 2024 GMT
        Subject: CN=team152-client
        Subject Public Key Info:
            Public Key Algorithm: rsaEncryption
                RSA Public-Key: (2048 bit)
                Modulus:
                    00:e4:2b:41:a5:e2:8b:34:dd:a4:21:54:94:13:d7:
                    ed:5b:71:a2:dd:d3:04:de:e1:fc:3b:1b:e2:88:91:
                    5c:f4:4d:91:02:7d:4f:b9:9b:cf:c8:b9:f9:05:02:
                    2e:a3:46:eb:93:86:0e:18:60:18:6c:b2:49:b8:7b:
                    37:9c:97:34:a5:64:a6:d6:0d:01:7d:fb:6b:77:79:
                    39:b1:db:dd:1e:d0:13:78:54:24:af:90:ab:06:2c:
                    a9:94:e6:fb:72:70:53:d7:61:a4:d7:8c:eb:b7:10:
                    ae:37:c3:68:60:13:22:96:82:dc:e3:84:59:b7:5f:
                    7f:40:bf:d7:b5:d1:ff:f0:46:b9:8f:e3:a0:75:25:
                    1b:26:3a:42:3b:99:4e:9a:73:3a:52:44:3a:ca:28:
                    11:b7:a5:4a:9b:7f:c5:78:d9:ba:29:3e:12:5b:90:
                    95:46:a3:d8:6d:bf:a9:c2:26:36:3f:07:47:91:aa:
                    57:94:32:51:a9:ea:87:71:b4:72:e3:0d:76:25:b1:
                    68:f9:bf:63:77:56:69:3b:28:f8:d6:10:3c:16:0f:
                    67:3d:84:4c:ee:b2:e3:0a:54:27:54:e5:31:4b:8f:
                    e2:3f:f4:23:a9:d5:55:c1:e8:c9:91:70:22:10:6f:
                    fe:bc:13:12:2e:3b:f4:af:44:f9:91:19:8e:5a:2d:
                    b2:a3
                Exponent: 65537 (0x10001)
        X509v3 extensions:
            X509v3 Basic Constraints: 
                CA:FALSE
            X509v3 Subject Key Identifier: 
                52:77:B5:CD:F6:01:42:D3:6A:E3:5A:7B:EB:6D:9E:73:8D:CD:EF:10
            X509v3 Authority Key Identifier: 
                keyid:C0:8D:C3:00:8A:BB:BA:BF:DE:E9:1A:38:95:C0:73:7B:47:75:C5:07
                DirName:/CN=team152-net
                serial:0C:60:5F:C6:BC:22:F6:71:4F:62:9E:1C:F0:B2:E1:B2:CE:15:27:59

            X509v3 Extended Key Usage: 
                TLS Web Client Authentication
            X509v3 Key Usage: 
                Digital Signature
    Signature Algorithm: sha256WithRSAEncryption
         bf:24:e9:ed:20:ae:7c:f5:ba:e0:86:ef:d1:fe:f0:bc:da:9a:
         37:2e:1f:7c:01:d8:de:74:42:45:90:d4:53:53:8f:6d:ca:1c:
         20:a1:41:4e:5b:25:96:0c:4f:2b:5b:f8:2a:6d:b4:d6:4e:3d:
         c9:51:07:b5:bd:0a:7d:c3:c1:ab:71:59:50:dd:64:54:a0:7d:
         70:63:82:8c:74:37:bf:83:fb:1d:f2:43:fa:e6:50:51:3f:7a:
         bf:a1:f7:71:bc:3e:db:af:17:db:28:be:32:05:1b:b5:1a:8c:
         45:e8:d4:9b:6f:cc:17:fa:f9:54:ca:a0:3e:36:0b:67:3c:ba:
         d8:0e:5a:bc:db:ba:b6:09:4d:3b:0b:6c:a0:20:37:93:1c:30:
         2c:e8:3b:1b:b5:8a:0d:b4:6b:8a:17:ac:74:ac:0b:78:98:8a:
         6c:82:f8:c3:7e:be:8f:e4:a8:23:b4:ae:98:7c:c7:a4:9a:4f:
         b8:47:dc:57:9b:1e:b1:68:93:fa:a7:5e:86:22:3d:d1:12:6a:
         64:b5:2e:bd:7a:0e:2f:73:08:8d:23:82:7c:70:65:7a:db:c4:
         a4:9e:ef:58:98:18:6b:c1:ca:5c:10:76:02:aa:a0:fa:ab:3e:
         23:aa:03:a0:3a:58:0b:13:b7:1b:e5:9a:9a:d0:8b:c9:32:e7:
         d3:28:31:63
-----BEGIN CERTIFICATE-----
MIIDXTCCAkWgAwIBAgIRAJQ8s+AqJZ2gNJJ/b5qGq10wDQYJKoZIhvcNAQELBQAw
FjEUMBIGA1UEAwwLdGVhbTE1Mi1uZXQwHhcNMjEwOTEzMDAwNTQwWhcNMjQwODI4
MDAwNTQwWjAZMRcwFQYDVQQDDA50ZWFtMTUyLWNsaWVudDCCASIwDQYJKoZIhvcN
AQEBBQADggEPADCCAQoCggEBAOQrQaXiizTdpCFUlBPX7Vtxot3TBN7h/Dsb4oiR
XPRNkQJ9T7mbz8i5+QUCLqNG65OGDhhgGGyySbh7N5yXNKVkptYNAX37a3d5ObHb
3R7QE3hUJK+QqwYsqZTm+3JwU9dhpNeM67cQrjfDaGATIpaC3OOEWbdff0C/17XR
//BGuY/joHUlGyY6QjuZTppzOlJEOsooEbelSpt/xXjZuik+EluQlUaj2G2/qcIm
Nj8HR5GqV5QyUanqh3G0cuMNdiWxaPm/Y3dWaTso+NYQPBYPZz2ETO6y4wpUJ1Tl
MUuP4j/0I6nVVcHoyZFwIhBv/rwTEi479K9E+ZEZjlotsqMCAwEAAaOBojCBnzAJ
BgNVHRMEAjAAMB0GA1UdDgQWBBRSd7XN9gFC02rjWnvrbZ5zjc3vEDBRBgNVHSME
SjBIgBTAjcMAiru6v97pGjiVwHN7R3XFB6EapBgwFjEUMBIGA1UEAwwLdGVhbTE1
Mi1uZXSCFAxgX8a8IvZxT2KeHPCy4bLOFSdZMBMGA1UdJQQMMAoGCCsGAQUFBwMC
MAsGA1UdDwQEAwIHgDANBgkqhkiG9w0BAQsFAAOCAQEAvyTp7SCufPW64Ibv0f7w
vNqaNy4ffAHY3nRCRZDUU1OPbcocIKFBTlsllgxPK1v4Km201k49yVEHtb0KfcPB
q3FZUN1kVKB9cGOCjHQ3v4P7HfJD+uZQUT96v6H3cbw+268X2yi+MgUbtRqMRejU
m2/MF/r5VMqgPjYLZzy62A5avNu6tglNOwtsoCA3kxwwLOg7G7WKDbRrihesdKwL
eJiKbIL4w36+j+SoI7SumHzHpJpPuEfcV5sesWiT+qdehiI90RJqZLUuvXoOL3MI
jSOCfHBletvEpJ7vWJgYa8HKXBB2Aqqg+qs+I6oDoDpYCxO3G+WamtCLyTLn0ygx
Yw==
-----END CERTIFICATE-----
