Certificate:
    Data:
        Version: 3 (0x2)
        Serial Number:
            5f:9a:40:a9:08:aa:c2:4d:cf:8e:42:7a:f0:6f:3e:a9
        Signature Algorithm: sha256WithRSAEncryption
        Issuer: CN=team539-net
        Validity
            Not Before: Sep 13 03:25:57 2021 GMT
            Not After : Aug 28 03:25:57 2024 GMT
        Subject: CN=team539-server
        Subject Public Key Info:
            Public Key Algorithm: rsaEncryption
                RSA Public-Key: (2048 bit)
                Modulus:
                    00:a1:c5:96:88:85:df:6b:24:de:f5:6c:72:01:a8:
                    d0:f9:2b:e2:22:9f:5e:21:22:72:b3:ee:b2:ec:1b:
                    41:29:bf:d5:e6:6f:33:56:30:0e:a9:f1:6c:ff:1a:
                    29:b1:80:82:d5:c2:81:63:1d:3e:f3:df:f7:79:fe:
                    91:2d:8e:2d:b7:8f:6b:69:6c:15:04:41:d8:f5:72:
                    34:11:3a:cc:96:43:9e:60:ba:38:30:6f:93:8e:03:
                    22:e1:a6:ed:0c:cb:c1:96:f1:85:8b:a9:25:d8:1a:
                    50:da:6f:73:77:5c:3f:08:dc:a3:66:83:44:fe:5a:
                    41:e7:79:f0:69:7b:6e:d0:bb:45:54:d2:ef:a5:df:
                    0b:ab:59:25:46:83:3c:eb:a9:64:af:f2:ad:d0:4b:
                    11:01:2d:6a:c8:2e:a7:df:06:79:f2:37:70:d7:7e:
                    50:ff:59:34:9b:bd:57:bc:3d:bd:f0:5e:e7:76:9d:
                    b7:3a:66:68:f7:14:eb:29:e2:7c:aa:74:e5:2a:ec:
                    94:12:cf:6e:15:58:a9:41:a0:14:d8:8d:bd:bb:73:
                    01:27:53:89:a3:2b:b5:98:6d:5a:ec:2c:42:82:74:
                    50:1a:5d:dd:9d:c5:dc:8a:d0:d7:77:81:cb:8a:7b:
                    1d:63:5e:7b:4f:ef:5e:16:df:97:7a:81:5b:25:31:
                    d0:65
                Exponent: 65537 (0x10001)
        X509v3 extensions:
            X509v3 Basic Constraints: 
                CA:FALSE
            X509v3 Subject Key Identifier: 
                AC:45:A2:0E:46:6D:6D:A0:83:5E:E9:30:08:AA:E4:4D:11:07:C1:E1
            X509v3 Authority Key Identifier: 
                keyid:14:36:89:7E:44:A1:0F:C4:7C:4B:B0:2A:4E:DD:8B:CA:F5:18:BC:B8
                DirName:/CN=team539-net
                serial:57:D2:1A:41:0A:9D:AE:E6:1B:9A:B0:0F:A2:A2:CD:37:C0:54:EC:47

            X509v3 Extended Key Usage: 
                TLS Web Server Authentication
            X509v3 Key Usage: 
                Digital Signature, Key Encipherment
            X509v3 Subject Alternative Name: 
                DNS:team539-server
    Signature Algorithm: sha256WithRSAEncryption
         14:64:a6:37:42:55:b3:f9:68:d8:21:88:45:53:40:4a:aa:53:
         26:b3:13:56:96:58:1b:a7:db:69:5e:21:a9:8d:a5:2d:85:79:
         cb:77:9a:f2:ad:57:3f:09:45:c0:81:30:a6:ad:da:81:cc:a4:
         5e:1f:a5:9b:c6:71:f4:a9:28:b6:51:50:e3:fa:2e:bb:99:cd:
         1e:d8:a4:a6:8d:9f:2f:80:c1:f8:1c:b7:ff:9c:21:cf:af:96:
         86:be:a5:30:12:bd:d6:91:b1:4c:8e:ca:5a:42:45:32:d7:44:
         42:5d:0f:07:8d:48:09:1b:c2:81:09:a5:a4:29:f5:38:7a:17:
         10:28:fd:c2:cb:7e:f6:12:24:d4:19:b4:a3:85:b2:fb:e2:79:
         22:12:98:74:91:d9:4b:35:d8:1e:63:d4:8e:83:c1:2b:92:4b:
         48:83:65:c0:f7:db:34:e7:a1:81:3f:0a:cf:cb:df:10:54:c6:
         2a:d3:1f:41:da:19:6a:a2:83:64:62:61:16:1e:42:c8:ba:dd:
         7e:9c:28:17:a4:97:f9:08:d8:58:45:5d:46:92:04:96:b1:2d:
         12:8b:1c:4a:39:89:7e:68:f2:0f:13:fd:b7:fd:c9:81:00:81:
         c6:d0:94:be:7e:c9:51:6f:b1:6b:7c:67:77:1a:47:da:57:aa:
         bf:94:7d:2d
-----BEGIN CERTIFICATE-----
MIIDdzCCAl+gAwIBAgIQX5pAqQiqwk3PjkJ68G8+qTANBgkqhkiG9w0BAQsFADAW
MRQwEgYDVQQDDAt0ZWFtNTM5LW5ldDAeFw0yMTA5MTMwMzI1NTdaFw0yNDA4Mjgw
MzI1NTdaMBkxFzAVBgNVBAMMDnRlYW01Mzktc2VydmVyMIIBIjANBgkqhkiG9w0B
AQEFAAOCAQ8AMIIBCgKCAQEAocWWiIXfayTe9WxyAajQ+SviIp9eISJys+6y7BtB
Kb/V5m8zVjAOqfFs/xopsYCC1cKBYx0+89/3ef6RLY4tt49raWwVBEHY9XI0ETrM
lkOeYLo4MG+TjgMi4abtDMvBlvGFi6kl2BpQ2m9zd1w/CNyjZoNE/lpB53nwaXtu
0LtFVNLvpd8Lq1klRoM866lkr/Kt0EsRAS1qyC6n3wZ58jdw135Q/1k0m71XvD29
8F7ndp23OmZo9xTrKeJ8qnTlKuyUEs9uFVipQaAU2I29u3MBJ1OJoyu1mG1a7CxC
gnRQGl3dncXcitDXd4HLinsdY157T+9eFt+XeoFbJTHQZQIDAQABo4G9MIG6MAkG
A1UdEwQCMAAwHQYDVR0OBBYEFKxFog5GbW2gg17pMAiq5E0RB8HhMFEGA1UdIwRK
MEiAFBQ2iX5EoQ/EfEuwKk7di8r1GLy4oRqkGDAWMRQwEgYDVQQDDAt0ZWFtNTM5
LW5ldIIUV9IaQQqdruYbmrAPoqLNN8BU7EcwEwYDVR0lBAwwCgYIKwYBBQUHAwEw
CwYDVR0PBAQDAgWgMBkGA1UdEQQSMBCCDnRlYW01Mzktc2VydmVyMA0GCSqGSIb3
DQEBCwUAA4IBAQAUZKY3QlWz+WjYIYhFU0BKqlMmsxNWllgbp9tpXiGpjaUthXnL
d5ryrVc/CUXAgTCmrdqBzKReH6WbxnH0qSi2UVDj+i67mc0e2KSmjZ8vgMH4HLf/
nCHPr5aGvqUwEr3WkbFMjspaQkUy10RCXQ8HjUgJG8KBCaWkKfU4ehcQKP3Cy372
EiTUGbSjhbL74nkiEph0kdlLNdgeY9SOg8ErkktIg2XA99s056GBPwrPy98QVMYq
0x9B2hlqooNkYmEWHkLIut1+nCgXpJf5CNhYRV1GkgSWsS0SixxKOYl+aPIPE/23
/cmBAIHG0JS+fslRb7FrfGd3GkfaV6q/lH0t
-----END CERTIFICATE-----
