Certificate:
    Data:
        Version: 3 (0x2)
        Serial Number:
            a8:ec:5a:9b:fb:89:5c:2d:47:f4:03:dd:41:1a:48:64
        Signature Algorithm: sha256WithRSAEncryption
        Issuer: CN=team594-net
        Validity
            Not Before: Sep 13 04:11:00 2021 GMT
            Not After : Aug 28 04:11:00 2024 GMT
        Subject: CN=team594-server
        Subject Public Key Info:
            Public Key Algorithm: rsaEncryption
                RSA Public-Key: (2048 bit)
                Modulus:
                    00:c2:59:b3:e9:09:eb:4d:cf:b6:07:17:79:4a:7f:
                    71:1e:12:6b:10:33:7e:03:48:49:e0:d4:30:bb:da:
                    9a:14:31:b7:d4:67:14:93:35:c1:6f:c4:c3:02:65:
                    f2:3c:6d:96:d3:00:75:48:c5:09:9a:c2:7f:ca:ab:
                    b3:48:cd:8f:5a:52:d5:67:bb:70:28:5e:06:8b:cc:
                    51:5a:a6:96:19:11:1f:94:4f:7c:5a:bf:82:dd:92:
                    f1:a6:92:53:37:4c:ad:a0:b3:13:ef:5b:ac:57:fe:
                    79:91:79:56:2c:6a:4e:e2:f8:e0:05:9c:e7:5c:c2:
                    de:99:7e:ed:28:74:54:76:9e:9f:9b:05:e2:6e:d2:
                    f2:25:97:91:a6:f4:6e:ae:65:17:5a:bb:45:0e:0b:
                    a0:33:53:d2:62:5e:c5:64:71:60:2f:6a:65:26:52:
                    ec:2a:47:5f:62:61:b9:57:74:f0:de:86:05:c8:59:
                    64:dc:85:74:6e:81:e9:15:d3:9e:d5:82:1d:6d:ab:
                    ee:f7:de:64:f0:a8:d9:9f:30:93:8c:55:ff:c4:69:
                    9b:8c:ec:a5:67:6e:85:f7:db:2f:7f:c5:fa:2e:86:
                    2c:28:e7:86:4d:05:2b:27:0b:36:48:75:57:ce:5b:
                    c8:ee:26:74:f0:00:08:c5:f3:ee:a4:ce:2c:15:2f:
                    38:73
                Exponent: 65537 (0x10001)
        X509v3 extensions:
            X509v3 Basic Constraints: 
                CA:FALSE
            X509v3 Subject Key Identifier: 
                D3:8B:24:4C:7E:B5:7C:8C:F1:13:42:82:83:11:F2:7A:CC:43:11:D6
            X509v3 Authority Key Identifier: 
                keyid:5C:8D:F8:10:83:5D:D2:2F:BF:60:66:64:4E:FE:EC:A1:3B:27:1B:CE
                DirName:/CN=team594-net
                serial:3F:59:62:21:95:8E:11:D1:A8:FD:0A:4C:19:61:D5:61:6D:EE:7A:80

            X509v3 Extended Key Usage: 
                TLS Web Server Authentication
            X509v3 Key Usage: 
                Digital Signature, Key Encipherment
            X509v3 Subject Alternative Name: 
                DNS:team594-server
    Signature Algorithm: sha256WithRSAEncryption
         b5:ea:34:d7:47:60:dd:38:08:b2:6c:25:3e:d6:4d:1d:4f:44:
         01:21:c6:cb:fc:05:04:36:8a:a6:c7:30:58:c6:e3:08:5f:d4:
         e9:17:3b:71:8a:a9:5e:68:11:d1:7f:9b:e0:f8:9b:e2:4b:88:
         88:35:a0:2f:72:16:dd:0c:c8:31:fc:f5:0b:cf:4f:ed:df:a4:
         02:d7:28:f8:1e:06:1f:8d:da:c0:32:9f:27:e2:5c:63:ef:7b:
         58:45:f8:98:aa:9d:32:66:74:2a:12:91:d7:5a:ab:8d:ff:91:
         fa:55:11:78:e5:3b:4f:97:c9:09:73:05:ef:a7:b1:b5:c8:1c:
         be:15:e0:54:a6:d7:dd:8e:8f:54:d6:af:62:8a:36:3c:e2:bf:
         88:95:20:85:c2:7e:3f:4f:93:8e:89:2a:5d:3d:aa:8a:bc:4a:
         c8:35:08:df:2c:5a:db:fb:ca:71:66:e2:a5:ba:20:22:85:0a:
         66:56:fd:62:52:d6:be:8f:d3:f4:dc:8a:ed:16:ee:90:4f:16:
         52:8c:66:81:67:b7:dd:74:e2:49:e4:1a:b2:a4:a9:2c:b9:b1:
         b0:1e:25:d5:58:56:bd:15:19:f0:cf:6b:1a:1c:8b:cd:8a:4f:
         92:33:64:5c:0b:cd:1f:5b:c9:dc:41:77:d2:01:4a:6a:20:a7:
         44:f7:83:20
-----BEGIN CERTIFICATE-----
MIIDeDCCAmCgAwIBAgIRAKjsWpv7iVwtR/QD3UEaSGQwDQYJKoZIhvcNAQELBQAw
FjEUMBIGA1UEAwwLdGVhbTU5NC1uZXQwHhcNMjEwOTEzMDQxMTAwWhcNMjQwODI4
MDQxMTAwWjAZMRcwFQYDVQQDDA50ZWFtNTk0LXNlcnZlcjCCASIwDQYJKoZIhvcN
AQEBBQADggEPADCCAQoCggEBAMJZs+kJ603PtgcXeUp/cR4SaxAzfgNISeDUMLva
mhQxt9RnFJM1wW/EwwJl8jxtltMAdUjFCZrCf8qrs0jNj1pS1We7cCheBovMUVqm
lhkRH5RPfFq/gt2S8aaSUzdMraCzE+9brFf+eZF5VixqTuL44AWc51zC3pl+7Sh0
VHaen5sF4m7S8iWXkab0bq5lF1q7RQ4LoDNT0mJexWRxYC9qZSZS7CpHX2JhuVd0
8N6GBchZZNyFdG6B6RXTntWCHW2r7vfeZPCo2Z8wk4xV/8Rpm4zspWduhffbL3/F
+i6GLCjnhk0FKycLNkh1V85byO4mdPAACMXz7qTOLBUvOHMCAwEAAaOBvTCBujAJ
BgNVHRMEAjAAMB0GA1UdDgQWBBTTiyRMfrV8jPETQoKDEfJ6zEMR1jBRBgNVHSME
SjBIgBRcjfgQg13SL79gZmRO/uyhOycbzqEapBgwFjEUMBIGA1UEAwwLdGVhbTU5
NC1uZXSCFD9ZYiGVjhHRqP0KTBlh1WFt7nqAMBMGA1UdJQQMMAoGCCsGAQUFBwMB
MAsGA1UdDwQEAwIFoDAZBgNVHREEEjAQgg50ZWFtNTk0LXNlcnZlcjANBgkqhkiG
9w0BAQsFAAOCAQEAteo010dg3TgIsmwlPtZNHU9EASHGy/wFBDaKpscwWMbjCF/U
6Rc7cYqpXmgR0X+b4Pib4kuIiDWgL3IW3QzIMfz1C89P7d+kAtco+B4GH43awDKf
J+JcY+97WEX4mKqdMmZ0KhKR11qrjf+R+lUReOU7T5fJCXMF76extcgcvhXgVKbX
3Y6PVNavYoo2POK/iJUghcJ+P0+TjokqXT2qirxKyDUI3yxa2/vKcWbipbogIoUK
Zlb9YlLWvo/T9NyK7RbukE8WUoxmgWe33XTiSeQasqSpLLmxsB4l1VhWvRUZ8M9r
GhyLzYpPkjNkXAvNH1vJ3EF30gFKaiCnRPeDIA==
-----END CERTIFICATE-----
