Certificate:
    Data:
        Version: 3 (0x2)
        Serial Number:
            fa:03:f8:8f:2e:82:c2:7b:53:a7:6d:af:56:8c:39:32
        Signature Algorithm: sha256WithRSAEncryption
        Issuer: CN=team323-net
        Validity
            Not Before: Sep 13 01:41:50 2021 GMT
            Not After : Aug 28 01:41:50 2024 GMT
        Subject: CN=team323-server
        Subject Public Key Info:
            Public Key Algorithm: rsaEncryption
                RSA Public-Key: (2048 bit)
                Modulus:
                    00:d4:f2:76:ad:b8:c2:04:63:72:68:b0:1d:fd:27:
                    85:62:89:8a:4a:86:5e:dd:e7:0e:21:ff:98:1e:04:
                    33:8d:d8:95:1d:20:3b:6e:7d:b1:48:70:e2:cd:4f:
                    e0:da:eb:50:2a:8f:69:6b:f7:b8:3a:9f:5c:f5:f5:
                    a6:72:46:1c:fb:05:8f:00:63:c9:87:8a:df:2e:75:
                    a8:0f:8e:e0:d7:45:ad:70:71:41:f7:f6:33:15:67:
                    6a:9e:18:2a:5a:b2:87:97:b6:7d:9a:7e:4c:1e:64:
                    09:90:29:bf:7a:80:a6:71:a2:2e:26:49:c2:06:57:
                    98:79:f6:3f:78:31:e7:0d:05:3f:8a:9c:42:7e:ad:
                    82:7b:44:41:47:e2:36:99:42:43:57:05:72:54:bd:
                    94:4b:fe:6f:7e:88:3a:7e:a6:cc:77:13:38:f1:cd:
                    4c:b3:dc:9e:5f:c2:fe:18:18:40:6e:82:31:6a:ec:
                    7c:ef:f3:e2:cd:01:e4:3a:78:c2:a3:bf:85:d1:0a:
                    98:54:20:86:ea:97:06:0b:cb:2e:e7:0a:71:cb:ef:
                    62:97:69:9b:6d:9e:ba:9c:e7:64:be:03:3f:f7:cd:
                    4b:62:2c:1b:11:bd:ee:12:6d:38:7a:67:95:d3:0c:
                    15:da:3a:6e:da:5d:d5:ad:0f:77:c3:cc:71:5f:10:
                    01:a1
                Exponent: 65537 (0x10001)
        X509v3 extensions:
            X509v3 Basic Constraints: 
                CA:FALSE
            X509v3 Subject Key Identifier: 
                2A:E3:90:1A:B5:37:DE:E7:8C:93:AB:AB:33:DB:2B:10:93:2D:44:04
            X509v3 Authority Key Identifier: 
                keyid:06:6F:FC:49:5F:A0:FF:7F:D3:0B:BC:9B:3A:9F:57:56:C7:9B:FE:A4
                DirName:/CN=team323-net
                serial:12:15:E8:D4:41:7B:37:2D:31:6E:A5:C3:2C:F7:78:1F:AA:87:AF:C2

            X509v3 Extended Key Usage: 
                TLS Web Server Authentication
            X509v3 Key Usage: 
                Digital Signature, Key Encipherment
            X509v3 Subject Alternative Name: 
                DNS:team323-server
    Signature Algorithm: sha256WithRSAEncryption
         17:fc:18:99:ac:19:02:fa:a4:f0:96:8c:70:45:2f:d9:2d:de:
         6d:08:0c:d4:46:50:9b:16:d4:8f:69:49:8f:03:2f:7c:f6:2c:
         e9:85:dd:48:a2:e8:15:f9:98:52:7c:4f:13:65:d0:cf:72:f5:
         a0:79:f3:72:3e:4a:20:1f:fe:e5:37:48:fc:04:c4:92:fd:54:
         04:99:f0:c5:33:90:2f:96:d3:b1:bc:56:25:82:5d:50:b8:f6:
         b2:30:91:17:48:0d:9e:6d:0e:5f:5a:69:e0:68:58:2d:c8:25:
         3c:7b:2a:4e:1f:45:93:2e:c3:70:28:a2:24:0a:d3:32:6e:fe:
         a4:11:bd:3d:cd:8d:62:05:dc:d3:5f:1a:d3:08:27:52:5b:38:
         2c:18:49:76:fe:77:1a:5d:d2:1c:81:db:d4:f6:21:ee:29:ca:
         a1:17:77:58:8d:c1:4a:75:f2:75:2b:93:bc:23:86:1b:07:ca:
         04:f9:04:28:e8:7a:84:7b:5f:22:76:d8:e9:07:46:c8:96:6b:
         11:5b:2f:1b:1f:ff:00:e9:77:2c:6c:22:ce:c7:1e:5d:6f:d9:
         3f:41:a4:e7:3f:59:a7:99:23:50:a8:18:27:e6:34:6e:fe:75:
         86:be:c2:4c:5f:8e:18:43:79:8c:da:86:dc:88:b3:c0:5a:58:
         06:b4:38:c7
-----BEGIN CERTIFICATE-----
MIIDeDCCAmCgAwIBAgIRAPoD+I8ugsJ7U6dtr1aMOTIwDQYJKoZIhvcNAQELBQAw
FjEUMBIGA1UEAwwLdGVhbTMyMy1uZXQwHhcNMjEwOTEzMDE0MTUwWhcNMjQwODI4
MDE0MTUwWjAZMRcwFQYDVQQDDA50ZWFtMzIzLXNlcnZlcjCCASIwDQYJKoZIhvcN
AQEBBQADggEPADCCAQoCggEBANTydq24wgRjcmiwHf0nhWKJikqGXt3nDiH/mB4E
M43YlR0gO259sUhw4s1P4NrrUCqPaWv3uDqfXPX1pnJGHPsFjwBjyYeK3y51qA+O
4NdFrXBxQff2MxVnap4YKlqyh5e2fZp+TB5kCZApv3qApnGiLiZJwgZXmHn2P3gx
5w0FP4qcQn6tgntEQUfiNplCQ1cFclS9lEv+b36IOn6mzHcTOPHNTLPcnl/C/hgY
QG6CMWrsfO/z4s0B5Dp4wqO/hdEKmFQghuqXBgvLLucKccvvYpdpm22eupznZL4D
P/fNS2IsGxG97hJtOHpnldMMFdo6btpd1a0Pd8PMcV8QAaECAwEAAaOBvTCBujAJ
BgNVHRMEAjAAMB0GA1UdDgQWBBQq45AatTfe54yTq6sz2ysQky1EBDBRBgNVHSME
SjBIgBQGb/xJX6D/f9MLvJs6n1dWx5v+pKEapBgwFjEUMBIGA1UEAwwLdGVhbTMy
My1uZXSCFBIV6NRBezctMW6lwyz3eB+qh6/CMBMGA1UdJQQMMAoGCCsGAQUFBwMB
MAsGA1UdDwQEAwIFoDAZBgNVHREEEjAQgg50ZWFtMzIzLXNlcnZlcjANBgkqhkiG
9w0BAQsFAAOCAQEAF/wYmawZAvqk8JaMcEUv2S3ebQgM1EZQmxbUj2lJjwMvfPYs
6YXdSKLoFfmYUnxPE2XQz3L1oHnzcj5KIB/+5TdI/ATEkv1UBJnwxTOQL5bTsbxW
JYJdULj2sjCRF0gNnm0OX1pp4GhYLcglPHsqTh9Fky7DcCiiJArTMm7+pBG9Pc2N
YgXc018a0wgnUls4LBhJdv53Gl3SHIHb1PYh7inKoRd3WI3BSnXydSuTvCOGGwfK
BPkEKOh6hHtfInbY6QdGyJZrEVsvGx//AOl3LGwizsceXW/ZP0Gk5z9Zp5kjUKgY
J+Y0bv51hr7CTF+OGEN5jNqG3IizwFpYBrQ4xw==
-----END CERTIFICATE-----
