Certificate:
    Data:
        Version: 3 (0x2)
        Serial Number:
            f6:90:29:fc:f4:d9:fe:16:6c:a3:83:98:2e:69:86:73
        Signature Algorithm: sha256WithRSAEncryption
        Issuer: CN=team192-net
        Validity
            Not Before: Sep 13 00:33:03 2021 GMT
            Not After : Aug 28 00:33:03 2024 GMT
        Subject: CN=team192-server
        Subject Public Key Info:
            Public Key Algorithm: rsaEncryption
                RSA Public-Key: (2048 bit)
                Modulus:
                    00:c0:19:e5:d7:e0:12:50:6f:c2:82:b0:e2:8c:69:
                    4e:81:7c:5d:17:5d:e7:ed:ce:94:72:73:0b:89:e2:
                    5c:a5:95:0c:16:53:f3:7f:2e:b2:ac:11:eb:b1:d2:
                    f0:e8:66:08:8c:27:c5:eb:41:bb:a8:63:22:2e:4d:
                    4e:42:56:b8:64:76:8d:14:f8:2d:8c:24:81:5f:a0:
                    61:3b:16:84:4c:a2:9c:1c:74:cc:8e:a7:c9:91:a4:
                    1c:34:0b:12:be:65:68:19:f3:d9:3b:08:93:f7:40:
                    83:99:eb:42:92:ff:a8:ca:06:76:22:42:dc:9d:cd:
                    ef:92:1d:39:70:2d:5f:b2:3f:57:a7:a6:0e:6e:85:
                    24:05:cd:49:2a:1f:c7:1f:29:8d:e4:83:a9:b2:22:
                    37:c1:80:9c:c4:c8:b4:ef:2f:db:f1:67:c8:09:4e:
                    22:d8:9d:ec:9b:ec:71:88:f5:19:de:67:39:68:4f:
                    e8:1e:23:f0:6b:df:ab:65:a0:17:f0:0a:47:41:08:
                    94:58:b7:a2:96:57:ac:02:5f:0d:36:2b:d8:1e:67:
                    47:25:dd:a4:a7:9f:63:2c:a1:35:d0:b4:b0:e3:61:
                    f1:0b:c8:98:08:d6:61:e7:a5:ae:9b:63:28:17:67:
                    e9:d4:12:e5:c4:78:a1:ed:83:12:7b:48:b5:85:fd:
                    de:83
                Exponent: 65537 (0x10001)
        X509v3 extensions:
            X509v3 Basic Constraints: 
                CA:FALSE
            X509v3 Subject Key Identifier: 
                97:92:FC:49:44:AC:41:AA:8A:15:5F:BC:7D:04:97:64:BE:A5:05:D6
            X509v3 Authority Key Identifier: 
                keyid:D3:CE:5C:68:B3:E3:FD:EC:FF:6D:95:C9:AD:13:68:7E:75:E0:FE:1E
                DirName:/CN=team192-net
                serial:41:BE:3D:23:C2:E6:8D:E6:F9:59:6D:8D:B6:20:4A:D6:46:56:B6:69

            X509v3 Extended Key Usage: 
                TLS Web Server Authentication
            X509v3 Key Usage: 
                Digital Signature, Key Encipherment
            X509v3 Subject Alternative Name: 
                DNS:team192-server
    Signature Algorithm: sha256WithRSAEncryption
         07:26:b2:e0:5b:44:e6:08:27:f8:f3:67:d0:db:68:2e:c5:c5:
         4a:95:fc:17:8b:94:3f:09:f9:68:52:8a:96:84:1e:09:36:9d:
         05:fb:79:d8:9d:d7:87:9f:37:69:34:d3:cd:4f:c4:98:4e:15:
         23:fc:7b:39:6a:d4:0f:7a:81:4f:cc:ef:89:8c:ec:59:97:47:
         63:39:ca:59:79:fc:3e:e7:fc:12:e4:aa:16:e5:b4:f9:a4:e7:
         35:5b:45:58:bd:20:46:05:1f:5f:9a:c6:be:db:6d:c5:78:ba:
         27:a1:bd:e4:fc:99:e8:97:74:f7:93:1b:20:07:96:24:f8:e2:
         d2:7a:78:c1:0f:2c:5d:8c:ff:7f:e7:b4:38:d6:d5:0e:1e:62:
         fb:d8:c8:2b:0d:b9:23:5e:d9:df:b2:76:4e:62:5e:61:2c:2f:
         cd:6e:db:f5:d2:8a:7d:f5:60:ff:f0:66:98:69:5a:24:ca:13:
         1e:ac:0f:30:ae:74:30:c5:e0:7e:7d:46:60:1f:f8:9f:19:df:
         e9:ec:72:76:c3:00:95:85:e0:0c:77:82:c5:57:d4:e6:e5:ac:
         e5:fa:7e:e0:55:86:2c:e4:c8:58:a7:c7:c9:28:7c:4e:24:58:
         61:6f:84:de:2e:49:2d:a3:71:47:5a:3e:2c:9a:b6:66:58:85:
         36:7c:b4:f0
-----BEGIN CERTIFICATE-----
MIIDeDCCAmCgAwIBAgIRAPaQKfz02f4WbKODmC5phnMwDQYJKoZIhvcNAQELBQAw
FjEUMBIGA1UEAwwLdGVhbTE5Mi1uZXQwHhcNMjEwOTEzMDAzMzAzWhcNMjQwODI4
MDAzMzAzWjAZMRcwFQYDVQQDDA50ZWFtMTkyLXNlcnZlcjCCASIwDQYJKoZIhvcN
AQEBBQADggEPADCCAQoCggEBAMAZ5dfgElBvwoKw4oxpToF8XRdd5+3OlHJzC4ni
XKWVDBZT838usqwR67HS8OhmCIwnxetBu6hjIi5NTkJWuGR2jRT4LYwkgV+gYTsW
hEyinBx0zI6nyZGkHDQLEr5laBnz2TsIk/dAg5nrQpL/qMoGdiJC3J3N75IdOXAt
X7I/V6emDm6FJAXNSSofxx8pjeSDqbIiN8GAnMTItO8v2/FnyAlOItid7JvscYj1
Gd5nOWhP6B4j8Gvfq2WgF/AKR0EIlFi3opZXrAJfDTYr2B5nRyXdpKefYyyhNdC0
sONh8QvImAjWYeelrptjKBdn6dQS5cR4oe2DEntItYX93oMCAwEAAaOBvTCBujAJ
BgNVHRMEAjAAMB0GA1UdDgQWBBSXkvxJRKxBqooVX7x9BJdkvqUF1jBRBgNVHSME
SjBIgBTTzlxos+P97P9tlcmtE2h+deD+HqEapBgwFjEUMBIGA1UEAwwLdGVhbTE5
Mi1uZXSCFEG+PSPC5o3m+VltjbYgStZGVrZpMBMGA1UdJQQMMAoGCCsGAQUFBwMB
MAsGA1UdDwQEAwIFoDAZBgNVHREEEjAQgg50ZWFtMTkyLXNlcnZlcjANBgkqhkiG
9w0BAQsFAAOCAQEAByay4FtE5ggn+PNn0NtoLsXFSpX8F4uUPwn5aFKKloQeCTad
Bft52J3Xh583aTTTzU/EmE4VI/x7OWrUD3qBT8zviYzsWZdHYznKWXn8Puf8EuSq
FuW0+aTnNVtFWL0gRgUfX5rGvtttxXi6J6G95PyZ6Jd095MbIAeWJPji0np4wQ8s
XYz/f+e0ONbVDh5i+9jIKw25I17Z37J2TmJeYSwvzW7b9dKKffVg//BmmGlaJMoT
HqwPMK50MMXgfn1GYB/4nxnf6exydsMAlYXgDHeCxVfU5uWs5fp+4FWGLOTIWKfH
ySh8TiRYYW+E3i5JLaNxR1o+LJq2ZliFNny08A==
-----END CERTIFICATE-----
