Certificate:
    Data:
        Version: 3 (0x2)
        Serial Number:
            3b:f5:f9:9a:f0:1b:9b:6f:27:89:66:b6:fa:b9:4f:c0
        Signature Algorithm: sha256WithRSAEncryption
        Issuer: CN=team293-net
        Validity
            Not Before: Sep 13 01:23:44 2021 GMT
            Not After : Aug 28 01:23:44 2024 GMT
        Subject: CN=team293-server
        Subject Public Key Info:
            Public Key Algorithm: rsaEncryption
                RSA Public-Key: (2048 bit)
                Modulus:
                    00:94:10:d4:34:3e:a1:66:76:05:85:9b:60:36:22:
                    c5:30:ad:cd:63:d9:d5:6c:43:f7:2d:b8:9d:98:e1:
                    44:17:4c:88:72:60:e5:b0:f5:9b:c1:6a:ce:c7:2d:
                    8f:25:da:15:9b:57:cd:80:4d:ac:75:d1:52:ce:3c:
                    3c:7d:e9:aa:43:f0:ef:1d:7e:74:37:73:9f:37:bc:
                    43:c4:b4:13:33:01:50:62:da:d1:df:7e:48:00:f8:
                    8d:cf:5b:6e:19:b4:2e:f2:10:04:9e:d7:0f:c7:11:
                    41:07:56:2c:96:9b:0a:22:07:fa:9e:3f:5e:c8:a9:
                    2c:40:9a:3c:b5:7a:f9:f2:47:06:e6:b3:53:74:3d:
                    6f:c4:ce:06:0c:fb:b1:9a:25:ef:59:25:0c:db:0b:
                    3c:7c:c6:f4:1d:c1:20:7a:77:b4:5b:b6:0d:1d:95:
                    5f:c5:20:d8:4d:1e:0a:8b:df:ea:ad:bd:02:8e:88:
                    c8:dd:23:23:61:e9:40:17:8d:cf:7c:76:0a:b1:5c:
                    4b:07:b7:a4:ca:85:39:29:e1:a6:33:37:90:cf:6c:
                    dd:d3:f9:0c:01:1b:57:2a:86:44:0e:69:a1:a0:b5:
                    b2:98:61:65:a9:9d:a1:f7:89:04:76:f9:f4:26:11:
                    8b:8b:14:34:42:d1:0e:8c:ea:0f:d8:af:bc:f2:c4:
                    95:d9
                Exponent: 65537 (0x10001)
        X509v3 extensions:
            X509v3 Basic Constraints: 
                CA:FALSE
            X509v3 Subject Key Identifier: 
                E1:35:89:4D:45:A5:F1:A8:11:4B:83:85:0C:80:EA:25:05:1C:B8:C3
            X509v3 Authority Key Identifier: 
                keyid:B2:BF:04:05:15:5B:AD:1E:B4:FC:46:FC:1B:A3:51:0B:17:8E:5D:9E
                DirName:/CN=team293-net
                serial:18:29:62:45:A0:E0:7D:C2:4B:7E:A6:92:41:8B:1B:70:D8:B0:8B:6E

            X509v3 Extended Key Usage: 
                TLS Web Server Authentication
            X509v3 Key Usage: 
                Digital Signature, Key Encipherment
            X509v3 Subject Alternative Name: 
                DNS:team293-server
    Signature Algorithm: sha256WithRSAEncryption
         80:90:95:39:09:40:ca:a7:be:21:b3:16:e9:96:52:6c:d6:63:
         34:54:09:34:2a:ae:a8:e7:d4:5e:0d:50:79:cb:d4:0e:50:86:
         01:b8:98:24:6e:7a:cc:79:41:93:f6:f9:bf:48:63:4d:b5:9d:
         87:15:23:b2:6f:0f:f1:12:73:25:e8:10:7f:57:50:19:54:14:
         3e:72:c2:7a:86:92:96:ae:be:94:f9:b5:27:01:64:c9:d1:d4:
         14:ab:b3:cf:c0:46:7e:1c:d3:7b:5c:92:e1:12:85:b6:51:e4:
         23:01:97:35:90:3c:47:26:f2:48:63:4f:ae:51:b9:df:fc:10:
         5a:3f:9d:f2:3d:a3:b6:5f:2a:e3:45:49:84:cc:ce:99:5e:17:
         ab:57:0c:ed:89:a8:b7:32:f3:e9:09:e8:24:5f:37:b0:df:20:
         df:c1:b1:72:3c:d0:6d:d4:fc:36:ff:0b:e5:fc:ed:c1:3d:eb:
         0d:a5:c0:47:d5:5a:1d:b6:27:83:a1:2f:4b:d3:a9:fe:c4:b6:
         e4:07:51:83:6f:fd:0e:43:41:dc:b4:89:42:73:fb:40:8c:60:
         a8:43:af:d4:3c:96:fd:01:4e:e9:52:81:54:8c:c2:c2:c5:93:
         45:92:ac:6d:60:c3:89:80:dd:75:01:1f:d6:9c:00:db:e6:77:
         a2:eb:43:ed
-----BEGIN CERTIFICATE-----
MIIDdzCCAl+gAwIBAgIQO/X5mvAbm28niWa2+rlPwDANBgkqhkiG9w0BAQsFADAW
MRQwEgYDVQQDDAt0ZWFtMjkzLW5ldDAeFw0yMTA5MTMwMTIzNDRaFw0yNDA4Mjgw
MTIzNDRaMBkxFzAVBgNVBAMMDnRlYW0yOTMtc2VydmVyMIIBIjANBgkqhkiG9w0B
AQEFAAOCAQ8AMIIBCgKCAQEAlBDUND6hZnYFhZtgNiLFMK3NY9nVbEP3LbidmOFE
F0yIcmDlsPWbwWrOxy2PJdoVm1fNgE2sddFSzjw8femqQ/DvHX50N3OfN7xDxLQT
MwFQYtrR335IAPiNz1tuGbQu8hAEntcPxxFBB1YslpsKIgf6nj9eyKksQJo8tXr5
8kcG5rNTdD1vxM4GDPuxmiXvWSUM2ws8fMb0HcEgene0W7YNHZVfxSDYTR4Ki9/q
rb0CjojI3SMjYelAF43PfHYKsVxLB7ekyoU5KeGmMzeQz2zd0/kMARtXKoZEDmmh
oLWymGFlqZ2h94kEdvn0JhGLixQ0QtEOjOoP2K+88sSV2QIDAQABo4G9MIG6MAkG
A1UdEwQCMAAwHQYDVR0OBBYEFOE1iU1FpfGoEUuDhQyA6iUFHLjDMFEGA1UdIwRK
MEiAFLK/BAUVW60etPxG/BujUQsXjl2eoRqkGDAWMRQwEgYDVQQDDAt0ZWFtMjkz
LW5ldIIUGCliRaDgfcJLfqaSQYsbcNiwi24wEwYDVR0lBAwwCgYIKwYBBQUHAwEw
CwYDVR0PBAQDAgWgMBkGA1UdEQQSMBCCDnRlYW0yOTMtc2VydmVyMA0GCSqGSIb3
DQEBCwUAA4IBAQCAkJU5CUDKp74hsxbpllJs1mM0VAk0Kq6o59ReDVB5y9QOUIYB
uJgkbnrMeUGT9vm/SGNNtZ2HFSOybw/xEnMl6BB/V1AZVBQ+csJ6hpKWrr6U+bUn
AWTJ0dQUq7PPwEZ+HNN7XJLhEoW2UeQjAZc1kDxHJvJIY0+uUbnf/BBaP53yPaO2
XyrjRUmEzM6ZXherVwztiai3MvPpCegkXzew3yDfwbFyPNBt1Pw2/wvl/O3BPesN
pcBH1VodtieDoS9L06n+xLbkB1GDb/0OQ0HctIlCc/tAjGCoQ6/UPJb9AU7pUoFU
jMLCxZNFkqxtYMOJgN11AR/WnADb5nei60Pt
-----END CERTIFICATE-----
