Certificate:
    Data:
        Version: 3 (0x2)
        Serial Number:
            d9:00:8a:40:96:90:a1:72:cc:bf:b7:a5:0c:4a:3e:bf
        Signature Algorithm: sha256WithRSAEncryption
        Issuer: CN=team293-net
        Validity
            Not Before: Sep 13 01:23:44 2021 GMT
            Not After : Aug 28 01:23:44 2024 GMT
        Subject: CN=team293-client
        Subject Public Key Info:
            Public Key Algorithm: rsaEncryption
                RSA Public-Key: (2048 bit)
                Modulus:
                    00:d3:2a:86:73:26:af:14:55:c6:f7:68:fa:05:be:
                    74:57:d9:45:d7:ed:23:72:fd:54:d7:14:95:68:51:
                    1c:c0:54:10:81:58:34:6f:79:86:ef:cd:81:e8:45:
                    ca:7e:ad:a5:a2:f2:db:30:2d:d5:6f:ec:f9:d1:cf:
                    b9:91:dc:9d:49:dd:4c:d1:8b:6a:e0:b2:51:fc:93:
                    0d:42:d9:af:65:f4:2e:74:00:ce:57:07:49:0d:22:
                    2a:94:09:e6:02:11:cb:e5:e6:38:7d:d9:2f:22:99:
                    51:2a:97:95:bf:f3:3c:68:c2:f5:05:5d:28:af:4b:
                    36:f4:c9:12:cb:b5:55:18:c2:d2:d4:e4:83:e9:80:
                    db:f0:38:17:be:b0:03:af:69:9d:4a:a5:6e:2a:ca:
                    09:3e:98:3c:b1:87:ab:86:ac:eb:ec:8b:7c:1e:27:
                    8b:47:af:4e:05:65:ef:84:16:c5:db:cc:83:08:77:
                    86:5e:46:12:45:f1:77:43:c6:4c:c2:c5:14:e9:ec:
                    8e:10:77:b3:e3:61:5d:ec:ae:7e:62:e2:2b:b2:91:
                    f8:20:4a:2c:63:bb:44:bd:70:09:87:d4:9b:90:d3:
                    8b:cb:95:c8:d2:aa:34:66:4f:ca:5a:37:f9:e3:aa:
                    78:bb:34:58:87:d7:3a:5b:64:df:cf:c1:ef:16:08:
                    bf:57
                Exponent: 65537 (0x10001)
        X509v3 extensions:
            X509v3 Basic Constraints: 
                CA:FALSE
            X509v3 Subject Key Identifier: 
                77:64:F6:9F:D4:41:CA:D1:76:43:93:CE:E1:5A:7D:DD:90:19:85:26
            X509v3 Authority Key Identifier: 
                keyid:B2:BF:04:05:15:5B:AD:1E:B4:FC:46:FC:1B:A3:51:0B:17:8E:5D:9E
                DirName:/CN=team293-net
                serial:18:29:62:45:A0:E0:7D:C2:4B:7E:A6:92:41:8B:1B:70:D8:B0:8B:6E

            X509v3 Extended Key Usage: 
                TLS Web Client Authentication
            X509v3 Key Usage: 
                Digital Signature
    Signature Algorithm: sha256WithRSAEncryption
         35:cb:ea:99:81:81:ca:f6:68:31:a7:58:01:10:51:15:80:71:
         63:6d:80:50:ed:63:14:6e:02:89:e2:91:6c:3e:5b:40:7b:fb:
         20:d6:b5:37:9e:79:e7:56:57:64:e3:cd:da:9f:04:22:31:71:
         be:ce:eb:99:8d:b9:af:6f:73:70:70:32:bb:38:4f:09:f2:1d:
         79:33:d4:7e:39:ab:1b:c6:17:3d:2d:5d:ea:99:cb:ec:26:02:
         ba:d2:43:c1:1b:42:93:28:99:c9:8d:ad:00:e5:45:12:a4:8f:
         97:59:80:a2:57:d2:c7:12:59:a2:72:85:08:b5:43:85:39:65:
         ce:16:ef:25:ad:da:3b:91:1e:5a:f9:4d:dd:d5:91:85:d8:4c:
         2e:d2:e2:47:e7:63:88:c0:3a:ba:3c:dd:4f:c1:a1:ab:8e:1a:
         13:43:51:32:3e:8d:05:a2:5b:9b:3d:06:b7:db:9e:96:04:bd:
         c8:8b:b5:33:cf:e8:69:2d:07:60:ba:be:b7:45:e9:c2:ad:6b:
         58:eb:90:45:5d:ab:16:70:99:3a:07:35:70:a5:94:58:e7:12:
         a2:8f:27:91:c2:dd:7c:b8:5b:10:70:32:5a:c5:d9:99:24:c9:
         7c:6e:dc:30:83:cc:e9:bb:f8:f1:60:66:65:ee:bc:78:51:2c:
         ea:0c:e7:3c
-----BEGIN CERTIFICATE-----
MIIDXTCCAkWgAwIBAgIRANkAikCWkKFyzL+3pQxKPr8wDQYJKoZIhvcNAQELBQAw
FjEUMBIGA1UEAwwLdGVhbTI5My1uZXQwHhcNMjEwOTEzMDEyMzQ0WhcNMjQwODI4
MDEyMzQ0WjAZMRcwFQYDVQQDDA50ZWFtMjkzLWNsaWVudDCCASIwDQYJKoZIhvcN
AQEBBQADggEPADCCAQoCggEBANMqhnMmrxRVxvdo+gW+dFfZRdftI3L9VNcUlWhR
HMBUEIFYNG95hu/NgehFyn6tpaLy2zAt1W/s+dHPuZHcnUndTNGLauCyUfyTDULZ
r2X0LnQAzlcHSQ0iKpQJ5gIRy+XmOH3ZLyKZUSqXlb/zPGjC9QVdKK9LNvTJEsu1
VRjC0tTkg+mA2/A4F76wA69pnUqlbirKCT6YPLGHq4as6+yLfB4ni0evTgVl74QW
xdvMgwh3hl5GEkXxd0PGTMLFFOnsjhB3s+NhXeyufmLiK7KR+CBKLGO7RL1wCYfU
m5DTi8uVyNKqNGZPylo3+eOqeLs0WIfXOltk38/B7xYIv1cCAwEAAaOBojCBnzAJ
BgNVHRMEAjAAMB0GA1UdDgQWBBR3ZPaf1EHK0XZDk87hWn3dkBmFJjBRBgNVHSME
SjBIgBSyvwQFFVutHrT8Rvwbo1ELF45dnqEapBgwFjEUMBIGA1UEAwwLdGVhbTI5
My1uZXSCFBgpYkWg4H3CS36mkkGLG3DYsItuMBMGA1UdJQQMMAoGCCsGAQUFBwMC
MAsGA1UdDwQEAwIHgDANBgkqhkiG9w0BAQsFAAOCAQEANcvqmYGByvZoMadYARBR
FYBxY22AUO1jFG4CieKRbD5bQHv7INa1N55551ZXZOPN2p8EIjFxvs7rmY25r29z
cHAyuzhPCfIdeTPUfjmrG8YXPS1d6pnL7CYCutJDwRtCkyiZyY2tAOVFEqSPl1mA
olfSxxJZonKFCLVDhTllzhbvJa3aO5EeWvlN3dWRhdhMLtLiR+djiMA6ujzdT8Gh
q44aE0NRMj6NBaJbmz0Gt9uelgS9yIu1M8/oaS0HYLq+t0Xpwq1rWOuQRV2rFnCZ
Ogc1cKWUWOcSoo8nkcLdfLhbEHAyWsXZmSTJfG7cMIPM6bv48WBmZe68eFEs6gzn
PA==
-----END CERTIFICATE-----
