Certificate:
    Data:
        Version: 3 (0x2)
        Serial Number:
            cd:6b:dd:e1:91:ee:c5:a7:c7:48:48:48:2f:73:76:62
        Signature Algorithm: sha256WithRSAEncryption
        Issuer: CN=team13-net
        Validity
            Not Before: Sep 12 22:45:51 2021 GMT
            Not After : Aug 27 22:45:51 2024 GMT
        Subject: CN=team13-client
        Subject Public Key Info:
            Public Key Algorithm: rsaEncryption
                RSA Public-Key: (2048 bit)
                Modulus:
                    00:e8:82:46:45:16:c6:49:c0:62:0d:23:3b:b9:5d:
                    7f:b8:e8:a9:a1:17:6f:0e:49:a4:e9:52:28:1f:31:
                    50:33:c2:dd:98:04:99:d7:fa:a9:a0:97:d3:97:06:
                    80:8b:41:15:8b:db:ca:2d:00:55:5b:a8:de:b3:b2:
                    e8:b8:82:67:09:6b:60:41:50:ae:ae:fb:38:3f:95:
                    e4:27:3e:da:55:df:56:82:e3:01:37:3f:f8:20:f3:
                    77:47:c7:5f:4d:21:f2:de:11:77:fd:c2:07:eb:ec:
                    11:03:e1:54:c2:c1:58:7e:5e:45:e9:d6:50:e5:33:
                    ed:3c:e3:55:b5:2d:0c:a0:35:aa:4f:43:91:75:3a:
                    79:ea:b9:d2:46:03:6a:9c:ac:f2:8e:98:fb:56:bf:
                    a3:b5:9b:2e:b7:66:45:52:b1:50:7e:bc:1a:cf:72:
                    2c:ce:70:2e:cd:f7:39:12:2c:14:a6:bf:ad:b4:99:
                    26:c2:d8:39:4c:2c:50:74:35:91:76:5a:af:7e:a9:
                    67:c0:85:e6:e1:a7:49:76:d3:84:76:db:c2:a7:28:
                    3e:f5:4e:3b:98:c8:d3:39:62:3e:5d:c6:5f:f8:02:
                    8a:89:b3:3d:0b:7d:a7:39:ed:be:0f:93:12:ec:4d:
                    03:2a:fa:7f:67:f5:2c:65:fe:71:b4:c9:3f:1f:bb:
                    2f:d7
                Exponent: 65537 (0x10001)
        X509v3 extensions:
            X509v3 Basic Constraints: 
                CA:FALSE
            X509v3 Subject Key Identifier: 
                1C:B1:04:3B:BB:76:E6:98:E3:2B:FA:D6:13:1C:9A:8F:C5:28:02:01
            X509v3 Authority Key Identifier: 
                keyid:D8:41:DD:77:77:DD:84:BE:8E:79:7D:0E:C5:E9:66:5A:6A:86:73:95
                DirName:/CN=team13-net
                serial:72:60:A5:AE:27:EB:37:3A:1F:DB:C5:92:9B:7B:26:F3:35:F6:16:4E

            X509v3 Extended Key Usage: 
                TLS Web Client Authentication
            X509v3 Key Usage: 
                Digital Signature
    Signature Algorithm: sha256WithRSAEncryption
         b7:bf:5d:c2:69:c6:57:af:46:bf:65:33:06:60:95:81:b9:71:
         87:e6:1c:18:43:3e:56:91:93:9b:b4:c6:7a:46:81:76:73:32:
         ba:9b:d8:48:d3:7a:f2:3e:62:53:dc:55:b6:6c:c5:9d:60:7c:
         17:55:9c:1c:2c:73:ae:1a:1f:66:c1:5d:9b:66:f4:fd:1c:b8:
         d2:c1:4c:3b:19:c7:0a:76:22:55:8e:2e:4c:ae:9d:aa:94:99:
         02:86:7b:ee:69:1f:99:05:2f:42:28:8e:70:29:ca:5c:44:77:
         0c:7c:08:6d:24:c0:6f:6e:8b:ea:4e:5e:e4:e4:2d:2d:2b:47:
         00:7b:e5:47:ab:d0:c1:cb:91:41:2c:66:88:e3:6e:68:6d:a9:
         82:2b:06:21:cc:b4:2d:6c:b2:9f:a9:97:31:8f:76:12:c0:cc:
         80:03:b1:1d:90:9f:e4:c9:b0:78:67:8f:b1:76:ec:9a:b0:cb:
         ff:4e:3c:7f:d4:ba:25:b8:ea:6c:85:52:aa:b3:30:5f:f3:96:
         4e:23:d9:73:46:53:b4:b2:60:8e:30:75:e7:22:fe:74:4c:c4:
         ba:09:f7:05:24:cb:cc:85:d0:9c:ae:45:d3:b8:e7:b4:88:f9:
         44:06:ff:ef:42:fa:32:48:ac:fd:0b:3b:7b:ac:3c:9f:22:23:
         1e:6f:74:f3
-----BEGIN CERTIFICATE-----
MIIDWjCCAkKgAwIBAgIRAM1r3eGR7sWnx0hISC9zdmIwDQYJKoZIhvcNAQELBQAw
FTETMBEGA1UEAwwKdGVhbTEzLW5ldDAeFw0yMTA5MTIyMjQ1NTFaFw0yNDA4Mjcy
MjQ1NTFaMBgxFjAUBgNVBAMMDXRlYW0xMy1jbGllbnQwggEiMA0GCSqGSIb3DQEB
AQUAA4IBDwAwggEKAoIBAQDogkZFFsZJwGINIzu5XX+46KmhF28OSaTpUigfMVAz
wt2YBJnX+qmgl9OXBoCLQRWL28otAFVbqN6zsui4gmcJa2BBUK6u+zg/leQnPtpV
31aC4wE3P/gg83dHx19NIfLeEXf9wgfr7BED4VTCwVh+XkXp1lDlM+0841W1LQyg
NapPQ5F1OnnqudJGA2qcrPKOmPtWv6O1my63ZkVSsVB+vBrPcizOcC7N9zkSLBSm
v620mSbC2DlMLFB0NZF2Wq9+qWfAhebhp0l204R228KnKD71TjuYyNM5Yj5dxl/4
AoqJsz0Lfac57b4PkxLsTQMq+n9n9Sxl/nG0yT8fuy/XAgMBAAGjgaEwgZ4wCQYD
VR0TBAIwADAdBgNVHQ4EFgQUHLEEO7t25pjjK/rWExyaj8UoAgEwUAYDVR0jBEkw
R4AU2EHdd3fdhL6OeX0OxelmWmqGc5WhGaQXMBUxEzARBgNVBAMMCnRlYW0xMy1u
ZXSCFHJgpa4n6zc6H9vFkpt7JvM19hZOMBMGA1UdJQQMMAoGCCsGAQUFBwMCMAsG
A1UdDwQEAwIHgDANBgkqhkiG9w0BAQsFAAOCAQEAt79dwmnGV69Gv2UzBmCVgblx
h+YcGEM+VpGTm7TGekaBdnMyupvYSNN68j5iU9xVtmzFnWB8F1WcHCxzrhofZsFd
m2b0/Ry40sFMOxnHCnYiVY4uTK6dqpSZAoZ77mkfmQUvQiiOcCnKXER3DHwIbSTA
b26L6k5e5OQtLStHAHvlR6vQwcuRQSxmiONuaG2pgisGIcy0LWyyn6mXMY92EsDM
gAOxHZCf5MmweGePsXbsmrDL/048f9S6JbjqbIVSqrMwX/OWTiPZc0ZTtLJgjjB1
5yL+dEzEugn3BSTLzIXQnK5F07jntIj5RAb/70L6Mkis/Qs7e6w8nyIjHm908w==
-----END CERTIFICATE-----
