Certificate:
    Data:
        Version: 3 (0x2)
        Serial Number:
            c5:dd:f2:0a:e4:2f:3b:98:70:84:f0:16:f0:3e:6e:e4
        Signature Algorithm: sha256WithRSAEncryption
        Issuer: CN=team85-net
        Validity
            Not Before: Sep 12 23:28:46 2021 GMT
            Not After : Aug 27 23:28:46 2024 GMT
        Subject: CN=team85-server
        Subject Public Key Info:
            Public Key Algorithm: rsaEncryption
                RSA Public-Key: (2048 bit)
                Modulus:
                    00:d1:a9:4c:4c:c7:93:fd:dc:c4:46:45:fc:8b:c9:
                    ab:4d:44:3e:01:68:b4:4e:de:51:ff:f0:39:74:c5:
                    dc:f0:a9:bc:4a:36:29:f4:0e:15:e5:5f:d2:1d:d6:
                    26:ec:1b:f7:bb:b1:f2:7c:84:e6:3b:de:6d:c1:f9:
                    82:40:16:55:fa:05:84:17:d4:29:23:d7:ae:47:b7:
                    0d:e2:ed:81:44:e8:e1:7f:7d:c3:d3:63:ed:64:75:
                    44:3b:43:26:73:12:5a:8a:ff:6a:20:10:fd:1a:7a:
                    fe:4e:77:3e:cd:db:f8:a3:86:27:41:ce:75:b4:55:
                    29:73:2d:90:ac:8d:c0:a3:36:bc:7d:5e:a3:4e:9d:
                    1a:b0:10:77:22:ab:40:7d:cc:16:f0:40:71:6c:75:
                    ec:43:d6:78:ae:4d:7b:dd:ae:25:f8:77:c0:83:be:
                    7a:8a:01:b2:ae:87:0f:5b:90:8e:bd:42:63:0e:96:
                    7e:c1:28:f4:de:62:a7:c9:b7:28:72:ab:61:ac:54:
                    4a:04:eb:0a:f3:f0:c1:de:e7:ca:09:e7:45:60:42:
                    fb:3e:e3:c6:a6:02:bd:0a:58:ee:f1:65:cd:ce:13:
                    6a:b2:66:b1:7c:48:b7:31:7c:76:e9:57:a9:c5:b9:
                    35:c5:d1:42:8f:4c:f3:2a:13:d3:ee:c3:0c:a6:b4:
                    40:b1
                Exponent: 65537 (0x10001)
        X509v3 extensions:
            X509v3 Basic Constraints: 
                CA:FALSE
            X509v3 Subject Key Identifier: 
                38:37:07:82:D5:07:F0:17:17:17:0E:07:33:5C:32:5E:75:39:65:51
            X509v3 Authority Key Identifier: 
                keyid:4B:F0:65:90:B7:36:A3:7D:89:A6:EA:70:01:66:77:53:A7:D5:2C:7B
                DirName:/CN=team85-net
                serial:49:DC:04:79:6E:0B:2B:6E:E8:5B:0E:76:B2:2D:0D:F9:6F:B2:CE:11

            X509v3 Extended Key Usage: 
                TLS Web Server Authentication
            X509v3 Key Usage: 
                Digital Signature, Key Encipherment
            X509v3 Subject Alternative Name: 
                DNS:team85-server
    Signature Algorithm: sha256WithRSAEncryption
         9b:25:0c:d2:9d:e9:e3:8e:fa:be:57:94:40:fb:18:a5:e1:c2:
         d6:a7:15:3a:90:10:f7:2b:6d:9b:bb:1f:5e:5d:8e:13:8c:91:
         8a:60:91:1b:7d:50:75:44:6f:57:06:c3:32:df:5c:ac:7f:e7:
         26:52:14:92:2f:62:bd:64:bb:d6:e4:ab:5f:bc:ce:c8:ca:d3:
         b6:6f:85:01:4c:d4:ec:dd:30:b1:e2:a2:58:ca:f9:f4:12:70:
         06:12:6f:9c:9a:22:59:19:9d:d1:b0:4f:60:ad:10:79:bc:80:
         ef:12:a8:fe:f9:7a:fe:94:c8:e1:8c:52:67:85:a6:f2:40:03:
         9b:ec:8f:af:74:62:aa:ee:63:bf:e9:64:4b:4c:ec:db:1d:a0:
         20:dd:ca:84:5f:6c:b0:08:73:4a:2f:fb:e4:34:2f:f3:d4:16:
         60:aa:77:67:34:74:54:bd:1d:91:8b:b5:56:77:6e:69:80:e5:
         8e:24:1d:02:48:b0:dc:4e:39:b7:3f:3b:2e:38:dd:1b:91:89:
         77:35:0f:53:a2:29:5c:fe:36:f9:f6:a8:bd:c5:d3:12:0a:08:
         4e:a8:fd:fa:b7:13:49:4d:5e:5b:d8:93:c1:fe:c0:d9:c5:96:
         4c:5d:98:95:b3:f0:ed:8b:fc:ec:20:d3:13:2f:85:8e:bf:ab:
         2d:4a:a8:6b
-----BEGIN CERTIFICATE-----
MIIDdDCCAlygAwIBAgIRAMXd8grkLzuYcITwFvA+buQwDQYJKoZIhvcNAQELBQAw
FTETMBEGA1UEAwwKdGVhbTg1LW5ldDAeFw0yMTA5MTIyMzI4NDZaFw0yNDA4Mjcy
MzI4NDZaMBgxFjAUBgNVBAMMDXRlYW04NS1zZXJ2ZXIwggEiMA0GCSqGSIb3DQEB
AQUAA4IBDwAwggEKAoIBAQDRqUxMx5P93MRGRfyLyatNRD4BaLRO3lH/8Dl0xdzw
qbxKNin0DhXlX9Id1ibsG/e7sfJ8hOY73m3B+YJAFlX6BYQX1Ckj165Htw3i7YFE
6OF/fcPTY+1kdUQ7QyZzElqK/2ogEP0aev5Odz7N2/ijhidBznW0VSlzLZCsjcCj
Nrx9XqNOnRqwEHciq0B9zBbwQHFsdexD1niuTXvdriX4d8CDvnqKAbKuhw9bkI69
QmMOln7BKPTeYqfJtyhyq2GsVEoE6wrz8MHe58oJ50VgQvs+48amAr0KWO7xZc3O
E2qyZrF8SLcxfHbpV6nFuTXF0UKPTPMqE9PuwwymtECxAgMBAAGjgbswgbgwCQYD
VR0TBAIwADAdBgNVHQ4EFgQUODcHgtUH8BcXFw4HM1wyXnU5ZVEwUAYDVR0jBEkw
R4AUS/BlkLc2o32JpupwAWZ3U6fVLHuhGaQXMBUxEzARBgNVBAMMCnRlYW04NS1u
ZXSCFEncBHluCytu6FsOdrItDflvss4RMBMGA1UdJQQMMAoGCCsGAQUFBwMBMAsG
A1UdDwQEAwIFoDAYBgNVHREEETAPgg10ZWFtODUtc2VydmVyMA0GCSqGSIb3DQEB
CwUAA4IBAQCbJQzSnenjjvq+V5RA+xil4cLWpxU6kBD3K22bux9eXY4TjJGKYJEb
fVB1RG9XBsMy31ysf+cmUhSSL2K9ZLvW5KtfvM7IytO2b4UBTNTs3TCx4qJYyvn0
EnAGEm+cmiJZGZ3RsE9grRB5vIDvEqj++Xr+lMjhjFJnhabyQAOb7I+vdGKq7mO/
6WRLTOzbHaAg3cqEX2ywCHNKL/vkNC/z1BZgqndnNHRUvR2Ri7VWd25pgOWOJB0C
SLDcTjm3PzsuON0bkYl3NQ9Toilc/jb59qi9xdMSCghOqP36txNJTV5b2JPB/sDZ
xZZMXZiVs/Dti/zsINMTL4WOv6stSqhr
-----END CERTIFICATE-----
