Certificate:
    Data:
        Version: 3 (0x2)
        Serial Number:
            5c:ac:d7:79:bc:f3:92:69:b9:6f:dc:95:e8:ca:65:ba
        Signature Algorithm: sha256WithRSAEncryption
        Issuer: CN=team42-net
        Validity
            Not Before: Sep 12 23:05:38 2021 GMT
            Not After : Aug 27 23:05:38 2024 GMT
        Subject: CN=team42-client
        Subject Public Key Info:
            Public Key Algorithm: rsaEncryption
                RSA Public-Key: (2048 bit)
                Modulus:
                    00:c4:90:f9:de:57:2a:82:5f:d7:99:f5:59:d2:bc:
                    4e:b3:8d:92:25:03:1c:44:d9:54:8c:a7:84:df:d1:
                    a3:74:72:d9:bd:cc:e8:91:55:e2:5d:6d:e2:c9:16:
                    61:de:ed:85:ab:65:25:1a:86:5d:eb:51:2a:ee:0a:
                    2a:16:50:ff:72:df:41:75:c4:f3:d0:3a:b7:f9:9e:
                    a0:b1:05:56:fb:78:cd:9d:0f:fc:1c:eb:cf:f3:f6:
                    05:05:99:fe:e7:ad:66:c0:1e:6e:16:89:b1:2b:f9:
                    fe:b4:4c:32:ce:4a:61:bb:ce:7a:90:a5:37:4d:91:
                    5d:32:58:e9:9d:9e:ff:20:6e:cc:55:4e:b8:94:7c:
                    bc:b8:06:28:53:ae:b5:32:ce:21:bf:84:fc:9f:bd:
                    ba:44:c4:14:dd:fb:f4:87:4a:53:82:31:38:12:2e:
                    be:2f:48:2e:49:7e:f1:3a:90:c8:9e:77:8c:1c:2c:
                    2d:4b:92:c1:9e:4c:fd:c3:11:89:f5:c7:f7:40:24:
                    ba:5f:32:47:9a:5e:be:4e:3b:15:b0:6c:0b:91:1b:
                    b7:18:88:19:f3:bb:89:40:81:e5:47:7f:c7:e1:47:
                    8c:b4:bc:58:74:eb:4f:06:8f:39:ba:02:63:eb:e6:
                    1a:ef:e9:33:ab:cc:ad:60:47:ce:ec:2e:0a:11:ed:
                    b8:c7
                Exponent: 65537 (0x10001)
        X509v3 extensions:
            X509v3 Basic Constraints: 
                CA:FALSE
            X509v3 Subject Key Identifier: 
                F8:A4:60:FB:A3:06:51:30:48:CC:27:F9:F6:49:C1:1E:7A:4F:81:58
            X509v3 Authority Key Identifier: 
                keyid:FF:C2:C7:26:C2:3D:F8:5C:3E:BD:84:16:C8:97:43:FD:79:00:B9:A8
                DirName:/CN=team42-net
                serial:23:0C:2D:5A:F2:AB:4C:A0:9C:D8:5B:6C:02:6B:26:5E:BC:38:03:DC

            X509v3 Extended Key Usage: 
                TLS Web Client Authentication
            X509v3 Key Usage: 
                Digital Signature
    Signature Algorithm: sha256WithRSAEncryption
         58:d5:a9:f4:9c:35:d0:4d:b4:f7:25:09:a5:ef:c8:fb:21:a3:
         5b:5a:8b:34:6c:90:b9:c0:7e:12:be:17:c3:c8:db:f8:b0:eb:
         74:ba:b2:db:5b:c0:c2:0b:bc:bd:d2:8a:0f:d6:0e:16:91:80:
         84:29:44:16:02:86:3d:c4:c4:1d:f5:ae:26:de:7c:86:f6:56:
         e6:9c:84:df:ee:3c:e7:5c:94:76:05:f0:43:6c:ad:08:c0:19:
         11:79:bd:67:e1:5b:00:fc:de:01:68:f4:10:b9:16:be:f4:89:
         22:45:15:2c:ca:81:f9:c3:d7:ba:c4:64:b4:b5:e1:ef:e7:a5:
         e4:17:0c:ea:a3:86:28:d1:ee:3d:b6:e8:45:7e:7b:bc:3a:42:
         eb:3e:cb:c1:0b:17:c6:41:03:df:ca:43:c8:62:c6:0d:22:c9:
         bd:7e:97:ec:34:62:95:0d:a8:24:68:a2:e7:e0:6d:ac:9c:32:
         9a:f7:c8:5f:bc:4e:ba:4b:d5:d2:b1:53:1c:88:f0:4d:77:7e:
         83:69:e2:95:d0:d3:5f:30:9d:40:21:ee:98:18:3d:70:06:09:
         dc:ac:54:58:0c:48:8c:fa:05:10:32:99:f9:be:d6:69:f9:de:
         1c:02:5c:41:68:36:35:63:97:79:54:92:b6:37:24:5a:d7:14:
         b2:47:53:57
-----BEGIN CERTIFICATE-----
MIIDWTCCAkGgAwIBAgIQXKzXebzzkmm5b9yV6MplujANBgkqhkiG9w0BAQsFADAV
MRMwEQYDVQQDDAp0ZWFtNDItbmV0MB4XDTIxMDkxMjIzMDUzOFoXDTI0MDgyNzIz
MDUzOFowGDEWMBQGA1UEAwwNdGVhbTQyLWNsaWVudDCCASIwDQYJKoZIhvcNAQEB
BQADggEPADCCAQoCggEBAMSQ+d5XKoJf15n1WdK8TrONkiUDHETZVIynhN/Ro3Ry
2b3M6JFV4l1t4skWYd7thatlJRqGXetRKu4KKhZQ/3LfQXXE89A6t/meoLEFVvt4
zZ0P/Bzrz/P2BQWZ/uetZsAebhaJsSv5/rRMMs5KYbvOepClN02RXTJY6Z2e/yBu
zFVOuJR8vLgGKFOutTLOIb+E/J+9ukTEFN379IdKU4IxOBIuvi9ILkl+8TqQyJ53
jBwsLUuSwZ5M/cMRifXH90Akul8yR5pevk47FbBsC5EbtxiIGfO7iUCB5Ud/x+FH
jLS8WHTrTwaPOboCY+vmGu/pM6vMrWBHzuwuChHtuMcCAwEAAaOBoTCBnjAJBgNV
HRMEAjAAMB0GA1UdDgQWBBT4pGD7owZRMEjMJ/n2ScEeek+BWDBQBgNVHSMESTBH
gBT/wscmwj34XD69hBbIl0P9eQC5qKEZpBcwFTETMBEGA1UEAwwKdGVhbTQyLW5l
dIIUIwwtWvKrTKCc2FtsAmsmXrw4A9wwEwYDVR0lBAwwCgYIKwYBBQUHAwIwCwYD
VR0PBAQDAgeAMA0GCSqGSIb3DQEBCwUAA4IBAQBY1an0nDXQTbT3JQml78j7IaNb
Wos0bJC5wH4SvhfDyNv4sOt0urLbW8DCC7y90ooP1g4WkYCEKUQWAoY9xMQd9a4m
3nyG9lbmnITf7jznXJR2BfBDbK0IwBkReb1n4VsA/N4BaPQQuRa+9IkiRRUsyoH5
w9e6xGS0teHv56XkFwzqo4Yo0e49tuhFfnu8OkLrPsvBCxfGQQPfykPIYsYNIsm9
fpfsNGKVDagkaKLn4G2snDKa98hfvE66S9XSsVMciPBNd36DaeKV0NNfMJ1AIe6Y
GD1wBgncrFRYDEiM+gUQMpn5vtZp+d4cAlxBaDY1Y5d5VJK2NyRa1xSyR1NX
-----END CERTIFICATE-----
