Certificate:
    Data:
        Version: 3 (0x2)
        Serial Number:
            4b:d9:e9:ba:3b:80:09:b9:36:14:ea:15:72:e3:47:ce
        Signature Algorithm: sha256WithRSAEncryption
        Issuer: CN=team583-net
        Validity
            Not Before: Sep 13 04:05:03 2021 GMT
            Not After : Aug 28 04:05:03 2024 GMT
        Subject: CN=team583-server
        Subject Public Key Info:
            Public Key Algorithm: rsaEncryption
                RSA Public-Key: (2048 bit)
                Modulus:
                    00:c4:34:aa:31:41:61:ec:48:16:b8:78:95:89:3b:
                    5d:b8:c9:f9:36:c0:76:2c:4d:4a:d6:c9:93:8b:a4:
                    87:6c:a8:8a:3d:c0:94:cc:4b:70:c0:0f:a4:e9:06:
                    62:d0:72:56:64:1b:f8:0c:d7:c8:9d:7b:33:ba:ed:
                    a7:68:b2:51:1b:17:83:29:39:a2:51:b0:ab:94:da:
                    05:65:e3:8f:ff:f4:30:45:fd:1a:c3:b1:da:04:ee:
                    4f:5e:1b:b4:f7:17:11:f1:20:4a:76:76:6d:0a:a7:
                    43:24:b7:03:b9:86:da:6a:a2:7e:93:b4:b8:80:d8:
                    d2:85:63:0f:a6:67:39:95:df:aa:0d:6c:94:a5:03:
                    b3:d4:b4:49:aa:2a:c9:03:13:46:04:ef:56:d5:f6:
                    60:e4:18:b9:b0:96:70:3d:b6:df:5a:02:4f:03:c9:
                    29:e5:24:8f:04:af:dd:94:c6:a0:bd:7c:87:cb:7e:
                    4c:07:9d:3c:80:d5:3a:39:33:8a:e6:dc:75:d7:c6:
                    e7:e7:b9:8b:f8:33:92:56:fd:22:93:64:3c:10:9e:
                    bb:84:0f:6f:0e:4b:84:b7:ae:21:03:5d:45:61:e0:
                    00:63:09:f2:78:81:bf:ee:da:26:a7:33:38:d8:33:
                    06:dd:61:9c:f7:60:f7:d6:04:75:c8:77:cc:7a:3e:
                    f0:9f
                Exponent: 65537 (0x10001)
        X509v3 extensions:
            X509v3 Basic Constraints: 
                CA:FALSE
            X509v3 Subject Key Identifier: 
                9F:E5:B7:63:84:BB:46:22:7E:20:69:5A:BD:0D:E1:17:D2:2F:25:6D
            X509v3 Authority Key Identifier: 
                keyid:E7:80:57:FC:FD:97:47:91:E8:2B:91:E7:ED:0A:63:97:29:0F:BE:26
                DirName:/CN=team583-net
                serial:66:3E:39:C3:0A:37:CC:34:A3:20:7D:69:56:9E:DB:72:21:D5:B9:01

            X509v3 Extended Key Usage: 
                TLS Web Server Authentication
            X509v3 Key Usage: 
                Digital Signature, Key Encipherment
            X509v3 Subject Alternative Name: 
                DNS:team583-server
    Signature Algorithm: sha256WithRSAEncryption
         38:2e:13:85:9b:b8:01:5f:f3:eb:ba:a7:03:3d:25:35:34:d5:
         0c:d8:5a:0c:02:ad:f7:8f:60:84:8a:a4:e2:bf:c8:3b:44:3f:
         10:d1:58:5c:43:e1:f9:02:09:19:23:71:1c:34:28:53:95:99:
         77:a7:cd:35:1a:2f:e3:fa:4b:68:13:a4:74:4a:eb:ea:96:4a:
         1d:f5:ee:b0:b9:2f:1b:55:9f:9c:1c:58:93:f0:0d:ab:48:2b:
         cb:47:e1:ce:96:1d:be:50:77:a2:89:c0:8a:0b:93:ee:94:4c:
         f2:33:a5:26:9e:84:76:b6:81:66:f4:bf:70:07:68:e0:1b:b0:
         dd:0d:d6:57:90:52:91:a0:9a:7e:fe:00:83:93:ec:0c:30:71:
         8a:6b:d6:61:a3:f8:ec:06:87:ac:8a:12:5d:61:d3:c7:8f:4d:
         6a:63:5d:20:d0:3d:55:f5:d8:21:f5:49:35:6a:68:a3:52:25:
         ae:84:a1:3c:71:fa:56:ee:16:cb:f2:ff:77:14:d3:e7:b4:66:
         d1:63:bc:0b:5d:81:19:9f:72:e1:98:a6:b2:df:42:d8:8f:9a:
         ef:1c:37:38:0e:15:80:a9:3b:60:ad:38:7b:23:05:9e:9d:93:
         48:71:fd:f2:4a:62:52:b0:31:61:89:12:46:06:92:be:56:36:
         f6:7e:53:5c
-----BEGIN CERTIFICATE-----
MIIDdzCCAl+gAwIBAgIQS9npujuACbk2FOoVcuNHzjANBgkqhkiG9w0BAQsFADAW
MRQwEgYDVQQDDAt0ZWFtNTgzLW5ldDAeFw0yMTA5MTMwNDA1MDNaFw0yNDA4Mjgw
NDA1MDNaMBkxFzAVBgNVBAMMDnRlYW01ODMtc2VydmVyMIIBIjANBgkqhkiG9w0B
AQEFAAOCAQ8AMIIBCgKCAQEAxDSqMUFh7EgWuHiViTtduMn5NsB2LE1K1smTi6SH
bKiKPcCUzEtwwA+k6QZi0HJWZBv4DNfInXszuu2naLJRGxeDKTmiUbCrlNoFZeOP
//QwRf0aw7HaBO5PXhu09xcR8SBKdnZtCqdDJLcDuYbaaqJ+k7S4gNjShWMPpmc5
ld+qDWyUpQOz1LRJqirJAxNGBO9W1fZg5Bi5sJZwPbbfWgJPA8kp5SSPBK/dlMag
vXyHy35MB508gNU6OTOK5tx118bn57mL+DOSVv0ik2Q8EJ67hA9vDkuEt64hA11F
YeAAYwnyeIG/7tompzM42DMG3WGc92D31gR1yHfMej7wnwIDAQABo4G9MIG6MAkG
A1UdEwQCMAAwHQYDVR0OBBYEFJ/lt2OEu0YifiBpWr0N4RfSLyVtMFEGA1UdIwRK
MEiAFOeAV/z9l0eR6CuR5+0KY5cpD74moRqkGDAWMRQwEgYDVQQDDAt0ZWFtNTgz
LW5ldIIUZj45wwo3zDSjIH1pVp7bciHVuQEwEwYDVR0lBAwwCgYIKwYBBQUHAwEw
CwYDVR0PBAQDAgWgMBkGA1UdEQQSMBCCDnRlYW01ODMtc2VydmVyMA0GCSqGSIb3
DQEBCwUAA4IBAQA4LhOFm7gBX/PruqcDPSU1NNUM2FoMAq33j2CEiqTiv8g7RD8Q
0VhcQ+H5AgkZI3EcNChTlZl3p801Gi/j+ktoE6R0Suvqlkod9e6wuS8bVZ+cHFiT
8A2rSCvLR+HOlh2+UHeiicCKC5PulEzyM6UmnoR2toFm9L9wB2jgG7DdDdZXkFKR
oJp+/gCDk+wMMHGKa9Zho/jsBoesihJdYdPHj01qY10g0D1V9dgh9Uk1amijUiWu
hKE8cfpW7hbL8v93FNPntGbRY7wLXYEZn3LhmKay30LYj5rvHDc4DhWAqTtgrTh7
IwWenZNIcf3ySmJSsDFhiRJGBpK+Vjb2flNc
-----END CERTIFICATE-----
