Certificate:
    Data:
        Version: 3 (0x2)
        Serial Number:
            f3:de:57:3e:45:3e:3e:00:d3:8e:a1:fa:e3:8d:76:75
        Signature Algorithm: sha256WithRSAEncryption
        Issuer: CN=team704-net
        Validity
            Not Before: Sep 13 04:52:05 2021 GMT
            Not After : Aug 28 04:52:05 2024 GMT
        Subject: CN=team704-client
        Subject Public Key Info:
            Public Key Algorithm: rsaEncryption
                RSA Public-Key: (2048 bit)
                Modulus:
                    00:b6:48:ec:a4:ad:30:ad:84:6b:68:c8:b9:d0:5c:
                    10:0d:46:ce:ff:48:4b:d4:bb:8f:57:92:1b:88:2a:
                    82:74:04:94:1d:f3:c8:34:3f:71:81:d0:1f:ca:b5:
                    0d:ff:0b:eb:66:62:91:50:d4:01:fc:53:4f:37:38:
                    08:7a:1f:9b:a3:69:6c:0a:9b:1f:c1:76:29:ac:d1:
                    13:b7:c4:02:1a:2a:88:fe:42:4c:9a:55:fb:50:97:
                    9f:e3:2a:0a:6d:66:d5:b2:cb:a6:a6:fd:94:a1:88:
                    34:54:05:22:83:ec:88:25:0f:44:a8:e0:3d:40:1f:
                    f9:78:1b:d7:da:05:a0:93:82:ab:6c:58:a1:c9:4a:
                    e4:ca:4a:91:bd:4c:0b:00:11:47:f3:94:4b:dd:d0:
                    c2:1e:4c:e9:a1:b9:cd:88:09:32:a1:b3:7e:57:8b:
                    2a:86:4a:aa:ed:84:31:88:70:f5:2f:44:7d:20:f3:
                    d8:df:2f:a3:de:34:b8:d4:f1:88:e1:81:b0:3c:9c:
                    72:2f:bd:60:a6:97:ea:e9:cb:b9:3a:11:26:58:6e:
                    31:7c:a2:89:ac:89:6c:2a:5a:a1:d7:ed:9e:e5:b0:
                    a8:78:c5:bf:08:43:31:f3:80:0b:b9:69:bb:52:4b:
                    a7:8b:1b:6b:2e:58:73:8a:fd:45:c7:6f:4a:b6:15:
                    f4:f1
                Exponent: 65537 (0x10001)
        X509v3 extensions:
            X509v3 Basic Constraints: 
                CA:FALSE
            X509v3 Subject Key Identifier: 
                3A:B1:5B:0D:1F:0F:41:42:94:5A:41:85:C4:CE:47:8E:5D:D1:3A:2A
            X509v3 Authority Key Identifier: 
                keyid:E3:6C:69:97:D1:82:EE:26:C5:D1:FD:7B:CE:89:9C:D6:E4:0B:A6:03
                DirName:/CN=team704-net
                serial:53:7E:24:34:F9:3C:FF:8A:C6:F3:98:A7:A4:02:D8:51:D5:75:E9:2E

            X509v3 Extended Key Usage: 
                TLS Web Client Authentication
            X509v3 Key Usage: 
                Digital Signature
    Signature Algorithm: sha256WithRSAEncryption
         a3:e9:4c:76:d2:e7:32:b9:50:cd:ed:de:b3:9b:27:0e:bc:09:
         52:03:99:22:68:0e:dd:a4:c5:52:be:f7:b3:36:d4:f4:ad:b8:
         0e:0e:8a:e9:b7:e0:ed:5d:1d:50:10:60:7a:7c:dd:87:c9:e7:
         d9:c2:da:b4:54:47:f7:7f:c0:fd:54:e2:95:6f:7a:56:78:38:
         e1:c5:aa:81:7b:e9:2b:1c:cb:da:f1:76:95:56:e8:fe:80:e8:
         99:f8:d2:94:9b:ea:4c:a7:f1:53:d8:b6:c4:84:4a:97:88:bc:
         66:ff:08:d5:73:7d:61:42:3c:8b:6c:7a:6e:5b:86:86:7c:20:
         48:db:79:6c:a8:aa:f2:f1:53:b0:1d:21:a5:ef:62:a5:a9:7b:
         f3:e6:09:5f:40:9a:d3:88:e9:69:d5:e4:7d:8c:6e:2e:27:e6:
         9e:50:60:36:f6:71:f4:f9:80:f5:97:5c:a6:86:86:d5:8d:f3:
         24:02:fb:29:05:04:5d:57:85:14:31:e6:ab:e3:47:8e:cd:54:
         9b:05:47:a7:ea:fd:03:10:25:dd:bd:ed:4a:a6:44:87:e1:53:
         6d:20:0f:3f:cf:b7:a6:5e:57:72:ba:3e:36:45:04:d9:26:b5:
         05:eb:63:c9:13:57:66:34:a1:ee:ee:9d:67:1c:7b:b2:58:c7:
         f6:68:45:73
-----BEGIN CERTIFICATE-----
MIIDXTCCAkWgAwIBAgIRAPPeVz5FPj4A046h+uONdnUwDQYJKoZIhvcNAQELBQAw
FjEUMBIGA1UEAwwLdGVhbTcwNC1uZXQwHhcNMjEwOTEzMDQ1MjA1WhcNMjQwODI4
MDQ1MjA1WjAZMRcwFQYDVQQDDA50ZWFtNzA0LWNsaWVudDCCASIwDQYJKoZIhvcN
AQEBBQADggEPADCCAQoCggEBALZI7KStMK2Ea2jIudBcEA1Gzv9IS9S7j1eSG4gq
gnQElB3zyDQ/cYHQH8q1Df8L62ZikVDUAfxTTzc4CHofm6NpbAqbH8F2KazRE7fE
AhoqiP5CTJpV+1CXn+MqCm1m1bLLpqb9lKGINFQFIoPsiCUPRKjgPUAf+Xgb19oF
oJOCq2xYoclK5MpKkb1MCwARR/OUS93Qwh5M6aG5zYgJMqGzfleLKoZKqu2EMYhw
9S9EfSDz2N8vo940uNTxiOGBsDycci+9YKaX6unLuToRJlhuMXyiiayJbCpaodft
nuWwqHjFvwhDMfOAC7lpu1JLp4sbay5Yc4r9RcdvSrYV9PECAwEAAaOBojCBnzAJ
BgNVHRMEAjAAMB0GA1UdDgQWBBQ6sVsNHw9BQpRaQYXEzkeOXdE6KjBRBgNVHSME
SjBIgBTjbGmX0YLuJsXR/XvOiZzW5AumA6EapBgwFjEUMBIGA1UEAwwLdGVhbTcw
NC1uZXSCFFN+JDT5PP+KxvOYp6QC2FHVdekuMBMGA1UdJQQMMAoGCCsGAQUFBwMC
MAsGA1UdDwQEAwIHgDANBgkqhkiG9w0BAQsFAAOCAQEAo+lMdtLnMrlQze3es5sn
DrwJUgOZImgO3aTFUr73szbU9K24Dg6K6bfg7V0dUBBgenzdh8nn2cLatFRH93/A
/VTilW96Vng44cWqgXvpKxzL2vF2lVbo/oDomfjSlJvqTKfxU9i2xIRKl4i8Zv8I
1XN9YUI8i2x6bluGhnwgSNt5bKiq8vFTsB0hpe9ipal78+YJX0Ca04jpadXkfYxu
LifmnlBgNvZx9PmA9ZdcpoaG1Y3zJAL7KQUEXVeFFDHmq+NHjs1UmwVHp+r9AxAl
3b3tSqZEh+FTbSAPP8+3pl5Xcro+NkUE2Sa1BetjyRNXZjSh7u6dZxx7sljH9mhF
cw==
-----END CERTIFICATE-----
