Certificate:
    Data:
        Version: 3 (0x2)
        Serial Number:
            25:8d:e4:f4:fe:48:36:84:45:92:48:51:d3:a7:b1:89
        Signature Algorithm: sha256WithRSAEncryption
        Issuer: CN=team1-net
        Validity
            Not Before: Sep 12 22:35:06 2021 GMT
            Not After : Aug 27 22:35:06 2024 GMT
        Subject: CN=team1-server
        Subject Public Key Info:
            Public Key Algorithm: rsaEncryption
                RSA Public-Key: (2048 bit)
                Modulus:
                    00:c8:3f:79:cf:1b:fb:56:9e:01:c3:bc:f4:db:2c:
                    27:93:f0:f6:8b:66:ab:fa:54:7d:8d:3b:9e:5d:a9:
                    88:00:33:3c:c8:98:f3:09:ec:52:57:b4:0f:48:f5:
                    ac:a0:2d:87:e2:5f:13:96:7a:2a:bc:94:5f:e3:40:
                    47:aa:9b:36:96:70:27:28:3c:2b:ec:de:e1:1d:cc:
                    a5:97:5e:42:8e:ec:43:cd:dc:64:26:95:1b:65:49:
                    88:2c:00:e5:49:34:6a:03:5c:d1:1d:32:3e:bb:e3:
                    e1:2c:39:b3:77:90:6c:c0:c0:30:b5:5b:8f:72:29:
                    b3:9b:3c:e9:0e:f4:a1:92:aa:60:06:ca:ca:06:61:
                    8d:2e:de:c2:84:08:2f:78:10:03:68:b2:db:3c:a6:
                    26:ab:10:84:64:e7:3d:91:29:f4:f0:c9:a3:eb:9b:
                    9f:dd:78:f8:e7:df:d5:17:8a:bd:0b:25:4b:f7:ce:
                    9c:cd:3b:32:f4:65:92:0b:4b:03:c6:92:0d:b7:8b:
                    86:f1:8c:1e:76:fc:8e:fe:65:4f:06:40:22:cf:f9:
                    e4:9e:29:f9:b9:4b:d1:e2:25:73:fe:6b:2d:16:60:
                    28:b4:a3:2c:71:7a:66:88:ad:12:b7:4e:a5:fb:b2:
                    a1:1f:2b:86:26:2c:45:ba:81:b9:fa:c2:03:c5:27:
                    a9:11
                Exponent: 65537 (0x10001)
        X509v3 extensions:
            X509v3 Basic Constraints: 
                CA:FALSE
            X509v3 Subject Key Identifier: 
                2E:3C:30:D2:89:1A:78:FF:39:CC:45:1C:46:3B:6F:3E:34:99:53:5D
            X509v3 Authority Key Identifier: 
                keyid:3A:E4:DE:E1:54:DF:2E:2A:4B:E1:41:38:60:46:88:86:E8:77:3A:A9
                DirName:/CN=team1-net
                serial:30:41:D9:B0:F5:C0:76:33:B5:D3:36:79:F2:13:4E:F0:6B:44:C5:1F

            X509v3 Extended Key Usage: 
                TLS Web Server Authentication
            X509v3 Key Usage: 
                Digital Signature, Key Encipherment
            X509v3 Subject Alternative Name: 
                DNS:team1-server
    Signature Algorithm: sha256WithRSAEncryption
         4f:6a:f3:69:59:26:7d:82:c5:36:04:a2:21:cc:62:f0:bf:f7:
         c2:8c:8f:d4:de:7d:97:84:21:c3:67:97:d2:38:5f:43:f2:5d:
         b0:02:31:ef:32:3a:41:87:df:4d:40:b3:1a:6a:d6:8f:d0:8a:
         1d:73:3b:62:80:07:ec:77:07:85:da:8b:2f:43:e8:a2:fe:24:
         29:f8:19:d1:a3:57:8a:24:34:89:99:33:6b:42:38:9e:8f:b1:
         1f:31:61:31:9f:d0:32:48:1c:78:95:5c:44:70:ed:89:8a:dd:
         3e:18:c3:d4:dc:09:00:4f:91:c4:ca:3e:6e:2f:3c:6f:3c:be:
         0e:4f:c7:6e:19:b0:7a:fa:84:6d:1f:06:00:fe:85:0d:68:32:
         32:82:80:8d:b8:b1:59:bf:e2:e6:8d:45:aa:0f:24:8c:25:0e:
         6f:d0:63:f2:93:df:df:10:29:71:66:a7:e5:75:e8:51:1f:fa:
         6a:1b:ea:fc:3a:0d:0c:de:c0:c7:cc:a5:a0:7f:5c:9f:40:e8:
         d7:62:3a:23:44:75:8f:b5:b4:dd:77:99:b3:81:9a:4c:98:84:
         3a:60:37:ac:83:f1:3a:7e:c8:99:0d:11:64:bb:1e:c4:63:a0:
         75:d0:32:26:99:c0:92:65:83:2b:64:46:27:3a:b0:ff:11:b4:
         29:ca:df:16
-----BEGIN CERTIFICATE-----
MIIDbzCCAlegAwIBAgIQJY3k9P5INoRFkkhR06exiTANBgkqhkiG9w0BAQsFADAU
MRIwEAYDVQQDDAl0ZWFtMS1uZXQwHhcNMjEwOTEyMjIzNTA2WhcNMjQwODI3MjIz
NTA2WjAXMRUwEwYDVQQDDAx0ZWFtMS1zZXJ2ZXIwggEiMA0GCSqGSIb3DQEBAQUA
A4IBDwAwggEKAoIBAQDIP3nPG/tWngHDvPTbLCeT8PaLZqv6VH2NO55dqYgAMzzI
mPMJ7FJXtA9I9aygLYfiXxOWeiq8lF/jQEeqmzaWcCcoPCvs3uEdzKWXXkKO7EPN
3GQmlRtlSYgsAOVJNGoDXNEdMj674+EsObN3kGzAwDC1W49yKbObPOkO9KGSqmAG
ysoGYY0u3sKECC94EANosts8piarEIRk5z2RKfTwyaPrm5/dePjn39UXir0LJUv3
zpzNOzL0ZZILSwPGkg23i4bxjB52/I7+ZU8GQCLP+eSeKfm5S9HiJXP+ay0WYCi0
oyxxemaIrRK3TqX7sqEfK4YmLEW6gbn6wgPFJ6kRAgMBAAGjgbkwgbYwCQYDVR0T
BAIwADAdBgNVHQ4EFgQULjww0okaeP85zEUcRjtvPjSZU10wTwYDVR0jBEgwRoAU
OuTe4VTfLipL4UE4YEaIhuh3OqmhGKQWMBQxEjAQBgNVBAMMCXRlYW0xLW5ldIIU
MEHZsPXAdjO10zZ58hNO8GtExR8wEwYDVR0lBAwwCgYIKwYBBQUHAwEwCwYDVR0P
BAQDAgWgMBcGA1UdEQQQMA6CDHRlYW0xLXNlcnZlcjANBgkqhkiG9w0BAQsFAAOC
AQEAT2rzaVkmfYLFNgSiIcxi8L/3woyP1N59l4Qhw2eX0jhfQ/JdsAIx7zI6QYff
TUCzGmrWj9CKHXM7YoAH7HcHhdqLL0Poov4kKfgZ0aNXiiQ0iZkza0I4no+xHzFh
MZ/QMkgceJVcRHDtiYrdPhjD1NwJAE+RxMo+bi88bzy+Dk/HbhmwevqEbR8GAP6F
DWgyMoKAjbixWb/i5o1Fqg8kjCUOb9Bj8pPf3xApcWan5XXoUR/6ahvq/DoNDN7A
x8yloH9cn0Do12I6I0R1j7W03XeZs4GaTJiEOmA3rIPxOn7ImQ0RZLsexGOgddAy
JpnAkmWDK2RGJzqw/xG0KcrfFg==
-----END CERTIFICATE-----
