Certificate:
    Data:
        Version: 3 (0x2)
        Serial Number:
            64:a5:2a:fe:c7:e4:a2:3a:0a:68:da:c6:a0:a4:86:78
        Signature Algorithm: sha256WithRSAEncryption
        Issuer: CN=team198-net
        Validity
            Not Before: Sep 13 00:35:20 2021 GMT
            Not After : Aug 28 00:35:20 2024 GMT
        Subject: CN=team198-client
        Subject Public Key Info:
            Public Key Algorithm: rsaEncryption
                RSA Public-Key: (2048 bit)
                Modulus:
                    00:9e:44:6c:6a:d1:5e:12:4f:0e:5f:cb:fd:ef:68:
                    d5:1e:4b:11:68:62:42:4a:0c:73:6f:7b:42:07:5a:
                    6b:75:46:98:8d:1e:44:1b:43:4c:31:20:bd:9b:1b:
                    af:04:e5:9e:db:50:4f:33:ec:5b:95:fb:c4:bd:e9:
                    f6:91:ba:23:c8:58:ed:a0:37:b1:8a:b2:da:09:e6:
                    de:aa:56:0f:55:13:d8:a4:a3:ec:c4:af:33:01:75:
                    26:45:85:dc:b7:ed:8d:ec:17:56:ca:ae:07:77:f1:
                    3c:dc:ec:8e:69:91:d7:09:7c:da:02:6b:3c:d7:cd:
                    d9:26:18:56:8c:90:a0:c2:bf:c3:a1:40:d4:39:4c:
                    1e:42:20:5c:83:7b:0d:42:4c:49:5f:4d:18:b2:1d:
                    55:fe:3b:27:7f:a0:d2:af:ea:45:2c:55:ad:ea:ff:
                    5e:a2:fe:b1:56:af:87:c5:36:85:07:79:2e:e1:3c:
                    0b:57:43:27:10:e9:50:a2:61:05:5b:64:07:16:a7:
                    34:35:27:17:ca:6b:bb:43:ff:50:81:bc:6a:54:fc:
                    b7:a3:c2:88:8c:ad:71:cf:43:83:42:b1:e4:ef:1b:
                    75:17:2d:4d:b9:4d:3d:d7:98:08:3c:6f:c0:48:79:
                    9c:43:98:9e:1b:e0:66:24:c7:c9:60:94:0d:47:34:
                    2d:85
                Exponent: 65537 (0x10001)
        X509v3 extensions:
            X509v3 Basic Constraints: 
                CA:FALSE
            X509v3 Subject Key Identifier: 
                8F:B9:57:38:96:55:F8:C8:0A:F5:4E:40:17:81:54:90:8D:89:A9:88
            X509v3 Authority Key Identifier: 
                keyid:9E:11:F3:7E:ED:D5:8E:2C:F8:61:10:45:FF:30:E8:F3:B6:17:E2:96
                DirName:/CN=team198-net
                serial:34:16:31:D1:9E:A4:F1:39:E6:A1:CC:B4:37:AE:51:A2:59:E3:7E:CD

            X509v3 Extended Key Usage: 
                TLS Web Client Authentication
            X509v3 Key Usage: 
                Digital Signature
    Signature Algorithm: sha256WithRSAEncryption
         51:dd:ee:50:b4:82:d2:18:77:d6:6d:a5:ca:8f:51:a2:ce:be:
         d5:ba:8f:3f:69:31:dc:8b:6c:c9:f7:d4:f0:ac:92:4e:38:79:
         d8:2a:99:66:c2:92:cd:ce:ec:af:ab:21:c6:54:4b:d1:4d:d8:
         5f:f2:7d:f2:95:cf:56:d2:1a:82:a4:0e:cb:ba:04:25:7f:6a:
         e3:c1:19:54:f5:c1:4d:be:87:e3:b3:8c:a4:a3:64:b3:a7:6d:
         1c:79:b6:c4:c2:5f:bc:3b:e0:93:2b:c4:8d:91:dd:91:d0:02:
         b5:28:63:0d:f0:ff:d9:d5:67:92:b2:d7:8c:f7:8e:0b:7b:cf:
         6f:c3:9a:b2:14:8c:a1:af:b3:d5:be:1a:d4:0f:1b:18:41:40:
         9d:9b:6e:2f:50:f4:b4:49:3a:19:12:18:fd:7e:21:ce:7e:a2:
         c1:aa:7f:82:6b:1f:bb:b8:04:39:87:12:59:57:df:77:33:a6:
         03:c4:ce:80:dc:f4:04:57:f3:89:fd:06:5e:b3:e4:4c:f2:ff:
         02:ed:54:15:e9:6d:95:b3:48:79:7f:90:38:95:4f:24:32:07:
         49:16:04:2a:e6:76:8e:0b:f8:09:39:de:14:eb:a4:d4:11:b7:
         02:e0:7d:4f:2b:65:3d:e3:0e:e4:6a:e9:0b:ac:c4:4d:8d:2d:
         b6:ef:c6:db
-----BEGIN CERTIFICATE-----
MIIDXDCCAkSgAwIBAgIQZKUq/sfkojoKaNrGoKSGeDANBgkqhkiG9w0BAQsFADAW
MRQwEgYDVQQDDAt0ZWFtMTk4LW5ldDAeFw0yMTA5MTMwMDM1MjBaFw0yNDA4Mjgw
MDM1MjBaMBkxFzAVBgNVBAMMDnRlYW0xOTgtY2xpZW50MIIBIjANBgkqhkiG9w0B
AQEFAAOCAQ8AMIIBCgKCAQEAnkRsatFeEk8OX8v972jVHksRaGJCSgxzb3tCB1pr
dUaYjR5EG0NMMSC9mxuvBOWe21BPM+xblfvEven2kbojyFjtoDexirLaCebeqlYP
VRPYpKPsxK8zAXUmRYXct+2N7BdWyq4Hd/E83OyOaZHXCXzaAms8183ZJhhWjJCg
wr/DoUDUOUweQiBcg3sNQkxJX00Ysh1V/jsnf6DSr+pFLFWt6v9eov6xVq+HxTaF
B3ku4TwLV0MnEOlQomEFW2QHFqc0NScXymu7Q/9QgbxqVPy3o8KIjK1xz0ODQrHk
7xt1Fy1NuU0915gIPG/ASHmcQ5ieG+BmJMfJYJQNRzQthQIDAQABo4GiMIGfMAkG
A1UdEwQCMAAwHQYDVR0OBBYEFI+5VziWVfjICvVOQBeBVJCNiamIMFEGA1UdIwRK
MEiAFJ4R837t1Y4s+GEQRf8w6PO2F+KWoRqkGDAWMRQwEgYDVQQDDAt0ZWFtMTk4
LW5ldIIUNBYx0Z6k8Tnmocy0N65Rolnjfs0wEwYDVR0lBAwwCgYIKwYBBQUHAwIw
CwYDVR0PBAQDAgeAMA0GCSqGSIb3DQEBCwUAA4IBAQBR3e5QtILSGHfWbaXKj1Gi
zr7Vuo8/aTHci2zJ99TwrJJOOHnYKplmwpLNzuyvqyHGVEvRTdhf8n3ylc9W0hqC
pA7LugQlf2rjwRlU9cFNvofjs4yko2Szp20cebbEwl+8O+CTK8SNkd2R0AK1KGMN
8P/Z1WeSsteM944Le89vw5qyFIyhr7PVvhrUDxsYQUCdm24vUPS0SToZEhj9fiHO
fqLBqn+Cax+7uAQ5hxJZV993M6YDxM6A3PQEV/OJ/QZes+RM8v8C7VQV6W2Vs0h5
f5A4lU8kMgdJFgQq5naOC/gJOd4U66TUEbcC4H1PK2U94w7kaukLrMRNjS2278bb
-----END CERTIFICATE-----
