Certificate:
    Data:
        Version: 3 (0x2)
        Serial Number:
            d2:b4:49:4c:20:79:49:ab:a1:d1:e1:55:99:c3:3a:05
        Signature Algorithm: sha256WithRSAEncryption
        Issuer: CN=team588-net
        Validity
            Not Before: Sep 13 03:54:36 2021 GMT
            Not After : Aug 28 03:54:36 2024 GMT
        Subject: CN=team588-server
        Subject Public Key Info:
            Public Key Algorithm: rsaEncryption
                RSA Public-Key: (2048 bit)
                Modulus:
                    00:e2:c8:10:40:b2:93:2e:1b:bd:05:65:10:8e:1c:
                    6d:6d:5e:57:5f:33:45:c2:27:d7:17:24:d9:e9:16:
                    a0:45:d0:e9:17:01:3d:69:b9:72:47:c6:1c:d0:cb:
                    57:c2:a3:34:42:14:c7:35:b9:64:fa:f9:33:f4:e9:
                    d3:6d:f4:90:57:49:72:9f:0d:4d:5c:69:23:14:41:
                    ca:13:7d:20:44:fa:fc:65:03:d9:8d:6f:7b:a3:a1:
                    c3:c5:a3:eb:f5:4c:70:ef:96:5a:dd:3f:82:a8:17:
                    54:07:f6:75:31:60:2e:09:13:9d:00:d1:ce:f1:47:
                    5c:7f:f2:ab:92:48:3c:0d:25:d6:3c:1b:b6:af:0c:
                    95:71:ef:20:7c:df:b1:39:d8:eb:a8:82:98:2c:db:
                    f4:0f:a3:64:cd:be:b0:7b:c4:c0:79:57:ea:7d:31:
                    b7:a5:dc:d4:4f:df:7a:47:ee:b8:5a:0e:0f:93:c9:
                    df:c3:85:4a:7f:4d:19:6a:13:e0:e5:34:4f:0b:6c:
                    4d:cb:f0:3c:d6:db:1a:6c:d2:00:6b:fa:f7:e2:f6:
                    06:9e:82:29:9c:15:6d:38:cb:81:ac:fc:8b:57:a2:
                    59:db:58:bf:62:d4:42:2d:41:1d:e4:ab:3d:e8:22:
                    9a:8f:a4:00:5d:05:54:fa:04:f9:c6:4b:4f:e2:fd:
                    52:69
                Exponent: 65537 (0x10001)
        X509v3 extensions:
            X509v3 Basic Constraints: 
                CA:FALSE
            X509v3 Subject Key Identifier: 
                CA:0E:DA:40:89:7F:5F:75:D7:90:2C:F2:FA:DA:F8:48:8C:08:18:F2
            X509v3 Authority Key Identifier: 
                keyid:E6:A9:51:06:30:B0:DE:18:13:5A:8E:63:A6:BE:A2:AC:AA:B0:6F:95
                DirName:/CN=team588-net
                serial:47:11:66:74:2A:97:30:E6:93:11:58:CE:C9:44:1B:56:0E:83:88:19

            X509v3 Extended Key Usage: 
                TLS Web Server Authentication
            X509v3 Key Usage: 
                Digital Signature, Key Encipherment
            X509v3 Subject Alternative Name: 
                DNS:team588-server
    Signature Algorithm: sha256WithRSAEncryption
         35:73:41:09:58:45:06:8d:6b:bd:21:c3:4d:68:f4:66:98:29:
         17:73:13:07:b6:32:6b:a2:4d:f8:98:6a:6f:d2:11:00:cc:09:
         7d:60:1c:ba:55:cd:5a:13:7b:69:d7:8b:c2:4e:ee:8e:70:85:
         57:f7:2d:5b:37:51:c9:1a:1d:e5:62:dc:69:a1:dd:06:c2:fd:
         87:83:1b:4b:c7:b0:24:3b:00:92:b1:04:0b:99:92:de:af:7c:
         ea:92:e3:8e:34:9b:ba:5b:4d:f9:47:04:59:42:b8:f3:a3:9d:
         af:95:34:79:f9:65:80:e7:b9:77:d3:98:97:b7:11:eb:b6:35:
         0f:52:49:9a:63:55:fe:aa:3d:84:8e:e1:7b:68:59:4a:dd:c5:
         0f:a5:ce:5c:70:1c:33:c5:b6:be:5d:52:f5:bb:9b:e4:17:7f:
         3a:82:e4:d7:a9:61:d6:2b:b3:c4:0d:c9:5a:9d:18:91:64:01:
         98:6e:c2:af:91:0b:d3:ea:d9:09:48:4a:39:d9:3b:6d:48:b1:
         c5:ce:45:35:7d:7b:cd:f0:80:58:c9:b9:f0:2d:fa:a6:89:39:
         04:88:af:91:ff:98:6a:8a:c2:98:63:47:71:7e:0a:bb:11:65:
         b1:83:4a:f2:7f:06:a4:26:03:3e:14:b1:17:64:d6:16:21:46:
         5a:51:f0:20
-----BEGIN CERTIFICATE-----
MIIDeDCCAmCgAwIBAgIRANK0SUwgeUmrodHhVZnDOgUwDQYJKoZIhvcNAQELBQAw
FjEUMBIGA1UEAwwLdGVhbTU4OC1uZXQwHhcNMjEwOTEzMDM1NDM2WhcNMjQwODI4
MDM1NDM2WjAZMRcwFQYDVQQDDA50ZWFtNTg4LXNlcnZlcjCCASIwDQYJKoZIhvcN
AQEBBQADggEPADCCAQoCggEBAOLIEECyky4bvQVlEI4cbW1eV18zRcIn1xck2ekW
oEXQ6RcBPWm5ckfGHNDLV8KjNEIUxzW5ZPr5M/Tp0230kFdJcp8NTVxpIxRByhN9
IET6/GUD2Y1ve6Ohw8Wj6/VMcO+WWt0/gqgXVAf2dTFgLgkTnQDRzvFHXH/yq5JI
PA0l1jwbtq8MlXHvIHzfsTnY66iCmCzb9A+jZM2+sHvEwHlX6n0xt6Xc1E/fekfu
uFoOD5PJ38OFSn9NGWoT4OU0TwtsTcvwPNbbGmzSAGv69+L2Bp6CKZwVbTjLgaz8
i1eiWdtYv2LUQi1BHeSrPegimo+kAF0FVPoE+cZLT+L9UmkCAwEAAaOBvTCBujAJ
BgNVHRMEAjAAMB0GA1UdDgQWBBTKDtpAiX9fddeQLPL62vhIjAgY8jBRBgNVHSME
SjBIgBTmqVEGMLDeGBNajmOmvqKsqrBvlaEapBgwFjEUMBIGA1UEAwwLdGVhbTU4
OC1uZXSCFEcRZnQqlzDmkxFYzslEG1YOg4gZMBMGA1UdJQQMMAoGCCsGAQUFBwMB
MAsGA1UdDwQEAwIFoDAZBgNVHREEEjAQgg50ZWFtNTg4LXNlcnZlcjANBgkqhkiG
9w0BAQsFAAOCAQEANXNBCVhFBo1rvSHDTWj0ZpgpF3MTB7Yya6JN+Jhqb9IRAMwJ
fWAculXNWhN7adeLwk7ujnCFV/ctWzdRyRod5WLcaaHdBsL9h4MbS8ewJDsAkrEE
C5mS3q986pLjjjSbultN+UcEWUK486Odr5U0efllgOe5d9OYl7cR67Y1D1JJmmNV
/qo9hI7he2hZSt3FD6XOXHAcM8W2vl1S9bub5Bd/OoLk16lh1iuzxA3JWp0YkWQB
mG7Cr5EL0+rZCUhKOdk7bUixxc5FNX17zfCAWMm58C36pok5BIivkf+YaorCmGNH
cX4KuxFlsYNK8n8GpCYDPhSxF2TWFiFGWlHwIA==
-----END CERTIFICATE-----
