Certificate:
    Data:
        Version: 3 (0x2)
        Serial Number:
            9c:c0:c9:9a:d9:c3:33:91:29:05:6e:e6:31:37:da:75
        Signature Algorithm: sha256WithRSAEncryption
        Issuer: CN=team408-net
        Validity
            Not Before: Sep 13 02:23:19 2021 GMT
            Not After : Aug 28 02:23:19 2024 GMT
        Subject: CN=team408-client
        Subject Public Key Info:
            Public Key Algorithm: rsaEncryption
                RSA Public-Key: (2048 bit)
                Modulus:
                    00:d1:59:bf:d2:ff:51:5d:33:62:7d:75:86:a7:ad:
                    73:f7:e4:48:49:21:55:c1:f4:b8:bb:f6:f1:51:33:
                    6f:28:36:ff:30:bf:39:d8:21:ac:d8:b4:9a:73:6f:
                    85:b7:b6:d3:4a:ec:c5:a8:d6:8a:df:69:65:00:bf:
                    e5:d7:13:79:1a:49:eb:35:1e:21:bb:4e:58:16:b9:
                    9a:6b:15:63:39:ff:c4:20:af:41:0f:8e:42:18:b1:
                    bd:21:ce:3a:6d:62:e1:e7:82:b2:7a:b3:88:1d:b2:
                    1e:33:1c:d2:73:03:bc:26:48:64:03:b0:fe:64:1a:
                    06:b9:ae:83:2f:45:1b:21:53:e1:aa:90:98:62:1b:
                    15:5d:0b:58:12:28:c2:56:5c:5e:d1:43:c3:6a:e4:
                    c4:dc:11:59:94:cc:b8:e6:63:ff:43:4e:5b:c7:79:
                    d7:bc:e5:dd:1c:94:c4:ac:01:b2:a8:3e:5d:7b:4c:
                    e9:eb:8d:0c:79:1b:0b:2b:8d:2a:74:7f:3e:a4:59:
                    47:5a:3f:34:7a:40:70:a4:5e:83:7f:21:1f:a6:e6:
                    9b:73:db:95:6f:95:56:4d:29:59:f7:b2:37:a1:db:
                    ea:6d:37:a5:09:c5:af:2e:9b:69:14:d1:85:f3:2c:
                    10:f9:78:36:e7:21:18:af:04:b6:c0:b5:ba:46:38:
                    81:11
                Exponent: 65537 (0x10001)
        X509v3 extensions:
            X509v3 Basic Constraints: 
                CA:FALSE
            X509v3 Subject Key Identifier: 
                D2:60:78:51:F0:24:0D:7B:3B:9A:71:40:86:44:DC:E1:1B:DD:E8:82
            X509v3 Authority Key Identifier: 
                keyid:91:08:C8:64:6C:FF:E8:D8:8D:76:F4:25:B8:52:50:4E:EC:3D:45:58
                DirName:/CN=team408-net
                serial:56:6B:07:5D:89:68:A5:AF:2D:F2:77:4B:5B:55:82:52:BC:DF:43:AA

            X509v3 Extended Key Usage: 
                TLS Web Client Authentication
            X509v3 Key Usage: 
                Digital Signature
    Signature Algorithm: sha256WithRSAEncryption
         99:62:7c:81:36:e7:1f:57:57:96:2a:ba:c0:21:b2:f3:03:a6:
         ac:dd:9a:4a:45:06:23:a6:0d:b1:44:f7:6c:df:32:b2:03:8f:
         8a:4e:b9:06:55:e1:d9:1d:04:b7:5d:4a:47:17:00:51:1b:96:
         5f:3e:7b:f5:f1:e7:81:3c:5f:ac:b8:42:ec:aa:41:97:4a:6f:
         e7:a9:9e:8f:b3:21:f2:e6:16:5f:17:89:9c:5f:4e:ea:de:50:
         12:a8:f8:96:d2:cb:6e:f8:9f:10:b6:43:8b:a4:66:11:84:4a:
         be:37:16:97:51:42:e2:99:ff:bd:74:3f:ed:f9:3e:49:88:82:
         83:58:75:42:09:fa:d0:74:7b:25:b4:8e:70:61:dc:ce:19:07:
         7e:b7:94:df:ff:b9:da:75:78:dd:0d:7d:cf:e2:8d:80:ec:39:
         b0:00:58:9c:7e:c3:df:d6:33:9b:e1:9d:bb:04:9b:a7:5a:89:
         59:bf:37:11:54:90:ba:0b:aa:f5:d0:b9:bd:68:06:89:54:ce:
         76:73:4b:6e:4b:be:76:91:17:37:34:a9:ca:8a:60:ed:c4:2e:
         a9:ac:6b:2e:bc:21:f7:e6:45:cc:3b:4a:8d:dc:41:fd:50:9d:
         0c:4a:59:2c:d6:91:3d:0d:cc:e9:0b:2f:46:fa:70:97:b2:b2:
         90:76:c7:4e
-----BEGIN CERTIFICATE-----
MIIDXTCCAkWgAwIBAgIRAJzAyZrZwzORKQVu5jE32nUwDQYJKoZIhvcNAQELBQAw
FjEUMBIGA1UEAwwLdGVhbTQwOC1uZXQwHhcNMjEwOTEzMDIyMzE5WhcNMjQwODI4
MDIyMzE5WjAZMRcwFQYDVQQDDA50ZWFtNDA4LWNsaWVudDCCASIwDQYJKoZIhvcN
AQEBBQADggEPADCCAQoCggEBANFZv9L/UV0zYn11hqetc/fkSEkhVcH0uLv28VEz
byg2/zC/OdghrNi0mnNvhbe200rsxajWit9pZQC/5dcTeRpJ6zUeIbtOWBa5mmsV
Yzn/xCCvQQ+OQhixvSHOOm1i4eeCsnqziB2yHjMc0nMDvCZIZAOw/mQaBrmugy9F
GyFT4aqQmGIbFV0LWBIowlZcXtFDw2rkxNwRWZTMuOZj/0NOW8d517zl3RyUxKwB
sqg+XXtM6euNDHkbCyuNKnR/PqRZR1o/NHpAcKReg38hH6bmm3PblW+VVk0pWfey
N6Hb6m03pQnFry6baRTRhfMsEPl4NuchGK8EtsC1ukY4gRECAwEAAaOBojCBnzAJ
BgNVHRMEAjAAMB0GA1UdDgQWBBTSYHhR8CQNezuacUCGRNzhG93ogjBRBgNVHSME
SjBIgBSRCMhkbP/o2I129CW4UlBO7D1FWKEapBgwFjEUMBIGA1UEAwwLdGVhbTQw
OC1uZXSCFFZrB12JaKWvLfJ3S1tVglK830OqMBMGA1UdJQQMMAoGCCsGAQUFBwMC
MAsGA1UdDwQEAwIHgDANBgkqhkiG9w0BAQsFAAOCAQEAmWJ8gTbnH1dXliq6wCGy
8wOmrN2aSkUGI6YNsUT3bN8ysgOPik65BlXh2R0Et11KRxcAURuWXz579fHngTxf
rLhC7KpBl0pv56mej7Mh8uYWXxeJnF9O6t5QEqj4ltLLbvifELZDi6RmEYRKvjcW
l1FC4pn/vXQ/7fk+SYiCg1h1Qgn60HR7JbSOcGHczhkHfreU3/+52nV43Q19z+KN
gOw5sABYnH7D39Yzm+GduwSbp1qJWb83EVSQuguq9dC5vWgGiVTOdnNLbku+dpEX
NzSpyopg7cQuqaxrLrwh9+ZFzDtKjdxB/VCdDEpZLNaRPQ3M6QsvRvpwl7KykHbH
Tg==
-----END CERTIFICATE-----
