Certificate:
    Data:
        Version: 3 (0x2)
        Serial Number:
            98:70:f8:8b:f1:5a:04:59:35:9e:d2:ce:b7:aa:48:7e
        Signature Algorithm: sha256WithRSAEncryption
        Issuer: CN=team513-net
        Validity
            Not Before: Sep 13 03:25:51 2021 GMT
            Not After : Aug 28 03:25:51 2024 GMT
        Subject: CN=team513-client
        Subject Public Key Info:
            Public Key Algorithm: rsaEncryption
                RSA Public-Key: (2048 bit)
                Modulus:
                    00:e7:51:a9:72:79:fa:2f:07:23:fc:b4:95:bc:52:
                    9e:87:a7:c4:97:e5:6d:db:5f:2d:cd:1b:0f:82:6c:
                    07:97:17:ca:fe:19:06:9c:47:b0:e3:9e:79:49:54:
                    c6:cc:0f:f7:43:5f:f8:2c:72:26:41:3f:6d:ea:b9:
                    29:81:85:fc:c9:dd:3e:ad:0c:2f:79:5e:b3:22:09:
                    f4:d8:36:69:d1:84:75:77:0d:26:b5:5c:a2:f2:39:
                    fe:f9:3a:b1:3a:aa:17:32:88:c0:62:0a:04:1c:8c:
                    5a:8b:ec:5b:54:4e:c5:48:ac:f1:1b:08:6d:56:ef:
                    99:62:14:ec:3e:72:38:7a:46:63:88:3d:2d:32:96:
                    55:c9:42:b0:ed:f9:3d:c3:fe:c9:ef:97:51:1f:4c:
                    74:f6:b0:f2:b1:a6:7c:fb:e9:91:bf:05:d0:47:2f:
                    86:aa:9d:db:0a:55:92:ab:df:16:a6:0a:9f:21:7c:
                    fd:cc:2b:84:b9:fc:ae:ef:ec:1d:f1:e3:39:02:c9:
                    09:4d:be:f6:57:78:05:b4:47:a0:77:77:d7:b7:67:
                    63:7f:90:9f:a2:d9:1a:b0:af:4c:90:4f:63:cb:34:
                    70:02:53:6f:b9:31:76:5c:44:bd:74:95:ab:63:b6:
                    2a:67:fb:0a:4b:8f:f2:4f:31:6b:a7:fc:3a:68:42:
                    86:f7
                Exponent: 65537 (0x10001)
        X509v3 extensions:
            X509v3 Basic Constraints: 
                CA:FALSE
            X509v3 Subject Key Identifier: 
                3A:2C:26:9C:96:2D:F0:D3:F8:EF:33:91:5E:9D:DB:D8:87:A8:85:CF
            X509v3 Authority Key Identifier: 
                keyid:CC:A0:50:FD:38:D2:0A:64:D5:DE:23:06:D7:4F:42:9C:55:88:34:44
                DirName:/CN=team513-net
                serial:1C:44:E7:E5:D9:38:77:FD:0E:B5:FF:41:71:1B:1E:B1:36:5A:FC:98

            X509v3 Extended Key Usage: 
                TLS Web Client Authentication
            X509v3 Key Usage: 
                Digital Signature
    Signature Algorithm: sha256WithRSAEncryption
         9b:a4:74:3f:2b:0b:91:34:01:99:fe:a0:2a:3f:a3:db:5d:b0:
         eb:ee:6a:ba:bb:0a:cf:40:b3:a1:56:72:25:43:e8:b6:f8:f7:
         4e:6d:62:b3:c3:75:9f:b8:52:ce:c2:1c:a9:e0:51:35:cb:dd:
         0b:83:50:eb:2c:08:b4:ab:2d:65:df:94:49:a0:60:1d:a4:34:
         39:ff:90:73:f0:26:dc:a2:cf:80:42:d7:8c:85:3c:2a:e3:3c:
         40:d0:10:46:91:85:b8:55:7a:e9:ce:de:ff:1c:2a:52:f7:b4:
         85:df:08:68:e7:85:4f:be:c4:74:44:90:17:10:db:c4:8e:ba:
         6a:b7:1a:e4:97:dc:82:0a:d0:a0:b7:19:fe:07:d3:ea:23:2c:
         a3:c7:dc:4f:fa:8a:e5:50:a9:c4:c6:29:dc:d1:4e:84:9b:d8:
         5e:29:f5:6f:5b:bf:44:7c:33:6c:37:b0:c2:97:c9:58:b9:22:
         68:3e:8e:10:66:f5:4a:34:62:d1:64:27:b7:da:33:f9:28:01:
         ce:0c:a4:c8:e2:df:42:a3:fe:b8:d9:9a:68:1c:53:eb:76:9d:
         3a:27:6b:96:24:5c:c6:c4:fc:ee:fb:fd:b1:26:69:67:f7:a2:
         de:43:60:e4:a1:a5:ff:95:cc:7a:a9:ca:82:ee:eb:d6:b3:e7:
         3f:bf:42:1c
-----BEGIN CERTIFICATE-----
MIIDXTCCAkWgAwIBAgIRAJhw+IvxWgRZNZ7SzreqSH4wDQYJKoZIhvcNAQELBQAw
FjEUMBIGA1UEAwwLdGVhbTUxMy1uZXQwHhcNMjEwOTEzMDMyNTUxWhcNMjQwODI4
MDMyNTUxWjAZMRcwFQYDVQQDDA50ZWFtNTEzLWNsaWVudDCCASIwDQYJKoZIhvcN
AQEBBQADggEPADCCAQoCggEBAOdRqXJ5+i8HI/y0lbxSnoenxJflbdtfLc0bD4Js
B5cXyv4ZBpxHsOOeeUlUxswP90Nf+CxyJkE/beq5KYGF/MndPq0ML3lesyIJ9Ng2
adGEdXcNJrVcovI5/vk6sTqqFzKIwGIKBByMWovsW1ROxUis8RsIbVbvmWIU7D5y
OHpGY4g9LTKWVclCsO35PcP+ye+XUR9MdPaw8rGmfPvpkb8F0Ecvhqqd2wpVkqvf
FqYKnyF8/cwrhLn8ru/sHfHjOQLJCU2+9ld4BbRHoHd317dnY3+Qn6LZGrCvTJBP
Y8s0cAJTb7kxdlxEvXSVq2O2Kmf7CkuP8k8xa6f8OmhChvcCAwEAAaOBojCBnzAJ
BgNVHRMEAjAAMB0GA1UdDgQWBBQ6LCacli3w0/jvM5FendvYh6iFzzBRBgNVHSME
SjBIgBTMoFD9ONIKZNXeIwbXT0KcVYg0RKEapBgwFjEUMBIGA1UEAwwLdGVhbTUx
My1uZXSCFBxE5+XZOHf9DrX/QXEbHrE2WvyYMBMGA1UdJQQMMAoGCCsGAQUFBwMC
MAsGA1UdDwQEAwIHgDANBgkqhkiG9w0BAQsFAAOCAQEAm6R0PysLkTQBmf6gKj+j
212w6+5qursKz0CzoVZyJUPotvj3Tm1is8N1n7hSzsIcqeBRNcvdC4NQ6ywItKst
Zd+USaBgHaQ0Of+Qc/Am3KLPgELXjIU8KuM8QNAQRpGFuFV66c7e/xwqUve0hd8I
aOeFT77EdESQFxDbxI66arca5JfcggrQoLcZ/gfT6iMso8fcT/qK5VCpxMYp3NFO
hJvYXin1b1u/RHwzbDewwpfJWLkiaD6OEGb1SjRi0WQnt9oz+SgBzgykyOLfQqP+
uNmaaBxT63adOidrliRcxsT87vv9sSZpZ/ei3kNg5KGl/5XMeqnKgu7r1rPnP79C
HA==
-----END CERTIFICATE-----
