Certificate:
    Data:
        Version: 3 (0x2)
        Serial Number:
            af:78:cb:f3:9b:16:b3:40:5d:c1:df:65:b2:40:95:f6
        Signature Algorithm: sha256WithRSAEncryption
        Issuer: CN=team513-net
        Validity
            Not Before: Sep 13 03:25:51 2021 GMT
            Not After : Aug 28 03:25:51 2024 GMT
        Subject: CN=team513-server
        Subject Public Key Info:
            Public Key Algorithm: rsaEncryption
                RSA Public-Key: (2048 bit)
                Modulus:
                    00:cc:51:8a:cc:5a:3f:42:f0:19:68:9d:0d:1b:57:
                    7a:b9:8f:29:89:5c:c0:d4:2d:33:e7:b3:62:36:3e:
                    fd:4a:80:67:b7:b0:0e:c3:1b:aa:a2:ee:3a:e9:1a:
                    af:df:db:8e:87:93:b5:a0:e2:64:d7:9b:51:52:55:
                    ff:e1:72:45:aa:e6:3c:53:44:a1:21:eb:d8:0c:e6:
                    48:1a:44:20:c2:14:e9:c2:16:0b:cf:2c:91:4a:50:
                    b0:43:7c:18:3f:bf:c0:61:73:0f:86:b4:c6:60:f7:
                    b3:e6:67:57:32:1b:cb:b7:81:f1:9c:b4:37:89:d8:
                    61:23:82:31:55:55:f1:dc:c2:0d:1d:e4:af:06:55:
                    23:cc:5d:79:c1:5e:0c:1a:e1:6d:87:e6:ed:59:03:
                    fe:7e:04:e0:5a:9e:13:8a:a4:89:1b:00:03:4d:d5:
                    a3:13:b6:be:a4:ae:c7:ce:e3:71:0d:53:da:25:f6:
                    28:57:80:6b:ab:17:31:d2:bf:3d:ed:32:46:33:1e:
                    88:1a:a7:60:0e:d6:3f:01:7e:8b:96:71:22:71:37:
                    8e:44:c6:f2:41:ea:30:f3:4d:53:e8:6f:01:63:c7:
                    44:c3:62:d6:df:a7:c7:af:ee:0e:b4:d2:3a:6d:0c:
                    4c:cc:f2:ec:08:6a:df:89:9d:e3:df:cc:a8:11:2d:
                    60:d9
                Exponent: 65537 (0x10001)
        X509v3 extensions:
            X509v3 Basic Constraints: 
                CA:FALSE
            X509v3 Subject Key Identifier: 
                78:B5:67:B7:3F:00:83:49:45:F3:B9:89:ED:2B:AC:DF:40:74:2E:AB
            X509v3 Authority Key Identifier: 
                keyid:CC:A0:50:FD:38:D2:0A:64:D5:DE:23:06:D7:4F:42:9C:55:88:34:44
                DirName:/CN=team513-net
                serial:1C:44:E7:E5:D9:38:77:FD:0E:B5:FF:41:71:1B:1E:B1:36:5A:FC:98

            X509v3 Extended Key Usage: 
                TLS Web Server Authentication
            X509v3 Key Usage: 
                Digital Signature, Key Encipherment
            X509v3 Subject Alternative Name: 
                DNS:team513-server
    Signature Algorithm: sha256WithRSAEncryption
         4d:3a:ed:72:cb:a6:ba:43:3f:04:d2:25:a8:ef:c9:c8:51:2b:
         fa:e3:29:57:53:4f:29:5f:50:0e:f3:d8:04:03:cb:db:66:7b:
         2b:97:6a:7d:8b:74:24:1c:25:40:fd:fe:cd:e9:ab:54:83:b2:
         0c:f5:e3:83:3d:a7:d6:bc:70:e6:f0:9f:01:8c:12:e0:ee:44:
         4c:35:a3:e1:b4:bf:c1:ed:be:a8:e1:46:17:9b:28:95:b7:ca:
         af:ef:84:89:21:af:59:48:a8:33:05:e8:6a:3f:1f:77:35:9d:
         48:c1:b1:66:f1:d0:03:4c:1d:dd:2e:5c:1b:e3:7d:56:0b:58:
         54:9e:4e:bb:78:bf:df:15:69:ff:1a:f9:d5:31:28:dd:97:14:
         91:a3:fb:79:42:46:72:dc:bd:7f:34:6c:9c:bf:41:bd:76:7d:
         f3:e5:05:9a:15:a2:63:29:3e:b6:26:c9:99:45:ab:41:58:a7:
         f3:79:a1:de:67:61:29:d0:ec:dd:05:88:97:a1:b3:78:19:ac:
         a9:c9:e5:fa:c6:64:27:93:74:c5:d6:13:ce:fb:61:a9:4c:ee:
         a0:a2:c0:09:03:c0:25:c6:65:d7:5c:c6:db:27:b4:e6:f5:b4:
         4a:76:a1:5f:23:40:00:fa:43:07:12:ce:b8:21:1b:d5:c7:a2:
         2f:53:96:b8
-----BEGIN CERTIFICATE-----
MIIDeDCCAmCgAwIBAgIRAK94y/ObFrNAXcHfZbJAlfYwDQYJKoZIhvcNAQELBQAw
FjEUMBIGA1UEAwwLdGVhbTUxMy1uZXQwHhcNMjEwOTEzMDMyNTUxWhcNMjQwODI4
MDMyNTUxWjAZMRcwFQYDVQQDDA50ZWFtNTEzLXNlcnZlcjCCASIwDQYJKoZIhvcN
AQEBBQADggEPADCCAQoCggEBAMxRisxaP0LwGWidDRtXermPKYlcwNQtM+ezYjY+
/UqAZ7ewDsMbqqLuOukar9/bjoeTtaDiZNebUVJV/+FyRarmPFNEoSHr2AzmSBpE
IMIU6cIWC88skUpQsEN8GD+/wGFzD4a0xmD3s+ZnVzIby7eB8Zy0N4nYYSOCMVVV
8dzCDR3krwZVI8xdecFeDBrhbYfm7VkD/n4E4FqeE4qkiRsAA03VoxO2vqSux87j
cQ1T2iX2KFeAa6sXMdK/Pe0yRjMeiBqnYA7WPwF+i5ZxInE3jkTG8kHqMPNNU+hv
AWPHRMNi1t+nx6/uDrTSOm0MTMzy7Ahq34md49/MqBEtYNkCAwEAAaOBvTCBujAJ
BgNVHRMEAjAAMB0GA1UdDgQWBBR4tWe3PwCDSUXzuYntK6zfQHQuqzBRBgNVHSME
SjBIgBTMoFD9ONIKZNXeIwbXT0KcVYg0RKEapBgwFjEUMBIGA1UEAwwLdGVhbTUx
My1uZXSCFBxE5+XZOHf9DrX/QXEbHrE2WvyYMBMGA1UdJQQMMAoGCCsGAQUFBwMB
MAsGA1UdDwQEAwIFoDAZBgNVHREEEjAQgg50ZWFtNTEzLXNlcnZlcjANBgkqhkiG
9w0BAQsFAAOCAQEATTrtcsumukM/BNIlqO/JyFEr+uMpV1NPKV9QDvPYBAPL22Z7
K5dqfYt0JBwlQP3+zemrVIOyDPXjgz2n1rxw5vCfAYwS4O5ETDWj4bS/we2+qOFG
F5solbfKr++EiSGvWUioMwXoaj8fdzWdSMGxZvHQA0wd3S5cG+N9VgtYVJ5Ou3i/
3xVp/xr51TEo3ZcUkaP7eUJGcty9fzRsnL9BvXZ98+UFmhWiYyk+tibJmUWrQVin
83mh3mdhKdDs3QWIl6GzeBmsqcnl+sZkJ5N0xdYTzvthqUzuoKLACQPAJcZl11zG
2ye05vW0SnahXyNAAPpDBxLOuCEb1ceiL1OWuA==
-----END CERTIFICATE-----
