Certificate:
    Data:
        Version: 3 (0x2)
        Serial Number:
            b7:ff:d8:12:3d:26:94:14:e4:7a:40:1b:78:63:e1:8b
        Signature Algorithm: sha256WithRSAEncryption
        Issuer: CN=team130-net
        Validity
            Not Before: Sep 12 23:53:43 2021 GMT
            Not After : Aug 27 23:53:43 2024 GMT
        Subject: CN=team130-client
        Subject Public Key Info:
            Public Key Algorithm: rsaEncryption
                RSA Public-Key: (2048 bit)
                Modulus:
                    00:cd:64:1b:2c:d0:1b:46:28:82:4d:45:b5:c4:43:
                    0d:1e:51:18:68:84:bb:eb:ac:69:cc:32:72:ac:af:
                    94:1c:fd:a0:9f:24:da:f0:29:c5:9b:51:8e:0b:d6:
                    48:e7:54:72:5c:16:eb:e1:33:f9:9f:48:5d:58:69:
                    33:c0:16:cd:48:03:e0:40:86:ab:c5:e5:e2:dd:8e:
                    ef:10:18:fe:31:6b:e2:b0:f7:17:9e:3c:bb:27:dc:
                    74:26:1f:f3:44:a7:2d:47:be:d2:be:b5:91:6d:60:
                    c8:7d:98:f8:f6:f9:f8:b4:b7:ba:b5:00:40:be:dd:
                    c0:9e:e4:b9:f3:b3:7e:59:98:99:5b:9d:1e:78:e1:
                    8b:b4:28:a9:f6:80:bf:63:47:82:ed:c6:90:30:f0:
                    6b:eb:bd:f0:41:28:d2:48:e6:2a:fc:da:1f:0b:38:
                    d9:62:f7:0d:68:e7:dc:88:7b:54:2e:a7:5d:49:a6:
                    e5:24:31:45:d3:df:12:fe:cb:ad:da:94:93:1a:81:
                    e2:1b:bf:c2:38:21:7a:46:54:13:e4:06:44:e5:b9:
                    d4:46:41:ef:79:a5:02:88:42:31:5e:ca:e0:3d:b8:
                    37:8c:61:9d:ac:3e:78:b4:79:82:7a:06:cb:3a:6a:
                    c4:35:2e:db:b0:57:3a:82:63:0a:b5:29:ad:f2:6d:
                    c9:53
                Exponent: 65537 (0x10001)
        X509v3 extensions:
            X509v3 Basic Constraints: 
                CA:FALSE
            X509v3 Subject Key Identifier: 
                A5:87:9A:C7:4A:DF:6F:77:02:0F:C2:64:B6:56:DC:7C:A5:39:E3:4B
            X509v3 Authority Key Identifier: 
                keyid:23:81:57:F7:C5:E9:81:6F:8F:CF:68:95:54:35:44:F5:F1:C9:6D:C4
                DirName:/CN=team130-net
                serial:72:70:5C:35:EF:19:68:26:BC:84:70:CA:36:A3:64:25:30:10:C8:81

            X509v3 Extended Key Usage: 
                TLS Web Client Authentication
            X509v3 Key Usage: 
                Digital Signature
    Signature Algorithm: sha256WithRSAEncryption
         0e:87:ad:65:6d:bb:53:f9:16:30:68:ae:4c:3c:f3:ea:d6:b5:
         78:b1:75:99:b6:b0:00:68:e6:ca:ce:67:07:d6:56:86:9b:8c:
         48:c5:4b:81:85:03:9a:57:06:50:ce:22:60:f2:80:88:3d:0a:
         50:8c:44:e7:0b:a3:fb:86:15:6a:4b:f9:86:27:27:6a:0c:06:
         00:b4:7b:f1:9b:61:0e:a9:0d:a6:e6:85:1d:62:19:d4:ff:21:
         12:5a:46:9e:43:1c:3c:e6:7e:37:98:1a:0d:9d:61:aa:d9:46:
         fc:0a:cc:93:17:c3:67:91:ad:a0:51:06:1f:8a:97:02:42:76:
         e3:36:34:4d:26:b6:57:0e:c1:b4:d2:04:04:57:b2:24:6b:ec:
         c7:db:c1:bc:f2:40:7f:fb:48:df:4d:88:7b:50:98:63:bd:08:
         ae:42:81:b9:40:9f:d7:6b:18:9f:c4:ee:ef:d5:a3:40:6c:6f:
         dc:52:1f:f6:82:f7:ff:4b:b4:b8:34:24:6f:ea:f2:50:64:06:
         ba:64:b2:7e:70:15:f4:67:40:b3:87:f3:76:2b:35:05:a5:93:
         5e:22:57:0e:c1:ee:96:7e:65:36:be:81:ff:cc:ad:20:62:d1:
         3c:1b:4f:ad:65:49:81:db:23:2d:ec:34:6d:d3:ed:97:4e:21:
         cc:0b:61:4e
-----BEGIN CERTIFICATE-----
MIIDXTCCAkWgAwIBAgIRALf/2BI9JpQU5HpAG3hj4YswDQYJKoZIhvcNAQELBQAw
FjEUMBIGA1UEAwwLdGVhbTEzMC1uZXQwHhcNMjEwOTEyMjM1MzQzWhcNMjQwODI3
MjM1MzQzWjAZMRcwFQYDVQQDDA50ZWFtMTMwLWNsaWVudDCCASIwDQYJKoZIhvcN
AQEBBQADggEPADCCAQoCggEBAM1kGyzQG0Yogk1FtcRDDR5RGGiEu+usacwycqyv
lBz9oJ8k2vApxZtRjgvWSOdUclwW6+Ez+Z9IXVhpM8AWzUgD4ECGq8Xl4t2O7xAY
/jFr4rD3F548uyfcdCYf80SnLUe+0r61kW1gyH2Y+Pb5+LS3urUAQL7dwJ7kufOz
flmYmVudHnjhi7QoqfaAv2NHgu3GkDDwa+u98EEo0kjmKvzaHws42WL3DWjn3Ih7
VC6nXUmm5SQxRdPfEv7LrdqUkxqB4hu/wjghekZUE+QGROW51EZB73mlAohCMV7K
4D24N4xhnaw+eLR5gnoGyzpqxDUu27BXOoJjCrUprfJtyVMCAwEAAaOBojCBnzAJ
BgNVHRMEAjAAMB0GA1UdDgQWBBSlh5rHSt9vdwIPwmS2Vtx8pTnjSzBRBgNVHSME
SjBIgBQjgVf3xemBb4/PaJVUNUT18cltxKEapBgwFjEUMBIGA1UEAwwLdGVhbTEz
MC1uZXSCFHJwXDXvGWgmvIRwyjajZCUwEMiBMBMGA1UdJQQMMAoGCCsGAQUFBwMC
MAsGA1UdDwQEAwIHgDANBgkqhkiG9w0BAQsFAAOCAQEADoetZW27U/kWMGiuTDzz
6ta1eLF1mbawAGjmys5nB9ZWhpuMSMVLgYUDmlcGUM4iYPKAiD0KUIxE5wuj+4YV
akv5hicnagwGALR78ZthDqkNpuaFHWIZ1P8hElpGnkMcPOZ+N5gaDZ1hqtlG/ArM
kxfDZ5GtoFEGH4qXAkJ24zY0TSa2Vw7BtNIEBFeyJGvsx9vBvPJAf/tI302Ie1CY
Y70IrkKBuUCf12sYn8Tu79WjQGxv3FIf9oL3/0u0uDQkb+ryUGQGumSyfnAV9GdA
s4fzdis1BaWTXiJXDsHuln5lNr6B/8ytIGLRPBtPrWVJgdsjLew0bdPtl04hzAth
Tg==
-----END CERTIFICATE-----
