Certificate:
    Data:
        Version: 3 (0x2)
        Serial Number:
            30:36:98:fa:65:84:b7:86:d4:14:8a:c3:83:5d:12:76
        Signature Algorithm: sha256WithRSAEncryption
        Issuer: CN=team479-net
        Validity
            Not Before: Sep 13 03:04:24 2021 GMT
            Not After : Aug 28 03:04:24 2024 GMT
        Subject: CN=team479-server
        Subject Public Key Info:
            Public Key Algorithm: rsaEncryption
                RSA Public-Key: (2048 bit)
                Modulus:
                    00:fa:82:d6:d7:df:81:e2:77:04:01:33:9b:a4:58:
                    3a:14:8e:ab:3e:7e:7d:f2:dc:59:98:45:ec:85:56:
                    05:1f:bb:73:bb:7a:b6:47:d3:c1:ba:50:d5:59:33:
                    88:e3:74:99:03:c9:60:88:fa:5e:ee:65:96:71:b8:
                    2b:b1:f8:82:8c:8c:66:7e:73:44:3f:8c:0a:3f:55:
                    1a:9b:16:c5:85:ec:90:9b:22:a1:b1:b0:49:07:c1:
                    6c:ef:65:a5:63:9c:1b:95:ae:bd:d4:dd:bd:06:b0:
                    9c:e6:1f:b7:a9:94:ce:35:b4:07:14:87:85:63:c8:
                    ea:9b:3e:f8:30:d8:40:c6:80:25:1c:bc:14:9e:fe:
                    d4:de:7d:94:f5:70:8b:8b:da:ca:6d:47:d6:b0:a2:
                    90:97:98:8a:67:7e:aa:b4:96:1e:6d:7d:03:a2:c8:
                    02:4c:1d:f6:f2:9e:58:d9:49:c6:72:77:d2:30:38:
                    68:dc:b2:27:cf:79:de:87:ea:d1:fb:78:88:e9:8c:
                    14:f5:6e:06:13:1c:71:cc:05:31:a5:43:f9:18:79:
                    89:32:a6:5f:1f:5d:a2:09:5d:cd:b1:61:ea:d9:57:
                    c6:e5:7f:b7:e6:be:84:f7:d5:1f:81:24:d5:2e:31:
                    1f:87:0e:a7:04:2f:3d:5c:13:aa:c7:b4:b2:4b:f9:
                    01:0d
                Exponent: 65537 (0x10001)
        X509v3 extensions:
            X509v3 Basic Constraints: 
                CA:FALSE
            X509v3 Subject Key Identifier: 
                D9:2D:B0:F7:50:4C:27:76:97:C0:55:EB:0F:C0:BF:1C:42:69:EC:88
            X509v3 Authority Key Identifier: 
                keyid:7F:91:0F:D7:29:96:B5:30:08:E7:82:8B:33:32:5D:1C:5A:7D:12:D7
                DirName:/CN=team479-net
                serial:2F:13:68:44:1F:EC:27:F8:26:CB:6D:3E:41:F9:81:99:58:7A:AC:76

            X509v3 Extended Key Usage: 
                TLS Web Server Authentication
            X509v3 Key Usage: 
                Digital Signature, Key Encipherment
            X509v3 Subject Alternative Name: 
                DNS:team479-server
    Signature Algorithm: sha256WithRSAEncryption
         70:10:59:3b:cb:2e:1b:21:4f:57:7e:94:4b:04:ed:b7:5a:a6:
         b0:81:22:57:03:89:e4:ed:07:a8:30:44:b1:15:82:81:0c:b1:
         a2:93:3f:83:4e:e3:49:c0:7f:17:f4:65:70:9b:2a:f6:42:aa:
         84:e9:a4:72:2d:bd:c5:89:28:44:28:bd:95:a7:fc:ec:e3:58:
         53:7a:db:ee:b2:6d:b5:fe:9d:da:23:1f:eb:0e:6d:e0:4c:b7:
         e4:36:46:8b:c1:1b:b1:a6:17:09:bc:c9:02:9b:13:86:6f:8a:
         18:3f:29:56:09:6d:a3:9a:9b:b6:cb:dc:b8:6c:a7:de:e1:30:
         09:52:fe:b1:25:e7:1e:20:d5:ef:ca:ea:4d:6b:90:49:ab:ff:
         b7:2d:39:87:6f:34:fc:52:87:f8:38:98:fb:2f:db:63:9a:bf:
         79:95:e5:16:26:ac:e9:01:f1:a5:0d:93:bd:d2:71:aa:54:00:
         59:00:9a:fd:9c:62:f8:b0:c6:a2:c7:69:9c:1b:ad:ca:6b:2c:
         db:9e:b4:a8:a4:4f:76:f4:7e:4f:39:d8:f8:e3:04:f5:32:8a:
         85:ee:fe:18:1c:ab:c1:a6:da:97:30:8b:1c:b4:2a:90:51:4d:
         56:3d:0f:11:05:49:0d:95:9d:25:20:d3:e8:3d:b9:4b:07:52:
         9b:8a:af:3b
-----BEGIN CERTIFICATE-----
MIIDdzCCAl+gAwIBAgIQMDaY+mWEt4bUFIrDg10SdjANBgkqhkiG9w0BAQsFADAW
MRQwEgYDVQQDDAt0ZWFtNDc5LW5ldDAeFw0yMTA5MTMwMzA0MjRaFw0yNDA4Mjgw
MzA0MjRaMBkxFzAVBgNVBAMMDnRlYW00Nzktc2VydmVyMIIBIjANBgkqhkiG9w0B
AQEFAAOCAQ8AMIIBCgKCAQEA+oLW19+B4ncEATObpFg6FI6rPn598txZmEXshVYF
H7tzu3q2R9PBulDVWTOI43SZA8lgiPpe7mWWcbgrsfiCjIxmfnNEP4wKP1UamxbF
heyQmyKhsbBJB8Fs72WlY5wbla691N29BrCc5h+3qZTONbQHFIeFY8jqmz74MNhA
xoAlHLwUnv7U3n2U9XCLi9rKbUfWsKKQl5iKZ36qtJYebX0DosgCTB328p5Y2UnG
cnfSMDho3LInz3neh+rR+3iI6YwU9W4GExxxzAUxpUP5GHmJMqZfH12iCV3NsWHq
2VfG5X+35r6E99UfgSTVLjEfhw6nBC89XBOqx7SyS/kBDQIDAQABo4G9MIG6MAkG
A1UdEwQCMAAwHQYDVR0OBBYEFNktsPdQTCd2l8BV6w/AvxxCaeyIMFEGA1UdIwRK
MEiAFH+RD9cplrUwCOeCizMyXRxafRLXoRqkGDAWMRQwEgYDVQQDDAt0ZWFtNDc5
LW5ldIIULxNoRB/sJ/gmy20+QfmBmVh6rHYwEwYDVR0lBAwwCgYIKwYBBQUHAwEw
CwYDVR0PBAQDAgWgMBkGA1UdEQQSMBCCDnRlYW00Nzktc2VydmVyMA0GCSqGSIb3
DQEBCwUAA4IBAQBwEFk7yy4bIU9XfpRLBO23WqawgSJXA4nk7QeoMESxFYKBDLGi
kz+DTuNJwH8X9GVwmyr2QqqE6aRyLb3FiShEKL2Vp/zs41hTetvusm21/p3aIx/r
Dm3gTLfkNkaLwRuxphcJvMkCmxOGb4oYPylWCW2jmpu2y9y4bKfe4TAJUv6xJece
INXvyupNa5BJq/+3LTmHbzT8Uof4OJj7L9tjmr95leUWJqzpAfGlDZO90nGqVABZ
AJr9nGL4sMaix2mcG63KayzbnrSopE929H5POdj44wT1MoqF7v4YHKvBptqXMIsc
tCqQUU1WPQ8RBUkNlZ0lINPoPblLB1Kbiq87
-----END CERTIFICATE-----
