Certificate:
    Data:
        Version: 3 (0x2)
        Serial Number:
            0e:4d:6c:5e:4c:10:a9:3c:36:83:d6:20:ec:8b:b6:16
        Signature Algorithm: sha256WithRSAEncryption
        Issuer: CN=team491-net
        Validity
            Not Before: Sep 13 03:11:05 2021 GMT
            Not After : Aug 28 03:11:05 2024 GMT
        Subject: CN=team491-server
        Subject Public Key Info:
            Public Key Algorithm: rsaEncryption
                RSA Public-Key: (2048 bit)
                Modulus:
                    00:a0:6a:c1:ed:4f:f5:e9:c7:73:07:65:6f:d3:46:
                    d8:0e:8f:95:9f:00:f9:ea:f9:d6:0f:eb:d5:c1:ae:
                    aa:f5:bd:d4:9e:4a:65:b2:1c:29:68:e0:c4:4f:c0:
                    69:ce:dc:ad:84:b8:06:cf:b2:91:33:26:7e:4e:09:
                    be:b0:6a:ec:31:eb:9b:62:2c:39:68:a7:c8:1e:41:
                    4a:d0:c8:b4:4f:52:4b:cd:81:de:f3:91:02:a7:e1:
                    c9:e7:83:2d:04:55:e7:6b:c4:ee:fb:08:44:de:77:
                    68:2c:f5:00:87:b5:a1:49:43:30:ad:aa:c6:6c:e8:
                    95:9b:09:2b:49:86:2d:98:b2:8c:3e:a6:24:e4:7f:
                    0e:aa:43:ec:a2:eb:6f:0d:52:45:1e:69:c5:88:2c:
                    04:6d:d5:00:46:91:1e:5f:7c:c0:d6:b8:ff:45:63:
                    ad:26:65:21:d2:9f:6b:60:4e:c3:48:71:de:26:de:
                    5a:33:36:e6:65:1c:86:c8:de:ca:82:c6:d3:01:d4:
                    bd:2f:04:84:14:f2:d4:cf:0c:92:4c:85:ca:9a:19:
                    a0:9f:e6:cb:2b:14:ed:cc:f0:55:af:1d:1d:04:db:
                    9d:e1:74:8e:cd:19:bf:1d:17:96:56:2e:29:65:97:
                    5e:4a:27:30:da:f5:28:1d:2d:53:f4:e4:94:bf:41:
                    73:3d
                Exponent: 65537 (0x10001)
        X509v3 extensions:
            X509v3 Basic Constraints: 
                CA:FALSE
            X509v3 Subject Key Identifier: 
                FD:99:1E:16:DA:58:FB:82:4A:1B:A9:8F:8F:73:87:F4:91:39:1B:CA
            X509v3 Authority Key Identifier: 
                keyid:D6:1C:9D:7B:B1:84:03:D2:09:95:BF:CE:6E:BC:7F:00:46:FC:BC:FE
                DirName:/CN=team491-net
                serial:1C:04:44:D9:F4:D6:8F:A3:9E:C8:7E:4F:6A:99:8B:EA:E8:26:F9:99

            X509v3 Extended Key Usage: 
                TLS Web Server Authentication
            X509v3 Key Usage: 
                Digital Signature, Key Encipherment
            X509v3 Subject Alternative Name: 
                DNS:team491-server
    Signature Algorithm: sha256WithRSAEncryption
         77:a9:72:9f:a4:74:fb:16:64:ed:62:ca:98:9f:4d:96:be:c3:
         f5:7d:10:b1:71:37:f7:0b:06:6a:3a:70:1d:5b:0c:fd:e3:70:
         e1:bb:14:78:6f:df:e4:cf:66:46:6a:d3:45:e6:ba:24:9f:b2:
         3d:4d:e8:ab:a5:1f:12:01:8f:d3:5c:cc:2a:06:c6:74:3e:07:
         52:8c:7a:1f:a9:93:6d:e4:8a:99:98:19:22:17:a4:85:f3:2c:
         96:fc:e9:0c:ad:6f:b6:15:fc:f6:e1:82:e3:fd:68:40:b7:5c:
         2e:a2:52:4a:c3:29:67:c5:f8:be:37:5a:82:49:8b:8b:4a:09:
         c6:79:60:21:2d:03:dd:d9:6f:f8:f0:eb:33:09:d6:27:fb:64:
         19:f4:cf:32:6d:aa:9f:90:e5:d6:98:53:2b:65:f9:49:01:72:
         74:ce:d1:f8:a4:5b:78:d6:7e:e0:1f:d4:29:5b:ff:69:e2:54:
         f5:4e:9c:30:71:cc:02:a5:e2:2c:26:53:72:70:dc:ae:a7:1e:
         60:41:e1:32:5a:28:73:a4:c1:0e:ee:5f:96:78:b7:2c:d1:6a:
         5c:9c:a4:6d:8f:45:47:35:19:d6:a7:bf:b4:88:99:e1:19:b2:
         2f:db:1f:71:cf:e9:8c:0a:d9:ef:39:b1:b0:25:ba:3f:f4:b2:
         7c:e0:93:76
-----BEGIN CERTIFICATE-----
MIIDdzCCAl+gAwIBAgIQDk1sXkwQqTw2g9Yg7Iu2FjANBgkqhkiG9w0BAQsFADAW
MRQwEgYDVQQDDAt0ZWFtNDkxLW5ldDAeFw0yMTA5MTMwMzExMDVaFw0yNDA4Mjgw
MzExMDVaMBkxFzAVBgNVBAMMDnRlYW00OTEtc2VydmVyMIIBIjANBgkqhkiG9w0B
AQEFAAOCAQ8AMIIBCgKCAQEAoGrB7U/16cdzB2Vv00bYDo+VnwD56vnWD+vVwa6q
9b3UnkplshwpaODET8BpztythLgGz7KRMyZ+Tgm+sGrsMeubYiw5aKfIHkFK0Mi0
T1JLzYHe85ECp+HJ54MtBFXna8Tu+whE3ndoLPUAh7WhSUMwrarGbOiVmwkrSYYt
mLKMPqYk5H8OqkPsoutvDVJFHmnFiCwEbdUARpEeX3zA1rj/RWOtJmUh0p9rYE7D
SHHeJt5aMzbmZRyGyN7KgsbTAdS9LwSEFPLUzwySTIXKmhmgn+bLKxTtzPBVrx0d
BNud4XSOzRm/HReWVi4pZZdeSicw2vUoHS1T9OSUv0FzPQIDAQABo4G9MIG6MAkG
A1UdEwQCMAAwHQYDVR0OBBYEFP2ZHhbaWPuCShupj49zh/SRORvKMFEGA1UdIwRK
MEiAFNYcnXuxhAPSCZW/zm68fwBG/Lz+oRqkGDAWMRQwEgYDVQQDDAt0ZWFtNDkx
LW5ldIIUHARE2fTWj6OeyH5PapmL6ugm+ZkwEwYDVR0lBAwwCgYIKwYBBQUHAwEw
CwYDVR0PBAQDAgWgMBkGA1UdEQQSMBCCDnRlYW00OTEtc2VydmVyMA0GCSqGSIb3
DQEBCwUAA4IBAQB3qXKfpHT7FmTtYsqYn02WvsP1fRCxcTf3CwZqOnAdWwz943Dh
uxR4b9/kz2ZGatNF5rokn7I9TeirpR8SAY/TXMwqBsZ0PgdSjHofqZNt5IqZmBki
F6SF8yyW/OkMrW+2Ffz24YLj/WhAt1wuolJKwylnxfi+N1qCSYuLSgnGeWAhLQPd
2W/48OszCdYn+2QZ9M8ybaqfkOXWmFMrZflJAXJ0ztH4pFt41n7gH9QpW/9p4lT1
TpwwccwCpeIsJlNycNyupx5gQeEyWihzpMEO7l+WeLcs0WpcnKRtj0VHNRnWp7+0
iJnhGbIv2x9xz+mMCtnvObGwJbo/9LJ84JN2
-----END CERTIFICATE-----
