Certificate:
    Data:
        Version: 3 (0x2)
        Serial Number:
            64:32:eb:08:8a:89:71:b5:0d:61:f5:47:ca:01:5a:8c
        Signature Algorithm: sha256WithRSAEncryption
        Issuer: CN=team444-net
        Validity
            Not Before: Sep 13 02:48:45 2021 GMT
            Not After : Aug 28 02:48:45 2024 GMT
        Subject: CN=team444-server
        Subject Public Key Info:
            Public Key Algorithm: rsaEncryption
                RSA Public-Key: (2048 bit)
                Modulus:
                    00:bf:0a:f5:a2:23:ac:dd:00:6a:04:b5:52:ce:e9:
                    20:93:0f:f6:d0:af:e7:50:03:77:3f:e7:8c:04:10:
                    4e:e7:e3:03:e5:3b:30:48:3c:04:f3:9b:52:73:49:
                    62:b9:dc:2a:9c:ba:ae:31:90:21:90:89:b4:42:79:
                    7d:52:90:56:fc:22:03:b2:32:4e:00:00:4e:7d:91:
                    a4:ed:37:ec:42:73:e2:dd:16:57:9e:f9:0f:c7:0b:
                    05:d3:5e:99:2e:e9:ef:8c:17:e3:9d:b2:6c:6a:b2:
                    63:ad:da:c6:3d:2c:7d:3d:1e:b8:30:ae:09:3c:43:
                    68:e9:67:1e:c3:14:26:41:84:73:a9:b0:8b:1c:4c:
                    13:2e:94:96:ee:c6:76:e3:3f:de:33:a0:f5:dc:1e:
                    75:ce:29:62:ab:09:48:87:d0:93:7b:a1:60:0d:fd:
                    2f:69:66:95:d0:63:d2:bf:e1:ca:aa:eb:9f:50:8c:
                    75:21:05:6f:2c:21:34:2c:9a:cb:47:a0:e9:97:03:
                    59:24:ba:44:66:a9:05:47:cf:b1:dc:65:cf:ce:e7:
                    cb:75:c4:7f:ba:32:f2:fa:9b:05:21:65:b1:fe:1c:
                    a1:78:1d:b9:fb:3a:47:31:11:8a:14:2a:85:bd:9f:
                    54:e6:ce:8a:9e:d9:06:e2:f6:44:70:0d:63:f4:1a:
                    b1:5b
                Exponent: 65537 (0x10001)
        X509v3 extensions:
            X509v3 Basic Constraints: 
                CA:FALSE
            X509v3 Subject Key Identifier: 
                70:BF:73:7A:34:1C:5E:64:5B:83:19:9A:20:08:69:2B:51:D9:6A:A7
            X509v3 Authority Key Identifier: 
                keyid:63:29:97:48:3B:B6:16:8B:FB:76:24:B6:AC:38:B4:5C:43:B4:F5:2C
                DirName:/CN=team444-net
                serial:3E:97:5C:FD:23:D4:E8:4C:A7:51:E0:8E:40:93:7D:C5:0D:04:6A:59

            X509v3 Extended Key Usage: 
                TLS Web Server Authentication
            X509v3 Key Usage: 
                Digital Signature, Key Encipherment
            X509v3 Subject Alternative Name: 
                DNS:team444-server
    Signature Algorithm: sha256WithRSAEncryption
         77:9e:9b:aa:06:e9:f2:2b:04:91:00:f0:46:e1:5d:45:ca:03:
         fe:94:b3:8e:2e:f5:04:4d:09:14:d3:6a:5e:1a:67:91:f6:bc:
         d6:97:25:20:89:4c:3d:66:e1:a9:41:86:44:c5:02:84:f4:44:
         00:28:45:d8:c7:09:e9:8b:8a:f6:4f:21:70:0f:10:70:d0:53:
         96:8e:b7:a5:fd:5b:90:e8:41:8f:4a:44:07:e5:9b:c1:8b:4d:
         be:60:ce:7c:81:be:0a:83:33:dd:13:a9:8d:1a:f8:f4:9a:64:
         8e:2d:a9:64:32:9f:43:49:7f:d2:1c:3d:10:4d:34:8f:97:55:
         c4:db:e2:68:21:59:3f:98:98:5e:67:67:5b:18:91:2d:e0:46:
         b9:58:8a:bb:a0:47:7a:ba:b6:bd:1f:e8:ef:a2:b7:1a:79:53:
         f6:e8:dd:dd:76:a6:28:61:8b:95:52:cb:68:4c:44:0e:c7:be:
         56:93:94:8a:30:39:99:55:a6:38:9c:20:42:27:d1:ff:97:09:
         29:27:1b:fe:ca:ac:1b:d9:ec:ad:50:15:c2:cb:e8:45:b4:72:
         6d:63:cd:dc:33:ac:09:53:9a:f2:4f:56:9b:fb:df:93:fe:ac:
         28:b6:c3:a8:2d:3e:e5:a9:a0:ef:3b:cd:50:ee:3a:74:e7:e9:
         38:36:0c:2e
-----BEGIN CERTIFICATE-----
MIIDdzCCAl+gAwIBAgIQZDLrCIqJcbUNYfVHygFajDANBgkqhkiG9w0BAQsFADAW
MRQwEgYDVQQDDAt0ZWFtNDQ0LW5ldDAeFw0yMTA5MTMwMjQ4NDVaFw0yNDA4Mjgw
MjQ4NDVaMBkxFzAVBgNVBAMMDnRlYW00NDQtc2VydmVyMIIBIjANBgkqhkiG9w0B
AQEFAAOCAQ8AMIIBCgKCAQEAvwr1oiOs3QBqBLVSzukgkw/20K/nUAN3P+eMBBBO
5+MD5TswSDwE85tSc0liudwqnLquMZAhkIm0Qnl9UpBW/CIDsjJOAABOfZGk7Tfs
QnPi3RZXnvkPxwsF016ZLunvjBfjnbJsarJjrdrGPSx9PR64MK4JPENo6WcewxQm
QYRzqbCLHEwTLpSW7sZ24z/eM6D13B51ziliqwlIh9CTe6FgDf0vaWaV0GPSv+HK
quufUIx1IQVvLCE0LJrLR6DplwNZJLpEZqkFR8+x3GXPzufLdcR/ujLy+psFIWWx
/hyheB25+zpHMRGKFCqFvZ9U5s6KntkG4vZEcA1j9BqxWwIDAQABo4G9MIG6MAkG
A1UdEwQCMAAwHQYDVR0OBBYEFHC/c3o0HF5kW4MZmiAIaStR2WqnMFEGA1UdIwRK
MEiAFGMpl0g7thaL+3Yktqw4tFxDtPUsoRqkGDAWMRQwEgYDVQQDDAt0ZWFtNDQ0
LW5ldIIUPpdc/SPU6EynUeCOQJN9xQ0EalkwEwYDVR0lBAwwCgYIKwYBBQUHAwEw
CwYDVR0PBAQDAgWgMBkGA1UdEQQSMBCCDnRlYW00NDQtc2VydmVyMA0GCSqGSIb3
DQEBCwUAA4IBAQB3npuqBunyKwSRAPBG4V1FygP+lLOOLvUETQkU02peGmeR9rzW
lyUgiUw9ZuGpQYZExQKE9EQAKEXYxwnpi4r2TyFwDxBw0FOWjrel/VuQ6EGPSkQH
5ZvBi02+YM58gb4KgzPdE6mNGvj0mmSOLalkMp9DSX/SHD0QTTSPl1XE2+JoIVk/
mJheZ2dbGJEt4Ea5WIq7oEd6ura9H+jvorcaeVP26N3ddqYoYYuVUstoTEQOx75W
k5SKMDmZVaY4nCBCJ9H/lwkpJxv+yqwb2eytUBXCy+hFtHJtY83cM6wJU5ryT1ab
+9+T/qwotsOoLT7lqaDvO81Q7jp05+k4Ngwu
-----END CERTIFICATE-----
