Certificate:
    Data:
        Version: 3 (0x2)
        Serial Number:
            0a:10:10:60:2b:4b:04:8c:5d:70:9f:e7:b8:04:7e:9c
        Signature Algorithm: sha256WithRSAEncryption
        Issuer: CN=team598-net
        Validity
            Not Before: Sep 13 04:15:09 2021 GMT
            Not After : Aug 28 04:15:09 2024 GMT
        Subject: CN=team598-server
        Subject Public Key Info:
            Public Key Algorithm: rsaEncryption
                RSA Public-Key: (2048 bit)
                Modulus:
                    00:dc:85:f2:1c:b1:6f:2b:43:51:df:01:b8:21:c6:
                    88:44:01:a1:4e:12:d8:78:33:4a:cf:a9:99:17:9a:
                    47:5e:93:8a:6b:b3:d7:53:5e:8c:31:2b:53:8d:3d:
                    ae:a8:ad:ee:95:11:df:30:4d:07:0d:77:0f:a4:3a:
                    38:22:be:96:71:2b:89:fd:28:17:36:67:f3:99:17:
                    27:65:2c:f1:38:fa:4e:57:9c:f8:c6:b8:9d:7d:52:
                    f7:57:50:e0:0d:80:4d:59:0b:b0:cb:cf:90:c1:8a:
                    b9:93:a6:79:dc:ac:5e:ea:bc:3e:6e:cb:17:53:c8:
                    47:65:b7:a5:22:49:fe:e5:74:14:b4:a4:a0:1e:77:
                    b9:06:3b:bd:0e:79:8a:61:19:b0:3f:37:34:80:b5:
                    7a:aa:7c:cf:fb:72:65:28:98:4b:6f:1b:02:b6:75:
                    84:a5:ee:50:fe:87:2e:17:c0:22:85:01:63:5b:71:
                    81:4f:77:ab:4e:b8:f5:9c:5b:6c:70:5b:63:99:77:
                    0a:ae:33:69:3d:62:ad:63:14:2f:56:9e:9e:a1:d9:
                    37:1a:50:d8:fd:19:c1:f1:c5:25:b4:46:8c:94:08:
                    08:c7:e9:a3:16:5e:9d:61:61:29:fa:a7:58:dd:bb:
                    9f:94:85:30:08:83:20:53:cf:82:b1:a8:92:30:b9:
                    14:a7
                Exponent: 65537 (0x10001)
        X509v3 extensions:
            X509v3 Basic Constraints: 
                CA:FALSE
            X509v3 Subject Key Identifier: 
                D0:D4:E3:A8:7B:6A:53:B0:A5:C6:92:0A:69:B5:82:7E:07:5C:67:DA
            X509v3 Authority Key Identifier: 
                keyid:1A:D0:6A:3C:9C:49:2B:8B:04:82:F5:F7:AB:33:28:C4:36:84:66:5A
                DirName:/CN=team598-net
                serial:3F:AB:65:4F:43:ED:58:9E:22:B5:28:9F:03:C3:F9:C6:C9:6D:CA:90

            X509v3 Extended Key Usage: 
                TLS Web Server Authentication
            X509v3 Key Usage: 
                Digital Signature, Key Encipherment
            X509v3 Subject Alternative Name: 
                DNS:team598-server
    Signature Algorithm: sha256WithRSAEncryption
         93:56:06:f3:f8:3a:cb:3d:26:62:06:cb:f5:2b:e7:71:ee:c1:
         90:11:b4:3d:8a:bd:f7:95:d7:8a:ef:4c:35:b8:f1:73:68:25:
         f6:32:63:7e:eb:23:33:c0:49:c0:7b:bf:8e:36:43:6e:0f:4b:
         89:2f:73:68:a1:5f:e1:28:d6:56:15:ff:42:fd:5d:78:6d:52:
         21:2c:5d:b1:ab:25:8a:fc:ca:d1:8d:1c:e5:c5:3b:1c:a4:ef:
         5d:b0:e6:32:ac:48:32:80:76:23:bf:0f:4f:25:f7:cb:ff:f3:
         fc:8c:92:94:01:69:3d:89:ad:f1:5e:aa:c2:8b:f4:b4:92:fa:
         1c:c9:0b:64:33:59:dd:78:81:bc:65:89:e6:91:0b:f4:b2:be:
         d7:1f:de:82:aa:8d:c6:6e:5a:a1:7a:5a:2d:0a:a5:12:d0:d8:
         9d:75:f9:7e:2c:52:60:ba:dd:a5:b1:0e:77:73:ba:a6:d4:1c:
         d2:eb:7b:21:4c:6f:40:e5:89:78:85:a6:7c:b0:73:2e:08:47:
         7f:0e:0a:3d:46:4c:cb:f1:01:ec:b4:7f:25:5b:36:09:2b:ed:
         40:1d:5b:61:40:94:84:f3:f1:39:ce:7b:06:cd:92:51:56:f0:
         fc:89:25:8d:0e:45:b1:dc:1b:60:35:13:6b:b1:12:06:54:9d:
         a6:4e:09:7e
-----BEGIN CERTIFICATE-----
MIIDdzCCAl+gAwIBAgIQChAQYCtLBIxdcJ/nuAR+nDANBgkqhkiG9w0BAQsFADAW
MRQwEgYDVQQDDAt0ZWFtNTk4LW5ldDAeFw0yMTA5MTMwNDE1MDlaFw0yNDA4Mjgw
NDE1MDlaMBkxFzAVBgNVBAMMDnRlYW01OTgtc2VydmVyMIIBIjANBgkqhkiG9w0B
AQEFAAOCAQ8AMIIBCgKCAQEA3IXyHLFvK0NR3wG4IcaIRAGhThLYeDNKz6mZF5pH
XpOKa7PXU16MMStTjT2uqK3ulRHfME0HDXcPpDo4Ir6WcSuJ/SgXNmfzmRcnZSzx
OPpOV5z4xridfVL3V1DgDYBNWQuwy8+QwYq5k6Z53Kxe6rw+bssXU8hHZbelIkn+
5XQUtKSgHne5Bju9DnmKYRmwPzc0gLV6qnzP+3JlKJhLbxsCtnWEpe5Q/ocuF8Ai
hQFjW3GBT3erTrj1nFtscFtjmXcKrjNpPWKtYxQvVp6eodk3GlDY/RnB8cUltEaM
lAgIx+mjFl6dYWEp+qdY3buflIUwCIMgU8+CsaiSMLkUpwIDAQABo4G9MIG6MAkG
A1UdEwQCMAAwHQYDVR0OBBYEFNDU46h7alOwpcaSCmm1gn4HXGfaMFEGA1UdIwRK
MEiAFBrQajycSSuLBIL196szKMQ2hGZaoRqkGDAWMRQwEgYDVQQDDAt0ZWFtNTk4
LW5ldIIUP6tlT0PtWJ4itSifA8P5xsltypAwEwYDVR0lBAwwCgYIKwYBBQUHAwEw
CwYDVR0PBAQDAgWgMBkGA1UdEQQSMBCCDnRlYW01OTgtc2VydmVyMA0GCSqGSIb3
DQEBCwUAA4IBAQCTVgbz+DrLPSZiBsv1K+dx7sGQEbQ9ir33ldeK70w1uPFzaCX2
MmN+6yMzwEnAe7+ONkNuD0uJL3NooV/hKNZWFf9C/V14bVIhLF2xqyWK/MrRjRzl
xTscpO9dsOYyrEgygHYjvw9PJffL//P8jJKUAWk9ia3xXqrCi/S0kvocyQtkM1nd
eIG8ZYnmkQv0sr7XH96Cqo3GblqhelotCqUS0Niddfl+LFJgut2lsQ53c7qm1BzS
63shTG9A5Yl4haZ8sHMuCEd/Dgo9RkzL8QHstH8lWzYJK+1AHVthQJSE8/E5znsG
zZJRVvD8iSWNDkWx3BtgNRNrsRIGVJ2mTgl+
-----END CERTIFICATE-----
