Certificate:
    Data:
        Version: 3 (0x2)
        Serial Number:
            22:a4:04:d0:07:65:b9:8c:97:89:98:9e:c6:47:f0:e6
        Signature Algorithm: sha256WithRSAEncryption
        Issuer: CN=team598-net
        Validity
            Not Before: Sep 13 04:15:09 2021 GMT
            Not After : Aug 28 04:15:09 2024 GMT
        Subject: CN=team598-client
        Subject Public Key Info:
            Public Key Algorithm: rsaEncryption
                RSA Public-Key: (2048 bit)
                Modulus:
                    00:e5:b2:80:55:ca:eb:4c:5c:08:51:d0:90:ae:b3:
                    11:ee:6b:b8:a4:1b:2d:22:43:90:97:b4:91:84:fa:
                    b2:fc:e0:1e:ba:26:8f:40:9c:94:b1:ae:b7:c6:b0:
                    49:d6:19:c2:95:8f:9f:2e:4d:e5:95:07:dc:06:8f:
                    de:c0:b2:31:8f:24:2d:0d:b6:59:e1:62:63:7a:a1:
                    05:e3:e1:5a:67:bb:68:ce:42:7f:51:05:a0:14:4f:
                    7b:9e:d5:47:55:59:f0:9e:41:fd:cc:ae:0d:53:e9:
                    a2:ed:fc:28:4a:8c:6e:81:87:a7:d4:55:d7:4f:b9:
                    6f:26:a8:1c:0e:13:5b:26:78:2e:fb:76:9c:d2:5e:
                    bc:94:28:80:95:5d:43:ee:41:28:95:c7:34:f8:73:
                    dc:43:ea:da:44:3d:b8:ca:30:6f:1d:f4:ba:b2:af:
                    14:58:07:7c:55:09:a5:da:12:9d:45:0e:22:fc:05:
                    ea:7e:7b:f8:49:23:eb:2a:32:60:16:03:a3:dc:27:
                    32:8b:6a:57:78:49:b2:85:8b:cc:cb:e4:da:09:60:
                    20:aa:46:73:be:8a:72:09:a3:e8:f2:ed:d4:a4:0c:
                    d3:59:aa:70:e9:b2:25:53:af:9f:b5:0c:b0:e3:5e:
                    a5:48:57:18:a1:3f:db:a7:84:df:34:17:cf:24:2d:
                    33:89
                Exponent: 65537 (0x10001)
        X509v3 extensions:
            X509v3 Basic Constraints: 
                CA:FALSE
            X509v3 Subject Key Identifier: 
                A6:35:93:D3:A7:A2:EB:DB:BA:BB:EE:DD:20:CC:C5:B3:76:68:4A:5C
            X509v3 Authority Key Identifier: 
                keyid:1A:D0:6A:3C:9C:49:2B:8B:04:82:F5:F7:AB:33:28:C4:36:84:66:5A
                DirName:/CN=team598-net
                serial:3F:AB:65:4F:43:ED:58:9E:22:B5:28:9F:03:C3:F9:C6:C9:6D:CA:90

            X509v3 Extended Key Usage: 
                TLS Web Client Authentication
            X509v3 Key Usage: 
                Digital Signature
    Signature Algorithm: sha256WithRSAEncryption
         8e:34:1c:85:78:cd:25:a1:91:ad:e2:ce:58:23:85:df:0a:c7:
         34:6c:38:88:2c:0e:5b:14:b0:41:cd:95:6a:7a:86:17:96:c3:
         7c:b3:f1:3c:0c:aa:f9:d5:d7:c9:b4:38:80:61:50:55:c3:d5:
         27:ec:57:90:6f:51:f6:e6:d9:50:c6:bb:1f:5b:a5:21:68:12:
         39:89:d7:00:cd:bd:22:06:9c:1f:8b:57:1a:3f:50:57:44:a2:
         7b:ee:5a:d8:d9:f4:78:84:9e:25:38:ca:41:46:fa:e4:27:df:
         4c:b5:cf:fb:c6:43:71:65:db:85:ec:fa:4a:be:e4:72:fd:64:
         08:02:fc:4e:1b:52:e4:a1:ab:7f:dd:fe:d4:12:24:e6:4d:8f:
         29:a5:45:11:a5:c1:00:95:82:e6:ac:87:78:ff:45:93:f6:70:
         6e:a0:53:9b:c4:ab:68:c6:4f:d8:c4:bd:26:a7:ad:74:87:66:
         90:97:4f:30:c5:cd:36:7c:aa:e8:ec:78:5c:88:d5:0d:88:eb:
         a6:44:d3:a3:d4:be:c5:10:7f:2d:f5:4c:70:d1:f1:7a:43:25:
         02:5d:f0:67:0c:a5:0a:3f:fa:92:44:25:d6:eb:1f:7f:d3:4b:
         67:11:3c:f9:39:f0:97:4e:79:3b:b6:33:ed:40:5b:31:57:1a:
         e6:20:28:45
-----BEGIN CERTIFICATE-----
MIIDXDCCAkSgAwIBAgIQIqQE0AdluYyXiZiexkfw5jANBgkqhkiG9w0BAQsFADAW
MRQwEgYDVQQDDAt0ZWFtNTk4LW5ldDAeFw0yMTA5MTMwNDE1MDlaFw0yNDA4Mjgw
NDE1MDlaMBkxFzAVBgNVBAMMDnRlYW01OTgtY2xpZW50MIIBIjANBgkqhkiG9w0B
AQEFAAOCAQ8AMIIBCgKCAQEA5bKAVcrrTFwIUdCQrrMR7mu4pBstIkOQl7SRhPqy
/OAeuiaPQJyUsa63xrBJ1hnClY+fLk3llQfcBo/ewLIxjyQtDbZZ4WJjeqEF4+Fa
Z7tozkJ/UQWgFE97ntVHVVnwnkH9zK4NU+mi7fwoSoxugYen1FXXT7lvJqgcDhNb
Jngu+3ac0l68lCiAlV1D7kEolcc0+HPcQ+raRD24yjBvHfS6sq8UWAd8VQml2hKd
RQ4i/AXqfnv4SSPrKjJgFgOj3Ccyi2pXeEmyhYvMy+TaCWAgqkZzvopyCaPo8u3U
pAzTWapw6bIlU6+ftQyw416lSFcYoT/bp4TfNBfPJC0ziQIDAQABo4GiMIGfMAkG
A1UdEwQCMAAwHQYDVR0OBBYEFKY1k9Onouvburvu3SDMxbN2aEpcMFEGA1UdIwRK
MEiAFBrQajycSSuLBIL196szKMQ2hGZaoRqkGDAWMRQwEgYDVQQDDAt0ZWFtNTk4
LW5ldIIUP6tlT0PtWJ4itSifA8P5xsltypAwEwYDVR0lBAwwCgYIKwYBBQUHAwIw
CwYDVR0PBAQDAgeAMA0GCSqGSIb3DQEBCwUAA4IBAQCONByFeM0loZGt4s5YI4Xf
Csc0bDiILA5bFLBBzZVqeoYXlsN8s/E8DKr51dfJtDiAYVBVw9Un7FeQb1H25tlQ
xrsfW6UhaBI5idcAzb0iBpwfi1caP1BXRKJ77lrY2fR4hJ4lOMpBRvrkJ99Mtc/7
xkNxZduF7PpKvuRy/WQIAvxOG1Lkoat/3f7UEiTmTY8ppUURpcEAlYLmrId4/0WT
9nBuoFObxKtoxk/YxL0mp610h2aQl08wxc02fKro7HhciNUNiOumRNOj1L7FEH8t
9Uxw0fF6QyUCXfBnDKUKP/qSRCXW6x9/00tnETz5OfCXTnk7tjPtQFsxVxrmIChF
-----END CERTIFICATE-----
