Certificate:
    Data:
        Version: 3 (0x2)
        Serial Number:
            76:a2:13:bd:72:90:45:cb:62:5d:42:02:bb:89:b3:ba
        Signature Algorithm: sha256WithRSAEncryption
        Issuer: CN=team282-net
        Validity
            Not Before: Sep 13 01:13:52 2021 GMT
            Not After : Aug 28 01:13:52 2024 GMT
        Subject: CN=team282-server
        Subject Public Key Info:
            Public Key Algorithm: rsaEncryption
                RSA Public-Key: (2048 bit)
                Modulus:
                    00:ce:36:4a:f3:4c:b6:42:f6:ad:ea:9a:8f:6a:30:
                    ae:67:34:33:0e:b5:00:51:3f:91:2f:bc:8e:0b:9e:
                    eb:64:9b:ef:6d:c8:8d:b7:7f:94:b5:bc:55:9e:f1:
                    b9:c4:8f:7d:81:1a:71:a1:95:70:91:8e:9d:f1:62:
                    43:36:98:7b:77:bd:05:27:16:33:d8:83:fe:ac:5d:
                    56:13:9b:09:23:f0:e1:b7:6b:6d:1a:b7:1d:ad:78:
                    fa:0c:73:bb:8c:27:dc:83:3f:24:53:a9:de:e3:2d:
                    1b:d0:7a:3a:12:b1:b9:00:f4:a1:32:07:99:5c:19:
                    43:73:15:0a:a1:2a:e0:60:24:fa:85:f3:3e:ae:ac:
                    21:62:a2:ad:d9:9b:ec:93:e4:87:ff:82:52:e4:3e:
                    cd:9a:c9:ba:0b:9c:11:08:ed:18:d0:fd:75:29:44:
                    cb:ac:af:57:c4:a3:ce:58:c4:10:da:18:fd:a5:12:
                    b0:c7:c8:ee:f4:5c:49:db:48:03:dd:9d:09:82:8e:
                    a6:8e:7d:c9:4d:a3:1f:35:f8:b2:94:e3:f0:ba:0a:
                    a0:50:9c:20:be:ee:af:9c:ff:ab:f5:62:a3:36:6c:
                    46:b6:99:b8:86:bb:f7:50:e5:91:7a:6b:18:d9:83:
                    d3:4b:e5:34:b5:9d:34:1c:ee:93:8b:76:1c:22:de:
                    ac:8f
                Exponent: 65537 (0x10001)
        X509v3 extensions:
            X509v3 Basic Constraints: 
                CA:FALSE
            X509v3 Subject Key Identifier: 
                17:12:F1:5E:C9:E0:CA:7F:90:1E:C3:E2:20:E9:81:3D:7B:61:4A:CC
            X509v3 Authority Key Identifier: 
                keyid:09:C0:EF:89:E6:A9:3B:36:9A:04:0C:13:8B:83:BD:10:68:A3:09:D5
                DirName:/CN=team282-net
                serial:2C:3E:94:56:FF:D0:DB:03:9F:3E:DE:CA:9B:1B:F4:8C:95:7B:27:CA

            X509v3 Extended Key Usage: 
                TLS Web Server Authentication
            X509v3 Key Usage: 
                Digital Signature, Key Encipherment
            X509v3 Subject Alternative Name: 
                DNS:team282-server
    Signature Algorithm: sha256WithRSAEncryption
         23:97:57:9c:d8:9c:13:3f:9c:c6:25:e1:ec:49:d9:8a:f9:27:
         da:13:ab:41:31:3b:c2:19:e9:3e:cb:c1:4a:fa:b8:a7:38:66:
         9a:72:e6:84:98:22:9b:50:e3:64:4c:12:de:7e:ad:78:da:bb:
         15:71:74:1d:be:cc:82:ed:d1:a6:59:f3:6d:d3:45:8c:5f:b4:
         a1:48:42:b7:a9:d8:1d:2f:43:f5:1d:06:0a:50:a7:08:69:04:
         30:c8:06:e5:4b:7f:85:c6:bb:ca:f5:ad:19:02:1a:56:7e:68:
         45:52:f4:a4:21:a2:c0:a2:35:ec:60:ab:7b:8d:66:cb:d5:8f:
         6e:3a:1d:59:c6:b5:73:49:e7:cd:b2:d1:e4:a3:ec:ba:93:5e:
         c0:17:14:4e:13:0b:ce:01:c9:2c:91:5a:29:b1:87:fc:e1:93:
         a4:f9:c1:82:ee:6d:66:93:3a:2b:40:13:ea:06:85:9c:58:03:
         74:10:a0:3a:2d:5d:70:d7:11:68:a9:9a:2d:31:91:01:32:77:
         cb:74:e5:83:0e:83:ee:e0:b1:3e:27:75:b9:fe:f4:51:8d:7a:
         99:67:d1:50:39:be:c3:92:ce:32:0c:94:33:aa:dc:bd:ee:78:
         28:82:24:df:bc:28:9b:75:5e:6b:6d:21:e4:c4:e3:3b:54:c2:
         fc:2c:6f:14
-----BEGIN CERTIFICATE-----
MIIDdzCCAl+gAwIBAgIQdqITvXKQRctiXUICu4mzujANBgkqhkiG9w0BAQsFADAW
MRQwEgYDVQQDDAt0ZWFtMjgyLW5ldDAeFw0yMTA5MTMwMTEzNTJaFw0yNDA4Mjgw
MTEzNTJaMBkxFzAVBgNVBAMMDnRlYW0yODItc2VydmVyMIIBIjANBgkqhkiG9w0B
AQEFAAOCAQ8AMIIBCgKCAQEAzjZK80y2Qvat6pqPajCuZzQzDrUAUT+RL7yOC57r
ZJvvbciNt3+UtbxVnvG5xI99gRpxoZVwkY6d8WJDNph7d70FJxYz2IP+rF1WE5sJ
I/Dht2ttGrcdrXj6DHO7jCfcgz8kU6ne4y0b0Ho6ErG5APShMgeZXBlDcxUKoSrg
YCT6hfM+rqwhYqKt2Zvsk+SH/4JS5D7Nmsm6C5wRCO0Y0P11KUTLrK9XxKPOWMQQ
2hj9pRKwx8ju9FxJ20gD3Z0Jgo6mjn3JTaMfNfiylOPwugqgUJwgvu6vnP+r9WKj
NmxGtpm4hrv3UOWRemsY2YPTS+U0tZ00HO6Ti3YcIt6sjwIDAQABo4G9MIG6MAkG
A1UdEwQCMAAwHQYDVR0OBBYEFBcS8V7J4Mp/kB7D4iDpgT17YUrMMFEGA1UdIwRK
MEiAFAnA74nmqTs2mgQME4uDvRBoownVoRqkGDAWMRQwEgYDVQQDDAt0ZWFtMjgy
LW5ldIIULD6UVv/Q2wOfPt7Kmxv0jJV7J8owEwYDVR0lBAwwCgYIKwYBBQUHAwEw
CwYDVR0PBAQDAgWgMBkGA1UdEQQSMBCCDnRlYW0yODItc2VydmVyMA0GCSqGSIb3
DQEBCwUAA4IBAQAjl1ec2JwTP5zGJeHsSdmK+SfaE6tBMTvCGek+y8FK+rinOGaa
cuaEmCKbUONkTBLefq142rsVcXQdvsyC7dGmWfNt00WMX7ShSEK3qdgdL0P1HQYK
UKcIaQQwyAblS3+FxrvK9a0ZAhpWfmhFUvSkIaLAojXsYKt7jWbL1Y9uOh1ZxrVz
SefNstHko+y6k17AFxROEwvOAckskVopsYf84ZOk+cGC7m1mkzorQBPqBoWcWAN0
EKA6LV1w1xFoqZotMZEBMnfLdOWDDoPu4LE+J3W5/vRRjXqZZ9FQOb7Dks4yDJQz
qty97ngogiTfvCibdV5rbSHkxOM7VML8LG8U
-----END CERTIFICATE-----
