Certificate:
    Data:
        Version: 3 (0x2)
        Serial Number:
            21:39:50:2d:29:9a:6a:11:14:17:b5:d6:6e:91:a0:39
        Signature Algorithm: sha256WithRSAEncryption
        Issuer: CN=team408-net
        Validity
            Not Before: Sep 13 02:29:00 2021 GMT
            Not After : Aug 28 02:29:00 2024 GMT
        Subject: CN=team408-client
        Subject Public Key Info:
            Public Key Algorithm: rsaEncryption
                RSA Public-Key: (2048 bit)
                Modulus:
                    00:af:ba:5f:5d:1e:6a:c2:55:30:f1:58:c2:32:d4:
                    a3:ce:92:c3:62:eb:d5:39:49:56:51:29:da:9f:d4:
                    77:3c:d4:f9:70:17:ea:52:7e:26:7a:96:3c:0c:46:
                    99:3c:e4:c9:c6:29:be:ed:1c:4c:dd:55:2a:ca:2e:
                    7f:f5:a8:38:e8:0c:6f:87:fb:55:85:af:63:c7:bf:
                    ce:19:12:6c:eb:f3:33:3e:c9:7b:31:2d:44:f9:7f:
                    0c:52:30:e6:96:33:a3:9f:b0:c3:a7:28:10:7f:a0:
                    17:ae:95:52:f2:77:4b:c7:a5:49:53:57:a4:f4:3b:
                    a5:dd:7f:ec:26:a6:db:85:77:c9:5c:54:5b:cd:4a:
                    97:11:82:c0:7b:05:fd:26:12:d8:3a:d0:e3:c5:43:
                    d7:3b:06:93:a4:2a:d7:a8:ce:1f:15:b1:68:92:5c:
                    1c:28:11:2e:d0:fe:eb:76:94:85:0b:42:a1:41:4b:
                    79:f9:a5:a2:b9:0e:d0:97:3c:7b:bc:5e:ed:a8:8e:
                    f8:38:d2:b9:57:c8:1e:1d:30:a4:d5:53:38:f4:ca:
                    2b:e9:b4:02:60:17:74:bb:03:cb:63:a5:9c:f9:cd:
                    38:b8:35:bd:6e:7b:36:87:37:8c:fa:51:0e:2a:30:
                    c8:96:0d:1d:83:20:fc:a1:6f:c5:46:51:7b:fc:8b:
                    36:31
                Exponent: 65537 (0x10001)
        X509v3 extensions:
            X509v3 Basic Constraints: 
                CA:FALSE
            X509v3 Subject Key Identifier: 
                46:E2:37:EC:BC:D1:8A:7B:49:9D:27:22:6D:6A:03:04:15:79:FE:2D
            X509v3 Authority Key Identifier: 
                keyid:31:9A:BB:C0:53:D5:49:36:49:CB:89:FB:5C:63:8D:1A:58:2A:68:C4
                DirName:/CN=team408-net
                serial:7E:4D:DE:2F:ED:D2:3D:62:15:E9:D8:48:29:EF:A9:8C:E3:15:6B:40

            X509v3 Extended Key Usage: 
                TLS Web Client Authentication
            X509v3 Key Usage: 
                Digital Signature
    Signature Algorithm: sha256WithRSAEncryption
         24:d5:5b:c5:c5:4c:1d:d0:c9:39:8c:62:59:bc:bd:36:c4:ca:
         dd:30:e4:d6:ee:16:24:a7:5b:44:61:a4:95:0a:02:45:bc:0e:
         18:51:97:9b:b8:bd:11:b1:20:8f:3e:1a:1e:e2:6c:00:2b:8d:
         d1:0f:7c:ab:ae:a5:41:cb:c0:66:05:e9:98:86:81:cb:ae:6e:
         47:db:16:35:06:35:fe:2e:6a:4e:3e:66:1b:59:07:f6:29:46:
         88:c1:9d:c6:a5:69:1a:cc:15:66:b9:a5:32:40:2e:04:4f:a1:
         aa:ee:b4:bd:31:32:88:ff:45:a3:f5:b6:3d:c2:01:12:ed:de:
         43:14:5b:18:54:38:0f:5a:0c:40:5c:1f:85:b4:bf:a6:63:62:
         16:78:e0:01:82:6e:ab:c8:58:c9:4d:39:b3:93:10:1e:c1:18:
         51:39:3e:42:f2:f7:cb:5c:b0:49:e0:46:d9:07:bf:96:e6:3f:
         8c:02:a3:f2:23:b5:3f:18:0c:11:4d:c4:1c:7f:f6:66:38:ae:
         cd:e0:e0:29:cd:62:ad:da:01:a3:1a:e5:9d:11:5d:21:5c:18:
         a3:5c:30:52:08:57:41:42:16:2c:7a:22:c2:ca:14:18:e8:1c:
         92:69:db:da:9c:9e:e3:8a:da:1c:f7:3e:8d:72:c0:90:f4:b9:
         00:e3:59:e9
-----BEGIN CERTIFICATE-----
MIIDXDCCAkSgAwIBAgIQITlQLSmaahEUF7XWbpGgOTANBgkqhkiG9w0BAQsFADAW
MRQwEgYDVQQDDAt0ZWFtNDA4LW5ldDAeFw0yMTA5MTMwMjI5MDBaFw0yNDA4Mjgw
MjI5MDBaMBkxFzAVBgNVBAMMDnRlYW00MDgtY2xpZW50MIIBIjANBgkqhkiG9w0B
AQEFAAOCAQ8AMIIBCgKCAQEAr7pfXR5qwlUw8VjCMtSjzpLDYuvVOUlWUSnan9R3
PNT5cBfqUn4mepY8DEaZPOTJxim+7RxM3VUqyi5/9ag46Axvh/tVha9jx7/OGRJs
6/MzPsl7MS1E+X8MUjDmljOjn7DDpygQf6AXrpVS8ndLx6VJU1ek9Dul3X/sJqbb
hXfJXFRbzUqXEYLAewX9JhLYOtDjxUPXOwaTpCrXqM4fFbFoklwcKBEu0P7rdpSF
C0KhQUt5+aWiuQ7Qlzx7vF7tqI74ONK5V8geHTCk1VM49Mor6bQCYBd0uwPLY6Wc
+c04uDW9bns2hzeM+lEOKjDIlg0dgyD8oW/FRlF7/Is2MQIDAQABo4GiMIGfMAkG
A1UdEwQCMAAwHQYDVR0OBBYEFEbiN+y80Yp7SZ0nIm1qAwQVef4tMFEGA1UdIwRK
MEiAFDGau8BT1Uk2ScuJ+1xjjRpYKmjEoRqkGDAWMRQwEgYDVQQDDAt0ZWFtNDA4
LW5ldIIUfk3eL+3SPWIV6dhIKe+pjOMVa0AwEwYDVR0lBAwwCgYIKwYBBQUHAwIw
CwYDVR0PBAQDAgeAMA0GCSqGSIb3DQEBCwUAA4IBAQAk1VvFxUwd0Mk5jGJZvL02
xMrdMOTW7hYkp1tEYaSVCgJFvA4YUZebuL0RsSCPPhoe4mwAK43RD3yrrqVBy8Bm
BemYhoHLrm5H2xY1BjX+LmpOPmYbWQf2KUaIwZ3GpWkazBVmuaUyQC4ET6Gq7rS9
MTKI/0Wj9bY9wgES7d5DFFsYVDgPWgxAXB+FtL+mY2IWeOABgm6ryFjJTTmzkxAe
wRhROT5C8vfLXLBJ4EbZB7+W5j+MAqPyI7U/GAwRTcQcf/ZmOK7N4OApzWKt2gGj
GuWdEV0hXBijXDBSCFdBQhYseiLCyhQY6BySadvanJ7jitoc9z6NcsCQ9LkA41np
-----END CERTIFICATE-----
