Certificate:
    Data:
        Version: 3 (0x2)
        Serial Number:
            2a:75:9b:0d:1f:c7:3c:6f:aa:c3:14:b4:72:1c:36:68
        Signature Algorithm: sha256WithRSAEncryption
        Issuer: CN=team408-net
        Validity
            Not Before: Sep 13 02:29:00 2021 GMT
            Not After : Aug 28 02:29:00 2024 GMT
        Subject: CN=team408-server
        Subject Public Key Info:
            Public Key Algorithm: rsaEncryption
                RSA Public-Key: (2048 bit)
                Modulus:
                    00:dc:dc:6b:c0:be:03:99:62:ee:c1:2b:f6:9c:b4:
                    52:0f:3a:e2:e5:d8:45:5a:06:15:25:df:40:ad:ea:
                    32:ac:7f:e7:77:bc:f9:ec:25:93:c5:09:ca:18:5e:
                    0d:b4:b6:1c:3d:7c:5e:29:a5:0f:7a:a3:f6:ce:39:
                    f0:db:4b:6e:3a:7e:7f:c5:17:4f:3e:3b:25:58:3b:
                    76:f2:f0:53:c7:0d:04:13:56:a0:7e:fa:e8:73:0e:
                    39:dc:c6:d4:1b:52:02:d0:0d:c4:50:cb:1f:a1:5f:
                    b9:96:ca:7d:2c:11:06:8f:7b:15:d0:ce:a8:4b:0c:
                    d5:12:08:eb:09:a6:21:2f:ca:31:98:a1:35:0a:aa:
                    54:c8:c1:b1:93:44:ee:0b:33:98:86:03:4c:8f:f6:
                    b8:0d:93:ae:dc:ba:24:3f:15:e4:7e:1e:6f:fa:2a:
                    fe:05:41:a3:23:eb:58:1d:d3:18:49:cf:66:29:7d:
                    49:93:21:3e:ae:5d:31:f9:95:b5:38:26:d5:ed:f6:
                    2e:7e:ea:6a:ad:32:cb:69:26:b4:83:95:e8:7d:b9:
                    cf:55:2f:22:68:f7:67:23:8d:ba:b9:9e:60:99:f7:
                    15:9e:7c:b7:6a:de:c5:7d:b6:4c:90:2d:a8:d9:92:
                    7f:b4:e0:d9:4d:bb:d9:1c:34:c3:94:5f:c0:e4:f3:
                    10:21
                Exponent: 65537 (0x10001)
        X509v3 extensions:
            X509v3 Basic Constraints: 
                CA:FALSE
            X509v3 Subject Key Identifier: 
                6C:CF:2F:4D:74:7C:E7:9C:E7:10:EF:59:30:A6:16:4C:AB:34:87:D6
            X509v3 Authority Key Identifier: 
                keyid:31:9A:BB:C0:53:D5:49:36:49:CB:89:FB:5C:63:8D:1A:58:2A:68:C4
                DirName:/CN=team408-net
                serial:7E:4D:DE:2F:ED:D2:3D:62:15:E9:D8:48:29:EF:A9:8C:E3:15:6B:40

            X509v3 Extended Key Usage: 
                TLS Web Server Authentication
            X509v3 Key Usage: 
                Digital Signature, Key Encipherment
            X509v3 Subject Alternative Name: 
                DNS:team408-server
    Signature Algorithm: sha256WithRSAEncryption
         5b:f5:f8:31:7f:73:54:a5:cb:f7:93:bd:81:b4:89:02:d1:42:
         d9:c5:ff:19:ff:21:8f:f1:f3:ea:94:a6:15:90:8e:2e:c8:10:
         1e:2f:45:b0:a1:60:d3:41:89:33:12:c2:2c:50:44:97:e5:a0:
         6f:9b:f0:ad:95:ee:41:a9:75:98:52:82:a1:e1:d4:c6:7e:c8:
         64:ac:3b:58:ab:65:08:83:0e:f5:75:18:de:27:cd:1e:31:b4:
         07:87:3a:c7:99:ff:e4:86:b6:31:3d:b1:6d:34:7a:3f:ea:91:
         c0:0c:4f:4b:0f:f0:03:b0:c6:e2:43:f8:f7:6a:ec:8a:fc:ae:
         52:53:7e:9f:97:78:28:b1:7d:19:d7:3c:f8:c6:ae:a4:45:cb:
         d6:0f:14:c0:03:ab:68:51:56:42:57:f1:e3:53:86:b5:7f:3f:
         1b:fb:6b:3a:0f:d6:f6:a5:70:1d:ff:3b:a6:67:c3:66:26:55:
         a5:f8:30:87:15:75:15:af:10:e7:35:9f:6e:de:47:01:27:83:
         31:3d:aa:84:a2:04:a1:99:98:b9:c6:84:a3:5c:ce:df:da:84:
         0b:5b:5e:6d:4a:80:29:17:4f:5b:d4:22:55:97:4e:31:17:04:
         fb:cf:37:5e:b8:2b:86:c4:63:4b:c6:56:a8:4b:dc:61:49:58:
         cd:d9:5f:eb
-----BEGIN CERTIFICATE-----
MIIDdzCCAl+gAwIBAgIQKnWbDR/HPG+qwxS0chw2aDANBgkqhkiG9w0BAQsFADAW
MRQwEgYDVQQDDAt0ZWFtNDA4LW5ldDAeFw0yMTA5MTMwMjI5MDBaFw0yNDA4Mjgw
MjI5MDBaMBkxFzAVBgNVBAMMDnRlYW00MDgtc2VydmVyMIIBIjANBgkqhkiG9w0B
AQEFAAOCAQ8AMIIBCgKCAQEA3NxrwL4DmWLuwSv2nLRSDzri5dhFWgYVJd9Areoy
rH/nd7z57CWTxQnKGF4NtLYcPXxeKaUPeqP2zjnw20tuOn5/xRdPPjslWDt28vBT
xw0EE1agfvrocw453MbUG1IC0A3EUMsfoV+5lsp9LBEGj3sV0M6oSwzVEgjrCaYh
L8oxmKE1CqpUyMGxk0TuCzOYhgNMj/a4DZOu3LokPxXkfh5v+ir+BUGjI+tYHdMY
Sc9mKX1JkyE+rl0x+ZW1OCbV7fYufupqrTLLaSa0g5XofbnPVS8iaPdnI426uZ5g
mfcVnny3at7FfbZMkC2o2ZJ/tODZTbvZHDTDlF/A5PMQIQIDAQABo4G9MIG6MAkG
A1UdEwQCMAAwHQYDVR0OBBYEFGzPL010fOec5xDvWTCmFkyrNIfWMFEGA1UdIwRK
MEiAFDGau8BT1Uk2ScuJ+1xjjRpYKmjEoRqkGDAWMRQwEgYDVQQDDAt0ZWFtNDA4
LW5ldIIUfk3eL+3SPWIV6dhIKe+pjOMVa0AwEwYDVR0lBAwwCgYIKwYBBQUHAwEw
CwYDVR0PBAQDAgWgMBkGA1UdEQQSMBCCDnRlYW00MDgtc2VydmVyMA0GCSqGSIb3
DQEBCwUAA4IBAQBb9fgxf3NUpcv3k72BtIkC0ULZxf8Z/yGP8fPqlKYVkI4uyBAe
L0WwoWDTQYkzEsIsUESX5aBvm/Ctle5BqXWYUoKh4dTGfshkrDtYq2UIgw71dRje
J80eMbQHhzrHmf/khrYxPbFtNHo/6pHADE9LD/ADsMbiQ/j3auyK/K5SU36fl3go
sX0Z1zz4xq6kRcvWDxTAA6toUVZCV/HjU4a1fz8b+2s6D9b2pXAd/zumZ8NmJlWl
+DCHFXUVrxDnNZ9u3kcBJ4MxPaqEogShmZi5xoSjXM7f2oQLW15tSoApF09b1CJV
l04xFwT7zzdeuCuGxGNLxlaoS9xhSVjN2V/r
-----END CERTIFICATE-----
