Certificate:
    Data:
        Version: 3 (0x2)
        Serial Number:
            14:88:35:68:fe:67:8f:f5:8d:4c:e2:f6:90:fa:8a:7a
        Signature Algorithm: sha256WithRSAEncryption
        Issuer: CN=team660-net
        Validity
            Not Before: Sep 13 04:54:17 2021 GMT
            Not After : Aug 28 04:54:17 2024 GMT
        Subject: CN=team660-server
        Subject Public Key Info:
            Public Key Algorithm: rsaEncryption
                RSA Public-Key: (2048 bit)
                Modulus:
                    00:cd:56:48:a1:ae:e4:2c:1c:55:bb:be:d0:de:02:
                    f1:81:32:0b:8d:b8:0f:3a:98:00:63:16:84:6b:6e:
                    cc:c0:73:22:2c:ab:26:f8:16:11:74:74:9a:5f:4a:
                    94:d9:02:77:03:64:d6:cd:00:45:a6:b3:5f:6d:46:
                    d7:4b:a2:0b:a1:ef:45:c7:7c:c1:92:48:48:f8:b7:
                    97:ae:a9:e0:31:5b:1a:3e:92:2f:24:04:09:40:80:
                    70:5a:76:7b:ca:ec:4c:9a:9d:c4:73:e6:f3:17:fe:
                    a4:93:88:d7:cd:f5:da:36:c2:a0:48:4c:f8:e9:d5:
                    5a:c9:10:a5:ea:d0:81:53:43:4f:fb:f9:fc:c8:42:
                    88:a9:c9:d3:b6:a0:d1:ac:b3:52:22:ab:4d:27:c5:
                    ac:d0:c1:23:d3:8c:21:1f:61:15:a3:5f:9f:d2:cd:
                    a1:b1:e4:98:9a:e6:89:75:cf:d9:20:74:96:2a:61:
                    bf:11:a0:84:eb:5d:e2:71:1f:63:18:18:54:7b:77:
                    df:14:09:c8:83:37:9d:e0:f5:ad:81:5d:c4:4b:bb:
                    e0:87:1d:85:77:f1:5f:35:73:50:e9:94:62:6c:fe:
                    38:06:25:fb:e4:f7:aa:46:61:cc:5c:4b:82:8a:b7:
                    da:c4:af:7d:b8:b9:b4:d5:72:2e:21:80:62:7b:c4:
                    f5:b1
                Exponent: 65537 (0x10001)
        X509v3 extensions:
            X509v3 Basic Constraints: 
                CA:FALSE
            X509v3 Subject Key Identifier: 
                B0:6C:E4:8C:9A:57:70:AB:CA:02:3A:8D:6D:0E:13:E1:D8:03:48:BC
            X509v3 Authority Key Identifier: 
                keyid:16:36:F5:C2:63:6A:84:16:EB:4E:8B:ED:00:51:7A:CF:95:80:31:A5
                DirName:/CN=team660-net
                serial:60:83:F3:2C:22:AF:F0:E7:04:C1:38:2E:AF:E7:58:96:A6:7B:5C:59

            X509v3 Extended Key Usage: 
                TLS Web Server Authentication
            X509v3 Key Usage: 
                Digital Signature, Key Encipherment
            X509v3 Subject Alternative Name: 
                DNS:team660-server
    Signature Algorithm: sha256WithRSAEncryption
         01:71:25:c7:eb:8c:e9:fa:b3:3a:c4:ce:3c:ea:75:4f:9f:67:
         a8:3f:64:60:2a:a1:24:91:d7:ee:4a:f1:e5:b0:de:38:7f:37:
         d2:e6:b0:43:7b:32:87:31:4b:21:5e:58:6f:77:18:fa:24:ed:
         dd:b1:8e:34:b2:43:2d:8d:e2:6f:ea:81:15:4b:00:65:f4:cd:
         f8:a0:ab:00:90:34:ff:ea:ab:7c:83:24:57:8b:81:f9:bd:70:
         74:d4:d0:4d:16:5b:c5:93:75:f5:1d:8d:f2:d3:80:ad:ee:18:
         44:21:19:db:44:99:c0:cf:ed:14:ae:b5:4d:cf:f9:e5:5d:c0:
         af:be:ff:c2:03:68:fc:9f:90:33:b4:0e:fc:7a:67:e0:db:57:
         20:65:0a:f6:ff:f1:53:ad:38:1f:70:fe:05:23:e0:ea:6d:64:
         86:0a:32:cd:8c:1e:77:b2:0c:d8:0f:ee:a3:5e:d7:a2:05:d5:
         e4:16:69:39:89:f5:b8:4f:a3:f3:a3:8f:07:d5:18:ca:99:28:
         f9:ca:f3:00:57:69:53:a8:5d:59:1d:5e:56:dd:3b:04:6e:42:
         23:f6:99:da:a0:5b:90:13:28:b3:c3:63:9a:c0:a3:1c:23:85:
         46:b5:ad:32:e5:b1:21:fd:a5:7f:c5:bd:4b:27:ec:dd:6e:ad:
         d6:16:5c:cf
-----BEGIN CERTIFICATE-----
MIIDdzCCAl+gAwIBAgIQFIg1aP5nj/WNTOL2kPqKejANBgkqhkiG9w0BAQsFADAW
MRQwEgYDVQQDDAt0ZWFtNjYwLW5ldDAeFw0yMTA5MTMwNDU0MTdaFw0yNDA4Mjgw
NDU0MTdaMBkxFzAVBgNVBAMMDnRlYW02NjAtc2VydmVyMIIBIjANBgkqhkiG9w0B
AQEFAAOCAQ8AMIIBCgKCAQEAzVZIoa7kLBxVu77Q3gLxgTILjbgPOpgAYxaEa27M
wHMiLKsm+BYRdHSaX0qU2QJ3A2TWzQBFprNfbUbXS6ILoe9Fx3zBkkhI+LeXrqng
MVsaPpIvJAQJQIBwWnZ7yuxMmp3Ec+bzF/6kk4jXzfXaNsKgSEz46dVayRCl6tCB
U0NP+/n8yEKIqcnTtqDRrLNSIqtNJ8Ws0MEj04whH2EVo1+f0s2hseSYmuaJdc/Z
IHSWKmG/EaCE613icR9jGBhUe3ffFAnIgzed4PWtgV3ES7vghx2Fd/FfNXNQ6ZRi
bP44BiX75PeqRmHMXEuCirfaxK99uLm01XIuIYBie8T1sQIDAQABo4G9MIG6MAkG
A1UdEwQCMAAwHQYDVR0OBBYEFLBs5IyaV3CrygI6jW0OE+HYA0i8MFEGA1UdIwRK
MEiAFBY29cJjaoQW606L7QBRes+VgDGloRqkGDAWMRQwEgYDVQQDDAt0ZWFtNjYw
LW5ldIIUYIPzLCKv8OcEwTgur+dYlqZ7XFkwEwYDVR0lBAwwCgYIKwYBBQUHAwEw
CwYDVR0PBAQDAgWgMBkGA1UdEQQSMBCCDnRlYW02NjAtc2VydmVyMA0GCSqGSIb3
DQEBCwUAA4IBAQABcSXH64zp+rM6xM486nVPn2eoP2RgKqEkkdfuSvHlsN44fzfS
5rBDezKHMUshXlhvdxj6JO3dsY40skMtjeJv6oEVSwBl9M34oKsAkDT/6qt8gyRX
i4H5vXB01NBNFlvFk3X1HY3y04Ct7hhEIRnbRJnAz+0UrrVNz/nlXcCvvv/CA2j8
n5AztA78emfg21cgZQr2//FTrTgfcP4FI+DqbWSGCjLNjB53sgzYD+6jXteiBdXk
Fmk5ifW4T6Pzo48H1RjKmSj5yvMAV2lTqF1ZHV5W3TsEbkIj9pnaoFuQEyizw2Oa
wKMcI4VGta0y5bEh/aV/xb1LJ+zdbq3WFlzP
-----END CERTIFICATE-----
