Certificate:
    Data:
        Version: 3 (0x2)
        Serial Number:
            33:27:53:a6:98:bc:2e:a3:39:70:7b:f0:62:99:8e:6f
        Signature Algorithm: sha256WithRSAEncryption
        Issuer: CN=team169-net
        Validity
            Not Before: Sep 13 00:13:50 2021 GMT
            Not After : Aug 28 00:13:50 2024 GMT
        Subject: CN=team169-server
        Subject Public Key Info:
            Public Key Algorithm: rsaEncryption
                RSA Public-Key: (2048 bit)
                Modulus:
                    00:b6:1a:69:d6:97:c2:54:a9:da:ef:98:89:63:58:
                    ff:3a:56:7e:9d:57:e6:0c:fc:c1:c2:73:50:89:a0:
                    e8:b0:df:c7:de:52:21:61:60:de:7a:e4:21:9b:01:
                    bb:0d:ec:80:44:9f:60:36:eb:30:21:d5:60:98:2a:
                    55:63:c1:80:b6:ce:a9:67:66:11:51:4e:3f:f5:41:
                    b1:0b:91:a7:bf:22:4f:5d:5c:b6:a9:d9:07:47:d8:
                    a3:7e:82:31:95:c7:15:24:56:18:5a:0b:bf:9e:35:
                    f3:48:f9:7f:c7:71:a2:2e:b3:9c:42:dd:b0:2e:07:
                    79:68:4f:cc:8c:66:a2:62:6e:4d:57:7b:c3:b4:57:
                    c2:4b:51:88:b8:eb:f7:32:15:7e:08:3c:f9:f2:9f:
                    75:8c:f4:4a:6c:76:4a:76:ab:80:a6:67:fd:cc:2f:
                    93:ff:49:b5:61:5e:30:5e:28:ca:c2:9a:34:8a:28:
                    06:a5:32:37:a5:14:30:fa:90:22:b4:83:48:93:7c:
                    f7:0e:c1:86:e0:f1:7e:7f:46:de:f3:f2:d1:72:89:
                    b0:c5:8e:bf:99:c6:30:36:74:18:4f:69:1c:b1:3b:
                    dd:4a:f7:6f:0d:ab:05:37:e2:88:42:d9:50:6d:e4:
                    14:2d:27:6a:05:24:ee:09:ed:56:77:88:e8:df:c6:
                    cb:d3
                Exponent: 65537 (0x10001)
        X509v3 extensions:
            X509v3 Basic Constraints: 
                CA:FALSE
            X509v3 Subject Key Identifier: 
                CB:C2:A5:B9:BC:88:FC:24:8B:F0:04:EA:E1:E2:EE:EB:88:3B:8E:B1
            X509v3 Authority Key Identifier: 
                keyid:27:22:AD:38:5A:D2:4C:99:C8:89:C2:C1:F4:81:E1:7A:D1:F1:8C:88
                DirName:/CN=team169-net
                serial:8D:B5:FE:9F:46:ED:17:CC:33:15:17:D1:41:80:F5:42:F3:6B:36

            X509v3 Extended Key Usage: 
                TLS Web Server Authentication
            X509v3 Key Usage: 
                Digital Signature, Key Encipherment
            X509v3 Subject Alternative Name: 
                DNS:team169-server
    Signature Algorithm: sha256WithRSAEncryption
         31:ec:93:9b:07:13:0b:e8:8b:ee:6a:e8:f7:39:dd:cb:2a:36:
         b9:41:fd:af:f7:77:cb:bf:60:97:3b:1e:fc:b7:2b:95:28:e4:
         fd:a9:0d:f4:27:c8:a8:4e:85:88:7e:57:d2:22:40:02:b7:c2:
         f9:be:51:83:2c:81:4a:e8:87:91:39:ab:40:a8:f1:89:1a:c8:
         00:2a:03:65:60:29:f0:b6:fd:8f:90:1d:3b:f9:06:8d:83:79:
         4f:9f:60:85:3e:27:2a:90:b5:63:da:60:6b:17:d8:d1:f3:62:
         b9:df:a5:9f:36:ad:2f:91:db:f1:2d:bd:b1:23:a1:78:23:a0:
         78:f0:25:e5:41:50:07:03:41:a7:e3:25:31:2f:2e:65:cb:6f:
         c6:63:52:54:b6:48:05:81:9a:78:e1:cf:ac:97:a8:46:7d:0a:
         29:0c:94:1d:46:bf:ad:0b:35:35:75:d9:fa:8e:d8:5b:3d:80:
         59:dd:2e:72:3f:46:8d:5b:88:6a:df:79:af:83:2d:f1:bc:47:
         29:5a:70:b5:cf:e4:7e:ae:95:c9:b6:9e:b5:98:f0:78:7a:34:
         85:dd:89:1c:34:ad:3c:67:dc:78:bf:b1:91:c1:91:b2:21:51:
         96:e1:78:69:8c:81:48:d5:1e:01:21:49:f0:e7:db:15:5a:48:
         e3:92:cf:2b
-----BEGIN CERTIFICATE-----
MIIDdzCCAl+gAwIBAgIQMydTppi8LqM5cHvwYpmObzANBgkqhkiG9w0BAQsFADAW
MRQwEgYDVQQDDAt0ZWFtMTY5LW5ldDAeFw0yMTA5MTMwMDEzNTBaFw0yNDA4Mjgw
MDEzNTBaMBkxFzAVBgNVBAMMDnRlYW0xNjktc2VydmVyMIIBIjANBgkqhkiG9w0B
AQEFAAOCAQ8AMIIBCgKCAQEAthpp1pfCVKna75iJY1j/OlZ+nVfmDPzBwnNQiaDo
sN/H3lIhYWDeeuQhmwG7DeyARJ9gNuswIdVgmCpVY8GAts6pZ2YRUU4/9UGxC5Gn
vyJPXVy2qdkHR9ijfoIxlccVJFYYWgu/njXzSPl/x3GiLrOcQt2wLgd5aE/MjGai
Ym5NV3vDtFfCS1GIuOv3MhV+CDz58p91jPRKbHZKdquApmf9zC+T/0m1YV4wXijK
wpo0iigGpTI3pRQw+pAitINIk3z3DsGG4PF+f0be8/LRcomwxY6/mcYwNnQYT2kc
sTvdSvdvDasFN+KIQtlQbeQULSdqBSTuCe1Wd4jo38bL0wIDAQABo4G9MIG6MAkG
A1UdEwQCMAAwHQYDVR0OBBYEFMvCpbm8iPwki/AE6uHi7uuIO46xMFEGA1UdIwRK
MEiAFCcirTha0kyZyInCwfSB4XrR8YyIoRqkGDAWMRQwEgYDVQQDDAt0ZWFtMTY5
LW5ldIIUAI21/p9G7RfMMxUX0UGA9ULzazYwEwYDVR0lBAwwCgYIKwYBBQUHAwEw
CwYDVR0PBAQDAgWgMBkGA1UdEQQSMBCCDnRlYW0xNjktc2VydmVyMA0GCSqGSIb3
DQEBCwUAA4IBAQAx7JObBxML6Ivuauj3Od3LKja5Qf2v93fLv2CXOx78tyuVKOT9
qQ30J8ioToWIflfSIkACt8L5vlGDLIFK6IeROatAqPGJGsgAKgNlYCnwtv2PkB07
+QaNg3lPn2CFPicqkLVj2mBrF9jR82K536WfNq0vkdvxLb2xI6F4I6B48CXlQVAH
A0Gn4yUxLy5ly2/GY1JUtkgFgZp44c+sl6hGfQopDJQdRr+tCzU1ddn6jthbPYBZ
3S5yP0aNW4hq33mvgy3xvEcpWnC1z+R+rpXJtp61mPB4ejSF3YkcNK08Z9x4v7GR
wZGyIVGW4XhpjIFI1R4BIUnw59sVWkjjks8r
-----END CERTIFICATE-----
