Certificate:
    Data:
        Version: 3 (0x2)
        Serial Number:
            f1:da:c1:dd:f1:b7:ef:16:f4:04:e5:27:91:f7:6b:1b
        Signature Algorithm: sha256WithRSAEncryption
        Issuer: CN=team628-net
        Validity
            Not Before: Sep 13 04:39:09 2021 GMT
            Not After : Aug 28 04:39:09 2024 GMT
        Subject: CN=team628-server
        Subject Public Key Info:
            Public Key Algorithm: rsaEncryption
                RSA Public-Key: (2048 bit)
                Modulus:
                    00:d2:77:ee:aa:0e:5a:43:eb:db:09:db:a1:c8:f1:
                    6f:da:65:8e:3d:e4:a1:65:b6:90:19:db:01:97:04:
                    55:3d:1f:83:f2:50:67:35:98:cf:e3:c9:37:72:f1:
                    23:65:61:c6:4f:6a:f9:50:20:e5:22:1c:1e:d3:d6:
                    cd:73:12:fc:11:04:09:dd:0c:9d:84:69:02:a8:e9:
                    b4:2e:50:00:c5:49:cb:aa:5b:c2:3a:04:37:a7:d6:
                    fa:1e:7f:2a:a8:ee:9d:02:5f:2d:50:33:45:00:6f:
                    fe:1b:3e:75:20:d7:9e:3a:58:fc:30:c8:e1:11:8a:
                    5d:d8:96:b9:3f:7d:e1:73:46:90:73:e7:b5:ac:1a:
                    65:de:ba:78:63:ed:32:83:ec:c7:16:1b:d6:70:cf:
                    97:e7:af:2d:38:87:de:d8:b3:33:06:8c:86:55:5f:
                    42:91:c5:13:e4:2d:d3:12:7e:2f:4d:6c:b5:fd:5c:
                    d7:0b:97:f8:b1:ae:7d:2f:6b:20:59:cc:e9:af:ac:
                    02:57:d5:fc:d3:9d:ae:9c:6b:b9:ba:32:26:a6:0e:
                    20:b2:d6:af:26:39:1b:38:cd:86:23:d1:09:0e:d2:
                    ae:64:fa:97:ea:79:a8:0b:fb:1b:f5:03:42:3b:4a:
                    be:ea:2f:7f:48:5d:a4:b3:82:54:81:18:12:47:3a:
                    3d:b7
                Exponent: 65537 (0x10001)
        X509v3 extensions:
            X509v3 Basic Constraints: 
                CA:FALSE
            X509v3 Subject Key Identifier: 
                32:FC:84:9F:86:35:9E:81:B4:A0:64:58:B5:BC:5B:20:05:AD:72:35
            X509v3 Authority Key Identifier: 
                keyid:C1:CB:D7:00:77:17:2C:53:0F:30:AD:BF:2C:22:05:62:BF:5A:FE:D7
                DirName:/CN=team628-net
                serial:6B:20:FB:CC:C2:80:3D:36:C0:41:20:B0:F6:87:9B:06:39:FB:EB:CA

            X509v3 Extended Key Usage: 
                TLS Web Server Authentication
            X509v3 Key Usage: 
                Digital Signature, Key Encipherment
            X509v3 Subject Alternative Name: 
                DNS:team628-server
    Signature Algorithm: sha256WithRSAEncryption
         05:10:e6:81:34:b1:53:8d:a6:52:4a:45:38:17:a3:8d:0a:57:
         64:cc:fd:13:7b:bf:f6:f9:a7:ae:c4:32:98:3e:77:76:c2:8c:
         4b:c9:e2:4a:e1:ab:e6:aa:88:67:f5:b8:72:bc:3c:6b:97:d6:
         06:c6:2b:44:59:b3:c0:47:d0:9e:dd:6d:a9:e5:fc:30:97:16:
         b7:2a:32:ec:f9:5f:7a:9f:3a:83:7b:14:f5:02:40:35:ea:40:
         4b:86:fd:18:b4:05:a1:89:48:23:23:ac:b6:10:63:36:55:4d:
         a5:ad:af:bf:f2:4c:e0:fb:fc:a5:15:dc:27:e0:58:ad:dc:61:
         9c:de:59:b2:26:35:ef:c0:6a:ed:cd:80:e1:76:c0:95:60:cc:
         b3:e1:f1:a6:34:28:ab:43:42:09:eb:08:0e:fb:54:a1:ea:a3:
         cc:ec:8d:d0:cc:0b:a0:cf:69:e4:b9:f0:a3:f8:87:7f:a7:4d:
         98:c8:08:16:35:b5:a2:3e:87:2b:09:0a:d4:52:e7:4e:61:9b:
         74:d4:1f:db:49:d3:c1:8c:18:6a:88:ec:c1:6a:dc:fc:46:ba:
         e3:0d:2a:c6:60:59:3f:84:14:5e:50:8e:54:74:f1:fd:2b:6f:
         2c:a8:fa:d3:1b:e6:1c:40:d7:f7:91:96:84:7a:fe:5c:9a:89:
         cd:67:b0:6d
-----BEGIN CERTIFICATE-----
MIIDeDCCAmCgAwIBAgIRAPHawd3xt+8W9ATlJ5H3axswDQYJKoZIhvcNAQELBQAw
FjEUMBIGA1UEAwwLdGVhbTYyOC1uZXQwHhcNMjEwOTEzMDQzOTA5WhcNMjQwODI4
MDQzOTA5WjAZMRcwFQYDVQQDDA50ZWFtNjI4LXNlcnZlcjCCASIwDQYJKoZIhvcN
AQEBBQADggEPADCCAQoCggEBANJ37qoOWkPr2wnbocjxb9pljj3koWW2kBnbAZcE
VT0fg/JQZzWYz+PJN3LxI2Vhxk9q+VAg5SIcHtPWzXMS/BEECd0MnYRpAqjptC5Q
AMVJy6pbwjoEN6fW+h5/KqjunQJfLVAzRQBv/hs+dSDXnjpY/DDI4RGKXdiWuT99
4XNGkHPntawaZd66eGPtMoPsxxYb1nDPl+evLTiH3tizMwaMhlVfQpHFE+Qt0xJ+
L01stf1c1wuX+LGufS9rIFnM6a+sAlfV/NOdrpxruboyJqYOILLWryY5GzjNhiPR
CQ7SrmT6l+p5qAv7G/UDQjtKvuovf0hdpLOCVIEYEkc6PbcCAwEAAaOBvTCBujAJ
BgNVHRMEAjAAMB0GA1UdDgQWBBQy/ISfhjWegbSgZFi1vFsgBa1yNTBRBgNVHSME
SjBIgBTBy9cAdxcsUw8wrb8sIgViv1r+16EapBgwFjEUMBIGA1UEAwwLdGVhbTYy
OC1uZXSCFGsg+8zCgD02wEEgsPaHmwY5++vKMBMGA1UdJQQMMAoGCCsGAQUFBwMB
MAsGA1UdDwQEAwIFoDAZBgNVHREEEjAQgg50ZWFtNjI4LXNlcnZlcjANBgkqhkiG
9w0BAQsFAAOCAQEABRDmgTSxU42mUkpFOBejjQpXZMz9E3u/9vmnrsQymD53dsKM
S8niSuGr5qqIZ/W4crw8a5fWBsYrRFmzwEfQnt1tqeX8MJcWtyoy7Plfep86g3sU
9QJANepAS4b9GLQFoYlIIyOsthBjNlVNpa2vv/JM4Pv8pRXcJ+BYrdxhnN5ZsiY1
78Bq7c2A4XbAlWDMs+HxpjQoq0NCCesIDvtUoeqjzOyN0MwLoM9p5Lnwo/iHf6dN
mMgIFjW1oj6HKwkK1FLnTmGbdNQf20nTwYwYaojswWrc/Ea64w0qxmBZP4QUXlCO
VHTx/StvLKj60xvmHEDX95GWhHr+XJqJzWewbQ==
-----END CERTIFICATE-----
