Certificate:
    Data:
        Version: 3 (0x2)
        Serial Number:
            81:5b:7f:d1:a2:b6:cd:62:d4:1a:23:b7:a8:54:2d:66
        Signature Algorithm: sha256WithRSAEncryption
        Issuer: CN=team289-net
        Validity
            Not Before: Sep 13 01:18:11 2021 GMT
            Not After : Aug 28 01:18:11 2024 GMT
        Subject: CN=team289-server
        Subject Public Key Info:
            Public Key Algorithm: rsaEncryption
                RSA Public-Key: (2048 bit)
                Modulus:
                    00:de:59:ec:50:45:88:36:5e:1b:2d:86:a7:51:cc:
                    14:b9:e2:03:04:a2:dd:ac:f7:11:3c:67:fe:7f:ac:
                    3e:de:e5:46:43:cf:cf:66:41:50:ef:d9:a3:65:67:
                    32:49:9a:35:0e:42:7f:0f:82:95:4c:ef:0b:6b:14:
                    09:84:28:6b:2d:d0:28:cd:54:32:62:aa:38:b5:8d:
                    d3:5a:67:28:49:ca:3c:27:0c:74:13:7a:16:62:dc:
                    ec:c8:25:57:0b:2a:f6:c2:79:80:66:2a:28:d6:b2:
                    9d:44:3e:69:89:96:95:0c:a5:d7:8c:2d:ec:a6:91:
                    65:db:c0:df:ff:f0:ca:8a:1b:d8:4a:a8:3f:44:96:
                    54:72:ce:76:f9:2d:1f:d0:3e:cb:a1:f8:4f:1b:21:
                    ff:79:c6:3c:24:9e:fa:10:3d:af:3f:cf:f7:30:e4:
                    18:2d:1a:f7:17:49:13:68:a8:f9:4c:64:29:84:d1:
                    f5:f3:77:03:c4:ad:bb:7c:03:fe:93:1f:45:be:f6:
                    7c:07:9b:f3:a6:ee:5d:81:6c:27:cc:d5:fe:30:66:
                    40:63:7a:10:5f:24:0e:51:c0:6d:c3:93:3e:b6:78:
                    de:82:a6:f8:2a:5c:2c:4a:d5:b7:20:c5:24:17:1f:
                    61:ba:ae:82:fe:5c:ab:a5:da:3d:0c:9b:1e:09:e7:
                    b1:11
                Exponent: 65537 (0x10001)
        X509v3 extensions:
            X509v3 Basic Constraints: 
                CA:FALSE
            X509v3 Subject Key Identifier: 
                F4:08:46:FC:9D:53:35:06:A3:D5:09:BA:C2:6A:85:6D:EE:35:6A:51
            X509v3 Authority Key Identifier: 
                keyid:A0:BC:14:6D:45:28:57:F1:75:33:C8:7B:85:1F:78:60:53:F6:04:36
                DirName:/CN=team289-net
                serial:5A:DB:05:89:A0:24:63:19:38:0B:04:27:00:42:F9:09:D2:6C:24:2B

            X509v3 Extended Key Usage: 
                TLS Web Server Authentication
            X509v3 Key Usage: 
                Digital Signature, Key Encipherment
            X509v3 Subject Alternative Name: 
                DNS:team289-server
    Signature Algorithm: sha256WithRSAEncryption
         3c:8b:6f:9e:af:52:bc:84:58:ae:f3:79:d3:14:86:98:49:ec:
         d4:35:89:9e:bf:44:7d:fe:91:37:1b:e4:1b:ee:a3:71:e2:04:
         1f:74:4d:13:48:c1:77:54:a3:b2:4a:a6:97:85:5f:90:8e:f4:
         6a:9c:f5:83:97:0c:6e:cf:8d:4d:f0:dd:fe:97:17:38:de:69:
         35:a4:03:19:f7:ce:87:fc:16:fe:86:9f:f2:bd:01:2d:f7:43:
         98:31:fa:75:36:b7:43:ab:93:cf:5a:92:ee:d5:44:ab:f0:d5:
         da:a1:2a:d6:72:6c:cc:b6:4d:0f:ab:90:bb:44:5e:b7:a1:3a:
         cd:26:8a:74:32:8a:86:a8:0c:56:4d:b2:d6:f6:ad:7d:ba:f3:
         43:d9:e7:2f:f3:65:cb:d1:fd:09:ff:2f:96:85:bc:eb:27:a2:
         36:35:61:97:77:cf:ab:81:23:0d:4b:49:a4:2e:af:d2:e3:2c:
         5f:b4:cf:5d:40:35:2d:91:2f:76:27:45:c4:a1:5d:a4:0a:86:
         ba:4a:e8:04:b9:1d:ca:74:9f:4d:6d:77:27:86:e7:4b:fd:52:
         29:ea:2e:c4:45:e1:e1:bb:1d:f1:00:26:a0:8a:e1:0b:44:c0:
         d9:1e:c2:8b:2c:b3:2b:38:04:d6:83:10:11:3d:b1:9f:53:c1:
         78:0d:93:f1
-----BEGIN CERTIFICATE-----
MIIDeDCCAmCgAwIBAgIRAIFbf9Gits1i1Bojt6hULWYwDQYJKoZIhvcNAQELBQAw
FjEUMBIGA1UEAwwLdGVhbTI4OS1uZXQwHhcNMjEwOTEzMDExODExWhcNMjQwODI4
MDExODExWjAZMRcwFQYDVQQDDA50ZWFtMjg5LXNlcnZlcjCCASIwDQYJKoZIhvcN
AQEBBQADggEPADCCAQoCggEBAN5Z7FBFiDZeGy2Gp1HMFLniAwSi3az3ETxn/n+s
Pt7lRkPPz2ZBUO/Zo2VnMkmaNQ5Cfw+ClUzvC2sUCYQoay3QKM1UMmKqOLWN01pn
KEnKPCcMdBN6FmLc7MglVwsq9sJ5gGYqKNaynUQ+aYmWlQyl14wt7KaRZdvA3//w
yoob2EqoP0SWVHLOdvktH9A+y6H4Txsh/3nGPCSe+hA9rz/P9zDkGC0a9xdJE2io
+UxkKYTR9fN3A8Stu3wD/pMfRb72fAeb86buXYFsJ8zV/jBmQGN6EF8kDlHAbcOT
PrZ43oKm+CpcLErVtyDFJBcfYbqugv5cq6XaPQybHgnnsRECAwEAAaOBvTCBujAJ
BgNVHRMEAjAAMB0GA1UdDgQWBBT0CEb8nVM1BqPVCbrCaoVt7jVqUTBRBgNVHSME
SjBIgBSgvBRtRShX8XUzyHuFH3hgU/YENqEapBgwFjEUMBIGA1UEAwwLdGVhbTI4
OS1uZXSCFFrbBYmgJGMZOAsEJwBC+QnSbCQrMBMGA1UdJQQMMAoGCCsGAQUFBwMB
MAsGA1UdDwQEAwIFoDAZBgNVHREEEjAQgg50ZWFtMjg5LXNlcnZlcjANBgkqhkiG
9w0BAQsFAAOCAQEAPItvnq9SvIRYrvN50xSGmEns1DWJnr9Eff6RNxvkG+6jceIE
H3RNE0jBd1Sjskqml4VfkI70apz1g5cMbs+NTfDd/pcXON5pNaQDGffOh/wW/oaf
8r0BLfdDmDH6dTa3Q6uTz1qS7tVEq/DV2qEq1nJszLZND6uQu0Ret6E6zSaKdDKK
hqgMVk2y1vatfbrzQ9nnL/Nly9H9Cf8vloW86yeiNjVhl3fPq4EjDUtJpC6v0uMs
X7TPXUA1LZEvdidFxKFdpAqGukroBLkdynSfTW13J4bnS/1SKeouxEXh4bsd8QAm
oIrhC0TA2R7CiyyzKzgE1oMQET2xn1PBeA2T8Q==
-----END CERTIFICATE-----
