Certificate:
    Data:
        Version: 3 (0x2)
        Serial Number:
            b4:45:67:35:e0:7b:97:85:be:66:3c:b6:cb:b4:32:00
        Signature Algorithm: sha256WithRSAEncryption
        Issuer: CN=team203-net
        Validity
            Not Before: Sep 13 00:29:36 2021 GMT
            Not After : Aug 28 00:29:36 2024 GMT
        Subject: CN=team203-server
        Subject Public Key Info:
            Public Key Algorithm: rsaEncryption
                RSA Public-Key: (2048 bit)
                Modulus:
                    00:94:a6:31:51:b8:5c:38:9e:be:32:ee:64:08:0f:
                    c7:50:a6:e0:1a:af:c1:e5:ac:38:99:d9:0e:dc:ec:
                    75:12:39:05:98:e4:65:3a:2d:66:b9:ac:ed:34:05:
                    78:46:f1:33:a5:6b:3f:0d:4b:6d:77:c3:52:7d:10:
                    d4:db:68:5f:06:37:d5:12:97:02:97:82:68:5c:8c:
                    0e:f7:47:9e:a6:ca:3d:8f:59:28:4a:a7:66:f1:c0:
                    5e:7d:d2:f0:93:55:92:34:62:bf:bc:36:b9:01:3b:
                    5c:aa:58:37:7e:05:bd:51:9e:97:34:b5:1d:d6:81:
                    48:55:e1:6e:24:ac:b6:fd:f3:2d:e6:c9:33:6e:0b:
                    16:ee:14:ab:38:45:31:02:18:7c:20:ae:fc:99:56:
                    2b:99:6d:41:c9:fb:f6:dc:38:20:c6:8d:a4:07:d8:
                    43:b4:86:c4:f5:f2:9a:a8:74:6c:14:ad:a0:c5:43:
                    5c:9b:bf:83:a6:72:7e:17:8c:e6:de:c5:f7:a8:8c:
                    84:fb:63:b4:de:26:e9:68:bd:e9:89:09:fb:da:ef:
                    36:1d:c4:12:6b:9e:ce:f3:3e:18:ca:12:db:44:9c:
                    05:b0:2c:b6:3a:31:83:69:17:78:1e:73:52:b7:26:
                    13:c4:9b:0e:50:bf:38:09:03:60:7d:d7:0e:dc:ce:
                    05:8d
                Exponent: 65537 (0x10001)
        X509v3 extensions:
            X509v3 Basic Constraints: 
                CA:FALSE
            X509v3 Subject Key Identifier: 
                BC:03:B9:CC:AF:43:0F:65:1F:5D:97:16:52:22:5C:D4:60:D1:39:C0
            X509v3 Authority Key Identifier: 
                keyid:04:4F:1A:C2:24:F5:28:7F:7D:26:7B:4C:D0:DE:81:2F:32:48:64:C1
                DirName:/CN=team203-net
                serial:4B:6C:76:64:3F:14:E0:60:10:58:33:18:2C:B7:9B:65:90:A0:7E:63

            X509v3 Extended Key Usage: 
                TLS Web Server Authentication
            X509v3 Key Usage: 
                Digital Signature, Key Encipherment
            X509v3 Subject Alternative Name: 
                DNS:team203-server
    Signature Algorithm: sha256WithRSAEncryption
         33:61:38:cd:e5:c0:8f:d6:75:b8:49:12:0b:86:e7:6b:8c:65:
         01:9e:94:67:89:09:37:44:96:c9:d2:41:c4:c7:14:ac:40:6a:
         a7:c1:da:63:7f:17:df:44:8d:a9:9f:e2:61:59:10:be:c7:8d:
         b1:5d:6a:b0:dc:39:d8:64:44:53:d8:db:9b:bd:c4:ca:90:60:
         21:ba:27:e7:dc:cd:18:6e:3e:bb:82:8c:a6:c2:9f:6f:46:98:
         1d:65:25:59:ab:7f:22:f9:83:7b:e7:90:8e:24:5c:20:ec:88:
         0e:99:3c:46:a7:d4:57:05:97:c5:c2:b9:36:fb:39:9c:65:cf:
         9e:08:4e:a7:47:72:06:44:7c:7f:20:e5:df:07:3d:84:18:10:
         01:79:44:10:86:f9:e5:18:3c:05:dc:f8:03:f6:31:71:ac:bc:
         28:46:bb:d9:ea:2f:65:54:af:f4:5d:a6:4f:96:57:02:ac:6d:
         13:fb:1e:72:47:e3:24:1a:35:06:b2:46:26:96:9a:c1:6a:d0:
         71:b8:78:bc:60:66:0f:35:46:62:51:5a:ce:a5:8c:e2:7e:34:
         45:c5:6d:19:51:c9:d5:97:c1:f8:15:64:af:9e:2f:f8:f1:df:
         4f:bf:7f:a0:c6:9b:c2:fe:d0:8d:2d:12:58:6e:c7:cf:74:ee:
         ae:a8:82:48
-----BEGIN CERTIFICATE-----
MIIDeDCCAmCgAwIBAgIRALRFZzXge5eFvmY8tsu0MgAwDQYJKoZIhvcNAQELBQAw
FjEUMBIGA1UEAwwLdGVhbTIwMy1uZXQwHhcNMjEwOTEzMDAyOTM2WhcNMjQwODI4
MDAyOTM2WjAZMRcwFQYDVQQDDA50ZWFtMjAzLXNlcnZlcjCCASIwDQYJKoZIhvcN
AQEBBQADggEPADCCAQoCggEBAJSmMVG4XDievjLuZAgPx1Cm4BqvweWsOJnZDtzs
dRI5BZjkZTotZrms7TQFeEbxM6VrPw1LbXfDUn0Q1NtoXwY31RKXApeCaFyMDvdH
nqbKPY9ZKEqnZvHAXn3S8JNVkjRiv7w2uQE7XKpYN34FvVGelzS1HdaBSFXhbiSs
tv3zLebJM24LFu4UqzhFMQIYfCCu/JlWK5ltQcn79tw4IMaNpAfYQ7SGxPXymqh0
bBStoMVDXJu/g6ZyfheM5t7F96iMhPtjtN4m6Wi96YkJ+9rvNh3EEmuezvM+GMoS
20ScBbAstjoxg2kXeB5zUrcmE8SbDlC/OAkDYH3XDtzOBY0CAwEAAaOBvTCBujAJ
BgNVHRMEAjAAMB0GA1UdDgQWBBS8A7nMr0MPZR9dlxZSIlzUYNE5wDBRBgNVHSME
SjBIgBQETxrCJPUof30me0zQ3oEvMkhkwaEapBgwFjEUMBIGA1UEAwwLdGVhbTIw
My1uZXSCFEtsdmQ/FOBgEFgzGCy3m2WQoH5jMBMGA1UdJQQMMAoGCCsGAQUFBwMB
MAsGA1UdDwQEAwIFoDAZBgNVHREEEjAQgg50ZWFtMjAzLXNlcnZlcjANBgkqhkiG
9w0BAQsFAAOCAQEAM2E4zeXAj9Z1uEkSC4bna4xlAZ6UZ4kJN0SWydJBxMcUrEBq
p8HaY38X30SNqZ/iYVkQvseNsV1qsNw52GREU9jbm73EypBgIbon59zNGG4+u4KM
psKfb0aYHWUlWat/IvmDe+eQjiRcIOyIDpk8RqfUVwWXxcK5Nvs5nGXPnghOp0dy
BkR8fyDl3wc9hBgQAXlEEIb55Rg8Bdz4A/Yxcay8KEa72eovZVSv9F2mT5ZXAqxt
E/seckfjJBo1BrJGJpaawWrQcbh4vGBmDzVGYlFazqWM4n40RcVtGVHJ1ZfB+BVk
r54v+PHfT79/oMabwv7QjS0SWG7Hz3TurqiCSA==
-----END CERTIFICATE-----
