Certificate:
    Data:
        Version: 3 (0x2)
        Serial Number:
            28:6b:bf:e1:6c:d8:6c:d9:b9:7e:97:6d:55:f7:da:71
        Signature Algorithm: sha256WithRSAEncryption
        Issuer: CN=team716-net
        Validity
            Not Before: Sep 13 05:31:28 2021 GMT
            Not After : Aug 28 05:31:28 2024 GMT
        Subject: CN=team716-server
        Subject Public Key Info:
            Public Key Algorithm: rsaEncryption
                RSA Public-Key: (2048 bit)
                Modulus:
                    00:9d:e3:46:30:5d:06:fd:89:50:4e:0d:76:b2:73:
                    0b:08:e7:91:64:2c:4f:e2:65:72:da:c7:22:90:1e:
                    73:5d:8a:5a:c3:f1:91:c1:a3:65:fa:12:d9:91:63:
                    5d:f8:1d:fc:67:59:1d:f1:1a:81:18:af:66:dc:8f:
                    c6:ad:dd:88:b7:cc:e1:87:b5:a6:a0:66:e1:6e:e6:
                    03:e1:24:a6:95:d5:f5:6a:2c:f3:99:b0:4b:3f:68:
                    c2:9e:89:42:43:af:9f:c9:cf:46:5b:79:f7:a6:f7:
                    f8:76:72:45:94:f7:ba:2c:49:43:f3:61:97:ef:74:
                    c3:81:f5:70:95:6b:21:88:b2:c1:cf:4b:00:b6:1c:
                    4d:f0:10:92:0b:ac:2e:da:78:9e:77:8b:65:a6:47:
                    f5:1b:cc:4e:d7:91:89:fb:34:f9:14:2c:37:d4:98:
                    fd:70:57:5a:0a:e8:d2:d2:ad:c5:0d:82:0f:72:9e:
                    5d:c0:03:fa:5d:c9:d7:0b:ac:66:f6:b0:c4:1b:15:
                    7f:c7:88:43:91:4c:42:98:3a:17:c3:b5:c9:37:08:
                    8f:fc:43:8c:ae:1d:aa:ae:b6:5b:75:d4:0c:69:43:
                    e7:55:03:7b:ed:1c:0d:f8:3e:cc:c2:12:2e:9f:bc:
                    a6:f3:14:78:e5:9b:a8:53:fd:ee:dd:8d:00:d5:57:
                    f5:d3
                Exponent: 65537 (0x10001)
        X509v3 extensions:
            X509v3 Basic Constraints: 
                CA:FALSE
            X509v3 Subject Key Identifier: 
                81:3E:14:F0:D7:2E:80:9E:8F:FC:2A:49:76:63:B8:00:41:E1:CB:28
            X509v3 Authority Key Identifier: 
                keyid:F7:93:9D:76:F9:25:82:ED:C2:D1:E1:C5:63:09:A6:FC:36:3E:DB:B1
                DirName:/CN=team716-net
                serial:05:E2:95:1B:BC:86:57:A8:21:8A:6A:F3:A6:F3:46:C2:5B:30:4C:D0

            X509v3 Extended Key Usage: 
                TLS Web Server Authentication
            X509v3 Key Usage: 
                Digital Signature, Key Encipherment
            X509v3 Subject Alternative Name: 
                DNS:team716-server
    Signature Algorithm: sha256WithRSAEncryption
         10:9b:5c:64:c4:3c:8b:b1:92:ca:73:5f:df:90:05:8d:42:90:
         0d:42:c2:6d:92:6a:ee:44:aa:ea:ad:14:fb:5d:c2:f4:53:00:
         c3:a7:71:fb:be:6b:7e:bd:94:d8:04:99:e4:73:d7:26:9f:06:
         b3:df:fc:3f:3f:e8:60:dc:7b:18:d7:b1:32:59:85:a0:92:d7:
         fd:41:8d:f0:63:af:92:8d:21:4c:88:b9:3b:02:af:12:79:be:
         a5:45:61:b5:e1:ca:c6:dc:89:f6:ba:ed:d4:67:97:ff:57:90:
         9e:b1:a5:59:a9:eb:4f:e1:bf:17:aa:b7:8f:23:34:dd:51:79:
         0b:a5:f7:61:d3:f4:da:bf:18:cd:cd:24:eb:63:2b:f5:95:75:
         96:3e:f6:00:35:b8:ae:8a:41:53:68:a7:56:66:2b:1f:86:df:
         be:e9:29:67:8d:f2:c2:34:24:84:e2:c0:48:99:59:87:09:29:
         d8:e8:63:aa:d2:d9:b0:e1:e0:10:ef:31:e9:2e:22:69:3a:ae:
         d8:78:46:b7:e3:48:b5:4f:06:e2:ab:70:73:af:b9:2f:8f:10:
         21:7b:c6:5e:fe:b2:b8:cb:9a:af:e2:8b:50:d9:84:65:29:9d:
         9b:35:6a:6a:b2:af:e2:20:2a:23:72:45:4a:a3:a8:ab:ad:5c:
         1b:26:eb:d5
-----BEGIN CERTIFICATE-----
MIIDdzCCAl+gAwIBAgIQKGu/4WzYbNm5fpdtVffacTANBgkqhkiG9w0BAQsFADAW
MRQwEgYDVQQDDAt0ZWFtNzE2LW5ldDAeFw0yMTA5MTMwNTMxMjhaFw0yNDA4Mjgw
NTMxMjhaMBkxFzAVBgNVBAMMDnRlYW03MTYtc2VydmVyMIIBIjANBgkqhkiG9w0B
AQEFAAOCAQ8AMIIBCgKCAQEAneNGMF0G/YlQTg12snMLCOeRZCxP4mVy2scikB5z
XYpaw/GRwaNl+hLZkWNd+B38Z1kd8RqBGK9m3I/Grd2It8zhh7WmoGbhbuYD4SSm
ldX1aizzmbBLP2jCnolCQ6+fyc9GW3n3pvf4dnJFlPe6LElD82GX73TDgfVwlWsh
iLLBz0sAthxN8BCSC6wu2nied4tlpkf1G8xO15GJ+zT5FCw31Jj9cFdaCujS0q3F
DYIPcp5dwAP6XcnXC6xm9rDEGxV/x4hDkUxCmDoXw7XJNwiP/EOMrh2qrrZbddQM
aUPnVQN77RwN+D7MwhIun7ym8xR45ZuoU/3u3Y0A1Vf10wIDAQABo4G9MIG6MAkG
A1UdEwQCMAAwHQYDVR0OBBYEFIE+FPDXLoCej/wqSXZjuABB4csoMFEGA1UdIwRK
MEiAFPeTnXb5JYLtwtHhxWMJpvw2PtuxoRqkGDAWMRQwEgYDVQQDDAt0ZWFtNzE2
LW5ldIIUBeKVG7yGV6ghimrzpvNGwlswTNAwEwYDVR0lBAwwCgYIKwYBBQUHAwEw
CwYDVR0PBAQDAgWgMBkGA1UdEQQSMBCCDnRlYW03MTYtc2VydmVyMA0GCSqGSIb3
DQEBCwUAA4IBAQAQm1xkxDyLsZLKc1/fkAWNQpANQsJtkmruRKrqrRT7XcL0UwDD
p3H7vmt+vZTYBJnkc9cmnwaz3/w/P+hg3HsY17EyWYWgktf9QY3wY6+SjSFMiLk7
Aq8Seb6lRWG14crG3In2uu3UZ5f/V5CesaVZqetP4b8XqrePIzTdUXkLpfdh0/Ta
vxjNzSTrYyv1lXWWPvYANbiuikFTaKdWZisfht++6SlnjfLCNCSE4sBImVmHCSnY
6GOq0tmw4eAQ7zHpLiJpOq7YeEa340i1Twbiq3Bzr7kvjxAhe8Ze/rK4y5qv4otQ
2YRlKZ2bNWpqsq/iICojckVKo6irrVwbJuvV
-----END CERTIFICATE-----
