Certificate:
    Data:
        Version: 3 (0x2)
        Serial Number:
            23:73:e1:75:dc:19:6d:40:25:82:d0:e9:75:6e:27:77
        Signature Algorithm: sha256WithRSAEncryption
        Issuer: CN=team344-net
        Validity
            Not Before: Sep 13 01:56:42 2021 GMT
            Not After : Aug 28 01:56:42 2024 GMT
        Subject: CN=team344-server
        Subject Public Key Info:
            Public Key Algorithm: rsaEncryption
                RSA Public-Key: (2048 bit)
                Modulus:
                    00:b5:ed:ad:75:27:e7:c2:d1:1a:fc:92:68:50:dd:
                    bf:b4:cb:4e:0a:a5:61:c5:45:cc:51:23:c1:0a:94:
                    e3:9b:09:92:ef:4a:1b:d3:f7:19:e5:73:8e:dd:19:
                    66:71:2b:7e:37:72:c0:c0:25:03:75:3d:cb:01:e9:
                    88:a9:7f:5e:d0:a6:47:85:5a:c0:8c:04:e0:a4:28:
                    bc:75:f4:2c:03:fb:33:26:c7:c5:81:8b:1c:7b:65:
                    8f:dd:f0:50:ab:08:d7:a6:2b:c3:a7:48:9f:dd:46:
                    f4:b8:29:48:a7:ae:8e:ad:51:1b:50:4c:ad:fc:6c:
                    1e:4c:4e:ca:a3:9f:52:dd:30:8f:63:00:57:91:2f:
                    f9:2d:96:d6:4f:e4:07:17:06:90:40:fc:6c:18:8e:
                    db:63:67:87:d2:ea:6f:6d:02:7c:f3:94:ae:68:bc:
                    a3:56:fa:e1:9e:23:fb:f3:69:08:00:e7:ad:db:9e:
                    c5:8e:89:17:af:72:5d:35:ea:d8:cc:bd:5d:72:da:
                    ff:6c:0a:a8:73:db:26:b4:64:cb:b5:12:c7:c8:ea:
                    44:99:19:fb:0a:17:5f:2b:50:bc:14:a1:23:d7:81:
                    f2:cf:a7:95:3a:06:d1:9e:bc:55:ad:eb:ad:92:36:
                    31:03:3d:56:d9:86:31:16:be:3c:9b:2d:21:df:b3:
                    40:cf
                Exponent: 65537 (0x10001)
        X509v3 extensions:
            X509v3 Basic Constraints: 
                CA:FALSE
            X509v3 Subject Key Identifier: 
                04:84:4D:25:7A:50:A0:E8:D9:C4:28:89:4A:29:FA:B5:D0:2F:BD:E1
            X509v3 Authority Key Identifier: 
                keyid:AC:D1:8D:90:F7:BF:6D:BD:A4:79:1B:00:31:47:E7:E8:DC:B3:A0:90
                DirName:/CN=team344-net
                serial:09:74:17:F3:D8:EB:CF:61:AC:A4:DA:9F:15:32:F4:2D:76:48:10:7C

            X509v3 Extended Key Usage: 
                TLS Web Server Authentication
            X509v3 Key Usage: 
                Digital Signature, Key Encipherment
            X509v3 Subject Alternative Name: 
                DNS:team344-server
    Signature Algorithm: sha256WithRSAEncryption
         0a:d0:46:97:b9:40:01:8b:23:eb:22:92:f7:19:ed:3c:68:db:
         d9:57:35:44:2e:63:84:70:aa:bc:b4:2f:f0:80:17:51:50:db:
         46:e4:7e:2d:9f:0b:09:31:4c:de:0e:b3:70:69:53:fb:6c:dd:
         fa:40:78:ae:1b:dd:f6:36:42:38:a8:29:66:67:7a:55:47:e1:
         e0:d8:ef:53:dc:cd:60:ad:69:97:59:1f:10:b9:31:be:0f:53:
         5a:e1:92:b6:e1:05:97:6e:8e:53:04:5f:d7:8d:4c:66:a3:de:
         e5:67:dd:31:43:8e:50:16:7b:c1:83:4d:61:dd:3e:92:1b:51:
         54:3b:bb:2b:77:9f:00:df:87:7c:33:31:54:f1:a1:0b:e9:6e:
         b7:6c:30:4d:51:57:67:64:13:f3:90:ea:5a:cc:bd:39:c8:4e:
         b9:9d:f0:52:69:c7:f1:2c:99:3a:1b:ca:b5:85:84:85:9a:11:
         43:20:e7:b7:1e:a1:47:91:39:db:8f:8e:4b:42:ba:e4:95:6d:
         1d:3a:0f:2e:b6:cd:9e:c5:47:a2:60:6f:b7:b7:08:d4:40:e2:
         a9:cd:28:74:94:b8:85:4f:7c:97:0b:74:80:a2:0c:fa:9e:6b:
         f3:47:3a:a9:33:0e:b3:21:89:f7:82:27:5f:68:2c:4f:75:13:
         93:bb:44:81
-----BEGIN CERTIFICATE-----
MIIDdzCCAl+gAwIBAgIQI3PhddwZbUAlgtDpdW4ndzANBgkqhkiG9w0BAQsFADAW
MRQwEgYDVQQDDAt0ZWFtMzQ0LW5ldDAeFw0yMTA5MTMwMTU2NDJaFw0yNDA4Mjgw
MTU2NDJaMBkxFzAVBgNVBAMMDnRlYW0zNDQtc2VydmVyMIIBIjANBgkqhkiG9w0B
AQEFAAOCAQ8AMIIBCgKCAQEAte2tdSfnwtEa/JJoUN2/tMtOCqVhxUXMUSPBCpTj
mwmS70ob0/cZ5XOO3RlmcSt+N3LAwCUDdT3LAemIqX9e0KZHhVrAjATgpCi8dfQs
A/szJsfFgYsce2WP3fBQqwjXpivDp0if3Ub0uClIp66OrVEbUEyt/GweTE7Ko59S
3TCPYwBXkS/5LZbWT+QHFwaQQPxsGI7bY2eH0upvbQJ885SuaLyjVvrhniP782kI
AOet257FjokXr3JdNerYzL1dctr/bAqoc9smtGTLtRLHyOpEmRn7ChdfK1C8FKEj
14Hyz6eVOgbRnrxVreutkjYxAz1W2YYxFr48my0h37NAzwIDAQABo4G9MIG6MAkG
A1UdEwQCMAAwHQYDVR0OBBYEFASETSV6UKDo2cQoiUop+rXQL73hMFEGA1UdIwRK
MEiAFKzRjZD3v229pHkbADFH5+jcs6CQoRqkGDAWMRQwEgYDVQQDDAt0ZWFtMzQ0
LW5ldIIUCXQX89jrz2GspNqfFTL0LXZIEHwwEwYDVR0lBAwwCgYIKwYBBQUHAwEw
CwYDVR0PBAQDAgWgMBkGA1UdEQQSMBCCDnRlYW0zNDQtc2VydmVyMA0GCSqGSIb3
DQEBCwUAA4IBAQAK0EaXuUABiyPrIpL3Ge08aNvZVzVELmOEcKq8tC/wgBdRUNtG
5H4tnwsJMUzeDrNwaVP7bN36QHiuG932NkI4qClmZ3pVR+Hg2O9T3M1grWmXWR8Q
uTG+D1Na4ZK24QWXbo5TBF/XjUxmo97lZ90xQ45QFnvBg01h3T6SG1FUO7srd58A
34d8MzFU8aEL6W63bDBNUVdnZBPzkOpazL05yE65nfBSacfxLJk6G8q1hYSFmhFD
IOe3HqFHkTnbj45LQrrklW0dOg8uts2exUeiYG+3twjUQOKpzSh0lLiFT3yXC3SA
ogz6nmvzRzqpMw6zIYn3gidfaCxPdROTu0SB
-----END CERTIFICATE-----
