Certificate:
    Data:
        Version: 3 (0x2)
        Serial Number:
            d1:93:12:7e:36:d9:d6:10:45:1b:4c:fa:bb:85:8f:f4
        Signature Algorithm: sha256WithRSAEncryption
        Issuer: CN=team279-net
        Validity
            Not Before: Sep 13 01:19:46 2021 GMT
            Not After : Aug 28 01:19:46 2024 GMT
        Subject: CN=team279-server
        Subject Public Key Info:
            Public Key Algorithm: rsaEncryption
                RSA Public-Key: (2048 bit)
                Modulus:
                    00:d2:43:ff:31:9b:9b:2e:9f:a4:ec:c1:f7:63:20:
                    e7:db:d3:30:0f:41:b2:81:6c:3f:d7:3d:bb:2e:08:
                    84:92:cb:bf:63:a4:a2:fc:0e:5c:33:b0:42:00:c3:
                    6c:a7:8e:ff:f1:b5:be:1c:d2:d3:9e:56:7a:d9:79:
                    f4:f4:9c:39:ff:aa:f0:ac:79:0d:1f:fb:8f:c9:9f:
                    52:54:0f:14:b9:7b:72:7b:57:3e:5a:f1:29:2e:0d:
                    3f:8e:2a:6b:47:c9:93:00:b3:de:33:db:e9:f4:be:
                    1a:15:50:5f:42:7b:2f:8f:82:cf:bf:c1:7b:45:3c:
                    0f:44:bf:f2:ca:09:12:44:26:20:0b:51:c4:bb:fc:
                    ff:2d:a5:61:fe:2c:72:88:f0:31:58:f3:5d:a8:b4:
                    c4:5e:b2:1a:8b:ad:81:1b:8f:aa:46:7e:14:be:2a:
                    13:fb:4d:b5:d5:ad:0f:98:e5:1b:57:5f:c4:49:cc:
                    06:32:24:db:e6:49:37:b4:c1:80:90:e6:02:3b:1b:
                    7e:73:6b:0f:e3:dd:ea:b0:69:d7:4c:3a:ec:58:db:
                    59:f5:b6:bc:62:c0:38:82:a7:7e:93:a1:84:2d:5d:
                    6a:af:73:dc:b1:76:43:58:e7:33:9a:29:96:9f:ec:
                    b2:13:a0:77:bc:cc:c9:b4:3a:01:d0:d0:78:f1:ac:
                    9d:8d
                Exponent: 65537 (0x10001)
        X509v3 extensions:
            X509v3 Basic Constraints: 
                CA:FALSE
            X509v3 Subject Key Identifier: 
                52:93:92:96:A8:68:BB:F9:D7:B9:8B:F4:71:F3:14:CD:CC:1B:FB:32
            X509v3 Authority Key Identifier: 
                keyid:A0:8F:9D:EA:1C:6B:F6:D7:9D:FC:D9:13:2F:BF:04:7A:6F:E0:FB:11
                DirName:/CN=team279-net
                serial:4B:58:C5:B9:76:3C:6E:3E:84:2E:E1:A9:A2:78:39:A4:6E:DE:D9:59

            X509v3 Extended Key Usage: 
                TLS Web Server Authentication
            X509v3 Key Usage: 
                Digital Signature, Key Encipherment
            X509v3 Subject Alternative Name: 
                DNS:team279-server
    Signature Algorithm: sha256WithRSAEncryption
         47:2c:51:b5:61:4e:6d:5c:a3:36:1d:88:ab:a5:8f:3f:e9:f2:
         e8:a5:d3:5c:02:b1:ad:fe:49:1c:f2:fe:31:da:1e:24:02:3e:
         0b:d7:70:04:2c:32:8c:2b:3a:91:27:e1:50:5b:63:0c:cf:78:
         6d:b5:c4:e5:14:60:dd:df:2c:7e:82:dc:ce:de:86:1b:7f:44:
         84:a3:ca:cc:95:05:ab:fd:b1:ef:97:07:7f:12:ce:8c:6d:fc:
         1e:40:7d:11:35:c7:c8:0f:60:ff:3c:8b:46:fe:50:50:d2:36:
         15:a2:0c:e6:60:e0:98:f1:d6:ed:99:29:0c:88:80:71:30:81:
         5b:60:fb:a0:ce:38:e9:e2:78:1c:95:06:a4:87:22:dc:74:06:
         71:2d:9b:ce:55:87:5b:7a:76:0b:08:a2:29:97:ce:f9:5c:a0:
         92:b8:7d:6d:12:42:ce:4a:e4:1c:a4:66:59:cb:63:55:2c:60:
         c5:d2:9e:94:7f:9b:f0:bc:65:56:90:ac:aa:f1:c5:fd:c7:fb:
         a5:97:d5:31:4d:58:0a:1b:53:8e:5a:76:ff:72:b4:64:16:41:
         e9:db:8f:7b:5c:a9:39:64:04:89:d7:a2:d8:8a:0d:f9:7a:3a:
         73:e5:b8:0e:1a:1c:95:8b:76:c7:2a:f9:24:db:fa:53:1f:4b:
         9f:69:ee:00
-----BEGIN CERTIFICATE-----
MIIDeDCCAmCgAwIBAgIRANGTEn422dYQRRtM+ruFj/QwDQYJKoZIhvcNAQELBQAw
FjEUMBIGA1UEAwwLdGVhbTI3OS1uZXQwHhcNMjEwOTEzMDExOTQ2WhcNMjQwODI4
MDExOTQ2WjAZMRcwFQYDVQQDDA50ZWFtMjc5LXNlcnZlcjCCASIwDQYJKoZIhvcN
AQEBBQADggEPADCCAQoCggEBANJD/zGbmy6fpOzB92Mg59vTMA9BsoFsP9c9uy4I
hJLLv2OkovwOXDOwQgDDbKeO//G1vhzS055Wetl59PScOf+q8Kx5DR/7j8mfUlQP
FLl7cntXPlrxKS4NP44qa0fJkwCz3jPb6fS+GhVQX0J7L4+Cz7/Be0U8D0S/8soJ
EkQmIAtRxLv8/y2lYf4scojwMVjzXai0xF6yGoutgRuPqkZ+FL4qE/tNtdWtD5jl
G1dfxEnMBjIk2+ZJN7TBgJDmAjsbfnNrD+Pd6rBp10w67FjbWfW2vGLAOIKnfpOh
hC1daq9z3LF2Q1jnM5oplp/sshOgd7zMybQ6AdDQePGsnY0CAwEAAaOBvTCBujAJ
BgNVHRMEAjAAMB0GA1UdDgQWBBRSk5KWqGi7+de5i/Rx8xTNzBv7MjBRBgNVHSME
SjBIgBSgj53qHGv215382RMvvwR6b+D7EaEapBgwFjEUMBIGA1UEAwwLdGVhbTI3
OS1uZXSCFEtYxbl2PG4+hC7hqaJ4OaRu3tlZMBMGA1UdJQQMMAoGCCsGAQUFBwMB
MAsGA1UdDwQEAwIFoDAZBgNVHREEEjAQgg50ZWFtMjc5LXNlcnZlcjANBgkqhkiG
9w0BAQsFAAOCAQEARyxRtWFObVyjNh2Iq6WPP+ny6KXTXAKxrf5JHPL+MdoeJAI+
C9dwBCwyjCs6kSfhUFtjDM94bbXE5RRg3d8sfoLczt6GG39EhKPKzJUFq/2x75cH
fxLOjG38HkB9ETXHyA9g/zyLRv5QUNI2FaIM5mDgmPHW7ZkpDIiAcTCBW2D7oM44
6eJ4HJUGpIci3HQGcS2bzlWHW3p2CwiiKZfO+Vygkrh9bRJCzkrkHKRmWctjVSxg
xdKelH+b8LxlVpCsqvHF/cf7pZfVMU1YChtTjlp2/3K0ZBZB6duPe1ypOWQEidei
2IoN+Xo6c+W4DhoclYt2xyr5JNv6Ux9Ln2nuAA==
-----END CERTIFICATE-----
