Certificate:
    Data:
        Version: 3 (0x2)
        Serial Number:
            85:ca:d5:9a:45:a9:a2:88:c6:aa:25:53:c3:2c:f9:62
        Signature Algorithm: sha256WithRSAEncryption
        Issuer: CN=team392-net
        Validity
            Not Before: Sep 13 02:18:58 2021 GMT
            Not After : Aug 28 02:18:58 2024 GMT
        Subject: CN=team392-server
        Subject Public Key Info:
            Public Key Algorithm: rsaEncryption
                RSA Public-Key: (2048 bit)
                Modulus:
                    00:ac:e8:87:10:b2:13:d2:a6:94:3f:fc:9a:90:8e:
                    0d:c6:30:c1:5f:08:fc:9e:ea:6c:ff:96:47:78:ec:
                    2c:db:0f:a0:01:3c:cf:ed:f3:93:c6:e3:79:c1:6c:
                    24:6f:a9:b9:c1:b1:82:d8:cf:60:80:e2:1a:44:44:
                    2e:13:7d:bd:71:bf:99:09:3e:ca:3b:68:1b:d9:1a:
                    83:c8:63:f7:a4:e5:17:86:7b:7d:82:a7:4a:bd:74:
                    06:63:6d:34:c7:c9:70:5a:15:66:22:cd:8e:db:15:
                    d5:ef:1f:8a:49:c2:c1:da:ee:f9:ae:c2:a5:1c:10:
                    96:6e:4e:2b:07:f5:3e:57:55:69:44:3f:70:57:d8:
                    d9:7f:be:53:90:b3:91:79:71:68:5c:7a:b2:8c:b0:
                    b3:5a:98:4f:73:aa:ea:b2:a5:37:92:0a:bc:87:38:
                    aa:2c:77:f3:49:60:61:e2:7a:74:a1:1a:ac:fb:b0:
                    98:9c:06:8d:8e:8c:56:0a:c8:84:cb:12:44:45:aa:
                    b6:d1:01:f4:4d:c2:c2:8e:1d:05:0b:a8:e4:ba:70:
                    cf:15:e0:f6:ae:04:df:7e:65:8c:aa:b9:a5:4d:a7:
                    de:e9:4b:6f:a7:59:7d:59:40:e3:5d:d3:c3:52:b2:
                    03:e5:13:7f:cb:24:99:ce:26:dd:e1:fb:b1:50:48:
                    3a:65
                Exponent: 65537 (0x10001)
        X509v3 extensions:
            X509v3 Basic Constraints: 
                CA:FALSE
            X509v3 Subject Key Identifier: 
                14:B4:07:B3:51:10:C9:6D:EE:BB:E2:42:66:B7:3D:2A:39:DF:19:94
            X509v3 Authority Key Identifier: 
                keyid:AC:98:09:93:E2:04:91:FE:D6:A1:51:9D:CA:B0:35:F9:9D:AC:10:F4
                DirName:/CN=team392-net
                serial:52:81:C0:33:FB:B7:61:03:81:B7:EF:F0:75:83:81:6F:20:DB:BA:3E

            X509v3 Extended Key Usage: 
                TLS Web Server Authentication
            X509v3 Key Usage: 
                Digital Signature, Key Encipherment
            X509v3 Subject Alternative Name: 
                DNS:team392-server
    Signature Algorithm: sha256WithRSAEncryption
         99:9f:41:9a:8f:f4:df:63:ff:55:34:e8:10:15:0c:1b:5d:1d:
         63:30:90:a6:e3:1c:d1:19:c2:c3:66:b1:c6:50:8c:79:0c:bb:
         7a:9e:5c:f6:bd:71:bd:e8:45:a1:63:be:26:2f:d6:1a:59:24:
         d2:b6:4b:31:ea:4e:a3:c2:0d:40:65:a8:7e:29:da:e3:ec:6f:
         11:37:10:a2:23:5a:d8:61:9e:0d:ce:82:93:84:c6:92:f1:ec:
         95:35:aa:ed:35:30:4b:2d:fe:f0:b0:20:64:51:2b:7e:57:62:
         d7:d5:b4:a3:ec:13:a4:ef:ba:83:43:42:11:a4:0d:2b:05:c1:
         9a:22:2b:67:d1:a1:fa:c2:d4:db:92:9d:db:f9:b1:f0:88:6b:
         6c:ac:5f:38:3f:1d:f7:8c:e0:9e:4b:bc:ca:bf:07:96:2e:5c:
         aa:61:19:a7:f4:ca:2a:3f:0b:06:7b:1c:3a:85:7d:a8:47:b2:
         0b:42:10:3c:25:73:4f:f6:1a:10:7a:93:75:21:1a:0d:b7:29:
         1b:cd:64:23:11:47:d4:ec:0f:88:74:08:6c:56:82:1f:ef:0a:
         17:1a:fb:50:d6:97:e4:d9:c7:2b:c4:e0:ae:90:48:09:00:01:
         0e:61:e6:84:d4:71:6a:2a:5c:34:74:da:e7:88:02:2d:0e:8a:
         96:34:1f:3f
-----BEGIN CERTIFICATE-----
MIIDeDCCAmCgAwIBAgIRAIXK1ZpFqaKIxqolU8Ms+WIwDQYJKoZIhvcNAQELBQAw
FjEUMBIGA1UEAwwLdGVhbTM5Mi1uZXQwHhcNMjEwOTEzMDIxODU4WhcNMjQwODI4
MDIxODU4WjAZMRcwFQYDVQQDDA50ZWFtMzkyLXNlcnZlcjCCASIwDQYJKoZIhvcN
AQEBBQADggEPADCCAQoCggEBAKzohxCyE9KmlD/8mpCODcYwwV8I/J7qbP+WR3js
LNsPoAE8z+3zk8bjecFsJG+pucGxgtjPYIDiGkRELhN9vXG/mQk+yjtoG9kag8hj
96TlF4Z7fYKnSr10BmNtNMfJcFoVZiLNjtsV1e8fiknCwdru+a7CpRwQlm5OKwf1
PldVaUQ/cFfY2X++U5CzkXlxaFx6soyws1qYT3Oq6rKlN5IKvIc4qix380lgYeJ6
dKEarPuwmJwGjY6MVgrIhMsSREWqttEB9E3Cwo4dBQuo5LpwzxXg9q4E335ljKq5
pU2n3ulLb6dZfVlA413Tw1KyA+UTf8skmc4m3eH7sVBIOmUCAwEAAaOBvTCBujAJ
BgNVHRMEAjAAMB0GA1UdDgQWBBQUtAezURDJbe674kJmtz0qOd8ZlDBRBgNVHSME
SjBIgBSsmAmT4gSR/tahUZ3KsDX5nawQ9KEapBgwFjEUMBIGA1UEAwwLdGVhbTM5
Mi1uZXSCFFKBwDP7t2EDgbfv8HWDgW8g27o+MBMGA1UdJQQMMAoGCCsGAQUFBwMB
MAsGA1UdDwQEAwIFoDAZBgNVHREEEjAQgg50ZWFtMzkyLXNlcnZlcjANBgkqhkiG
9w0BAQsFAAOCAQEAmZ9Bmo/032P/VTToEBUMG10dYzCQpuMc0RnCw2axxlCMeQy7
ep5c9r1xvehFoWO+Ji/WGlkk0rZLMepOo8INQGWofina4+xvETcQoiNa2GGeDc6C
k4TGkvHslTWq7TUwSy3+8LAgZFErfldi19W0o+wTpO+6g0NCEaQNKwXBmiIrZ9Gh
+sLU25Kd2/mx8IhrbKxfOD8d94zgnku8yr8Hli5cqmEZp/TKKj8LBnscOoV9qEey
C0IQPCVzT/YaEHqTdSEaDbcpG81kIxFH1OwPiHQIbFaCH+8KFxr7UNaX5NnHK8Tg
rpBICQABDmHmhNRxaipcNHTa54gCLQ6KljQfPw==
-----END CERTIFICATE-----
