Certificate:
    Data:
        Version: 3 (0x2)
        Serial Number:
            8e:3d:9f:95:3f:78:b8:43:49:f6:cd:0c:e4:94:9f:da
        Signature Algorithm: sha256WithRSAEncryption
        Issuer: CN=team288-net
        Validity
            Not Before: Sep 13 01:17:54 2021 GMT
            Not After : Aug 28 01:17:54 2024 GMT
        Subject: CN=team288-client
        Subject Public Key Info:
            Public Key Algorithm: rsaEncryption
                RSA Public-Key: (2048 bit)
                Modulus:
                    00:f6:d0:75:cc:f7:2f:8e:04:d4:68:15:8e:a7:95:
                    e0:65:3f:95:90:5c:d2:f5:97:0c:02:fd:e0:71:75:
                    3c:83:f1:b9:d6:98:e4:af:1a:ea:30:1a:20:32:ef:
                    43:31:26:86:f9:62:45:7f:43:11:31:0d:20:7c:aa:
                    04:d5:2c:2f:bb:ff:99:fc:17:19:89:88:4c:16:2a:
                    1c:8d:8a:ba:2e:eb:72:45:cd:80:90:f0:68:80:48:
                    0b:f2:0e:d9:8e:0f:3e:7f:ad:b5:00:4f:38:db:70:
                    8c:1c:11:45:5f:14:9e:ab:77:e5:07:db:43:7b:94:
                    e7:c4:a5:ed:94:db:45:ea:2c:08:05:2e:6f:fa:b4:
                    f5:d6:83:38:73:a0:fc:79:cb:d7:01:d7:87:af:84:
                    82:a5:59:81:60:05:15:7e:d6:16:19:4f:6a:a9:64:
                    6b:0f:85:75:36:3b:16:34:b7:0e:19:ae:5f:cc:b8:
                    5d:ae:c1:cd:3a:15:26:76:eb:05:b2:37:65:59:47:
                    34:af:11:69:3a:cd:82:6e:9a:78:a0:d7:36:4f:33:
                    c8:76:22:88:82:42:87:73:2c:cc:66:29:d3:ad:91:
                    72:a9:d6:86:05:7a:82:f1:a2:aa:35:28:fb:73:3b:
                    f2:49:de:2c:9b:af:3e:49:5e:d6:fd:76:37:03:84:
                    42:33
                Exponent: 65537 (0x10001)
        X509v3 extensions:
            X509v3 Basic Constraints: 
                CA:FALSE
            X509v3 Subject Key Identifier: 
                0E:BD:57:77:3B:41:7C:B5:D4:4E:8C:B2:B4:99:E1:3C:46:EA:C6:0D
            X509v3 Authority Key Identifier: 
                keyid:E2:20:36:F4:D5:73:E9:FF:4C:D3:CE:79:7D:55:54:20:4C:49:1A:F5
                DirName:/CN=team288-net
                serial:5B:72:1A:98:9F:B6:13:FE:79:53:65:C3:2D:11:B1:67:B8:2D:2F:0D

            X509v3 Extended Key Usage: 
                TLS Web Client Authentication
            X509v3 Key Usage: 
                Digital Signature
    Signature Algorithm: sha256WithRSAEncryption
         87:95:12:e6:bf:4f:4e:9e:7e:0b:15:e2:7f:83:0e:3c:7f:c0:
         64:50:c0:68:79:7a:6c:dd:fc:8a:51:b0:d3:8e:c7:b2:cf:6a:
         5a:66:83:4f:b6:0c:e5:1e:ac:0c:96:5a:5d:2b:a0:5c:9b:1b:
         b4:41:02:e9:33:e3:28:7d:11:3b:f7:df:ea:54:6e:3c:16:27:
         20:2d:0f:44:e6:27:e0:bc:a4:6a:2a:03:50:4c:29:bd:fb:56:
         68:9a:6e:4f:6f:38:d0:f9:e9:a4:ec:97:35:b7:f1:6a:1a:b7:
         bb:47:21:d7:76:2b:67:2b:4b:9c:d0:9d:48:e1:83:95:07:3f:
         cc:e3:49:87:14:33:23:9d:06:2e:3e:e8:e7:f0:8d:8d:82:e5:
         4d:07:79:b7:45:c7:0b:f9:b5:bd:0a:41:52:69:9c:73:67:48:
         d1:4a:80:1f:95:71:b3:c4:35:2b:82:53:97:60:d8:f8:5b:6c:
         70:21:a7:a9:7f:a0:8b:78:37:b0:f8:60:f9:bc:4e:c4:0a:d2:
         a7:e0:32:9d:52:55:b9:17:ed:96:24:39:ab:a9:55:f3:44:fc:
         ec:9a:be:9c:c0:ac:41:e0:b4:43:a2:11:e8:fc:32:1b:16:31:
         65:12:31:73:62:3f:59:81:2b:d3:6e:5c:90:6b:37:42:b2:d9:
         62:66:f9:c1
-----BEGIN CERTIFICATE-----
MIIDXTCCAkWgAwIBAgIRAI49n5U/eLhDSfbNDOSUn9owDQYJKoZIhvcNAQELBQAw
FjEUMBIGA1UEAwwLdGVhbTI4OC1uZXQwHhcNMjEwOTEzMDExNzU0WhcNMjQwODI4
MDExNzU0WjAZMRcwFQYDVQQDDA50ZWFtMjg4LWNsaWVudDCCASIwDQYJKoZIhvcN
AQEBBQADggEPADCCAQoCggEBAPbQdcz3L44E1GgVjqeV4GU/lZBc0vWXDAL94HF1
PIPxudaY5K8a6jAaIDLvQzEmhvliRX9DETENIHyqBNUsL7v/mfwXGYmITBYqHI2K
ui7rckXNgJDwaIBIC/IO2Y4PPn+ttQBPONtwjBwRRV8Unqt35QfbQ3uU58Sl7ZTb
ReosCAUub/q09daDOHOg/HnL1wHXh6+EgqVZgWAFFX7WFhlPaqlkaw+FdTY7FjS3
DhmuX8y4Xa7BzToVJnbrBbI3ZVlHNK8RaTrNgm6aeKDXNk8zyHYiiIJCh3MszGYp
062RcqnWhgV6gvGiqjUo+3M78kneLJuvPkle1v12NwOEQjMCAwEAAaOBojCBnzAJ
BgNVHRMEAjAAMB0GA1UdDgQWBBQOvVd3O0F8tdROjLK0meE8RurGDTBRBgNVHSME
SjBIgBTiIDb01XPp/0zTznl9VVQgTEka9aEapBgwFjEUMBIGA1UEAwwLdGVhbTI4
OC1uZXSCFFtyGpifthP+eVNlwy0RsWe4LS8NMBMGA1UdJQQMMAoGCCsGAQUFBwMC
MAsGA1UdDwQEAwIHgDANBgkqhkiG9w0BAQsFAAOCAQEAh5US5r9PTp5+CxXif4MO
PH/AZFDAaHl6bN38ilGw047Hss9qWmaDT7YM5R6sDJZaXSugXJsbtEEC6TPjKH0R
O/ff6lRuPBYnIC0PROYn4LykaioDUEwpvftWaJpuT2840PnppOyXNbfxahq3u0ch
13YrZytLnNCdSOGDlQc/zONJhxQzI50GLj7o5/CNjYLlTQd5t0XHC/m1vQpBUmmc
c2dI0UqAH5Vxs8Q1K4JTl2DY+FtscCGnqX+gi3g3sPhg+bxOxArSp+AynVJVuRft
liQ5q6lV80T87Jq+nMCsQeC0Q6IR6PwyGxYxZRIxc2I/WYEr025ckGs3QrLZYmb5
wQ==
-----END CERTIFICATE-----
