Certificate:
    Data:
        Version: 3 (0x2)
        Serial Number:
            92:2f:33:2b:42:ff:2c:ce:1c:bb:8c:e0:2a:fa:e3:f5
        Signature Algorithm: sha256WithRSAEncryption
        Issuer: CN=team552-net
        Validity
            Not Before: Sep 13 03:48:54 2021 GMT
            Not After : Aug 28 03:48:54 2024 GMT
        Subject: CN=team552-server
        Subject Public Key Info:
            Public Key Algorithm: rsaEncryption
                RSA Public-Key: (2048 bit)
                Modulus:
                    00:bb:33:dd:6f:50:80:49:44:43:9b:24:f7:5e:80:
                    3f:4e:f1:f1:d4:86:48:c7:85:45:3b:88:fd:09:bf:
                    f6:07:ee:d2:83:30:d6:1b:d7:8a:5e:1a:23:a5:72:
                    70:72:1a:ca:28:01:3c:00:2a:40:13:d4:ec:b2:b0:
                    a3:09:d2:47:3b:61:c4:64:bd:6b:94:44:0c:45:49:
                    c0:ca:27:f7:fc:4e:5c:80:ec:19:c2:f4:96:54:72:
                    74:8d:50:2f:83:5b:32:df:3d:d0:b6:98:be:50:a4:
                    78:aa:18:f9:ee:48:1c:c7:fc:15:40:90:78:02:c4:
                    ff:71:dd:93:ba:cd:be:49:54:bc:c2:f4:1b:44:8f:
                    4e:b9:81:a7:cc:af:b8:00:e6:dc:f8:e3:ad:47:7a:
                    a5:77:f5:f0:9d:3f:f0:ed:22:bc:64:1a:f9:37:66:
                    28:1c:e3:98:1d:90:b0:b8:9b:81:6d:14:e0:94:a9:
                    56:97:20:a1:73:cb:6b:7d:41:c0:c5:59:af:9b:54:
                    8b:11:5c:e8:c3:af:90:5d:1c:a8:c9:a6:dc:c6:d7:
                    a1:89:24:5a:51:f7:8b:6a:26:98:48:21:0c:44:dc:
                    b6:84:6e:c2:70:98:87:3a:d7:6c:4f:ba:ed:60:de:
                    3e:f0:d2:08:bc:4b:70:d9:e0:00:41:ee:7a:5c:99:
                    8b:ed
                Exponent: 65537 (0x10001)
        X509v3 extensions:
            X509v3 Basic Constraints: 
                CA:FALSE
            X509v3 Subject Key Identifier: 
                C2:18:4E:23:44:85:BC:E8:AD:FE:16:09:C2:88:25:37:34:2E:B7:0F
            X509v3 Authority Key Identifier: 
                keyid:EE:9A:DE:C6:2B:B1:4F:BE:69:5E:09:15:B8:3A:EB:A9:8A:64:D6:E4
                DirName:/CN=team552-net
                serial:2B:A7:19:B6:B4:7E:73:5E:C8:44:23:7A:45:A3:4C:A4:D1:94:1C:A9

            X509v3 Extended Key Usage: 
                TLS Web Server Authentication
            X509v3 Key Usage: 
                Digital Signature, Key Encipherment
            X509v3 Subject Alternative Name: 
                DNS:team552-server
    Signature Algorithm: sha256WithRSAEncryption
         78:05:2a:55:3b:93:ca:86:69:93:3e:de:cc:5c:72:31:ac:23:
         bc:3e:e7:1c:97:46:fe:bb:51:43:78:0e:99:1f:00:68:a0:a4:
         02:dc:9a:63:ff:88:d3:0b:17:85:60:9b:61:0b:3e:74:c6:ca:
         32:a8:de:e3:2a:a3:ab:d2:5e:39:4c:71:2c:fb:b3:f1:78:8d:
         15:68:d0:c9:d6:f0:b5:c3:db:cb:3e:0f:9a:88:6c:f6:c8:be:
         5c:c0:d5:a2:dd:0f:81:b0:e2:a2:37:88:18:7c:df:38:e2:bb:
         60:0d:ee:6c:94:1a:c6:00:74:c8:02:8b:8b:dc:cf:8a:fa:ee:
         1c:d5:07:a7:eb:df:9c:a3:4c:34:f0:e6:a2:71:2c:cf:f3:42:
         31:ed:61:18:6e:42:26:a3:9a:51:2a:ec:65:43:2a:28:45:53:
         c9:10:33:b7:8b:f6:da:1b:05:3f:86:b0:be:81:15:59:91:96:
         00:e0:7f:57:03:b6:f4:1e:ad:3a:39:1a:f0:bc:3d:36:da:e8:
         bd:3f:04:df:17:ed:d3:e6:b3:1a:fc:ea:4d:8e:4f:48:11:a4:
         fe:43:a0:15:cd:bb:db:27:8a:d8:ce:1c:55:b5:52:e2:28:cb:
         0c:51:4a:e4:e3:9a:f7:15:8b:e4:68:d6:41:1d:c5:71:7d:49:
         d1:61:d1:52
-----BEGIN CERTIFICATE-----
MIIDeDCCAmCgAwIBAgIRAJIvMytC/yzOHLuM4Cr64/UwDQYJKoZIhvcNAQELBQAw
FjEUMBIGA1UEAwwLdGVhbTU1Mi1uZXQwHhcNMjEwOTEzMDM0ODU0WhcNMjQwODI4
MDM0ODU0WjAZMRcwFQYDVQQDDA50ZWFtNTUyLXNlcnZlcjCCASIwDQYJKoZIhvcN
AQEBBQADggEPADCCAQoCggEBALsz3W9QgElEQ5sk916AP07x8dSGSMeFRTuI/Qm/
9gfu0oMw1hvXil4aI6VycHIayigBPAAqQBPU7LKwownSRzthxGS9a5REDEVJwMon
9/xOXIDsGcL0llRydI1QL4NbMt890LaYvlCkeKoY+e5IHMf8FUCQeALE/3Hdk7rN
vklUvML0G0SPTrmBp8yvuADm3PjjrUd6pXf18J0/8O0ivGQa+TdmKBzjmB2QsLib
gW0U4JSpVpcgoXPLa31BwMVZr5tUixFc6MOvkF0cqMmm3MbXoYkkWlH3i2ommEgh
DETctoRuwnCYhzrXbE+67WDePvDSCLxLcNngAEHuelyZi+0CAwEAAaOBvTCBujAJ
BgNVHRMEAjAAMB0GA1UdDgQWBBTCGE4jRIW86K3+FgnCiCU3NC63DzBRBgNVHSME
SjBIgBTumt7GK7FPvmleCRW4OuupimTW5KEapBgwFjEUMBIGA1UEAwwLdGVhbTU1
Mi1uZXSCFCunGba0fnNeyEQjekWjTKTRlBypMBMGA1UdJQQMMAoGCCsGAQUFBwMB
MAsGA1UdDwQEAwIFoDAZBgNVHREEEjAQgg50ZWFtNTUyLXNlcnZlcjANBgkqhkiG
9w0BAQsFAAOCAQEAeAUqVTuTyoZpkz7ezFxyMawjvD7nHJdG/rtRQ3gOmR8AaKCk
AtyaY/+I0wsXhWCbYQs+dMbKMqje4yqjq9JeOUxxLPuz8XiNFWjQydbwtcPbyz4P
mohs9si+XMDVot0PgbDiojeIGHzfOOK7YA3ubJQaxgB0yAKLi9zPivruHNUHp+vf
nKNMNPDmonEsz/NCMe1hGG5CJqOaUSrsZUMqKEVTyRAzt4v22hsFP4awvoEVWZGW
AOB/VwO29B6tOjka8Lw9NtrovT8E3xft0+azGvzqTY5PSBGk/kOgFc272yeK2M4c
VbVS4ijLDFFK5OOa9xWL5GjWQR3FcX1J0WHRUg==
-----END CERTIFICATE-----
