Certificate:
    Data:
        Version: 3 (0x2)
        Serial Number:
            82:cd:65:4f:9f:7e:f7:35:56:8d:39:d6:64:b3:bb:03
        Signature Algorithm: sha256WithRSAEncryption
        Issuer: CN=team37-net
        Validity
            Not Before: Sep 12 23:03:54 2021 GMT
            Not After : Aug 27 23:03:54 2024 GMT
        Subject: CN=team37-server
        Subject Public Key Info:
            Public Key Algorithm: rsaEncryption
                RSA Public-Key: (2048 bit)
                Modulus:
                    00:cd:f3:5e:fc:a8:03:e6:7f:3c:d4:55:df:dd:83:
                    cb:c8:73:e9:39:3f:cd:83:e8:09:99:1c:f7:5f:e1:
                    ec:9c:52:e4:56:37:bf:f5:a9:fe:fa:82:0a:a5:aa:
                    25:1c:47:57:f1:8f:e0:b4:23:13:8f:58:f3:4c:01:
                    9d:ed:ce:29:f0:93:ae:09:bb:38:c2:86:0e:da:a0:
                    a0:ec:26:89:5a:00:88:06:65:03:1d:98:d1:00:95:
                    24:d7:e6:a5:0f:ea:73:4e:f9:2f:99:99:39:e1:7c:
                    ab:37:d5:e1:87:19:4f:50:6e:b4:46:63:9d:1f:29:
                    77:2e:32:81:65:98:9a:13:69:54:93:0d:4d:37:ed:
                    f9:e7:bc:67:15:13:65:19:11:55:95:8c:4b:84:60:
                    cb:03:ff:aa:57:38:f0:53:db:77:29:d1:b2:e1:70:
                    3b:33:b1:ae:74:33:cc:d6:0d:b9:27:0c:db:64:8c:
                    4a:54:f9:57:ad:74:0b:0f:ba:6d:fc:42:8e:2a:02:
                    9d:14:15:0b:f6:69:4a:ad:1c:b8:4b:c7:3f:ec:03:
                    c3:f7:53:db:3f:1d:2f:eb:54:18:10:df:ef:ea:ec:
                    04:67:c7:ec:89:9a:c1:36:26:f2:b5:e8:09:d5:23:
                    bf:da:4b:ba:38:8c:3e:c2:98:6a:1a:6b:4b:5f:f5:
                    86:c7
                Exponent: 65537 (0x10001)
        X509v3 extensions:
            X509v3 Basic Constraints: 
                CA:FALSE
            X509v3 Subject Key Identifier: 
                F5:F5:17:97:28:6D:C7:43:76:1D:65:7F:BF:57:37:7B:87:C7:8D:14
            X509v3 Authority Key Identifier: 
                keyid:48:AA:76:FC:4F:17:78:D7:83:C8:65:03:8E:30:63:2F:19:51:9B:F5
                DirName:/CN=team37-net
                serial:6F:C0:C1:21:36:34:BA:12:2F:91:81:44:2A:61:51:A4:C4:29:4F:B1

            X509v3 Extended Key Usage: 
                TLS Web Server Authentication
            X509v3 Key Usage: 
                Digital Signature, Key Encipherment
            X509v3 Subject Alternative Name: 
                DNS:team37-server
    Signature Algorithm: sha256WithRSAEncryption
         27:68:cb:0d:39:45:43:f7:51:e6:cd:1f:17:09:25:16:f2:b6:
         01:5a:1a:d7:12:3f:57:4f:c8:28:9c:89:56:d9:5d:5a:ee:83:
         3c:53:fe:6b:01:12:24:57:52:32:0f:da:ed:7a:72:6b:b2:82:
         77:32:b7:40:00:45:54:23:47:37:21:d3:b2:6a:5d:9f:2c:03:
         24:fd:3b:d0:89:27:bd:f3:bc:ba:80:66:37:5c:20:7c:53:7b:
         99:33:c2:79:a8:a8:81:bf:2d:5d:e7:d9:86:f9:6c:54:3b:2e:
         5d:55:e6:2e:5f:78:9e:13:56:2a:64:50:71:79:54:c7:6c:18:
         a8:1b:5d:dc:8d:ff:12:77:f9:fb:ec:f8:63:82:88:c2:dd:4e:
         62:94:9f:a1:46:c1:d1:a0:73:96:c4:19:9f:5b:a0:0a:ce:da:
         b1:51:ba:9b:f0:31:03:f0:51:b6:2a:33:bd:8e:37:86:4e:dd:
         a2:1c:3c:d3:9c:eb:48:c4:34:59:e1:24:22:87:47:7e:36:fc:
         8d:52:f9:98:46:9f:01:4a:03:fd:55:77:96:e8:90:47:6d:eb:
         bd:b1:19:fa:d1:d8:cb:54:76:47:38:78:ba:83:61:aa:e0:d1:
         93:5f:90:06:27:da:05:a9:59:62:e4:2f:2c:59:fa:c2:42:c5:
         78:8b:14:08
-----BEGIN CERTIFICATE-----
MIIDdDCCAlygAwIBAgIRAILNZU+ffvc1Vo051mSzuwMwDQYJKoZIhvcNAQELBQAw
FTETMBEGA1UEAwwKdGVhbTM3LW5ldDAeFw0yMTA5MTIyMzAzNTRaFw0yNDA4Mjcy
MzAzNTRaMBgxFjAUBgNVBAMMDXRlYW0zNy1zZXJ2ZXIwggEiMA0GCSqGSIb3DQEB
AQUAA4IBDwAwggEKAoIBAQDN8178qAPmfzzUVd/dg8vIc+k5P82D6AmZHPdf4eyc
UuRWN7/1qf76ggqlqiUcR1fxj+C0IxOPWPNMAZ3tzinwk64JuzjChg7aoKDsJola
AIgGZQMdmNEAlSTX5qUP6nNO+S+ZmTnhfKs31eGHGU9QbrRGY50fKXcuMoFlmJoT
aVSTDU037fnnvGcVE2UZEVWVjEuEYMsD/6pXOPBT23cp0bLhcDszsa50M8zWDbkn
DNtkjEpU+VetdAsPum38Qo4qAp0UFQv2aUqtHLhLxz/sA8P3U9s/HS/rVBgQ3+/q
7ARnx+yJmsE2JvK16AnVI7/aS7o4jD7CmGoaa0tf9YbHAgMBAAGjgbswgbgwCQYD
VR0TBAIwADAdBgNVHQ4EFgQU9fUXlyhtx0N2HWV/v1c3e4fHjRQwUAYDVR0jBEkw
R4AUSKp2/E8XeNeDyGUDjjBjLxlRm/WhGaQXMBUxEzARBgNVBAMMCnRlYW0zNy1u
ZXSCFG/AwSE2NLoSL5GBRCphUaTEKU+xMBMGA1UdJQQMMAoGCCsGAQUFBwMBMAsG
A1UdDwQEAwIFoDAYBgNVHREEETAPgg10ZWFtMzctc2VydmVyMA0GCSqGSIb3DQEB
CwUAA4IBAQAnaMsNOUVD91HmzR8XCSUW8rYBWhrXEj9XT8gonIlW2V1a7oM8U/5r
ARIkV1IyD9rtenJrsoJ3MrdAAEVUI0c3IdOyal2fLAMk/TvQiSe987y6gGY3XCB8
U3uZM8J5qKiBvy1d59mG+WxUOy5dVeYuX3ieE1YqZFBxeVTHbBioG13cjf8Sd/n7
7PhjgojC3U5ilJ+hRsHRoHOWxBmfW6AKztqxUbqb8DED8FG2KjO9jjeGTt2iHDzT
nOtIxDRZ4SQih0d+NvyNUvmYRp8BSgP9VXeW6JBHbeu9sRn60djLVHZHOHi6g2Gq
4NGTX5AGJ9oFqVli5C8sWfrCQsV4ixQI
-----END CERTIFICATE-----
