Certificate:
    Data:
        Version: 3 (0x2)
        Serial Number:
            4c:d8:dd:46:13:46:66:41:af:06:70:5b:55:e6:34:ee
        Signature Algorithm: sha256WithRSAEncryption
        Issuer: CN=team535-net
        Validity
            Not Before: Sep 13 03:24:21 2021 GMT
            Not After : Aug 28 03:24:21 2024 GMT
        Subject: CN=team535-client
        Subject Public Key Info:
            Public Key Algorithm: rsaEncryption
                RSA Public-Key: (2048 bit)
                Modulus:
                    00:b2:c9:43:08:b6:0e:1a:80:9d:99:6f:90:e6:f5:
                    ee:8d:a1:74:ef:b0:16:48:f5:f1:51:07:14:e0:27:
                    c8:2a:d5:3f:b1:18:4d:24:59:83:4e:b1:f3:e2:d4:
                    9a:2e:8b:dd:94:73:25:11:01:29:f9:ae:6c:24:58:
                    b1:61:9b:97:11:b1:50:87:d2:dc:47:7f:14:4f:10:
                    4d:74:44:f7:2f:87:d4:63:09:a6:c2:40:f1:73:a6:
                    d1:40:1d:d7:80:a2:a0:df:54:d3:78:20:88:3a:50:
                    26:7a:33:70:8a:4f:b9:c4:c8:87:2e:7a:b0:2e:fd:
                    08:11:eb:ef:a4:c5:15:ad:ca:fa:0f:95:30:d7:fd:
                    21:b8:29:01:4b:e2:d7:7d:f2:c7:cc:60:10:aa:b7:
                    96:7d:a6:f9:aa:21:10:07:08:90:c2:51:4c:18:8a:
                    ef:47:8e:7d:59:f0:d7:cc:a1:92:66:2d:b1:1b:61:
                    57:52:24:fa:68:ef:d0:fe:e5:1e:81:95:de:92:97:
                    ad:94:3d:35:6e:93:9d:15:56:fd:1e:37:19:99:49:
                    92:bc:85:7a:b9:83:8c:b7:1d:34:05:cd:af:29:a9:
                    97:6b:e4:ec:3d:f4:0b:c6:ee:ae:2b:28:9d:b7:ff:
                    44:df:ce:86:e6:90:f8:54:1c:ef:92:16:35:70:d7:
                    ff:bf
                Exponent: 65537 (0x10001)
        X509v3 extensions:
            X509v3 Basic Constraints: 
                CA:FALSE
            X509v3 Subject Key Identifier: 
                5F:D3:D6:C1:7C:20:CA:5C:CC:0D:71:DF:86:BB:C1:68:A4:E2:A8:18
            X509v3 Authority Key Identifier: 
                keyid:9E:EE:8F:6E:BE:8D:E5:F6:96:43:A2:DC:07:A4:D0:4A:B2:ED:A7:4C
                DirName:/CN=team535-net
                serial:2C:E9:B2:F2:B3:00:BA:68:4B:50:43:6A:2E:46:35:D8:17:A9:4E:42

            X509v3 Extended Key Usage: 
                TLS Web Client Authentication
            X509v3 Key Usage: 
                Digital Signature
    Signature Algorithm: sha256WithRSAEncryption
         88:49:9c:9a:24:a8:f4:11:5a:53:cb:2a:59:aa:63:3e:f2:4f:
         72:98:e9:09:80:63:81:46:87:19:ea:d9:6b:63:33:60:79:97:
         f3:11:4e:a5:80:f3:d7:9b:f6:d3:8c:ac:4d:34:f2:ad:db:54:
         9b:a9:88:34:c7:be:d3:3d:43:15:76:bb:78:93:32:a5:63:dc:
         72:9f:d5:33:b1:ff:5f:e1:36:bb:00:ad:91:1c:78:32:70:67:
         1a:90:30:46:8d:e3:18:03:f9:63:36:57:9e:b6:07:ac:36:30:
         92:2f:16:55:4b:ca:24:e3:85:ce:19:30:75:51:88:63:82:f4:
         d5:86:d0:52:bf:3c:a9:d7:f9:df:26:64:b5:cc:50:e9:25:b3:
         98:a2:dc:b8:2a:01:dd:a6:b0:55:7f:8f:78:9f:60:cb:1c:af:
         cb:9b:bb:4c:06:8a:a5:21:bd:ec:b0:af:2e:57:32:f0:1d:6e:
         70:0f:ca:cb:c8:2a:60:ac:6c:19:61:93:0c:14:c9:f1:86:4c:
         c3:57:df:de:bc:c0:0f:94:f7:0d:30:da:b0:7d:f4:0d:14:43:
         a6:e2:1b:9c:77:b6:bf:a5:17:f5:82:b1:0d:f6:7f:2e:72:e9:
         ad:9b:6c:1b:13:7b:3f:3d:49:50:8d:9d:ce:6c:ad:c2:76:da:
         ec:43:ce:d2
-----BEGIN CERTIFICATE-----
MIIDXDCCAkSgAwIBAgIQTNjdRhNGZkGvBnBbVeY07jANBgkqhkiG9w0BAQsFADAW
MRQwEgYDVQQDDAt0ZWFtNTM1LW5ldDAeFw0yMTA5MTMwMzI0MjFaFw0yNDA4Mjgw
MzI0MjFaMBkxFzAVBgNVBAMMDnRlYW01MzUtY2xpZW50MIIBIjANBgkqhkiG9w0B
AQEFAAOCAQ8AMIIBCgKCAQEAsslDCLYOGoCdmW+Q5vXujaF077AWSPXxUQcU4CfI
KtU/sRhNJFmDTrHz4tSaLovdlHMlEQEp+a5sJFixYZuXEbFQh9LcR38UTxBNdET3
L4fUYwmmwkDxc6bRQB3XgKKg31TTeCCIOlAmejNwik+5xMiHLnqwLv0IEevvpMUV
rcr6D5Uw1/0huCkBS+LXffLHzGAQqreWfab5qiEQBwiQwlFMGIrvR459WfDXzKGS
Zi2xG2FXUiT6aO/Q/uUegZXekpetlD01bpOdFVb9HjcZmUmSvIV6uYOMtx00Bc2v
KamXa+TsPfQLxu6uKyidt/9E386G5pD4VBzvkhY1cNf/vwIDAQABo4GiMIGfMAkG
A1UdEwQCMAAwHQYDVR0OBBYEFF/T1sF8IMpczA1x34a7wWik4qgYMFEGA1UdIwRK
MEiAFJ7uj26+jeX2lkOi3Aek0Eqy7adMoRqkGDAWMRQwEgYDVQQDDAt0ZWFtNTM1
LW5ldIIULOmy8rMAumhLUENqLkY12BepTkIwEwYDVR0lBAwwCgYIKwYBBQUHAwIw
CwYDVR0PBAQDAgeAMA0GCSqGSIb3DQEBCwUAA4IBAQCISZyaJKj0EVpTyypZqmM+
8k9ymOkJgGOBRocZ6tlrYzNgeZfzEU6lgPPXm/bTjKxNNPKt21SbqYg0x77TPUMV
drt4kzKlY9xyn9Uzsf9f4Ta7AK2RHHgycGcakDBGjeMYA/ljNleetgesNjCSLxZV
S8ok44XOGTB1UYhjgvTVhtBSvzyp1/nfJmS1zFDpJbOYoty4KgHdprBVf494n2DL
HK/Lm7tMBoqlIb3ssK8uVzLwHW5wD8rLyCpgrGwZYZMMFMnxhkzDV9/evMAPlPcN
MNqwffQNFEOm4hucd7a/pRf1grEN9n8ucumtm2wbE3s/PUlQjZ3ObK3CdtrsQ87S
-----END CERTIFICATE-----
