Certificate:
    Data:
        Version: 3 (0x2)
        Serial Number:
            02:d0:49:f8:de:27:d5:4c:51:9a:dc:7a:a2:e9:0c:40
        Signature Algorithm: sha256WithRSAEncryption
        Issuer: CN=team269-net
        Validity
            Not Before: Sep 13 01:04:26 2021 GMT
            Not After : Aug 28 01:04:26 2024 GMT
        Subject: CN=team269-server
        Subject Public Key Info:
            Public Key Algorithm: rsaEncryption
                RSA Public-Key: (2048 bit)
                Modulus:
                    00:ad:43:55:8c:80:0d:56:51:30:98:96:ab:1d:d1:
                    84:cd:32:2f:e6:1e:57:04:54:42:a7:a2:95:aa:3b:
                    c2:81:bf:69:12:e3:d8:fd:89:59:a6:35:4a:a5:c5:
                    c5:c3:72:7a:1a:f1:c5:c9:20:3b:0d:0d:88:7c:52:
                    a0:c7:1b:8c:84:27:a5:1f:da:84:3d:58:66:2e:a8:
                    15:c9:50:46:15:54:5c:75:70:a1:56:8e:54:c8:1a:
                    ac:1f:65:72:0a:b3:65:11:4d:da:62:ef:1e:bb:28:
                    c6:84:36:8f:76:11:a1:4c:c2:3b:4f:08:45:84:d5:
                    e2:f8:50:cb:78:64:4d:20:51:ea:8c:22:ed:02:5b:
                    76:0d:72:7d:dd:9d:df:83:a3:28:e1:79:7b:39:87:
                    31:c8:13:30:b9:48:52:b3:d6:83:0a:55:a9:67:75:
                    c3:0b:28:d1:69:62:6a:b2:69:98:73:b1:0c:d6:58:
                    32:b4:12:4d:2a:9c:62:b1:e9:80:a2:bd:ee:2f:75:
                    99:f4:a7:d2:60:d5:78:0b:e5:58:dc:1a:64:de:0f:
                    04:30:ee:fb:49:54:8c:c4:07:f4:73:59:47:e0:38:
                    f6:54:f4:73:e4:16:54:93:73:33:f0:91:07:9f:40:
                    1a:7e:fe:3e:43:d0:5c:8b:89:54:6b:30:90:c7:1f:
                    dd:09
                Exponent: 65537 (0x10001)
        X509v3 extensions:
            X509v3 Basic Constraints: 
                CA:FALSE
            X509v3 Subject Key Identifier: 
                7D:08:8A:C1:2F:A5:D3:29:E0:29:A5:57:50:41:E3:28:0D:25:84:C9
            X509v3 Authority Key Identifier: 
                keyid:FE:11:93:DF:23:9D:50:72:04:EF:93:B0:94:61:49:00:C8:2E:8D:3E
                DirName:/CN=team269-net
                serial:0C:F6:76:29:28:F0:C4:2F:85:09:52:B9:61:D4:DF:87:01:7B:9A:05

            X509v3 Extended Key Usage: 
                TLS Web Server Authentication
            X509v3 Key Usage: 
                Digital Signature, Key Encipherment
            X509v3 Subject Alternative Name: 
                DNS:team269-server
    Signature Algorithm: sha256WithRSAEncryption
         53:2d:0a:67:38:a5:fd:8c:27:32:5c:51:7c:04:42:df:2c:6f:
         04:4f:ed:30:eb:7f:f2:60:d0:17:4f:3a:80:3d:b7:14:13:6c:
         e4:9c:3c:76:57:a4:94:92:77:2b:ff:1b:bb:34:dc:00:ee:53:
         b4:ad:59:af:5d:7e:fd:01:cf:96:b9:10:ca:4e:00:82:8b:9b:
         5b:ac:97:b9:bd:5c:c1:a8:b7:97:fe:cd:fa:e0:4e:da:a2:f7:
         92:97:8b:d6:9b:3e:e0:44:65:8f:fc:b4:32:6e:dd:43:ba:80:
         74:74:d1:0e:9c:5f:e1:a3:cc:8b:a2:35:5b:0d:16:0a:e1:15:
         4e:6e:dd:fd:1c:42:e4:3f:0c:cd:7d:91:bd:fc:eb:1b:38:a2:
         22:77:75:db:53:c0:c3:47:55:58:f1:32:a9:4c:1b:21:52:b5:
         ac:76:c1:59:fa:19:33:67:cb:34:09:d1:16:86:41:47:9c:ab:
         18:97:2b:f1:e1:5f:47:20:d4:4a:78:6a:8f:89:1e:1a:5c:54:
         8b:95:b6:48:33:32:48:03:f7:cf:14:31:a1:24:93:75:85:55:
         41:0e:bf:e3:80:96:62:16:74:ff:45:bf:e9:f6:da:40:1c:01:
         62:6a:03:d6:56:b3:8a:d3:f5:7e:8f:93:ec:83:13:19:83:9a:
         4a:33:c5:e5
-----BEGIN CERTIFICATE-----
MIIDdzCCAl+gAwIBAgIQAtBJ+N4n1UxRmtx6oukMQDANBgkqhkiG9w0BAQsFADAW
MRQwEgYDVQQDDAt0ZWFtMjY5LW5ldDAeFw0yMTA5MTMwMTA0MjZaFw0yNDA4Mjgw
MTA0MjZaMBkxFzAVBgNVBAMMDnRlYW0yNjktc2VydmVyMIIBIjANBgkqhkiG9w0B
AQEFAAOCAQ8AMIIBCgKCAQEArUNVjIANVlEwmJarHdGEzTIv5h5XBFRCp6KVqjvC
gb9pEuPY/YlZpjVKpcXFw3J6GvHFySA7DQ2IfFKgxxuMhCelH9qEPVhmLqgVyVBG
FVRcdXChVo5UyBqsH2VyCrNlEU3aYu8euyjGhDaPdhGhTMI7TwhFhNXi+FDLeGRN
IFHqjCLtAlt2DXJ93Z3fg6Mo4Xl7OYcxyBMwuUhSs9aDClWpZ3XDCyjRaWJqsmmY
c7EM1lgytBJNKpxisemAor3uL3WZ9KfSYNV4C+VY3Bpk3g8EMO77SVSMxAf0c1lH
4Dj2VPRz5BZUk3Mz8JEHn0Aafv4+Q9Bci4lUazCQxx/dCQIDAQABo4G9MIG6MAkG
A1UdEwQCMAAwHQYDVR0OBBYEFH0IisEvpdMp4CmlV1BB4ygNJYTJMFEGA1UdIwRK
MEiAFP4Rk98jnVByBO+TsJRhSQDILo0+oRqkGDAWMRQwEgYDVQQDDAt0ZWFtMjY5
LW5ldIIUDPZ2KSjwxC+FCVK5YdTfhwF7mgUwEwYDVR0lBAwwCgYIKwYBBQUHAwEw
CwYDVR0PBAQDAgWgMBkGA1UdEQQSMBCCDnRlYW0yNjktc2VydmVyMA0GCSqGSIb3
DQEBCwUAA4IBAQBTLQpnOKX9jCcyXFF8BELfLG8ET+0w63/yYNAXTzqAPbcUE2zk
nDx2V6SUkncr/xu7NNwA7lO0rVmvXX79Ac+WuRDKTgCCi5tbrJe5vVzBqLeX/s36
4E7aoveSl4vWmz7gRGWP/LQybt1DuoB0dNEOnF/ho8yLojVbDRYK4RVObt39HELk
PwzNfZG9/OsbOKIid3XbU8DDR1VY8TKpTBshUrWsdsFZ+hkzZ8s0CdEWhkFHnKsY
lyvx4V9HINRKeGqPiR4aXFSLlbZIMzJIA/fPFDGhJJN1hVVBDr/jgJZiFnT/Rb/p
9tpAHAFiagPWVrOK0/V+j5PsgxMZg5pKM8Xl
-----END CERTIFICATE-----
