Certificate:
    Data:
        Version: 3 (0x2)
        Serial Number:
            6e:ab:bb:aa:76:70:55:dd:f0:c6:f3:13:32:49:02:7e
        Signature Algorithm: sha256WithRSAEncryption
        Issuer: CN=team281-net
        Validity
            Not Before: Sep 13 01:13:47 2021 GMT
            Not After : Aug 28 01:13:47 2024 GMT
        Subject: CN=team281-server
        Subject Public Key Info:
            Public Key Algorithm: rsaEncryption
                RSA Public-Key: (2048 bit)
                Modulus:
                    00:e2:76:0c:43:4c:4a:f4:02:e5:2e:e0:18:d9:36:
                    52:68:f7:1e:89:40:6d:11:eb:94:6b:43:bd:6a:1b:
                    52:d1:82:68:c5:b1:94:e6:c1:a3:47:33:f6:e9:4c:
                    33:f3:ea:a2:34:56:83:a1:ea:6a:7f:90:bf:2f:e9:
                    65:43:da:0c:19:15:a5:d5:bf:4e:30:48:e8:37:73:
                    54:06:60:e7:ec:20:4e:96:44:ef:17:41:ab:28:a6:
                    c3:b4:51:ab:81:de:64:72:94:88:61:09:7e:2a:85:
                    b0:6a:12:3e:df:fa:4b:74:bd:0a:43:f5:71:d0:9f:
                    7f:e2:19:25:1b:8c:24:f4:21:9a:05:cd:5d:29:42:
                    c3:10:16:80:b1:4b:c1:17:5b:e3:11:84:2a:8a:13:
                    db:18:46:93:86:28:60:fa:b6:b3:35:22:ad:e5:b0:
                    36:ea:c4:e0:ac:e0:42:85:6f:97:40:03:94:0f:6d:
                    25:5b:0b:e3:cd:51:66:b2:22:66:bb:75:31:09:01:
                    37:88:70:2d:f7:a9:37:61:25:c6:02:bb:2e:9e:12:
                    2b:f6:78:7e:43:1b:6e:53:bd:b9:95:b5:46:f2:3b:
                    52:f0:fb:f9:cb:40:c9:84:e3:ec:59:a8:12:3a:4a:
                    5f:68:5a:ae:91:29:4e:f8:f6:fe:99:84:7b:3d:9e:
                    07:cf
                Exponent: 65537 (0x10001)
        X509v3 extensions:
            X509v3 Basic Constraints: 
                CA:FALSE
            X509v3 Subject Key Identifier: 
                79:0D:DB:88:48:17:34:22:C1:77:CD:06:0E:2B:32:E3:A2:44:65:E7
            X509v3 Authority Key Identifier: 
                keyid:57:71:77:43:B3:5A:7C:9D:BD:65:9A:DB:FD:4E:48:26:A0:A8:A0:EE
                DirName:/CN=team281-net
                serial:55:26:98:A8:F0:A0:86:C1:50:C3:95:65:BB:1E:D4:BE:B1:C1:6C:30

            X509v3 Extended Key Usage: 
                TLS Web Server Authentication
            X509v3 Key Usage: 
                Digital Signature, Key Encipherment
            X509v3 Subject Alternative Name: 
                DNS:team281-server
    Signature Algorithm: sha256WithRSAEncryption
         15:5d:6b:6b:49:af:74:9c:e3:28:c9:70:c9:f2:2d:66:58:db:
         f3:54:d1:e8:88:14:a2:55:77:6e:aa:26:f1:f9:2c:d1:67:ce:
         ad:dd:60:69:ee:ba:5a:a6:88:7d:50:26:20:82:f6:03:de:71:
         05:d7:e0:46:04:ab:d6:be:76:07:5e:ac:71:c6:f5:0a:d8:9c:
         32:cd:15:0f:b7:a9:44:99:68:58:42:19:76:c3:91:cd:4c:57:
         72:c5:6a:a8:31:27:a9:f8:0d:74:ad:6b:07:4a:c4:01:47:8e:
         99:f9:57:ca:3e:46:02:ec:4e:35:37:50:ee:43:05:f4:f6:31:
         1b:6e:b3:7e:53:6e:40:75:b4:e2:33:35:f0:cd:8d:a2:8c:8f:
         c0:24:fd:15:5f:a3:e2:66:ce:fd:bb:e8:69:cd:fb:4e:56:fa:
         13:39:26:00:d6:ce:79:78:56:42:bd:e1:ea:29:a5:a1:d2:3f:
         a4:cd:02:ae:f6:d1:7e:be:44:64:7c:49:c4:76:1e:bc:4e:ac:
         b2:db:39:7c:84:d0:b7:67:42:46:c5:d7:3c:d3:67:24:65:18:
         c5:6c:c9:b4:32:f3:1c:5e:f1:8b:97:ac:87:2f:d1:ac:58:5e:
         39:24:39:09:d6:3a:f4:c5:f2:fa:51:8a:0a:51:59:cb:ba:81:
         60:1e:f5:43
-----BEGIN CERTIFICATE-----
MIIDdzCCAl+gAwIBAgIQbqu7qnZwVd3wxvMTMkkCfjANBgkqhkiG9w0BAQsFADAW
MRQwEgYDVQQDDAt0ZWFtMjgxLW5ldDAeFw0yMTA5MTMwMTEzNDdaFw0yNDA4Mjgw
MTEzNDdaMBkxFzAVBgNVBAMMDnRlYW0yODEtc2VydmVyMIIBIjANBgkqhkiG9w0B
AQEFAAOCAQ8AMIIBCgKCAQEA4nYMQ0xK9ALlLuAY2TZSaPceiUBtEeuUa0O9ahtS
0YJoxbGU5sGjRzP26Uwz8+qiNFaDoepqf5C/L+llQ9oMGRWl1b9OMEjoN3NUBmDn
7CBOlkTvF0GrKKbDtFGrgd5kcpSIYQl+KoWwahI+3/pLdL0KQ/Vx0J9/4hklG4wk
9CGaBc1dKULDEBaAsUvBF1vjEYQqihPbGEaThihg+razNSKt5bA26sTgrOBChW+X
QAOUD20lWwvjzVFmsiJmu3UxCQE3iHAt96k3YSXGArsunhIr9nh+QxtuU725lbVG
8jtS8Pv5y0DJhOPsWagSOkpfaFqukSlO+Pb+mYR7PZ4HzwIDAQABo4G9MIG6MAkG
A1UdEwQCMAAwHQYDVR0OBBYEFHkN24hIFzQiwXfNBg4rMuOiRGXnMFEGA1UdIwRK
MEiAFFdxd0OzWnydvWWa2/1OSCagqKDuoRqkGDAWMRQwEgYDVQQDDAt0ZWFtMjgx
LW5ldIIUVSaYqPCghsFQw5Vlux7UvrHBbDAwEwYDVR0lBAwwCgYIKwYBBQUHAwEw
CwYDVR0PBAQDAgWgMBkGA1UdEQQSMBCCDnRlYW0yODEtc2VydmVyMA0GCSqGSIb3
DQEBCwUAA4IBAQAVXWtrSa90nOMoyXDJ8i1mWNvzVNHoiBSiVXduqibx+SzRZ86t
3WBp7rpapoh9UCYggvYD3nEF1+BGBKvWvnYHXqxxxvUK2JwyzRUPt6lEmWhYQhl2
w5HNTFdyxWqoMSep+A10rWsHSsQBR46Z+VfKPkYC7E41N1DuQwX09jEbbrN+U25A
dbTiMzXwzY2ijI/AJP0VX6PiZs79u+hpzftOVvoTOSYA1s55eFZCveHqKaWh0j+k
zQKu9tF+vkRkfEnEdh68Tqyy2zl8hNC3Z0JGxdc802ckZRjFbMm0MvMcXvGLl6yH
L9GsWF45JDkJ1jr0xfL6UYoKUVnLuoFgHvVD
-----END CERTIFICATE-----
