Certificate:
    Data:
        Version: 3 (0x2)
        Serial Number:
            d8:b8:64:aa:a4:f9:30:88:2d:7a:27:e8:5b:fa:f4:90
        Signature Algorithm: sha256WithRSAEncryption
        Issuer: CN=team23-net
        Validity
            Not Before: Sep 12 22:52:41 2021 GMT
            Not After : Aug 27 22:52:41 2024 GMT
        Subject: CN=team23-server
        Subject Public Key Info:
            Public Key Algorithm: rsaEncryption
                RSA Public-Key: (2048 bit)
                Modulus:
                    00:a5:94:57:42:ad:8b:69:ff:f3:16:f0:78:35:e7:
                    66:27:43:d1:6c:5b:31:51:8e:a7:c2:d9:f8:aa:46:
                    32:ee:17:dc:4d:b9:29:ad:5d:6d:83:21:ea:20:3e:
                    32:db:66:d5:47:d2:20:d8:b3:d4:3a:73:ca:9c:81:
                    7d:83:cb:68:d5:90:9c:19:e3:ab:4f:f1:62:32:48:
                    da:88:95:ff:50:00:49:d5:58:c3:60:e3:21:f6:3c:
                    8c:11:5e:a2:ce:f7:44:55:81:b6:9a:1b:93:c8:6f:
                    af:38:c1:fd:2d:39:43:2a:97:16:66:6f:67:08:1d:
                    63:8c:15:f9:fb:2a:93:1f:b7:7c:62:d9:de:00:99:
                    cd:51:b2:65:5b:ed:c6:4e:24:67:82:10:fe:e3:a6:
                    2c:a5:38:57:d7:9d:b3:bd:3c:a8:a0:4e:14:1d:76:
                    3f:33:0b:60:72:eb:a2:5f:8a:a3:29:d7:66:40:b6:
                    4b:5e:a6:25:bc:0b:16:62:dc:0e:20:cf:41:7b:71:
                    8d:5b:5f:e0:19:9b:35:85:52:ea:35:f0:b7:79:e7:
                    5c:10:ed:6f:c0:b3:2c:e9:6b:e9:00:8d:21:6d:09:
                    e9:ea:59:0d:50:59:ab:17:8c:72:15:b4:9f:8e:61:
                    37:89:f4:e5:0c:5d:03:f3:5b:77:fe:ed:29:c1:1e:
                    7c:09
                Exponent: 65537 (0x10001)
        X509v3 extensions:
            X509v3 Basic Constraints: 
                CA:FALSE
            X509v3 Subject Key Identifier: 
                2D:40:48:12:AA:26:73:1D:82:C5:1E:8F:C5:8C:AF:C5:C5:C6:D2:9C
            X509v3 Authority Key Identifier: 
                keyid:9C:BB:61:20:A7:9F:CD:69:5A:27:B7:5A:C9:1C:BE:56:F8:84:90:3C
                DirName:/CN=team23-net
                serial:08:BC:54:AF:11:CD:35:1B:09:47:D4:0B:6E:E0:60:72:61:25:AC:C4

            X509v3 Extended Key Usage: 
                TLS Web Server Authentication
            X509v3 Key Usage: 
                Digital Signature, Key Encipherment
            X509v3 Subject Alternative Name: 
                DNS:team23-server
    Signature Algorithm: sha256WithRSAEncryption
         54:b0:19:63:14:78:9a:ce:f5:45:69:fc:88:4b:dd:13:7a:ff:
         f0:40:3b:ed:62:ac:20:b0:13:ce:dd:36:fb:95:4d:1f:a5:5b:
         fc:37:2d:48:62:e0:6f:a1:0a:78:20:59:a5:4c:e5:cf:11:2f:
         c9:4c:52:38:dc:3e:5e:c6:db:8d:90:dd:77:03:11:67:7a:33:
         42:8f:0b:79:89:57:d9:c2:bf:24:e9:6c:ff:5f:44:2d:b2:b9:
         19:e5:76:4c:e1:b6:d7:37:b7:9f:52:ed:d3:47:90:b0:f3:6f:
         5d:4c:83:73:bd:d9:73:84:82:14:45:fc:2a:52:ac:26:7e:a4:
         40:7d:16:d2:7d:0f:41:be:74:a3:07:e5:fb:1a:15:8f:91:04:
         f0:cc:04:4f:2c:c2:f8:40:ae:09:77:e7:7e:f6:ab:9e:da:4f:
         c7:02:b0:fc:54:ce:4e:b6:d8:c8:37:ab:e2:3e:82:72:f4:32:
         17:14:03:54:73:e2:b6:51:ad:71:93:1c:d9:38:24:ff:12:46:
         20:b3:5e:e0:85:a0:ee:02:79:ba:c2:e9:73:96:80:1b:a8:d7:
         1d:f6:86:0d:a4:41:70:00:96:9b:ae:01:dd:20:f1:9a:c8:4d:
         b1:3e:bf:7b:5a:79:03:e7:a4:a5:c9:d8:69:b8:77:7e:b8:a2:
         44:9f:e8:62
-----BEGIN CERTIFICATE-----
MIIDdDCCAlygAwIBAgIRANi4ZKqk+TCILXon6Fv69JAwDQYJKoZIhvcNAQELBQAw
FTETMBEGA1UEAwwKdGVhbTIzLW5ldDAeFw0yMTA5MTIyMjUyNDFaFw0yNDA4Mjcy
MjUyNDFaMBgxFjAUBgNVBAMMDXRlYW0yMy1zZXJ2ZXIwggEiMA0GCSqGSIb3DQEB
AQUAA4IBDwAwggEKAoIBAQCllFdCrYtp//MW8Hg152YnQ9FsWzFRjqfC2fiqRjLu
F9xNuSmtXW2DIeogPjLbZtVH0iDYs9Q6c8qcgX2Dy2jVkJwZ46tP8WIySNqIlf9Q
AEnVWMNg4yH2PIwRXqLO90RVgbaaG5PIb684wf0tOUMqlxZmb2cIHWOMFfn7KpMf
t3xi2d4Amc1RsmVb7cZOJGeCEP7jpiylOFfXnbO9PKigThQddj8zC2By66JfiqMp
12ZAtktepiW8CxZi3A4gz0F7cY1bX+AZmzWFUuo18Ld551wQ7W/Asyzpa+kAjSFt
CenqWQ1QWasXjHIVtJ+OYTeJ9OUMXQPzW3f+7SnBHnwJAgMBAAGjgbswgbgwCQYD
VR0TBAIwADAdBgNVHQ4EFgQULUBIEqomcx2CxR6PxYyvxcXG0pwwUAYDVR0jBEkw
R4AUnLthIKefzWlaJ7dayRy+VviEkDyhGaQXMBUxEzARBgNVBAMMCnRlYW0yMy1u
ZXSCFAi8VK8RzTUbCUfUC27gYHJhJazEMBMGA1UdJQQMMAoGCCsGAQUFBwMBMAsG
A1UdDwQEAwIFoDAYBgNVHREEETAPgg10ZWFtMjMtc2VydmVyMA0GCSqGSIb3DQEB
CwUAA4IBAQBUsBljFHiazvVFafyIS90Tev/wQDvtYqwgsBPO3Tb7lU0fpVv8Ny1I
YuBvoQp4IFmlTOXPES/JTFI43D5extuNkN13AxFnejNCjwt5iVfZwr8k6Wz/X0Qt
srkZ5XZM4bbXN7efUu3TR5Cw829dTINzvdlzhIIURfwqUqwmfqRAfRbSfQ9BvnSj
B+X7GhWPkQTwzARPLML4QK4Jd+d+9que2k/HArD8VM5OttjIN6viPoJy9DIXFANU
c+K2Ua1xkxzZOCT/EkYgs17ghaDuAnm6wulzloAbqNcd9oYNpEFwAJabrgHdIPGa
yE2xPr97WnkD56SlydhpuHd+uKJEn+hi
-----END CERTIFICATE-----
