Certificate:
    Data:
        Version: 3 (0x2)
        Serial Number:
            ef:cc:64:42:8e:fe:5d:bc:09:98:f7:d4:6e:b6:05:d0
        Signature Algorithm: sha256WithRSAEncryption
        Issuer: CN=team23-net
        Validity
            Not Before: Sep 12 22:52:41 2021 GMT
            Not After : Aug 27 22:52:41 2024 GMT
        Subject: CN=team23-client
        Subject Public Key Info:
            Public Key Algorithm: rsaEncryption
                RSA Public-Key: (2048 bit)
                Modulus:
                    00:d1:49:fc:da:b0:b4:04:20:a4:b4:28:29:b2:7b:
                    e0:1f:cc:99:12:f2:60:95:b0:12:e7:13:25:ae:34:
                    22:eb:8c:09:96:60:e9:da:4d:71:71:80:af:aa:a5:
                    ec:50:fe:e9:c8:8c:c3:1b:1b:d4:19:0c:c1:66:5c:
                    42:80:49:e0:9a:5c:24:d8:76:78:ca:9d:18:08:fd:
                    37:63:02:26:a8:66:d3:70:44:e8:be:b2:a2:a1:fb:
                    3b:a0:e6:7e:cb:b8:89:de:71:77:bf:14:e9:ec:6b:
                    f4:c2:d9:6a:e9:79:43:5c:27:2b:4e:77:03:7c:97:
                    ec:7d:15:bd:b6:ff:f9:be:67:f8:d6:b5:7c:b3:7d:
                    d9:f8:da:8f:aa:51:49:ca:d1:50:6c:89:8b:78:31:
                    46:20:f4:52:8d:a4:c1:67:44:7c:e7:69:52:2f:4c:
                    48:b1:c7:79:10:da:9b:85:5e:89:29:5f:15:91:b3:
                    3b:df:c0:e6:0c:ea:cc:ab:1e:fa:ac:3d:d0:91:5c:
                    ec:b0:e2:77:dc:03:99:c7:9f:e2:04:2f:2f:2d:7c:
                    82:b1:d4:e0:9e:c8:6e:85:61:3f:b2:8f:8e:e6:8f:
                    60:1f:ce:6e:0d:93:90:53:d1:64:93:a9:e7:89:ba:
                    8e:da:18:b5:ea:cf:3e:a0:d6:6e:89:62:8a:9d:57:
                    34:35
                Exponent: 65537 (0x10001)
        X509v3 extensions:
            X509v3 Basic Constraints: 
                CA:FALSE
            X509v3 Subject Key Identifier: 
                3A:80:21:2E:42:D8:9E:0C:B2:FA:F6:02:EA:C9:6B:14:50:0F:34:6B
            X509v3 Authority Key Identifier: 
                keyid:9C:BB:61:20:A7:9F:CD:69:5A:27:B7:5A:C9:1C:BE:56:F8:84:90:3C
                DirName:/CN=team23-net
                serial:08:BC:54:AF:11:CD:35:1B:09:47:D4:0B:6E:E0:60:72:61:25:AC:C4

            X509v3 Extended Key Usage: 
                TLS Web Client Authentication
            X509v3 Key Usage: 
                Digital Signature
    Signature Algorithm: sha256WithRSAEncryption
         64:2c:cf:0f:2a:c0:e3:af:c7:50:4d:1e:a9:b0:1e:09:a3:ce:
         af:fd:17:8d:e5:e7:d9:35:41:30:94:48:c9:bf:9a:e6:66:c8:
         78:81:ad:7d:51:a7:51:99:82:23:ef:bb:93:10:11:d1:bc:4f:
         64:c2:44:02:9d:b8:69:b4:1c:e3:a2:e1:3c:23:fd:f5:6a:9b:
         f4:44:53:63:04:45:93:2a:65:0d:20:ca:b7:1a:db:6d:52:22:
         18:dd:3d:ad:ad:43:81:29:fa:c8:cd:9b:b2:dd:12:ea:d5:c3:
         46:a1:5d:74:4e:73:64:d7:29:93:c1:c4:87:d2:b7:c5:77:59:
         ac:1b:bd:ff:5b:4b:46:4e:6c:d8:04:f6:37:f7:1f:c5:f6:9e:
         6d:fc:bc:35:89:68:13:a3:eb:e9:68:64:14:e0:7f:99:b0:b1:
         c7:8a:e5:91:09:ba:5a:69:47:8b:50:01:a7:b8:1a:a6:2a:f2:
         79:3b:a4:f0:76:c9:41:3a:2c:52:d0:05:3f:09:31:38:ff:ab:
         76:a2:49:c9:11:ca:28:b2:7b:6b:2f:69:2d:d3:65:b9:a4:36:
         b2:f4:92:07:2d:c5:11:05:24:10:ff:37:25:4e:82:2f:78:df:
         5e:1a:26:c8:f9:f0:ef:fe:eb:11:8f:8a:ab:87:cd:ae:30:0f:
         a3:6e:5f:80
-----BEGIN CERTIFICATE-----
MIIDWjCCAkKgAwIBAgIRAO/MZEKO/l28CZj31G62BdAwDQYJKoZIhvcNAQELBQAw
FTETMBEGA1UEAwwKdGVhbTIzLW5ldDAeFw0yMTA5MTIyMjUyNDFaFw0yNDA4Mjcy
MjUyNDFaMBgxFjAUBgNVBAMMDXRlYW0yMy1jbGllbnQwggEiMA0GCSqGSIb3DQEB
AQUAA4IBDwAwggEKAoIBAQDRSfzasLQEIKS0KCmye+AfzJkS8mCVsBLnEyWuNCLr
jAmWYOnaTXFxgK+qpexQ/unIjMMbG9QZDMFmXEKASeCaXCTYdnjKnRgI/TdjAiao
ZtNwROi+sqKh+zug5n7LuInecXe/FOnsa/TC2WrpeUNcJytOdwN8l+x9Fb22//m+
Z/jWtXyzfdn42o+qUUnK0VBsiYt4MUYg9FKNpMFnRHznaVIvTEixx3kQ2puFXokp
XxWRszvfwOYM6syrHvqsPdCRXOyw4nfcA5nHn+IELy8tfIKx1OCeyG6FYT+yj47m
j2Afzm4Nk5BT0WSTqeeJuo7aGLXqzz6g1m6JYoqdVzQ1AgMBAAGjgaEwgZ4wCQYD
VR0TBAIwADAdBgNVHQ4EFgQUOoAhLkLYngyy+vYC6slrFFAPNGswUAYDVR0jBEkw
R4AUnLthIKefzWlaJ7dayRy+VviEkDyhGaQXMBUxEzARBgNVBAMMCnRlYW0yMy1u
ZXSCFAi8VK8RzTUbCUfUC27gYHJhJazEMBMGA1UdJQQMMAoGCCsGAQUFBwMCMAsG
A1UdDwQEAwIHgDANBgkqhkiG9w0BAQsFAAOCAQEAZCzPDyrA46/HUE0eqbAeCaPO
r/0XjeXn2TVBMJRIyb+a5mbIeIGtfVGnUZmCI++7kxAR0bxPZMJEAp24abQc46Lh
PCP99Wqb9ERTYwRFkyplDSDKtxrbbVIiGN09ra1DgSn6yM2bst0S6tXDRqFddE5z
ZNcpk8HEh9K3xXdZrBu9/1tLRk5s2AT2N/cfxfaebfy8NYloE6Pr6WhkFOB/mbCx
x4rlkQm6WmlHi1ABp7gapiryeTuk8HbJQTosUtAFPwkxOP+rdqJJyRHKKLJ7ay9p
LdNluaQ2svSSBy3FEQUkEP83JU6CL3jfXhomyPnw7/7rEY+Kq4fNrjAPo25fgA==
-----END CERTIFICATE-----
