Certificate:
    Data:
        Version: 3 (0x2)
        Serial Number:
            7b:38:1c:9b:4f:34:99:53:7c:ae:27:bf:8b:10:87:92
        Signature Algorithm: sha256WithRSAEncryption
        Issuer: CN=team355-net
        Validity
            Not Before: Sep 13 02:00:00 2021 GMT
            Not After : Aug 28 02:00:00 2024 GMT
        Subject: CN=team355-server
        Subject Public Key Info:
            Public Key Algorithm: rsaEncryption
                RSA Public-Key: (2048 bit)
                Modulus:
                    00:ce:b8:ef:e7:85:ef:9b:74:39:27:a3:38:7d:a2:
                    4f:f8:5a:12:08:70:6e:c6:e8:01:d0:35:f4:4f:86:
                    20:27:b9:92:14:05:24:17:b6:18:17:53:57:8c:ac:
                    98:b4:76:11:22:3c:ec:e3:c1:49:32:8d:3e:e8:53:
                    a5:d3:5f:5d:88:68:22:12:8b:69:a9:6f:96:5d:f8:
                    42:6d:28:0c:e8:3e:46:58:7e:5f:c0:ae:67:35:40:
                    05:d0:15:27:99:81:7e:ea:c7:d6:84:64:60:55:ed:
                    81:6e:6d:12:64:3a:75:96:b0:d6:8c:9a:92:a4:46:
                    1e:d1:71:ee:01:99:ea:f7:12:b4:8c:62:39:b1:f4:
                    1f:4d:a9:c7:04:a7:87:71:9f:7d:f0:56:63:91:16:
                    42:7e:4a:e9:b1:5c:82:1a:11:c2:e1:f1:90:79:64:
                    8c:35:ef:4e:be:c7:44:31:f2:15:09:ee:04:22:88:
                    ff:5f:11:55:03:2f:7f:bb:84:ed:ef:6f:3d:89:d2:
                    b1:34:46:d6:5e:fd:cd:73:6e:45:85:63:43:3c:e8:
                    63:26:13:0b:ce:c8:9c:cc:8a:0e:c4:4c:e7:5b:50:
                    82:d5:a5:b8:de:7e:95:0b:7b:69:e1:2a:78:9b:5f:
                    ba:60:2e:a2:5d:35:01:38:00:b8:ed:7c:3c:6a:7a:
                    be:59
                Exponent: 65537 (0x10001)
        X509v3 extensions:
            X509v3 Basic Constraints: 
                CA:FALSE
            X509v3 Subject Key Identifier: 
                A7:91:39:09:3B:F3:F7:62:E9:5D:CB:97:D5:B1:E5:F7:8E:56:DD:79
            X509v3 Authority Key Identifier: 
                keyid:4E:43:EB:D8:A8:74:DE:13:03:3B:D5:CD:D4:D6:55:7D:85:FA:40:C2
                DirName:/CN=team355-net
                serial:66:15:D9:FE:04:79:1B:33:F7:0F:05:D2:0E:04:E5:AD:59:BE:52:37

            X509v3 Extended Key Usage: 
                TLS Web Server Authentication
            X509v3 Key Usage: 
                Digital Signature, Key Encipherment
            X509v3 Subject Alternative Name: 
                DNS:team355-server
    Signature Algorithm: sha256WithRSAEncryption
         75:f2:a0:ce:ff:80:c8:4d:d4:36:7c:b5:93:a2:33:25:73:ac:
         df:3a:89:4d:91:7e:d0:d2:84:20:c4:22:ff:29:16:a3:3f:76:
         53:50:68:6b:19:2c:96:e1:e5:7a:f0:98:a7:28:a5:b8:2f:92:
         59:41:76:13:c5:a3:ba:6f:f6:13:38:ac:e5:53:72:93:c2:db:
         07:02:cf:93:43:2d:94:aa:23:f6:ed:a3:08:66:c3:11:77:0e:
         8a:8e:61:6f:17:ea:55:71:0e:e1:bd:d2:49:61:a6:a0:4c:82:
         8e:11:6e:9b:8d:1d:2b:65:a6:2a:df:f6:2e:61:38:a8:22:40:
         46:8e:41:9a:a8:35:62:22:47:c6:c7:57:3c:4d:8a:82:10:71:
         fe:b8:f3:57:6a:91:01:75:09:8d:dd:d9:9e:37:51:c2:bf:7d:
         08:32:60:c8:a1:aa:7d:25:c7:00:57:1b:6e:ed:ec:e2:f4:cd:
         a9:28:8d:cd:71:af:43:f3:c4:7d:b3:c9:f0:7c:30:17:1e:58:
         d7:ee:98:b4:dd:f9:bc:18:90:f8:81:f9:d7:a5:63:74:5b:4e:
         20:ab:68:05:68:72:5f:7d:29:06:1e:81:93:d1:5b:84:56:b8:
         1d:2f:9e:12:de:90:5d:09:41:25:66:b8:66:3f:c3:f6:89:a2:
         b9:9a:56:41
-----BEGIN CERTIFICATE-----
MIIDdzCCAl+gAwIBAgIQezgcm080mVN8rie/ixCHkjANBgkqhkiG9w0BAQsFADAW
MRQwEgYDVQQDDAt0ZWFtMzU1LW5ldDAeFw0yMTA5MTMwMjAwMDBaFw0yNDA4Mjgw
MjAwMDBaMBkxFzAVBgNVBAMMDnRlYW0zNTUtc2VydmVyMIIBIjANBgkqhkiG9w0B
AQEFAAOCAQ8AMIIBCgKCAQEAzrjv54Xvm3Q5J6M4faJP+FoSCHBuxugB0DX0T4Yg
J7mSFAUkF7YYF1NXjKyYtHYRIjzs48FJMo0+6FOl019diGgiEotpqW+WXfhCbSgM
6D5GWH5fwK5nNUAF0BUnmYF+6sfWhGRgVe2Bbm0SZDp1lrDWjJqSpEYe0XHuAZnq
9xK0jGI5sfQfTanHBKeHcZ998FZjkRZCfkrpsVyCGhHC4fGQeWSMNe9OvsdEMfIV
Ce4EIoj/XxFVAy9/u4Tt7289idKxNEbWXv3Nc25FhWNDPOhjJhMLzsiczIoOxEzn
W1CC1aW43n6VC3tp4Sp4m1+6YC6iXTUBOAC47Xw8anq+WQIDAQABo4G9MIG6MAkG
A1UdEwQCMAAwHQYDVR0OBBYEFKeROQk78/di6V3Ll9Wx5feOVt15MFEGA1UdIwRK
MEiAFE5D69iodN4TAzvVzdTWVX2F+kDCoRqkGDAWMRQwEgYDVQQDDAt0ZWFtMzU1
LW5ldIIUZhXZ/gR5GzP3DwXSDgTlrVm+UjcwEwYDVR0lBAwwCgYIKwYBBQUHAwEw
CwYDVR0PBAQDAgWgMBkGA1UdEQQSMBCCDnRlYW0zNTUtc2VydmVyMA0GCSqGSIb3
DQEBCwUAA4IBAQB18qDO/4DITdQ2fLWTojMlc6zfOolNkX7Q0oQgxCL/KRajP3ZT
UGhrGSyW4eV68JinKKW4L5JZQXYTxaO6b/YTOKzlU3KTwtsHAs+TQy2UqiP27aMI
ZsMRdw6KjmFvF+pVcQ7hvdJJYaagTIKOEW6bjR0rZaYq3/YuYTioIkBGjkGaqDVi
IkfGx1c8TYqCEHH+uPNXapEBdQmN3dmeN1HCv30IMmDIoap9JccAVxtu7ezi9M2p
KI3Nca9D88R9s8nwfDAXHljX7pi03fm8GJD4gfnXpWN0W04gq2gFaHJffSkGHoGT
0VuEVrgdL54S3pBdCUElZrhmP8P2iaK5mlZB
-----END CERTIFICATE-----
