Certificate:
    Data:
        Version: 3 (0x2)
        Serial Number:
            a2:33:7b:19:25:34:d8:32:60:8f:46:68:fb:27:3b:cc
        Signature Algorithm: sha256WithRSAEncryption
        Issuer: CN=team96-net
        Validity
            Not Before: Sep 12 23:33:34 2021 GMT
            Not After : Aug 27 23:33:34 2024 GMT
        Subject: CN=team96-server
        Subject Public Key Info:
            Public Key Algorithm: rsaEncryption
                RSA Public-Key: (2048 bit)
                Modulus:
                    00:cb:64:89:50:da:cc:d9:5b:3f:67:00:8e:c6:32:
                    0a:89:a9:50:ba:53:fd:81:68:78:19:cb:bf:65:68:
                    7e:e6:37:f9:cd:82:c8:2c:17:a5:87:9a:5f:8d:80:
                    8c:1a:bf:b9:fd:62:74:4f:46:a6:1d:21:35:65:83:
                    75:9c:77:5f:b4:6a:87:9d:9a:1d:f7:a9:61:e9:da:
                    1d:4e:54:7b:ae:90:d9:68:c6:46:25:74:5d:94:82:
                    b3:77:2e:42:31:65:03:0b:38:63:d7:b8:51:7f:10:
                    67:78:b3:b6:d9:a4:5f:b3:69:47:a2:32:3c:94:8d:
                    3b:32:41:9e:c2:81:83:2d:57:f0:9e:47:b0:c8:c7:
                    c6:f8:ac:d1:10:44:2a:31:b2:1d:5e:e3:0c:d1:87:
                    f4:b3:98:76:30:10:15:e3:1c:56:8b:96:ea:e6:45:
                    91:bb:c5:45:df:97:67:87:3f:81:b1:1f:bb:9f:ec:
                    1d:07:be:f8:eb:f9:ce:98:37:20:21:cf:c5:99:6a:
                    cb:8d:16:fc:60:56:ef:27:0e:94:08:39:71:71:cb:
                    cb:41:21:d2:3a:4b:1b:22:2b:93:0d:91:de:fd:56:
                    03:c0:46:f7:a2:5f:cf:7b:2d:0d:fd:0d:5b:f0:59:
                    f7:c0:de:8d:31:88:4d:e7:39:80:e0:ab:0d:24:a6:
                    3d:cb
                Exponent: 65537 (0x10001)
        X509v3 extensions:
            X509v3 Basic Constraints: 
                CA:FALSE
            X509v3 Subject Key Identifier: 
                B0:E0:48:D7:B4:DB:C6:F0:E5:53:FF:55:84:1C:5F:19:69:AE:62:E3
            X509v3 Authority Key Identifier: 
                keyid:C0:93:05:EF:C4:A7:6E:6F:79:59:50:9D:73:E9:AD:D6:6B:58:64:72
                DirName:/CN=team96-net
                serial:01:46:15:DA:B0:AD:36:E8:1A:E7:EC:E8:5E:C3:01:2F:BC:E3:68:FA

            X509v3 Extended Key Usage: 
                TLS Web Server Authentication
            X509v3 Key Usage: 
                Digital Signature, Key Encipherment
            X509v3 Subject Alternative Name: 
                DNS:team96-server
    Signature Algorithm: sha256WithRSAEncryption
         ab:95:31:0d:ca:0f:08:f9:03:e4:0c:03:dd:0f:3b:4a:57:5a:
         01:64:98:0d:68:95:72:30:29:a0:d3:10:91:c8:a6:b2:a4:05:
         3d:00:05:fd:5a:c1:11:34:70:b6:0c:c2:93:22:20:b0:99:1e:
         d6:1c:d4:fd:ad:8e:16:84:77:57:18:b0:50:cb:06:c0:18:9f:
         8a:d9:ae:09:6a:51:bd:d4:31:73:86:a7:20:9d:5a:21:bd:00:
         2a:e6:b9:93:0c:eb:17:db:2c:81:2c:f7:d6:d9:8c:d7:d5:a5:
         81:d7:ae:c2:22:31:c4:0b:1d:cb:d3:8a:12:4c:93:70:d6:5e:
         c2:9c:42:74:eb:72:f6:f2:81:3b:f9:31:e6:6f:c3:21:64:5e:
         45:f1:e2:4b:63:6f:d3:72:a7:ec:3b:9e:b9:80:d0:b8:4d:9a:
         ca:14:b1:71:69:5d:f0:62:f3:14:ad:df:8a:0f:a4:f6:88:c4:
         b6:4d:30:80:72:fc:c9:84:9c:43:75:8b:b9:dc:c3:d0:89:5e:
         9a:7f:24:dd:6b:f6:cc:b4:a1:1d:09:4b:e7:82:cf:42:ea:78:
         2a:c7:59:3c:6b:92:d0:dc:06:27:7b:1f:b0:f6:06:96:fc:52:
         19:a8:0c:52:d3:98:b1:b1:87:68:7f:de:b6:c4:8a:ee:2c:42:
         6f:ee:74:72
-----BEGIN CERTIFICATE-----
MIIDdDCCAlygAwIBAgIRAKIzexklNNgyYI9GaPsnO8wwDQYJKoZIhvcNAQELBQAw
FTETMBEGA1UEAwwKdGVhbTk2LW5ldDAeFw0yMTA5MTIyMzMzMzRaFw0yNDA4Mjcy
MzMzMzRaMBgxFjAUBgNVBAMMDXRlYW05Ni1zZXJ2ZXIwggEiMA0GCSqGSIb3DQEB
AQUAA4IBDwAwggEKAoIBAQDLZIlQ2szZWz9nAI7GMgqJqVC6U/2BaHgZy79laH7m
N/nNgsgsF6WHml+NgIwav7n9YnRPRqYdITVlg3Wcd1+0aoedmh33qWHp2h1OVHuu
kNloxkYldF2UgrN3LkIxZQMLOGPXuFF/EGd4s7bZpF+zaUeiMjyUjTsyQZ7CgYMt
V/CeR7DIx8b4rNEQRCoxsh1e4wzRh/SzmHYwEBXjHFaLlurmRZG7xUXfl2eHP4Gx
H7uf7B0Hvvjr+c6YNyAhz8WZasuNFvxgVu8nDpQIOXFxy8tBIdI6SxsiK5MNkd79
VgPARveiX897LQ39DVvwWffA3o0xiE3nOYDgqw0kpj3LAgMBAAGjgbswgbgwCQYD
VR0TBAIwADAdBgNVHQ4EFgQUsOBI17TbxvDlU/9VhBxfGWmuYuMwUAYDVR0jBEkw
R4AUwJMF78Snbm95WVCdc+mt1mtYZHKhGaQXMBUxEzARBgNVBAMMCnRlYW05Ni1u
ZXSCFAFGFdqwrTboGufs6F7DAS+842j6MBMGA1UdJQQMMAoGCCsGAQUFBwMBMAsG
A1UdDwQEAwIFoDAYBgNVHREEETAPgg10ZWFtOTYtc2VydmVyMA0GCSqGSIb3DQEB
CwUAA4IBAQCrlTENyg8I+QPkDAPdDztKV1oBZJgNaJVyMCmg0xCRyKaypAU9AAX9
WsERNHC2DMKTIiCwmR7WHNT9rY4WhHdXGLBQywbAGJ+K2a4JalG91DFzhqcgnVoh
vQAq5rmTDOsX2yyBLPfW2YzX1aWB167CIjHECx3L04oSTJNw1l7CnEJ063L28oE7
+THmb8MhZF5F8eJLY2/TcqfsO565gNC4TZrKFLFxaV3wYvMUrd+KD6T2iMS2TTCA
cvzJhJxDdYu53MPQiV6afyTda/bMtKEdCUvngs9C6ngqx1k8a5LQ3AYnex+w9gaW
/FIZqAxS05ixsYdof962xIruLEJv7nRy
-----END CERTIFICATE-----
