Certificate:
    Data:
        Version: 3 (0x2)
        Serial Number:
            21:f1:86:1f:27:8c:ca:ba:fe:37:05:95:6d:9c:91:c8
        Signature Algorithm: sha256WithRSAEncryption
        Issuer: CN=team573-net
        Validity
            Not Before: Sep 13 04:01:01 2021 GMT
            Not After : Aug 28 04:01:01 2024 GMT
        Subject: CN=team573-client
        Subject Public Key Info:
            Public Key Algorithm: rsaEncryption
                RSA Public-Key: (2048 bit)
                Modulus:
                    00:ae:fd:41:3f:00:bc:cb:68:92:64:f2:e8:cf:2c:
                    6d:c2:56:46:52:cd:9f:d5:13:c2:3f:0d:e0:2d:d6:
                    40:c1:d1:73:57:d6:ad:fc:7d:61:73:e5:32:00:4b:
                    2c:e1:6a:c8:8b:3d:c8:6b:96:20:93:1c:d6:6d:25:
                    dd:da:5c:d0:f9:00:2e:98:f7:3d:61:a7:89:07:88:
                    b2:b0:cd:d9:49:d9:8e:2b:c1:e3:6b:82:22:e0:d8:
                    0e:70:d2:a7:b9:95:e3:d1:ef:26:d5:45:a8:44:36:
                    14:f1:3f:b3:63:9e:93:e7:4c:6d:c1:74:d9:9b:64:
                    f0:eb:16:0c:e3:e6:bd:62:75:96:cf:d2:f6:d6:f6:
                    d3:ee:5a:8e:44:09:8d:8a:81:a2:1b:3b:be:df:c8:
                    94:22:50:e2:de:de:ee:b8:9f:a8:0b:71:4f:c1:38:
                    a3:0d:b7:96:50:fc:9d:19:46:83:91:14:9a:57:54:
                    ef:2e:4f:13:69:ba:21:c6:f6:07:06:34:75:ee:44:
                    de:bb:83:2a:a9:89:d6:a4:45:03:ab:d5:b6:da:c9:
                    2e:b9:8c:32:1d:b2:e2:8a:bc:8d:c5:9d:ad:60:35:
                    54:15:9c:4d:cb:26:27:ec:7e:c2:f0:ee:f5:dc:ab:
                    ec:b6:98:3f:1a:0e:76:e4:28:22:ca:e9:37:5a:61:
                    34:93
                Exponent: 65537 (0x10001)
        X509v3 extensions:
            X509v3 Basic Constraints: 
                CA:FALSE
            X509v3 Subject Key Identifier: 
                82:4F:B4:38:C1:F1:C9:51:5B:44:2C:DC:F3:2A:7E:1A:5A:5E:BC:E9
            X509v3 Authority Key Identifier: 
                keyid:9E:0C:96:A0:E5:FA:96:F4:75:1D:C0:0D:54:48:EB:D4:4D:24:B2:46
                DirName:/CN=team573-net
                serial:72:A8:0E:E9:6A:6E:DE:F5:9A:61:88:98:1A:25:98:A2:82:7B:82:B4

            X509v3 Extended Key Usage: 
                TLS Web Client Authentication
            X509v3 Key Usage: 
                Digital Signature
    Signature Algorithm: sha256WithRSAEncryption
         44:04:ec:14:e8:81:a8:b3:17:b7:f2:22:9c:ab:27:f0:f1:32:
         41:db:44:13:c6:80:c7:23:b1:6b:fa:03:57:e9:b3:d4:e1:95:
         9f:7d:2e:c6:67:94:f5:49:07:df:8f:f5:a4:97:3b:0a:1c:ca:
         83:06:a6:24:0a:9c:4d:98:b4:4b:d5:c2:4a:82:1d:12:5c:ab:
         8d:82:f5:96:65:53:83:c2:3e:43:69:be:67:41:0c:e0:41:a0:
         ab:43:df:74:c2:e0:ab:8b:b3:7c:68:c5:24:ca:db:c0:3b:84:
         fa:74:31:a8:f5:d5:07:0b:c0:3c:97:39:8b:a6:09:7b:8f:df:
         60:b5:59:b7:00:d8:5a:9c:79:37:f1:7a:e1:30:8c:b1:66:96:
         87:8a:35:c6:91:5d:34:e2:0c:07:29:9d:7b:c1:a1:fb:ca:6a:
         56:5b:b7:f4:df:5f:76:0b:ae:f7:4c:ee:4e:f6:e1:25:ac:41:
         a9:59:48:f4:8f:d6:ec:b7:93:7a:6b:78:8e:51:ea:87:ea:69:
         09:42:ad:63:20:2d:d7:19:2b:d7:8b:94:c9:03:ea:95:85:57:
         ea:0c:08:ec:ca:d0:92:f3:88:de:ab:83:f5:ed:ff:27:62:6b:
         db:bd:a0:7a:87:40:96:74:0f:87:52:f6:5b:b7:d2:22:55:dd:
         c3:f0:f2:36
-----BEGIN CERTIFICATE-----
MIIDXDCCAkSgAwIBAgIQIfGGHyeMyrr+NwWVbZyRyDANBgkqhkiG9w0BAQsFADAW
MRQwEgYDVQQDDAt0ZWFtNTczLW5ldDAeFw0yMTA5MTMwNDAxMDFaFw0yNDA4Mjgw
NDAxMDFaMBkxFzAVBgNVBAMMDnRlYW01NzMtY2xpZW50MIIBIjANBgkqhkiG9w0B
AQEFAAOCAQ8AMIIBCgKCAQEArv1BPwC8y2iSZPLozyxtwlZGUs2f1RPCPw3gLdZA
wdFzV9at/H1hc+UyAEss4WrIiz3Ia5YgkxzWbSXd2lzQ+QAumPc9YaeJB4iysM3Z
SdmOK8Hja4Ii4NgOcNKnuZXj0e8m1UWoRDYU8T+zY56T50xtwXTZm2Tw6xYM4+a9
YnWWz9L21vbT7lqORAmNioGiGzu+38iUIlDi3t7uuJ+oC3FPwTijDbeWUPydGUaD
kRSaV1TvLk8TabohxvYHBjR17kTeu4MqqYnWpEUDq9W22skuuYwyHbLiiryNxZ2t
YDVUFZxNyyYn7H7C8O713Kvstpg/Gg525Cgiyuk3WmE0kwIDAQABo4GiMIGfMAkG
A1UdEwQCMAAwHQYDVR0OBBYEFIJPtDjB8clRW0Qs3PMqfhpaXrzpMFEGA1UdIwRK
MEiAFJ4MlqDl+pb0dR3ADVRI69RNJLJGoRqkGDAWMRQwEgYDVQQDDAt0ZWFtNTcz
LW5ldIIUcqgO6Wpu3vWaYYiYGiWYooJ7grQwEwYDVR0lBAwwCgYIKwYBBQUHAwIw
CwYDVR0PBAQDAgeAMA0GCSqGSIb3DQEBCwUAA4IBAQBEBOwU6IGosxe38iKcqyfw
8TJB20QTxoDHI7Fr+gNX6bPU4ZWffS7GZ5T1SQffj/WklzsKHMqDBqYkCpxNmLRL
1cJKgh0SXKuNgvWWZVODwj5Dab5nQQzgQaCrQ990wuCri7N8aMUkytvAO4T6dDGo
9dUHC8A8lzmLpgl7j99gtVm3ANhanHk38XrhMIyxZpaHijXGkV004gwHKZ17waH7
ympWW7f03192C673TO5O9uElrEGpWUj0j9bst5N6a3iOUeqH6mkJQq1jIC3XGSvX
i5TJA+qVhVfqDAjsytCS84jeq4P17f8nYmvbvaB6h0CWdA+HUvZbt9IiVd3D8PI2
-----END CERTIFICATE-----
