Certificate:
    Data:
        Version: 3 (0x2)
        Serial Number:
            5c:65:99:4a:94:8d:c8:30:e0:c3:99:17:e6:b2:36:db
        Signature Algorithm: sha256WithRSAEncryption
        Issuer: CN=team624-net
        Validity
            Not Before: Sep 13 04:11:09 2021 GMT
            Not After : Aug 28 04:11:09 2024 GMT
        Subject: CN=team624-client
        Subject Public Key Info:
            Public Key Algorithm: rsaEncryption
                RSA Public-Key: (2048 bit)
                Modulus:
                    00:c8:da:e3:ce:af:37:b5:84:0d:6e:6c:12:d4:ef:
                    02:9c:d0:cb:13:f4:ef:be:1d:bf:1b:1f:b7:ae:5f:
                    60:5b:f9:e8:45:43:16:15:ab:97:46:a0:22:cb:02:
                    29:2c:b7:3c:89:a4:8b:42:ab:26:7e:81:ab:ec:69:
                    f0:f9:c5:f4:26:b2:fe:1a:d3:52:9f:b8:3a:22:63:
                    dc:89:05:75:20:4c:00:dc:65:5d:c5:cf:8f:66:ef:
                    96:64:c2:0a:7d:47:0e:40:d9:16:97:a7:5d:51:9c:
                    32:34:0c:c5:bc:ed:0c:99:10:f8:74:de:a3:8a:4f:
                    4a:e1:46:ef:db:a4:27:74:ee:29:ca:90:3f:48:d8:
                    a9:b9:0a:2c:31:a7:09:65:20:5a:ff:8d:29:65:e0:
                    e1:82:df:b8:cd:0a:1f:a8:b9:3f:a8:09:3d:cf:6f:
                    0a:bc:ed:bd:98:95:1c:59:72:67:dc:15:d1:0b:bc:
                    7f:2a:67:4c:86:16:37:7c:25:2b:1c:b5:c1:63:b8:
                    3b:94:a1:75:b8:7e:af:c6:31:75:80:65:72:11:cd:
                    6a:7d:af:f0:c4:92:bd:26:dd:47:5c:39:12:21:c3:
                    e1:56:dc:20:f9:6e:a2:15:cf:bb:a2:f9:0a:37:0d:
                    58:10:4e:d1:53:76:a7:0c:bd:5b:97:92:96:75:ab:
                    d8:f7
                Exponent: 65537 (0x10001)
        X509v3 extensions:
            X509v3 Basic Constraints: 
                CA:FALSE
            X509v3 Subject Key Identifier: 
                03:0A:08:F8:41:51:EC:44:5F:FF:2E:8A:52:50:97:73:07:0D:59:4A
            X509v3 Authority Key Identifier: 
                keyid:5F:AC:03:EB:45:9F:D9:18:57:5B:CC:A0:3A:AF:5D:C3:72:89:5C:AD
                DirName:/CN=team624-net
                serial:4E:08:41:CD:DF:05:71:06:40:05:49:40:A8:60:C1:5E:D3:E5:99:60

            X509v3 Extended Key Usage: 
                TLS Web Client Authentication
            X509v3 Key Usage: 
                Digital Signature
    Signature Algorithm: sha256WithRSAEncryption
         c2:d1:41:a0:09:1b:6d:1c:44:56:da:ac:ef:c4:85:dd:29:9d:
         a7:5d:6d:ba:8c:e8:2f:aa:8a:4f:58:a3:a9:0e:59:32:95:6e:
         24:a7:68:01:5d:34:3d:ad:e1:a3:5d:af:ca:c7:e8:ac:ac:66:
         ff:6c:98:ae:4c:63:6e:07:a4:66:fe:36:73:1f:f5:83:e6:69:
         1e:8a:f7:d4:48:78:04:e2:c1:c2:bd:ce:e5:72:e5:7a:e7:5d:
         03:d4:99:66:f9:45:7c:ca:0a:29:22:91:2c:b5:96:00:91:d9:
         cf:3f:8a:42:b4:9e:08:62:6c:b7:ad:26:68:db:0a:b1:c7:dc:
         d0:e6:f8:ee:16:22:5f:a1:89:b4:a3:45:55:43:f8:96:ca:ed:
         b9:81:45:4c:11:8b:75:8c:77:65:dc:8a:d3:fb:81:2a:96:09:
         70:f9:44:de:0a:e7:9f:b7:bc:02:a5:f2:da:4b:de:a2:8a:1b:
         2c:ee:e1:c6:27:cc:d7:67:f4:4d:8f:ca:72:b8:c4:35:41:a7:
         d2:d5:0e:d9:6f:38:c3:6a:09:65:2d:6b:f9:2e:b9:9b:32:2b:
         22:a9:84:a8:80:4b:42:87:69:34:8a:03:81:7a:68:93:52:19:
         d1:e5:f6:a7:24:c1:88:6a:e9:66:8a:dd:a0:96:5f:21:ac:e2:
         42:ab:17:06
-----BEGIN CERTIFICATE-----
MIIDXDCCAkSgAwIBAgIQXGWZSpSNyDDgw5kX5rI22zANBgkqhkiG9w0BAQsFADAW
MRQwEgYDVQQDDAt0ZWFtNjI0LW5ldDAeFw0yMTA5MTMwNDExMDlaFw0yNDA4Mjgw
NDExMDlaMBkxFzAVBgNVBAMMDnRlYW02MjQtY2xpZW50MIIBIjANBgkqhkiG9w0B
AQEFAAOCAQ8AMIIBCgKCAQEAyNrjzq83tYQNbmwS1O8CnNDLE/Tvvh2/Gx+3rl9g
W/noRUMWFauXRqAiywIpLLc8iaSLQqsmfoGr7Gnw+cX0JrL+GtNSn7g6ImPciQV1
IEwA3GVdxc+PZu+WZMIKfUcOQNkWl6ddUZwyNAzFvO0MmRD4dN6jik9K4Ubv26Qn
dO4pypA/SNipuQosMacJZSBa/40pZeDhgt+4zQofqLk/qAk9z28KvO29mJUcWXJn
3BXRC7x/KmdMhhY3fCUrHLXBY7g7lKF1uH6vxjF1gGVyEc1qfa/wxJK9Jt1HXDkS
IcPhVtwg+W6iFc+7ovkKNw1YEE7RU3anDL1bl5KWdavY9wIDAQABo4GiMIGfMAkG
A1UdEwQCMAAwHQYDVR0OBBYEFAMKCPhBUexEX/8uilJQl3MHDVlKMFEGA1UdIwRK
MEiAFF+sA+tFn9kYV1vMoDqvXcNyiVytoRqkGDAWMRQwEgYDVQQDDAt0ZWFtNjI0
LW5ldIIUTghBzd8FcQZABUlAqGDBXtPlmWAwEwYDVR0lBAwwCgYIKwYBBQUHAwIw
CwYDVR0PBAQDAgeAMA0GCSqGSIb3DQEBCwUAA4IBAQDC0UGgCRttHERW2qzvxIXd
KZ2nXW26jOgvqopPWKOpDlkylW4kp2gBXTQ9reGjXa/Kx+isrGb/bJiuTGNuB6Rm
/jZzH/WD5mkeivfUSHgE4sHCvc7lcuV6510D1Jlm+UV8ygopIpEstZYAkdnPP4pC
tJ4IYmy3rSZo2wqxx9zQ5vjuFiJfoYm0o0VVQ/iWyu25gUVMEYt1jHdl3IrT+4Eq
lglw+UTeCueft7wCpfLaS96iihss7uHGJ8zXZ/RNj8pyuMQ1QafS1Q7ZbzjDagll
LWv5LrmbMisiqYSogEtCh2k0igOBemiTUhnR5fanJMGIaulmit2gll8hrOJCqxcG
-----END CERTIFICATE-----
