Certificate:
    Data:
        Version: 3 (0x2)
        Serial Number:
            a4:72:92:a4:29:1e:b6:27:af:00:74:a8:69:14:38:45
        Signature Algorithm: sha256WithRSAEncryption
        Issuer: CN=team624-net
        Validity
            Not Before: Sep 13 04:11:09 2021 GMT
            Not After : Aug 28 04:11:09 2024 GMT
        Subject: CN=team624-server
        Subject Public Key Info:
            Public Key Algorithm: rsaEncryption
                RSA Public-Key: (2048 bit)
                Modulus:
                    00:b2:b1:3a:f0:4e:83:95:28:f1:7e:70:30:5a:0d:
                    db:e5:31:89:02:85:fa:58:a6:26:33:ce:f5:dd:b3:
                    44:87:ea:58:20:1b:94:ca:57:e9:53:b1:24:20:a0:
                    5d:90:0a:b5:21:57:0f:e2:e4:5f:29:a1:d3:32:93:
                    82:67:49:d5:07:61:ed:74:6d:b7:a3:d1:5a:d6:3b:
                    9e:04:d6:43:e4:d6:48:aa:1b:83:f2:90:58:d7:ef:
                    18:13:cd:c9:0a:f0:cf:c3:e3:33:01:c6:15:83:f8:
                    24:39:46:e9:3b:34:b1:34:f9:79:25:d3:5b:7a:39:
                    43:0c:05:44:c4:50:b5:fb:3b:67:75:6c:b1:4d:21:
                    66:39:c4:d6:b2:03:37:c6:ef:8a:6b:1a:98:17:ea:
                    6e:72:0e:a4:4e:5f:a3:ba:eb:70:90:94:14:78:25:
                    53:7f:73:86:85:fe:b2:20:2e:89:54:87:8b:00:bf:
                    f8:ea:47:95:30:b2:06:9f:3c:7b:1d:50:ca:d2:66:
                    b8:af:de:d8:f4:63:a7:e7:e5:09:90:82:8f:5a:fc:
                    87:1e:69:e6:fd:d3:8b:eb:0e:5b:df:79:35:44:3c:
                    9b:95:9b:f5:01:f6:7a:6d:e3:24:df:64:4b:a4:09:
                    55:db:2b:d0:81:b9:88:e9:4f:61:fe:71:2e:cd:12:
                    b8:19
                Exponent: 65537 (0x10001)
        X509v3 extensions:
            X509v3 Basic Constraints: 
                CA:FALSE
            X509v3 Subject Key Identifier: 
                05:15:39:D2:2E:6D:EB:BD:A2:9C:35:80:99:1F:D3:B5:FE:00:80:4C
            X509v3 Authority Key Identifier: 
                keyid:5F:AC:03:EB:45:9F:D9:18:57:5B:CC:A0:3A:AF:5D:C3:72:89:5C:AD
                DirName:/CN=team624-net
                serial:4E:08:41:CD:DF:05:71:06:40:05:49:40:A8:60:C1:5E:D3:E5:99:60

            X509v3 Extended Key Usage: 
                TLS Web Server Authentication
            X509v3 Key Usage: 
                Digital Signature, Key Encipherment
            X509v3 Subject Alternative Name: 
                DNS:team624-server
    Signature Algorithm: sha256WithRSAEncryption
         46:55:dd:e2:20:ce:88:76:bd:85:a2:a6:6a:f4:80:89:a0:9e:
         cf:5b:2e:50:ad:e3:c2:2f:97:c6:7f:b3:62:c0:27:42:bf:b7:
         b3:c5:5b:4f:0c:7b:c1:92:f6:57:79:91:4c:25:07:4f:b0:4d:
         ad:8c:f2:d2:03:92:08:f2:dd:6c:7e:fa:27:76:fb:e2:2b:b5:
         76:fe:66:6a:d3:61:e3:84:60:cb:6f:3c:35:58:f5:a5:1a:b2:
         01:49:f3:91:cf:16:28:f5:38:1b:b4:78:84:0a:4c:a9:e3:16:
         68:87:00:3c:de:d2:5e:61:e5:dc:bf:26:7e:46:00:3c:b7:e4:
         8a:f1:8a:48:92:34:e5:99:1b:82:ee:a6:35:53:5f:6e:fb:b6:
         27:d0:0c:f4:56:7d:33:d1:bf:8b:fc:00:a0:8d:34:aa:5c:99:
         5e:27:4a:0c:3c:c1:f9:e6:e8:84:b1:e4:01:c0:96:27:27:51:
         80:9b:52:df:30:ed:72:29:78:8f:3f:32:f7:29:17:b0:1c:2a:
         43:3d:e3:78:f3:75:08:df:0e:d3:88:f8:ed:0e:10:f7:6f:2b:
         04:60:76:eb:76:06:5d:f1:0f:99:a7:45:fb:32:c7:a3:6c:bd:
         2c:da:5f:a4:a6:08:d8:3d:96:80:7d:25:a2:8c:65:21:1d:22:
         ee:9f:2f:cd
-----BEGIN CERTIFICATE-----
MIIDeDCCAmCgAwIBAgIRAKRykqQpHrYnrwB0qGkUOEUwDQYJKoZIhvcNAQELBQAw
FjEUMBIGA1UEAwwLdGVhbTYyNC1uZXQwHhcNMjEwOTEzMDQxMTA5WhcNMjQwODI4
MDQxMTA5WjAZMRcwFQYDVQQDDA50ZWFtNjI0LXNlcnZlcjCCASIwDQYJKoZIhvcN
AQEBBQADggEPADCCAQoCggEBALKxOvBOg5Uo8X5wMFoN2+UxiQKF+limJjPO9d2z
RIfqWCAblMpX6VOxJCCgXZAKtSFXD+LkXymh0zKTgmdJ1Qdh7XRtt6PRWtY7ngTW
Q+TWSKobg/KQWNfvGBPNyQrwz8PjMwHGFYP4JDlG6Ts0sTT5eSXTW3o5QwwFRMRQ
tfs7Z3VssU0hZjnE1rIDN8bvimsamBfqbnIOpE5fo7rrcJCUFHglU39zhoX+siAu
iVSHiwC/+OpHlTCyBp88ex1QytJmuK/e2PRjp+flCZCCj1r8hx5p5v3Ti+sOW995
NUQ8m5Wb9QH2em3jJN9kS6QJVdsr0IG5iOlPYf5xLs0SuBkCAwEAAaOBvTCBujAJ
BgNVHRMEAjAAMB0GA1UdDgQWBBQFFTnSLm3rvaKcNYCZH9O1/gCATDBRBgNVHSME
SjBIgBRfrAPrRZ/ZGFdbzKA6r13DcolcraEapBgwFjEUMBIGA1UEAwwLdGVhbTYy
NC1uZXSCFE4IQc3fBXEGQAVJQKhgwV7T5ZlgMBMGA1UdJQQMMAoGCCsGAQUFBwMB
MAsGA1UdDwQEAwIFoDAZBgNVHREEEjAQgg50ZWFtNjI0LXNlcnZlcjANBgkqhkiG
9w0BAQsFAAOCAQEARlXd4iDOiHa9haKmavSAiaCez1suUK3jwi+Xxn+zYsAnQr+3
s8VbTwx7wZL2V3mRTCUHT7BNrYzy0gOSCPLdbH76J3b74iu1dv5matNh44Rgy288
NVj1pRqyAUnzkc8WKPU4G7R4hApMqeMWaIcAPN7SXmHl3L8mfkYAPLfkivGKSJI0
5Zkbgu6mNVNfbvu2J9AM9FZ9M9G/i/wAoI00qlyZXidKDDzB+ebohLHkAcCWJydR
gJtS3zDtcil4jz8y9ykXsBwqQz3jePN1CN8O04j47Q4Q928rBGB263YGXfEPmadF
+zLHo2y9LNpfpKYI2D2WgH0looxlIR0i7p8vzQ==
-----END CERTIFICATE-----
