Certificate:
    Data:
        Version: 3 (0x2)
        Serial Number:
            67:19:af:69:56:7e:15:3d:ad:9a:19:1e:42:53:ea:a5
        Signature Algorithm: sha256WithRSAEncryption
        Issuer: CN=team520-net
        Validity
            Not Before: Sep 13 03:29:50 2021 GMT
            Not After : Aug 28 03:29:50 2024 GMT
        Subject: CN=team520-client
        Subject Public Key Info:
            Public Key Algorithm: rsaEncryption
                RSA Public-Key: (2048 bit)
                Modulus:
                    00:d6:55:25:51:b1:00:e6:2f:e5:32:0f:a3:c2:b5:
                    60:5e:95:f4:51:1a:b3:b7:82:e1:f0:06:97:5f:88:
                    22:14:3a:50:bd:42:28:23:f8:ba:18:80:65:46:69:
                    e3:4b:dd:01:72:f7:c9:b3:28:0c:f1:7d:24:18:79:
                    8b:31:27:10:3a:78:47:58:ea:b7:f4:4e:e1:04:9e:
                    75:e4:87:57:fe:84:b8:79:98:21:ea:bd:e0:f3:e4:
                    85:ba:0b:16:6a:bd:4a:08:9f:e8:02:c0:bc:fd:26:
                    e4:7c:10:60:60:2e:f5:e4:d2:0e:e9:de:7c:6d:cf:
                    d2:fd:ea:98:e1:08:65:e4:d4:bc:74:b2:90:15:1a:
                    65:69:0c:3f:43:5a:1a:6c:28:90:1a:09:84:7a:34:
                    0f:1b:30:4c:b8:fc:18:fe:69:30:dd:d7:50:80:5a:
                    43:6e:55:07:ff:0c:9c:5d:1a:0c:9b:2f:a6:9c:21:
                    25:ad:fa:46:52:4e:3c:7d:f5:59:f4:85:ef:52:70:
                    04:03:c2:db:1d:be:bb:a4:a4:33:d2:9f:ba:d2:3a:
                    0c:ae:db:b4:eb:10:4c:ff:83:2b:2a:6e:a5:be:2e:
                    77:78:67:f9:8c:75:64:ce:53:61:73:bf:f3:63:95:
                    51:54:c1:a2:10:1a:35:8a:bc:4f:f3:83:8f:c5:d4:
                    36:75
                Exponent: 65537 (0x10001)
        X509v3 extensions:
            X509v3 Basic Constraints: 
                CA:FALSE
            X509v3 Subject Key Identifier: 
                B6:D1:6B:1C:63:A7:AF:0A:93:82:E1:F8:D9:21:11:B7:91:6E:4D:44
            X509v3 Authority Key Identifier: 
                keyid:E6:B1:BD:55:44:66:3B:46:B2:14:8D:91:5E:9D:D2:A2:9D:7B:3A:DA
                DirName:/CN=team520-net
                serial:43:24:67:C4:F2:63:BC:F8:8A:FB:57:04:B0:DB:35:DA:D3:8A:42:4B

            X509v3 Extended Key Usage: 
                TLS Web Client Authentication
            X509v3 Key Usage: 
                Digital Signature
    Signature Algorithm: sha256WithRSAEncryption
         5e:54:d5:0f:b8:94:b6:e4:72:fb:68:5f:79:7f:76:f5:9f:90:
         c7:cb:60:18:5a:d9:d8:85:9b:26:57:ae:24:c0:08:50:17:4a:
         7f:7d:ac:18:a2:d7:90:d3:3e:81:a7:be:b6:86:32:aa:7a:8b:
         ef:92:bd:95:0b:9d:d1:ba:ea:59:fb:f4:d1:26:95:ae:4d:b8:
         a4:4c:54:cd:1a:18:e8:2f:85:18:1c:90:a4:ec:a5:ce:72:74:
         23:57:ee:f7:63:d3:29:b6:f9:33:e0:bf:03:7a:fa:2d:92:4b:
         1b:26:8d:78:91:b8:d4:a6:84:5c:cc:30:f8:9c:53:6d:a9:de:
         ba:60:cc:1c:c9:3c:9e:25:36:b3:8f:d5:30:7f:47:00:dc:7b:
         fa:6c:ad:fe:43:ac:09:1e:cb:7a:cf:a3:91:3c:e7:34:84:a3:
         74:59:28:76:5a:fe:77:e1:59:b8:3b:57:e6:c8:e8:ad:5e:7c:
         a6:38:d6:07:cb:d3:a2:88:99:a3:7f:52:15:50:bd:ce:c0:ce:
         4c:52:7d:15:88:d3:e0:6a:82:9d:97:a7:58:bd:33:62:d3:19:
         64:96:ba:b9:6d:c0:a0:8b:5a:8b:80:7c:3d:e3:0a:9e:f7:9d:
         fc:81:d9:82:32:32:40:d6:d1:f2:eb:8e:2a:a0:34:05:be:92:
         a5:6f:80:67
-----BEGIN CERTIFICATE-----
MIIDXDCCAkSgAwIBAgIQZxmvaVZ+FT2tmhkeQlPqpTANBgkqhkiG9w0BAQsFADAW
MRQwEgYDVQQDDAt0ZWFtNTIwLW5ldDAeFw0yMTA5MTMwMzI5NTBaFw0yNDA4Mjgw
MzI5NTBaMBkxFzAVBgNVBAMMDnRlYW01MjAtY2xpZW50MIIBIjANBgkqhkiG9w0B
AQEFAAOCAQ8AMIIBCgKCAQEA1lUlUbEA5i/lMg+jwrVgXpX0URqzt4Lh8AaXX4gi
FDpQvUIoI/i6GIBlRmnjS90BcvfJsygM8X0kGHmLMScQOnhHWOq39E7hBJ515IdX
/oS4eZgh6r3g8+SFugsWar1KCJ/oAsC8/SbkfBBgYC715NIO6d58bc/S/eqY4Qhl
5NS8dLKQFRplaQw/Q1oabCiQGgmEejQPGzBMuPwY/mkw3ddQgFpDblUH/wycXRoM
my+mnCElrfpGUk48ffVZ9IXvUnAEA8LbHb67pKQz0p+60joMrtu06xBM/4MrKm6l
vi53eGf5jHVkzlNhc7/zY5VRVMGiEBo1irxP84OPxdQ2dQIDAQABo4GiMIGfMAkG
A1UdEwQCMAAwHQYDVR0OBBYEFLbRaxxjp68Kk4Lh+NkhEbeRbk1EMFEGA1UdIwRK
MEiAFOaxvVVEZjtGshSNkV6d0qKdezraoRqkGDAWMRQwEgYDVQQDDAt0ZWFtNTIw
LW5ldIIUQyRnxPJjvPiK+1cEsNs12tOKQkswEwYDVR0lBAwwCgYIKwYBBQUHAwIw
CwYDVR0PBAQDAgeAMA0GCSqGSIb3DQEBCwUAA4IBAQBeVNUPuJS25HL7aF95f3b1
n5DHy2AYWtnYhZsmV64kwAhQF0p/fawYoteQ0z6Bp762hjKqeovvkr2VC53RuupZ
+/TRJpWuTbikTFTNGhjoL4UYHJCk7KXOcnQjV+73Y9Mptvkz4L8DevotkksbJo14
kbjUpoRczDD4nFNtqd66YMwcyTyeJTazj9Uwf0cA3Hv6bK3+Q6wJHst6z6ORPOc0
hKN0WSh2Wv534Vm4O1fmyOitXnymONYHy9OiiJmjf1IVUL3OwM5MUn0ViNPgaoKd
l6dYvTNi0xlklrq5bcCgi1qLgHw94wqe9538gdmCMjJA1tHy644qoDQFvpKlb4Bn
-----END CERTIFICATE-----
