Certificate:
    Data:
        Version: 3 (0x2)
        Serial Number:
            ea:bf:b0:1f:22:34:6c:58:ec:46:66:7f:e0:27:97:b5
        Signature Algorithm: sha256WithRSAEncryption
        Issuer: CN=team67-net
        Validity
            Not Before: Sep 12 23:17:41 2021 GMT
            Not After : Aug 27 23:17:41 2024 GMT
        Subject: CN=team67-server
        Subject Public Key Info:
            Public Key Algorithm: rsaEncryption
                RSA Public-Key: (2048 bit)
                Modulus:
                    00:c2:6e:80:68:44:02:6c:e4:2d:91:4e:b9:26:bb:
                    21:18:aa:43:e5:72:ec:4d:48:6f:d0:1c:1b:e7:35:
                    56:a8:3d:67:00:a3:b1:72:41:6e:e5:49:b5:98:42:
                    df:4c:d2:ff:ee:6b:de:73:4b:5b:c5:22:1d:31:1d:
                    05:b8:8d:60:18:c1:5f:58:20:b1:f2:9c:08:14:0d:
                    58:73:cf:34:4a:6e:ea:83:da:36:4b:ea:8c:73:72:
                    2b:59:68:fd:e0:79:11:6f:ed:2e:72:72:9a:ef:c2:
                    1d:c4:5d:d0:7d:ff:82:ef:8f:86:3f:1b:36:fc:bc:
                    96:81:9d:fa:70:5c:ba:95:21:62:f1:f9:5d:e2:f6:
                    f1:9d:51:d5:85:8a:b8:49:af:7e:e5:b5:ee:1a:10:
                    97:7f:b5:72:a1:9b:29:d3:ca:46:92:1a:91:b8:d9:
                    5a:4f:44:db:39:12:2c:81:eb:1a:c9:bc:91:0b:85:
                    b3:71:72:20:dc:71:da:ae:b8:aa:8f:03:dd:58:8b:
                    72:3c:67:16:e8:87:17:a4:48:15:8e:09:03:d5:f9:
                    ce:96:1c:06:6b:d7:0e:b4:45:18:71:6f:56:89:09:
                    23:0a:df:f1:3f:36:ce:9e:c0:65:bd:f7:f8:82:11:
                    81:6e:ef:f4:96:63:63:77:ad:49:3e:71:74:70:c9:
                    1b:db
                Exponent: 65537 (0x10001)
        X509v3 extensions:
            X509v3 Basic Constraints: 
                CA:FALSE
            X509v3 Subject Key Identifier: 
                E3:9B:FB:D0:4A:60:A1:0B:F5:41:A5:58:FA:86:54:CA:26:41:9E:6E
            X509v3 Authority Key Identifier: 
                keyid:D1:DB:D6:59:EA:0C:B2:00:0C:48:76:45:7B:1F:DA:EE:22:4B:EA:8A
                DirName:/CN=team67-net
                serial:4B:85:B9:64:7F:8F:7A:A7:05:DD:1D:00:33:8F:8A:54:25:8B:84:14

            X509v3 Extended Key Usage: 
                TLS Web Server Authentication
            X509v3 Key Usage: 
                Digital Signature, Key Encipherment
            X509v3 Subject Alternative Name: 
                DNS:team67-server
    Signature Algorithm: sha256WithRSAEncryption
         35:d1:0c:8c:79:0b:a7:5d:67:7f:39:57:a0:20:39:d3:f5:9b:
         77:3b:3a:83:bd:32:12:39:89:d8:a9:6f:07:c3:61:00:72:9c:
         65:23:a9:67:32:3a:ae:4a:8e:14:11:10:b7:38:2f:de:8b:7d:
         fc:8c:ea:fb:8e:a8:25:51:fc:0f:13:44:ee:a5:83:11:cc:7e:
         f1:7a:f8:73:21:44:dd:80:66:e0:5a:27:26:2a:d6:1b:75:e6:
         d9:ac:0e:46:3b:8f:03:21:10:2a:83:19:73:58:d0:6e:2b:11:
         02:dc:8d:8f:e9:88:33:80:d7:57:00:8f:bb:71:70:ee:4e:ff:
         54:a3:df:b0:3d:64:a1:5c:23:18:17:17:cb:75:36:b3:6c:1b:
         ee:2d:97:45:96:01:cf:b5:35:c0:2a:27:1e:08:d7:a0:90:73:
         16:bf:bd:c6:93:67:8e:ca:f1:7c:2c:17:ef:87:75:e6:34:88:
         57:4c:52:c5:be:32:19:36:81:4f:7c:2b:52:cd:1b:86:6f:34:
         d3:81:84:bb:cb:e5:a4:46:66:78:5d:fe:ed:c0:94:9d:8a:b8:
         77:e2:8d:40:e3:63:d2:d8:85:f8:4a:b3:d5:1c:a4:be:b5:38:
         5d:2c:fe:b3:a2:2b:90:cf:0f:12:14:83:7c:e4:68:07:89:ce:
         94:65:df:ac
-----BEGIN CERTIFICATE-----
MIIDdDCCAlygAwIBAgIRAOq/sB8iNGxY7EZmf+Anl7UwDQYJKoZIhvcNAQELBQAw
FTETMBEGA1UEAwwKdGVhbTY3LW5ldDAeFw0yMTA5MTIyMzE3NDFaFw0yNDA4Mjcy
MzE3NDFaMBgxFjAUBgNVBAMMDXRlYW02Ny1zZXJ2ZXIwggEiMA0GCSqGSIb3DQEB
AQUAA4IBDwAwggEKAoIBAQDCboBoRAJs5C2RTrkmuyEYqkPlcuxNSG/QHBvnNVao
PWcAo7FyQW7lSbWYQt9M0v/ua95zS1vFIh0xHQW4jWAYwV9YILHynAgUDVhzzzRK
buqD2jZL6oxzcitZaP3geRFv7S5ycprvwh3EXdB9/4Lvj4Y/Gzb8vJaBnfpwXLqV
IWLx+V3i9vGdUdWFirhJr37lte4aEJd/tXKhmynTykaSGpG42VpPRNs5EiyB6xrJ
vJELhbNxciDccdquuKqPA91Yi3I8ZxbohxekSBWOCQPV+c6WHAZr1w60RRhxb1aJ
CSMK3/E/Ns6ewGW99/iCEYFu7/SWY2N3rUk+cXRwyRvbAgMBAAGjgbswgbgwCQYD
VR0TBAIwADAdBgNVHQ4EFgQU45v70EpgoQv1QaVY+oZUyiZBnm4wUAYDVR0jBEkw
R4AU0dvWWeoMsgAMSHZFex/a7iJL6oqhGaQXMBUxEzARBgNVBAMMCnRlYW02Ny1u
ZXSCFEuFuWR/j3qnBd0dADOPilQli4QUMBMGA1UdJQQMMAoGCCsGAQUFBwMBMAsG
A1UdDwQEAwIFoDAYBgNVHREEETAPgg10ZWFtNjctc2VydmVyMA0GCSqGSIb3DQEB
CwUAA4IBAQA10QyMeQunXWd/OVegIDnT9Zt3OzqDvTISOYnYqW8Hw2EAcpxlI6ln
MjquSo4UERC3OC/ei338jOr7jqglUfwPE0TupYMRzH7xevhzIUTdgGbgWicmKtYb
debZrA5GO48DIRAqgxlzWNBuKxEC3I2P6YgzgNdXAI+7cXDuTv9Uo9+wPWShXCMY
FxfLdTazbBvuLZdFlgHPtTXAKiceCNegkHMWv73Gk2eOyvF8LBfvh3XmNIhXTFLF
vjIZNoFPfCtSzRuGbzTTgYS7y+WkRmZ4Xf7twJSdirh34o1A42PS2IX4SrPVHKS+
tThdLP6zoiuQzw8SFIN85GgHic6UZd+s
-----END CERTIFICATE-----
