Certificate:
    Data:
        Version: 3 (0x2)
        Serial Number:
            0b:f1:69:78:52:ef:1d:61:b5:2a:47:ff:54:bf:27:e5
        Signature Algorithm: sha256WithRSAEncryption
        Issuer: CN=team340-net
        Validity
            Not Before: Sep 13 01:54:40 2021 GMT
            Not After : Aug 28 01:54:40 2024 GMT
        Subject: CN=team340-client
        Subject Public Key Info:
            Public Key Algorithm: rsaEncryption
                RSA Public-Key: (2048 bit)
                Modulus:
                    00:e2:18:d6:e8:15:de:dc:9d:18:09:4c:b0:c2:92:
                    b4:13:a8:2a:05:76:d7:65:bb:07:0f:44:95:92:cd:
                    b8:51:32:a1:0f:7c:12:a8:35:17:a1:e0:bc:19:d2:
                    00:c0:a8:37:2b:22:89:8d:ee:62:21:c5:a6:5f:b1:
                    29:13:e4:2d:c0:16:e8:0e:70:dc:4b:0d:11:47:3d:
                    3c:81:11:56:62:41:84:a0:1a:b8:46:3e:3a:20:98:
                    21:a0:9d:54:de:22:98:2a:7c:0e:a8:eb:13:59:ba:
                    16:ee:84:a2:c4:03:e5:07:2f:fc:b9:62:ec:15:78:
                    64:6b:03:0a:c5:26:97:64:36:c5:57:a6:ca:58:88:
                    b6:88:e7:90:c1:7f:4a:12:6a:2c:67:6c:8f:79:fe:
                    22:1e:5a:99:4c:0c:37:be:2d:d4:a5:97:a2:66:85:
                    e7:17:56:58:68:a0:bc:f5:5b:46:81:97:93:97:a7:
                    48:cc:86:dc:18:0e:61:11:b8:06:cf:79:2a:a0:ba:
                    f2:a6:45:28:a7:71:7f:fc:22:ad:3d:9c:0a:f3:87:
                    3b:84:c3:c9:12:21:0a:87:1c:63:39:ae:62:a6:fa:
                    0f:0b:ac:3a:11:63:84:74:5e:33:57:13:15:69:ff:
                    88:56:d3:2e:9e:32:01:06:66:ef:72:ee:fb:e7:55:
                    32:91
                Exponent: 65537 (0x10001)
        X509v3 extensions:
            X509v3 Basic Constraints: 
                CA:FALSE
            X509v3 Subject Key Identifier: 
                EC:08:7A:76:38:20:BD:9A:B2:8D:5D:D3:81:5B:3D:53:CF:5D:F1:8A
            X509v3 Authority Key Identifier: 
                keyid:E2:E5:E6:1B:40:86:91:E0:11:46:EB:75:45:A4:1D:6D:F7:79:EC:7B
                DirName:/CN=team340-net
                serial:39:38:28:01:B6:79:A0:BB:37:86:54:5B:11:BC:53:46:AB:AC:E1:4F

            X509v3 Extended Key Usage: 
                TLS Web Client Authentication
            X509v3 Key Usage: 
                Digital Signature
    Signature Algorithm: sha256WithRSAEncryption
         a8:4e:9c:37:2c:fa:60:1d:f8:2c:46:dd:a9:a0:dc:ab:81:c5:
         bc:45:cb:e3:bb:dd:89:ea:5d:c7:f1:56:08:85:c6:98:5a:b2:
         a5:50:a6:c8:dc:9a:ed:35:bf:d2:7f:f8:03:b9:cc:88:ef:1d:
         41:74:9b:2c:65:30:03:ca:0a:8f:b6:6e:89:e8:c6:6b:be:83:
         5b:e8:42:55:47:66:48:2d:40:37:17:3b:25:8c:fd:39:ed:fb:
         9e:6a:08:a9:9d:5c:28:fa:ec:5f:45:de:c5:66:6f:11:7c:a7:
         86:d1:48:65:49:ca:96:9a:e5:9c:3f:2d:f7:da:e8:d1:f2:b7:
         74:6d:33:25:57:52:39:95:9a:ae:57:29:a9:f1:7d:d5:da:44:
         68:75:af:57:e5:0b:14:16:c8:ae:8f:e1:ba:2e:27:12:e9:35:
         41:64:bf:c8:05:f0:14:9e:7e:17:fd:5b:ac:c2:71:eb:21:d4:
         f0:7d:b6:94:af:96:1d:29:f8:99:e2:18:14:af:35:81:bf:9a:
         61:21:dc:92:bd:f3:3f:0d:05:ed:06:54:36:e5:18:14:59:33:
         ea:54:8f:80:67:c0:87:ed:54:dc:ec:cf:b9:46:c1:98:13:7a:
         b2:49:bb:8f:c6:13:7f:da:15:d8:8f:c9:e5:bc:71:20:13:99:
         82:0c:58:9f
-----BEGIN CERTIFICATE-----
MIIDXDCCAkSgAwIBAgIQC/FpeFLvHWG1Kkf/VL8n5TANBgkqhkiG9w0BAQsFADAW
MRQwEgYDVQQDDAt0ZWFtMzQwLW5ldDAeFw0yMTA5MTMwMTU0NDBaFw0yNDA4Mjgw
MTU0NDBaMBkxFzAVBgNVBAMMDnRlYW0zNDAtY2xpZW50MIIBIjANBgkqhkiG9w0B
AQEFAAOCAQ8AMIIBCgKCAQEA4hjW6BXe3J0YCUywwpK0E6gqBXbXZbsHD0SVks24
UTKhD3wSqDUXoeC8GdIAwKg3KyKJje5iIcWmX7EpE+QtwBboDnDcSw0RRz08gRFW
YkGEoBq4Rj46IJghoJ1U3iKYKnwOqOsTWboW7oSixAPlBy/8uWLsFXhkawMKxSaX
ZDbFV6bKWIi2iOeQwX9KEmosZ2yPef4iHlqZTAw3vi3UpZeiZoXnF1ZYaKC89VtG
gZeTl6dIzIbcGA5hEbgGz3kqoLrypkUop3F//CKtPZwK84c7hMPJEiEKhxxjOa5i
pvoPC6w6EWOEdF4zVxMVaf+IVtMunjIBBmbvcu7751UykQIDAQABo4GiMIGfMAkG
A1UdEwQCMAAwHQYDVR0OBBYEFOwIenY4IL2aso1d04FbPVPPXfGKMFEGA1UdIwRK
MEiAFOLl5htAhpHgEUbrdUWkHW33eex7oRqkGDAWMRQwEgYDVQQDDAt0ZWFtMzQw
LW5ldIIUOTgoAbZ5oLs3hlRbEbxTRqus4U8wEwYDVR0lBAwwCgYIKwYBBQUHAwIw
CwYDVR0PBAQDAgeAMA0GCSqGSIb3DQEBCwUAA4IBAQCoTpw3LPpgHfgsRt2poNyr
gcW8Rcvju92J6l3H8VYIhcaYWrKlUKbI3JrtNb/Sf/gDucyI7x1BdJssZTADygqP
tm6J6MZrvoNb6EJVR2ZILUA3FzsljP057fueagipnVwo+uxfRd7FZm8RfKeG0Uhl
ScqWmuWcPy332ujR8rd0bTMlV1I5lZquVymp8X3V2kRoda9X5QsUFsiuj+G6LicS
6TVBZL/IBfAUnn4X/VuswnHrIdTwfbaUr5YdKfiZ4hgUrzWBv5phIdySvfM/DQXt
BlQ25RgUWTPqVI+AZ8CH7VTc7M+5RsGYE3qySbuPxhN/2hXYj8nlvHEgE5mCDFif
-----END CERTIFICATE-----
