Certificate:
    Data:
        Version: 3 (0x2)
        Serial Number:
            c5:c6:fb:a4:a1:16:93:e0:98:b7:27:68:10:32:ce:2e
        Signature Algorithm: sha256WithRSAEncryption
        Issuer: CN=team75-net
        Validity
            Not Before: Sep 12 23:20:16 2021 GMT
            Not After : Aug 27 23:20:16 2024 GMT
        Subject: CN=team75-client
        Subject Public Key Info:
            Public Key Algorithm: rsaEncryption
                RSA Public-Key: (2048 bit)
                Modulus:
                    00:bb:07:b3:c1:ad:36:fe:34:24:e3:c7:fa:a8:1d:
                    ae:02:21:35:32:0e:41:79:38:26:9a:68:c0:9e:8d:
                    df:60:22:4e:fd:66:4a:68:5a:4f:c3:a0:f9:89:a1:
                    4c:e9:17:12:5c:a4:bf:e9:83:5b:a7:cc:56:af:ca:
                    fd:e3:fa:6f:ca:7c:1a:0c:53:97:cd:09:58:9d:83:
                    bb:ec:29:e5:31:8c:58:b0:38:86:6b:35:28:4f:0a:
                    b6:d9:0e:9c:2a:48:ba:20:1a:b2:44:44:63:c0:b1:
                    d7:86:b3:4c:f8:d0:a4:9f:a1:ba:d2:ca:f2:5a:08:
                    a1:ad:3b:ed:c1:8c:36:22:75:6e:fe:84:6d:b6:ca:
                    ee:e7:9f:53:fc:0d:ef:3f:0c:c2:c0:cf:86:25:02:
                    49:95:2f:10:22:0b:9e:ed:66:b1:a6:e3:63:da:e7:
                    d4:47:12:43:03:9b:f5:d3:c2:17:4e:d0:b1:fe:ca:
                    c3:5e:07:89:64:9e:d0:88:78:2a:ab:c8:63:4e:71:
                    6b:09:8c:74:30:56:0a:0f:7f:be:40:a1:22:22:30:
                    04:8f:36:1b:c9:8d:af:5f:e5:cd:33:93:58:f9:1c:
                    e4:6b:27:34:47:cd:37:5e:a6:f5:20:43:97:6a:ba:
                    38:a4:7e:5f:55:8b:4b:c2:68:90:d4:ff:04:bb:16:
                    1d:9d
                Exponent: 65537 (0x10001)
        X509v3 extensions:
            X509v3 Basic Constraints: 
                CA:FALSE
            X509v3 Subject Key Identifier: 
                AA:BE:85:69:42:F9:DB:45:06:2B:0C:9E:A1:8F:2A:1D:28:A4:0A:4E
            X509v3 Authority Key Identifier: 
                keyid:DB:9B:8B:F7:8A:26:73:9E:EF:EB:2A:21:56:D7:DC:AD:EC:F9:C7:2A
                DirName:/CN=team75-net
                serial:40:5E:55:C3:F2:45:0F:46:77:1F:B7:D0:46:EC:4A:D3:7D:4A:10:2D

            X509v3 Extended Key Usage: 
                TLS Web Client Authentication
            X509v3 Key Usage: 
                Digital Signature
    Signature Algorithm: sha256WithRSAEncryption
         25:2a:ac:67:20:0e:b1:29:b2:a4:36:3b:a3:1d:6f:61:e7:fe:
         4a:c1:a4:63:61:23:ba:a2:26:b4:96:d9:23:bc:ff:ea:3a:3d:
         d0:e7:46:4f:8a:60:33:9c:0e:6a:9e:f9:86:f4:4a:21:1f:e6:
         b0:c4:07:73:91:c4:0f:ed:76:37:4d:db:2d:a3:48:88:3c:b4:
         d5:b9:14:4f:6d:aa:44:2e:90:86:c0:1f:f1:8e:4c:61:bc:1b:
         d8:fd:e3:74:f5:df:d8:c4:9c:7a:50:dc:f5:37:50:e2:76:2d:
         71:90:82:4e:1c:54:91:e9:86:7a:e6:9c:ba:6e:90:a3:ed:9e:
         48:16:a7:cd:0c:19:e4:d9:1d:9e:4e:dc:fd:6c:7a:08:6f:1f:
         43:2e:ac:2a:5f:c8:92:a8:a1:0e:b7:22:5c:4b:08:32:e4:f2:
         ad:f7:ba:98:8b:05:cf:c8:71:7b:45:20:bf:55:65:1f:44:45:
         6d:a1:57:7c:e4:3e:a9:35:54:de:69:5b:47:b8:7d:6b:d0:f6:
         5f:10:47:1c:0f:e2:80:c2:0c:d6:07:c1:b9:57:e6:a0:00:4b:
         23:58:5a:47:d2:87:04:0b:b3:63:02:71:15:1a:1c:d4:45:44:
         5c:e0:43:23:71:ab:7b:38:5c:81:93:5d:97:56:17:50:19:43:
         1a:d2:8b:a2
-----BEGIN CERTIFICATE-----
MIIDWjCCAkKgAwIBAgIRAMXG+6ShFpPgmLcnaBAyzi4wDQYJKoZIhvcNAQELBQAw
FTETMBEGA1UEAwwKdGVhbTc1LW5ldDAeFw0yMTA5MTIyMzIwMTZaFw0yNDA4Mjcy
MzIwMTZaMBgxFjAUBgNVBAMMDXRlYW03NS1jbGllbnQwggEiMA0GCSqGSIb3DQEB
AQUAA4IBDwAwggEKAoIBAQC7B7PBrTb+NCTjx/qoHa4CITUyDkF5OCaaaMCejd9g
Ik79ZkpoWk/DoPmJoUzpFxJcpL/pg1unzFavyv3j+m/KfBoMU5fNCVidg7vsKeUx
jFiwOIZrNShPCrbZDpwqSLogGrJERGPAsdeGs0z40KSfobrSyvJaCKGtO+3BjDYi
dW7+hG22yu7nn1P8De8/DMLAz4YlAkmVLxAiC57tZrGm42Pa59RHEkMDm/XTwhdO
0LH+ysNeB4lkntCIeCqryGNOcWsJjHQwVgoPf75AoSIiMASPNhvJja9f5c0zk1j5
HORrJzRHzTdepvUgQ5dqujikfl9Vi0vCaJDU/wS7Fh2dAgMBAAGjgaEwgZ4wCQYD
VR0TBAIwADAdBgNVHQ4EFgQUqr6FaUL520UGKwyeoY8qHSikCk4wUAYDVR0jBEkw
R4AU25uL94omc57v6yohVtfcrez5xyqhGaQXMBUxEzARBgNVBAMMCnRlYW03NS1u
ZXSCFEBeVcPyRQ9Gdx+30EbsStN9ShAtMBMGA1UdJQQMMAoGCCsGAQUFBwMCMAsG
A1UdDwQEAwIHgDANBgkqhkiG9w0BAQsFAAOCAQEAJSqsZyAOsSmypDY7ox1vYef+
SsGkY2EjuqImtJbZI7z/6jo90OdGT4pgM5wOap75hvRKIR/msMQHc5HED+12N03b
LaNIiDy01bkUT22qRC6QhsAf8Y5MYbwb2P3jdPXf2MScelDc9TdQ4nYtcZCCThxU
kemGeuacum6Qo+2eSBanzQwZ5Nkdnk7c/Wx6CG8fQy6sKl/IkqihDrciXEsIMuTy
rfe6mIsFz8hxe0Ugv1VlH0RFbaFXfOQ+qTVU3mlbR7h9a9D2XxBHHA/igMIM1gfB
uVfmoABLI1haR9KHBAuzYwJxFRoc1EVEXOBDI3GrezhcgZNdl1YXUBlDGtKLog==
-----END CERTIFICATE-----
