Certificate:
    Data:
        Version: 3 (0x2)
        Serial Number:
            37:a0:3e:c2:0e:32:7b:1c:b4:cc:a0:9a:71:f1:3f:96
        Signature Algorithm: sha256WithRSAEncryption
        Issuer: CN=team466-net
        Validity
            Not Before: Sep 13 02:57:09 2021 GMT
            Not After : Aug 28 02:57:09 2024 GMT
        Subject: CN=team466-server
        Subject Public Key Info:
            Public Key Algorithm: rsaEncryption
                RSA Public-Key: (2048 bit)
                Modulus:
                    00:b2:8e:18:02:47:ee:eb:7a:6a:c0:87:be:a0:c3:
                    ff:98:aa:89:64:fc:ef:04:22:fb:88:89:b5:1b:82:
                    3c:0d:9b:a9:0d:bb:53:44:a8:b4:90:bc:7c:5b:f7:
                    48:63:31:94:df:3c:1d:6d:f9:9c:2e:41:44:ac:77:
                    82:71:1e:f1:fa:80:2e:a0:ea:f1:60:0b:24:2a:e4:
                    24:11:08:45:0a:e3:9e:33:c3:2a:67:9f:ec:ab:c3:
                    4e:8f:89:4d:66:0a:7f:0e:07:9e:eb:2a:f6:ca:e1:
                    19:26:d6:33:42:05:3d:63:97:ec:69:97:f2:c7:83:
                    20:72:f1:67:aa:00:03:fb:dc:b5:55:7d:12:30:5b:
                    3b:2a:6d:22:6b:d1:21:93:30:d3:04:c8:01:99:ec:
                    f6:60:70:cb:75:bf:5e:1e:0e:33:da:fc:72:44:a0:
                    d2:10:46:75:19:de:5e:bf:ae:a9:41:2f:0d:d6:cb:
                    d2:20:17:7c:9c:7e:a8:eb:38:b2:b5:1a:6f:c4:d8:
                    cc:0b:78:e1:91:9b:36:d5:13:7b:3b:da:92:bc:87:
                    72:bb:67:62:b7:b2:f6:f7:51:90:59:3b:a4:87:87:
                    92:22:9d:64:f9:65:31:f4:5c:7c:08:d3:2f:07:12:
                    75:f5:1c:d9:e5:db:35:83:53:1c:69:82:c9:10:2a:
                    29:03
                Exponent: 65537 (0x10001)
        X509v3 extensions:
            X509v3 Basic Constraints: 
                CA:FALSE
            X509v3 Subject Key Identifier: 
                FD:18:8E:5A:40:C8:C7:17:01:74:FE:E4:59:C9:84:49:0E:43:80:0E
            X509v3 Authority Key Identifier: 
                keyid:03:E1:E3:D0:48:87:E0:F4:EE:BE:77:AC:96:FE:E9:05:2C:7A:E3:40
                DirName:/CN=team466-net
                serial:13:FC:33:0B:72:EC:7C:80:43:2A:30:5E:67:2C:B0:8E:B4:82:25:34

            X509v3 Extended Key Usage: 
                TLS Web Server Authentication
            X509v3 Key Usage: 
                Digital Signature, Key Encipherment
            X509v3 Subject Alternative Name: 
                DNS:team466-server
    Signature Algorithm: sha256WithRSAEncryption
         4d:4d:9d:04:64:dd:5d:57:fe:85:fd:58:78:ff:3e:04:ae:f7:
         6a:d3:3c:f5:23:8b:b8:68:f9:a3:c3:d9:3d:86:95:2c:3e:72:
         df:a8:53:d7:57:ce:ff:ea:11:d9:33:93:e8:97:2e:44:fa:f5:
         0c:c8:bf:a3:72:68:c1:75:63:04:61:d0:84:5e:b9:24:7a:dd:
         e4:68:68:59:46:e6:66:0c:bf:59:53:89:93:c0:58:f9:14:3f:
         19:b4:cf:c2:f4:73:74:e5:8b:9c:12:8e:11:55:98:ef:9e:84:
         e7:ad:fc:1f:8a:ee:b0:4b:6c:b1:13:72:a0:59:90:66:05:70:
         28:68:7f:94:e2:4d:f5:80:66:ae:2a:92:7d:7f:08:c5:33:b9:
         a8:f4:49:b1:05:f1:79:d8:e0:54:10:9b:34:90:05:c3:89:50:
         2f:fb:b8:b4:bd:c5:c4:a6:ee:e0:7f:8f:1c:34:88:7d:0a:2d:
         a0:5e:de:bc:e8:e4:4e:6f:b9:e9:36:13:17:40:3e:f1:f6:95:
         28:68:d2:d1:52:8c:04:fd:7c:69:a5:97:c1:bc:54:39:58:af:
         9c:13:55:ae:b7:1c:d2:0e:2f:20:c0:2f:46:75:d7:64:9f:9e:
         4d:7c:11:94:0b:a1:37:02:0c:c1:bd:d4:77:8a:70:2d:c0:8d:
         47:e3:06:bd
-----BEGIN CERTIFICATE-----
MIIDdzCCAl+gAwIBAgIQN6A+wg4yexy0zKCacfE/ljANBgkqhkiG9w0BAQsFADAW
MRQwEgYDVQQDDAt0ZWFtNDY2LW5ldDAeFw0yMTA5MTMwMjU3MDlaFw0yNDA4Mjgw
MjU3MDlaMBkxFzAVBgNVBAMMDnRlYW00NjYtc2VydmVyMIIBIjANBgkqhkiG9w0B
AQEFAAOCAQ8AMIIBCgKCAQEAso4YAkfu63pqwIe+oMP/mKqJZPzvBCL7iIm1G4I8
DZupDbtTRKi0kLx8W/dIYzGU3zwdbfmcLkFErHeCcR7x+oAuoOrxYAskKuQkEQhF
CuOeM8MqZ5/sq8NOj4lNZgp/Dgee6yr2yuEZJtYzQgU9Y5fsaZfyx4MgcvFnqgAD
+9y1VX0SMFs7Km0ia9EhkzDTBMgBmez2YHDLdb9eHg4z2vxyRKDSEEZ1Gd5ev66p
QS8N1svSIBd8nH6o6ziytRpvxNjMC3jhkZs21RN7O9qSvIdyu2dit7L291GQWTuk
h4eSIp1k+WUx9Fx8CNMvBxJ19RzZ5ds1g1McaYLJECopAwIDAQABo4G9MIG6MAkG
A1UdEwQCMAAwHQYDVR0OBBYEFP0YjlpAyMcXAXT+5FnJhEkOQ4AOMFEGA1UdIwRK
MEiAFAPh49BIh+D07r53rJb+6QUseuNAoRqkGDAWMRQwEgYDVQQDDAt0ZWFtNDY2
LW5ldIIUE/wzC3LsfIBDKjBeZyywjrSCJTQwEwYDVR0lBAwwCgYIKwYBBQUHAwEw
CwYDVR0PBAQDAgWgMBkGA1UdEQQSMBCCDnRlYW00NjYtc2VydmVyMA0GCSqGSIb3
DQEBCwUAA4IBAQBNTZ0EZN1dV/6F/Vh4/z4Ervdq0zz1I4u4aPmjw9k9hpUsPnLf
qFPXV87/6hHZM5Poly5E+vUMyL+jcmjBdWMEYdCEXrkket3kaGhZRuZmDL9ZU4mT
wFj5FD8ZtM/C9HN05YucEo4RVZjvnoTnrfwfiu6wS2yxE3KgWZBmBXAoaH+U4k31
gGauKpJ9fwjFM7mo9EmxBfF52OBUEJs0kAXDiVAv+7i0vcXEpu7gf48cNIh9Ci2g
Xt686OROb7npNhMXQD7x9pUoaNLRUowE/XxppZfBvFQ5WK+cE1WutxzSDi8gwC9G
dddkn55NfBGUC6E3AgzBvdR3inAtwI1H4wa9
-----END CERTIFICATE-----
