Certificate:
    Data:
        Version: 3 (0x2)
        Serial Number:
            7c:2c:07:e5:3b:8a:42:4f:df:22:42:87:8a:2f:a1:bd
        Signature Algorithm: sha256WithRSAEncryption
        Issuer: CN=team505-net
        Validity
            Not Before: Sep 13 03:21:46 2021 GMT
            Not After : Aug 28 03:21:46 2024 GMT
        Subject: CN=team505-client
        Subject Public Key Info:
            Public Key Algorithm: rsaEncryption
                RSA Public-Key: (2048 bit)
                Modulus:
                    00:d4:7b:b7:7b:a0:49:31:58:35:d6:ee:eb:75:8c:
                    7a:16:e2:49:1f:d1:af:6a:64:d6:bc:db:f2:80:72:
                    a2:48:d7:f3:d9:10:81:13:0f:45:a5:e0:3d:6d:42:
                    d3:0c:e7:5c:f4:ca:5c:91:aa:9f:8e:72:0f:42:1c:
                    2a:6b:a0:f7:c0:04:8e:60:e7:05:0b:49:cc:cf:ac:
                    14:4b:2f:52:f7:ea:e2:17:96:ed:27:9f:d4:7f:07:
                    af:d2:d5:96:34:09:5e:f4:6d:22:6e:97:e3:ad:b8:
                    03:81:7a:7d:1c:1a:b2:b0:b3:7a:ca:9c:ba:40:29:
                    8c:53:b6:79:dd:a4:4d:c5:f0:d0:03:65:80:dc:c1:
                    77:71:00:d1:55:09:9e:ce:1a:9d:a4:69:cd:3e:a4:
                    be:28:55:ee:80:81:87:db:13:3f:23:65:5d:22:a0:
                    67:f8:76:d6:87:2f:f8:bf:4f:f5:47:7d:bd:6b:12:
                    e0:41:a1:02:82:be:c2:a6:80:62:f8:c4:6c:b4:4b:
                    ab:c7:8c:a8:10:89:6b:c6:e7:de:96:9a:f3:63:df:
                    b2:7d:67:9d:20:88:b9:cf:c5:9f:73:ae:f1:f8:4f:
                    a3:25:ce:de:cd:93:9c:d1:eb:0c:cd:5a:b4:8b:16:
                    1d:52:c0:75:81:ab:c3:c3:9d:d5:f2:d9:6a:f7:8a:
                    50:23
                Exponent: 65537 (0x10001)
        X509v3 extensions:
            X509v3 Basic Constraints: 
                CA:FALSE
            X509v3 Subject Key Identifier: 
                85:DC:EC:A7:F2:43:7F:9C:C8:1F:F1:8B:03:1A:8A:5E:39:94:E0:04
            X509v3 Authority Key Identifier: 
                keyid:62:84:58:CB:08:90:35:9A:95:C3:E3:FB:6F:97:20:31:9D:14:AB:25
                DirName:/CN=team505-net
                serial:4A:E7:E2:07:49:A2:24:14:B8:AA:1C:0C:C6:32:99:30:7C:46:84:05

            X509v3 Extended Key Usage: 
                TLS Web Client Authentication
            X509v3 Key Usage: 
                Digital Signature
    Signature Algorithm: sha256WithRSAEncryption
         53:1c:be:ee:27:ce:a1:62:63:24:e2:b2:d2:bd:9b:ea:5a:e9:
         a9:5a:33:26:64:23:02:90:a8:26:4b:6e:6e:85:c3:70:7c:2f:
         3f:3d:2a:a1:1b:23:49:05:18:48:92:c5:a4:a7:23:6c:38:92:
         3b:45:7d:b6:a4:13:70:3e:9a:d5:5a:4d:d6:04:75:52:55:29:
         3d:0e:81:30:57:f8:c0:bf:e3:1b:39:ba:f6:f8:60:6f:92:03:
         41:60:f2:85:f6:3b:ea:9b:88:a9:a5:de:4f:01:bb:01:6b:2b:
         ae:6a:9a:f4:d2:75:d1:c2:c7:65:c5:cc:c0:68:56:c3:65:87:
         26:de:bf:e9:6b:79:a3:7f:63:75:5a:66:62:4c:29:e3:4c:02:
         4f:3e:84:0a:74:30:f6:00:2b:8a:04:2c:13:72:29:3a:c2:7f:
         e1:a8:ca:8b:c6:6b:cf:cb:64:f7:27:06:20:86:e2:9c:ef:39:
         42:d7:ff:03:69:6f:61:88:6b:02:b6:ab:ae:49:54:f5:d7:f3:
         80:3d:bd:73:8c:de:14:f7:82:63:08:c2:3c:e8:ec:c5:81:81:
         69:3c:f6:b8:ab:bd:fc:87:f5:4b:ef:1c:d4:f5:43:5b:a1:0f:
         57:07:58:8f:38:de:36:64:c9:35:48:9e:c0:14:dc:7c:bd:83:
         56:00:79:ff
-----BEGIN CERTIFICATE-----
MIIDXDCCAkSgAwIBAgIQfCwH5TuKQk/fIkKHii+hvTANBgkqhkiG9w0BAQsFADAW
MRQwEgYDVQQDDAt0ZWFtNTA1LW5ldDAeFw0yMTA5MTMwMzIxNDZaFw0yNDA4Mjgw
MzIxNDZaMBkxFzAVBgNVBAMMDnRlYW01MDUtY2xpZW50MIIBIjANBgkqhkiG9w0B
AQEFAAOCAQ8AMIIBCgKCAQEA1Hu3e6BJMVg11u7rdYx6FuJJH9GvamTWvNvygHKi
SNfz2RCBEw9FpeA9bULTDOdc9MpckaqfjnIPQhwqa6D3wASOYOcFC0nMz6wUSy9S
9+riF5btJ5/Ufwev0tWWNAle9G0ibpfjrbgDgXp9HBqysLN6ypy6QCmMU7Z53aRN
xfDQA2WA3MF3cQDRVQmezhqdpGnNPqS+KFXugIGH2xM/I2VdIqBn+HbWhy/4v0/1
R329axLgQaECgr7CpoBi+MRstEurx4yoEIlrxufelprzY9+yfWedIIi5z8Wfc67x
+E+jJc7ezZOc0esMzVq0ixYdUsB1gavDw53V8tlq94pQIwIDAQABo4GiMIGfMAkG
A1UdEwQCMAAwHQYDVR0OBBYEFIXc7KfyQ3+cyB/xiwMail45lOAEMFEGA1UdIwRK
MEiAFGKEWMsIkDWalcPj+2+XIDGdFKsloRqkGDAWMRQwEgYDVQQDDAt0ZWFtNTA1
LW5ldIIUSufiB0miJBS4qhwMxjKZMHxGhAUwEwYDVR0lBAwwCgYIKwYBBQUHAwIw
CwYDVR0PBAQDAgeAMA0GCSqGSIb3DQEBCwUAA4IBAQBTHL7uJ86hYmMk4rLSvZvq
WumpWjMmZCMCkKgmS25uhcNwfC8/PSqhGyNJBRhIksWkpyNsOJI7RX22pBNwPprV
Wk3WBHVSVSk9DoEwV/jAv+MbObr2+GBvkgNBYPKF9jvqm4ippd5PAbsBayuuapr0
0nXRwsdlxczAaFbDZYcm3r/pa3mjf2N1WmZiTCnjTAJPPoQKdDD2ACuKBCwTcik6
wn/hqMqLxmvPy2T3JwYghuKc7zlC1/8DaW9hiGsCtquuSVT11/OAPb1zjN4U94Jj
CMI86OzFgYFpPPa4q738h/VL7xzU9UNboQ9XB1iPON42ZMk1SJ7AFNx8vYNWAHn/
-----END CERTIFICATE-----
