Certificate:
    Data:
        Version: 3 (0x2)
        Serial Number:
            90:80:7b:dd:d4:b6:16:47:da:d2:2e:20:32:e0:44:5b
        Signature Algorithm: sha256WithRSAEncryption
        Issuer: CN=team476-net
        Validity
            Not Before: Sep 13 02:57:00 2021 GMT
            Not After : Aug 28 02:57:00 2024 GMT
        Subject: CN=team476-server
        Subject Public Key Info:
            Public Key Algorithm: rsaEncryption
                RSA Public-Key: (2048 bit)
                Modulus:
                    00:b7:0b:f1:9d:2b:e6:84:d6:99:c0:fe:06:89:66:
                    05:5c:07:c7:ac:a3:db:c5:e9:59:ad:7e:f4:eb:92:
                    5b:7a:cb:20:d6:74:f5:66:99:b3:6f:11:61:44:1c:
                    21:a1:46:99:e5:5b:e9:b7:9c:09:13:bf:4a:2e:02:
                    a3:09:2b:eb:cf:a7:d8:35:0d:d7:b6:0f:21:28:45:
                    34:e2:29:38:71:1d:5e:21:46:c6:dc:81:f2:1a:ce:
                    2d:0f:50:0f:35:54:b0:fd:4c:36:c2:93:5d:61:a3:
                    78:5d:bf:4a:e3:bb:de:0e:47:7a:8f:23:c2:6a:54:
                    52:d6:82:9a:39:7f:47:b8:96:7f:ce:32:10:cc:ac:
                    a2:ce:8d:1b:35:b2:df:68:0c:5a:d1:de:58:89:42:
                    e5:fe:45:aa:e1:2e:68:c3:15:3b:3d:42:93:3d:d5:
                    60:fd:94:11:39:dc:6d:2d:99:b6:d3:b8:a0:67:83:
                    e3:af:75:f1:19:62:29:25:ba:3c:66:7d:2a:5b:7c:
                    33:84:c2:d1:97:16:f1:cb:12:ec:b0:1a:88:2a:7b:
                    fd:e3:05:15:5a:b4:20:6a:3d:ae:43:28:c2:82:99:
                    33:a0:06:8b:c8:16:0d:20:e4:fe:ac:49:36:9f:1f:
                    7f:aa:d1:20:a3:d9:2e:5b:19:6b:dd:7e:50:0f:5b:
                    99:3d
                Exponent: 65537 (0x10001)
        X509v3 extensions:
            X509v3 Basic Constraints: 
                CA:FALSE
            X509v3 Subject Key Identifier: 
                C9:F2:E6:E0:36:AD:99:D7:09:77:C4:F6:6E:70:5F:41:2C:77:A9:45
            X509v3 Authority Key Identifier: 
                keyid:FB:55:F5:CC:06:6F:60:F1:54:DE:E8:F9:23:6A:72:4D:22:41:BC:A1
                DirName:/CN=team476-net
                serial:0F:BD:B9:4E:B1:57:55:21:AA:77:E4:66:DC:6C:32:5A:C0:6D:98:BC

            X509v3 Extended Key Usage: 
                TLS Web Server Authentication
            X509v3 Key Usage: 
                Digital Signature, Key Encipherment
            X509v3 Subject Alternative Name: 
                DNS:team476-server
    Signature Algorithm: sha256WithRSAEncryption
         2e:8d:51:65:88:a0:1f:ef:c5:6f:4f:72:ba:ca:53:f1:cd:a7:
         30:83:02:e2:02:cf:5e:82:f1:35:eb:ad:f5:f5:65:11:b5:9d:
         cb:49:4d:37:d9:1a:27:eb:6e:6d:e3:75:72:06:fe:3f:99:43:
         bb:e1:c1:ac:83:34:db:ce:3d:68:f3:d6:3b:f8:d1:8a:b4:ac:
         0b:dc:91:88:ac:36:72:14:88:e3:98:f3:5b:be:8a:c0:18:0d:
         e8:cb:b6:c5:c3:60:ac:f6:06:1c:d4:7d:29:1a:c7:2f:cf:73:
         4d:16:fe:cf:bd:d6:d3:28:92:03:94:2e:88:b5:25:27:9d:d0:
         eb:c2:ca:9e:51:e4:88:2f:1c:de:58:a6:97:70:37:dc:a4:6c:
         2b:90:2b:15:58:84:09:e1:e3:53:ab:3a:2e:37:ab:13:2a:17:
         8b:a9:c3:54:80:eb:b2:a0:99:f1:11:dc:6c:b4:43:00:a4:76:
         81:d9:59:ce:8f:b1:6b:19:30:53:eb:ba:e2:8b:cb:b8:49:45:
         94:8a:87:ae:69:64:e0:4f:55:e5:1a:7d:1d:b9:34:66:17:e2:
         ed:d2:9b:09:83:4f:94:5b:b1:1a:12:88:b9:a3:c1:43:97:03:
         c6:4f:88:44:02:cf:e6:d1:6d:da:44:50:d8:87:49:06:92:41:
         1d:fc:fd:1f
-----BEGIN CERTIFICATE-----
MIIDeDCCAmCgAwIBAgIRAJCAe93UthZH2tIuIDLgRFswDQYJKoZIhvcNAQELBQAw
FjEUMBIGA1UEAwwLdGVhbTQ3Ni1uZXQwHhcNMjEwOTEzMDI1NzAwWhcNMjQwODI4
MDI1NzAwWjAZMRcwFQYDVQQDDA50ZWFtNDc2LXNlcnZlcjCCASIwDQYJKoZIhvcN
AQEBBQADggEPADCCAQoCggEBALcL8Z0r5oTWmcD+BolmBVwHx6yj28XpWa1+9OuS
W3rLINZ09WaZs28RYUQcIaFGmeVb6becCRO/Si4Cowkr68+n2DUN17YPIShFNOIp
OHEdXiFGxtyB8hrOLQ9QDzVUsP1MNsKTXWGjeF2/SuO73g5Heo8jwmpUUtaCmjl/
R7iWf84yEMysos6NGzWy32gMWtHeWIlC5f5FquEuaMMVOz1Ckz3VYP2UETncbS2Z
ttO4oGeD46918RliKSW6PGZ9Klt8M4TC0ZcW8csS7LAaiCp7/eMFFVq0IGo9rkMo
woKZM6AGi8gWDSDk/qxJNp8ff6rRIKPZLlsZa91+UA9bmT0CAwEAAaOBvTCBujAJ
BgNVHRMEAjAAMB0GA1UdDgQWBBTJ8ubgNq2Z1wl3xPZucF9BLHepRTBRBgNVHSME
SjBIgBT7VfXMBm9g8VTe6PkjanJNIkG8oaEapBgwFjEUMBIGA1UEAwwLdGVhbTQ3
Ni1uZXSCFA+9uU6xV1UhqnfkZtxsMlrAbZi8MBMGA1UdJQQMMAoGCCsGAQUFBwMB
MAsGA1UdDwQEAwIFoDAZBgNVHREEEjAQgg50ZWFtNDc2LXNlcnZlcjANBgkqhkiG
9w0BAQsFAAOCAQEALo1RZYigH+/Fb09yuspT8c2nMIMC4gLPXoLxNeut9fVlEbWd
y0lNN9kaJ+tubeN1cgb+P5lDu+HBrIM02849aPPWO/jRirSsC9yRiKw2chSI45jz
W76KwBgN6Mu2xcNgrPYGHNR9KRrHL89zTRb+z73W0yiSA5QuiLUlJ53Q68LKnlHk
iC8c3liml3A33KRsK5ArFViECeHjU6s6LjerEyoXi6nDVIDrsqCZ8RHcbLRDAKR2
gdlZzo+xaxkwU+u64ovLuElFlIqHrmlk4E9V5Rp9Hbk0Zhfi7dKbCYNPlFuxGhKI
uaPBQ5cDxk+IRALP5tFt2kRQ2IdJBpJBHfz9Hw==
-----END CERTIFICATE-----
