Certificate:
    Data:
        Version: 3 (0x2)
        Serial Number:
            f5:79:cb:25:f7:f0:b5:24:65:ec:e1:52:2b:d4:7d:7b
        Signature Algorithm: sha256WithRSAEncryption
        Issuer: CN=team476-net
        Validity
            Not Before: Sep 13 02:57:00 2021 GMT
            Not After : Aug 28 02:57:00 2024 GMT
        Subject: CN=team476-client
        Subject Public Key Info:
            Public Key Algorithm: rsaEncryption
                RSA Public-Key: (2048 bit)
                Modulus:
                    00:bb:e4:8a:23:05:98:81:ca:29:a4:30:67:0f:8a:
                    a2:aa:f6:3c:89:03:28:69:d8:60:5c:1d:ee:d1:ca:
                    f6:19:04:62:9a:aa:c5:33:59:a8:5d:4c:d9:5e:cf:
                    01:1c:d7:b7:52:b0:e6:7e:c4:7a:76:0c:71:98:f4:
                    3b:6d:74:23:48:a4:97:36:de:84:2b:eb:88:b7:ae:
                    4e:df:1b:af:48:39:2b:9f:fb:ba:d9:80:51:f7:92:
                    91:ec:46:05:93:b2:25:07:0b:42:b1:f2:ca:4b:8e:
                    91:ea:43:fb:35:00:7c:0b:cc:a7:dc:cc:88:58:0a:
                    82:55:81:90:da:fd:5a:f1:52:14:b4:5a:43:07:77:
                    1b:df:b3:c4:db:35:2e:69:b9:73:23:37:25:af:67:
                    51:d3:cc:5f:12:8c:9d:16:13:d2:bd:15:31:66:4a:
                    4e:35:3d:38:69:05:e1:ab:3d:6e:90:31:09:28:29:
                    30:51:38:49:3f:e9:85:29:f1:ee:8f:42:a7:98:87:
                    ff:0b:fd:dd:e2:a9:74:e9:7e:da:b6:9a:36:db:10:
                    9f:35:ea:4d:e9:ee:62:8d:c3:01:de:57:df:da:48:
                    8f:d5:35:8b:42:b7:83:8e:ff:f8:22:81:03:94:d0:
                    6b:47:15:b1:a7:dd:03:d4:2a:d9:1e:81:a6:dd:75:
                    7c:97
                Exponent: 65537 (0x10001)
        X509v3 extensions:
            X509v3 Basic Constraints: 
                CA:FALSE
            X509v3 Subject Key Identifier: 
                2F:55:AB:E7:35:17:FF:05:C7:D7:D5:13:09:C6:73:B2:F9:6C:9B:DF
            X509v3 Authority Key Identifier: 
                keyid:FB:55:F5:CC:06:6F:60:F1:54:DE:E8:F9:23:6A:72:4D:22:41:BC:A1
                DirName:/CN=team476-net
                serial:0F:BD:B9:4E:B1:57:55:21:AA:77:E4:66:DC:6C:32:5A:C0:6D:98:BC

            X509v3 Extended Key Usage: 
                TLS Web Client Authentication
            X509v3 Key Usage: 
                Digital Signature
    Signature Algorithm: sha256WithRSAEncryption
         02:fd:ad:72:3a:6b:2a:e8:5b:d1:9e:35:f3:48:57:93:e0:b5:
         3f:b2:6d:f2:3e:2d:0c:0d:bb:98:8f:7c:d0:73:53:32:d2:c3:
         83:2b:19:3b:f8:56:5e:75:69:e8:f9:fa:7e:e0:ba:8a:49:be:
         aa:14:2b:f8:36:07:18:97:ed:4c:8b:10:a7:79:e2:44:18:79:
         d5:48:1a:1b:eb:40:36:ee:9c:4c:86:6a:2f:85:14:69:37:a2:
         34:f4:db:dc:ca:b7:56:3a:df:6c:ce:72:b0:5d:bc:1b:8d:24:
         7a:f0:9e:b9:94:68:11:cb:e1:40:94:3f:aa:c8:2e:44:f6:00:
         58:fb:0b:5a:e9:40:fb:78:1f:1b:26:94:fa:f7:47:4a:53:f5:
         83:fa:32:41:31:4e:06:4e:6d:74:70:e6:84:03:2c:6f:1d:b4:
         34:ec:5f:17:79:f4:e1:fb:25:65:a7:2c:34:81:de:83:44:5c:
         6c:25:01:93:81:3b:44:3c:bd:56:9e:ff:11:0f:c1:67:a8:fd:
         67:06:1c:20:3c:3a:a6:6f:94:33:bc:20:6e:5a:c0:45:da:2d:
         a8:f0:a7:a3:86:fd:dd:1b:5d:85:d7:2a:12:bc:c6:15:25:e5:
         90:48:44:cd:e4:bd:58:05:b9:8f:b6:66:c7:27:a7:6b:4b:f0:
         4e:b9:51:fd
-----BEGIN CERTIFICATE-----
MIIDXTCCAkWgAwIBAgIRAPV5yyX38LUkZezhUivUfXswDQYJKoZIhvcNAQELBQAw
FjEUMBIGA1UEAwwLdGVhbTQ3Ni1uZXQwHhcNMjEwOTEzMDI1NzAwWhcNMjQwODI4
MDI1NzAwWjAZMRcwFQYDVQQDDA50ZWFtNDc2LWNsaWVudDCCASIwDQYJKoZIhvcN
AQEBBQADggEPADCCAQoCggEBALvkiiMFmIHKKaQwZw+Koqr2PIkDKGnYYFwd7tHK
9hkEYpqqxTNZqF1M2V7PARzXt1Kw5n7EenYMcZj0O210I0iklzbehCvriLeuTt8b
r0g5K5/7utmAUfeSkexGBZOyJQcLQrHyykuOkepD+zUAfAvMp9zMiFgKglWBkNr9
WvFSFLRaQwd3G9+zxNs1Lmm5cyM3Ja9nUdPMXxKMnRYT0r0VMWZKTjU9OGkF4as9
bpAxCSgpMFE4ST/phSnx7o9Cp5iH/wv93eKpdOl+2raaNtsQnzXqTenuYo3DAd5X
39pIj9U1i0K3g47/+CKBA5TQa0cVsafdA9Qq2R6Bpt11fJcCAwEAAaOBojCBnzAJ
BgNVHRMEAjAAMB0GA1UdDgQWBBQvVavnNRf/BcfX1RMJxnOy+Wyb3zBRBgNVHSME
SjBIgBT7VfXMBm9g8VTe6PkjanJNIkG8oaEapBgwFjEUMBIGA1UEAwwLdGVhbTQ3
Ni1uZXSCFA+9uU6xV1UhqnfkZtxsMlrAbZi8MBMGA1UdJQQMMAoGCCsGAQUFBwMC
MAsGA1UdDwQEAwIHgDANBgkqhkiG9w0BAQsFAAOCAQEAAv2tcjprKuhb0Z4180hX
k+C1P7Jt8j4tDA27mI980HNTMtLDgysZO/hWXnVp6Pn6fuC6ikm+qhQr+DYHGJft
TIsQp3niRBh51UgaG+tANu6cTIZqL4UUaTeiNPTb3Mq3VjrfbM5ysF28G40kevCe
uZRoEcvhQJQ/qsguRPYAWPsLWulA+3gfGyaU+vdHSlP1g/oyQTFOBk5tdHDmhAMs
bx20NOxfF3n04fslZacsNIHeg0RcbCUBk4E7RDy9Vp7/EQ/BZ6j9ZwYcIDw6pm+U
M7wgblrARdotqPCno4b93RtdhdcqErzGFSXlkEhEzeS9WAW5j7Zmxyena0vwTrlR
/Q==
-----END CERTIFICATE-----
