Certificate:
    Data:
        Version: 3 (0x2)
        Serial Number:
            14:49:86:8b:39:7f:e5:0f:c3:6c:c5:05:48:86:e5:68
        Signature Algorithm: sha256WithRSAEncryption
        Issuer: CN=team326-net
        Validity
            Not Before: Sep 13 01:44:28 2021 GMT
            Not After : Aug 28 01:44:28 2024 GMT
        Subject: CN=team326-server
        Subject Public Key Info:
            Public Key Algorithm: rsaEncryption
                RSA Public-Key: (2048 bit)
                Modulus:
                    00:b3:99:b3:3d:76:01:48:64:2f:fc:78:df:30:7e:
                    80:c4:c6:20:bf:8e:29:04:b8:10:78:db:7e:43:1f:
                    61:75:44:54:c8:f2:50:22:cc:15:23:21:fa:c0:0b:
                    e5:7f:90:39:df:c1:ee:ca:11:08:80:b9:f3:6a:e7:
                    17:da:8c:5f:89:f0:4c:60:a8:b6:b1:dc:52:7a:b2:
                    73:d9:44:e7:c0:fb:e0:53:2d:ed:56:be:0b:45:37:
                    4b:a9:68:d2:f0:ec:94:63:56:8f:de:f2:9b:8c:cf:
                    ba:12:9a:a4:16:97:92:67:31:fa:f5:8a:86:53:89:
                    82:b0:50:63:23:78:af:ae:24:4f:8b:ec:30:ab:2e:
                    fe:9a:55:bc:08:4c:2c:c3:a7:85:1e:e7:64:88:c6:
                    a5:d0:32:ca:bb:42:07:03:7d:a7:26:aa:9e:d5:6b:
                    df:6a:43:c2:39:a2:b5:61:8c:14:ed:a0:22:70:57:
                    40:b2:3f:84:bf:6e:dc:15:8e:fa:4e:28:4d:06:a3:
                    40:f7:5b:80:8a:38:95:0f:c9:5e:bb:ce:65:b9:7b:
                    94:47:0e:8f:d3:f4:ae:f8:d9:87:df:73:d5:f7:79:
                    d8:69:99:5a:e5:8e:13:95:55:93:a7:e7:af:46:11:
                    2e:30:be:24:32:91:d9:c5:ce:2e:82:a0:8e:94:85:
                    02:53
                Exponent: 65537 (0x10001)
        X509v3 extensions:
            X509v3 Basic Constraints: 
                CA:FALSE
            X509v3 Subject Key Identifier: 
                A1:84:60:F0:04:B2:83:25:AF:DC:BF:F4:82:90:05:24:DE:A6:CE:88
            X509v3 Authority Key Identifier: 
                keyid:81:E1:D1:F4:63:0F:FE:84:92:D8:6C:EF:CB:BD:D7:9E:36:CC:E5:8D
                DirName:/CN=team326-net
                serial:7F:F1:0D:5E:95:42:D3:F5:25:1C:07:F9:E8:8D:53:97:A9:DB:8D:0B

            X509v3 Extended Key Usage: 
                TLS Web Server Authentication
            X509v3 Key Usage: 
                Digital Signature, Key Encipherment
            X509v3 Subject Alternative Name: 
                DNS:team326-server
    Signature Algorithm: sha256WithRSAEncryption
         3e:8c:d7:f0:19:a3:c7:ad:29:d2:7f:45:7c:97:2d:74:ab:8e:
         a3:87:4d:f9:f3:7d:5b:6f:04:92:f5:40:68:73:6f:0f:b6:4d:
         8f:b2:31:a7:79:4a:14:f5:23:a5:83:2b:80:9b:d3:b3:e3:a9:
         48:39:58:c8:49:f1:55:4c:0b:da:cc:78:80:33:fc:b1:51:70:
         99:a3:8f:bd:dd:ac:36:6c:cb:6c:79:16:eb:72:dc:d1:fd:3d:
         5b:dd:91:65:21:7d:99:96:6e:2e:cd:ca:81:ab:3b:59:90:8a:
         db:74:82:8c:51:0c:db:f1:8a:9d:70:8a:8a:ab:67:f0:9a:4e:
         17:e8:f9:b8:d4:8c:9c:c7:18:f9:65:97:a2:57:d3:e1:f4:68:
         e2:9e:04:cd:12:7d:54:a1:5e:b8:4b:c6:c0:4d:7c:60:f6:27:
         af:77:9b:43:fa:9c:00:8f:64:b2:f1:0f:ec:74:00:28:6b:7d:
         6f:c0:32:49:07:7a:ff:a0:37:ae:cf:8a:b2:1e:63:bf:e0:48:
         09:8e:62:6c:43:28:cd:8d:f7:d3:91:3c:1f:86:19:01:d0:37:
         c5:08:d1:e6:8e:57:a1:35:8b:85:eb:75:dc:0d:be:e6:8e:ab:
         9d:e3:84:84:4f:f5:d5:07:89:fa:b5:cd:89:ed:be:1f:39:3e:
         1b:6d:f5:24
-----BEGIN CERTIFICATE-----
MIIDdzCCAl+gAwIBAgIQFEmGizl/5Q/DbMUFSIblaDANBgkqhkiG9w0BAQsFADAW
MRQwEgYDVQQDDAt0ZWFtMzI2LW5ldDAeFw0yMTA5MTMwMTQ0MjhaFw0yNDA4Mjgw
MTQ0MjhaMBkxFzAVBgNVBAMMDnRlYW0zMjYtc2VydmVyMIIBIjANBgkqhkiG9w0B
AQEFAAOCAQ8AMIIBCgKCAQEAs5mzPXYBSGQv/HjfMH6AxMYgv44pBLgQeNt+Qx9h
dURUyPJQIswVIyH6wAvlf5A538HuyhEIgLnzaucX2oxfifBMYKi2sdxSerJz2UTn
wPvgUy3tVr4LRTdLqWjS8OyUY1aP3vKbjM+6EpqkFpeSZzH69YqGU4mCsFBjI3iv
riRPi+wwqy7+mlW8CEwsw6eFHudkiMal0DLKu0IHA32nJqqe1WvfakPCOaK1YYwU
7aAicFdAsj+Ev27cFY76TihNBqNA91uAijiVD8leu85luXuURw6P0/Su+NmH33PV
93nYaZla5Y4TlVWTp+evRhEuML4kMpHZxc4ugqCOlIUCUwIDAQABo4G9MIG6MAkG
A1UdEwQCMAAwHQYDVR0OBBYEFKGEYPAEsoMlr9y/9IKQBSTeps6IMFEGA1UdIwRK
MEiAFIHh0fRjD/6Ekths78u91542zOWNoRqkGDAWMRQwEgYDVQQDDAt0ZWFtMzI2
LW5ldIIUf/ENXpVC0/UlHAf56I1Tl6nbjQswEwYDVR0lBAwwCgYIKwYBBQUHAwEw
CwYDVR0PBAQDAgWgMBkGA1UdEQQSMBCCDnRlYW0zMjYtc2VydmVyMA0GCSqGSIb3
DQEBCwUAA4IBAQA+jNfwGaPHrSnSf0V8ly10q46jh035831bbwSS9UBoc28Ptk2P
sjGneUoU9SOlgyuAm9Oz46lIOVjISfFVTAvazHiAM/yxUXCZo4+93aw2bMtseRbr
ctzR/T1b3ZFlIX2Zlm4uzcqBqztZkIrbdIKMUQzb8YqdcIqKq2fwmk4X6Pm41Iyc
xxj5ZZeiV9Ph9GjingTNEn1UoV64S8bATXxg9ievd5tD+pwAj2Sy8Q/sdAAoa31v
wDJJB3r/oDeuz4qyHmO/4EgJjmJsQyjNjffTkTwfhhkB0DfFCNHmjlehNYuF63Xc
Db7mjqud44SET/XVB4n6tc2J7b4fOT4bbfUk
-----END CERTIFICATE-----
