Certificate:
    Data:
        Version: 3 (0x2)
        Serial Number:
            50:be:5b:53:3e:f8:58:ee:31:83:1f:20:16:c5:83:61
        Signature Algorithm: sha256WithRSAEncryption
        Issuer: CN=team267-net
        Validity
            Not Before: Sep 13 01:12:10 2021 GMT
            Not After : Aug 28 01:12:10 2024 GMT
        Subject: CN=team267-server
        Subject Public Key Info:
            Public Key Algorithm: rsaEncryption
                RSA Public-Key: (2048 bit)
                Modulus:
                    00:bc:f0:7f:6a:89:eb:47:2f:6a:65:00:9a:cc:d9:
                    e0:78:2f:f9:30:05:89:cb:9c:96:1f:3b:e2:14:62:
                    83:e7:7c:7e:9d:4f:b9:81:8a:01:7b:57:9d:f7:7a:
                    07:de:1b:7e:05:7a:79:85:3d:fe:85:6e:16:7d:0b:
                    68:4a:b7:ee:76:3d:d9:5a:43:04:ae:de:56:e3:7c:
                    6e:73:5d:62:01:bd:94:6c:42:39:34:19:df:c3:b0:
                    27:b7:b3:1b:97:b3:52:8d:df:af:56:76:9c:0b:43:
                    ef:ec:2c:69:b5:24:7f:60:b3:ae:00:61:06:2b:55:
                    18:74:1a:33:48:2c:46:07:83:dc:b9:f3:81:7d:12:
                    ad:90:9f:21:41:db:3f:37:97:db:80:b7:6b:3b:94:
                    14:10:b1:54:b0:86:ea:d8:eb:72:8c:57:82:0d:21:
                    4b:47:82:f2:a0:b7:89:9b:ba:41:1b:95:78:5c:ee:
                    2c:fd:ba:53:03:da:e4:4e:28:f5:36:f7:38:f6:50:
                    7c:df:28:7c:d1:51:3b:7d:9d:ed:74:81:08:a6:bd:
                    f2:e3:71:ef:87:87:19:a6:96:8d:61:c2:02:7a:ce:
                    7a:e3:b1:56:0f:7f:ea:69:d3:af:a6:92:b2:22:58:
                    b2:42:72:8d:74:c4:df:dd:b7:9f:e2:ed:ed:58:6d:
                    45:e1
                Exponent: 65537 (0x10001)
        X509v3 extensions:
            X509v3 Basic Constraints: 
                CA:FALSE
            X509v3 Subject Key Identifier: 
                DF:E8:A7:9D:10:5E:56:A4:B1:DA:9F:6F:A4:B7:8A:D6:48:0D:B2:AA
            X509v3 Authority Key Identifier: 
                keyid:4A:70:6F:F1:83:C2:4D:16:D9:63:55:29:D5:A2:72:80:46:AC:C3:B8
                DirName:/CN=team267-net
                serial:46:F5:1F:59:9D:0E:D0:C2:19:0D:21:11:2F:1A:5D:EB:D6:CB:06:7D

            X509v3 Extended Key Usage: 
                TLS Web Server Authentication
            X509v3 Key Usage: 
                Digital Signature, Key Encipherment
            X509v3 Subject Alternative Name: 
                DNS:team267-server
    Signature Algorithm: sha256WithRSAEncryption
         7d:38:2c:a7:a0:71:ef:75:f7:e4:72:fe:51:18:85:76:84:4d:
         af:c6:70:0c:f0:bf:83:4d:1c:72:ae:76:d6:0e:52:e2:62:f0:
         78:4c:21:bb:84:2b:84:b0:61:fc:26:f5:f6:45:d1:17:f1:25:
         09:68:e5:c6:45:58:a3:90:0d:ec:d5:35:66:b8:71:f9:a7:0a:
         74:2c:35:6c:13:55:d4:49:ef:fd:c5:8f:c8:45:ec:dd:43:aa:
         a1:cf:ee:c8:02:9e:44:e8:bb:7c:9f:e3:35:94:d6:6b:ad:a3:
         93:d1:62:e0:1e:d3:8f:06:e9:03:e9:ea:45:c9:fc:1a:59:0f:
         1e:c3:9b:06:f4:b2:20:cd:71:22:60:7e:63:08:b8:25:79:19:
         a2:e5:f7:15:c3:88:2c:57:ab:10:76:f0:6e:b6:6b:11:93:c6:
         c3:c8:45:49:cf:90:94:bc:ee:9a:91:a9:c9:91:ba:0e:bb:c9:
         77:d2:fa:5c:f9:3f:68:b3:2a:d6:c8:c2:07:5c:40:1e:22:12:
         33:97:88:72:4f:00:74:b7:26:61:1f:4a:90:90:4a:32:b7:ed:
         23:5b:da:6f:c9:6b:69:74:01:0b:cb:31:1d:ba:29:25:95:0a:
         58:a0:d9:9c:cc:f2:54:35:9b:3f:a3:d2:e4:16:c9:53:13:4d:
         e0:31:28:97
-----BEGIN CERTIFICATE-----
MIIDdzCCAl+gAwIBAgIQUL5bUz74WO4xgx8gFsWDYTANBgkqhkiG9w0BAQsFADAW
MRQwEgYDVQQDDAt0ZWFtMjY3LW5ldDAeFw0yMTA5MTMwMTEyMTBaFw0yNDA4Mjgw
MTEyMTBaMBkxFzAVBgNVBAMMDnRlYW0yNjctc2VydmVyMIIBIjANBgkqhkiG9w0B
AQEFAAOCAQ8AMIIBCgKCAQEAvPB/aonrRy9qZQCazNngeC/5MAWJy5yWHzviFGKD
53x+nU+5gYoBe1ed93oH3ht+BXp5hT3+hW4WfQtoSrfudj3ZWkMErt5W43xuc11i
Ab2UbEI5NBnfw7Ant7Mbl7NSjd+vVnacC0Pv7CxptSR/YLOuAGEGK1UYdBozSCxG
B4PcufOBfRKtkJ8hQds/N5fbgLdrO5QUELFUsIbq2OtyjFeCDSFLR4LyoLeJm7pB
G5V4XO4s/bpTA9rkTij1Nvc49lB83yh80VE7fZ3tdIEIpr3y43Hvh4cZppaNYcIC
es5647FWD3/qadOvppKyIliyQnKNdMTf3bef4u3tWG1F4QIDAQABo4G9MIG6MAkG
A1UdEwQCMAAwHQYDVR0OBBYEFN/op50QXlaksdqfb6S3itZIDbKqMFEGA1UdIwRK
MEiAFEpwb/GDwk0W2WNVKdWicoBGrMO4oRqkGDAWMRQwEgYDVQQDDAt0ZWFtMjY3
LW5ldIIURvUfWZ0O0MIZDSERLxpd69bLBn0wEwYDVR0lBAwwCgYIKwYBBQUHAwEw
CwYDVR0PBAQDAgWgMBkGA1UdEQQSMBCCDnRlYW0yNjctc2VydmVyMA0GCSqGSIb3
DQEBCwUAA4IBAQB9OCynoHHvdffkcv5RGIV2hE2vxnAM8L+DTRxyrnbWDlLiYvB4
TCG7hCuEsGH8JvX2RdEX8SUJaOXGRVijkA3s1TVmuHH5pwp0LDVsE1XUSe/9xY/I
RezdQ6qhz+7IAp5E6Lt8n+M1lNZrraOT0WLgHtOPBukD6epFyfwaWQ8ew5sG9LIg
zXEiYH5jCLgleRmi5fcVw4gsV6sQdvButmsRk8bDyEVJz5CUvO6akanJkboOu8l3
0vpc+T9osyrWyMIHXEAeIhIzl4hyTwB0tyZhH0qQkEoyt+0jW9pvyWtpdAELyzEd
uikllQpYoNmczPJUNZs/o9LkFslTE03gMSiX
-----END CERTIFICATE-----
