Certificate:
    Data:
        Version: 3 (0x2)
        Serial Number:
            83:11:93:0c:f5:4e:3c:ef:59:bc:6b:91:0c:17:bf:a7
        Signature Algorithm: sha256WithRSAEncryption
        Issuer: CN=team631-net
        Validity
            Not Before: Sep 13 04:16:10 2021 GMT
            Not After : Aug 28 04:16:10 2024 GMT
        Subject: CN=team631-server
        Subject Public Key Info:
            Public Key Algorithm: rsaEncryption
                RSA Public-Key: (2048 bit)
                Modulus:
                    00:be:d7:84:e6:e4:e5:e6:6d:76:6e:27:7c:6d:16:
                    b1:b0:75:7e:6a:48:56:64:e4:bd:0f:7d:65:18:39:
                    c4:00:8b:45:21:94:39:67:a2:ec:d4:b0:75:d2:02:
                    c1:a1:1d:0a:13:9c:33:a3:48:a4:b0:3d:65:d6:1a:
                    f0:e4:77:1c:fd:cc:7c:11:53:73:62:d1:8b:5e:b0:
                    c5:da:39:bd:99:ff:f5:c1:37:b0:53:7f:d7:47:51:
                    8b:03:05:4d:7e:62:1d:b3:99:a7:df:bb:9e:73:3c:
                    7f:82:19:61:7d:38:d7:5a:15:f5:f4:4e:03:9d:be:
                    f6:70:d5:e3:89:f5:d2:de:7b:c8:b0:2e:e1:14:80:
                    db:c7:b5:bd:6e:a0:6f:6d:ef:28:5c:fb:30:56:40:
                    1c:40:70:5b:b8:15:6d:3a:52:8e:ae:1a:0c:f1:58:
                    90:90:28:3f:e1:63:e0:30:93:99:96:fc:02:e4:f5:
                    3e:5e:e5:3e:91:2e:6d:be:54:01:ac:c4:61:74:ea:
                    68:1b:97:ff:d0:ec:da:75:4e:b7:0f:f9:6e:04:fa:
                    c6:32:7c:db:01:a5:ca:79:5a:a8:8f:79:46:d8:07:
                    0f:0b:5a:5e:24:37:0b:7b:4f:60:22:c8:bc:4a:58:
                    ad:60:0c:a4:5a:aa:1e:dc:df:9e:c6:19:5d:28:75:
                    42:91
                Exponent: 65537 (0x10001)
        X509v3 extensions:
            X509v3 Basic Constraints: 
                CA:FALSE
            X509v3 Subject Key Identifier: 
                8A:D9:E6:14:18:A2:01:17:53:B3:DF:ED:87:41:44:8F:27:22:74:D7
            X509v3 Authority Key Identifier: 
                keyid:09:8D:A9:BF:CB:5D:01:57:E5:F6:17:03:1F:4A:D2:9D:EF:A2:14:ED
                DirName:/CN=team631-net
                serial:31:CD:1C:21:37:12:44:DE:0D:57:6C:33:DB:85:C3:B1:53:44:35:70

            X509v3 Extended Key Usage: 
                TLS Web Server Authentication
            X509v3 Key Usage: 
                Digital Signature, Key Encipherment
            X509v3 Subject Alternative Name: 
                DNS:team631-server
    Signature Algorithm: sha256WithRSAEncryption
         56:c2:e3:07:bc:7d:d8:45:c6:d2:8a:f0:51:bd:72:bf:c3:56:
         31:20:83:53:85:c1:14:bc:43:40:ef:ed:50:da:6f:a0:50:4f:
         3b:c7:f0:b4:c8:2a:38:81:9b:7e:39:56:3f:b3:32:7f:67:39:
         5b:70:aa:0e:05:42:a6:94:53:ac:70:c4:60:de:27:0f:9c:9f:
         c8:4e:df:20:a0:61:1c:b0:bf:31:95:e1:bc:1a:26:37:da:0e:
         ab:9a:de:b2:05:80:88:68:eb:c0:60:11:ae:4c:d3:80:e2:20:
         05:38:07:96:1c:45:bd:e6:ce:f3:95:57:f4:42:0c:32:63:72:
         3e:73:68:6d:33:a0:39:6b:c3:29:82:d2:9e:70:05:f7:3a:67:
         1f:a6:29:67:d5:c3:6b:45:dd:f1:cc:60:3e:d3:4d:cc:18:e2:
         87:d8:f4:5e:ea:13:98:92:ff:39:91:c2:79:c6:c7:ea:ff:92:
         d0:14:80:9d:0c:11:22:f2:72:51:15:7e:b7:a3:07:56:b4:2b:
         f2:e5:8c:7d:fc:0e:e8:a6:3e:0e:46:08:1b:47:8c:4b:e5:9f:
         37:2e:38:77:e0:04:0a:2e:ac:03:60:1e:60:c7:46:fc:84:84:
         88:d2:fc:43:0f:0e:40:97:de:57:f2:51:23:81:54:94:8d:b0:
         c1:7b:e5:30
-----BEGIN CERTIFICATE-----
MIIDeDCCAmCgAwIBAgIRAIMRkwz1TjzvWbxrkQwXv6cwDQYJKoZIhvcNAQELBQAw
FjEUMBIGA1UEAwwLdGVhbTYzMS1uZXQwHhcNMjEwOTEzMDQxNjEwWhcNMjQwODI4
MDQxNjEwWjAZMRcwFQYDVQQDDA50ZWFtNjMxLXNlcnZlcjCCASIwDQYJKoZIhvcN
AQEBBQADggEPADCCAQoCggEBAL7XhObk5eZtdm4nfG0WsbB1fmpIVmTkvQ99ZRg5
xACLRSGUOWei7NSwddICwaEdChOcM6NIpLA9ZdYa8OR3HP3MfBFTc2LRi16wxdo5
vZn/9cE3sFN/10dRiwMFTX5iHbOZp9+7nnM8f4IZYX0411oV9fROA52+9nDV44n1
0t57yLAu4RSA28e1vW6gb23vKFz7MFZAHEBwW7gVbTpSjq4aDPFYkJAoP+Fj4DCT
mZb8AuT1Pl7lPpEubb5UAazEYXTqaBuX/9Ds2nVOtw/5bgT6xjJ82wGlynlaqI95
RtgHDwtaXiQ3C3tPYCLIvEpYrWAMpFqqHtzfnsYZXSh1QpECAwEAAaOBvTCBujAJ
BgNVHRMEAjAAMB0GA1UdDgQWBBSK2eYUGKIBF1Oz3+2HQUSPJyJ01zBRBgNVHSME
SjBIgBQJjam/y10BV+X2FwMfStKd76IU7aEapBgwFjEUMBIGA1UEAwwLdGVhbTYz
MS1uZXSCFDHNHCE3EkTeDVdsM9uFw7FTRDVwMBMGA1UdJQQMMAoGCCsGAQUFBwMB
MAsGA1UdDwQEAwIFoDAZBgNVHREEEjAQgg50ZWFtNjMxLXNlcnZlcjANBgkqhkiG
9w0BAQsFAAOCAQEAVsLjB7x92EXG0orwUb1yv8NWMSCDU4XBFLxDQO/tUNpvoFBP
O8fwtMgqOIGbfjlWP7Myf2c5W3CqDgVCppRTrHDEYN4nD5yfyE7fIKBhHLC/MZXh
vBomN9oOq5resgWAiGjrwGARrkzTgOIgBTgHlhxFvebO85VX9EIMMmNyPnNobTOg
OWvDKYLSnnAF9zpnH6YpZ9XDa0Xd8cxgPtNNzBjih9j0XuoTmJL/OZHCecbH6v+S
0BSAnQwRIvJyURV+t6MHVrQr8uWMffwO6KY+DkYIG0eMS+WfNy44d+AECi6sA2Ae
YMdG/ISEiNL8Qw8OQJfeV/JRI4FUlI2wwXvlMA==
-----END CERTIFICATE-----
