Certificate:
    Data:
        Version: 3 (0x2)
        Serial Number:
            d0:ba:dc:02:56:fe:d6:e8:aa:e6:18:7e:3c:0e:13:e4
        Signature Algorithm: sha256WithRSAEncryption
        Issuer: CN=team631-net
        Validity
            Not Before: Sep 13 04:16:10 2021 GMT
            Not After : Aug 28 04:16:10 2024 GMT
        Subject: CN=team631-client
        Subject Public Key Info:
            Public Key Algorithm: rsaEncryption
                RSA Public-Key: (2048 bit)
                Modulus:
                    00:cc:70:50:3f:89:ee:5a:47:f3:ec:a1:13:5c:b2:
                    ab:bf:df:50:ac:12:3d:7c:a7:87:e9:48:23:20:97:
                    d4:34:38:e3:46:c0:5c:68:91:27:87:0d:68:9f:73:
                    49:39:d1:41:09:ab:2f:e5:99:a4:f1:5a:08:b1:3a:
                    16:4b:31:2c:90:f2:3e:76:cd:f1:c6:99:44:3b:cd:
                    fd:f7:83:f9:37:2e:d8:b9:66:8d:5d:c7:29:1d:45:
                    ea:18:30:6a:22:86:3e:e5:5a:eb:bc:ec:64:cd:09:
                    30:1b:63:52:c4:f9:4c:fd:e5:cd:ad:ac:ac:12:57:
                    83:8f:04:4e:ad:0a:d7:96:46:b1:47:55:95:3f:81:
                    13:c7:97:7f:62:2f:ec:8d:37:b2:d7:f8:5e:17:7e:
                    1b:23:3c:e8:a8:2e:f8:7f:b2:22:f6:0e:b7:3e:45:
                    08:d0:e3:c0:6a:57:91:65:99:ca:88:13:c7:8c:ed:
                    7d:1c:df:3b:2d:c0:cf:29:bf:13:8f:13:0c:dc:3d:
                    2d:91:41:73:a0:b3:17:54:70:15:7c:c8:8b:04:a7:
                    c1:6d:04:d1:ed:ce:52:05:3c:18:a0:25:41:46:20:
                    87:b4:5b:e3:d2:fa:aa:e9:cc:a5:11:a0:96:55:7f:
                    d4:7f:1d:57:9f:54:de:b0:95:0b:32:43:d9:78:21:
                    f3:65
                Exponent: 65537 (0x10001)
        X509v3 extensions:
            X509v3 Basic Constraints: 
                CA:FALSE
            X509v3 Subject Key Identifier: 
                3A:85:68:1B:A1:44:5A:35:9B:0E:03:9C:FF:D2:88:FE:7E:E4:78:F4
            X509v3 Authority Key Identifier: 
                keyid:09:8D:A9:BF:CB:5D:01:57:E5:F6:17:03:1F:4A:D2:9D:EF:A2:14:ED
                DirName:/CN=team631-net
                serial:31:CD:1C:21:37:12:44:DE:0D:57:6C:33:DB:85:C3:B1:53:44:35:70

            X509v3 Extended Key Usage: 
                TLS Web Client Authentication
            X509v3 Key Usage: 
                Digital Signature
    Signature Algorithm: sha256WithRSAEncryption
         ca:bd:79:65:47:9a:ac:3d:cf:b2:8d:b2:9b:5d:52:89:e5:3e:
         06:0e:43:53:15:a8:a2:c2:39:29:6b:bc:50:0e:b4:01:fc:fd:
         25:ac:71:78:65:bf:23:b3:13:aa:04:f6:5f:87:f2:33:3b:75:
         ad:8d:47:fb:dd:15:12:c1:09:42:7c:8b:4a:ca:a3:3b:36:ed:
         f5:39:a5:29:67:0a:3d:ad:88:e8:2b:30:1f:ed:d2:0f:a5:03:
         77:71:46:6b:26:50:1a:03:17:cb:4a:fd:2a:8d:e2:20:a2:9a:
         33:81:bc:f9:a2:f4:1f:25:ff:9a:6e:63:9c:21:e8:e0:c8:a0:
         6d:44:1a:78:af:40:33:ea:c3:a1:43:f6:24:72:7b:d3:b0:36:
         cd:cd:a7:78:46:4d:72:77:e6:ee:01:68:3d:24:4c:ff:37:04:
         0b:84:8b:54:f3:7d:43:1c:c6:e5:82:6e:85:30:8c:41:b8:12:
         62:d2:40:ea:69:4c:e0:a8:b9:7a:b5:89:10:cf:d9:0f:be:b7:
         ca:69:23:bc:f2:9b:89:66:02:73:d5:f4:8e:99:07:f8:2b:5d:
         f0:d3:d0:e3:08:b8:77:b5:69:ff:af:8f:52:3e:64:7b:8f:f6:
         4b:66:8e:8f:6c:6c:9b:9a:d4:ed:76:20:84:07:5d:ac:b7:21:
         f0:ff:be:6a
-----BEGIN CERTIFICATE-----
MIIDXTCCAkWgAwIBAgIRANC63AJW/tboquYYfjwOE+QwDQYJKoZIhvcNAQELBQAw
FjEUMBIGA1UEAwwLdGVhbTYzMS1uZXQwHhcNMjEwOTEzMDQxNjEwWhcNMjQwODI4
MDQxNjEwWjAZMRcwFQYDVQQDDA50ZWFtNjMxLWNsaWVudDCCASIwDQYJKoZIhvcN
AQEBBQADggEPADCCAQoCggEBAMxwUD+J7lpH8+yhE1yyq7/fUKwSPXynh+lIIyCX
1DQ440bAXGiRJ4cNaJ9zSTnRQQmrL+WZpPFaCLE6FksxLJDyPnbN8caZRDvN/feD
+Tcu2LlmjV3HKR1F6hgwaiKGPuVa67zsZM0JMBtjUsT5TP3lza2srBJXg48ETq0K
15ZGsUdVlT+BE8eXf2Iv7I03stf4Xhd+GyM86Kgu+H+yIvYOtz5FCNDjwGpXkWWZ
yogTx4ztfRzfOy3Azym/E48TDNw9LZFBc6CzF1RwFXzIiwSnwW0E0e3OUgU8GKAl
QUYgh7Rb49L6qunMpRGgllV/1H8dV59U3rCVCzJD2Xgh82UCAwEAAaOBojCBnzAJ
BgNVHRMEAjAAMB0GA1UdDgQWBBQ6hWgboURaNZsOA5z/0oj+fuR49DBRBgNVHSME
SjBIgBQJjam/y10BV+X2FwMfStKd76IU7aEapBgwFjEUMBIGA1UEAwwLdGVhbTYz
MS1uZXSCFDHNHCE3EkTeDVdsM9uFw7FTRDVwMBMGA1UdJQQMMAoGCCsGAQUFBwMC
MAsGA1UdDwQEAwIHgDANBgkqhkiG9w0BAQsFAAOCAQEAyr15ZUearD3Pso2ym11S
ieU+Bg5DUxWoosI5KWu8UA60Afz9JaxxeGW/I7MTqgT2X4fyMzt1rY1H+90VEsEJ
QnyLSsqjOzbt9TmlKWcKPa2I6CswH+3SD6UDd3FGayZQGgMXy0r9Ko3iIKKaM4G8
+aL0HyX/mm5jnCHo4MigbUQaeK9AM+rDoUP2JHJ707A2zc2neEZNcnfm7gFoPSRM
/zcEC4SLVPN9QxzG5YJuhTCMQbgSYtJA6mlM4Ki5erWJEM/ZD763ymkjvPKbiWYC
c9X0jpkH+Ctd8NPQ4wi4d7Vp/6+PUj5ke4/2S2aOj2xsm5rU7XYghAddrLch8P++
ag==
-----END CERTIFICATE-----
