Certificate:
    Data:
        Version: 3 (0x2)
        Serial Number:
            5f:d3:10:bb:83:81:05:67:2c:fa:86:6c:35:de:c0:30
        Signature Algorithm: sha256WithRSAEncryption
        Issuer: CN=team446-net
        Validity
            Not Before: Sep 13 02:39:26 2021 GMT
            Not After : Aug 28 02:39:26 2024 GMT
        Subject: CN=team446-client
        Subject Public Key Info:
            Public Key Algorithm: rsaEncryption
                RSA Public-Key: (2048 bit)
                Modulus:
                    00:bb:ac:72:d1:78:88:05:e9:83:8a:04:94:b6:77:
                    19:a5:23:32:d8:db:63:76:3c:a4:49:62:d8:c1:bb:
                    cc:11:be:90:f3:9f:d9:6f:88:a5:e3:22:ac:5e:44:
                    80:4e:a3:07:75:47:4e:52:b5:55:bf:10:9d:1d:bb:
                    e8:e4:03:07:46:19:a1:02:99:67:fa:2e:21:27:83:
                    db:fb:6e:49:33:1b:a6:f1:03:4a:1d:b1:7b:84:5b:
                    24:a8:13:0a:3b:09:33:81:10:fc:63:8e:8e:e5:32:
                    c3:4c:12:9f:ea:4f:df:85:1e:7b:c9:3e:78:e8:ad:
                    7c:e9:c1:a8:9c:14:97:64:23:c4:33:8e:6a:96:ab:
                    b0:a5:85:f2:69:53:f8:a8:d1:62:49:ed:4a:8f:8a:
                    69:82:32:62:e8:87:ec:f0:15:7b:fd:98:51:23:cb:
                    9e:bf:62:0b:9f:53:84:9e:64:53:99:17:95:59:1b:
                    db:6b:b9:76:52:b1:d8:ec:c4:d5:45:75:99:88:3b:
                    45:4c:4d:2e:61:0b:7b:cd:de:7f:21:b4:87:2e:7e:
                    ba:17:8c:50:18:51:3f:6a:bb:ae:93:78:a3:4f:c9:
                    14:b3:1a:77:72:2a:ee:03:41:a5:65:f6:bf:33:20:
                    99:83:1b:a0:f8:7d:62:12:7a:d0:07:f7:1a:a9:7a:
                    8e:09
                Exponent: 65537 (0x10001)
        X509v3 extensions:
            X509v3 Basic Constraints: 
                CA:FALSE
            X509v3 Subject Key Identifier: 
                E3:93:FB:00:B8:E2:4A:F4:5E:8A:AA:68:ED:DA:9F:B5:39:A5:78:F8
            X509v3 Authority Key Identifier: 
                keyid:CA:0E:84:1F:CC:91:52:B4:57:3B:2F:E8:83:18:F9:41:DD:E3:84:E9
                DirName:/CN=team446-net
                serial:30:62:B6:50:7A:60:1B:71:1B:E5:5E:79:8B:8D:13:10:1E:4F:86:0A

            X509v3 Extended Key Usage: 
                TLS Web Client Authentication
            X509v3 Key Usage: 
                Digital Signature
    Signature Algorithm: sha256WithRSAEncryption
         6a:5c:67:b8:8c:31:de:50:24:aa:85:34:2f:24:ad:1f:f4:df:
         e5:5e:3b:8e:c3:df:e5:4b:6a:30:6e:1f:64:b4:7b:fa:43:68:
         ce:0f:11:91:0e:9d:b3:e8:9a:e4:7e:69:40:ee:05:79:7e:e8:
         30:3a:e4:40:f4:b0:26:74:ce:33:5b:82:54:26:dd:77:57:58:
         29:9c:84:b6:24:f8:03:43:36:65:d3:c9:6d:35:c4:5b:ea:0a:
         13:e1:a3:6a:00:27:e5:d0:d5:98:96:ca:9f:2f:f5:88:59:f6:
         a5:84:97:10:8a:66:3c:ea:68:ad:a3:0f:1a:6c:e0:28:64:36:
         21:2a:7b:9e:b2:60:23:51:86:29:83:d0:e0:21:66:7a:b0:31:
         6f:02:97:36:a1:c8:73:b2:c0:c2:a3:a7:fd:d4:07:21:1a:a2:
         bf:a1:f0:4a:51:11:f2:85:4c:84:4c:96:0c:83:b4:e7:ed:72:
         3d:91:d0:c7:b1:34:78:8d:54:c5:0b:02:f0:df:5b:05:cc:76:
         5f:f0:c1:90:cf:e5:72:47:74:29:b3:ed:98:d9:64:e0:28:5b:
         20:ac:97:66:96:c1:f1:66:08:b9:5f:3c:60:b4:0e:15:77:66:
         36:1f:93:ff:40:79:f0:f3:69:e7:43:b5:0b:85:d8:79:40:d0:
         da:82:7f:56
-----BEGIN CERTIFICATE-----
MIIDXDCCAkSgAwIBAgIQX9MQu4OBBWcs+oZsNd7AMDANBgkqhkiG9w0BAQsFADAW
MRQwEgYDVQQDDAt0ZWFtNDQ2LW5ldDAeFw0yMTA5MTMwMjM5MjZaFw0yNDA4Mjgw
MjM5MjZaMBkxFzAVBgNVBAMMDnRlYW00NDYtY2xpZW50MIIBIjANBgkqhkiG9w0B
AQEFAAOCAQ8AMIIBCgKCAQEAu6xy0XiIBemDigSUtncZpSMy2NtjdjykSWLYwbvM
Eb6Q85/Zb4il4yKsXkSATqMHdUdOUrVVvxCdHbvo5AMHRhmhApln+i4hJ4Pb+25J
Mxum8QNKHbF7hFskqBMKOwkzgRD8Y46O5TLDTBKf6k/fhR57yT546K186cGonBSX
ZCPEM45qlquwpYXyaVP4qNFiSe1Kj4ppgjJi6Ifs8BV7/ZhRI8uev2ILn1OEnmRT
mReVWRvba7l2UrHY7MTVRXWZiDtFTE0uYQt7zd5/IbSHLn66F4xQGFE/aruuk3ij
T8kUsxp3ciruA0GlZfa/MyCZgxug+H1iEnrQB/caqXqOCQIDAQABo4GiMIGfMAkG
A1UdEwQCMAAwHQYDVR0OBBYEFOOT+wC44kr0XoqqaO3an7U5pXj4MFEGA1UdIwRK
MEiAFMoOhB/MkVK0Vzsv6IMY+UHd44TpoRqkGDAWMRQwEgYDVQQDDAt0ZWFtNDQ2
LW5ldIIUMGK2UHpgG3Eb5V55i40TEB5PhgowEwYDVR0lBAwwCgYIKwYBBQUHAwIw
CwYDVR0PBAQDAgeAMA0GCSqGSIb3DQEBCwUAA4IBAQBqXGe4jDHeUCSqhTQvJK0f
9N/lXjuOw9/lS2owbh9ktHv6Q2jODxGRDp2z6JrkfmlA7gV5fugwOuRA9LAmdM4z
W4JUJt13V1gpnIS2JPgDQzZl08ltNcRb6goT4aNqACfl0NWYlsqfL/WIWfalhJcQ
imY86mitow8abOAoZDYhKnuesmAjUYYpg9DgIWZ6sDFvApc2ochzssDCo6f91Ach
GqK/ofBKURHyhUyETJYMg7Tn7XI9kdDHsTR4jVTFCwLw31sFzHZf8MGQz+VyR3Qp
s+2Y2WTgKFsgrJdmlsHxZgi5XzxgtA4Vd2Y2H5P/QHnw82nnQ7ULhdh5QNDagn9W
-----END CERTIFICATE-----
