Certificate:
    Data:
        Version: 3 (0x2)
        Serial Number:
            91:36:43:9e:fc:4b:aa:9f:c1:22:36:cf:ee:51:de:13
        Signature Algorithm: sha256WithRSAEncryption
        Issuer: CN=team446-net
        Validity
            Not Before: Sep 13 02:39:26 2021 GMT
            Not After : Aug 28 02:39:26 2024 GMT
        Subject: CN=team446-server
        Subject Public Key Info:
            Public Key Algorithm: rsaEncryption
                RSA Public-Key: (2048 bit)
                Modulus:
                    00:ca:c7:1b:fe:c5:42:54:72:21:0c:c3:b7:5e:32:
                    b2:f8:b4:c2:84:b4:58:72:9e:d4:e8:16:e7:01:bc:
                    36:5e:f7:ba:0b:30:d7:5c:30:d7:25:11:8c:e0:d2:
                    39:e6:02:60:7f:73:0b:60:d5:89:5f:8d:e9:21:82:
                    53:72:c1:bc:57:2a:08:ee:0a:d1:bb:ed:56:c1:9b:
                    ae:6e:d9:3c:d0:2f:70:5a:8f:4f:ad:a5:44:6e:36:
                    11:72:f4:fb:1b:2d:68:da:ff:d0:31:c0:d8:96:12:
                    3d:21:bc:a3:53:56:8d:a7:06:19:57:23:31:0a:17:
                    58:0f:df:f6:a0:64:8d:b6:58:a0:86:66:b2:02:24:
                    20:15:bd:2a:5f:e2:29:2f:ba:61:c2:f1:f2:b7:f9:
                    c5:29:15:80:b8:f6:69:ce:4a:12:fe:94:cd:23:46:
                    37:6b:35:8f:5d:e8:49:26:5f:5a:0d:cf:52:cc:28:
                    e6:28:ea:7b:79:c2:0a:d6:f2:9b:d7:43:6f:d0:b1:
                    52:fc:ae:df:24:65:f9:88:be:34:51:22:04:f7:d6:
                    87:ac:a8:7e:d2:29:a5:f0:60:22:f9:81:04:fd:b7:
                    c9:b1:95:ff:1c:ec:7d:29:96:ac:07:53:c2:1e:4b:
                    54:43:38:cc:b6:af:6d:45:c9:c3:1e:da:5f:38:b9:
                    37:f5
                Exponent: 65537 (0x10001)
        X509v3 extensions:
            X509v3 Basic Constraints: 
                CA:FALSE
            X509v3 Subject Key Identifier: 
                3C:0A:1B:43:F2:87:5E:81:23:CA:BA:FA:CE:20:8B:B7:DF:B7:1E:43
            X509v3 Authority Key Identifier: 
                keyid:CA:0E:84:1F:CC:91:52:B4:57:3B:2F:E8:83:18:F9:41:DD:E3:84:E9
                DirName:/CN=team446-net
                serial:30:62:B6:50:7A:60:1B:71:1B:E5:5E:79:8B:8D:13:10:1E:4F:86:0A

            X509v3 Extended Key Usage: 
                TLS Web Server Authentication
            X509v3 Key Usage: 
                Digital Signature, Key Encipherment
            X509v3 Subject Alternative Name: 
                DNS:team446-server
    Signature Algorithm: sha256WithRSAEncryption
         66:fc:e9:fd:28:21:91:f1:a9:33:47:19:4c:aa:41:90:34:1c:
         43:de:77:3a:f7:28:3a:7a:a0:7d:5f:46:4f:5a:9b:b8:1e:85:
         8d:f3:72:47:b2:c2:b4:f3:2a:a1:0e:e1:cd:09:99:7b:cf:75:
         7d:55:e1:31:54:12:ee:43:1b:ae:2d:04:ca:1a:7e:8c:d1:f0:
         fa:0f:fb:38:a0:32:31:c5:e7:db:a5:b7:f5:d3:ed:1e:6b:ed:
         02:bf:d0:04:86:1d:c9:46:f6:07:16:65:fc:1f:5a:cb:d3:20:
         01:62:63:73:ae:5c:f8:af:e4:da:1c:fa:85:91:75:89:d4:1d:
         6e:17:b5:6b:59:63:a9:fc:30:86:65:f6:ea:f3:20:78:1c:ad:
         67:a2:d6:36:c7:40:6e:64:29:73:f2:8c:2b:d9:88:82:63:a0:
         ce:42:2a:db:c5:04:85:a9:32:77:51:b7:c7:18:6b:4a:ad:eb:
         99:96:ef:0c:d8:99:8d:ff:f8:0e:fb:19:d6:fe:67:8e:df:ea:
         51:20:0f:1e:8c:dc:c7:a2:d7:3b:a8:fc:fb:ae:c8:43:d3:cd:
         e5:db:62:25:64:0f:f0:44:65:7f:0f:5f:5e:80:e3:84:ec:4c:
         c5:ff:c1:dc:3f:98:1c:66:ba:da:60:9c:2a:6a:95:f1:85:6b:
         ad:99:27:c7
-----BEGIN CERTIFICATE-----
MIIDeDCCAmCgAwIBAgIRAJE2Q578S6qfwSI2z+5R3hMwDQYJKoZIhvcNAQELBQAw
FjEUMBIGA1UEAwwLdGVhbTQ0Ni1uZXQwHhcNMjEwOTEzMDIzOTI2WhcNMjQwODI4
MDIzOTI2WjAZMRcwFQYDVQQDDA50ZWFtNDQ2LXNlcnZlcjCCASIwDQYJKoZIhvcN
AQEBBQADggEPADCCAQoCggEBAMrHG/7FQlRyIQzDt14ysvi0woS0WHKe1OgW5wG8
Nl73ugsw11ww1yURjODSOeYCYH9zC2DViV+N6SGCU3LBvFcqCO4K0bvtVsGbrm7Z
PNAvcFqPT62lRG42EXL0+xstaNr/0DHA2JYSPSG8o1NWjacGGVcjMQoXWA/f9qBk
jbZYoIZmsgIkIBW9Kl/iKS+6YcLx8rf5xSkVgLj2ac5KEv6UzSNGN2s1j13oSSZf
Wg3PUswo5ijqe3nCCtbym9dDb9CxUvyu3yRl+Yi+NFEiBPfWh6yoftIppfBgIvmB
BP23ybGV/xzsfSmWrAdTwh5LVEM4zLavbUXJwx7aXzi5N/UCAwEAAaOBvTCBujAJ
BgNVHRMEAjAAMB0GA1UdDgQWBBQ8ChtD8odegSPKuvrOIIu337ceQzBRBgNVHSME
SjBIgBTKDoQfzJFStFc7L+iDGPlB3eOE6aEapBgwFjEUMBIGA1UEAwwLdGVhbTQ0
Ni1uZXSCFDBitlB6YBtxG+VeeYuNExAeT4YKMBMGA1UdJQQMMAoGCCsGAQUFBwMB
MAsGA1UdDwQEAwIFoDAZBgNVHREEEjAQgg50ZWFtNDQ2LXNlcnZlcjANBgkqhkiG
9w0BAQsFAAOCAQEAZvzp/SghkfGpM0cZTKpBkDQcQ953OvcoOnqgfV9GT1qbuB6F
jfNyR7LCtPMqoQ7hzQmZe891fVXhMVQS7kMbri0Eyhp+jNHw+g/7OKAyMcXn26W3
9dPtHmvtAr/QBIYdyUb2BxZl/B9ay9MgAWJjc65c+K/k2hz6hZF1idQdbhe1a1lj
qfwwhmX26vMgeBytZ6LWNsdAbmQpc/KMK9mIgmOgzkIq28UEhakyd1G3xxhrSq3r
mZbvDNiZjf/4DvsZ1v5njt/qUSAPHozcx6LXO6j8+67IQ9PN5dtiJWQP8ERlfw9f
XoDjhOxMxf/B3D+YHGa62mCcKmqV8YVrrZknxw==
-----END CERTIFICATE-----
