Certificate:
    Data:
        Version: 3 (0x2)
        Serial Number:
            5c:69:69:e9:0c:cf:34:1b:5e:c5:55:92:4b:f6:ef:95
        Signature Algorithm: sha256WithRSAEncryption
        Issuer: CN=team4-net
        Validity
            Not Before: Sep 12 22:37:45 2021 GMT
            Not After : Aug 27 22:37:45 2024 GMT
        Subject: CN=team4-server
        Subject Public Key Info:
            Public Key Algorithm: rsaEncryption
                RSA Public-Key: (2048 bit)
                Modulus:
                    00:be:47:40:cd:db:12:d0:5d:7b:d3:84:52:cf:b6:
                    52:a2:7b:6f:4b:9c:ec:a8:49:c2:c1:ee:02:2f:b6:
                    35:e7:b2:bd:18:be:ba:16:ea:91:cc:90:f5:c5:99:
                    ac:ad:17:b9:18:11:40:a5:d2:ce:36:7a:c2:0b:c1:
                    a7:b2:e0:72:c0:cd:d0:cf:46:1f:42:64:a2:e2:04:
                    87:6a:e8:0c:a3:16:1e:29:4b:64:d9:2f:c5:c7:6d:
                    fa:39:29:ae:9e:cd:89:c8:29:ab:b3:7c:9e:38:0f:
                    f1:80:78:59:0b:5c:8c:e1:36:a1:15:bb:90:7b:fc:
                    0d:c8:47:40:11:9f:6b:e6:b5:53:17:8f:34:ec:a8:
                    67:c8:57:f4:44:4d:dc:fe:16:4d:4f:86:1d:95:9a:
                    79:19:4d:a3:c9:60:eb:ed:9e:ec:7f:5f:6c:22:d3:
                    22:d1:6e:07:80:57:5c:2b:6e:8f:15:c7:6a:f2:18:
                    6f:8d:03:5e:ca:67:4f:1b:ce:cb:84:dc:ce:44:84:
                    06:07:fc:a2:8b:92:c1:43:84:cf:99:be:b6:58:9d:
                    cb:07:79:2f:c6:9d:ea:ca:a1:17:37:fb:d4:1b:4a:
                    14:4a:b0:34:4e:64:3c:29:cf:1b:95:a5:f4:50:93:
                    3d:16:61:5f:01:b0:a7:d7:5f:05:83:09:c3:f6:40:
                    ba:35
                Exponent: 65537 (0x10001)
        X509v3 extensions:
            X509v3 Basic Constraints: 
                CA:FALSE
            X509v3 Subject Key Identifier: 
                D5:0F:C7:05:67:80:DA:AA:23:B8:DC:F9:9C:60:6B:99:6A:F2:55:CA
            X509v3 Authority Key Identifier: 
                keyid:50:4E:2B:8C:74:2D:1F:45:24:DB:83:E6:6D:C8:F5:00:EA:E2:C4:95
                DirName:/CN=team4-net
                serial:6F:01:FA:3F:9D:32:14:29:01:DF:D1:6D:C9:74:A9:D6:D5:47:DD:C0

            X509v3 Extended Key Usage: 
                TLS Web Server Authentication
            X509v3 Key Usage: 
                Digital Signature, Key Encipherment
            X509v3 Subject Alternative Name: 
                DNS:team4-server
    Signature Algorithm: sha256WithRSAEncryption
         67:60:63:96:21:7a:7b:bd:07:c9:ba:09:a4:c2:f6:a9:bc:35:
         f7:d0:c3:d2:7f:e1:95:be:ab:56:6a:30:ac:ab:bc:8b:63:e4:
         4c:63:46:f5:c0:b8:43:0c:99:de:b1:f0:8d:50:33:cf:ae:2a:
         3a:ac:a7:f9:bd:a2:cc:61:c8:36:88:ba:99:20:cc:9e:5b:9f:
         8f:09:ea:b3:bf:aa:31:68:57:e9:98:87:49:1f:24:0f:9e:a6:
         f8:fa:2b:a3:b6:9a:ed:03:dc:c8:e8:0d:74:1b:12:66:9f:51:
         85:b0:54:28:5a:3e:02:fa:49:41:6b:23:59:85:a7:fb:a8:56:
         1b:bd:1f:2e:65:7b:66:1d:37:50:47:e0:49:31:9b:82:26:3f:
         30:9c:a5:0a:76:f1:ce:bf:f9:f6:a8:d3:4a:2f:fc:f2:5b:7f:
         52:23:58:7e:a4:e8:2c:bf:a4:b3:37:56:7b:f7:64:de:93:d0:
         f5:53:9c:19:ec:aa:cd:d3:a2:3e:61:11:ba:b2:80:e1:10:69:
         77:29:08:ec:b0:d9:7c:57:dd:d6:8a:b4:2d:4f:eb:21:30:1e:
         cc:2f:ec:5d:44:c4:3b:1b:e4:fd:9f:b0:3b:2a:7c:7f:7a:32:
         f9:36:0c:70:03:36:d3:e9:98:93:fa:62:02:b3:d1:ba:b1:cc:
         88:a9:f1:3d
-----BEGIN CERTIFICATE-----
MIIDbzCCAlegAwIBAgIQXGlp6QzPNBtexVWSS/bvlTANBgkqhkiG9w0BAQsFADAU
MRIwEAYDVQQDDAl0ZWFtNC1uZXQwHhcNMjEwOTEyMjIzNzQ1WhcNMjQwODI3MjIz
NzQ1WjAXMRUwEwYDVQQDDAx0ZWFtNC1zZXJ2ZXIwggEiMA0GCSqGSIb3DQEBAQUA
A4IBDwAwggEKAoIBAQC+R0DN2xLQXXvThFLPtlKie29LnOyoScLB7gIvtjXnsr0Y
vroW6pHMkPXFmaytF7kYEUCl0s42esILwaey4HLAzdDPRh9CZKLiBIdq6AyjFh4p
S2TZL8XHbfo5Ka6ezYnIKauzfJ44D/GAeFkLXIzhNqEVu5B7/A3IR0ARn2vmtVMX
jzTsqGfIV/RETdz+Fk1Phh2VmnkZTaPJYOvtnux/X2wi0yLRbgeAV1wrbo8Vx2ry
GG+NA17KZ08bzsuE3M5EhAYH/KKLksFDhM+ZvrZYncsHeS/GnerKoRc3+9QbShRK
sDROZDwpzxuVpfRQkz0WYV8BsKfXXwWDCcP2QLo1AgMBAAGjgbkwgbYwCQYDVR0T
BAIwADAdBgNVHQ4EFgQU1Q/HBWeA2qojuNz5nGBrmWryVcowTwYDVR0jBEgwRoAU
UE4rjHQtH0Uk24Pmbcj1AOrixJWhGKQWMBQxEjAQBgNVBAMMCXRlYW00LW5ldIIU
bwH6P50yFCkB39FtyXSp1tVH3cAwEwYDVR0lBAwwCgYIKwYBBQUHAwEwCwYDVR0P
BAQDAgWgMBcGA1UdEQQQMA6CDHRlYW00LXNlcnZlcjANBgkqhkiG9w0BAQsFAAOC
AQEAZ2BjliF6e70HyboJpML2qbw199DD0n/hlb6rVmowrKu8i2PkTGNG9cC4QwyZ
3rHwjVAzz64qOqyn+b2izGHINoi6mSDMnlufjwnqs7+qMWhX6ZiHSR8kD56m+Por
o7aa7QPcyOgNdBsSZp9RhbBUKFo+AvpJQWsjWYWn+6hWG70fLmV7Zh03UEfgSTGb
giY/MJylCnbxzr/59qjTSi/88lt/UiNYfqToLL+kszdWe/dk3pPQ9VOcGeyqzdOi
PmERurKA4RBpdykI7LDZfFfd1oq0LU/rITAezC/sXUTEOxvk/Z+wOyp8f3oy+TYM
cAM20+mYk/piArPRurHMiKnxPQ==
-----END CERTIFICATE-----
