Certificate:
    Data:
        Version: 3 (0x2)
        Serial Number:
            56:30:b9:be:84:ad:41:d5:96:92:90:11:8f:59:7b:06
        Signature Algorithm: sha256WithRSAEncryption
        Issuer: CN=team43-net
        Validity
            Not Before: Sep 12 23:05:43 2021 GMT
            Not After : Aug 27 23:05:43 2024 GMT
        Subject: CN=team43-server
        Subject Public Key Info:
            Public Key Algorithm: rsaEncryption
                RSA Public-Key: (2048 bit)
                Modulus:
                    00:e2:04:18:6c:4a:d3:54:dc:6b:73:1d:45:6a:bc:
                    ed:aa:fc:8a:fe:60:82:cb:cf:74:a1:29:7a:fc:1e:
                    0a:3c:56:ce:ed:f7:13:e0:91:fe:4b:3a:55:6e:1d:
                    4a:b7:41:16:31:2b:a0:02:85:ef:95:79:3c:46:ab:
                    14:6a:c3:99:7c:b4:5b:3a:85:f5:14:3f:d0:b6:5f:
                    e9:d8:10:15:4e:09:a2:6d:43:eb:5a:84:bf:16:5a:
                    82:d4:e8:a6:0d:9e:1d:df:7b:9a:d2:92:99:8b:7c:
                    77:2c:10:9f:19:ec:e3:3b:fc:e7:9b:86:d0:fc:d7:
                    f0:dd:57:a2:1d:0a:35:0b:40:34:62:ce:ca:9f:db:
                    da:3f:08:5b:bb:6c:71:71:e1:ad:46:0b:bc:51:b3:
                    e1:1c:d0:c8:8a:91:d2:98:e9:c8:06:42:76:a0:b9:
                    6c:c9:08:6f:f4:ac:9e:1b:fa:cb:de:3c:4b:7b:ca:
                    a6:cf:f1:9b:aa:bb:c4:2d:56:df:cb:52:13:ea:b9:
                    54:30:14:7b:04:0a:39:a0:62:a6:71:76:de:4f:f6:
                    d3:e5:55:60:64:48:61:2d:ea:e6:7a:11:81:3e:e9:
                    ee:98:62:cf:df:1e:4e:9a:ee:32:94:37:05:32:79:
                    cb:73:94:cc:29:82:00:0b:67:0e:a7:e7:55:5b:9f:
                    ab:cb
                Exponent: 65537 (0x10001)
        X509v3 extensions:
            X509v3 Basic Constraints: 
                CA:FALSE
            X509v3 Subject Key Identifier: 
                21:A1:B7:32:75:04:1F:C8:CD:97:47:C4:37:07:67:D2:F8:4A:E9:34
            X509v3 Authority Key Identifier: 
                keyid:1B:F5:25:E3:5E:C9:FE:ED:B7:67:A0:E2:79:E6:57:75:8C:EF:67:1D
                DirName:/CN=team43-net
                serial:15:83:9A:77:C8:71:C1:C0:46:76:D3:C3:2B:9B:E6:E9:E1:02:CF:6E

            X509v3 Extended Key Usage: 
                TLS Web Server Authentication
            X509v3 Key Usage: 
                Digital Signature, Key Encipherment
            X509v3 Subject Alternative Name: 
                DNS:team43-server
    Signature Algorithm: sha256WithRSAEncryption
         25:e6:f3:cc:cd:bf:be:c8:00:0b:a2:41:5f:0c:5f:e7:a0:54:
         db:40:c4:1e:37:79:1d:96:43:7f:46:42:fb:37:bb:cb:e3:d1:
         07:ad:f0:59:36:16:bc:73:66:2d:d7:fe:85:2a:d4:a8:b3:50:
         53:d4:b9:03:74:7e:59:ba:3e:c2:56:06:05:d0:83:05:e6:dc:
         0a:a5:d5:a2:28:e3:5a:ba:f1:63:fd:ea:45:5f:fe:75:ed:38:
         99:87:24:68:85:c8:2d:fd:4e:b2:78:56:f0:8f:92:28:b8:79:
         f2:72:71:69:69:64:59:0b:42:24:c8:50:4f:ca:9d:5c:4f:3a:
         2c:e3:00:df:21:89:8f:8d:e9:57:d5:5f:8e:b9:1d:49:7a:1d:
         36:0b:f1:1c:fc:48:f0:96:76:ed:a5:33:42:b1:3d:e3:ae:f0:
         ca:6b:bf:26:43:5a:36:48:b9:07:17:32:35:8d:33:8b:6c:2c:
         a1:af:cc:02:cf:f1:2c:c5:59:12:f9:dd:93:97:d5:0f:d2:03:
         12:3e:2e:4f:1f:1c:ef:eb:43:db:aa:92:57:9c:76:d7:a5:15:
         b9:8a:80:c7:a1:16:15:f4:b1:4e:d7:ef:85:b9:3f:fe:55:0b:
         a5:ff:e4:f2:00:b8:a0:e8:33:9a:2c:aa:43:a5:42:6b:49:16:
         4f:e6:93:ce
-----BEGIN CERTIFICATE-----
MIIDczCCAlugAwIBAgIQVjC5voStQdWWkpARj1l7BjANBgkqhkiG9w0BAQsFADAV
MRMwEQYDVQQDDAp0ZWFtNDMtbmV0MB4XDTIxMDkxMjIzMDU0M1oXDTI0MDgyNzIz
MDU0M1owGDEWMBQGA1UEAwwNdGVhbTQzLXNlcnZlcjCCASIwDQYJKoZIhvcNAQEB
BQADggEPADCCAQoCggEBAOIEGGxK01Tca3MdRWq87ar8iv5ggsvPdKEpevweCjxW
zu33E+CR/ks6VW4dSrdBFjEroAKF75V5PEarFGrDmXy0WzqF9RQ/0LZf6dgQFU4J
om1D61qEvxZagtTopg2eHd97mtKSmYt8dywQnxns4zv855uG0PzX8N1Xoh0KNQtA
NGLOyp/b2j8IW7tscXHhrUYLvFGz4RzQyIqR0pjpyAZCdqC5bMkIb/Ssnhv6y948
S3vKps/xm6q7xC1W38tSE+q5VDAUewQKOaBipnF23k/20+VVYGRIYS3q5noRgT7p
7phiz98eTpruMpQ3BTJ5y3OUzCmCAAtnDqfnVVufq8sCAwEAAaOBuzCBuDAJBgNV
HRMEAjAAMB0GA1UdDgQWBBQhobcydQQfyM2XR8Q3B2fS+ErpNDBQBgNVHSMESTBH
gBQb9SXjXsn+7bdnoOJ55ld1jO9nHaEZpBcwFTETMBEGA1UEAwwKdGVhbTQzLW5l
dIIUFYOad8hxwcBGdtPDK5vm6eECz24wEwYDVR0lBAwwCgYIKwYBBQUHAwEwCwYD
VR0PBAQDAgWgMBgGA1UdEQQRMA+CDXRlYW00My1zZXJ2ZXIwDQYJKoZIhvcNAQEL
BQADggEBACXm88zNv77IAAuiQV8MX+egVNtAxB43eR2WQ39GQvs3u8vj0Qet8Fk2
FrxzZi3X/oUq1KizUFPUuQN0flm6PsJWBgXQgwXm3Aql1aIo41q68WP96kVf/nXt
OJmHJGiFyC39TrJ4VvCPkii4efJycWlpZFkLQiTIUE/KnVxPOizjAN8hiY+N6VfV
X465HUl6HTYL8Rz8SPCWdu2lM0KxPeOu8MprvyZDWjZIuQcXMjWNM4tsLKGvzALP
8SzFWRL53ZOX1Q/SAxI+Lk8fHO/rQ9uqklecdtelFbmKgMehFhX0sU7X74W5P/5V
C6X/5PIAuKDoM5osqkOlQmtJFk/mk84=
-----END CERTIFICATE-----
