Certificate:
    Data:
        Version: 3 (0x2)
        Serial Number:
            72:81:1d:48:78:7a:58:30:02:a9:d5:59:f5:48:4d:08
        Signature Algorithm: sha256WithRSAEncryption
        Issuer: CN=team43-net
        Validity
            Not Before: Sep 12 23:05:43 2021 GMT
            Not After : Aug 27 23:05:43 2024 GMT
        Subject: CN=team43-client
        Subject Public Key Info:
            Public Key Algorithm: rsaEncryption
                RSA Public-Key: (2048 bit)
                Modulus:
                    00:d9:c7:1a:60:66:51:46:6f:57:74:09:20:f9:d7:
                    82:f6:30:6c:ff:e7:d3:e8:53:59:c0:32:eb:ed:06:
                    80:a3:37:c0:78:7d:c4:24:a4:34:b1:b5:e1:2c:b8:
                    82:ff:7c:56:ae:05:43:e7:ed:25:19:6c:26:8f:ef:
                    52:5a:fb:0e:9d:c6:2a:6f:6e:96:d5:0a:9f:2b:00:
                    3f:53:32:b8:90:cf:11:78:8e:bc:3b:c5:3a:3d:fe:
                    a7:ea:18:61:4e:ff:c7:52:d9:3e:5b:64:bc:82:44:
                    f5:24:25:aa:b6:3e:51:b0:23:9e:a8:5a:9e:03:bc:
                    49:e5:4c:57:71:54:fe:03:0e:7e:ad:97:c3:1c:62:
                    11:d3:20:ce:0c:93:0f:7b:7c:10:45:11:f3:6b:4a:
                    da:26:7a:9d:b6:d0:38:54:0c:5f:3a:27:3e:87:e0:
                    15:f4:00:d3:41:04:65:f7:b7:72:8a:c7:ba:82:04:
                    ee:dd:23:1d:37:68:81:e1:e1:c6:ba:65:3e:ee:7c:
                    84:86:03:9c:bc:b6:6f:a9:a0:7a:9b:13:6e:7c:11:
                    bc:d5:66:1a:99:bb:ac:3d:d9:95:af:c3:f7:dc:37:
                    16:f1:1e:1e:72:f6:be:dd:5a:04:59:be:cd:38:43:
                    1a:8b:a8:52:52:52:f6:97:a7:f1:88:60:7b:08:0d:
                    b4:67
                Exponent: 65537 (0x10001)
        X509v3 extensions:
            X509v3 Basic Constraints: 
                CA:FALSE
            X509v3 Subject Key Identifier: 
                5D:98:5D:D9:27:3C:7D:11:75:BD:CF:4E:20:87:DE:CC:5D:C4:05:62
            X509v3 Authority Key Identifier: 
                keyid:1B:F5:25:E3:5E:C9:FE:ED:B7:67:A0:E2:79:E6:57:75:8C:EF:67:1D
                DirName:/CN=team43-net
                serial:15:83:9A:77:C8:71:C1:C0:46:76:D3:C3:2B:9B:E6:E9:E1:02:CF:6E

            X509v3 Extended Key Usage: 
                TLS Web Client Authentication
            X509v3 Key Usage: 
                Digital Signature
    Signature Algorithm: sha256WithRSAEncryption
         76:41:84:5c:d0:78:bf:18:66:4e:5f:55:5c:e4:25:f6:3b:76:
         65:56:49:c4:ae:1a:c8:62:a7:00:8a:12:6d:fe:e3:31:f6:1f:
         dd:35:46:3b:26:bb:98:eb:00:d4:19:f1:74:e1:35:0a:c4:70:
         66:95:44:1a:b8:22:4f:e4:b9:67:a9:91:2b:90:1a:94:f9:32:
         c6:2c:7b:b1:f5:18:7b:df:c0:84:1b:1f:9c:a9:f3:45:e9:15:
         c2:fb:ed:02:07:cd:99:68:ae:8d:fe:cc:80:9a:a1:97:93:66:
         c2:fa:7e:be:49:86:63:1b:2f:9f:9f:4e:77:54:52:bf:18:5f:
         55:3a:62:d1:96:10:38:2c:76:d6:1a:45:a2:e4:b2:d5:c3:e8:
         54:9b:1d:50:f5:f0:03:32:55:02:2b:62:1f:b2:e2:9a:3b:2a:
         e3:13:68:0f:f2:4f:3d:df:29:41:51:61:33:0f:11:dc:64:c1:
         9f:95:fc:08:71:2b:22:e1:2e:cf:cc:3b:54:e8:22:f4:7d:1e:
         04:c3:17:7a:35:b3:30:aa:38:2d:5b:d3:89:f8:c7:c5:17:ae:
         19:71:32:e8:11:7a:c4:61:5e:10:b7:62:1e:30:80:68:a5:94:
         de:19:1b:8d:0e:f7:a0:02:dd:c7:7b:d9:72:f4:6e:40:6e:95:
         1c:19:00:40
-----BEGIN CERTIFICATE-----
MIIDWTCCAkGgAwIBAgIQcoEdSHh6WDACqdVZ9UhNCDANBgkqhkiG9w0BAQsFADAV
MRMwEQYDVQQDDAp0ZWFtNDMtbmV0MB4XDTIxMDkxMjIzMDU0M1oXDTI0MDgyNzIz
MDU0M1owGDEWMBQGA1UEAwwNdGVhbTQzLWNsaWVudDCCASIwDQYJKoZIhvcNAQEB
BQADggEPADCCAQoCggEBANnHGmBmUUZvV3QJIPnXgvYwbP/n0+hTWcAy6+0GgKM3
wHh9xCSkNLG14Sy4gv98Vq4FQ+ftJRlsJo/vUlr7Dp3GKm9ultUKnysAP1MyuJDP
EXiOvDvFOj3+p+oYYU7/x1LZPltkvIJE9SQlqrY+UbAjnqhangO8SeVMV3FU/gMO
fq2XwxxiEdMgzgyTD3t8EEUR82tK2iZ6nbbQOFQMXzonPofgFfQA00EEZfe3corH
uoIE7t0jHTdogeHhxrplPu58hIYDnLy2b6mgepsTbnwRvNVmGpm7rD3Zla/D99w3
FvEeHnL2vt1aBFm+zThDGouoUlJS9pen8YhgewgNtGcCAwEAAaOBoTCBnjAJBgNV
HRMEAjAAMB0GA1UdDgQWBBRdmF3ZJzx9EXW9z04gh97MXcQFYjBQBgNVHSMESTBH
gBQb9SXjXsn+7bdnoOJ55ld1jO9nHaEZpBcwFTETMBEGA1UEAwwKdGVhbTQzLW5l
dIIUFYOad8hxwcBGdtPDK5vm6eECz24wEwYDVR0lBAwwCgYIKwYBBQUHAwIwCwYD
VR0PBAQDAgeAMA0GCSqGSIb3DQEBCwUAA4IBAQB2QYRc0Hi/GGZOX1Vc5CX2O3Zl
VknErhrIYqcAihJt/uMx9h/dNUY7JruY6wDUGfF04TUKxHBmlUQauCJP5LlnqZEr
kBqU+TLGLHux9Rh738CEGx+cqfNF6RXC++0CB82ZaK6N/syAmqGXk2bC+n6+SYZj
Gy+fn053VFK/GF9VOmLRlhA4LHbWGkWi5LLVw+hUmx1Q9fADMlUCK2IfsuKaOyrj
E2gP8k893ylBUWEzDxHcZMGflfwIcSsi4S7PzDtU6CL0fR4Ewxd6NbMwqjgtW9OJ
+MfFF64ZcTLoEXrEYV4Qt2IeMIBopZTeGRuNDvegAt3He9ly9G5AbpUcGQBA
-----END CERTIFICATE-----
