Certificate:
    Data:
        Version: 3 (0x2)
        Serial Number:
            c1:ef:f3:f2:52:73:38:0b:ff:ff:fb:6d:3e:83:4c:4d
        Signature Algorithm: sha256WithRSAEncryption
        Issuer: CN=team7-net
        Validity
            Not Before: Sep 12 22:42:47 2021 GMT
            Not After : Aug 27 22:42:47 2024 GMT
        Subject: CN=team7-server
        Subject Public Key Info:
            Public Key Algorithm: rsaEncryption
                RSA Public-Key: (2048 bit)
                Modulus:
                    00:b0:b6:94:96:5d:49:6e:ba:94:c4:ad:50:1b:f3:
                    b5:27:08:af:1d:2d:1b:e5:43:bc:cb:5c:fa:e5:87:
                    19:b7:3f:db:dc:16:27:b0:ed:89:bf:ee:63:69:9f:
                    3f:b5:c8:0e:4f:d0:a0:94:92:a1:ee:ed:b2:fa:a0:
                    06:71:64:64:bf:03:7f:07:d0:97:c1:a7:bf:e2:69:
                    5f:25:27:9d:c0:ea:25:ad:56:60:ef:28:4a:2d:d6:
                    69:b5:13:0a:58:41:46:ec:21:23:38:be:ee:75:89:
                    ed:28:e2:1b:51:08:46:19:18:6c:15:a4:d5:50:91:
                    ec:c9:4b:4b:a9:2f:c5:8a:92:0d:ae:87:b8:25:37:
                    6e:f2:54:fe:00:31:b9:de:c9:d2:7a:03:c4:ec:f6:
                    f8:6a:47:df:75:08:d1:d7:09:c5:94:c1:bd:f7:22:
                    10:3d:e8:d8:bd:28:92:f2:e1:57:5c:ce:85:85:84:
                    15:3a:84:53:3d:f3:d6:be:2f:a4:11:7d:40:76:68:
                    82:fb:6f:df:80:fb:7b:a8:8a:85:1a:7a:69:ed:24:
                    8b:81:d3:f4:d0:f2:85:d6:ec:8e:da:5e:e5:97:d2:
                    b7:41:36:80:31:c7:c9:d4:0f:af:c4:7f:74:56:44:
                    b1:2f:73:6a:2f:18:45:09:b7:92:72:7f:6a:44:e0:
                    9c:e5
                Exponent: 65537 (0x10001)
        X509v3 extensions:
            X509v3 Basic Constraints: 
                CA:FALSE
            X509v3 Subject Key Identifier: 
                6E:C6:73:EB:7B:61:92:C4:08:F7:11:D9:C5:E7:B7:F5:CF:B6:10:EE
            X509v3 Authority Key Identifier: 
                keyid:88:A2:87:9E:F0:7B:F9:A2:A0:F7:54:ED:04:55:4E:4F:9B:23:BE:1E
                DirName:/CN=team7-net
                serial:32:1E:82:C9:3F:02:F1:17:A2:D6:B1:D4:81:A5:CD:DB:E0:CA:20:36

            X509v3 Extended Key Usage: 
                TLS Web Server Authentication
            X509v3 Key Usage: 
                Digital Signature, Key Encipherment
            X509v3 Subject Alternative Name: 
                DNS:team7-server
    Signature Algorithm: sha256WithRSAEncryption
         b1:75:8c:da:67:4b:e8:b3:58:36:84:ee:2d:61:7c:04:af:18:
         fb:ec:c7:c8:3a:fe:35:6d:2b:3d:07:b7:c7:d3:3a:c2:af:86:
         d8:b2:54:1f:84:4c:8e:c5:1e:19:1d:f9:80:70:e8:c7:00:03:
         77:de:39:b6:35:2c:14:36:8c:fc:a5:59:39:f9:01:73:c3:12:
         b8:af:0a:1d:77:b6:f9:92:c0:c6:b8:80:7a:5e:d3:90:71:5a:
         b3:73:65:44:f9:ca:4d:ea:b5:cc:7d:75:ca:42:f8:ea:22:b9:
         4a:c1:14:82:8f:24:89:f5:c6:46:01:ef:0e:03:0c:17:80:f7:
         9f:27:e7:36:c6:fe:be:7f:a4:3d:b2:d8:18:f1:37:e9:0c:60:
         d3:48:12:f6:8d:51:2d:cb:41:02:c8:2d:f8:aa:76:5a:a5:55:
         c8:f1:8a:02:84:af:38:9a:90:7e:52:51:6f:f6:bb:94:3d:5e:
         0c:f1:76:ba:22:c0:34:ce:16:3b:79:47:6b:d2:4a:29:7b:6a:
         eb:09:8a:b9:bf:bc:a7:d5:9b:79:d6:0b:da:ed:28:62:e6:67:
         52:f2:fd:59:6e:2c:36:e1:99:d3:67:4c:7f:a6:bb:0c:2e:33:
         e8:29:67:e0:28:0c:ee:91:69:1c:d1:5c:87:1a:89:9f:e8:60:
         1c:aa:6a:4f
-----BEGIN CERTIFICATE-----
MIIDcDCCAligAwIBAgIRAMHv8/JSczgL///7bT6DTE0wDQYJKoZIhvcNAQELBQAw
FDESMBAGA1UEAwwJdGVhbTctbmV0MB4XDTIxMDkxMjIyNDI0N1oXDTI0MDgyNzIy
NDI0N1owFzEVMBMGA1UEAwwMdGVhbTctc2VydmVyMIIBIjANBgkqhkiG9w0BAQEF
AAOCAQ8AMIIBCgKCAQEAsLaUll1JbrqUxK1QG/O1JwivHS0b5UO8y1z65YcZtz/b
3BYnsO2Jv+5jaZ8/tcgOT9CglJKh7u2y+qAGcWRkvwN/B9CXwae/4mlfJSedwOol
rVZg7yhKLdZptRMKWEFG7CEjOL7udYntKOIbUQhGGRhsFaTVUJHsyUtLqS/FipIN
roe4JTdu8lT+ADG53snSegPE7Pb4akffdQjR1wnFlMG99yIQPejYvSiS8uFXXM6F
hYQVOoRTPfPWvi+kEX1AdmiC+2/fgPt7qIqFGnpp7SSLgdP00PKF1uyO2l7ll9K3
QTaAMcfJ1A+vxH90VkSxL3NqLxhFCbeScn9qROCc5QIDAQABo4G5MIG2MAkGA1Ud
EwQCMAAwHQYDVR0OBBYEFG7Gc+t7YZLECPcR2cXnt/XPthDuME8GA1UdIwRIMEaA
FIiih57we/mioPdU7QRVTk+bI74eoRikFjAUMRIwEAYDVQQDDAl0ZWFtNy1uZXSC
FDIegsk/AvEXotax1IGlzdvgyiA2MBMGA1UdJQQMMAoGCCsGAQUFBwMBMAsGA1Ud
DwQEAwIFoDAXBgNVHREEEDAOggx0ZWFtNy1zZXJ2ZXIwDQYJKoZIhvcNAQELBQAD
ggEBALF1jNpnS+izWDaE7i1hfASvGPvsx8g6/jVtKz0Ht8fTOsKvhtiyVB+ETI7F
Hhkd+YBw6McAA3feObY1LBQ2jPylWTn5AXPDErivCh13tvmSwMa4gHpe05BxWrNz
ZUT5yk3qtcx9dcpC+OoiuUrBFIKPJIn1xkYB7w4DDBeA958n5zbG/r5/pD2y2Bjx
N+kMYNNIEvaNUS3LQQLILfiqdlqlVcjxigKErziakH5SUW/2u5Q9XgzxdroiwDTO
Fjt5R2vSSil7ausJirm/vKfVm3nWC9rtKGLmZ1Ly/VluLDbhmdNnTH+muwwuM+gp
Z+AoDO6RaRzRXIcaiZ/oYByqak8=
-----END CERTIFICATE-----
