Certificate:
    Data:
        Version: 3 (0x2)
        Serial Number:
            73:fd:56:ed:f5:46:d9:3f:2d:fb:22:1d:0d:8b:8e:e2
        Signature Algorithm: sha256WithRSAEncryption
        Issuer: CN=team4-net
        Validity
            Not Before: Sep 12 22:37:45 2021 GMT
            Not After : Aug 27 22:37:45 2024 GMT
        Subject: CN=team4-client
        Subject Public Key Info:
            Public Key Algorithm: rsaEncryption
                RSA Public-Key: (2048 bit)
                Modulus:
                    00:de:df:de:bb:25:34:25:ef:9b:4f:9d:2e:d3:f0:
                    ca:6a:cc:5b:63:fd:57:f4:7c:49:64:b8:f3:48:3b:
                    17:57:67:aa:92:30:bc:34:ef:71:b1:c7:b9:06:b0:
                    36:9e:1e:52:f3:2b:dc:4a:cd:ec:1b:d9:0e:f0:ec:
                    1b:8e:9a:f8:f2:79:59:88:35:46:3d:8b:e0:0d:1b:
                    88:7e:93:0e:8d:95:06:ca:0d:00:00:12:b4:cb:0d:
                    de:04:e8:e5:d8:54:f4:31:b5:63:3c:d6:d3:79:4e:
                    5f:30:fd:1d:f0:4e:e4:06:e5:72:7e:90:af:22:90:
                    66:16:4a:8b:42:ee:d4:ab:73:e6:d1:96:fd:c3:58:
                    3f:e8:ba:73:ae:60:54:d4:f5:97:83:01:2a:81:7d:
                    f7:71:e7:ed:b6:b0:03:c5:27:55:d0:74:00:ad:57:
                    9b:8a:ba:02:71:7d:d7:d2:b8:ca:78:2b:0f:fe:8f:
                    82:79:75:32:cd:1d:a8:19:bf:6b:2e:80:02:97:79:
                    da:83:54:61:96:a4:66:85:01:19:85:f4:70:93:f8:
                    67:68:7a:39:0e:58:08:d1:24:ee:52:a0:57:13:d8:
                    f3:18:13:4c:68:98:f7:a6:5c:e9:bb:ad:46:46:f6:
                    58:19:2a:7d:8e:9f:81:9c:db:2b:b5:24:76:c3:f0:
                    d6:fb
                Exponent: 65537 (0x10001)
        X509v3 extensions:
            X509v3 Basic Constraints: 
                CA:FALSE
            X509v3 Subject Key Identifier: 
                75:03:F9:30:88:07:92:A4:B4:A7:6E:B7:B2:73:92:40:6E:59:5B:32
            X509v3 Authority Key Identifier: 
                keyid:50:4E:2B:8C:74:2D:1F:45:24:DB:83:E6:6D:C8:F5:00:EA:E2:C4:95
                DirName:/CN=team4-net
                serial:6F:01:FA:3F:9D:32:14:29:01:DF:D1:6D:C9:74:A9:D6:D5:47:DD:C0

            X509v3 Extended Key Usage: 
                TLS Web Client Authentication
            X509v3 Key Usage: 
                Digital Signature
    Signature Algorithm: sha256WithRSAEncryption
         5e:8d:af:41:af:dc:78:2f:48:15:de:94:8b:d8:d0:55:4d:71:
         ff:59:52:2d:ca:cc:2b:9e:76:29:92:36:3c:a6:71:94:af:8f:
         1b:60:b0:70:49:41:d8:30:f2:f3:eb:6e:92:3d:43:61:89:36:
         3f:91:00:ca:18:21:d4:0f:cc:00:6a:03:30:d2:3d:bb:46:4e:
         1c:09:b0:26:33:3d:c9:1e:a2:6a:20:00:f7:6a:bb:5a:58:f8:
         f6:98:dc:45:5a:41:d6:a1:50:3c:a4:b5:d5:fa:62:30:e4:55:
         40:6f:38:a4:ef:1b:27:c6:b6:f8:e9:32:3a:79:6f:29:6c:65:
         f1:5c:32:dc:50:66:81:fd:7a:1a:be:0b:85:32:05:e0:59:ef:
         a6:a6:6a:12:06:c0:9b:bc:6a:77:55:ab:9e:3c:ee:92:eb:84:
         f4:28:49:96:bf:6d:bd:2c:56:0b:c4:e9:99:92:ca:52:1b:a3:
         97:62:f3:89:5b:76:0a:67:50:a7:55:b2:89:27:00:86:03:1b:
         50:ca:4a:28:b9:34:7f:7c:a2:0e:60:12:cc:bd:05:b2:d3:63:
         cb:09:77:be:13:33:7d:14:cb:07:e7:c1:72:78:d5:e7:1a:ed:
         c2:37:e8:f5:c1:a8:42:51:e3:cd:84:b7:ac:1a:c2:9b:f6:64:
         53:bf:46:14
-----BEGIN CERTIFICATE-----
MIIDVjCCAj6gAwIBAgIQc/1W7fVG2T8t+yIdDYuO4jANBgkqhkiG9w0BAQsFADAU
MRIwEAYDVQQDDAl0ZWFtNC1uZXQwHhcNMjEwOTEyMjIzNzQ1WhcNMjQwODI3MjIz
NzQ1WjAXMRUwEwYDVQQDDAx0ZWFtNC1jbGllbnQwggEiMA0GCSqGSIb3DQEBAQUA
A4IBDwAwggEKAoIBAQDe3967JTQl75tPnS7T8MpqzFtj/Vf0fElkuPNIOxdXZ6qS
MLw073Gxx7kGsDaeHlLzK9xKzewb2Q7w7BuOmvjyeVmINUY9i+ANG4h+kw6NlQbK
DQAAErTLDd4E6OXYVPQxtWM81tN5Tl8w/R3wTuQG5XJ+kK8ikGYWSotC7tSrc+bR
lv3DWD/ounOuYFTU9ZeDASqBffdx5+22sAPFJ1XQdACtV5uKugJxfdfSuMp4Kw/+
j4J5dTLNHagZv2sugAKXedqDVGGWpGaFARmF9HCT+GdoejkOWAjRJO5SoFcT2PMY
E0xomPemXOm7rUZG9lgZKn2On4Gc2yu1JHbD8Nb7AgMBAAGjgaAwgZ0wCQYDVR0T
BAIwADAdBgNVHQ4EFgQUdQP5MIgHkqS0p263snOSQG5ZWzIwTwYDVR0jBEgwRoAU
UE4rjHQtH0Uk24Pmbcj1AOrixJWhGKQWMBQxEjAQBgNVBAMMCXRlYW00LW5ldIIU
bwH6P50yFCkB39FtyXSp1tVH3cAwEwYDVR0lBAwwCgYIKwYBBQUHAwIwCwYDVR0P
BAQDAgeAMA0GCSqGSIb3DQEBCwUAA4IBAQBeja9Br9x4L0gV3pSL2NBVTXH/WVIt
yswrnnYpkjY8pnGUr48bYLBwSUHYMPLz626SPUNhiTY/kQDKGCHUD8wAagMw0j27
Rk4cCbAmMz3JHqJqIAD3artaWPj2mNxFWkHWoVA8pLXV+mIw5FVAbzik7xsnxrb4
6TI6eW8pbGXxXDLcUGaB/XoavguFMgXgWe+mpmoSBsCbvGp3VauePO6S64T0KEmW
v229LFYLxOmZkspSG6OXYvOJW3YKZ1CnVbKJJwCGAxtQykoouTR/fKIOYBLMvQWy
02PLCXe+EzN9FMsH58FyeNXnGu3CN+j1wahCUePNhLesGsKb9mRTv0YU
-----END CERTIFICATE-----
