Certificate:
    Data:
        Version: 3 (0x2)
        Serial Number:
            c3:3e:e6:4a:9b:b6:00:ca:a8:24:91:2f:b5:5d:65:9a
        Signature Algorithm: sha256WithRSAEncryption
        Issuer: CN=team1-net
        Validity
            Not Before: Sep 12 22:36:48 2021 GMT
            Not After : Aug 27 22:36:48 2024 GMT
        Subject: CN=team1-server
        Subject Public Key Info:
            Public Key Algorithm: rsaEncryption
                RSA Public-Key: (2048 bit)
                Modulus:
                    00:e4:cd:2e:d3:fe:3f:02:3f:d3:77:9d:2a:35:6d:
                    23:9c:62:54:71:69:a0:12:4f:40:69:33:f7:8b:ce:
                    8e:bc:59:51:53:07:c5:cf:14:31:48:d5:27:f0:71:
                    0e:25:b6:fb:b9:27:99:1c:dc:cb:27:f0:25:46:d7:
                    ce:a7:3c:f3:74:f6:1e:5c:89:6d:08:86:2a:44:70:
                    c4:69:51:bc:5c:84:5f:b1:e7:ed:2b:d4:4a:e2:e8:
                    7e:d9:aa:94:2e:95:91:73:50:59:4e:35:06:6e:8a:
                    2b:ff:9f:e0:23:bb:b3:32:6a:d1:d9:22:c0:86:fa:
                    ff:4d:3b:51:7b:9e:8b:8c:d2:c5:fd:55:e2:6b:50:
                    ae:c3:22:44:8a:dc:f3:8e:51:4b:e6:b6:f6:dd:82:
                    45:5b:bb:a2:d2:aa:e2:e1:ed:c0:25:0a:9f:31:58:
                    c0:22:67:08:d9:0e:41:b3:a4:f3:91:bd:85:8d:9e:
                    49:f9:cd:41:a8:b0:22:8a:98:cd:91:2b:4a:a4:99:
                    6e:f1:05:5e:2b:5e:54:0b:e6:80:9f:08:a7:75:fe:
                    92:b1:5a:d2:e0:80:21:24:42:3c:69:8d:1b:06:7e:
                    ac:c1:bd:eb:10:74:2c:e2:3b:46:fc:66:94:f4:6c:
                    e7:ff:b1:f7:5b:fc:5b:96:05:0a:50:11:92:a9:db:
                    80:15
                Exponent: 65537 (0x10001)
        X509v3 extensions:
            X509v3 Basic Constraints: 
                CA:FALSE
            X509v3 Subject Key Identifier: 
                5F:27:E7:2F:6E:2F:FE:74:73:2B:B7:A4:10:E9:91:71:BF:60:04:B5
            X509v3 Authority Key Identifier: 
                keyid:DD:DE:0F:3E:36:52:41:11:E6:1B:54:D4:4B:AA:07:44:EC:4C:9A:D5
                DirName:/CN=team1-net
                serial:4F:D5:E0:82:99:81:39:7B:60:EA:6A:8C:4D:60:F6:10:88:50:6C:99

            X509v3 Extended Key Usage: 
                TLS Web Server Authentication
            X509v3 Key Usage: 
                Digital Signature, Key Encipherment
            X509v3 Subject Alternative Name: 
                DNS:team1-server
    Signature Algorithm: sha256WithRSAEncryption
         6d:1f:82:81:67:b4:3c:59:a3:fc:41:b2:9c:f2:3b:3a:e0:ea:
         b3:39:f2:cc:52:18:08:af:49:9f:51:b8:9f:3f:75:ab:d8:e9:
         2b:a5:b2:59:74:e2:fd:cb:ac:74:bb:4e:fe:01:01:35:d8:e1:
         2d:6e:6a:53:eb:87:c0:bb:58:22:c4:49:86:bb:62:40:9a:9f:
         fd:16:e6:58:1d:da:2e:0b:9d:4b:49:0e:02:37:23:35:19:c2:
         2c:bb:fe:61:1b:fa:eb:40:73:07:45:3c:5e:28:bb:fc:04:1f:
         60:05:bd:35:c4:e0:9e:e9:0e:3d:aa:e2:a7:aa:7c:99:8d:77:
         96:ca:96:d6:11:d8:44:1d:37:04:08:6c:18:f9:ac:57:40:ea:
         01:7d:fa:01:fa:d0:96:7a:ed:46:bb:5a:89:4d:70:9d:3c:86:
         77:ff:0a:f2:54:d5:75:a9:f1:16:6b:e1:6d:1b:00:eb:f5:d7:
         d5:48:f1:d5:d3:64:b1:79:fe:72:4c:40:81:d0:1e:f5:d0:e9:
         f3:d9:07:a8:4c:48:96:65:61:2f:b6:ce:90:30:62:e4:ce:8b:
         09:7c:ed:14:9e:9f:14:78:ca:47:d6:8c:5c:62:0c:45:ed:36:
         41:91:60:c3:e7:e2:fa:5d:8b:7f:2e:b5:16:ec:84:59:31:9e:
         db:e5:8a:23
-----BEGIN CERTIFICATE-----
MIIDcDCCAligAwIBAgIRAMM+5kqbtgDKqCSRL7VdZZowDQYJKoZIhvcNAQELBQAw
FDESMBAGA1UEAwwJdGVhbTEtbmV0MB4XDTIxMDkxMjIyMzY0OFoXDTI0MDgyNzIy
MzY0OFowFzEVMBMGA1UEAwwMdGVhbTEtc2VydmVyMIIBIjANBgkqhkiG9w0BAQEF
AAOCAQ8AMIIBCgKCAQEA5M0u0/4/Aj/Td50qNW0jnGJUcWmgEk9AaTP3i86OvFlR
UwfFzxQxSNUn8HEOJbb7uSeZHNzLJ/AlRtfOpzzzdPYeXIltCIYqRHDEaVG8XIRf
seftK9RK4uh+2aqULpWRc1BZTjUGboor/5/gI7uzMmrR2SLAhvr/TTtRe56LjNLF
/VXia1CuwyJEitzzjlFL5rb23YJFW7ui0qri4e3AJQqfMVjAImcI2Q5Bs6Tzkb2F
jZ5J+c1BqLAiipjNkStKpJlu8QVeK15UC+aAnwindf6SsVrS4IAhJEI8aY0bBn6s
wb3rEHQs4jtG/GaU9Gzn/7H3W/xblgUKUBGSqduAFQIDAQABo4G5MIG2MAkGA1Ud
EwQCMAAwHQYDVR0OBBYEFF8n5y9uL/50cyu3pBDpkXG/YAS1ME8GA1UdIwRIMEaA
FN3eDz42UkER5htU1EuqB0TsTJrVoRikFjAUMRIwEAYDVQQDDAl0ZWFtMS1uZXSC
FE/V4IKZgTl7YOpqjE1g9hCIUGyZMBMGA1UdJQQMMAoGCCsGAQUFBwMBMAsGA1Ud
DwQEAwIFoDAXBgNVHREEEDAOggx0ZWFtMS1zZXJ2ZXIwDQYJKoZIhvcNAQELBQAD
ggEBAG0fgoFntDxZo/xBspzyOzrg6rM58sxSGAivSZ9RuJ8/davY6Sulsll04v3L
rHS7Tv4BATXY4S1ualPrh8C7WCLESYa7YkCan/0W5lgd2i4LnUtJDgI3IzUZwiy7
/mEb+utAcwdFPF4ou/wEH2AFvTXE4J7pDj2q4qeqfJmNd5bKltYR2EQdNwQIbBj5
rFdA6gF9+gH60JZ67Ua7WolNcJ08hnf/CvJU1XWp8RZr4W0bAOv119VI8dXTZLF5
/nJMQIHQHvXQ6fPZB6hMSJZlYS+2zpAwYuTOiwl87RSenxR4ykfWjFxiDEXtNkGR
YMPn4vpdi38utRbshFkxntvliiM=
-----END CERTIFICATE-----
