Certificate:
    Data:
        Version: 3 (0x2)
        Serial Number:
            4e:bd:9f:5d:41:15:10:4b:b2:17:d9:ad:70:9b:43:e1
        Signature Algorithm: sha256WithRSAEncryption
        Issuer: CN=team200-net
        Validity
            Not Before: Sep 13 00:36:54 2021 GMT
            Not After : Aug 28 00:36:54 2024 GMT
        Subject: CN=team200-server
        Subject Public Key Info:
            Public Key Algorithm: rsaEncryption
                RSA Public-Key: (2048 bit)
                Modulus:
                    00:d0:f2:19:34:b7:e1:99:85:f1:8b:75:41:b5:1c:
                    cd:1b:c2:03:6e:6b:68:da:b7:29:a5:1c:08:08:d8:
                    d5:d8:70:0a:8d:cd:e3:45:3a:8c:3c:07:12:56:ac:
                    24:c0:0e:72:c0:7d:d6:8c:37:26:c3:b6:ee:1f:38:
                    5d:4f:b4:e0:3f:6b:6f:52:24:20:97:07:f5:e1:44:
                    54:71:75:1a:b7:5d:2c:a4:8a:b7:ec:ee:86:ab:72:
                    46:ce:73:1b:e4:fe:6d:ec:e6:17:40:29:9e:bc:6e:
                    ef:8d:84:68:ac:8c:44:e4:dc:5a:82:34:ec:42:25:
                    8d:af:94:d9:fd:56:74:7b:0f:6d:c6:62:81:28:5e:
                    86:22:ec:46:4c:54:79:4f:4e:f4:f5:0f:b1:43:9a:
                    22:d9:7c:15:14:ec:56:38:38:07:c0:e5:40:95:4d:
                    09:6c:32:7c:19:47:66:32:dd:7a:ca:33:08:ac:e5:
                    64:6c:dd:c2:28:bc:3a:d9:68:19:9a:03:e1:e9:3f:
                    a0:6b:21:2f:44:95:36:56:02:f3:7f:ae:9a:2c:6c:
                    ee:83:44:8c:0e:2a:f8:54:e5:45:cf:da:a8:44:eb:
                    01:b5:6c:95:cb:47:15:47:93:24:38:88:85:8e:01:
                    45:f6:3e:90:7b:6b:a3:46:0f:3c:cb:59:9d:a6:de:
                    c9:d9
                Exponent: 65537 (0x10001)
        X509v3 extensions:
            X509v3 Basic Constraints: 
                CA:FALSE
            X509v3 Subject Key Identifier: 
                36:BB:AB:D9:45:F9:2A:EF:AC:ED:FF:12:80:69:02:98:54:4C:90:57
            X509v3 Authority Key Identifier: 
                keyid:69:4B:27:AA:07:54:A8:46:E1:81:53:66:F7:BD:15:EF:96:EC:97:30
                DirName:/CN=team200-net
                serial:3E:50:26:55:55:88:06:8C:6F:00:1E:E7:D2:BF:4B:A1:38:01:64:20

            X509v3 Extended Key Usage: 
                TLS Web Server Authentication
            X509v3 Key Usage: 
                Digital Signature, Key Encipherment
            X509v3 Subject Alternative Name: 
                DNS:team200-server
    Signature Algorithm: sha256WithRSAEncryption
         46:86:d5:0f:ff:e5:18:49:ed:ca:ba:e6:30:e3:41:a1:56:ad:
         25:a9:85:e1:6b:a6:b7:da:08:42:e6:19:90:7a:30:02:2e:12:
         90:e2:fe:2e:4f:33:58:dd:5e:07:a2:f5:1e:38:35:9a:84:a5:
         dc:8a:8f:13:8b:4b:22:e9:33:c7:11:f2:95:f5:75:93:73:ec:
         40:ba:b8:53:7f:d9:09:0e:ba:b9:1c:e9:e2:6a:ea:e3:ab:27:
         69:e0:98:78:a9:a4:cb:88:fa:30:1b:7e:f3:af:d6:a7:52:f1:
         da:18:c5:4d:15:54:fd:05:fb:e8:97:da:97:39:d2:7f:bd:33:
         af:91:c0:df:31:ec:5b:b4:25:bf:68:fe:35:56:19:c8:38:1d:
         7a:7b:7c:ae:3d:d5:4c:3f:7e:24:3f:f2:ce:cf:c0:fa:9d:59:
         86:bb:f7:62:48:39:ef:df:1f:c4:3e:e7:01:ec:a0:6f:da:68:
         27:a5:4c:77:62:6a:e7:83:d8:2c:d0:b5:48:7b:76:19:5d:89:
         c3:28:1d:56:7a:35:68:d3:03:2d:b5:b8:0c:58:ec:4b:e9:b3:
         15:20:2c:33:70:e3:35:b9:dc:7b:3d:47:89:52:85:46:4c:d0:
         eb:06:02:16:01:df:eb:96:b2:c2:55:58:d0:13:75:b4:86:6d:
         b0:2f:f7:3e
-----BEGIN CERTIFICATE-----
MIIDdzCCAl+gAwIBAgIQTr2fXUEVEEuyF9mtcJtD4TANBgkqhkiG9w0BAQsFADAW
MRQwEgYDVQQDDAt0ZWFtMjAwLW5ldDAeFw0yMTA5MTMwMDM2NTRaFw0yNDA4Mjgw
MDM2NTRaMBkxFzAVBgNVBAMMDnRlYW0yMDAtc2VydmVyMIIBIjANBgkqhkiG9w0B
AQEFAAOCAQ8AMIIBCgKCAQEA0PIZNLfhmYXxi3VBtRzNG8IDbmto2rcppRwICNjV
2HAKjc3jRTqMPAcSVqwkwA5ywH3WjDcmw7buHzhdT7TgP2tvUiQglwf14URUcXUa
t10spIq37O6Gq3JGznMb5P5t7OYXQCmevG7vjYRorIxE5NxagjTsQiWNr5TZ/VZ0
ew9txmKBKF6GIuxGTFR5T0709Q+xQ5oi2XwVFOxWODgHwOVAlU0JbDJ8GUdmMt16
yjMIrOVkbN3CKLw62WgZmgPh6T+gayEvRJU2VgLzf66aLGzug0SMDir4VOVFz9qo
ROsBtWyVy0cVR5MkOIiFjgFF9j6Qe2ujRg88y1mdpt7J2QIDAQABo4G9MIG6MAkG
A1UdEwQCMAAwHQYDVR0OBBYEFDa7q9lF+SrvrO3/EoBpAphUTJBXMFEGA1UdIwRK
MEiAFGlLJ6oHVKhG4YFTZve9Fe+W7JcwoRqkGDAWMRQwEgYDVQQDDAt0ZWFtMjAw
LW5ldIIUPlAmVVWIBoxvAB7n0r9LoTgBZCAwEwYDVR0lBAwwCgYIKwYBBQUHAwEw
CwYDVR0PBAQDAgWgMBkGA1UdEQQSMBCCDnRlYW0yMDAtc2VydmVyMA0GCSqGSIb3
DQEBCwUAA4IBAQBGhtUP/+UYSe3KuuYw40GhVq0lqYXha6a32ghC5hmQejACLhKQ
4v4uTzNY3V4HovUeODWahKXcio8Ti0si6TPHEfKV9XWTc+xAurhTf9kJDrq5HOni
aurjqydp4Jh4qaTLiPowG37zr9anUvHaGMVNFVT9Bfvol9qXOdJ/vTOvkcDfMexb
tCW/aP41VhnIOB16e3yuPdVMP34kP/LOz8D6nVmGu/diSDnv3x/EPucB7KBv2mgn
pUx3Ymrng9gs0LVIe3YZXYnDKB1WejVo0wMttbgMWOxL6bMVICwzcOM1udx7PUeJ
UoVGTNDrBgIWAd/rlrLCVVjQE3W0hm2wL/c+
-----END CERTIFICATE-----
