Certificate:
    Data:
        Version: 3 (0x2)
        Serial Number:
            26:3a:b3:fd:c8:0a:dd:ec:37:14:98:42:52:ac:41:1e
        Signature Algorithm: sha256WithRSAEncryption
        Issuer: CN=team537-net
        Validity
            Not Before: Sep 13 03:24:39 2021 GMT
            Not After : Aug 28 03:24:39 2024 GMT
        Subject: CN=team537-client
        Subject Public Key Info:
            Public Key Algorithm: rsaEncryption
                RSA Public-Key: (2048 bit)
                Modulus:
                    00:ae:ad:0f:9a:6b:da:c7:ee:f9:71:26:f1:10:48:
                    77:15:45:75:79:c1:1e:d3:94:79:a5:30:18:ca:f5:
                    e9:ab:ac:de:54:e6:15:8b:94:13:f7:8f:66:43:29:
                    5d:c9:d6:d6:8e:a9:06:32:7a:6e:9f:8a:53:25:d6:
                    2e:4d:cd:fb:40:f9:84:98:4c:36:c7:0a:fc:5b:59:
                    fc:08:00:78:c1:31:44:7c:23:7b:4c:ec:d3:47:6d:
                    0b:ab:cc:1a:32:e5:8e:d7:49:84:41:42:b9:44:b2:
                    cc:4c:f4:f4:68:e9:b6:c2:5c:7e:61:c7:54:09:5e:
                    56:4c:91:61:d3:96:13:72:b7:22:0d:70:dd:57:eb:
                    df:08:fa:7f:14:1f:b1:02:d6:cb:8d:ea:8c:14:29:
                    b9:c5:c3:ac:24:db:4e:5c:70:31:8a:1d:6a:7b:4f:
                    57:28:6c:46:2f:64:9e:80:90:e3:df:e3:c0:7c:7f:
                    8f:a7:bb:85:cd:18:cb:38:ae:53:2a:2d:a0:b2:b6:
                    c9:de:5f:3b:87:1f:03:20:68:52:e1:d4:53:93:09:
                    68:4c:fd:af:25:21:48:e7:25:80:ef:9d:97:a4:7c:
                    2d:70:15:27:25:c7:f4:e0:bf:75:07:20:76:25:fb:
                    fb:b7:4b:a6:db:e7:1c:fb:29:25:b3:16:f5:76:aa:
                    1c:c1
                Exponent: 65537 (0x10001)
        X509v3 extensions:
            X509v3 Basic Constraints: 
                CA:FALSE
            X509v3 Subject Key Identifier: 
                5F:1D:6C:1C:CE:8B:C1:6E:80:B5:81:8D:28:45:E3:23:8A:5D:30:9B
            X509v3 Authority Key Identifier: 
                keyid:08:3C:24:DE:71:84:72:8A:9F:92:9C:F2:1C:7E:04:90:9B:5B:56:68
                DirName:/CN=team537-net
                serial:21:EA:3F:C5:F8:EC:FD:3A:70:57:8B:6C:E0:97:C0:D4:05:F8:12:29

            X509v3 Extended Key Usage: 
                TLS Web Client Authentication
            X509v3 Key Usage: 
                Digital Signature
    Signature Algorithm: sha256WithRSAEncryption
         37:fc:b7:59:70:57:6a:51:15:04:a9:af:68:c1:3f:42:64:4a:
         1a:2b:81:28:5e:02:c0:63:ee:c9:c2:a4:e3:f0:c5:7c:c0:cf:
         ec:0e:a8:88:33:2b:15:58:77:51:ad:94:b0:07:56:07:a7:2a:
         1a:63:f6:26:e6:e2:d8:4e:24:4c:a2:41:43:30:4f:61:1b:a4:
         13:b1:b7:06:4b:c5:1a:69:19:dd:a8:93:3e:46:de:ad:5b:86:
         59:87:8c:88:e7:87:b7:54:ff:c0:32:15:f8:5f:ff:51:82:25:
         a7:f5:9c:95:73:e1:28:42:cd:73:a9:4d:31:95:78:81:6d:a7:
         23:31:db:08:f9:a8:9c:64:26:16:90:62:7d:aa:79:45:fd:38:
         ec:ed:f3:bd:bf:0b:9b:c2:51:d2:a5:da:03:27:56:bf:cb:56:
         b6:c1:03:bd:af:de:7e:36:eb:26:9e:a4:19:c5:9b:a0:5a:06:
         3c:20:35:cd:dc:27:6e:ba:56:ef:88:79:a7:1e:cb:05:3e:16:
         4a:92:e6:06:eb:eb:cd:2a:3c:b8:2f:5a:7a:dd:c3:58:18:24:
         66:f1:85:92:c6:48:ea:24:6e:0d:ab:a8:ab:71:28:bc:fa:02:
         6d:60:b4:59:01:d8:f4:f6:66:9c:1c:1a:cb:ea:57:fe:04:2d:
         46:80:94:88
-----BEGIN CERTIFICATE-----
MIIDXDCCAkSgAwIBAgIQJjqz/cgK3ew3FJhCUqxBHjANBgkqhkiG9w0BAQsFADAW
MRQwEgYDVQQDDAt0ZWFtNTM3LW5ldDAeFw0yMTA5MTMwMzI0MzlaFw0yNDA4Mjgw
MzI0MzlaMBkxFzAVBgNVBAMMDnRlYW01MzctY2xpZW50MIIBIjANBgkqhkiG9w0B
AQEFAAOCAQ8AMIIBCgKCAQEArq0Pmmvax+75cSbxEEh3FUV1ecEe05R5pTAYyvXp
q6zeVOYVi5QT949mQyldydbWjqkGMnpun4pTJdYuTc37QPmEmEw2xwr8W1n8CAB4
wTFEfCN7TOzTR20Lq8waMuWO10mEQUK5RLLMTPT0aOm2wlx+YcdUCV5WTJFh05YT
crciDXDdV+vfCPp/FB+xAtbLjeqMFCm5xcOsJNtOXHAxih1qe09XKGxGL2SegJDj
3+PAfH+Pp7uFzRjLOK5TKi2gsrbJ3l87hx8DIGhS4dRTkwloTP2vJSFI5yWA752X
pHwtcBUnJcf04L91ByB2Jfv7t0um2+cc+yklsxb1dqocwQIDAQABo4GiMIGfMAkG
A1UdEwQCMAAwHQYDVR0OBBYEFF8dbBzOi8FugLWBjShF4yOKXTCbMFEGA1UdIwRK
MEiAFAg8JN5xhHKKn5Kc8hx+BJCbW1ZooRqkGDAWMRQwEgYDVQQDDAt0ZWFtNTM3
LW5ldIIUIeo/xfjs/TpwV4ts4JfA1AX4EikwEwYDVR0lBAwwCgYIKwYBBQUHAwIw
CwYDVR0PBAQDAgeAMA0GCSqGSIb3DQEBCwUAA4IBAQA3/LdZcFdqURUEqa9owT9C
ZEoaK4EoXgLAY+7JwqTj8MV8wM/sDqiIMysVWHdRrZSwB1YHpyoaY/Ym5uLYTiRM
okFDME9hG6QTsbcGS8UaaRndqJM+Rt6tW4ZZh4yI54e3VP/AMhX4X/9RgiWn9ZyV
c+EoQs1zqU0xlXiBbacjMdsI+aicZCYWkGJ9qnlF/Tjs7fO9vwubwlHSpdoDJ1a/
y1a2wQO9r95+NusmnqQZxZugWgY8IDXN3CduulbviHmnHssFPhZKkuYG6+vNKjy4
L1p63cNYGCRm8YWSxkjqJG4Nq6ircSi8+gJtYLRZAdj09macHBrL6lf+BC1GgJSI
-----END CERTIFICATE-----
