Certificate:
    Data:
        Version: 3 (0x2)
        Serial Number:
            e7:dd:af:e6:d8:cc:d2:fd:14:f4:79:9e:77:26:b3:04
        Signature Algorithm: sha256WithRSAEncryption
        Issuer: CN=team537-net
        Validity
            Not Before: Sep 13 03:24:39 2021 GMT
            Not After : Aug 28 03:24:39 2024 GMT
        Subject: CN=team537-server
        Subject Public Key Info:
            Public Key Algorithm: rsaEncryption
                RSA Public-Key: (2048 bit)
                Modulus:
                    00:d6:be:e3:84:e5:a2:b1:33:b3:e6:72:fc:21:fa:
                    cd:2c:7d:3b:95:85:ec:83:b5:cd:da:75:a2:07:c3:
                    e1:18:54:67:bf:2d:0f:89:1b:d3:b9:6b:b0:22:22:
                    d9:fa:d1:60:cf:30:91:0a:af:98:48:f2:ff:c8:10:
                    b8:3d:6f:b0:05:18:bb:ba:95:c3:4c:83:41:d4:c5:
                    af:7f:42:0b:1c:64:70:64:49:6e:d1:26:42:eb:6a:
                    cd:4b:a7:eb:19:bf:bb:74:78:00:81:99:76:f6:29:
                    de:01:23:38:44:eb:da:c6:4e:c2:90:4e:55:f6:96:
                    65:31:de:84:de:b1:3a:96:df:8a:3b:18:9a:66:f2:
                    09:39:23:3a:b7:2b:74:92:54:b3:c6:e5:71:d4:f4:
                    56:11:b7:69:a5:21:8c:97:86:5d:1d:74:f9:ae:dd:
                    77:7c:8d:50:ef:63:d0:d9:82:ec:53:df:75:12:e9:
                    25:95:21:28:43:b1:35:d1:fb:c8:4b:df:43:f8:8f:
                    e9:38:ec:a7:e6:43:ef:b1:23:1d:32:85:45:e3:8b:
                    f5:4f:14:75:d4:68:76:55:ea:49:78:1b:94:40:3a:
                    15:17:d5:4c:94:bb:35:b6:47:35:d5:78:69:46:fa:
                    90:e8:11:01:c4:ab:0c:ad:07:78:3a:56:a9:19:46:
                    49:e1
                Exponent: 65537 (0x10001)
        X509v3 extensions:
            X509v3 Basic Constraints: 
                CA:FALSE
            X509v3 Subject Key Identifier: 
                A9:85:92:C5:C9:7C:AF:67:38:52:8E:36:1B:CE:98:80:E5:34:DE:A8
            X509v3 Authority Key Identifier: 
                keyid:08:3C:24:DE:71:84:72:8A:9F:92:9C:F2:1C:7E:04:90:9B:5B:56:68
                DirName:/CN=team537-net
                serial:21:EA:3F:C5:F8:EC:FD:3A:70:57:8B:6C:E0:97:C0:D4:05:F8:12:29

            X509v3 Extended Key Usage: 
                TLS Web Server Authentication
            X509v3 Key Usage: 
                Digital Signature, Key Encipherment
            X509v3 Subject Alternative Name: 
                DNS:team537-server
    Signature Algorithm: sha256WithRSAEncryption
         5a:04:68:3b:4b:fa:a2:3e:21:5a:84:3e:d8:02:7f:52:46:d2:
         5f:2f:9a:99:08:97:f9:96:7f:ed:c8:ed:5c:fd:b6:7f:3b:50:
         4e:41:b4:a1:31:5f:35:e5:dc:ab:af:77:d7:de:f7:0d:df:9e:
         46:fc:55:46:d2:01:c2:b2:7b:e4:fd:45:b8:84:e9:79:e5:c4:
         af:fc:ff:3f:ea:8d:50:1e:f8:6b:26:a7:fc:2a:19:b1:d9:21:
         99:33:2c:60:2c:df:a3:f6:df:98:4d:04:7c:cc:39:46:a0:aa:
         31:fc:bf:2a:8b:02:ef:e9:9a:98:4b:e5:12:eb:8e:b8:36:c0:
         5b:fa:4a:6f:99:e0:bb:60:bd:0c:19:ef:e1:ea:35:4e:23:76:
         42:8c:43:49:80:38:31:36:30:eb:ca:eb:d4:b4:23:94:72:9d:
         d4:f7:1c:f9:9d:8d:4a:da:8d:6f:ab:83:0b:d7:c5:94:ef:f7:
         67:17:df:86:c1:80:96:55:ec:38:c6:eb:3a:a9:8c:fe:89:a4:
         9f:fb:a4:5a:97:d9:99:19:23:11:2d:ba:d7:54:84:99:6b:db:
         f5:7d:4c:a6:f0:e5:44:30:f0:ad:1a:67:da:ee:01:02:25:41:
         5c:e3:08:84:d8:37:70:08:b9:f2:af:ae:6e:58:89:4b:15:9d:
         d2:9d:a1:6e
-----BEGIN CERTIFICATE-----
MIIDeDCCAmCgAwIBAgIRAOfdr+bYzNL9FPR5nncmswQwDQYJKoZIhvcNAQELBQAw
FjEUMBIGA1UEAwwLdGVhbTUzNy1uZXQwHhcNMjEwOTEzMDMyNDM5WhcNMjQwODI4
MDMyNDM5WjAZMRcwFQYDVQQDDA50ZWFtNTM3LXNlcnZlcjCCASIwDQYJKoZIhvcN
AQEBBQADggEPADCCAQoCggEBANa+44TlorEzs+Zy/CH6zSx9O5WF7IO1zdp1ogfD
4RhUZ78tD4kb07lrsCIi2frRYM8wkQqvmEjy/8gQuD1vsAUYu7qVw0yDQdTFr39C
CxxkcGRJbtEmQutqzUun6xm/u3R4AIGZdvYp3gEjOETr2sZOwpBOVfaWZTHehN6x
OpbfijsYmmbyCTkjOrcrdJJUs8blcdT0VhG3aaUhjJeGXR10+a7dd3yNUO9j0NmC
7FPfdRLpJZUhKEOxNdH7yEvfQ/iP6Tjsp+ZD77EjHTKFReOL9U8UddRodlXqSXgb
lEA6FRfVTJS7NbZHNdV4aUb6kOgRAcSrDK0HeDpWqRlGSeECAwEAAaOBvTCBujAJ
BgNVHRMEAjAAMB0GA1UdDgQWBBSphZLFyXyvZzhSjjYbzpiA5TTeqDBRBgNVHSME
SjBIgBQIPCTecYRyip+SnPIcfgSQm1tWaKEapBgwFjEUMBIGA1UEAwwLdGVhbTUz
Ny1uZXSCFCHqP8X47P06cFeLbOCXwNQF+BIpMBMGA1UdJQQMMAoGCCsGAQUFBwMB
MAsGA1UdDwQEAwIFoDAZBgNVHREEEjAQgg50ZWFtNTM3LXNlcnZlcjANBgkqhkiG
9w0BAQsFAAOCAQEAWgRoO0v6oj4hWoQ+2AJ/UkbSXy+amQiX+ZZ/7cjtXP22fztQ
TkG0oTFfNeXcq6931973Dd+eRvxVRtIBwrJ75P1FuITpeeXEr/z/P+qNUB74ayan
/CoZsdkhmTMsYCzfo/bfmE0EfMw5RqCqMfy/KosC7+mamEvlEuuOuDbAW/pKb5ng
u2C9DBnv4eo1TiN2QoxDSYA4MTYw68rr1LQjlHKd1Pcc+Z2NStqNb6uDC9fFlO/3
ZxffhsGAllXsOMbrOqmM/omkn/ukWpfZmRkjES2611SEmWvb9X1MpvDlRDDwrRpn
2u4BAiVBXOMIhNg3cAi58q+ubliJSxWd0p2hbg==
-----END CERTIFICATE-----
