Certificate:
    Data:
        Version: 3 (0x2)
        Serial Number:
            46:a2:af:40:3b:e2:07:b9:89:f1:a5:5a:12:ca:9d:62
        Signature Algorithm: sha256WithRSAEncryption
        Issuer: CN=team593-net
        Validity
            Not Before: Sep 13 03:58:09 2021 GMT
            Not After : Aug 28 03:58:09 2024 GMT
        Subject: CN=team593-server
        Subject Public Key Info:
            Public Key Algorithm: rsaEncryption
                RSA Public-Key: (2048 bit)
                Modulus:
                    00:d0:69:7a:2d:6d:ce:bf:b9:6f:db:d2:6c:75:b4:
                    91:39:d3:73:1b:db:80:e5:66:cc:67:0d:77:9b:a2:
                    9f:e7:3e:01:de:e9:86:c9:38:8e:03:df:f2:7c:96:
                    9c:5c:fb:8a:87:5d:95:87:da:3f:6c:2a:be:0d:2c:
                    85:06:88:1b:90:2e:24:5b:b4:6f:c7:f4:13:60:5b:
                    53:fb:6d:71:99:b0:de:3c:8d:56:a6:c2:7f:22:54:
                    99:4d:2e:ce:d0:67:32:a6:63:42:3e:48:9e:f9:4d:
                    34:f1:8b:29:4f:3e:05:da:61:b7:58:5c:5b:3d:00:
                    c2:99:04:7d:25:25:57:f6:bf:9d:92:10:6a:e9:c9:
                    31:a0:d7:77:7e:79:e9:40:a3:b8:ab:a5:d2:69:8b:
                    e7:4b:3c:a7:ec:b3:d8:9e:45:87:6d:46:3e:b8:a1:
                    3a:47:dc:53:2f:26:5e:7f:71:01:90:c9:54:f7:d9:
                    79:6e:5a:0e:36:7e:ae:1d:1a:c7:83:22:b5:35:5c:
                    8d:d9:26:ef:ed:44:9e:2c:6a:6c:ac:77:ab:b3:ec:
                    d0:9d:ae:df:ec:bc:14:c6:9c:73:68:7e:6d:ab:48:
                    42:36:d3:84:17:05:f4:7c:ac:cd:38:b5:d8:6a:ed:
                    2d:51:45:c9:52:c6:1a:f1:ed:5d:a1:dd:8a:03:27:
                    4b:31
                Exponent: 65537 (0x10001)
        X509v3 extensions:
            X509v3 Basic Constraints: 
                CA:FALSE
            X509v3 Subject Key Identifier: 
                08:D0:F9:FA:80:CF:DD:C5:62:C1:60:EC:BF:92:89:1A:FD:91:E6:12
            X509v3 Authority Key Identifier: 
                keyid:13:EF:3E:4F:16:DC:08:BC:0F:6D:0C:45:5D:81:5A:23:DC:58:BA:9E
                DirName:/CN=team593-net
                serial:3D:50:C0:C5:F3:4B:18:B4:E1:E6:CA:9E:B1:4A:A9:62:1A:FD:B2:AC

            X509v3 Extended Key Usage: 
                TLS Web Server Authentication
            X509v3 Key Usage: 
                Digital Signature, Key Encipherment
            X509v3 Subject Alternative Name: 
                DNS:team593-server
    Signature Algorithm: sha256WithRSAEncryption
         11:9f:b6:6f:40:5a:c8:09:13:33:95:bf:c5:10:08:75:e7:85:
         be:97:9a:1e:6e:a0:2a:85:11:9b:be:16:79:92:72:34:30:8a:
         3f:fb:0e:14:79:2a:0e:91:93:44:9b:a4:ee:fb:b0:5a:60:58:
         7f:c6:08:16:28:54:75:2b:4c:c8:19:b0:b5:4e:b9:29:e6:c6:
         84:bf:67:a9:aa:13:b2:85:53:68:44:f0:78:a8:74:db:ea:22:
         1c:a1:07:b8:fd:56:fa:44:d7:06:6e:71:dc:6a:29:46:6f:7c:
         f8:ad:53:51:29:d6:b3:48:9c:b3:57:fa:d0:16:3d:7a:1c:17:
         f3:e9:3a:56:1a:bd:8d:fb:5b:26:7b:92:e3:48:a7:2a:29:ed:
         20:56:44:e2:5a:0b:be:27:fd:c5:16:0d:a0:cd:05:14:07:74:
         14:0b:9a:ea:68:73:b4:a7:bc:25:c3:91:54:73:18:2e:51:54:
         6f:26:d5:85:de:26:95:c2:13:93:95:52:48:42:aa:64:47:20:
         60:5e:1c:2b:f9:97:24:ff:a9:a9:02:63:77:50:87:e0:0d:8c:
         b8:d6:ea:60:10:c4:60:e2:6c:dc:ae:09:73:e9:65:a3:d4:f0:
         ae:fd:a1:04:aa:97:89:c2:9b:8a:86:9c:c6:8d:13:76:70:ff:
         25:72:99:bf
-----BEGIN CERTIFICATE-----
MIIDdzCCAl+gAwIBAgIQRqKvQDviB7mJ8aVaEsqdYjANBgkqhkiG9w0BAQsFADAW
MRQwEgYDVQQDDAt0ZWFtNTkzLW5ldDAeFw0yMTA5MTMwMzU4MDlaFw0yNDA4Mjgw
MzU4MDlaMBkxFzAVBgNVBAMMDnRlYW01OTMtc2VydmVyMIIBIjANBgkqhkiG9w0B
AQEFAAOCAQ8AMIIBCgKCAQEA0Gl6LW3Ov7lv29JsdbSROdNzG9uA5WbMZw13m6Kf
5z4B3umGyTiOA9/yfJacXPuKh12Vh9o/bCq+DSyFBogbkC4kW7Rvx/QTYFtT+21x
mbDePI1WpsJ/IlSZTS7O0GcypmNCPkie+U008YspTz4F2mG3WFxbPQDCmQR9JSVX
9r+dkhBq6ckxoNd3fnnpQKO4q6XSaYvnSzyn7LPYnkWHbUY+uKE6R9xTLyZef3EB
kMlU99l5bloONn6uHRrHgyK1NVyN2Sbv7USeLGpsrHers+zQna7f7LwUxpxzaH5t
q0hCNtOEFwX0fKzNOLXYau0tUUXJUsYa8e1dod2KAydLMQIDAQABo4G9MIG6MAkG
A1UdEwQCMAAwHQYDVR0OBBYEFAjQ+fqAz93FYsFg7L+SiRr9keYSMFEGA1UdIwRK
MEiAFBPvPk8W3Ai8D20MRV2BWiPcWLqeoRqkGDAWMRQwEgYDVQQDDAt0ZWFtNTkz
LW5ldIIUPVDAxfNLGLTh5sqesUqpYhr9sqwwEwYDVR0lBAwwCgYIKwYBBQUHAwEw
CwYDVR0PBAQDAgWgMBkGA1UdEQQSMBCCDnRlYW01OTMtc2VydmVyMA0GCSqGSIb3
DQEBCwUAA4IBAQARn7ZvQFrICRMzlb/FEAh154W+l5oebqAqhRGbvhZ5knI0MIo/
+w4UeSoOkZNEm6Tu+7BaYFh/xggWKFR1K0zIGbC1Trkp5saEv2epqhOyhVNoRPB4
qHTb6iIcoQe4/Vb6RNcGbnHcailGb3z4rVNRKdazSJyzV/rQFj16HBfz6TpWGr2N
+1sme5LjSKcqKe0gVkTiWgu+J/3FFg2gzQUUB3QUC5rqaHO0p7wlw5FUcxguUVRv
JtWF3iaVwhOTlVJIQqpkRyBgXhwr+Zck/6mpAmN3UIfgDYy41upgEMRg4mzcrglz
6WWj1PCu/aEEqpeJwpuKhpzGjRN2cP8lcpm/
-----END CERTIFICATE-----
