Certificate:
    Data:
        Version: 3 (0x2)
        Serial Number:
            dd:6d:e8:29:ec:58:9f:a8:16:24:52:54:3e:84:4c:fe
        Signature Algorithm: sha256WithRSAEncryption
        Issuer: CN=team482-net
        Validity
            Not Before: Sep 13 02:59:03 2021 GMT
            Not After : Aug 28 02:59:03 2024 GMT
        Subject: CN=team482-client
        Subject Public Key Info:
            Public Key Algorithm: rsaEncryption
                RSA Public-Key: (2048 bit)
                Modulus:
                    00:ad:ee:db:4d:84:89:75:5b:f4:05:b5:e8:ec:11:
                    f4:49:82:3f:29:fe:e0:a3:af:c4:52:37:55:2b:10:
                    b7:eb:a2:ed:28:f0:bb:38:2b:38:19:9b:23:8d:8a:
                    19:ca:3d:a6:d1:c0:ec:07:71:17:2f:c3:42:5d:a6:
                    04:d9:7a:3b:33:09:6d:b5:d2:b5:85:aa:09:31:47:
                    08:16:51:65:b8:4b:02:d0:f5:76:fe:66:bc:9c:24:
                    ec:c3:9f:6e:a3:e6:4f:8b:00:ca:c7:d5:5f:56:41:
                    4c:5c:16:b5:ef:e0:cf:f3:19:d3:34:a8:49:0f:aa:
                    b6:27:3c:96:6c:ea:05:e8:64:09:e9:0f:ed:c3:6a:
                    ae:92:c5:30:58:03:20:b4:62:b5:5a:47:34:49:d8:
                    95:80:7a:04:31:17:8d:91:38:a9:3f:a1:6f:a7:78:
                    8d:03:e6:23:cc:af:f4:8a:8d:84:6b:cd:3d:3d:77:
                    45:bd:81:31:fd:82:f6:1d:d9:58:af:b2:fb:0d:b4:
                    62:6d:64:ad:52:82:d7:75:75:0d:16:03:2c:5c:f6:
                    5c:6c:8e:7e:8e:b9:f0:ff:75:57:56:c4:31:08:09:
                    4e:10:87:63:a2:62:2e:c4:d3:f2:ff:66:9e:00:40:
                    35:df:8c:9c:50:eb:20:97:85:79:60:c4:9e:59:ce:
                    03:87
                Exponent: 65537 (0x10001)
        X509v3 extensions:
            X509v3 Basic Constraints: 
                CA:FALSE
            X509v3 Subject Key Identifier: 
                38:D8:D8:AF:21:E3:33:2C:4A:18:0C:36:DA:2E:FB:82:A2:0F:D1:12
            X509v3 Authority Key Identifier: 
                keyid:10:04:C1:0E:61:0A:B5:8A:7D:49:A4:0E:5D:1D:EE:8B:8E:C6:BA:98
                DirName:/CN=team482-net
                serial:05:7C:46:40:63:AE:48:DA:AB:52:E0:A7:4D:D6:55:E6:33:13:DF:5F

            X509v3 Extended Key Usage: 
                TLS Web Client Authentication
            X509v3 Key Usage: 
                Digital Signature
    Signature Algorithm: sha256WithRSAEncryption
         2d:e7:95:a5:a4:79:0f:fa:d2:63:5d:37:08:e1:ae:b0:ca:e5:
         42:3c:89:56:5d:79:6b:22:5f:3b:2e:ff:9c:7e:c9:6c:51:a1:
         68:5d:53:61:9e:db:e3:4b:dc:1a:68:d9:39:ed:76:e9:4e:01:
         b5:1f:01:8c:f8:75:91:b4:f0:fd:a1:f3:af:58:a3:90:5c:17:
         7b:72:ab:20:9f:f0:72:4c:fe:fd:a3:d8:91:36:79:20:a6:49:
         d9:57:26:84:cd:3f:73:1c:b1:92:5b:2f:df:d8:d0:99:fa:0e:
         9a:9f:ce:6c:2e:ac:9c:38:88:98:f6:39:37:60:f7:57:28:57:
         f4:a9:1d:b3:a5:92:02:ab:6e:e5:7b:ed:ad:71:22:9e:d9:51:
         d9:30:cb:ec:b1:da:11:a6:b8:c2:d4:c8:3e:9f:fa:e5:09:e6:
         10:cb:11:9a:25:ec:35:83:2d:41:e8:93:6c:76:97:c5:d8:20:
         a8:f5:96:ff:47:d3:84:2d:25:c8:3b:ed:c8:12:79:ad:b3:7b:
         53:24:5d:47:d0:3f:ee:00:66:0a:a7:18:25:ee:70:a8:1b:cc:
         46:8e:42:bc:15:6c:92:11:a7:d0:b8:77:39:8e:3d:50:7c:e3:
         66:d3:1d:73:18:95:ce:36:6a:82:71:0d:2e:87:ad:be:4d:01:
         ca:69:fb:d3
-----BEGIN CERTIFICATE-----
MIIDXTCCAkWgAwIBAgIRAN1t6CnsWJ+oFiRSVD6ETP4wDQYJKoZIhvcNAQELBQAw
FjEUMBIGA1UEAwwLdGVhbTQ4Mi1uZXQwHhcNMjEwOTEzMDI1OTAzWhcNMjQwODI4
MDI1OTAzWjAZMRcwFQYDVQQDDA50ZWFtNDgyLWNsaWVudDCCASIwDQYJKoZIhvcN
AQEBBQADggEPADCCAQoCggEBAK3u202EiXVb9AW16OwR9EmCPyn+4KOvxFI3VSsQ
t+ui7SjwuzgrOBmbI42KGco9ptHA7AdxFy/DQl2mBNl6OzMJbbXStYWqCTFHCBZR
ZbhLAtD1dv5mvJwk7MOfbqPmT4sAysfVX1ZBTFwWte/gz/MZ0zSoSQ+qtic8lmzq
BehkCekP7cNqrpLFMFgDILRitVpHNEnYlYB6BDEXjZE4qT+hb6d4jQPmI8yv9IqN
hGvNPT13Rb2BMf2C9h3ZWK+y+w20Ym1krVKC13V1DRYDLFz2XGyOfo658P91V1bE
MQgJThCHY6JiLsTT8v9mngBANd+MnFDrIJeFeWDEnlnOA4cCAwEAAaOBojCBnzAJ
BgNVHRMEAjAAMB0GA1UdDgQWBBQ42NivIeMzLEoYDDbaLvuCog/REjBRBgNVHSME
SjBIgBQQBMEOYQq1in1JpA5dHe6Ljsa6mKEapBgwFjEUMBIGA1UEAwwLdGVhbTQ4
Mi1uZXSCFAV8RkBjrkjaq1Lgp03WVeYzE99fMBMGA1UdJQQMMAoGCCsGAQUFBwMC
MAsGA1UdDwQEAwIHgDANBgkqhkiG9w0BAQsFAAOCAQEALeeVpaR5D/rSY103COGu
sMrlQjyJVl15ayJfOy7/nH7JbFGhaF1TYZ7b40vcGmjZOe126U4BtR8BjPh1kbTw
/aHzr1ijkFwXe3KrIJ/wckz+/aPYkTZ5IKZJ2VcmhM0/cxyxklsv39jQmfoOmp/O
bC6snDiImPY5N2D3VyhX9Kkds6WSAqtu5XvtrXEintlR2TDL7LHaEaa4wtTIPp/6
5QnmEMsRmiXsNYMtQeiTbHaXxdggqPWW/0fThC0lyDvtyBJ5rbN7UyRdR9A/7gBm
CqcYJe5wqBvMRo5CvBVskhGn0Lh3OY49UHzjZtMdcxiVzjZqgnENLoetvk0Bymn7
0w==
-----END CERTIFICATE-----
