Certificate:
    Data:
        Version: 3 (0x2)
        Serial Number:
            e4:fc:79:26:08:79:ed:9e:16:24:58:a6:36:a3:fb:32
        Signature Algorithm: sha256WithRSAEncryption
        Issuer: CN=team482-net
        Validity
            Not Before: Sep 13 02:59:03 2021 GMT
            Not After : Aug 28 02:59:03 2024 GMT
        Subject: CN=team482-server
        Subject Public Key Info:
            Public Key Algorithm: rsaEncryption
                RSA Public-Key: (2048 bit)
                Modulus:
                    00:c0:59:5f:35:fa:18:b3:26:57:6a:72:43:f1:10:
                    90:a8:38:07:4a:a5:fc:1c:df:65:ac:36:9d:54:bb:
                    3a:b2:51:1e:86:9c:2d:71:32:b0:82:38:11:54:34:
                    5d:7f:55:2e:62:42:c2:3b:fc:33:dd:35:aa:77:47:
                    c4:af:d1:c8:ae:9d:8a:53:82:29:25:a7:08:a6:11:
                    56:52:92:b9:8c:67:37:6a:2f:1f:63:a7:03:a8:02:
                    92:6c:92:0f:ca:d1:ac:89:86:b3:15:ab:4b:ae:08:
                    1a:a3:1e:d9:b1:f1:23:63:88:24:65:c8:06:9c:19:
                    bb:b6:54:ab:dd:d8:8a:c2:ba:c4:34:45:15:e0:de:
                    da:69:00:06:80:37:0d:42:ef:de:15:21:1a:ae:0f:
                    8b:91:51:a7:9e:6f:74:df:b5:db:af:06:b1:41:3b:
                    c2:84:f8:8d:49:b0:d5:85:1b:a2:a8:59:84:85:5b:
                    c2:34:f5:1c:45:0c:3c:f3:51:9f:26:7d:8a:f1:1c:
                    36:9c:09:e1:88:02:d9:c3:57:c4:6f:13:57:3e:ad:
                    79:18:03:cc:0c:54:4b:e5:b4:d2:55:04:49:70:e1:
                    cf:32:77:ef:d1:b0:9c:a0:1c:d8:e3:8f:03:3f:20:
                    11:d8:fb:3e:e8:64:dd:34:3b:92:3b:22:7e:78:3e:
                    86:c1
                Exponent: 65537 (0x10001)
        X509v3 extensions:
            X509v3 Basic Constraints: 
                CA:FALSE
            X509v3 Subject Key Identifier: 
                BB:08:44:A4:7E:46:07:F3:22:CB:6E:96:F2:CF:A1:DB:CD:8F:BD:4E
            X509v3 Authority Key Identifier: 
                keyid:10:04:C1:0E:61:0A:B5:8A:7D:49:A4:0E:5D:1D:EE:8B:8E:C6:BA:98
                DirName:/CN=team482-net
                serial:05:7C:46:40:63:AE:48:DA:AB:52:E0:A7:4D:D6:55:E6:33:13:DF:5F

            X509v3 Extended Key Usage: 
                TLS Web Server Authentication
            X509v3 Key Usage: 
                Digital Signature, Key Encipherment
            X509v3 Subject Alternative Name: 
                DNS:team482-server
    Signature Algorithm: sha256WithRSAEncryption
         2a:ff:d0:a3:5d:85:30:10:a0:6c:d2:a8:bf:59:b0:cd:32:11:
         bd:7c:36:c6:fa:62:b2:e8:8a:e9:af:5e:0b:4d:39:45:42:15:
         f4:58:b9:2f:26:54:73:87:6f:c3:47:25:b8:dd:bf:5f:cf:dd:
         ba:6a:3a:6e:e3:ca:76:b8:29:ee:5a:50:6f:2f:39:e3:e5:06:
         82:f7:f3:c8:39:5c:9b:cf:2f:4f:ea:cd:dc:8d:9f:d1:a2:39:
         b5:44:ea:1c:62:1c:10:97:63:c4:de:09:b4:b5:5b:2d:6b:15:
         03:f8:bf:5f:ea:4a:6c:c1:d0:70:21:73:3b:a5:e5:e5:25:42:
         ee:75:3f:7e:e8:0b:72:ca:3c:8c:f0:67:c9:6b:ba:e1:8b:18:
         77:b9:6b:bd:b5:db:30:30:9d:d7:63:ca:b2:fd:dc:72:52:a1:
         82:c7:96:03:1f:33:d2:eb:2a:27:a0:12:66:30:ee:37:3b:35:
         11:4d:47:fc:8f:02:3e:f1:81:76:a5:ba:d3:a4:ec:2c:62:fa:
         36:de:f9:e8:ff:84:8a:4f:69:89:6f:5b:cf:e3:63:6a:f0:99:
         70:80:1c:c5:4c:8f:0f:ee:83:1a:dc:b2:d3:98:86:fa:a5:0f:
         d5:1f:69:8d:cf:cd:f1:32:cc:59:19:98:f1:7e:93:ae:ee:2b:
         96:1e:6c:41
-----BEGIN CERTIFICATE-----
MIIDeDCCAmCgAwIBAgIRAOT8eSYIee2eFiRYpjaj+zIwDQYJKoZIhvcNAQELBQAw
FjEUMBIGA1UEAwwLdGVhbTQ4Mi1uZXQwHhcNMjEwOTEzMDI1OTAzWhcNMjQwODI4
MDI1OTAzWjAZMRcwFQYDVQQDDA50ZWFtNDgyLXNlcnZlcjCCASIwDQYJKoZIhvcN
AQEBBQADggEPADCCAQoCggEBAMBZXzX6GLMmV2pyQ/EQkKg4B0ql/BzfZaw2nVS7
OrJRHoacLXEysII4EVQ0XX9VLmJCwjv8M901qndHxK/RyK6dilOCKSWnCKYRVlKS
uYxnN2ovH2OnA6gCkmySD8rRrImGsxWrS64IGqMe2bHxI2OIJGXIBpwZu7ZUq93Y
isK6xDRFFeDe2mkABoA3DULv3hUhGq4Pi5FRp55vdN+1268GsUE7woT4jUmw1YUb
oqhZhIVbwjT1HEUMPPNRnyZ9ivEcNpwJ4YgC2cNXxG8TVz6teRgDzAxUS+W00lUE
SXDhzzJ379GwnKAc2OOPAz8gEdj7Puhk3TQ7kjsifng+hsECAwEAAaOBvTCBujAJ
BgNVHRMEAjAAMB0GA1UdDgQWBBS7CESkfkYH8yLLbpbyz6HbzY+9TjBRBgNVHSME
SjBIgBQQBMEOYQq1in1JpA5dHe6Ljsa6mKEapBgwFjEUMBIGA1UEAwwLdGVhbTQ4
Mi1uZXSCFAV8RkBjrkjaq1Lgp03WVeYzE99fMBMGA1UdJQQMMAoGCCsGAQUFBwMB
MAsGA1UdDwQEAwIFoDAZBgNVHREEEjAQgg50ZWFtNDgyLXNlcnZlcjANBgkqhkiG
9w0BAQsFAAOCAQEAKv/Qo12FMBCgbNKov1mwzTIRvXw2xvpisuiK6a9eC005RUIV
9Fi5LyZUc4dvw0cluN2/X8/dumo6buPKdrgp7lpQby854+UGgvfzyDlcm88vT+rN
3I2f0aI5tUTqHGIcEJdjxN4JtLVbLWsVA/i/X+pKbMHQcCFzO6Xl5SVC7nU/fugL
cso8jPBnyWu64YsYd7lrvbXbMDCd12PKsv3cclKhgseWAx8z0usqJ6ASZjDuNzs1
EU1H/I8CPvGBdqW606TsLGL6Nt756P+Eik9piW9bz+NjavCZcIAcxUyPD+6DGtyy
05iG+qUP1R9pjc/N8TLMWRmY8X6Tru4rlh5sQQ==
-----END CERTIFICATE-----
