Certificate:
    Data:
        Version: 3 (0x2)
        Serial Number:
            d3:ea:12:a4:15:02:14:1e:15:f1:d9:ee:43:62:0b:69
        Signature Algorithm: sha256WithRSAEncryption
        Issuer: CN=team501-net
        Validity
            Not Before: Sep 13 03:09:17 2021 GMT
            Not After : Aug 28 03:09:17 2024 GMT
        Subject: CN=team501-server
        Subject Public Key Info:
            Public Key Algorithm: rsaEncryption
                RSA Public-Key: (2048 bit)
                Modulus:
                    00:a7:58:84:51:59:52:be:c2:9b:2d:9c:5d:23:d5:
                    78:0d:8e:73:d4:c8:fe:40:9e:6c:8d:0c:d4:a0:7a:
                    84:05:0f:eb:9e:c5:cd:0d:dd:34:33:cb:26:e7:01:
                    0c:53:f6:60:2b:ca:20:f6:03:9e:c8:67:da:62:be:
                    55:1e:4e:a5:74:f2:9e:34:68:bd:5a:f5:6a:7c:de:
                    84:49:59:e7:b8:5c:49:0a:51:39:fb:00:46:36:1e:
                    c9:bd:20:eb:06:9e:b8:a5:05:8a:a4:8d:68:53:c2:
                    74:97:7c:51:67:16:3a:a1:ff:a6:8a:30:f3:2b:2e:
                    a1:42:44:6b:1c:48:aa:65:5e:2c:52:d8:30:49:f6:
                    59:53:da:33:21:84:50:ff:66:71:35:37:77:13:90:
                    c6:22:5c:47:79:91:18:7b:ff:23:00:82:39:90:77:
                    c2:6a:c8:2e:bc:bf:7f:03:ef:af:63:14:b9:f0:cb:
                    50:f4:9e:8d:38:04:93:4e:67:05:de:47:4f:07:e4:
                    7f:cb:34:ba:b8:e3:07:7c:98:f5:88:a7:8b:e6:f8:
                    7e:4e:37:d4:97:7a:08:b9:0d:c9:ed:b8:6c:9b:37:
                    ef:c7:17:87:f1:38:72:26:0a:58:f5:98:d1:bb:cf:
                    6a:a9:b9:05:ce:79:59:7e:b7:38:42:c6:62:fb:dd:
                    89:c3
                Exponent: 65537 (0x10001)
        X509v3 extensions:
            X509v3 Basic Constraints: 
                CA:FALSE
            X509v3 Subject Key Identifier: 
                11:5A:A3:A8:68:FE:40:E5:0A:9E:9E:8B:2B:0E:B7:B1:A6:75:28:66
            X509v3 Authority Key Identifier: 
                keyid:E8:01:64:0E:0C:7B:C9:84:5B:C9:B2:49:55:91:96:31:AE:C2:68:26
                DirName:/CN=team501-net
                serial:2B:88:21:79:05:A5:E9:85:A3:AA:88:DD:38:91:26:F4:37:F2:FB:6E

            X509v3 Extended Key Usage: 
                TLS Web Server Authentication
            X509v3 Key Usage: 
                Digital Signature, Key Encipherment
            X509v3 Subject Alternative Name: 
                DNS:team501-server
    Signature Algorithm: sha256WithRSAEncryption
         0a:4f:26:0a:35:d6:ce:77:3b:9b:eb:78:13:ca:cc:29:02:d8:
         dc:22:6c:72:b8:89:94:ff:d4:93:61:2a:39:0d:51:08:81:09:
         09:90:9a:16:9d:b8:2f:b9:b8:0a:4a:b5:87:6f:a9:1f:76:78:
         dd:e0:28:0d:51:e0:d7:c2:7d:3b:4b:69:9f:d6:7a:6c:a8:7f:
         67:5e:ac:69:7a:c8:67:39:4c:a8:a8:a8:bf:fe:54:ab:c1:bd:
         9d:63:b6:dc:bd:e9:87:1b:83:ff:f2:85:04:f2:88:de:01:f2:
         dd:ca:78:73:10:0e:f9:0b:fd:7d:ee:f8:cf:17:30:4b:8e:7a:
         0a:8e:2d:ab:ba:cb:81:1a:9b:b5:66:dc:36:e3:3a:f8:03:f5:
         0c:86:8e:4e:09:d1:d8:98:c3:6e:af:d9:76:1a:2f:9b:74:c2:
         7a:ef:45:f0:df:99:9c:56:ba:68:98:a9:9e:b2:27:1c:f5:a6:
         94:37:8f:48:b7:97:09:1a:68:5b:e4:56:b1:f4:59:f9:8e:12:
         ef:64:6a:1a:2a:a6:bb:ce:5d:ee:e4:bd:53:30:a3:a1:49:7a:
         1d:1d:27:05:18:e3:27:5a:88:92:68:1b:eb:8a:93:49:4b:27:
         5e:7e:8b:3b:2a:3b:8f:84:35:e2:e1:2b:51:1a:68:69:6e:3d:
         d5:97:14:79
-----BEGIN CERTIFICATE-----
MIIDeDCCAmCgAwIBAgIRANPqEqQVAhQeFfHZ7kNiC2kwDQYJKoZIhvcNAQELBQAw
FjEUMBIGA1UEAwwLdGVhbTUwMS1uZXQwHhcNMjEwOTEzMDMwOTE3WhcNMjQwODI4
MDMwOTE3WjAZMRcwFQYDVQQDDA50ZWFtNTAxLXNlcnZlcjCCASIwDQYJKoZIhvcN
AQEBBQADggEPADCCAQoCggEBAKdYhFFZUr7Cmy2cXSPVeA2Oc9TI/kCebI0M1KB6
hAUP657FzQ3dNDPLJucBDFP2YCvKIPYDnshn2mK+VR5OpXTynjRovVr1anzehElZ
57hcSQpROfsARjYeyb0g6waeuKUFiqSNaFPCdJd8UWcWOqH/poow8ysuoUJEaxxI
qmVeLFLYMEn2WVPaMyGEUP9mcTU3dxOQxiJcR3mRGHv/IwCCOZB3wmrILry/fwPv
r2MUufDLUPSejTgEk05nBd5HTwfkf8s0urjjB3yY9Yini+b4fk431Jd6CLkNye24
bJs378cXh/E4ciYKWPWY0bvPaqm5Bc55WX63OELGYvvdicMCAwEAAaOBvTCBujAJ
BgNVHRMEAjAAMB0GA1UdDgQWBBQRWqOoaP5A5QqenosrDrexpnUoZjBRBgNVHSME
SjBIgBToAWQODHvJhFvJsklVkZYxrsJoJqEapBgwFjEUMBIGA1UEAwwLdGVhbTUw
MS1uZXSCFCuIIXkFpemFo6qI3TiRJvQ38vtuMBMGA1UdJQQMMAoGCCsGAQUFBwMB
MAsGA1UdDwQEAwIFoDAZBgNVHREEEjAQgg50ZWFtNTAxLXNlcnZlcjANBgkqhkiG
9w0BAQsFAAOCAQEACk8mCjXWznc7m+t4E8rMKQLY3CJscriJlP/Uk2EqOQ1RCIEJ
CZCaFp24L7m4Ckq1h2+pH3Z43eAoDVHg18J9O0tpn9Z6bKh/Z16saXrIZzlMqKio
v/5Uq8G9nWO23L3phxuD//KFBPKI3gHy3cp4cxAO+Qv9fe74zxcwS456Co4tq7rL
gRqbtWbcNuM6+AP1DIaOTgnR2JjDbq/Zdhovm3TCeu9F8N+ZnFa6aJipnrInHPWm
lDePSLeXCRpoW+RWsfRZ+Y4S72RqGiqmu85d7uS9UzCjoUl6HR0nBRjjJ1qIkmgb
64qTSUsnXn6LOyo7j4Q14uErURpoaW491ZcUeQ==
-----END CERTIFICATE-----
