Certificate:
    Data:
        Version: 3 (0x2)
        Serial Number:
            e5:9e:a1:fd:8a:20:5d:e2:4c:65:a5:7a:87:41:22:34
        Signature Algorithm: sha256WithRSAEncryption
        Issuer: CN=team149-net
        Validity
            Not Before: Sep 13 00:10:29 2021 GMT
            Not After : Aug 28 00:10:29 2024 GMT
        Subject: CN=team149-server
        Subject Public Key Info:
            Public Key Algorithm: rsaEncryption
                RSA Public-Key: (2048 bit)
                Modulus:
                    00:af:29:45:11:82:ba:7c:a8:35:f6:6d:ea:9b:cd:
                    f7:3c:bf:d6:65:a3:07:23:c4:91:63:c1:ed:e7:fe:
                    fa:e2:de:ad:f2:60:1f:d6:1b:e0:84:3b:28:28:b0:
                    be:40:7b:86:00:69:9f:c7:e9:50:a9:68:0e:bd:6d:
                    92:f6:55:01:21:5e:5d:a6:14:f9:d5:fc:bc:d1:aa:
                    b3:f2:76:5d:8c:bd:f6:96:71:98:cb:c2:ce:cf:bb:
                    08:db:68:3b:cf:92:12:2e:a7:ae:f6:fa:55:94:8c:
                    4c:6a:8e:cb:85:5e:45:1c:36:25:cd:ff:54:e5:be:
                    d0:79:b9:84:4f:ee:4c:1f:27:d1:61:0e:56:68:fd:
                    b1:08:64:2f:13:21:2f:21:23:ae:3d:33:ba:99:8f:
                    0d:06:ac:4b:d9:ef:ca:25:c4:55:59:87:5f:d7:73:
                    ba:0d:3a:27:c4:06:e8:a8:b9:01:f4:50:7e:92:a7:
                    4e:d6:e2:12:8a:85:cf:d2:eb:50:4f:30:78:c8:d2:
                    5d:c0:50:32:b1:a5:25:95:3d:3c:94:05:32:a5:4f:
                    cb:00:db:34:4a:6c:6f:bd:33:04:c6:ac:e2:aa:9c:
                    1c:68:47:a4:56:99:f0:df:7c:69:f1:d0:52:2e:f7:
                    38:ad:32:c9:71:48:a0:72:f6:0a:bc:48:32:27:b7:
                    33:83
                Exponent: 65537 (0x10001)
        X509v3 extensions:
            X509v3 Basic Constraints: 
                CA:FALSE
            X509v3 Subject Key Identifier: 
                32:08:73:98:B5:E9:83:70:52:A0:86:C1:A5:97:EB:28:64:08:ED:CC
            X509v3 Authority Key Identifier: 
                keyid:A4:6C:81:DC:DF:D0:34:0F:36:E6:DD:0F:03:9D:DA:36:EB:45:F3:5C
                DirName:/CN=team149-net
                serial:45:F9:B8:FB:B7:21:A1:00:75:0A:F4:65:77:27:48:1A:2B:77:A5:12

            X509v3 Extended Key Usage: 
                TLS Web Server Authentication
            X509v3 Key Usage: 
                Digital Signature, Key Encipherment
            X509v3 Subject Alternative Name: 
                DNS:team149-server
    Signature Algorithm: sha256WithRSAEncryption
         52:93:0f:17:36:fc:c4:f9:a2:ce:48:21:69:f3:4d:f0:86:cd:
         f4:a7:33:dc:24:3b:5d:3b:22:9e:34:6f:38:50:cf:aa:49:dd:
         e6:d3:d0:83:70:1a:ef:87:9c:04:c2:02:c2:49:8e:e3:f5:5e:
         8a:20:d4:7f:62:be:cb:40:3f:b9:67:28:f2:1b:f1:be:23:e0:
         3d:cc:39:a9:89:00:67:1e:91:48:a1:4f:13:26:34:8f:ef:a7:
         53:22:55:39:f5:6a:28:64:f1:5a:a4:a0:57:bc:79:41:bf:1c:
         04:19:60:c4:d8:6d:83:b3:69:2f:a4:07:57:26:32:54:ad:e1:
         10:b1:68:a6:7a:90:56:5e:5d:ad:c3:04:bb:3b:70:56:6a:ff:
         62:45:eb:7b:4f:a8:dd:0a:28:e0:88:0f:fc:70:1c:2a:ec:03:
         f1:5c:39:b9:48:72:71:5a:c8:fe:d9:21:7f:4b:5a:2e:f2:b3:
         d5:44:d7:e6:31:e2:32:74:d3:f0:e2:f5:80:e6:92:90:28:92:
         1c:19:98:a6:11:2a:6e:08:7d:9d:63:e4:9f:c3:11:55:c1:b1:
         e8:67:91:da:b0:5e:62:2a:82:03:39:8e:09:dc:58:64:bd:85:
         78:b6:fe:78:dc:d2:e6:4d:f5:ab:f4:2a:7d:92:77:3c:82:25:
         e5:88:a3:63
-----BEGIN CERTIFICATE-----
MIIDeDCCAmCgAwIBAgIRAOWeof2KIF3iTGWleodBIjQwDQYJKoZIhvcNAQELBQAw
FjEUMBIGA1UEAwwLdGVhbTE0OS1uZXQwHhcNMjEwOTEzMDAxMDI5WhcNMjQwODI4
MDAxMDI5WjAZMRcwFQYDVQQDDA50ZWFtMTQ5LXNlcnZlcjCCASIwDQYJKoZIhvcN
AQEBBQADggEPADCCAQoCggEBAK8pRRGCunyoNfZt6pvN9zy/1mWjByPEkWPB7ef+
+uLerfJgH9Yb4IQ7KCiwvkB7hgBpn8fpUKloDr1tkvZVASFeXaYU+dX8vNGqs/J2
XYy99pZxmMvCzs+7CNtoO8+SEi6nrvb6VZSMTGqOy4VeRRw2Jc3/VOW+0Hm5hE/u
TB8n0WEOVmj9sQhkLxMhLyEjrj0zupmPDQasS9nvyiXEVVmHX9dzug06J8QG6Ki5
AfRQfpKnTtbiEoqFz9LrUE8weMjSXcBQMrGlJZU9PJQFMqVPywDbNEpsb70zBMas
4qqcHGhHpFaZ8N98afHQUi73OK0yyXFIoHL2CrxIMie3M4MCAwEAAaOBvTCBujAJ
BgNVHRMEAjAAMB0GA1UdDgQWBBQyCHOYtemDcFKghsGll+soZAjtzDBRBgNVHSME
SjBIgBSkbIHc39A0Dzbm3Q8Dndo260XzXKEapBgwFjEUMBIGA1UEAwwLdGVhbTE0
OS1uZXSCFEX5uPu3IaEAdQr0ZXcnSBord6USMBMGA1UdJQQMMAoGCCsGAQUFBwMB
MAsGA1UdDwQEAwIFoDAZBgNVHREEEjAQgg50ZWFtMTQ5LXNlcnZlcjANBgkqhkiG
9w0BAQsFAAOCAQEAUpMPFzb8xPmizkghafNN8IbN9Kcz3CQ7XTsinjRvOFDPqknd
5tPQg3Aa74ecBMICwkmO4/VeiiDUf2K+y0A/uWco8hvxviPgPcw5qYkAZx6RSKFP
EyY0j++nUyJVOfVqKGTxWqSgV7x5Qb8cBBlgxNhtg7NpL6QHVyYyVK3hELFopnqQ
Vl5drcMEuztwVmr/YkXre0+o3Qoo4IgP/HAcKuwD8Vw5uUhycVrI/tkhf0taLvKz
1UTX5jHiMnTT8OL1gOaSkCiSHBmYphEqbgh9nWPkn8MRVcGx6GeR2rBeYiqCAzmO
CdxYZL2FeLb+eNzS5k31q/QqfZJ3PIIl5YijYw==
-----END CERTIFICATE-----
