Certificate:
    Data:
        Version: 3 (0x2)
        Serial Number:
            73:2f:98:53:c0:a3:44:44:b7:d4:4c:02:86:91:db:14
        Signature Algorithm: sha256WithRSAEncryption
        Issuer: CN=team419-net
        Validity
            Not Before: Sep 13 02:34:19 2021 GMT
            Not After : Aug 28 02:34:19 2024 GMT
        Subject: CN=team419-client
        Subject Public Key Info:
            Public Key Algorithm: rsaEncryption
                RSA Public-Key: (2048 bit)
                Modulus:
                    00:a1:90:13:c1:72:b3:ba:a8:ad:0e:63:fb:c5:8d:
                    8b:c7:59:4d:98:5f:37:cc:d5:93:68:40:56:97:58:
                    c1:3f:e4:3d:5a:58:76:4e:39:5b:65:06:ab:96:b2:
                    1c:78:a8:f1:b9:43:5c:3c:92:52:35:6d:71:e4:0b:
                    a2:9b:23:fa:4c:d5:c4:d6:a0:f3:56:e4:cc:5d:c6:
                    ec:3b:7e:41:5c:2c:de:24:95:b1:fd:af:0e:13:f7:
                    cc:40:96:0a:76:7d:95:c9:b5:c8:ba:a5:7a:72:da:
                    c3:b5:dd:42:57:dc:80:54:88:1e:c9:dc:ac:cd:93:
                    ac:04:9e:52:71:31:65:22:48:90:d0:e7:67:fd:15:
                    4c:af:ab:fb:85:8b:a0:b0:50:98:3c:1b:d4:e3:ba:
                    e9:41:83:a0:68:60:96:ca:fd:67:28:6a:2f:95:2c:
                    d3:30:4c:84:84:0c:e4:83:c6:04:61:3c:29:d0:f2:
                    71:a8:8e:a4:f9:b1:28:85:6a:c9:52:cc:9f:d7:8f:
                    a0:3b:62:1d:0b:89:f0:8c:38:4c:51:58:51:0d:d8:
                    6c:a1:be:03:9f:f4:c2:32:e5:89:c9:31:1e:23:49:
                    bd:3f:9b:9d:bd:c9:6e:4d:d2:cd:ca:fa:4b:95:ba:
                    4e:a2:7b:3b:9b:96:6b:60:20:c2:73:ed:16:d1:5b:
                    8e:89
                Exponent: 65537 (0x10001)
        X509v3 extensions:
            X509v3 Basic Constraints: 
                CA:FALSE
            X509v3 Subject Key Identifier: 
                C3:55:DA:C9:B5:47:F9:2E:5B:FC:91:5C:80:08:05:51:D0:99:2E:AC
            X509v3 Authority Key Identifier: 
                keyid:AB:AB:18:CB:12:9F:37:E7:F4:72:00:D0:0B:5A:BD:A1:07:C0:A7:16
                DirName:/CN=team419-net
                serial:3B:52:EF:13:FB:22:52:06:C5:A1:80:1C:C1:42:E5:B6:AF:75:97:0B

            X509v3 Extended Key Usage: 
                TLS Web Client Authentication
            X509v3 Key Usage: 
                Digital Signature
    Signature Algorithm: sha256WithRSAEncryption
         1c:3a:e7:88:b8:e1:75:3d:3a:e6:3c:1a:2e:7f:63:be:a3:90:
         16:17:dc:04:30:a3:0e:cf:db:29:18:98:97:a3:c3:81:18:2d:
         4e:e5:f2:ae:89:07:59:27:49:aa:9f:44:10:1a:1b:d8:ca:0a:
         58:b5:3f:17:25:54:c8:18:6d:d8:7d:7f:63:ed:8a:a1:c6:a1:
         51:63:d9:6b:73:a3:ba:e8:ed:1b:96:88:f1:65:c4:af:ab:a1:
         a5:73:60:9c:9e:00:63:a3:54:c5:ca:e0:e6:c6:a9:f4:a6:de:
         f7:64:d6:c9:f7:33:0a:4b:75:ac:60:5e:34:07:18:67:7b:7d:
         13:eb:fe:3f:fc:ff:2c:3d:47:91:d1:4f:3f:33:b8:be:68:68:
         f8:c8:8a:14:46:fe:aa:0b:95:48:78:73:94:c4:dc:69:c5:67:
         84:19:5f:e6:9e:56:f4:70:b5:6a:07:bc:ae:43:d7:2b:1b:1e:
         af:64:a2:a1:ff:47:1a:13:1f:e9:f7:ea:51:3f:34:3b:3d:0d:
         59:ab:0d:a5:38:35:88:aa:90:26:e2:10:44:8c:2f:c9:4c:f9:
         1c:4b:88:67:41:2d:8a:34:0d:a0:98:dc:fa:47:99:15:6d:61:
         a8:7e:b0:37:bc:31:8a:4c:af:ea:70:3d:fa:a8:c7:fd:fe:9b:
         d6:1c:89:8d
-----BEGIN CERTIFICATE-----
MIIDXDCCAkSgAwIBAgIQcy+YU8CjRES31EwChpHbFDANBgkqhkiG9w0BAQsFADAW
MRQwEgYDVQQDDAt0ZWFtNDE5LW5ldDAeFw0yMTA5MTMwMjM0MTlaFw0yNDA4Mjgw
MjM0MTlaMBkxFzAVBgNVBAMMDnRlYW00MTktY2xpZW50MIIBIjANBgkqhkiG9w0B
AQEFAAOCAQ8AMIIBCgKCAQEAoZATwXKzuqitDmP7xY2Lx1lNmF83zNWTaEBWl1jB
P+Q9Wlh2TjlbZQarlrIceKjxuUNcPJJSNW1x5AuimyP6TNXE1qDzVuTMXcbsO35B
XCzeJJWx/a8OE/fMQJYKdn2VybXIuqV6ctrDtd1CV9yAVIgeydyszZOsBJ5ScTFl
IkiQ0Odn/RVMr6v7hYugsFCYPBvU47rpQYOgaGCWyv1nKGovlSzTMEyEhAzkg8YE
YTwp0PJxqI6k+bEohWrJUsyf14+gO2IdC4nwjDhMUVhRDdhsob4Dn/TCMuWJyTEe
I0m9P5udvcluTdLNyvpLlbpOons7m5ZrYCDCc+0W0VuOiQIDAQABo4GiMIGfMAkG
A1UdEwQCMAAwHQYDVR0OBBYEFMNV2sm1R/kuW/yRXIAIBVHQmS6sMFEGA1UdIwRK
MEiAFKurGMsSnzfn9HIA0AtavaEHwKcWoRqkGDAWMRQwEgYDVQQDDAt0ZWFtNDE5
LW5ldIIUO1LvE/siUgbFoYAcwULltq91lwswEwYDVR0lBAwwCgYIKwYBBQUHAwIw
CwYDVR0PBAQDAgeAMA0GCSqGSIb3DQEBCwUAA4IBAQAcOueIuOF1PTrmPBouf2O+
o5AWF9wEMKMOz9spGJiXo8OBGC1O5fKuiQdZJ0mqn0QQGhvYygpYtT8XJVTIGG3Y
fX9j7YqhxqFRY9lrc6O66O0blojxZcSvq6Glc2CcngBjo1TFyuDmxqn0pt73ZNbJ
9zMKS3WsYF40Bxhne30T6/4//P8sPUeR0U8/M7i+aGj4yIoURv6qC5VIeHOUxNxp
xWeEGV/mnlb0cLVqB7yuQ9crGx6vZKKh/0caEx/p9+pRPzQ7PQ1Zqw2lODWIqpAm
4hBEjC/JTPkcS4hnQS2KNA2gmNz6R5kVbWGofrA3vDGKTK/qcD36qMf9/pvWHImN
-----END CERTIFICATE-----
