Certificate:
    Data:
        Version: 3 (0x2)
        Serial Number:
            b0:a2:25:51:c0:ee:45:ab:4a:1a:9c:89:2d:36:39:41
        Signature Algorithm: sha256WithRSAEncryption
        Issuer: CN=team419-net
        Validity
            Not Before: Sep 13 02:34:19 2021 GMT
            Not After : Aug 28 02:34:19 2024 GMT
        Subject: CN=team419-server
        Subject Public Key Info:
            Public Key Algorithm: rsaEncryption
                RSA Public-Key: (2048 bit)
                Modulus:
                    00:b4:e6:9a:6a:7b:22:19:b3:5d:2d:1a:e1:42:11:
                    b0:db:63:f6:ec:11:de:9f:1c:a3:2e:bd:4a:7a:25:
                    ed:bd:f2:69:af:2b:30:4c:64:0c:6f:b3:5a:12:55:
                    b5:60:bb:4d:16:18:4e:ee:c3:87:ba:c8:09:2a:d8:
                    50:50:d6:a5:71:3c:51:ac:18:3b:ae:8a:14:63:65:
                    67:a1:e7:ee:d3:71:a0:0b:f9:5a:f2:9c:c6:03:82:
                    e8:1d:f7:5f:ef:85:72:bc:43:de:cf:18:aa:ce:5d:
                    76:22:f7:86:95:f6:65:e3:68:b8:13:a7:c0:68:08:
                    0a:7a:6e:da:eb:8f:df:52:6b:39:d0:a8:0c:14:2f:
                    f0:f0:23:11:18:2b:83:c6:c3:21:c6:2a:44:da:4e:
                    73:d0:0f:d4:13:ca:5d:56:83:75:86:dd:2f:7d:55:
                    f4:59:fe:ef:7f:33:f7:60:b9:ab:c8:88:7e:d1:6b:
                    cc:2c:1a:de:27:cc:1b:de:01:b6:c6:86:f4:90:70:
                    1d:1a:fa:7e:34:29:2e:62:2b:cc:b0:1b:17:6a:52:
                    21:ce:61:fe:cf:f6:63:8d:ba:ad:68:0d:41:5f:25:
                    3b:f6:71:9f:c8:72:b7:d8:e3:ad:12:02:42:d8:b2:
                    3c:f8:69:e8:a9:8a:19:41:d1:b5:68:99:00:92:aa:
                    34:4b
                Exponent: 65537 (0x10001)
        X509v3 extensions:
            X509v3 Basic Constraints: 
                CA:FALSE
            X509v3 Subject Key Identifier: 
                46:23:58:17:28:6C:A6:CA:73:F0:49:A6:30:17:EC:BA:13:CA:A1:6D
            X509v3 Authority Key Identifier: 
                keyid:AB:AB:18:CB:12:9F:37:E7:F4:72:00:D0:0B:5A:BD:A1:07:C0:A7:16
                DirName:/CN=team419-net
                serial:3B:52:EF:13:FB:22:52:06:C5:A1:80:1C:C1:42:E5:B6:AF:75:97:0B

            X509v3 Extended Key Usage: 
                TLS Web Server Authentication
            X509v3 Key Usage: 
                Digital Signature, Key Encipherment
            X509v3 Subject Alternative Name: 
                DNS:team419-server
    Signature Algorithm: sha256WithRSAEncryption
         5e:45:db:69:52:4e:7e:94:da:d1:e7:06:2d:ea:b1:3b:96:3a:
         3f:ec:be:3c:fc:1f:4a:de:e7:1c:91:f5:f4:68:4f:7e:06:94:
         18:de:1c:bf:09:4d:74:57:28:69:1e:6d:5d:95:cc:2e:95:8e:
         d6:38:e1:5f:51:a2:e3:26:e7:9e:df:e4:03:c2:39:2a:44:3e:
         7b:a8:75:03:c6:2a:f3:47:12:16:9e:b1:c4:9e:d6:2b:bb:e3:
         74:22:f2:74:97:24:05:8c:79:b5:1f:bb:77:de:21:b3:14:e0:
         5e:73:cb:0a:e0:b8:e4:f1:14:6b:54:03:97:92:4a:67:e2:ae:
         b8:88:08:6e:f6:5e:40:ea:a3:47:bf:02:94:db:91:e4:e7:a1:
         97:77:cc:87:3c:10:af:1a:a5:65:8c:ad:2b:3a:bc:8e:fa:d3:
         bf:95:af:94:ff:47:4c:29:68:7e:5a:f6:e5:d9:5e:52:b7:b9:
         7e:2b:a0:c8:19:1f:80:4e:c5:41:d1:09:13:6d:77:a4:46:fe:
         57:7d:b9:29:1d:76:70:cf:9f:cf:33:58:f4:db:0e:20:71:33:
         ce:f4:26:a9:f2:42:3c:67:76:6f:ac:7e:e0:fa:59:b4:71:bb:
         11:f6:2c:c5:04:8d:f6:df:7d:8e:0b:cc:94:af:1e:14:87:99:
         6d:26:ce:4e
-----BEGIN CERTIFICATE-----
MIIDeDCCAmCgAwIBAgIRALCiJVHA7kWrShqciS02OUEwDQYJKoZIhvcNAQELBQAw
FjEUMBIGA1UEAwwLdGVhbTQxOS1uZXQwHhcNMjEwOTEzMDIzNDE5WhcNMjQwODI4
MDIzNDE5WjAZMRcwFQYDVQQDDA50ZWFtNDE5LXNlcnZlcjCCASIwDQYJKoZIhvcN
AQEBBQADggEPADCCAQoCggEBALTmmmp7IhmzXS0a4UIRsNtj9uwR3p8coy69Snol
7b3yaa8rMExkDG+zWhJVtWC7TRYYTu7Dh7rICSrYUFDWpXE8UawYO66KFGNlZ6Hn
7tNxoAv5WvKcxgOC6B33X++FcrxD3s8Yqs5ddiL3hpX2ZeNouBOnwGgICnpu2uuP
31JrOdCoDBQv8PAjERgrg8bDIcYqRNpOc9AP1BPKXVaDdYbdL31V9Fn+738z92C5
q8iIftFrzCwa3ifMG94BtsaG9JBwHRr6fjQpLmIrzLAbF2pSIc5h/s/2Y426rWgN
QV8lO/Zxn8hyt9jjrRICQtiyPPhp6KmKGUHRtWiZAJKqNEsCAwEAAaOBvTCBujAJ
BgNVHRMEAjAAMB0GA1UdDgQWBBRGI1gXKGymynPwSaYwF+y6E8qhbTBRBgNVHSME
SjBIgBSrqxjLEp835/RyANALWr2hB8CnFqEapBgwFjEUMBIGA1UEAwwLdGVhbTQx
OS1uZXSCFDtS7xP7IlIGxaGAHMFC5bavdZcLMBMGA1UdJQQMMAoGCCsGAQUFBwMB
MAsGA1UdDwQEAwIFoDAZBgNVHREEEjAQgg50ZWFtNDE5LXNlcnZlcjANBgkqhkiG
9w0BAQsFAAOCAQEAXkXbaVJOfpTa0ecGLeqxO5Y6P+y+PPwfSt7nHJH19GhPfgaU
GN4cvwlNdFcoaR5tXZXMLpWO1jjhX1Gi4ybnnt/kA8I5KkQ+e6h1A8Yq80cSFp6x
xJ7WK7vjdCLydJckBYx5tR+7d94hsxTgXnPLCuC45PEUa1QDl5JKZ+KuuIgIbvZe
QOqjR78ClNuR5Oehl3fMhzwQrxqlZYytKzq8jvrTv5WvlP9HTCloflr25dleUre5
fiugyBkfgE7FQdEJE213pEb+V325KR12cM+fzzNY9NsOIHEzzvQmqfJCPGd2b6x+
4PpZtHG7EfYsxQSN9t99jgvMlK8eFIeZbSbOTg==
-----END CERTIFICATE-----
