Certificate:
    Data:
        Version: 3 (0x2)
        Serial Number:
            85:a9:1f:0f:95:aa:a7:3b:7b:ec:25:0c:cf:44:1b:35
        Signature Algorithm: sha256WithRSAEncryption
        Issuer: CN=team258-net
        Validity
            Not Before: Sep 13 00:55:35 2021 GMT
            Not After : Aug 28 00:55:35 2024 GMT
        Subject: CN=team258-client
        Subject Public Key Info:
            Public Key Algorithm: rsaEncryption
                RSA Public-Key: (2048 bit)
                Modulus:
                    00:ba:29:75:e4:14:9e:a2:39:80:72:1a:08:66:df:
                    9b:73:62:c0:4d:e9:fc:40:16:fc:00:05:9a:64:c1:
                    de:e2:f1:da:46:0d:89:90:13:34:81:dc:bf:21:f6:
                    55:40:f1:71:9a:df:e6:16:44:59:05:21:88:76:49:
                    2d:6b:2c:c7:20:ac:ff:f8:67:da:d6:4b:63:4d:1c:
                    e6:66:7a:15:5a:e0:1a:fc:1e:63:48:89:c9:e0:69:
                    e7:f0:9d:0d:63:26:87:58:02:2f:f3:f5:76:e3:ed:
                    03:95:cd:58:54:06:e6:2d:14:12:37:74:86:7c:dd:
                    03:a5:ef:c8:60:6f:41:ec:54:48:40:9d:30:03:d8:
                    0b:43:27:ac:4a:51:1a:3f:cf:53:dc:6b:36:32:18:
                    0a:cd:a2:b8:ea:28:63:b7:af:9b:f1:f1:cf:d3:0e:
                    ba:ab:c3:91:f0:11:01:63:05:de:57:21:9f:63:62:
                    20:27:33:a0:f7:d7:cc:b9:3a:e9:f1:3c:7d:b1:55:
                    8d:e0:75:17:6d:2e:99:2c:3d:df:d7:4e:14:dc:a2:
                    e6:12:de:ac:bb:20:03:39:88:56:32:f0:6e:87:a6:
                    0e:67:19:6c:19:64:f3:9f:0f:2e:eb:e7:cc:24:e8:
                    1a:17:9b:b4:c8:38:d1:c0:07:9d:04:a3:ea:60:6c:
                    4b:0d
                Exponent: 65537 (0x10001)
        X509v3 extensions:
            X509v3 Basic Constraints: 
                CA:FALSE
            X509v3 Subject Key Identifier: 
                82:34:67:E6:53:B9:F9:61:51:88:70:0F:15:4F:94:B7:FB:CA:30:80
            X509v3 Authority Key Identifier: 
                keyid:DF:C6:FB:41:7A:43:EC:23:89:B9:BD:41:61:1D:33:F4:B3:4E:16:B3
                DirName:/CN=team258-net
                serial:2D:F7:A4:A5:D2:F3:32:CA:65:33:DC:3D:61:9C:03:D1:CD:B9:91:C6

            X509v3 Extended Key Usage: 
                TLS Web Client Authentication
            X509v3 Key Usage: 
                Digital Signature
    Signature Algorithm: sha256WithRSAEncryption
         02:63:e3:01:d8:d5:30:76:1d:a5:3b:d6:87:11:ea:b3:39:82:
         db:69:e6:ae:0d:20:b5:78:c0:1f:0f:ca:91:0a:3e:5f:6f:ea:
         44:99:88:b5:d7:d1:7e:37:80:5e:16:b0:85:8a:37:8e:c0:4b:
         7b:08:d3:68:a6:92:b2:c0:91:ff:48:aa:30:0e:e8:b6:6d:77:
         67:8f:f8:bc:9f:ce:50:63:c8:a4:02:9a:b9:94:5b:94:42:77:
         8d:d0:4d:03:ba:53:e8:bc:b9:b5:b8:f9:2c:cb:b2:ad:f7:22:
         82:14:cf:14:f6:c0:a8:87:2b:80:5f:af:ca:e3:de:ef:f0:88:
         57:47:ab:d4:64:4a:84:5a:54:45:02:13:65:d5:68:b7:91:cd:
         fe:8b:3a:63:91:0d:0e:af:75:58:8a:3a:05:b4:cf:b1:77:c5:
         5b:91:65:dd:c2:89:82:c5:a5:4f:f9:b6:43:d0:70:5d:cf:af:
         c8:ac:30:75:50:e8:73:ed:f2:40:d2:61:2a:92:8b:64:ad:3f:
         da:53:44:13:e3:fa:6e:fa:8f:d6:95:dd:29:6f:45:b9:88:e4:
         95:01:7a:0e:bf:c2:80:f8:27:af:f1:cb:a6:af:80:24:a9:a0:
         c6:f0:f6:45:c4:a7:a8:76:42:4d:29:f6:f7:19:74:ce:67:16:
         fc:f6:f0:76
-----BEGIN CERTIFICATE-----
MIIDXTCCAkWgAwIBAgIRAIWpHw+Vqqc7e+wlDM9EGzUwDQYJKoZIhvcNAQELBQAw
FjEUMBIGA1UEAwwLdGVhbTI1OC1uZXQwHhcNMjEwOTEzMDA1NTM1WhcNMjQwODI4
MDA1NTM1WjAZMRcwFQYDVQQDDA50ZWFtMjU4LWNsaWVudDCCASIwDQYJKoZIhvcN
AQEBBQADggEPADCCAQoCggEBALopdeQUnqI5gHIaCGbfm3NiwE3p/EAW/AAFmmTB
3uLx2kYNiZATNIHcvyH2VUDxcZrf5hZEWQUhiHZJLWssxyCs//hn2tZLY00c5mZ6
FVrgGvweY0iJyeBp5/CdDWMmh1gCL/P1duPtA5XNWFQG5i0UEjd0hnzdA6XvyGBv
QexUSECdMAPYC0MnrEpRGj/PU9xrNjIYCs2iuOooY7evm/Hxz9MOuqvDkfARAWMF
3lchn2NiICczoPfXzLk66fE8fbFVjeB1F20umSw939dOFNyi5hLerLsgAzmIVjLw
boemDmcZbBlk858PLuvnzCToGhebtMg40cAHnQSj6mBsSw0CAwEAAaOBojCBnzAJ
BgNVHRMEAjAAMB0GA1UdDgQWBBSCNGfmU7n5YVGIcA8VT5S3+8owgDBRBgNVHSME
SjBIgBTfxvtBekPsI4m5vUFhHTP0s04Ws6EapBgwFjEUMBIGA1UEAwwLdGVhbTI1
OC1uZXSCFC33pKXS8zLKZTPcPWGcA9HNuZHGMBMGA1UdJQQMMAoGCCsGAQUFBwMC
MAsGA1UdDwQEAwIHgDANBgkqhkiG9w0BAQsFAAOCAQEAAmPjAdjVMHYdpTvWhxHq
szmC22nmrg0gtXjAHw/KkQo+X2/qRJmItdfRfjeAXhawhYo3jsBLewjTaKaSssCR
/0iqMA7otm13Z4/4vJ/OUGPIpAKauZRblEJ3jdBNA7pT6Ly5tbj5LMuyrfcighTP
FPbAqIcrgF+vyuPe7/CIV0er1GRKhFpURQITZdVot5HN/os6Y5ENDq91WIo6BbTP
sXfFW5Fl3cKJgsWlT/m2Q9BwXc+vyKwwdVDoc+3yQNJhKpKLZK0/2lNEE+P6bvqP
1pXdKW9FuYjklQF6Dr/CgPgnr/HLpq+AJKmgxvD2RcSnqHZCTSn29xl0zmcW/Pbw
dg==
-----END CERTIFICATE-----
