Certificate:
    Data:
        Version: 3 (0x2)
        Serial Number:
            5e:e1:2f:32:9d:b8:bc:e1:5e:2e:d3:48:bc:eb:de:cd
        Signature Algorithm: sha256WithRSAEncryption
        Issuer: CN=team124-net
        Validity
            Not Before: Sep 12 23:49:59 2021 GMT
            Not After : Aug 27 23:49:59 2024 GMT
        Subject: CN=team124-client
        Subject Public Key Info:
            Public Key Algorithm: rsaEncryption
                RSA Public-Key: (2048 bit)
                Modulus:
                    00:d0:a9:d9:af:b5:74:11:27:31:5b:0e:d0:c4:8b:
                    0b:4a:31:fd:ec:da:b9:d9:4b:e5:97:a9:c6:dd:c0:
                    f5:ac:b8:64:99:3d:ed:ff:9f:15:96:5b:f1:be:c6:
                    28:63:3f:7e:ee:bb:bb:cc:7b:82:2c:93:17:63:2f:
                    db:86:c0:03:31:09:33:95:f9:0f:b6:f8:2b:eb:41:
                    28:85:78:52:f3:4a:6a:a6:61:a1:fb:24:29:ac:1a:
                    67:ca:f5:0f:29:8b:07:de:fa:78:f5:a3:a3:95:57:
                    a3:85:12:00:5a:27:ac:ec:df:2e:3a:61:a7:e5:ca:
                    81:12:44:c7:ac:b7:03:85:ae:2d:bf:d2:4c:b7:f6:
                    2e:16:7b:22:74:9d:9e:af:1b:c7:ed:ee:ff:a6:1c:
                    a4:98:a1:cb:0e:e7:85:a6:1b:86:71:da:15:25:96:
                    29:c0:26:16:dc:13:60:a5:29:8e:05:bf:e1:67:c3:
                    9b:25:1b:27:3a:f3:d6:ae:4d:e7:81:50:27:2e:04:
                    48:42:0c:ae:2d:25:43:59:b8:00:0e:d7:64:95:81:
                    e4:bd:cf:f4:4f:56:d1:ff:bb:ec:85:29:5a:dc:ed:
                    33:23:0d:54:3b:d2:a6:7b:19:79:27:eb:cc:b3:81:
                    fe:f4:90:28:52:86:7a:ef:77:dd:85:ca:e4:1a:1a:
                    e4:5b
                Exponent: 65537 (0x10001)
        X509v3 extensions:
            X509v3 Basic Constraints: 
                CA:FALSE
            X509v3 Subject Key Identifier: 
                A6:08:1A:7D:89:43:63:4A:CC:B0:5E:15:24:D4:1C:27:E6:A3:28:07
            X509v3 Authority Key Identifier: 
                keyid:9E:B7:85:B6:E8:7C:BE:34:FA:AF:DB:8B:1E:AD:60:67:08:84:AD:D4
                DirName:/CN=team124-net
                serial:62:6C:58:2F:67:91:FA:84:10:C1:0E:00:28:2F:FB:81:49:69:4E:4F

            X509v3 Extended Key Usage: 
                TLS Web Client Authentication
            X509v3 Key Usage: 
                Digital Signature
    Signature Algorithm: sha256WithRSAEncryption
         9d:3a:5f:4e:74:ad:d2:df:00:14:c3:c9:33:39:a5:c8:9a:0f:
         b7:90:9b:3a:2b:c0:90:01:58:0f:37:87:12:52:4a:f9:2e:09:
         5e:10:1e:6c:79:01:3e:02:02:4d:eb:d4:6a:bb:56:0b:30:84:
         9d:c6:f0:04:21:20:41:a2:1b:98:7c:59:b7:03:c5:dc:f2:7c:
         32:e1:e3:64:01:6f:ae:09:86:2a:58:75:50:01:56:15:ed:a6:
         db:6a:d7:b1:73:a8:57:7d:f7:90:c9:69:93:eb:42:ba:e7:ff:
         da:8e:cc:de:41:0d:c6:3d:bd:6d:48:76:ff:6c:58:cc:67:93:
         33:ef:32:44:0f:b4:ff:6f:71:f7:d7:8d:d0:aa:c0:e7:8e:f8:
         c8:09:0a:ae:e6:33:e3:aa:5a:dc:bb:b1:2a:cb:04:06:61:9e:
         17:cc:2d:66:87:5c:ca:f9:32:c7:b6:84:68:d8:d0:34:bb:24:
         5a:3b:d6:aa:e9:85:b7:fe:69:77:7a:dc:ca:ec:e6:1f:65:97:
         e8:c2:27:84:4d:ce:69:4b:c6:05:57:a4:78:18:c5:b7:19:6f:
         28:b0:50:00:96:98:20:66:5e:6b:e5:c6:af:d1:84:e6:fa:43:
         ec:2e:8b:4f:2e:83:a9:0b:e9:1e:81:04:0b:79:45:16:ff:0c:
         b7:e5:80:87
-----BEGIN CERTIFICATE-----
MIIDXDCCAkSgAwIBAgIQXuEvMp24vOFeLtNIvOvezTANBgkqhkiG9w0BAQsFADAW
MRQwEgYDVQQDDAt0ZWFtMTI0LW5ldDAeFw0yMTA5MTIyMzQ5NTlaFw0yNDA4Mjcy
MzQ5NTlaMBkxFzAVBgNVBAMMDnRlYW0xMjQtY2xpZW50MIIBIjANBgkqhkiG9w0B
AQEFAAOCAQ8AMIIBCgKCAQEA0KnZr7V0EScxWw7QxIsLSjH97Nq52Uvll6nG3cD1
rLhkmT3t/58VllvxvsYoYz9+7ru7zHuCLJMXYy/bhsADMQkzlfkPtvgr60EohXhS
80pqpmGh+yQprBpnyvUPKYsH3vp49aOjlVejhRIAWies7N8uOmGn5cqBEkTHrLcD
ha4tv9JMt/YuFnsidJ2erxvH7e7/phykmKHLDueFphuGcdoVJZYpwCYW3BNgpSmO
Bb/hZ8ObJRsnOvPWrk3ngVAnLgRIQgyuLSVDWbgADtdklYHkvc/0T1bR/7vshSla
3O0zIw1UO9Kmexl5J+vMs4H+9JAoUoZ673fdhcrkGhrkWwIDAQABo4GiMIGfMAkG
A1UdEwQCMAAwHQYDVR0OBBYEFKYIGn2JQ2NKzLBeFSTUHCfmoygHMFEGA1UdIwRK
MEiAFJ63hbbofL40+q/bix6tYGcIhK3UoRqkGDAWMRQwEgYDVQQDDAt0ZWFtMTI0
LW5ldIIUYmxYL2eR+oQQwQ4AKC/7gUlpTk8wEwYDVR0lBAwwCgYIKwYBBQUHAwIw
CwYDVR0PBAQDAgeAMA0GCSqGSIb3DQEBCwUAA4IBAQCdOl9OdK3S3wAUw8kzOaXI
mg+3kJs6K8CQAVgPN4cSUkr5LgleEB5seQE+AgJN69Rqu1YLMISdxvAEISBBohuY
fFm3A8Xc8nwy4eNkAW+uCYYqWHVQAVYV7abbatexc6hXffeQyWmT60K65//ajsze
QQ3GPb1tSHb/bFjMZ5Mz7zJED7T/b3H3143QqsDnjvjICQqu5jPjqlrcu7EqywQG
YZ4XzC1mh1zK+TLHtoRo2NA0uyRaO9aq6YW3/ml3etzK7OYfZZfowieETc5pS8YF
V6R4GMW3GW8osFAAlpggZl5r5cav0YTm+kPsLotPLoOpC+kegQQLeUUW/wy35YCH
-----END CERTIFICATE-----
