Certificate:
    Data:
        Version: 3 (0x2)
        Serial Number:
            10:d3:a3:2d:99:12:2a:41:fb:11:e8:df:07:e0:42:69
        Signature Algorithm: sha256WithRSAEncryption
        Issuer: CN=team124-net
        Validity
            Not Before: Sep 12 23:49:59 2021 GMT
            Not After : Aug 27 23:49:59 2024 GMT
        Subject: CN=team124-server
        Subject Public Key Info:
            Public Key Algorithm: rsaEncryption
                RSA Public-Key: (2048 bit)
                Modulus:
                    00:a9:88:56:a3:b9:16:93:9d:f2:ee:c4:88:6a:24:
                    f4:27:3a:e2:bc:19:a7:d4:51:e0:a7:cd:14:65:e5:
                    14:35:a1:b7:45:07:62:81:ab:29:85:ca:16:81:62:
                    4a:95:6b:b4:8e:db:c6:a9:62:27:ac:3b:d6:d1:04:
                    22:a0:27:f8:e4:19:1f:8c:de:8b:0d:c3:09:6d:df:
                    d2:b7:38:0e:97:f1:4c:0c:d3:46:74:68:e7:f2:3c:
                    1c:82:df:aa:6a:77:22:01:33:09:8e:2a:c2:5d:53:
                    85:d1:70:f1:ea:ca:5e:9d:82:8f:e6:b8:08:59:e1:
                    c5:6e:30:d1:44:ef:fe:a3:5f:12:d9:d8:c0:09:26:
                    93:18:ba:45:43:04:db:3e:00:79:e4:be:72:34:b5:
                    ba:e7:44:99:fd:c5:61:b0:e9:2e:08:9e:76:21:41:
                    9d:5e:86:46:44:e8:8c:c8:e4:1d:8a:0f:9c:5d:98:
                    fd:e3:97:dc:96:55:6d:9d:dd:b9:76:8c:a4:55:49:
                    0b:89:6c:3d:be:c1:41:28:1d:c2:26:f1:bc:28:e4:
                    ed:f2:64:20:5e:fd:67:62:ed:62:97:85:5f:1e:af:
                    32:95:b6:63:62:0f:00:aa:4f:54:79:84:bb:a8:da:
                    dd:91:0e:51:d1:70:5c:23:84:f0:ef:82:4b:e1:e1:
                    a5:0d
                Exponent: 65537 (0x10001)
        X509v3 extensions:
            X509v3 Basic Constraints: 
                CA:FALSE
            X509v3 Subject Key Identifier: 
                C6:62:9C:3E:B9:49:D1:41:43:E8:6A:73:EA:CB:42:48:B4:96:4B:3B
            X509v3 Authority Key Identifier: 
                keyid:9E:B7:85:B6:E8:7C:BE:34:FA:AF:DB:8B:1E:AD:60:67:08:84:AD:D4
                DirName:/CN=team124-net
                serial:62:6C:58:2F:67:91:FA:84:10:C1:0E:00:28:2F:FB:81:49:69:4E:4F

            X509v3 Extended Key Usage: 
                TLS Web Server Authentication
            X509v3 Key Usage: 
                Digital Signature, Key Encipherment
            X509v3 Subject Alternative Name: 
                DNS:team124-server
    Signature Algorithm: sha256WithRSAEncryption
         51:de:ae:b3:df:ff:27:10:4f:d2:6d:20:75:a0:aa:10:33:58:
         39:ed:22:8d:38:67:12:68:7a:68:6c:a4:fb:03:a3:d4:ce:09:
         35:5d:83:c2:9c:35:42:db:17:b5:30:97:b4:c0:92:4f:77:cb:
         8d:c7:33:f8:4d:03:53:7a:53:26:b1:7b:19:e3:a9:28:83:17:
         90:fa:4b:1d:4a:26:18:cf:e1:64:9d:3c:fd:86:17:22:97:90:
         dc:3b:a0:6d:9c:e9:d2:66:be:63:e6:c8:84:d8:6d:23:c0:27:
         f7:c4:9f:4c:9a:a9:74:10:fa:0f:b4:83:96:e5:48:e8:9c:5a:
         42:fc:31:dc:f1:c3:b2:27:2e:6f:0f:a0:a0:23:93:dd:e5:c3:
         b6:e6:77:6a:92:7f:d3:7e:c1:de:a0:35:37:10:92:e5:1a:90:
         57:b3:44:8c:3f:6a:6b:1e:2c:ac:6f:35:fd:fd:02:8e:e0:aa:
         f3:d5:a2:2f:2e:bb:a7:8a:23:02:1f:bb:fb:4f:e6:64:93:af:
         93:93:77:de:6e:bf:82:23:39:51:4d:be:c8:4e:c9:2d:16:68:
         8e:05:72:12:ef:80:bd:1e:7a:67:6d:f9:61:63:fa:d9:22:5d:
         67:28:2c:2e:92:2c:38:2b:6d:39:5b:27:80:e2:91:ec:37:98:
         34:88:d6:e1
-----BEGIN CERTIFICATE-----
MIIDdzCCAl+gAwIBAgIQENOjLZkSKkH7EejfB+BCaTANBgkqhkiG9w0BAQsFADAW
MRQwEgYDVQQDDAt0ZWFtMTI0LW5ldDAeFw0yMTA5MTIyMzQ5NTlaFw0yNDA4Mjcy
MzQ5NTlaMBkxFzAVBgNVBAMMDnRlYW0xMjQtc2VydmVyMIIBIjANBgkqhkiG9w0B
AQEFAAOCAQ8AMIIBCgKCAQEAqYhWo7kWk53y7sSIaiT0JzrivBmn1FHgp80UZeUU
NaG3RQdigasphcoWgWJKlWu0jtvGqWInrDvW0QQioCf45BkfjN6LDcMJbd/StzgO
l/FMDNNGdGjn8jwcgt+qanciATMJjirCXVOF0XDx6spenYKP5rgIWeHFbjDRRO/+
o18S2djACSaTGLpFQwTbPgB55L5yNLW650SZ/cVhsOkuCJ52IUGdXoZGROiMyOQd
ig+cXZj945fcllVtnd25doykVUkLiWw9vsFBKB3CJvG8KOTt8mQgXv1nYu1il4Vf
Hq8ylbZjYg8Aqk9UeYS7qNrdkQ5R0XBcI4Tw74JL4eGlDQIDAQABo4G9MIG6MAkG
A1UdEwQCMAAwHQYDVR0OBBYEFMZinD65SdFBQ+hqc+rLQki0lks7MFEGA1UdIwRK
MEiAFJ63hbbofL40+q/bix6tYGcIhK3UoRqkGDAWMRQwEgYDVQQDDAt0ZWFtMTI0
LW5ldIIUYmxYL2eR+oQQwQ4AKC/7gUlpTk8wEwYDVR0lBAwwCgYIKwYBBQUHAwEw
CwYDVR0PBAQDAgWgMBkGA1UdEQQSMBCCDnRlYW0xMjQtc2VydmVyMA0GCSqGSIb3
DQEBCwUAA4IBAQBR3q6z3/8nEE/SbSB1oKoQM1g57SKNOGcSaHpobKT7A6PUzgk1
XYPCnDVC2xe1MJe0wJJPd8uNxzP4TQNTelMmsXsZ46kogxeQ+ksdSiYYz+FknTz9
hhcil5DcO6BtnOnSZr5j5siE2G0jwCf3xJ9Mmql0EPoPtIOW5UjonFpC/DHc8cOy
Jy5vD6CgI5Pd5cO25ndqkn/TfsHeoDU3EJLlGpBXs0SMP2prHiysbzX9/QKO4Krz
1aIvLruniiMCH7v7T+Zkk6+Tk3febr+CIzlRTb7ITsktFmiOBXIS74C9Hnpnbflh
Y/rZIl1nKCwukiw4K205WyeA4pHsN5g0iNbh
-----END CERTIFICATE-----
