Certificate:
    Data:
        Version: 3 (0x2)
        Serial Number:
            84:57:18:5d:87:0b:a9:4a:47:6e:43:11:82:2e:15:85
        Signature Algorithm: sha256WithRSAEncryption
        Issuer: CN=team658-net
        Validity
            Not Before: Sep 13 04:53:34 2021 GMT
            Not After : Aug 28 04:53:34 2024 GMT
        Subject: CN=team658-client
        Subject Public Key Info:
            Public Key Algorithm: rsaEncryption
                RSA Public-Key: (2048 bit)
                Modulus:
                    00:cf:41:64:d9:ea:bc:78:ad:f8:1b:35:cb:38:ca:
                    94:2f:8b:41:c7:10:d3:03:81:af:3a:72:72:21:58:
                    c0:61:d9:5e:45:2d:7f:0a:ca:73:03:68:ab:c0:ee:
                    a4:03:35:89:65:8b:e9:f3:6c:1c:f1:30:04:69:cd:
                    8e:60:21:6f:1b:63:58:44:b0:7e:d2:38:3f:84:a6:
                    eb:68:6c:23:a0:53:3e:64:03:65:69:ad:72:f0:d1:
                    6b:aa:d5:31:f3:83:2a:d0:07:ff:3e:e7:54:d4:be:
                    a3:d4:10:6a:eb:13:3e:9c:dd:35:9c:cd:af:3e:05:
                    5c:fc:8c:23:c8:af:8c:3e:b0:6c:ee:6c:c4:6d:df:
                    64:1d:59:3c:d9:38:c8:1d:55:eb:de:3d:1a:b6:89:
                    cd:a3:c4:b3:81:4b:97:29:1b:8b:8e:6b:6d:dc:3a:
                    01:2c:92:a3:8a:89:bf:76:ee:82:9b:9a:27:63:e5:
                    95:15:bd:5f:29:1a:92:fc:31:fc:06:02:09:f7:78:
                    f0:36:33:64:89:5a:32:62:7c:77:18:cd:d1:77:31:
                    7f:6e:f3:e1:f4:2a:ba:2d:18:0e:72:7a:35:8f:7e:
                    07:c2:b4:47:8d:51:ba:92:ed:54:29:b3:68:88:c6:
                    c1:63:69:c4:03:7b:43:af:b7:66:fd:81:3c:88:0a:
                    c8:7b
                Exponent: 65537 (0x10001)
        X509v3 extensions:
            X509v3 Basic Constraints: 
                CA:FALSE
            X509v3 Subject Key Identifier: 
                11:59:A5:C0:94:B4:F6:CE:A7:C0:E9:47:AF:D0:37:B2:E5:AA:1F:8D
            X509v3 Authority Key Identifier: 
                keyid:9F:2D:AF:88:A0:5F:4B:80:86:27:6F:A6:F4:53:19:C4:C0:08:FC:C3
                DirName:/CN=team658-net
                serial:26:EC:1F:69:AB:51:54:43:37:26:96:1F:59:05:3A:85:C0:FD:04:FB

            X509v3 Extended Key Usage: 
                TLS Web Client Authentication
            X509v3 Key Usage: 
                Digital Signature
    Signature Algorithm: sha256WithRSAEncryption
         87:e0:51:b4:9f:10:2f:9f:be:0b:f6:2b:84:7d:c1:74:65:3b:
         74:a1:a9:23:5d:7e:67:66:50:9e:61:c1:79:f6:9d:a8:7f:ec:
         30:be:e9:13:12:9b:98:89:78:77:e1:9f:9c:f6:05:48:86:af:
         ac:6a:82:af:20:93:43:ae:54:23:3f:0e:44:18:ed:07:a1:e1:
         c8:f9:ab:36:8e:ad:6b:37:d6:e0:f1:a7:7b:20:c7:b8:df:1f:
         57:1c:fd:cd:ac:02:91:85:bc:60:cd:74:23:1a:4d:cf:0a:3b:
         31:87:69:44:ae:e1:29:90:b2:46:e5:e7:3c:dd:68:f5:b7:11:
         39:5f:7a:6c:c1:dc:6c:8e:41:3a:79:f7:4c:de:a0:d9:32:c8:
         17:ee:f5:ca:bc:f4:6e:5e:4a:8a:d8:f6:d6:f3:56:f8:bc:c2:
         e6:cc:2b:d4:59:49:af:69:1d:f6:fb:b6:21:97:93:de:d3:f5:
         e4:d0:88:24:08:08:58:fb:1c:dd:06:b4:1c:31:bd:e7:6e:3a:
         a5:c2:f5:5a:59:d1:6a:b0:1d:7d:b9:17:ba:15:fc:27:fc:43:
         e1:59:f8:ff:97:a0:51:e9:9b:e2:2f:7b:17:4d:0f:c8:81:ed:
         5c:0f:a3:d6:19:08:a7:31:f6:73:93:3e:74:79:a1:04:52:0c:
         d9:ab:e2:34
-----BEGIN CERTIFICATE-----
MIIDXTCCAkWgAwIBAgIRAIRXGF2HC6lKR25DEYIuFYUwDQYJKoZIhvcNAQELBQAw
FjEUMBIGA1UEAwwLdGVhbTY1OC1uZXQwHhcNMjEwOTEzMDQ1MzM0WhcNMjQwODI4
MDQ1MzM0WjAZMRcwFQYDVQQDDA50ZWFtNjU4LWNsaWVudDCCASIwDQYJKoZIhvcN
AQEBBQADggEPADCCAQoCggEBAM9BZNnqvHit+Bs1yzjKlC+LQccQ0wOBrzpyciFY
wGHZXkUtfwrKcwNoq8DupAM1iWWL6fNsHPEwBGnNjmAhbxtjWESwftI4P4Sm62hs
I6BTPmQDZWmtcvDRa6rVMfODKtAH/z7nVNS+o9QQausTPpzdNZzNrz4FXPyMI8iv
jD6wbO5sxG3fZB1ZPNk4yB1V6949GraJzaPEs4FLlykbi45rbdw6ASySo4qJv3bu
gpuaJ2PllRW9Xykakvwx/AYCCfd48DYzZIlaMmJ8dxjN0Xcxf27z4fQqui0YDnJ6
NY9+B8K0R41RupLtVCmzaIjGwWNpxAN7Q6+3Zv2BPIgKyHsCAwEAAaOBojCBnzAJ
BgNVHRMEAjAAMB0GA1UdDgQWBBQRWaXAlLT2zqfA6Uev0Dey5aofjTBRBgNVHSME
SjBIgBSfLa+IoF9LgIYnb6b0UxnEwAj8w6EapBgwFjEUMBIGA1UEAwwLdGVhbTY1
OC1uZXSCFCbsH2mrUVRDNyaWH1kFOoXA/QT7MBMGA1UdJQQMMAoGCCsGAQUFBwMC
MAsGA1UdDwQEAwIHgDANBgkqhkiG9w0BAQsFAAOCAQEAh+BRtJ8QL5++C/YrhH3B
dGU7dKGpI11+Z2ZQnmHBefadqH/sML7pExKbmIl4d+GfnPYFSIavrGqCryCTQ65U
Iz8ORBjtB6HhyPmrNo6tazfW4PGneyDHuN8fVxz9zawCkYW8YM10IxpNzwo7MYdp
RK7hKZCyRuXnPN1o9bcROV96bMHcbI5BOnn3TN6g2TLIF+71yrz0bl5Kitj21vNW
+LzC5swr1FlJr2kd9vu2IZeT3tP15NCIJAgIWPsc3Qa0HDG95246pcL1WlnRarAd
fbkXuhX8J/xD4Vn4/5egUemb4i97F00PyIHtXA+j1hkIpzH2c5M+dHmhBFIM2avi
NA==
-----END CERTIFICATE-----
