Certificate:
    Data:
        Version: 3 (0x2)
        Serial Number:
            08:32:d7:0b:1b:65:82:03:13:3a:63:36:9f:cc:23:a1
        Signature Algorithm: sha256WithRSAEncryption
        Issuer: CN=team606-net
        Validity
            Not Before: Sep 13 04:04:37 2021 GMT
            Not After : Aug 28 04:04:37 2024 GMT
        Subject: CN=team606-client
        Subject Public Key Info:
            Public Key Algorithm: rsaEncryption
                RSA Public-Key: (2048 bit)
                Modulus:
                    00:9b:fd:ee:bc:64:55:43:b1:7d:ee:b5:03:0e:d7:
                    62:65:a2:16:cd:08:3d:2a:9b:9f:2b:6f:a2:c3:1e:
                    79:7f:0b:b9:c4:d2:8b:c9:42:1f:47:fe:6d:62:d3:
                    e8:f6:2f:ac:f3:b2:33:2e:14:c8:14:a1:b5:54:c3:
                    89:09:61:87:60:16:ad:ec:24:19:6f:cc:3a:b8:e5:
                    2a:d6:3d:80:6d:57:f8:f5:86:8f:27:c1:b9:8d:d1:
                    01:f9:4a:e1:42:17:39:b5:d7:58:51:4c:7d:7c:30:
                    99:39:3f:cf:36:48:d1:3b:5e:19:15:53:24:be:b5:
                    47:bb:5a:bd:a6:c6:c1:ad:8f:9a:41:26:28:5d:22:
                    3a:d8:ee:71:b2:3a:c6:6f:5d:7a:74:22:94:ac:08:
                    0d:b7:c5:0f:29:ff:fd:35:d7:b9:30:af:ec:36:42:
                    71:69:80:ba:83:d6:0e:77:7d:1c:ea:0f:d9:da:e8:
                    de:46:1b:c9:39:3b:ed:dd:c1:c5:92:db:63:c4:dc:
                    8f:a7:c2:3e:26:40:b5:0e:16:9b:43:1b:c3:d6:86:
                    c9:89:0c:f1:b3:c2:45:3c:92:56:0d:e3:e9:bc:ed:
                    07:7f:a7:ed:6d:2d:ed:50:7a:9e:de:c7:75:1f:8d:
                    e4:37:81:1a:ef:73:18:54:34:b1:a7:29:61:8b:1d:
                    48:05
                Exponent: 65537 (0x10001)
        X509v3 extensions:
            X509v3 Basic Constraints: 
                CA:FALSE
            X509v3 Subject Key Identifier: 
                1D:55:F0:AA:3B:A2:85:73:AE:78:B0:91:AD:27:4D:5A:A4:12:60:FC
            X509v3 Authority Key Identifier: 
                keyid:23:B1:AB:28:D4:18:A5:5F:43:42:1F:CD:D6:F8:38:CB:5E:E2:EA:DD
                DirName:/CN=team606-net
                serial:2C:98:A0:19:93:DF:0C:50:26:D5:9E:A6:9E:AB:68:6A:C2:85:BF:F3

            X509v3 Extended Key Usage: 
                TLS Web Client Authentication
            X509v3 Key Usage: 
                Digital Signature
    Signature Algorithm: sha256WithRSAEncryption
         bd:98:5b:9b:f3:c1:d0:34:e6:f2:58:4d:2e:b9:66:97:73:61:
         83:8b:9e:41:be:8d:29:fc:d9:4e:0e:10:78:c8:8b:db:47:fb:
         e5:06:01:76:6f:87:6e:90:f9:9f:c0:06:aa:ab:40:ee:00:a1:
         f2:65:ad:e3:a5:9d:37:5a:26:e0:80:ce:77:25:ec:eb:80:ed:
         3e:12:73:a2:3e:0d:82:44:d5:79:ad:57:cf:f1:50:44:d1:0e:
         6c:18:28:0e:b6:7f:5d:09:a9:c8:11:d9:cb:6f:9b:47:3a:af:
         27:e2:b3:5e:d5:8c:4c:ce:df:ad:d6:c3:ec:c2:98:28:84:78:
         88:1d:00:9d:95:1f:4a:63:57:06:d3:de:a1:2e:d3:21:94:f5:
         a2:5d:67:c0:ac:ea:cb:26:00:60:3b:6b:6c:ed:59:1a:3a:16:
         6e:62:18:0b:cc:3b:83:46:8c:ae:c2:b2:f2:56:b2:78:6b:6a:
         2b:43:09:03:3e:5d:72:fb:1e:b4:bf:1c:89:e1:c0:fe:e9:6d:
         26:b8:d5:a9:93:45:47:29:b0:73:ba:75:48:96:a9:f5:a0:4c:
         2f:48:0c:8c:87:15:fd:e4:20:54:1e:c2:64:ff:ff:47:eb:d4:
         c2:7f:fb:0a:b5:20:c1:4f:ab:91:1b:84:c0:79:42:e6:63:64:
         11:9a:d5:3e
-----BEGIN CERTIFICATE-----
MIIDXDCCAkSgAwIBAgIQCDLXCxtlggMTOmM2n8wjoTANBgkqhkiG9w0BAQsFADAW
MRQwEgYDVQQDDAt0ZWFtNjA2LW5ldDAeFw0yMTA5MTMwNDA0MzdaFw0yNDA4Mjgw
NDA0MzdaMBkxFzAVBgNVBAMMDnRlYW02MDYtY2xpZW50MIIBIjANBgkqhkiG9w0B
AQEFAAOCAQ8AMIIBCgKCAQEAm/3uvGRVQ7F97rUDDtdiZaIWzQg9KpufK2+iwx55
fwu5xNKLyUIfR/5tYtPo9i+s87IzLhTIFKG1VMOJCWGHYBat7CQZb8w6uOUq1j2A
bVf49YaPJ8G5jdEB+UrhQhc5tddYUUx9fDCZOT/PNkjRO14ZFVMkvrVHu1q9psbB
rY+aQSYoXSI62O5xsjrGb116dCKUrAgNt8UPKf/9Nde5MK/sNkJxaYC6g9YOd30c
6g/Z2ujeRhvJOTvt3cHFkttjxNyPp8I+JkC1DhabQxvD1obJiQzxs8JFPJJWDePp
vO0Hf6ftbS3tUHqe3sd1H43kN4Ea73MYVDSxpylhix1IBQIDAQABo4GiMIGfMAkG
A1UdEwQCMAAwHQYDVR0OBBYEFB1V8Ko7ooVzrniwka0nTVqkEmD8MFEGA1UdIwRK
MEiAFCOxqyjUGKVfQ0Ifzdb4OMte4urdoRqkGDAWMRQwEgYDVQQDDAt0ZWFtNjA2
LW5ldIIULJigGZPfDFAm1Z6mnqtoasKFv/MwEwYDVR0lBAwwCgYIKwYBBQUHAwIw
CwYDVR0PBAQDAgeAMA0GCSqGSIb3DQEBCwUAA4IBAQC9mFub88HQNObyWE0uuWaX
c2GDi55Bvo0p/NlODhB4yIvbR/vlBgF2b4dukPmfwAaqq0DuAKHyZa3jpZ03Wibg
gM53JezrgO0+EnOiPg2CRNV5rVfP8VBE0Q5sGCgOtn9dCanIEdnLb5tHOq8n4rNe
1YxMzt+t1sPswpgohHiIHQCdlR9KY1cG096hLtMhlPWiXWfArOrLJgBgO2ts7Vka
OhZuYhgLzDuDRoyuwrLyVrJ4a2orQwkDPl1y+x60vxyJ4cD+6W0muNWpk0VHKbBz
unVIlqn1oEwvSAyMhxX95CBUHsJk//9H69TCf/sKtSDBT6uRG4TAeULmY2QRmtU+
-----END CERTIFICATE-----
