Certificate:
    Data:
        Version: 3 (0x2)
        Serial Number:
            29:ee:5a:4e:14:bf:d5:0d:5d:ed:ba:36:b6:5b:19:2f
        Signature Algorithm: sha256WithRSAEncryption
        Issuer: CN=team632-net
        Validity
            Not Before: Sep 13 04:40:01 2021 GMT
            Not After : Aug 28 04:40:01 2024 GMT
        Subject: CN=team632-server
        Subject Public Key Info:
            Public Key Algorithm: rsaEncryption
                RSA Public-Key: (2048 bit)
                Modulus:
                    00:9f:6c:14:67:0e:48:15:02:9f:7e:e9:97:a4:c9:
                    3f:f4:49:99:bf:ed:c8:71:95:b7:35:14:4f:ca:d9:
                    33:b1:7a:5e:2f:23:85:5b:3d:aa:44:b4:88:71:c1:
                    3d:54:4c:df:8c:a7:c4:55:99:e8:19:85:3e:6d:a1:
                    ab:7b:7e:de:90:ef:5a:95:36:3d:b4:1d:90:b4:3b:
                    bf:da:d1:d9:5e:4a:f7:bc:bf:25:04:90:c5:54:11:
                    d8:e2:ea:fe:88:d4:97:2f:7b:9d:1f:a8:a1:70:a7:
                    36:8d:11:82:87:6b:d6:47:e1:a1:d4:df:05:f7:3e:
                    ec:f8:8a:70:42:47:59:91:1a:88:b3:c6:cc:d3:27:
                    14:f2:21:c5:ee:d8:d2:7a:3d:a5:70:d1:c2:48:45:
                    54:d8:91:ce:9f:54:4b:88:ae:6c:54:a4:79:4e:99:
                    21:0b:8d:8b:13:f8:7f:20:1d:03:11:ea:a9:7a:e6:
                    e0:fe:aa:2e:d2:3e:01:fb:1d:ff:d5:52:9a:72:dd:
                    0a:64:6c:fe:23:bd:2e:6d:26:96:24:eb:81:73:c8:
                    6d:22:54:b3:e6:86:5a:8d:94:b1:f9:8f:0b:26:41:
                    a1:5e:9c:fb:a6:eb:fc:3c:3a:0a:63:ff:75:1d:c0:
                    7e:c7:cd:d8:8f:b7:a6:5b:a3:e3:dc:ca:75:c1:61:
                    ce:31
                Exponent: 65537 (0x10001)
        X509v3 extensions:
            X509v3 Basic Constraints: 
                CA:FALSE
            X509v3 Subject Key Identifier: 
                4F:9C:A0:AE:2C:2D:82:9C:28:CF:E2:8A:4D:B6:95:9C:1E:35:3A:6C
            X509v3 Authority Key Identifier: 
                keyid:25:B8:2D:F0:5F:44:05:2E:86:B6:24:02:2D:84:AA:40:E6:1E:A8:B4
                DirName:/CN=team632-net
                serial:7F:A2:9D:93:27:E5:C6:30:5B:56:1E:05:B8:12:CC:C1:EC:91:25:66

            X509v3 Extended Key Usage: 
                TLS Web Server Authentication
            X509v3 Key Usage: 
                Digital Signature, Key Encipherment
            X509v3 Subject Alternative Name: 
                DNS:team632-server
    Signature Algorithm: sha256WithRSAEncryption
         ba:80:ca:bf:8a:cd:40:fd:28:02:aa:22:82:d5:04:16:fe:82:
         f0:55:86:9f:ea:db:4e:56:b8:25:79:a4:6f:de:22:38:21:36:
         6e:01:1a:e6:d2:9b:b2:c0:63:8d:c4:bf:66:93:fb:c9:1f:3a:
         ea:ec:30:25:be:72:a6:84:97:6a:89:55:4c:72:25:c3:8d:68:
         68:4c:ad:2d:3b:b3:49:4c:f2:72:6a:7c:f4:50:c0:9c:49:b3:
         b4:4e:a0:95:92:0b:e2:fe:69:94:21:63:cc:5f:02:54:6a:40:
         bd:e5:70:9e:c7:bd:99:ae:63:71:e4:c7:19:0d:26:33:03:7f:
         87:f0:46:b6:0b:39:65:40:77:2d:2b:79:03:15:c0:b9:af:57:
         d5:57:60:9c:78:eb:ad:90:41:f9:78:03:23:8c:d4:32:de:72:
         2b:8f:0c:2e:22:c6:85:69:96:9d:76:45:09:27:4c:f6:7f:47:
         0a:5d:24:2f:e8:3c:21:43:d3:4f:2a:36:32:c1:c6:7e:dd:60:
         e8:a7:66:b8:97:08:48:e6:f4:e3:0f:3d:17:de:dc:50:b2:aa:
         fa:81:e1:97:d4:4b:27:fe:eb:92:39:9c:ed:a6:19:a1:8d:13:
         7b:30:f4:3d:89:ec:3b:f2:4e:17:a9:31:e8:0f:c9:f3:c9:4f:
         1f:68:ae:8b
-----BEGIN CERTIFICATE-----
MIIDdzCCAl+gAwIBAgIQKe5aThS/1Q1d7bo2tlsZLzANBgkqhkiG9w0BAQsFADAW
MRQwEgYDVQQDDAt0ZWFtNjMyLW5ldDAeFw0yMTA5MTMwNDQwMDFaFw0yNDA4Mjgw
NDQwMDFaMBkxFzAVBgNVBAMMDnRlYW02MzItc2VydmVyMIIBIjANBgkqhkiG9w0B
AQEFAAOCAQ8AMIIBCgKCAQEAn2wUZw5IFQKffumXpMk/9EmZv+3IcZW3NRRPytkz
sXpeLyOFWz2qRLSIccE9VEzfjKfEVZnoGYU+baGre37ekO9alTY9tB2QtDu/2tHZ
Xkr3vL8lBJDFVBHY4ur+iNSXL3udH6ihcKc2jRGCh2vWR+Gh1N8F9z7s+IpwQkdZ
kRqIs8bM0ycU8iHF7tjSej2lcNHCSEVU2JHOn1RLiK5sVKR5TpkhC42LE/h/IB0D
Eeqpeubg/qou0j4B+x3/1VKact0KZGz+I70ubSaWJOuBc8htIlSz5oZajZSx+Y8L
JkGhXpz7puv8PDoKY/91HcB+x83Yj7emW6Pj3Mp1wWHOMQIDAQABo4G9MIG6MAkG
A1UdEwQCMAAwHQYDVR0OBBYEFE+coK4sLYKcKM/iik22lZweNTpsMFEGA1UdIwRK
MEiAFCW4LfBfRAUuhrYkAi2EqkDmHqi0oRqkGDAWMRQwEgYDVQQDDAt0ZWFtNjMy
LW5ldIIUf6KdkyflxjBbVh4FuBLMweyRJWYwEwYDVR0lBAwwCgYIKwYBBQUHAwEw
CwYDVR0PBAQDAgWgMBkGA1UdEQQSMBCCDnRlYW02MzItc2VydmVyMA0GCSqGSIb3
DQEBCwUAA4IBAQC6gMq/is1A/SgCqiKC1QQW/oLwVYaf6ttOVrgleaRv3iI4ITZu
ARrm0puywGONxL9mk/vJHzrq7DAlvnKmhJdqiVVMciXDjWhoTK0tO7NJTPJyanz0
UMCcSbO0TqCVkgvi/mmUIWPMXwJUakC95XCex72ZrmNx5McZDSYzA3+H8Ea2Czll
QHctK3kDFcC5r1fVV2CceOutkEH5eAMjjNQy3nIrjwwuIsaFaZaddkUJJ0z2f0cK
XSQv6DwhQ9NPKjYywcZ+3WDop2a4lwhI5vTjDz0X3txQsqr6geGX1Esn/uuSOZzt
phmhjRN7MPQ9iew78k4XqTHoD8nzyU8faK6L
-----END CERTIFICATE-----
