Certificate:
    Data:
        Version: 3 (0x2)
        Serial Number:
            37:0f:06:68:77:96:cc:6a:60:9c:7a:ec:d8:47:41:f9
        Signature Algorithm: sha256WithRSAEncryption
        Issuer: CN=team632-net
        Validity
            Not Before: Sep 13 04:40:01 2021 GMT
            Not After : Aug 28 04:40:01 2024 GMT
        Subject: CN=team632-client
        Subject Public Key Info:
            Public Key Algorithm: rsaEncryption
                RSA Public-Key: (2048 bit)
                Modulus:
                    00:ae:31:42:1a:28:8a:ad:30:5e:a8:cf:2e:9c:19:
                    24:d0:5c:bd:8e:ab:0e:ca:04:b5:a6:7e:01:92:22:
                    10:0d:6f:87:3f:54:17:d7:af:e4:7c:7e:d1:bf:dd:
                    49:4c:dd:4c:e6:3d:8a:5c:38:4c:f6:bf:a1:68:a3:
                    28:f0:57:25:36:33:ad:b1:79:c9:c1:9b:a8:f5:99:
                    3a:a1:08:da:b2:cb:08:06:d1:e0:27:66:e8:e9:57:
                    5b:8e:5b:2c:11:4b:ed:35:7e:c4:a1:dc:54:86:77:
                    7e:0d:f2:44:1e:59:53:c1:4c:70:2e:5b:dc:3c:b1:
                    15:28:d1:e8:d2:78:1e:d1:68:ae:c4:59:87:44:b6:
                    26:f6:8a:1e:69:dc:c1:b2:c2:2a:5b:f0:c0:4b:f0:
                    0d:cc:b9:33:45:6f:da:85:8b:d5:2c:19:d3:76:de:
                    84:44:2e:1d:19:01:ae:71:4d:2a:7a:3e:89:35:08:
                    04:f3:75:3d:ec:07:e4:13:6c:7e:19:9e:06:52:fb:
                    42:d8:7e:cc:39:d9:8b:a9:48:85:51:68:56:ba:73:
                    3e:b5:c8:04:09:5d:93:19:c6:22:3e:73:a8:b6:49:
                    6d:fa:72:dd:16:85:4d:eb:cd:3c:a7:da:55:f2:59:
                    71:b8:01:90:cc:c9:94:fa:81:65:a1:1d:5d:45:f8:
                    ed:e7
                Exponent: 65537 (0x10001)
        X509v3 extensions:
            X509v3 Basic Constraints: 
                CA:FALSE
            X509v3 Subject Key Identifier: 
                98:29:CD:3D:E7:E7:BB:B6:ED:69:74:A1:64:B0:E2:5C:BE:8B:57:98
            X509v3 Authority Key Identifier: 
                keyid:25:B8:2D:F0:5F:44:05:2E:86:B6:24:02:2D:84:AA:40:E6:1E:A8:B4
                DirName:/CN=team632-net
                serial:7F:A2:9D:93:27:E5:C6:30:5B:56:1E:05:B8:12:CC:C1:EC:91:25:66

            X509v3 Extended Key Usage: 
                TLS Web Client Authentication
            X509v3 Key Usage: 
                Digital Signature
    Signature Algorithm: sha256WithRSAEncryption
         98:4d:9c:41:2a:9b:ef:fa:1f:60:fc:e8:c2:ea:d9:a1:f3:8a:
         5a:69:9e:8b:0d:fb:7c:b7:ab:a7:b8:d7:db:d1:d0:33:64:e6:
         bf:38:15:7c:9b:88:bb:54:7c:ea:22:0a:00:5f:6c:96:e8:36:
         47:e3:67:b5:dd:99:f1:9c:47:b4:a2:86:07:1a:5a:25:cb:9d:
         f2:dc:f4:3b:55:38:71:23:6f:df:1a:33:9c:f9:f7:b2:6d:a3:
         70:39:e2:e2:e4:b9:f6:e1:4d:d7:d8:d4:12:4f:15:dc:36:d5:
         96:31:37:24:b3:93:1b:e0:09:2c:5b:fe:bb:20:87:d7:bc:cc:
         d3:fc:6e:e8:94:c5:51:3d:f7:ff:c4:e6:32:97:ea:e9:d5:55:
         24:12:eb:a1:26:ce:66:33:77:01:f1:8f:41:da:8a:e8:4a:ed:
         dd:2a:fd:f1:44:27:45:67:fc:cd:ab:c5:36:19:26:2c:f6:ff:
         bf:8e:9e:d3:b0:49:0c:c0:59:57:a1:70:8e:a3:64:fa:6c:cc:
         5e:38:d4:9f:08:36:a9:00:89:2a:e2:30:4a:7e:c2:eb:68:ff:
         5b:c4:a2:b3:8a:2e:6d:94:7e:7e:14:5f:75:83:f1:61:78:c8:
         3c:9d:67:be:af:9d:d5:c8:5a:c4:08:61:d8:9d:62:93:5f:92:
         c6:01:6b:af
-----BEGIN CERTIFICATE-----
MIIDXDCCAkSgAwIBAgIQNw8GaHeWzGpgnHrs2EdB+TANBgkqhkiG9w0BAQsFADAW
MRQwEgYDVQQDDAt0ZWFtNjMyLW5ldDAeFw0yMTA5MTMwNDQwMDFaFw0yNDA4Mjgw
NDQwMDFaMBkxFzAVBgNVBAMMDnRlYW02MzItY2xpZW50MIIBIjANBgkqhkiG9w0B
AQEFAAOCAQ8AMIIBCgKCAQEArjFCGiiKrTBeqM8unBkk0Fy9jqsOygS1pn4BkiIQ
DW+HP1QX16/kfH7Rv91JTN1M5j2KXDhM9r+haKMo8FclNjOtsXnJwZuo9Zk6oQja
sssIBtHgJ2bo6VdbjlssEUvtNX7EodxUhnd+DfJEHllTwUxwLlvcPLEVKNHo0nge
0WiuxFmHRLYm9ooeadzBssIqW/DAS/ANzLkzRW/ahYvVLBnTdt6ERC4dGQGucU0q
ej6JNQgE83U97AfkE2x+GZ4GUvtC2H7MOdmLqUiFUWhWunM+tcgECV2TGcYiPnOo
tklt+nLdFoVN6808p9pV8llxuAGQzMmU+oFloR1dRfjt5wIDAQABo4GiMIGfMAkG
A1UdEwQCMAAwHQYDVR0OBBYEFJgpzT3n57u27Wl0oWSw4ly+i1eYMFEGA1UdIwRK
MEiAFCW4LfBfRAUuhrYkAi2EqkDmHqi0oRqkGDAWMRQwEgYDVQQDDAt0ZWFtNjMy
LW5ldIIUf6KdkyflxjBbVh4FuBLMweyRJWYwEwYDVR0lBAwwCgYIKwYBBQUHAwIw
CwYDVR0PBAQDAgeAMA0GCSqGSIb3DQEBCwUAA4IBAQCYTZxBKpvv+h9g/OjC6tmh
84paaZ6LDft8t6unuNfb0dAzZOa/OBV8m4i7VHzqIgoAX2yW6DZH42e13ZnxnEe0
ooYHGloly53y3PQ7VThxI2/fGjOc+feybaNwOeLi5Ln24U3X2NQSTxXcNtWWMTck
s5Mb4AksW/67IIfXvMzT/G7olMVRPff/xOYyl+rp1VUkEuuhJs5mM3cB8Y9B2oro
Su3dKv3xRCdFZ/zNq8U2GSYs9v+/jp7TsEkMwFlXoXCOo2T6bMxeONSfCDapAIkq
4jBKfsLraP9bxKKzii5tlH5+FF91g/FheMg8nWe+r53VyFrECGHYnWKTX5LGAWuv
-----END CERTIFICATE-----
