Certificate:
    Data:
        Version: 3 (0x2)
        Serial Number:
            bf:2b:e3:5c:77:6d:a7:3b:50:e8:1f:c0:8e:21:67:6c
        Signature Algorithm: sha256WithRSAEncryption
        Issuer: CN=team304-net
        Validity
            Not Before: Sep 13 01:28:42 2021 GMT
            Not After : Aug 28 01:28:42 2024 GMT
        Subject: CN=team304-client
        Subject Public Key Info:
            Public Key Algorithm: rsaEncryption
                RSA Public-Key: (2048 bit)
                Modulus:
                    00:cc:5d:87:ba:3c:60:1b:ad:43:fc:c2:10:db:74:
                    98:47:5a:c6:4f:f2:4d:6c:99:34:15:c7:19:3d:72:
                    c2:41:f5:ec:99:a8:ee:65:c3:5f:05:0e:c7:e0:00:
                    1a:78:5a:fc:fb:e4:17:7f:93:0f:4d:9f:45:4c:ae:
                    b5:e3:7d:6c:c0:5f:47:d5:15:f3:b9:17:1a:02:70:
                    7a:fe:f6:54:c2:cf:5f:84:64:3f:7e:a3:71:f3:8f:
                    ab:e6:d2:20:af:f1:a4:51:6e:84:ca:6b:13:b0:4f:
                    f9:cb:56:1e:5e:f6:37:fe:a5:52:65:15:ba:e3:2c:
                    24:e8:2f:2d:7a:67:2c:dc:cf:a5:c0:c7:e5:6b:99:
                    54:17:81:69:5c:7c:26:ae:e5:c8:18:88:e7:ed:a9:
                    51:e5:6f:d6:db:69:32:6c:03:5c:15:51:11:c3:a7:
                    84:d7:eb:db:66:cd:38:52:2b:f9:86:a9:43:52:52:
                    8f:55:b2:30:7e:25:45:f0:23:91:a0:7c:01:bf:97:
                    69:01:ac:2b:d3:7c:08:c0:7a:6d:4a:e1:6b:89:d2:
                    57:0f:cd:1f:da:9e:1f:06:2b:33:b6:95:d0:94:1a:
                    db:ed:b8:f6:54:5d:69:a4:28:9f:c6:88:0b:71:34:
                    5b:bf:91:f6:a3:39:c5:bd:fd:7d:03:cc:27:23:e1:
                    c1:b7
                Exponent: 65537 (0x10001)
        X509v3 extensions:
            X509v3 Basic Constraints: 
                CA:FALSE
            X509v3 Subject Key Identifier: 
                C9:BE:77:25:75:BE:62:B8:83:5B:9E:DE:5D:DF:3A:62:D4:D8:6D:6B
            X509v3 Authority Key Identifier: 
                keyid:41:90:62:5E:6F:0F:2F:12:91:94:06:34:57:98:DF:B5:64:BF:10:08
                DirName:/CN=team304-net
                serial:55:1E:75:42:9F:04:7B:8B:AA:76:9E:FF:17:29:A9:0B:69:6E:42:9F

            X509v3 Extended Key Usage: 
                TLS Web Client Authentication
            X509v3 Key Usage: 
                Digital Signature
    Signature Algorithm: sha256WithRSAEncryption
         2a:30:76:51:0d:d3:1e:69:4f:b4:5d:fc:ca:af:12:08:dc:e4:
         a4:53:65:ac:9c:e0:b1:97:a7:1f:7d:96:58:c7:17:b0:00:dc:
         f5:ac:e8:95:85:ef:16:21:82:19:4c:1d:f6:4b:7b:27:08:85:
         75:f7:81:f9:cd:81:c7:51:67:15:1a:d4:e1:97:a8:05:0a:0d:
         57:9a:c9:a1:1e:7c:04:ad:88:af:db:e5:48:32:25:1b:15:c4:
         f7:ff:c2:4a:c9:2a:28:88:51:29:c7:66:de:11:69:d7:52:17:
         ff:c1:2a:a3:9c:aa:bc:d7:14:2f:cb:ef:28:2e:36:d9:54:ab:
         7f:f8:c1:4b:87:92:3a:d5:0e:69:c7:f3:66:68:af:3c:0d:7a:
         93:dc:67:fe:fa:4d:c7:22:92:b5:72:0a:0f:20:b1:92:98:90:
         e0:81:8c:fb:cf:4d:24:9b:50:fd:b7:07:99:e5:e4:0f:41:09:
         83:9e:3b:e0:13:5b:9a:a6:76:14:58:29:1c:30:29:af:44:ff:
         ab:25:fe:b6:ec:f1:d3:00:a0:0d:5a:f2:19:e1:6c:d0:ec:6e:
         ba:a4:94:bf:6f:93:eb:94:83:ce:84:74:e2:97:87:58:82:d8:
         45:75:6e:84:97:06:e7:0b:7d:b5:a8:c6:5b:7c:82:d2:58:5e:
         8b:74:1f:59
-----BEGIN CERTIFICATE-----
MIIDXTCCAkWgAwIBAgIRAL8r41x3bac7UOgfwI4hZ2wwDQYJKoZIhvcNAQELBQAw
FjEUMBIGA1UEAwwLdGVhbTMwNC1uZXQwHhcNMjEwOTEzMDEyODQyWhcNMjQwODI4
MDEyODQyWjAZMRcwFQYDVQQDDA50ZWFtMzA0LWNsaWVudDCCASIwDQYJKoZIhvcN
AQEBBQADggEPADCCAQoCggEBAMxdh7o8YButQ/zCENt0mEdaxk/yTWyZNBXHGT1y
wkH17Jmo7mXDXwUOx+AAGnha/PvkF3+TD02fRUyuteN9bMBfR9UV87kXGgJwev72
VMLPX4RkP36jcfOPq+bSIK/xpFFuhMprE7BP+ctWHl72N/6lUmUVuuMsJOgvLXpn
LNzPpcDH5WuZVBeBaVx8Jq7lyBiI5+2pUeVv1ttpMmwDXBVREcOnhNfr22bNOFIr
+YapQ1JSj1WyMH4lRfAjkaB8Ab+XaQGsK9N8CMB6bUrha4nSVw/NH9qeHwYrM7aV
0JQa2+249lRdaaQon8aIC3E0W7+R9qM5xb39fQPMJyPhwbcCAwEAAaOBojCBnzAJ
BgNVHRMEAjAAMB0GA1UdDgQWBBTJvncldb5iuINbnt5d3zpi1NhtazBRBgNVHSME
SjBIgBRBkGJebw8vEpGUBjRXmN+1ZL8QCKEapBgwFjEUMBIGA1UEAwwLdGVhbTMw
NC1uZXSCFFUedUKfBHuLqnae/xcpqQtpbkKfMBMGA1UdJQQMMAoGCCsGAQUFBwMC
MAsGA1UdDwQEAwIHgDANBgkqhkiG9w0BAQsFAAOCAQEAKjB2UQ3THmlPtF38yq8S
CNzkpFNlrJzgsZenH32WWMcXsADc9azolYXvFiGCGUwd9kt7JwiFdfeB+c2Bx1Fn
FRrU4ZeoBQoNV5rJoR58BK2Ir9vlSDIlGxXE9//CSskqKIhRKcdm3hFp11IX/8Eq
o5yqvNcUL8vvKC422VSrf/jBS4eSOtUOacfzZmivPA16k9xn/vpNxyKStXIKDyCx
kpiQ4IGM+89NJJtQ/bcHmeXkD0EJg5474BNbmqZ2FFgpHDApr0T/qyX+tuzx0wCg
DVryGeFs0OxuuqSUv2+T65SDzoR04peHWILYRXVuhJcG5wt9tajGW3yC0lhei3Qf
WQ==
-----END CERTIFICATE-----
