Certificate:
    Data:
        Version: 3 (0x2)
        Serial Number:
            56:82:12:15:33:d0:36:24:42:1c:25:41:f6:ba:76:af
        Signature Algorithm: sha256WithRSAEncryption
        Issuer: CN=team26-net
        Validity
            Not Before: Sep 12 22:56:43 2021 GMT
            Not After : Aug 27 22:56:43 2024 GMT
        Subject: CN=team26-client
        Subject Public Key Info:
            Public Key Algorithm: rsaEncryption
                RSA Public-Key: (2048 bit)
                Modulus:
                    00:b4:fe:b6:60:3c:13:19:03:3e:44:dd:b2:f6:1b:
                    14:02:8e:38:76:ff:06:ae:18:3d:93:0e:01:53:57:
                    82:9f:5e:a5:a0:b7:73:36:f0:53:b2:09:e7:9c:3b:
                    67:6a:28:50:e7:6c:a1:da:db:2d:f8:ed:4c:54:c0:
                    13:90:c4:9e:fe:57:d0:2e:df:fa:c1:90:f5:57:ca:
                    e3:5e:70:1e:62:5e:4b:be:39:59:ac:cc:c3:a7:d9:
                    94:8d:03:fb:c5:28:a5:7a:ff:b2:b2:23:e5:b2:2a:
                    1f:3b:7d:2e:bf:0f:d3:d1:8e:1a:73:16:84:27:e3:
                    58:b7:46:39:5e:ca:fb:fc:c8:4f:02:cb:61:55:97:
                    14:a2:29:12:77:40:ac:35:d6:b1:94:20:46:81:bc:
                    f3:79:92:37:9d:95:43:d9:13:77:f9:20:d4:b9:78:
                    24:d8:e9:a8:5e:e0:8f:55:ad:3f:9f:c7:fa:40:cf:
                    6f:fd:02:0c:3c:70:e9:47:07:48:a1:af:a1:8b:3f:
                    c6:27:22:6e:29:34:e5:aa:63:b6:24:11:c5:3a:2a:
                    75:3f:36:88:9e:13:ea:7a:87:90:bf:67:ed:c4:82:
                    db:bd:9a:15:9a:48:b4:ed:ad:12:7e:9d:12:07:bb:
                    f8:92:ba:ec:3c:11:7e:27:bb:06:a7:33:35:c2:6d:
                    dd:53
                Exponent: 65537 (0x10001)
        X509v3 extensions:
            X509v3 Basic Constraints: 
                CA:FALSE
            X509v3 Subject Key Identifier: 
                B8:06:1C:11:0A:5D:C9:FA:70:02:CC:C8:18:98:A8:F6:C1:2F:21:D9
            X509v3 Authority Key Identifier: 
                keyid:A0:E4:87:B9:2A:7D:87:E8:C6:E4:B9:2A:D3:29:02:68:22:9B:67:18
                DirName:/CN=team26-net
                serial:3E:4F:CD:E7:54:40:B2:50:B6:1F:03:1E:D7:CB:42:66:00:4A:DC

            X509v3 Extended Key Usage: 
                TLS Web Client Authentication
            X509v3 Key Usage: 
                Digital Signature
    Signature Algorithm: sha256WithRSAEncryption
         5a:e5:3b:e5:54:d7:44:ae:1a:d0:60:fc:6c:e3:2d:0f:1f:f6:
         aa:98:f6:3a:19:bd:a1:f2:41:1d:05:b9:50:51:08:90:3a:4a:
         3e:d1:97:a0:79:7b:23:87:c5:45:32:ba:89:6c:32:29:91:88:
         b2:56:0e:c9:97:ed:60:70:6c:e4:01:d4:6a:73:10:92:cd:eb:
         3d:c6:f4:0d:4f:6b:f0:97:33:61:4f:dd:93:cf:29:0d:7a:93:
         c9:33:0c:35:d7:71:d8:c0:27:a0:dd:c8:5d:82:75:7d:84:b8:
         83:9e:89:89:81:14:77:fe:70:a6:fb:58:61:f4:0e:8d:a2:31:
         f2:04:c9:fe:af:8c:8d:6e:92:5e:bd:42:1a:67:35:7a:ec:c9:
         01:0e:b2:8f:a9:57:75:eb:f1:6e:ec:a7:0b:76:9e:b3:0a:53:
         ce:bc:f6:ab:86:29:8b:0c:37:b0:12:98:ee:36:df:83:7f:8a:
         d8:a2:2d:a0:ae:7a:52:87:8c:9e:2d:6d:f4:c1:dd:6b:92:eb:
         ca:3f:c5:a8:cc:bc:d2:71:14:90:8d:e8:b3:aa:03:87:c3:cf:
         ab:d1:a3:99:f3:93:a3:c8:4f:fa:15:d6:d7:cd:a7:64:8d:ba:
         25:45:ab:d1:ae:2e:2a:08:ce:a1:4a:a4:1d:5b:c2:fb:59:0f:
         d1:6c:cc:9a
-----BEGIN CERTIFICATE-----
MIIDWDCCAkCgAwIBAgIQVoISFTPQNiRCHCVB9rp2rzANBgkqhkiG9w0BAQsFADAV
MRMwEQYDVQQDDAp0ZWFtMjYtbmV0MB4XDTIxMDkxMjIyNTY0M1oXDTI0MDgyNzIy
NTY0M1owGDEWMBQGA1UEAwwNdGVhbTI2LWNsaWVudDCCASIwDQYJKoZIhvcNAQEB
BQADggEPADCCAQoCggEBALT+tmA8ExkDPkTdsvYbFAKOOHb/Bq4YPZMOAVNXgp9e
paC3czbwU7IJ55w7Z2ooUOdsodrbLfjtTFTAE5DEnv5X0C7f+sGQ9VfK415wHmJe
S745WazMw6fZlI0D+8UopXr/srIj5bIqHzt9Lr8P09GOGnMWhCfjWLdGOV7K+/zI
TwLLYVWXFKIpEndArDXWsZQgRoG883mSN52VQ9kTd/kg1Ll4JNjpqF7gj1WtP5/H
+kDPb/0CDDxw6UcHSKGvoYs/xicibik05apjtiQRxToqdT82iJ4T6nqHkL9n7cSC
272aFZpItO2tEn6dEge7+JK67DwRfie7BqczNcJt3VMCAwEAAaOBoDCBnTAJBgNV
HRMEAjAAMB0GA1UdDgQWBBS4BhwRCl3J+nACzMgYmKj2wS8h2TBPBgNVHSMESDBG
gBSg5Ie5Kn2H6MbkuSrTKQJoIptnGKEZpBcwFTETMBEGA1UEAwwKdGVhbTI2LW5l
dIITPk/N51RAslC2HwMe18tCZgBK3DATBgNVHSUEDDAKBggrBgEFBQcDAjALBgNV
HQ8EBAMCB4AwDQYJKoZIhvcNAQELBQADggEBAFrlO+VU10SuGtBg/GzjLQ8f9qqY
9joZvaHyQR0FuVBRCJA6Sj7Rl6B5eyOHxUUyuolsMimRiLJWDsmX7WBwbOQB1Gpz
EJLN6z3G9A1Pa/CXM2FP3ZPPKQ16k8kzDDXXcdjAJ6DdyF2CdX2EuIOeiYmBFHf+
cKb7WGH0Do2iMfIEyf6vjI1ukl69QhpnNXrsyQEOso+pV3Xr8W7spwt2nrMKU868
9quGKYsMN7ASmO4234N/itiiLaCuelKHjJ4tbfTB3WuS68o/xajMvNJxFJCN6LOq
A4fDz6vRo5nzk6PIT/oV1tfNp2SNuiVFq9GuLioIzqFKpB1bwvtZD9FszJo=
-----END CERTIFICATE-----
