Certificate:
    Data:
        Version: 3 (0x2)
        Serial Number:
            77:8a:00:4d:4f:a8:35:0c:1a:25:85:bb:9a:b7:b2:28
        Signature Algorithm: sha256WithRSAEncryption
        Issuer: CN=team261-net
        Validity
            Not Before: Sep 13 01:08:48 2021 GMT
            Not After : Aug 28 01:08:48 2024 GMT
        Subject: CN=team261-server
        Subject Public Key Info:
            Public Key Algorithm: rsaEncryption
                RSA Public-Key: (2048 bit)
                Modulus:
                    00:f3:67:15:bd:cc:22:39:7f:d2:8f:59:c2:10:84:
                    1c:46:e2:78:54:5c:79:ae:71:2d:41:6b:b9:84:72:
                    a2:d3:22:b3:64:a4:07:89:20:0e:7a:67:9a:b2:71:
                    fd:73:c6:b4:d2:a0:2b:53:6d:9f:68:9c:a7:64:92:
                    9a:d8:f2:0f:9c:44:3d:b2:e2:bd:0a:3e:04:48:da:
                    e7:66:7e:68:8c:33:2b:04:46:46:1f:4d:16:70:05:
                    8e:cc:75:62:cf:5e:8a:2a:06:af:97:d2:24:d2:03:
                    a9:d6:02:9e:78:f3:4d:3e:f5:c2:0f:27:5d:f7:68:
                    fc:40:f2:92:4c:ee:ad:cd:ef:62:83:12:31:0c:50:
                    fd:83:ee:04:f1:a0:49:65:09:ab:35:d9:78:76:ce:
                    d5:5d:d8:ac:6d:37:a6:69:a9:d3:76:7d:90:c0:b8:
                    d2:f9:42:a3:8d:7d:d8:22:2e:0c:62:a8:70:5d:3b:
                    51:6f:a7:e2:6a:37:67:6c:12:e8:f7:f9:e0:28:19:
                    1f:af:5d:fe:03:e5:54:11:41:52:e6:ee:ad:25:81:
                    cc:02:3b:9a:b3:dc:ea:d4:d7:ce:8c:2b:f8:13:c1:
                    bc:72:bf:ff:bf:a7:9c:17:ca:bc:f1:a6:fa:64:91:
                    f1:e2:24:5b:87:00:42:fd:26:6a:d9:4e:74:c3:a6:
                    3b:cd
                Exponent: 65537 (0x10001)
        X509v3 extensions:
            X509v3 Basic Constraints: 
                CA:FALSE
            X509v3 Subject Key Identifier: 
                97:D9:7C:2C:02:AD:C4:1C:F9:52:15:CE:06:7D:48:91:45:5B:87:CD
            X509v3 Authority Key Identifier: 
                keyid:17:F7:3F:AA:D5:4B:3B:F7:8F:E5:F7:AA:5E:6B:87:12:DB:CA:AB:37
                DirName:/CN=team261-net
                serial:65:17:09:F1:CE:23:D8:BC:71:A4:F1:2E:06:40:5D:DC:1D:1D:7E:8A

            X509v3 Extended Key Usage: 
                TLS Web Server Authentication
            X509v3 Key Usage: 
                Digital Signature, Key Encipherment
            X509v3 Subject Alternative Name: 
                DNS:team261-server
    Signature Algorithm: sha256WithRSAEncryption
         88:02:06:8a:9e:7c:89:d1:87:0c:56:6a:d4:a3:c1:ce:66:e1:
         56:dd:23:5a:b3:30:ad:1a:8b:2e:24:99:c8:df:3e:62:99:e8:
         b8:ec:e8:92:bb:d2:1c:bf:55:c8:c6:e9:bb:de:47:5a:90:c1:
         27:45:00:18:a0:10:ee:39:a3:c0:df:00:af:dd:bc:01:82:0c:
         92:bc:47:da:85:7e:d2:8a:84:2c:66:a8:5c:62:b1:cc:e3:3a:
         34:b7:8f:49:45:ec:15:e5:5e:7f:03:71:4d:b7:b8:7d:b0:7f:
         6d:07:d0:1c:f5:ea:30:04:b5:af:b5:65:c2:e1:41:cd:6a:e5:
         fb:e9:ac:c9:3f:4a:6a:c3:73:5b:fe:45:fb:e3:98:30:90:aa:
         98:9b:f1:59:c3:bb:40:4f:b3:e3:30:73:54:be:65:44:7b:9c:
         93:12:9e:22:f3:73:3b:61:81:f8:65:a1:43:21:f1:6d:e3:43:
         a0:73:b6:ca:a3:ea:d9:c8:2b:b1:e0:64:ac:d6:c6:58:2f:85:
         30:e1:2d:30:93:92:54:56:4a:c0:d9:18:ef:10:44:11:53:2d:
         fb:75:9d:65:ef:46:af:e3:af:63:ef:5a:64:72:b0:b9:89:03:
         97:ae:d3:46:81:13:d1:0f:f3:11:0f:af:6e:46:f4:81:9a:de:
         59:be:8c:14
-----BEGIN CERTIFICATE-----
MIIDdzCCAl+gAwIBAgIQd4oATU+oNQwaJYW7mreyKDANBgkqhkiG9w0BAQsFADAW
MRQwEgYDVQQDDAt0ZWFtMjYxLW5ldDAeFw0yMTA5MTMwMTA4NDhaFw0yNDA4Mjgw
MTA4NDhaMBkxFzAVBgNVBAMMDnRlYW0yNjEtc2VydmVyMIIBIjANBgkqhkiG9w0B
AQEFAAOCAQ8AMIIBCgKCAQEA82cVvcwiOX/Sj1nCEIQcRuJ4VFx5rnEtQWu5hHKi
0yKzZKQHiSAOemeasnH9c8a00qArU22faJynZJKa2PIPnEQ9suK9Cj4ESNrnZn5o
jDMrBEZGH00WcAWOzHViz16KKgavl9Ik0gOp1gKeePNNPvXCDydd92j8QPKSTO6t
ze9igxIxDFD9g+4E8aBJZQmrNdl4ds7VXdisbTemaanTdn2QwLjS+UKjjX3YIi4M
YqhwXTtRb6fiajdnbBLo9/ngKBkfr13+A+VUEUFS5u6tJYHMAjuas9zq1NfOjCv4
E8G8cr//v6ecF8q88ab6ZJHx4iRbhwBC/SZq2U50w6Y7zQIDAQABo4G9MIG6MAkG
A1UdEwQCMAAwHQYDVR0OBBYEFJfZfCwCrcQc+VIVzgZ9SJFFW4fNMFEGA1UdIwRK
MEiAFBf3P6rVSzv3j+X3ql5rhxLbyqs3oRqkGDAWMRQwEgYDVQQDDAt0ZWFtMjYx
LW5ldIIUZRcJ8c4j2LxxpPEuBkBd3B0dfoowEwYDVR0lBAwwCgYIKwYBBQUHAwEw
CwYDVR0PBAQDAgWgMBkGA1UdEQQSMBCCDnRlYW0yNjEtc2VydmVyMA0GCSqGSIb3
DQEBCwUAA4IBAQCIAgaKnnyJ0YcMVmrUo8HOZuFW3SNaszCtGosuJJnI3z5imei4
7OiSu9Icv1XIxum73kdakMEnRQAYoBDuOaPA3wCv3bwBggySvEfahX7SioQsZqhc
YrHM4zo0t49JRewV5V5/A3FNt7h9sH9tB9Ac9eowBLWvtWXC4UHNauX76azJP0pq
w3Nb/kX745gwkKqYm/FZw7tAT7PjMHNUvmVEe5yTEp4i83M7YYH4ZaFDIfFt40Og
c7bKo+rZyCux4GSs1sZYL4Uw4S0wk5JUVkrA2RjvEEQRUy37dZ1l70av469j71pk
crC5iQOXrtNGgRPRD/MRD69uRvSBmt5ZvowU
-----END CERTIFICATE-----
