Certificate:
    Data:
        Version: 3 (0x2)
        Serial Number:
            78:57:3d:05:5b:3c:a1:c0:33:84:2c:43:29:92:89:60
        Signature Algorithm: sha256WithRSAEncryption
        Issuer: CN=team261-net
        Validity
            Not Before: Sep 13 01:08:47 2021 GMT
            Not After : Aug 28 01:08:47 2024 GMT
        Subject: CN=team261-client
        Subject Public Key Info:
            Public Key Algorithm: rsaEncryption
                RSA Public-Key: (2048 bit)
                Modulus:
                    00:be:d2:11:1d:f6:84:c1:f3:80:ab:bf:2f:bc:2e:
                    53:ee:1c:14:4c:b8:80:07:b8:aa:c7:97:78:72:7c:
                    8a:ce:64:76:4e:3b:ae:15:9f:d7:a3:5b:d5:10:79:
                    64:64:7c:61:04:50:2f:32:27:f5:5d:2b:3b:ca:2d:
                    2a:1d:2a:7f:f1:5e:28:4b:7e:23:cf:36:86:fe:fa:
                    e1:db:71:93:df:c3:a1:ed:11:3b:33:1b:e0:df:70:
                    a0:b0:25:a0:30:46:a9:2e:83:53:7c:46:fc:37:7a:
                    94:52:f2:18:6c:0c:7e:af:81:54:e1:24:91:60:10:
                    2b:b4:bd:50:89:aa:3f:77:2a:0d:75:6a:06:5f:33:
                    b1:7c:6f:64:b9:91:19:af:21:9a:f0:b2:56:c1:3b:
                    fd:e8:80:84:00:03:40:cc:1e:2e:0c:6b:a4:f1:ae:
                    40:fb:0b:26:7e:0f:d2:cd:b3:b3:47:d4:58:6f:14:
                    de:e9:5c:b4:7e:d8:71:e0:01:1b:29:2a:b4:2b:4e:
                    c8:80:1a:36:4c:8a:e9:0d:3e:73:bc:d1:22:b9:96:
                    a6:f2:79:b6:0f:a8:8b:77:97:ce:58:30:38:d6:69:
                    c9:73:a8:72:01:2e:66:bd:71:1e:7a:d8:92:10:86:
                    d4:27:6e:8f:d7:a4:72:2a:63:d9:ab:2d:ba:c8:b1:
                    00:e1
                Exponent: 65537 (0x10001)
        X509v3 extensions:
            X509v3 Basic Constraints: 
                CA:FALSE
            X509v3 Subject Key Identifier: 
                CF:D2:6C:3F:98:FF:A7:E8:86:8C:85:F4:57:73:14:8D:EA:27:77:4A
            X509v3 Authority Key Identifier: 
                keyid:17:F7:3F:AA:D5:4B:3B:F7:8F:E5:F7:AA:5E:6B:87:12:DB:CA:AB:37
                DirName:/CN=team261-net
                serial:65:17:09:F1:CE:23:D8:BC:71:A4:F1:2E:06:40:5D:DC:1D:1D:7E:8A

            X509v3 Extended Key Usage: 
                TLS Web Client Authentication
            X509v3 Key Usage: 
                Digital Signature
    Signature Algorithm: sha256WithRSAEncryption
         aa:c9:0e:23:a0:ae:7f:eb:33:66:a7:90:e5:7b:7b:ee:bd:40:
         56:60:37:e3:53:d0:94:e3:5b:9d:94:75:ed:de:a6:d6:f5:92:
         f9:8a:dd:be:08:7f:b8:e1:97:07:50:8b:03:76:1b:60:1d:4c:
         3f:f4:05:94:42:9b:d6:06:c3:25:0d:c9:50:97:39:13:ef:25:
         4a:7f:04:46:0d:5b:ed:11:40:4e:0b:03:7c:4e:3f:46:22:8e:
         e7:73:4e:18:93:06:05:be:52:b6:71:49:b7:da:02:88:e4:7b:
         34:43:f8:bc:c6:b1:98:75:ab:53:e1:e6:85:22:31:5a:a0:ee:
         38:cf:4c:86:ee:9e:11:03:a2:60:fd:7e:b5:ad:cd:f1:2f:c0:
         3e:e4:63:a1:13:d1:9b:50:d7:aa:cb:1e:40:1e:a6:80:ca:a5:
         a9:24:95:bb:31:07:75:78:1f:71:9d:59:c2:11:a2:ac:08:df:
         a1:7c:36:a6:38:f7:c2:28:51:f4:8f:c5:7a:66:15:8a:cc:0d:
         66:9b:1e:cd:99:5e:67:e4:67:2d:a3:e1:49:c0:e8:ee:6f:e5:
         c3:e8:0b:eb:fc:b4:86:d8:e8:be:fb:02:6e:e3:5c:d1:ed:13:
         25:d9:89:73:25:1a:1e:fe:55:36:22:0f:64:40:cf:0a:c6:83:
         a9:a7:1b:34
-----BEGIN CERTIFICATE-----
MIIDXDCCAkSgAwIBAgIQeFc9BVs8ocAzhCxDKZKJYDANBgkqhkiG9w0BAQsFADAW
MRQwEgYDVQQDDAt0ZWFtMjYxLW5ldDAeFw0yMTA5MTMwMTA4NDdaFw0yNDA4Mjgw
MTA4NDdaMBkxFzAVBgNVBAMMDnRlYW0yNjEtY2xpZW50MIIBIjANBgkqhkiG9w0B
AQEFAAOCAQ8AMIIBCgKCAQEAvtIRHfaEwfOAq78vvC5T7hwUTLiAB7iqx5d4cnyK
zmR2TjuuFZ/Xo1vVEHlkZHxhBFAvMif1XSs7yi0qHSp/8V4oS34jzzaG/vrh23GT
38Oh7RE7Mxvg33CgsCWgMEapLoNTfEb8N3qUUvIYbAx+r4FU4SSRYBArtL1Qiao/
dyoNdWoGXzOxfG9kuZEZryGa8LJWwTv96ICEAANAzB4uDGuk8a5A+wsmfg/SzbOz
R9RYbxTe6Vy0fthx4AEbKSq0K07IgBo2TIrpDT5zvNEiuZam8nm2D6iLd5fOWDA4
1mnJc6hyAS5mvXEeetiSEIbUJ26P16RyKmPZqy26yLEA4QIDAQABo4GiMIGfMAkG
A1UdEwQCMAAwHQYDVR0OBBYEFM/SbD+Y/6fohoyF9FdzFI3qJ3dKMFEGA1UdIwRK
MEiAFBf3P6rVSzv3j+X3ql5rhxLbyqs3oRqkGDAWMRQwEgYDVQQDDAt0ZWFtMjYx
LW5ldIIUZRcJ8c4j2LxxpPEuBkBd3B0dfoowEwYDVR0lBAwwCgYIKwYBBQUHAwIw
CwYDVR0PBAQDAgeAMA0GCSqGSIb3DQEBCwUAA4IBAQCqyQ4joK5/6zNmp5Dle3vu
vUBWYDfjU9CU41udlHXt3qbW9ZL5it2+CH+44ZcHUIsDdhtgHUw/9AWUQpvWBsMl
DclQlzkT7yVKfwRGDVvtEUBOCwN8Tj9GIo7nc04YkwYFvlK2cUm32gKI5Hs0Q/i8
xrGYdatT4eaFIjFaoO44z0yG7p4RA6Jg/X61rc3xL8A+5GOhE9GbUNeqyx5AHqaA
yqWpJJW7MQd1eB9xnVnCEaKsCN+hfDamOPfCKFH0j8V6ZhWKzA1mmx7NmV5n5Gct
o+FJwOjub+XD6Avr/LSG2Oi++wJu41zR7RMl2YlzJRoe/lU2Ig9kQM8KxoOppxs0
-----END CERTIFICATE-----
