Certificate:
    Data:
        Version: 3 (0x2)
        Serial Number:
            94:c1:b8:ba:b1:aa:a4:8d:4d:b5:5d:3e:3a:28:e8:7a
        Signature Algorithm: sha256WithRSAEncryption
        Issuer: CN=team248-net
        Validity
            Not Before: Sep 13 00:48:56 2021 GMT
            Not After : Aug 28 00:48:56 2024 GMT
        Subject: CN=team248-client
        Subject Public Key Info:
            Public Key Algorithm: rsaEncryption
                RSA Public-Key: (2048 bit)
                Modulus:
                    00:c0:24:f7:12:15:9a:eb:bc:10:4b:63:4a:df:64:
                    61:cb:dd:3e:0c:c1:60:80:69:d6:e4:fb:bc:c5:7f:
                    68:c7:cf:ef:27:b6:5b:87:ea:ec:19:13:43:89:05:
                    81:39:b5:c1:5b:85:93:fd:71:8e:21:16:43:d3:82:
                    73:0a:d0:31:61:74:2e:4a:23:03:73:75:46:09:a4:
                    1d:53:69:50:b3:dd:8f:9e:fa:8b:51:c0:4d:45:89:
                    70:d6:ac:7e:8c:bf:e8:d3:f9:fb:8b:58:92:08:04:
                    cf:95:69:28:e3:b6:b4:5f:97:f7:33:b4:52:fa:4f:
                    e6:af:6d:12:61:db:78:d1:c5:55:a1:0b:df:6e:94:
                    de:35:07:0d:0e:47:0d:66:53:3c:05:16:fe:bb:93:
                    cf:6e:fc:ae:7e:d8:2e:4f:65:56:43:2e:86:bc:35:
                    1e:de:b5:62:8b:31:a8:3c:95:f1:e3:59:84:fe:6b:
                    af:09:fd:d3:0f:86:40:63:be:36:bd:b9:cf:97:3f:
                    21:de:5b:58:b0:06:3c:03:7e:2d:80:e0:e4:ef:75:
                    1e:dd:83:d2:8e:43:f9:6a:09:fb:c7:89:f7:47:1a:
                    2b:3f:2c:c6:8d:18:62:60:a2:af:c2:4f:a4:f9:3e:
                    0b:b5:08:45:a9:3a:9b:8f:e3:8b:f4:ac:33:d1:f6:
                    a9:a3
                Exponent: 65537 (0x10001)
        X509v3 extensions:
            X509v3 Basic Constraints: 
                CA:FALSE
            X509v3 Subject Key Identifier: 
                CB:83:0E:EB:5A:8E:BC:C5:7B:A4:B5:BC:9A:66:E0:9F:20:A6:DE:41
            X509v3 Authority Key Identifier: 
                keyid:62:C8:6F:DC:58:F4:A3:C8:EB:A2:86:90:EE:35:9E:35:C6:1C:B2:CB
                DirName:/CN=team248-net
                serial:70:73:39:02:36:69:B0:0A:F6:A9:53:81:B2:BA:A0:5A:F9:28:59:B5

            X509v3 Extended Key Usage: 
                TLS Web Client Authentication
            X509v3 Key Usage: 
                Digital Signature
    Signature Algorithm: sha256WithRSAEncryption
         64:33:22:00:f3:d6:4f:32:05:a3:db:54:4f:01:f6:65:11:9e:
         da:4d:96:aa:7d:c8:56:30:a8:f9:7b:1b:e9:75:1b:e5:8e:ed:
         84:ab:26:43:40:58:a8:28:f6:10:99:00:b9:92:59:a8:89:84:
         41:2a:5e:a5:6e:d0:81:48:a8:f4:42:28:7e:e6:60:d5:85:ed:
         c0:87:b5:d6:04:65:b7:07:04:48:99:88:b9:46:17:d0:25:08:
         d2:73:01:13:5d:1e:82:5f:5a:90:c7:b2:ec:28:40:4b:7b:ac:
         88:d9:c6:d3:8d:36:05:1c:0b:18:84:0c:cd:d6:4f:37:ee:78:
         e6:e9:df:ea:c7:0b:02:e4:31:8a:35:ec:ff:9c:76:fc:c4:02:
         dd:c4:0e:a4:70:c9:1e:bc:9c:04:63:77:74:72:5d:b0:a3:cd:
         8a:29:9d:45:82:36:51:30:1d:bc:66:b3:39:64:6d:42:65:df:
         8c:d7:ed:2b:17:2e:b0:7b:98:76:35:33:53:87:fa:ed:60:7d:
         38:25:f8:12:b3:fd:a7:2e:83:95:25:29:58:9c:c5:0a:4c:ac:
         cb:fe:55:9e:c7:f1:b1:a9:f3:bf:e1:61:da:cb:24:f8:e6:18:
         35:ed:bc:6d:5e:41:9f:b2:ad:07:8f:d3:f6:84:38:b8:08:ee:
         bc:50:51:37
-----BEGIN CERTIFICATE-----
MIIDXTCCAkWgAwIBAgIRAJTBuLqxqqSNTbVdPjoo6HowDQYJKoZIhvcNAQELBQAw
FjEUMBIGA1UEAwwLdGVhbTI0OC1uZXQwHhcNMjEwOTEzMDA0ODU2WhcNMjQwODI4
MDA0ODU2WjAZMRcwFQYDVQQDDA50ZWFtMjQ4LWNsaWVudDCCASIwDQYJKoZIhvcN
AQEBBQADggEPADCCAQoCggEBAMAk9xIVmuu8EEtjSt9kYcvdPgzBYIBp1uT7vMV/
aMfP7ye2W4fq7BkTQ4kFgTm1wVuFk/1xjiEWQ9OCcwrQMWF0LkojA3N1RgmkHVNp
ULPdj576i1HATUWJcNasfoy/6NP5+4tYkggEz5VpKOO2tF+X9zO0UvpP5q9tEmHb
eNHFVaEL326U3jUHDQ5HDWZTPAUW/ruTz278rn7YLk9lVkMuhrw1Ht61YosxqDyV
8eNZhP5rrwn90w+GQGO+Nr25z5c/Id5bWLAGPAN+LYDg5O91Ht2D0o5D+WoJ+8eJ
90caKz8sxo0YYmCir8JPpPk+C7UIRak6m4/ji/SsM9H2qaMCAwEAAaOBojCBnzAJ
BgNVHRMEAjAAMB0GA1UdDgQWBBTLgw7rWo68xXuktbyaZuCfIKbeQTBRBgNVHSME
SjBIgBRiyG/cWPSjyOuihpDuNZ41xhyyy6EapBgwFjEUMBIGA1UEAwwLdGVhbTI0
OC1uZXSCFHBzOQI2abAK9qlTgbK6oFr5KFm1MBMGA1UdJQQMMAoGCCsGAQUFBwMC
MAsGA1UdDwQEAwIHgDANBgkqhkiG9w0BAQsFAAOCAQEAZDMiAPPWTzIFo9tUTwH2
ZRGe2k2Wqn3IVjCo+Xsb6XUb5Y7thKsmQ0BYqCj2EJkAuZJZqImEQSpepW7QgUio
9EIofuZg1YXtwIe11gRltwcESJmIuUYX0CUI0nMBE10egl9akMey7ChAS3usiNnG
0402BRwLGIQMzdZPN+545unf6scLAuQxijXs/5x2/MQC3cQOpHDJHrycBGN3dHJd
sKPNiimdRYI2UTAdvGazOWRtQmXfjNftKxcusHuYdjUzU4f67WB9OCX4ErP9py6D
lSUpWJzFCkysy/5Vnsfxsanzv+Fh2ssk+OYYNe28bV5Bn7KtB4/T9oQ4uAjuvFBR
Nw==
-----END CERTIFICATE-----
