Certificate:
    Data:
        Version: 3 (0x2)
        Serial Number:
            b1:a6:b7:81:50:d5:52:ee:69:25:36:aa:b7:cb:10:d0
        Signature Algorithm: sha256WithRSAEncryption
        Issuer: CN=team122-net
        Validity
            Not Before: Sep 12 23:49:45 2021 GMT
            Not After : Aug 27 23:49:45 2024 GMT
        Subject: CN=team122-client
        Subject Public Key Info:
            Public Key Algorithm: rsaEncryption
                RSA Public-Key: (2048 bit)
                Modulus:
                    00:c0:db:10:0e:30:4a:ce:60:62:93:c6:5c:89:a5:
                    27:69:a0:43:16:e0:9f:17:7f:33:e1:6c:8a:6d:72:
                    4e:a8:82:db:ec:52:e8:3b:b5:fa:88:97:86:ee:b2:
                    af:e4:36:79:c0:06:ad:e7:89:2c:b3:a4:e6:a4:9b:
                    6e:aa:46:70:07:18:8c:fd:8d:04:ba:42:24:49:07:
                    e8:52:b1:50:14:aa:24:34:75:9f:5b:69:92:a1:55:
                    e6:8b:3f:5f:e8:a7:1b:fe:45:36:39:be:c7:5c:88:
                    dd:fb:a3:db:26:8b:cd:1b:87:a6:ed:d3:27:1f:f6:
                    e4:09:a8:4d:8f:1e:77:aa:d2:e6:e2:f0:b5:b8:86:
                    44:fb:47:82:d8:b6:0c:95:f5:43:d4:ab:46:88:ed:
                    fe:ac:3b:c3:3a:80:5d:ac:2e:2f:21:8a:cf:57:5c:
                    f9:8f:84:df:8a:08:b6:60:de:5c:d2:66:7c:62:0d:
                    b7:58:55:c9:60:d2:03:48:32:31:d2:50:c1:a4:ce:
                    72:4c:03:55:1a:c4:f6:18:64:86:2d:3c:01:34:97:
                    f3:9d:7e:b7:e9:d5:18:07:2d:02:a6:31:3d:a0:63:
                    6d:41:91:51:55:5e:c6:fe:e1:9c:eb:84:b5:6e:47:
                    48:0d:d4:db:12:b2:a4:ed:d8:ec:62:b8:5c:55:76:
                    2c:0d
                Exponent: 65537 (0x10001)
        X509v3 extensions:
            X509v3 Basic Constraints: 
                CA:FALSE
            X509v3 Subject Key Identifier: 
                4B:CB:61:39:01:31:4F:A5:A3:8B:78:98:F3:77:14:5A:58:01:76:43
            X509v3 Authority Key Identifier: 
                keyid:C3:23:AF:8F:37:EE:B3:00:EF:17:86:7A:D5:27:9E:54:DE:34:BC:8F
                DirName:/CN=team122-net
                serial:51:FD:26:6B:49:7B:F3:A0:14:F3:21:81:7E:97:8D:64:43:63:E0:AA

            X509v3 Extended Key Usage: 
                TLS Web Client Authentication
            X509v3 Key Usage: 
                Digital Signature
    Signature Algorithm: sha256WithRSAEncryption
         03:2a:28:c9:12:a3:25:a5:b9:d5:1e:e4:45:c8:1f:f7:9b:8a:
         5b:cb:18:24:95:a4:bb:a8:04:ae:92:9a:25:4f:1e:30:0c:2a:
         1f:8a:20:e3:d0:b8:11:fe:e9:48:eb:2c:80:c9:1a:d4:9f:62:
         7f:cf:b8:3f:b4:a1:3c:99:f3:bb:79:6c:d5:da:88:3d:6f:3a:
         88:36:5b:82:4d:8f:01:d4:b3:e7:5d:4d:86:fa:29:00:6f:23:
         6a:fc:01:9c:0c:bb:2f:8e:04:24:7f:b4:16:d2:27:fc:30:73:
         86:3f:53:27:e8:13:b5:c0:bb:69:73:07:ad:1d:3f:5a:60:5b:
         cc:42:42:fd:48:1b:3f:d9:b9:ad:ac:78:2c:b4:cb:2a:65:1b:
         70:6c:c4:ee:c2:ac:68:16:34:03:92:c7:89:6a:af:bd:1c:5f:
         3a:02:19:00:4e:9d:60:78:ad:9e:be:f6:c0:a0:28:77:5f:36:
         47:29:b5:81:3f:80:6c:03:b0:29:83:5c:d7:1f:a4:fa:f7:f3:
         ec:44:8a:c3:e9:5e:25:cb:29:83:02:38:a8:1d:d1:1f:b5:00:
         b0:e2:55:17:93:3b:06:ed:42:46:59:82:29:4a:39:1e:1b:d1:
         da:cb:51:ab:27:39:ff:af:aa:4a:68:2d:5e:dc:b9:6d:54:d0:
         8a:41:58:29
-----BEGIN CERTIFICATE-----
MIIDXTCCAkWgAwIBAgIRALGmt4FQ1VLuaSU2qrfLENAwDQYJKoZIhvcNAQELBQAw
FjEUMBIGA1UEAwwLdGVhbTEyMi1uZXQwHhcNMjEwOTEyMjM0OTQ1WhcNMjQwODI3
MjM0OTQ1WjAZMRcwFQYDVQQDDA50ZWFtMTIyLWNsaWVudDCCASIwDQYJKoZIhvcN
AQEBBQADggEPADCCAQoCggEBAMDbEA4wSs5gYpPGXImlJ2mgQxbgnxd/M+Fsim1y
TqiC2+xS6Du1+oiXhu6yr+Q2ecAGreeJLLOk5qSbbqpGcAcYjP2NBLpCJEkH6FKx
UBSqJDR1n1tpkqFV5os/X+inG/5FNjm+x1yI3fuj2yaLzRuHpu3TJx/25AmoTY8e
d6rS5uLwtbiGRPtHgti2DJX1Q9SrRojt/qw7wzqAXawuLyGKz1dc+Y+E34oItmDe
XNJmfGINt1hVyWDSA0gyMdJQwaTOckwDVRrE9hhkhi08ATSX851+t+nVGActAqYx
PaBjbUGRUVVexv7hnOuEtW5HSA3U2xKypO3Y7GK4XFV2LA0CAwEAAaOBojCBnzAJ
BgNVHRMEAjAAMB0GA1UdDgQWBBRLy2E5ATFPpaOLeJjzdxRaWAF2QzBRBgNVHSME
SjBIgBTDI6+PN+6zAO8XhnrVJ55U3jS8j6EapBgwFjEUMBIGA1UEAwwLdGVhbTEy
Mi1uZXSCFFH9JmtJe/OgFPMhgX6XjWRDY+CqMBMGA1UdJQQMMAoGCCsGAQUFBwMC
MAsGA1UdDwQEAwIHgDANBgkqhkiG9w0BAQsFAAOCAQEAAyooyRKjJaW51R7kRcgf
95uKW8sYJJWku6gErpKaJU8eMAwqH4og49C4Ef7pSOssgMka1J9if8+4P7ShPJnz
u3ls1dqIPW86iDZbgk2PAdSz511NhvopAG8javwBnAy7L44EJH+0FtIn/DBzhj9T
J+gTtcC7aXMHrR0/WmBbzEJC/UgbP9m5rax4LLTLKmUbcGzE7sKsaBY0A5LHiWqv
vRxfOgIZAE6dYHitnr72wKAod182Rym1gT+AbAOwKYNc1x+k+vfz7ESKw+leJcsp
gwI4qB3RH7UAsOJVF5M7Bu1CRlmCKUo5HhvR2stRqyc5/6+qSmgtXty5bVTQikFY
KQ==
-----END CERTIFICATE-----
