Certificate:
    Data:
        Version: 3 (0x2)
        Serial Number:
            f3:ee:03:fd:9a:ad:35:4d:90:9c:71:47:2b:82:55:f7
        Signature Algorithm: sha256WithRSAEncryption
        Issuer: CN=team418-net
        Validity
            Not Before: Sep 13 02:26:54 2021 GMT
            Not After : Aug 28 02:26:54 2024 GMT
        Subject: CN=team418-server
        Subject Public Key Info:
            Public Key Algorithm: rsaEncryption
                RSA Public-Key: (2048 bit)
                Modulus:
                    00:b4:c5:5a:e3:47:df:94:a0:d9:97:63:74:68:6d:
                    26:49:a3:a7:23:ec:4d:18:2a:e4:79:ef:26:ef:91:
                    35:b4:f9:50:28:46:3e:a2:25:82:83:94:e5:4c:a1:
                    ac:2c:da:83:30:da:4a:cd:df:e7:df:f1:39:14:d5:
                    63:2b:99:3c:05:b5:5f:c8:15:6b:e7:a2:36:a6:41:
                    91:01:c0:bb:98:c3:55:68:27:c3:35:06:5a:90:27:
                    4a:12:34:6b:8c:bc:66:08:a8:85:6c:09:c8:c3:18:
                    5a:35:dd:16:0c:87:2e:0d:58:a6:ff:de:f9:65:fb:
                    12:7d:2c:ed:8a:c9:4d:b9:87:f1:b9:83:dd:d5:ab:
                    0e:b6:ae:bc:0d:5c:33:08:03:82:96:72:db:a7:c1:
                    28:20:1e:00:1e:f1:f1:9d:ca:71:1e:1b:75:ba:2a:
                    70:55:31:54:b7:35:e1:b7:e9:16:7b:d7:5d:c9:8e:
                    66:9e:ad:99:48:7f:1f:94:ef:d7:a3:2e:3e:58:9d:
                    84:22:f1:5a:27:b6:d3:72:b4:6a:60:e6:3e:9b:10:
                    78:d1:2f:36:5d:26:2b:66:6a:46:7d:7c:82:60:88:
                    59:23:18:31:d6:f1:77:4d:64:5e:c3:41:59:85:6b:
                    61:63:bc:fb:f4:64:5f:e2:e5:68:a2:fa:25:3b:5e:
                    bf:d5
                Exponent: 65537 (0x10001)
        X509v3 extensions:
            X509v3 Basic Constraints: 
                CA:FALSE
            X509v3 Subject Key Identifier: 
                53:C1:1F:38:D7:32:51:70:FA:0F:71:1A:C1:5F:75:6F:00:BF:5D:85
            X509v3 Authority Key Identifier: 
                keyid:79:1A:71:C9:4A:08:B0:E3:AE:25:58:C3:FB:D3:B2:77:E3:88:65:B9
                DirName:/CN=team418-net
                serial:13:FE:D0:77:64:D7:CA:00:B4:9B:E5:F1:BF:BF:BA:8F:63:58:19:66

            X509v3 Extended Key Usage: 
                TLS Web Server Authentication
            X509v3 Key Usage: 
                Digital Signature, Key Encipherment
            X509v3 Subject Alternative Name: 
                DNS:team418-server
    Signature Algorithm: sha256WithRSAEncryption
         1c:e7:44:cd:23:6b:b8:78:46:1c:92:11:62:61:0a:f2:eb:dc:
         55:4d:86:43:06:12:25:a3:95:5f:5c:5d:fa:68:a7:e8:ff:26:
         1c:ac:dd:95:a1:04:9c:53:93:27:03:e3:e2:fa:a5:a9:b9:d4:
         50:86:c7:83:f8:75:cb:a0:75:a4:5e:00:12:3f:3d:87:95:a2:
         b2:6c:0a:fe:4e:fb:29:60:e9:85:68:82:be:97:72:52:65:72:
         64:83:25:76:a7:1d:20:c4:c3:f9:21:d1:16:38:ac:35:38:63:
         27:45:f1:5f:0c:97:cc:6a:d4:ad:4f:09:10:c1:1c:ad:4f:2f:
         3a:2b:15:e1:33:a1:70:fd:aa:4c:e5:b6:6e:ff:fc:ad:a2:35:
         b7:56:ef:74:39:36:e7:20:28:12:a9:46:33:b3:4e:b4:ac:7e:
         6e:0e:f8:92:b2:18:26:e8:41:e7:9f:d2:b6:d2:fa:42:f7:04:
         80:d1:e2:d5:19:e7:11:f8:89:a1:db:9f:b1:e8:3d:b9:6a:cd:
         f5:ef:8c:64:ba:c4:53:1f:74:74:fb:2a:73:da:bd:40:b9:e1:
         72:74:d5:91:54:de:34:40:d2:bf:90:44:bf:a6:af:f3:4f:91:
         44:e8:d2:d6:69:80:f6:f2:88:7a:1c:0e:6d:d9:f2:8f:af:bf:
         4a:9f:d3:ac
-----BEGIN CERTIFICATE-----
MIIDeDCCAmCgAwIBAgIRAPPuA/2arTVNkJxxRyuCVfcwDQYJKoZIhvcNAQELBQAw
FjEUMBIGA1UEAwwLdGVhbTQxOC1uZXQwHhcNMjEwOTEzMDIyNjU0WhcNMjQwODI4
MDIyNjU0WjAZMRcwFQYDVQQDDA50ZWFtNDE4LXNlcnZlcjCCASIwDQYJKoZIhvcN
AQEBBQADggEPADCCAQoCggEBALTFWuNH35Sg2ZdjdGhtJkmjpyPsTRgq5HnvJu+R
NbT5UChGPqIlgoOU5UyhrCzagzDaSs3f59/xORTVYyuZPAW1X8gVa+eiNqZBkQHA
u5jDVWgnwzUGWpAnShI0a4y8ZgiohWwJyMMYWjXdFgyHLg1Ypv/e+WX7En0s7YrJ
TbmH8bmD3dWrDrauvA1cMwgDgpZy26fBKCAeAB7x8Z3KcR4bdboqcFUxVLc14bfp
FnvXXcmOZp6tmUh/H5Tv16MuPlidhCLxWie203K0amDmPpsQeNEvNl0mK2ZqRn18
gmCIWSMYMdbxd01kXsNBWYVrYWO8+/RkX+LlaKL6JTtev9UCAwEAAaOBvTCBujAJ
BgNVHRMEAjAAMB0GA1UdDgQWBBRTwR841zJRcPoPcRrBX3VvAL9dhTBRBgNVHSME
SjBIgBR5GnHJSgiw464lWMP707J344hluaEapBgwFjEUMBIGA1UEAwwLdGVhbTQx
OC1uZXSCFBP+0Hdk18oAtJvl8b+/uo9jWBlmMBMGA1UdJQQMMAoGCCsGAQUFBwMB
MAsGA1UdDwQEAwIFoDAZBgNVHREEEjAQgg50ZWFtNDE4LXNlcnZlcjANBgkqhkiG
9w0BAQsFAAOCAQEAHOdEzSNruHhGHJIRYmEK8uvcVU2GQwYSJaOVX1xd+min6P8m
HKzdlaEEnFOTJwPj4vqlqbnUUIbHg/h1y6B1pF4AEj89h5WismwK/k77KWDphWiC
vpdyUmVyZIMldqcdIMTD+SHRFjisNThjJ0XxXwyXzGrUrU8JEMEcrU8vOisV4TOh
cP2qTOW2bv/8raI1t1bvdDk25yAoEqlGM7NOtKx+bg74krIYJuhB55/SttL6QvcE
gNHi1RnnEfiJodufseg9uWrN9e+MZLrEUx90dPsqc9q9QLnhcnTVkVTeNEDSv5BE
v6av80+RROjS1mmA9vKIehwObdnyj6+/Sp/TrA==
-----END CERTIFICATE-----
