Certificate:
    Data:
        Version: 3 (0x2)
        Serial Number:
            c4:dc:47:cb:30:aa:48:b3:ab:4e:03:6d:2a:00:91:a6
        Signature Algorithm: sha256WithRSAEncryption
        Issuer: CN=team234-net
        Validity
            Not Before: Sep 13 00:42:47 2021 GMT
            Not After : Aug 28 00:42:47 2024 GMT
        Subject: CN=team234-client
        Subject Public Key Info:
            Public Key Algorithm: rsaEncryption
                RSA Public-Key: (2048 bit)
                Modulus:
                    00:dd:0b:41:f2:92:85:c5:c3:79:cb:3f:db:e1:06:
                    a3:83:00:6a:14:58:e1:39:41:56:73:18:18:82:ee:
                    0c:26:0b:3f:08:e2:0a:73:81:21:60:12:45:2d:38:
                    73:7c:44:37:79:b3:0a:fb:76:2f:cd:89:7e:e6:e1:
                    52:0e:e1:84:7e:97:b6:0a:02:c1:77:8a:6f:78:2b:
                    f4:c0:23:f6:ae:60:7f:61:fa:35:2b:8f:e3:fc:3c:
                    23:3f:3b:b4:83:cc:e2:82:e4:d4:4f:ec:82:57:b1:
                    09:4c:21:ec:c7:b5:9d:da:48:9f:8c:d2:fa:7e:c1:
                    e8:1f:83:36:c0:52:cd:58:7e:d3:b1:d9:da:ee:b7:
                    5d:ac:cc:d3:62:b7:17:71:14:8d:6f:fe:71:b6:b3:
                    da:5b:81:29:f0:97:6d:44:16:1c:a5:cb:09:d1:94:
                    ba:bd:3a:67:5b:54:f4:92:c3:ea:34:6d:47:25:81:
                    75:03:7a:01:9e:88:10:a8:be:59:b2:75:5d:be:53:
                    11:1e:19:d9:62:51:cc:cc:d9:6f:65:98:98:75:a4:
                    fb:13:44:84:48:74:f7:3c:74:00:98:de:37:24:7d:
                    d2:60:23:47:de:33:f5:25:18:4d:43:49:93:5e:a6:
                    ec:3d:9f:7a:28:d5:40:99:dc:8b:22:4e:cf:a2:72:
                    85:6b
                Exponent: 65537 (0x10001)
        X509v3 extensions:
            X509v3 Basic Constraints: 
                CA:FALSE
            X509v3 Subject Key Identifier: 
                3F:A6:E8:B2:3A:D9:CB:A9:D3:25:96:14:F0:2E:0B:AD:80:C0:9F:5A
            X509v3 Authority Key Identifier: 
                keyid:46:6E:78:0E:57:37:1B:73:E9:D0:54:4A:0A:6C:E8:81:1F:57:B0:4B
                DirName:/CN=team234-net
                serial:6E:D9:29:F2:04:49:3C:5D:E1:24:34:C7:4D:EC:59:5B:8A:73:EB:AD

            X509v3 Extended Key Usage: 
                TLS Web Client Authentication
            X509v3 Key Usage: 
                Digital Signature
    Signature Algorithm: sha256WithRSAEncryption
         0b:07:f1:da:6d:a5:9a:5c:94:b1:2d:05:88:6f:01:39:2c:67:
         74:2c:90:cb:55:b8:16:39:b1:0c:dc:5f:a5:b8:6e:34:e0:b6:
         59:55:27:ff:83:ff:7b:9e:aa:21:1e:6e:bb:60:cb:fc:cd:e2:
         3c:b5:05:bb:4d:a9:24:55:b6:c0:e8:33:47:b2:c8:42:fc:1f:
         88:29:a5:d9:3d:e8:89:43:86:66:a3:c9:90:40:62:6c:e4:a7:
         88:74:7d:a9:cc:e0:a4:8f:d2:f9:fe:08:22:8f:db:d6:5c:47:
         c5:1b:3a:08:bc:53:2d:9c:11:07:54:b2:3b:25:41:40:c3:58:
         25:c9:c5:4f:b6:2d:29:9e:e8:fa:cb:3b:7e:f7:36:5f:99:4d:
         73:58:13:7f:d1:3f:96:40:85:2b:bb:72:80:21:55:32:53:a3:
         07:51:1c:55:4c:7d:41:55:ea:09:ea:d8:94:13:a7:37:62:e8:
         c7:28:c9:a8:1e:d9:5f:70:96:0f:7f:50:0e:2d:a7:f1:98:ff:
         b6:b4:ce:9f:29:08:76:19:72:ad:54:ce:6d:4d:35:c6:5b:d6:
         f0:2d:eb:79:28:8f:2d:b6:2c:91:2f:41:78:51:68:48:7d:7a:
         ae:04:e6:49:ec:5b:64:1e:82:4e:0b:da:c3:28:7d:59:ab:a5:
         a1:52:cf:9e
-----BEGIN CERTIFICATE-----
MIIDXTCCAkWgAwIBAgIRAMTcR8swqkizq04DbSoAkaYwDQYJKoZIhvcNAQELBQAw
FjEUMBIGA1UEAwwLdGVhbTIzNC1uZXQwHhcNMjEwOTEzMDA0MjQ3WhcNMjQwODI4
MDA0MjQ3WjAZMRcwFQYDVQQDDA50ZWFtMjM0LWNsaWVudDCCASIwDQYJKoZIhvcN
AQEBBQADggEPADCCAQoCggEBAN0LQfKShcXDecs/2+EGo4MAahRY4TlBVnMYGILu
DCYLPwjiCnOBIWASRS04c3xEN3mzCvt2L82JfubhUg7hhH6XtgoCwXeKb3gr9MAj
9q5gf2H6NSuP4/w8Iz87tIPM4oLk1E/sglexCUwh7Me1ndpIn4zS+n7B6B+DNsBS
zVh+07HZ2u63XazM02K3F3EUjW/+cbaz2luBKfCXbUQWHKXLCdGUur06Z1tU9JLD
6jRtRyWBdQN6AZ6IEKi+WbJ1Xb5TER4Z2WJRzMzZb2WYmHWk+xNEhEh09zx0AJje
NyR90mAjR94z9SUYTUNJk16m7D2feijVQJnciyJOz6JyhWsCAwEAAaOBojCBnzAJ
BgNVHRMEAjAAMB0GA1UdDgQWBBQ/puiyOtnLqdMllhTwLgutgMCfWjBRBgNVHSME
SjBIgBRGbngOVzcbc+nQVEoKbOiBH1ewS6EapBgwFjEUMBIGA1UEAwwLdGVhbTIz
NC1uZXSCFG7ZKfIESTxd4SQ0x03sWVuKc+utMBMGA1UdJQQMMAoGCCsGAQUFBwMC
MAsGA1UdDwQEAwIHgDANBgkqhkiG9w0BAQsFAAOCAQEACwfx2m2lmlyUsS0FiG8B
OSxndCyQy1W4FjmxDNxfpbhuNOC2WVUn/4P/e56qIR5uu2DL/M3iPLUFu02pJFW2
wOgzR7LIQvwfiCml2T3oiUOGZqPJkEBibOSniHR9qczgpI/S+f4IIo/b1lxHxRs6
CLxTLZwRB1SyOyVBQMNYJcnFT7YtKZ7o+ss7fvc2X5lNc1gTf9E/lkCFK7tygCFV
MlOjB1EcVUx9QVXqCerYlBOnN2LoxyjJqB7ZX3CWD39QDi2n8Zj/trTOnykIdhly
rVTObU01xlvW8C3reSiPLbYskS9BeFFoSH16rgTmSexbZB6CTgvawyh9WauloVLP
ng==
-----END CERTIFICATE-----
