Certificate:
    Data:
        Version: 3 (0x2)
        Serial Number:
            5b:ff:47:7e:c0:c5:fe:8f:1c:2e:e2:dd:f3:e3:29:60
        Signature Algorithm: sha256WithRSAEncryption
        Issuer: CN=team366-net
        Validity
            Not Before: Sep 13 02:06:57 2021 GMT
            Not After : Aug 28 02:06:57 2024 GMT
        Subject: CN=team366-client
        Subject Public Key Info:
            Public Key Algorithm: rsaEncryption
                RSA Public-Key: (2048 bit)
                Modulus:
                    00:d3:5d:4b:6b:06:a8:18:1b:91:e4:93:17:5c:b3:
                    40:97:8c:57:73:9b:43:93:8e:73:9f:c9:3f:68:31:
                    f2:38:a0:0a:1c:de:3d:3a:0e:7b:af:f4:d3:c1:5c:
                    33:d7:25:ee:9d:5f:07:8a:e7:de:af:13:80:00:53:
                    d9:c2:7e:6a:ad:80:7e:bc:e7:7b:a0:30:05:51:e4:
                    5f:d5:e6:a4:c8:3b:36:07:1a:41:86:15:aa:c5:29:
                    0f:ba:32:fe:df:cc:30:40:db:23:86:27:e1:d1:20:
                    32:62:da:70:8f:70:fd:82:b8:bb:85:14:da:e3:74:
                    2f:f2:8c:db:2a:65:30:de:00:64:94:63:d9:18:c7:
                    ed:6a:9a:a3:45:94:a7:e2:b9:d8:c5:75:5b:0a:10:
                    3c:c2:ff:14:a5:fc:7a:50:0e:15:a7:0b:ce:1d:29:
                    b7:1a:5c:af:34:a9:92:de:f9:12:78:72:3f:ff:5f:
                    0c:37:c3:6b:1f:a0:57:77:74:79:b2:fc:ec:fd:8e:
                    a4:81:f3:56:13:b3:74:e2:24:f8:b2:92:59:3f:3c:
                    c4:47:7a:dc:4b:11:a5:ae:f7:64:9a:95:dd:4d:e7:
                    96:f9:ae:13:44:a9:30:d4:ce:01:df:5b:d4:59:32:
                    cd:a5:f0:c1:7c:74:de:f3:55:4c:8b:76:73:4b:7a:
                    3f:cf
                Exponent: 65537 (0x10001)
        X509v3 extensions:
            X509v3 Basic Constraints: 
                CA:FALSE
            X509v3 Subject Key Identifier: 
                C4:F6:8D:EE:44:54:80:DD:64:36:84:7D:E1:1B:0A:53:93:20:41:D7
            X509v3 Authority Key Identifier: 
                keyid:10:C4:B6:28:DF:53:0C:24:CC:4B:B0:60:A8:9F:CC:93:2A:75:5A:BD
                DirName:/CN=team366-net
                serial:6A:3E:BA:AE:C7:A8:4D:DA:DB:AF:AB:B8:C7:EF:07:30:F3:38:AD:CC

            X509v3 Extended Key Usage: 
                TLS Web Client Authentication
            X509v3 Key Usage: 
                Digital Signature
    Signature Algorithm: sha256WithRSAEncryption
         49:ce:f3:59:35:54:a7:4d:05:ff:b1:bd:69:e2:4a:50:9b:e4:
         65:9c:d8:e0:3c:b9:b7:8e:fa:65:b1:48:0d:a3:a8:73:9a:10:
         05:15:65:12:a1:60:11:40:02:f5:be:3e:f9:e3:c3:a2:3b:bc:
         66:c0:d8:3d:f5:ee:80:b5:e8:27:b4:25:88:fb:de:ca:b5:59:
         b3:f1:36:d8:e9:c9:00:71:c2:9d:b8:51:d9:96:23:9a:1e:09:
         92:92:98:c4:e7:32:06:65:e9:91:2f:f9:3c:40:2f:c7:a1:a5:
         61:12:83:70:fa:09:53:1f:b6:7f:0e:da:bc:ac:83:1c:8e:6f:
         fe:67:9a:37:6c:e7:8a:1c:13:5a:87:28:95:5d:7f:f1:01:b7:
         67:a2:0d:f6:de:bb:dc:97:15:68:cf:da:93:3b:34:b2:f4:29:
         38:20:d1:c2:85:90:f0:07:20:13:d3:bb:82:72:1a:54:6b:0a:
         c1:b9:ba:48:76:d7:10:13:cc:03:b6:21:68:a0:a0:c9:9f:69:
         57:a5:f6:1d:59:2c:ba:1f:3c:7c:e9:1b:ad:fa:dd:0f:32:ff:
         78:c9:91:a9:48:ec:f7:04:03:41:c6:1f:3a:a6:c0:b8:48:0e:
         54:8a:a0:31:03:1b:93:eb:19:e5:a9:0b:cf:df:07:3b:54:90:
         c0:fb:53:c2
-----BEGIN CERTIFICATE-----
MIIDXDCCAkSgAwIBAgIQW/9HfsDF/o8cLuLd8+MpYDANBgkqhkiG9w0BAQsFADAW
MRQwEgYDVQQDDAt0ZWFtMzY2LW5ldDAeFw0yMTA5MTMwMjA2NTdaFw0yNDA4Mjgw
MjA2NTdaMBkxFzAVBgNVBAMMDnRlYW0zNjYtY2xpZW50MIIBIjANBgkqhkiG9w0B
AQEFAAOCAQ8AMIIBCgKCAQEA011LawaoGBuR5JMXXLNAl4xXc5tDk45zn8k/aDHy
OKAKHN49Og57r/TTwVwz1yXunV8HiuferxOAAFPZwn5qrYB+vOd7oDAFUeRf1eak
yDs2BxpBhhWqxSkPujL+38wwQNsjhifh0SAyYtpwj3D9gri7hRTa43Qv8ozbKmUw
3gBklGPZGMftapqjRZSn4rnYxXVbChA8wv8Upfx6UA4VpwvOHSm3GlyvNKmS3vkS
eHI//18MN8NrH6BXd3R5svzs/Y6kgfNWE7N04iT4spJZPzzER3rcSxGlrvdkmpXd
TeeW+a4TRKkw1M4B31vUWTLNpfDBfHTe81VMi3ZzS3o/zwIDAQABo4GiMIGfMAkG
A1UdEwQCMAAwHQYDVR0OBBYEFMT2je5EVIDdZDaEfeEbClOTIEHXMFEGA1UdIwRK
MEiAFBDEtijfUwwkzEuwYKifzJMqdVq9oRqkGDAWMRQwEgYDVQQDDAt0ZWFtMzY2
LW5ldIIUaj66rseoTdrbr6u4x+8HMPM4rcwwEwYDVR0lBAwwCgYIKwYBBQUHAwIw
CwYDVR0PBAQDAgeAMA0GCSqGSIb3DQEBCwUAA4IBAQBJzvNZNVSnTQX/sb1p4kpQ
m+RlnNjgPLm3jvplsUgNo6hzmhAFFWUSoWARQAL1vj7548OiO7xmwNg99e6Ategn
tCWI+97KtVmz8TbY6ckAccKduFHZliOaHgmSkpjE5zIGZemRL/k8QC/HoaVhEoNw
+glTH7Z/Dtq8rIMcjm/+Z5o3bOeKHBNahyiVXX/xAbdnog323rvclxVoz9qTOzSy
9Ck4INHChZDwByAT07uCchpUawrBubpIdtcQE8wDtiFooKDJn2lXpfYdWSy6Hzx8
6Rut+t0PMv94yZGpSOz3BANBxh86psC4SA5UiqAxAxuT6xnlqQvP3wc7VJDA+1PC
-----END CERTIFICATE-----
