Certificate:
    Data:
        Version: 3 (0x2)
        Serial Number:
            b4:d8:82:3e:26:39:24:ad:51:80:83:8c:fc:f2:b3:08
        Signature Algorithm: sha256WithRSAEncryption
        Issuer: CN=team713-net
        Validity
            Not Before: Sep 13 05:30:36 2021 GMT
            Not After : Aug 28 05:30:36 2024 GMT
        Subject: CN=team713-client
        Subject Public Key Info:
            Public Key Algorithm: rsaEncryption
                RSA Public-Key: (2048 bit)
                Modulus:
                    00:d0:42:cd:39:a5:30:ff:f2:72:e8:39:fd:f1:ad:
                    ef:1f:98:52:a0:b5:1e:d2:4b:31:fd:d2:a7:f7:37:
                    9a:6d:d6:c8:dd:f1:e7:17:4d:cf:90:e2:cd:ac:e7:
                    bf:6a:c4:de:df:5d:c8:9e:d5:39:40:57:fd:92:14:
                    24:04:2c:4c:28:81:1e:d3:75:b3:32:4a:50:78:91:
                    39:2d:d2:67:d4:c3:ab:07:d5:7b:87:43:d1:72:6b:
                    d9:82:84:2a:24:f2:d3:f7:06:22:3a:57:8a:59:43:
                    8c:c5:af:66:75:ca:c8:7f:bf:70:c2:d7:84:25:82:
                    5b:44:f7:63:9f:82:29:4f:76:8b:83:6b:42:49:58:
                    cd:5b:f7:8b:00:70:79:3d:38:86:d4:13:5d:ee:91:
                    7b:e5:ac:31:dd:fc:e5:c9:d3:19:15:d3:ba:00:ad:
                    20:97:dd:53:34:df:96:41:49:d5:d5:b3:fb:83:4d:
                    a3:15:b4:d5:3a:22:94:b3:83:7f:73:33:8f:da:a8:
                    ed:b7:75:11:7f:ab:5e:a7:fe:a8:69:6f:ae:de:b3:
                    28:92:6e:98:b4:e5:3b:26:aa:49:23:77:68:40:cb:
                    f7:4e:be:2d:1c:be:d0:9a:c6:cd:fd:c4:79:1a:07:
                    3a:66:ce:72:55:26:e2:6f:7e:1a:21:cf:03:05:27:
                    e0:d3
                Exponent: 65537 (0x10001)
        X509v3 extensions:
            X509v3 Basic Constraints: 
                CA:FALSE
            X509v3 Subject Key Identifier: 
                4B:FB:F1:74:71:8F:13:3C:E2:03:E4:CF:9F:46:91:47:0C:0E:27:CF
            X509v3 Authority Key Identifier: 
                keyid:24:5A:F0:FD:33:8A:DB:AF:7F:6F:9F:C9:36:B5:BF:55:0B:51:DF:1B
                DirName:/CN=team713-net
                serial:54:89:F9:AC:7E:DC:9D:63:D0:28:79:4B:CE:02:35:51:E8:8F:66:D0

            X509v3 Extended Key Usage: 
                TLS Web Client Authentication
            X509v3 Key Usage: 
                Digital Signature
    Signature Algorithm: sha256WithRSAEncryption
         70:61:b7:90:8f:63:af:50:6a:23:78:62:36:c9:f7:68:39:40:
         03:41:75:58:11:bd:ef:c6:55:0e:cf:83:f4:ca:ce:02:4e:8b:
         87:c6:ce:56:c2:f7:34:ff:92:08:3a:c1:f5:74:57:e8:40:01:
         c5:73:b8:9e:dc:42:94:f2:94:37:0c:54:73:55:a7:d1:56:9d:
         06:67:af:b8:3a:54:6b:a9:3a:cc:46:a2:1e:3e:c9:3c:10:66:
         8b:64:b1:71:0e:38:a3:13:2f:8e:3e:a4:b0:0f:1d:4e:a5:a5:
         45:8b:64:30:ed:cf:23:7e:c3:41:25:ca:e0:b9:f8:a6:5b:67:
         9a:f3:cb:52:ae:07:e5:bd:b1:1c:5d:e8:3d:c2:fb:e2:e8:97:
         57:fc:57:62:cc:e6:cf:3a:95:67:07:7a:3c:a5:55:8b:13:35:
         1d:b7:df:51:88:2a:01:98:90:64:79:7d:dc:46:e6:2f:6e:06:
         b8:0f:7a:17:8f:27:af:ed:37:a9:c8:bf:0e:c8:56:cf:db:2e:
         32:7f:e8:bf:f9:0e:95:32:ea:37:a9:95:7e:ce:d1:d5:39:a7:
         3f:5a:20:4e:a5:8a:92:43:7e:3f:c0:ae:fb:35:2e:d0:80:eb:
         e1:37:7b:a9:dc:f3:27:3a:54:1a:8a:de:e7:74:24:cd:ca:3d:
         bf:85:71:a6
-----BEGIN CERTIFICATE-----
MIIDXTCCAkWgAwIBAgIRALTYgj4mOSStUYCDjPzyswgwDQYJKoZIhvcNAQELBQAw
FjEUMBIGA1UEAwwLdGVhbTcxMy1uZXQwHhcNMjEwOTEzMDUzMDM2WhcNMjQwODI4
MDUzMDM2WjAZMRcwFQYDVQQDDA50ZWFtNzEzLWNsaWVudDCCASIwDQYJKoZIhvcN
AQEBBQADggEPADCCAQoCggEBANBCzTmlMP/ycug5/fGt7x+YUqC1HtJLMf3Sp/c3
mm3WyN3x5xdNz5Dizaznv2rE3t9dyJ7VOUBX/ZIUJAQsTCiBHtN1szJKUHiROS3S
Z9TDqwfVe4dD0XJr2YKEKiTy0/cGIjpXillDjMWvZnXKyH+/cMLXhCWCW0T3Y5+C
KU92i4NrQklYzVv3iwBweT04htQTXe6Re+WsMd385cnTGRXTugCtIJfdUzTflkFJ
1dWz+4NNoxW01ToilLODf3Mzj9qo7bd1EX+rXqf+qGlvrt6zKJJumLTlOyaqSSN3
aEDL906+LRy+0JrGzf3EeRoHOmbOclUm4m9+GiHPAwUn4NMCAwEAAaOBojCBnzAJ
BgNVHRMEAjAAMB0GA1UdDgQWBBRL+/F0cY8TPOID5M+fRpFHDA4nzzBRBgNVHSME
SjBIgBQkWvD9M4rbr39vn8k2tb9VC1HfG6EapBgwFjEUMBIGA1UEAwwLdGVhbTcx
My1uZXSCFFSJ+ax+3J1j0Ch5S84CNVHoj2bQMBMGA1UdJQQMMAoGCCsGAQUFBwMC
MAsGA1UdDwQEAwIHgDANBgkqhkiG9w0BAQsFAAOCAQEAcGG3kI9jr1BqI3hiNsn3
aDlAA0F1WBG978ZVDs+D9MrOAk6Lh8bOVsL3NP+SCDrB9XRX6EABxXO4ntxClPKU
NwxUc1Wn0VadBmevuDpUa6k6zEaiHj7JPBBmi2SxcQ44oxMvjj6ksA8dTqWlRYtk
MO3PI37DQSXK4Ln4pltnmvPLUq4H5b2xHF3oPcL74uiXV/xXYszmzzqVZwd6PKVV
ixM1HbffUYgqAZiQZHl93EbmL24GuA96F48nr+03qci/DshWz9suMn/ov/kOlTLq
N6mVfs7R1TmnP1ogTqWKkkN+P8Cu+zUu0IDr4Td7qdzzJzpUGore53Qkzco9v4Vx
pg==
-----END CERTIFICATE-----
