Certificate:
    Data:
        Version: 3 (0x2)
        Serial Number:
            db:72:30:c2:04:99:3e:13:c4:38:59:23:af:49:ac:1d
        Signature Algorithm: sha256WithRSAEncryption
        Issuer: CN=team713-net
        Validity
            Not Before: Sep 13 05:30:36 2021 GMT
            Not After : Aug 28 05:30:36 2024 GMT
        Subject: CN=team713-server
        Subject Public Key Info:
            Public Key Algorithm: rsaEncryption
                RSA Public-Key: (2048 bit)
                Modulus:
                    00:a7:f5:8b:98:e7:90:dd:60:09:48:ed:ef:df:42:
                    9d:ed:62:36:b9:2f:e0:2c:f5:46:1e:4e:3d:08:3a:
                    64:e4:38:06:8b:87:4c:a8:f9:4c:f2:c8:a7:d1:e2:
                    ac:69:f4:3b:95:c9:10:29:d0:fd:97:32:5d:2f:24:
                    57:db:14:a6:3e:37:f1:0d:85:19:f1:30:24:4d:4f:
                    6e:d0:70:0f:04:ff:c5:ed:76:d5:d0:da:b8:53:aa:
                    c1:15:00:79:fa:1b:5b:04:70:91:88:93:25:1f:a4:
                    9e:d9:4a:7f:71:86:8e:eb:a9:74:9c:d5:f7:b5:ba:
                    32:d4:e4:f7:54:e7:a3:0b:b8:fe:80:ab:3c:5e:a1:
                    49:dd:19:3e:dd:f3:a2:8e:60:9b:e0:a4:b3:f2:28:
                    3c:84:d1:7e:c4:52:72:ce:8f:ca:09:0b:e2:3d:b3:
                    25:0c:37:c0:58:aa:a6:a1:70:92:24:90:e5:a3:38:
                    75:c8:fb:50:39:34:52:4f:56:e9:b3:f7:83:60:d3:
                    31:b2:ee:49:53:af:33:dc:ad:9a:43:de:ac:1f:92:
                    0a:e1:a0:41:15:d3:64:1a:de:4b:b8:68:cd:55:ff:
                    67:7b:3a:42:91:ce:7f:29:a2:78:d2:27:32:26:7c:
                    9d:a6:49:2e:3b:e8:73:61:ed:41:10:e0:12:89:b1:
                    c7:9b
                Exponent: 65537 (0x10001)
        X509v3 extensions:
            X509v3 Basic Constraints: 
                CA:FALSE
            X509v3 Subject Key Identifier: 
                E0:A3:67:C1:7D:D7:7E:9B:C5:A9:78:66:93:94:8B:F3:62:94:AE:28
            X509v3 Authority Key Identifier: 
                keyid:24:5A:F0:FD:33:8A:DB:AF:7F:6F:9F:C9:36:B5:BF:55:0B:51:DF:1B
                DirName:/CN=team713-net
                serial:54:89:F9:AC:7E:DC:9D:63:D0:28:79:4B:CE:02:35:51:E8:8F:66:D0

            X509v3 Extended Key Usage: 
                TLS Web Server Authentication
            X509v3 Key Usage: 
                Digital Signature, Key Encipherment
            X509v3 Subject Alternative Name: 
                DNS:team713-server
    Signature Algorithm: sha256WithRSAEncryption
         3a:75:c7:71:33:21:3d:4d:26:e6:42:d3:31:8a:16:a9:46:ea:
         c7:1b:06:c8:6e:a2:b7:10:a9:e1:b4:cd:74:01:e0:a9:8a:ec:
         c3:42:19:38:27:28:df:99:3c:37:51:0c:04:50:0a:51:8e:55:
         60:ec:62:63:16:d8:dd:ff:2b:32:c2:99:0b:b4:a8:f4:eb:76:
         5c:c0:13:6b:cd:04:ac:00:8a:da:d6:ae:de:4c:b3:f6:95:a3:
         9d:3d:b5:73:d5:49:0e:a9:cc:8d:0f:5c:59:e8:73:d2:4a:da:
         c5:e4:ed:71:bc:f1:ba:8f:15:be:9d:99:7a:1f:8b:26:25:df:
         2f:de:40:e5:93:c3:79:fa:0d:5c:ef:50:3b:8b:82:44:93:f4:
         29:62:cb:3e:19:ed:53:64:72:46:b6:ef:dc:fa:82:37:9e:39:
         38:5d:34:83:d9:42:3e:a2:55:d6:75:b5:fb:12:6c:02:8a:4a:
         2a:87:45:db:0a:54:22:c0:6b:3b:27:99:35:8a:53:7e:8c:64:
         b8:90:d4:bc:c2:8c:d2:c7:11:6a:03:dd:60:b4:e7:e2:39:db:
         d5:89:74:69:98:5e:a7:7a:40:74:9e:d7:5a:8d:27:59:a8:f8:
         2b:ed:3f:d6:d5:27:48:df:1f:9c:d7:8e:17:8f:6c:6e:8b:96:
         6c:ca:b5:95
-----BEGIN CERTIFICATE-----
MIIDeDCCAmCgAwIBAgIRANtyMMIEmT4TxDhZI69JrB0wDQYJKoZIhvcNAQELBQAw
FjEUMBIGA1UEAwwLdGVhbTcxMy1uZXQwHhcNMjEwOTEzMDUzMDM2WhcNMjQwODI4
MDUzMDM2WjAZMRcwFQYDVQQDDA50ZWFtNzEzLXNlcnZlcjCCASIwDQYJKoZIhvcN
AQEBBQADggEPADCCAQoCggEBAKf1i5jnkN1gCUjt799Cne1iNrkv4Cz1Rh5OPQg6
ZOQ4BouHTKj5TPLIp9HirGn0O5XJECnQ/ZcyXS8kV9sUpj438Q2FGfEwJE1PbtBw
DwT/xe121dDauFOqwRUAefobWwRwkYiTJR+kntlKf3GGjuupdJzV97W6MtTk91Tn
owu4/oCrPF6hSd0ZPt3zoo5gm+Cks/IoPITRfsRScs6PygkL4j2zJQw3wFiqpqFw
kiSQ5aM4dcj7UDk0Uk9W6bP3g2DTMbLuSVOvM9ytmkPerB+SCuGgQRXTZBreS7ho
zVX/Z3s6QpHOfymieNInMiZ8naZJLjvoc2HtQRDgEomxx5sCAwEAAaOBvTCBujAJ
BgNVHRMEAjAAMB0GA1UdDgQWBBTgo2fBfdd+m8WpeGaTlIvzYpSuKDBRBgNVHSME
SjBIgBQkWvD9M4rbr39vn8k2tb9VC1HfG6EapBgwFjEUMBIGA1UEAwwLdGVhbTcx
My1uZXSCFFSJ+ax+3J1j0Ch5S84CNVHoj2bQMBMGA1UdJQQMMAoGCCsGAQUFBwMB
MAsGA1UdDwQEAwIFoDAZBgNVHREEEjAQgg50ZWFtNzEzLXNlcnZlcjANBgkqhkiG
9w0BAQsFAAOCAQEAOnXHcTMhPU0m5kLTMYoWqUbqxxsGyG6itxCp4bTNdAHgqYrs
w0IZOCco35k8N1EMBFAKUY5VYOxiYxbY3f8rMsKZC7So9Ot2XMATa80ErACK2tau
3kyz9pWjnT21c9VJDqnMjQ9cWehz0kraxeTtcbzxuo8Vvp2Zeh+LJiXfL95A5ZPD
efoNXO9QO4uCRJP0KWLLPhntU2RyRrbv3PqCN545OF00g9lCPqJV1nW1+xJsAopK
KodF2wpUIsBrOyeZNYpTfoxkuJDUvMKM0scRagPdYLTn4jnb1Yl0aZhep3pAdJ7X
Wo0nWaj4K+0/1tUnSN8fnNeOF49sbouWbMq1lQ==
-----END CERTIFICATE-----
