Certificate:
    Data:
        Version: 3 (0x2)
        Serial Number:
            ca:9c:16:32:16:2a:78:00:e4:04:2b:b3:7d:36:d2:69
        Signature Algorithm: sha256WithRSAEncryption
        Issuer: CN=team198-net
        Validity
            Not Before: Sep 13 00:35:20 2021 GMT
            Not After : Aug 28 00:35:20 2024 GMT
        Subject: CN=team198-server
        Subject Public Key Info:
            Public Key Algorithm: rsaEncryption
                RSA Public-Key: (2048 bit)
                Modulus:
                    00:b5:b0:bc:97:9f:48:bd:fc:01:64:c4:c6:ad:6d:
                    13:2f:bc:1f:88:fe:f1:32:11:cc:9a:8c:f6:d1:43:
                    b4:fd:e1:25:ab:b3:6a:fb:76:c7:c4:0e:90:19:fb:
                    44:26:b1:f9:27:c2:71:63:59:14:3d:1f:1e:4b:eb:
                    07:e8:48:1c:0a:4b:34:46:4d:4f:c6:3e:63:fb:dd:
                    80:21:5e:57:55:a1:1f:81:cd:0c:97:b7:be:ba:75:
                    88:84:b7:b8:d2:6b:6d:8a:4b:df:e7:89:26:83:ac:
                    8e:72:d9:47:5e:e8:81:9b:9a:06:af:90:5e:9f:da:
                    6f:40:93:a0:ee:a6:87:ce:67:44:ab:3c:df:11:33:
                    b9:5e:70:1a:f2:6e:b9:67:72:0e:bc:29:01:bb:47:
                    ca:fb:5e:22:43:08:ac:59:f5:46:e9:f3:2e:53:44:
                    55:7b:aa:ed:15:b1:6d:84:2d:12:05:82:24:86:41:
                    94:e9:c2:7b:3a:31:0b:67:43:62:1c:9b:c3:f1:e6:
                    81:4b:c5:9a:cf:e2:38:eb:5c:d7:8f:17:a6:20:12:
                    43:da:ab:9d:2c:85:47:5b:34:de:6c:ea:d2:00:2a:
                    4f:63:53:16:90:55:63:a1:05:3a:1c:11:be:12:ca:
                    97:f9:ab:aa:bd:cf:df:9e:9a:68:af:0c:ec:b9:96:
                    bc:79
                Exponent: 65537 (0x10001)
        X509v3 extensions:
            X509v3 Basic Constraints: 
                CA:FALSE
            X509v3 Subject Key Identifier: 
                10:7E:10:82:35:3B:24:06:88:66:01:84:DA:8B:9D:FB:46:5E:90:0F
            X509v3 Authority Key Identifier: 
                keyid:9E:11:F3:7E:ED:D5:8E:2C:F8:61:10:45:FF:30:E8:F3:B6:17:E2:96
                DirName:/CN=team198-net
                serial:34:16:31:D1:9E:A4:F1:39:E6:A1:CC:B4:37:AE:51:A2:59:E3:7E:CD

            X509v3 Extended Key Usage: 
                TLS Web Server Authentication
            X509v3 Key Usage: 
                Digital Signature, Key Encipherment
            X509v3 Subject Alternative Name: 
                DNS:team198-server
    Signature Algorithm: sha256WithRSAEncryption
         1f:8a:88:cf:ea:1b:30:67:a3:af:cc:f3:c0:67:04:0a:f3:85:
         20:77:bb:a8:6f:fe:3d:22:d6:15:6f:52:c0:f0:da:86:7f:57:
         95:94:76:15:bd:23:51:01:b6:15:49:f3:33:84:6f:3e:49:1f:
         9c:8b:b8:63:74:94:26:f7:91:c9:5b:22:8f:e8:f4:aa:d6:78:
         f5:c8:96:f6:bb:70:0f:5f:b6:24:d5:04:cc:28:06:7f:a9:d1:
         5b:89:e6:68:19:60:fe:ff:d7:bb:4a:62:cd:d7:f3:7b:18:e6:
         55:67:73:18:b4:f8:53:8f:e3:e7:d7:d3:11:63:9f:d0:a4:dd:
         bc:2b:56:b2:fc:d8:98:6a:f1:11:4e:c2:40:ea:b3:53:40:65:
         4a:ab:bc:fe:6b:a0:91:1b:ed:4e:52:a7:a9:a5:0a:83:9f:dc:
         46:88:7e:e9:c2:96:cc:6a:9b:05:89:f7:cb:82:f7:37:c2:60:
         04:91:50:d1:09:01:f6:a8:3c:1f:06:80:65:d2:a4:55:e2:6d:
         72:61:a6:90:27:79:c4:db:60:8f:07:2b:bd:b7:1f:a9:84:62:
         91:d6:40:94:f6:b0:53:21:c8:93:af:67:b5:c6:95:1c:ff:b5:
         a5:48:3f:5c:4d:ed:e6:46:74:75:39:d2:dd:f0:35:df:40:06:
         e1:a8:17:b7
-----BEGIN CERTIFICATE-----
MIIDeDCCAmCgAwIBAgIRAMqcFjIWKngA5AQrs3020mkwDQYJKoZIhvcNAQELBQAw
FjEUMBIGA1UEAwwLdGVhbTE5OC1uZXQwHhcNMjEwOTEzMDAzNTIwWhcNMjQwODI4
MDAzNTIwWjAZMRcwFQYDVQQDDA50ZWFtMTk4LXNlcnZlcjCCASIwDQYJKoZIhvcN
AQEBBQADggEPADCCAQoCggEBALWwvJefSL38AWTExq1tEy+8H4j+8TIRzJqM9tFD
tP3hJauzavt2x8QOkBn7RCax+SfCcWNZFD0fHkvrB+hIHApLNEZNT8Y+Y/vdgCFe
V1WhH4HNDJe3vrp1iIS3uNJrbYpL3+eJJoOsjnLZR17ogZuaBq+QXp/ab0CToO6m
h85nRKs83xEzuV5wGvJuuWdyDrwpAbtHyvteIkMIrFn1RunzLlNEVXuq7RWxbYQt
EgWCJIZBlOnCezoxC2dDYhybw/HmgUvFms/iOOtc148XpiASQ9qrnSyFR1s03mzq
0gAqT2NTFpBVY6EFOhwRvhLKl/mrqr3P356aaK8M7LmWvHkCAwEAAaOBvTCBujAJ
BgNVHRMEAjAAMB0GA1UdDgQWBBQQfhCCNTskBohmAYTai537Rl6QDzBRBgNVHSME
SjBIgBSeEfN+7dWOLPhhEEX/MOjzthfilqEapBgwFjEUMBIGA1UEAwwLdGVhbTE5
OC1uZXSCFDQWMdGepPE55qHMtDeuUaJZ437NMBMGA1UdJQQMMAoGCCsGAQUFBwMB
MAsGA1UdDwQEAwIFoDAZBgNVHREEEjAQgg50ZWFtMTk4LXNlcnZlcjANBgkqhkiG
9w0BAQsFAAOCAQEAH4qIz+obMGejr8zzwGcECvOFIHe7qG/+PSLWFW9SwPDahn9X
lZR2Fb0jUQG2FUnzM4RvPkkfnIu4Y3SUJveRyVsij+j0qtZ49ciW9rtwD1+2JNUE
zCgGf6nRW4nmaBlg/v/Xu0pizdfzexjmVWdzGLT4U4/j59fTEWOf0KTdvCtWsvzY
mGrxEU7CQOqzU0BlSqu8/mugkRvtTlKnqaUKg5/cRoh+6cKWzGqbBYn3y4L3N8Jg
BJFQ0QkB9qg8HwaAZdKkVeJtcmGmkCd5xNtgjwcrvbcfqYRikdZAlPawUyHIk69n
tcaVHP+1pUg/XE3t5kZ0dTnS3fA130AG4agXtw==
-----END CERTIFICATE-----
