Certificate:
    Data:
        Version: 3 (0x2)
        Serial Number:
            06:fc:a6:d1:af:62:e8:46:5e:63:c9:54:a7:76:3c:b2
        Signature Algorithm: sha256WithRSAEncryption
        Issuer: CN=team161-net
        Validity
            Not Before: Sep 13 00:20:41 2021 GMT
            Not After : Aug 28 00:20:41 2024 GMT
        Subject: CN=team161-server
        Subject Public Key Info:
            Public Key Algorithm: rsaEncryption
                RSA Public-Key: (2048 bit)
                Modulus:
                    00:ad:6b:2d:e4:ee:12:d1:65:22:50:29:06:5a:75:
                    df:26:01:89:26:e1:25:73:6f:b7:bb:df:f9:c6:b4:
                    61:8c:05:b0:80:03:10:7e:c3:13:3c:fe:fc:dc:8b:
                    bf:43:6d:09:86:0b:52:6f:2c:9f:53:db:f3:ff:78:
                    0b:5b:47:90:8c:1e:5e:58:7a:91:59:b2:62:57:90:
                    2f:bf:8d:60:4c:1b:58:ff:1d:e7:fa:30:d1:20:c5:
                    17:b6:c5:f0:c0:cc:a4:86:8b:9d:8f:d4:74:c7:57:
                    a8:6b:f2:65:53:9f:5b:07:ae:ad:53:0b:f6:59:df:
                    ee:15:c9:c3:e5:9e:e8:97:17:e9:92:0e:1f:70:c1:
                    42:8a:4a:1c:20:e1:e9:a4:90:91:5e:bc:8d:2f:37:
                    07:eb:f2:2c:c6:5e:f1:e8:9c:aa:4e:a7:5b:df:91:
                    70:1e:1f:cf:cc:66:0c:56:5f:7b:ac:7c:83:c1:62:
                    be:60:a6:2e:0c:98:4f:a5:b8:03:e6:92:cd:00:15:
                    4e:89:20:85:55:e1:f2:5c:82:a3:dc:e9:bf:3b:af:
                    be:31:5c:3d:29:89:f1:4e:a9:5a:ea:0f:9f:56:c6:
                    91:14:20:92:e5:34:f6:35:6e:fc:7a:7e:7a:a8:3e:
                    cf:7b:92:6e:b9:42:3c:fa:fc:08:05:25:33:b5:4e:
                    2c:5d
                Exponent: 65537 (0x10001)
        X509v3 extensions:
            X509v3 Basic Constraints: 
                CA:FALSE
            X509v3 Subject Key Identifier: 
                12:04:70:68:9A:48:74:EF:F6:1D:0B:E2:3F:FC:2E:43:F6:D1:B3:56
            X509v3 Authority Key Identifier: 
                keyid:C0:B4:D2:6F:BC:58:70:FE:92:E5:96:EB:5E:40:37:88:BE:07:C0:41
                DirName:/CN=team161-net
                serial:45:B1:1F:B8:4F:B7:CF:6F:5D:CE:AA:4A:3E:D5:47:31:C0:4A:46:A0

            X509v3 Extended Key Usage: 
                TLS Web Server Authentication
            X509v3 Key Usage: 
                Digital Signature, Key Encipherment
            X509v3 Subject Alternative Name: 
                DNS:team161-server
    Signature Algorithm: sha256WithRSAEncryption
         c4:32:23:85:29:41:d1:2f:64:12:66:eb:e6:4c:d8:fb:e8:e2:
         2b:c2:bc:4a:2f:f5:7f:c8:5e:4a:c8:94:52:ae:1e:e2:e6:4a:
         73:9f:e2:c1:b1:7b:86:50:b9:7c:6b:46:de:12:a4:53:75:54:
         54:ad:da:36:96:75:38:55:63:9c:8b:1c:6d:29:11:54:1e:97:
         98:3b:87:e2:2d:a9:9a:fa:fb:29:84:f6:b8:9a:39:6b:30:51:
         2b:d7:32:3b:9f:c2:30:9f:93:af:e4:91:ba:41:db:d5:db:e1:
         c6:63:7a:8f:ea:65:4d:fd:19:1f:88:26:06:27:d0:d8:f9:52:
         b4:72:14:1e:1d:39:77:74:c4:1d:3d:79:9c:80:a7:f1:d1:11:
         c3:0a:34:5a:ae:fa:7e:70:f4:87:20:99:8c:5c:d3:44:62:87:
         4c:87:f4:58:2f:8e:22:3f:a2:bd:55:8a:b7:e2:71:78:e0:a4:
         eb:05:ac:fc:7d:c5:0a:f3:cf:6a:bc:8c:2f:4a:c8:0f:40:e5:
         5c:09:b4:18:f2:e2:2a:e9:5a:95:9e:1a:65:85:2a:57:79:c2:
         5b:91:57:be:53:ab:9c:d8:7f:2a:76:74:8f:8f:94:19:a0:8d:
         88:37:d9:c0:7f:59:c6:be:37:7c:22:a1:30:62:3b:cc:50:2c:
         b2:8b:df:54
-----BEGIN CERTIFICATE-----
MIIDdzCCAl+gAwIBAgIQBvym0a9i6EZeY8lUp3Y8sjANBgkqhkiG9w0BAQsFADAW
MRQwEgYDVQQDDAt0ZWFtMTYxLW5ldDAeFw0yMTA5MTMwMDIwNDFaFw0yNDA4Mjgw
MDIwNDFaMBkxFzAVBgNVBAMMDnRlYW0xNjEtc2VydmVyMIIBIjANBgkqhkiG9w0B
AQEFAAOCAQ8AMIIBCgKCAQEArWst5O4S0WUiUCkGWnXfJgGJJuElc2+3u9/5xrRh
jAWwgAMQfsMTPP783Iu/Q20JhgtSbyyfU9vz/3gLW0eQjB5eWHqRWbJiV5Avv41g
TBtY/x3n+jDRIMUXtsXwwMykhoudj9R0x1eoa/JlU59bB66tUwv2Wd/uFcnD5Z7o
lxfpkg4fcMFCikocIOHppJCRXryNLzcH6/Isxl7x6JyqTqdb35FwHh/PzGYMVl97
rHyDwWK+YKYuDJhPpbgD5pLNABVOiSCFVeHyXIKj3Om/O6++MVw9KYnxTqla6g+f
VsaRFCCS5TT2NW78en56qD7Pe5JuuUI8+vwIBSUztU4sXQIDAQABo4G9MIG6MAkG
A1UdEwQCMAAwHQYDVR0OBBYEFBIEcGiaSHTv9h0L4j/8LkP20bNWMFEGA1UdIwRK
MEiAFMC00m+8WHD+kuWW615AN4i+B8BBoRqkGDAWMRQwEgYDVQQDDAt0ZWFtMTYx
LW5ldIIURbEfuE+3z29dzqpKPtVHMcBKRqAwEwYDVR0lBAwwCgYIKwYBBQUHAwEw
CwYDVR0PBAQDAgWgMBkGA1UdEQQSMBCCDnRlYW0xNjEtc2VydmVyMA0GCSqGSIb3
DQEBCwUAA4IBAQDEMiOFKUHRL2QSZuvmTNj76OIrwrxKL/V/yF5KyJRSrh7i5kpz
n+LBsXuGULl8a0beEqRTdVRUrdo2lnU4VWOcixxtKRFUHpeYO4fiLama+vsphPa4
mjlrMFEr1zI7n8Iwn5Ov5JG6QdvV2+HGY3qP6mVN/RkfiCYGJ9DY+VK0chQeHTl3
dMQdPXmcgKfx0RHDCjRarvp+cPSHIJmMXNNEYodMh/RYL44iP6K9VYq34nF44KTr
Baz8fcUK889qvIwvSsgPQOVcCbQY8uIq6VqVnhplhSpXecJbkVe+U6uc2H8qdnSP
j5QZoI2IN9nAf1nGvjd8IqEwYjvMUCyyi99U
-----END CERTIFICATE-----
