Certificate:
    Data:
        Version: 3 (0x2)
        Serial Number:
            80:71:fe:55:57:ea:1f:00:08:65:1e:87:09:9e:29:50
        Signature Algorithm: sha256WithRSAEncryption
        Issuer: CN=team553-net
        Validity
            Not Before: Sep 13 03:49:04 2021 GMT
            Not After : Aug 28 03:49:04 2024 GMT
        Subject: CN=team553-server
        Subject Public Key Info:
            Public Key Algorithm: rsaEncryption
                RSA Public-Key: (2048 bit)
                Modulus:
                    00:ca:30:c3:79:5f:4e:99:34:31:05:9a:da:75:c0:
                    bc:f8:c5:54:5b:16:13:b6:c5:53:50:c0:6c:0e:66:
                    7e:43:76:43:ba:0f:fe:12:6e:3d:5f:d4:df:e2:08:
                    20:8c:dc:b5:6c:e4:41:6f:4d:ff:b9:62:74:15:c7:
                    12:3c:f9:45:23:af:c7:5b:49:63:ef:16:d9:d9:48:
                    e2:16:92:dc:b6:a1:4f:9a:8b:a8:26:86:04:65:1b:
                    97:99:84:26:59:46:87:49:4e:89:48:30:72:79:6e:
                    b2:d1:01:f3:d9:42:77:a2:93:91:da:8c:19:76:44:
                    bb:31:db:b0:61:e6:de:36:36:19:4e:93:fe:96:93:
                    21:5b:9b:7d:80:c0:d2:d6:96:67:81:37:6c:22:3a:
                    a8:29:e4:80:6a:d3:a9:65:71:9a:64:3e:8d:b3:bc:
                    13:4a:10:68:db:2b:4d:f4:7c:5b:38:59:11:b8:e6:
                    63:fe:61:29:b1:05:4f:9f:28:70:7b:6b:99:ed:2d:
                    d1:5f:05:a1:ff:24:32:74:4f:91:b7:f7:6e:3a:7d:
                    c5:d1:20:71:0a:70:e2:7c:85:af:8d:82:5c:b2:cf:
                    d6:1a:51:8b:93:6c:8c:30:a2:21:1e:ad:91:ed:f5:
                    8e:1e:5c:e3:d8:43:61:f3:08:07:05:01:02:04:9d:
                    5b:31
                Exponent: 65537 (0x10001)
        X509v3 extensions:
            X509v3 Basic Constraints: 
                CA:FALSE
            X509v3 Subject Key Identifier: 
                2E:22:0C:E3:43:FB:16:5D:6F:39:4A:E7:FC:C6:EF:26:59:21:26:A8
            X509v3 Authority Key Identifier: 
                keyid:32:CC:97:A8:DC:32:77:02:AB:D2:EB:7B:D7:27:92:A7:16:E7:A9:B5
                DirName:/CN=team553-net
                serial:64:CA:4D:DC:2A:2B:3A:DF:80:B2:C4:2F:C5:0C:A7:05:92:6A:0A:E6

            X509v3 Extended Key Usage: 
                TLS Web Server Authentication
            X509v3 Key Usage: 
                Digital Signature, Key Encipherment
            X509v3 Subject Alternative Name: 
                DNS:team553-server
    Signature Algorithm: sha256WithRSAEncryption
         4d:6a:48:5a:d0:b9:72:14:02:f1:91:60:6c:c3:e5:19:46:36:
         7f:d1:09:0e:cd:e0:9c:4e:de:95:55:99:0c:01:bb:a2:4f:0b:
         67:c9:d4:38:de:fd:c3:74:ea:70:eb:ff:c6:77:2f:c9:f9:80:
         4c:a6:25:fb:3b:f5:f9:dc:5c:eb:85:54:10:09:2a:bc:cb:d2:
         e7:14:8e:1d:8a:b2:38:c6:87:3d:58:23:f7:d3:ad:c6:70:3a:
         71:d4:f2:d0:cb:a2:ce:12:31:8f:26:95:6c:00:ce:6b:16:d2:
         01:00:17:e1:9f:19:af:6d:9f:d9:51:09:41:39:36:f0:c1:dd:
         fa:c6:b2:b3:03:c2:76:eb:1a:6c:41:b7:ac:cb:c5:09:39:5b:
         24:f9:09:03:fe:91:7f:c3:6f:db:51:e0:90:32:d0:3b:86:65:
         80:79:39:c5:c2:5d:91:d2:97:c4:ae:a2:b0:90:61:77:02:69:
         98:b8:1f:55:f0:f2:e8:7b:5e:a8:8e:29:7e:a1:0d:f0:99:1d:
         9a:8c:03:fa:72:96:25:90:9b:39:98:85:77:ee:7d:8a:2f:cf:
         bc:a0:31:ad:23:da:ba:85:d0:26:c9:3e:d4:92:0e:e1:ed:0f:
         86:4a:81:f7:77:36:38:08:0e:29:48:a9:96:00:a8:07:c0:95:
         d6:91:23:06
-----BEGIN CERTIFICATE-----
MIIDeDCCAmCgAwIBAgIRAIBx/lVX6h8ACGUehwmeKVAwDQYJKoZIhvcNAQELBQAw
FjEUMBIGA1UEAwwLdGVhbTU1My1uZXQwHhcNMjEwOTEzMDM0OTA0WhcNMjQwODI4
MDM0OTA0WjAZMRcwFQYDVQQDDA50ZWFtNTUzLXNlcnZlcjCCASIwDQYJKoZIhvcN
AQEBBQADggEPADCCAQoCggEBAMoww3lfTpk0MQWa2nXAvPjFVFsWE7bFU1DAbA5m
fkN2Q7oP/hJuPV/U3+IIIIzctWzkQW9N/7lidBXHEjz5RSOvx1tJY+8W2dlI4haS
3LahT5qLqCaGBGUbl5mEJllGh0lOiUgwcnlustEB89lCd6KTkdqMGXZEuzHbsGHm
3jY2GU6T/paTIVubfYDA0taWZ4E3bCI6qCnkgGrTqWVxmmQ+jbO8E0oQaNsrTfR8
WzhZEbjmY/5hKbEFT58ocHtrme0t0V8Fof8kMnRPkbf3bjp9xdEgcQpw4nyFr42C
XLLP1hpRi5NsjDCiIR6tke31jh5c49hDYfMIBwUBAgSdWzECAwEAAaOBvTCBujAJ
BgNVHRMEAjAAMB0GA1UdDgQWBBQuIgzjQ/sWXW85Suf8xu8mWSEmqDBRBgNVHSME
SjBIgBQyzJeo3DJ3AqvS63vXJ5KnFueptaEapBgwFjEUMBIGA1UEAwwLdGVhbTU1
My1uZXSCFGTKTdwqKzrfgLLEL8UMpwWSagrmMBMGA1UdJQQMMAoGCCsGAQUFBwMB
MAsGA1UdDwQEAwIFoDAZBgNVHREEEjAQgg50ZWFtNTUzLXNlcnZlcjANBgkqhkiG
9w0BAQsFAAOCAQEATWpIWtC5chQC8ZFgbMPlGUY2f9EJDs3gnE7elVWZDAG7ok8L
Z8nUON79w3TqcOv/xncvyfmATKYl+zv1+dxc64VUEAkqvMvS5xSOHYqyOMaHPVgj
99OtxnA6cdTy0MuizhIxjyaVbADOaxbSAQAX4Z8Zr22f2VEJQTk28MHd+sayswPC
dusabEG3rMvFCTlbJPkJA/6Rf8Nv21HgkDLQO4ZlgHk5xcJdkdKXxK6isJBhdwJp
mLgfVfDy6HteqI4pfqEN8JkdmowD+nKWJZCbOZiFd+59ii/PvKAxrSPauoXQJsk+
1JIO4e0PhkqB93c2OAgOKUiplgCoB8CV1pEjBg==
-----END CERTIFICATE-----
