Certificate:
    Data:
        Version: 3 (0x2)
        Serial Number:
            e5:36:f6:24:64:e6:10:ac:35:77:e6:f7:19:6e:24:93
        Signature Algorithm: sha256WithRSAEncryption
        Issuer: CN=team95-net
        Validity
            Not Before: Sep 12 23:34:46 2021 GMT
            Not After : Aug 27 23:34:46 2024 GMT
        Subject: CN=team95-client
        Subject Public Key Info:
            Public Key Algorithm: rsaEncryption
                RSA Public-Key: (2048 bit)
                Modulus:
                    00:dd:10:98:59:c7:17:26:e7:cb:7e:e7:0d:ed:25:
                    40:f2:56:08:d0:b5:b1:0f:ed:17:7f:f4:34:8e:02:
                    86:7f:82:b9:52:63:c6:e2:f5:20:3f:43:a0:c8:c6:
                    39:47:72:a8:2d:3a:af:1c:22:15:12:89:2e:fd:e5:
                    bd:c0:ef:e4:52:4c:9b:4e:c7:93:b6:e2:93:db:88:
                    33:fc:5a:c0:12:63:d5:0b:c1:99:95:9f:dd:06:b3:
                    6a:ae:41:f0:d7:ce:b6:54:fc:01:26:25:5c:ad:36:
                    e4:b3:bf:e1:1c:89:39:9a:be:72:f1:a1:cd:b9:79:
                    e8:3d:33:0b:e9:40:2a:6b:5b:f6:a7:04:fc:f1:c7:
                    d9:34:93:13:38:e4:05:c3:4a:9e:09:b3:5d:ba:7d:
                    4d:e2:4c:33:6e:46:42:0f:55:1a:8e:66:c5:eb:f3:
                    4c:d2:f0:40:de:91:03:0e:6d:ca:e4:18:a1:a3:d7:
                    9a:03:87:b6:aa:b5:4f:7a:11:42:bf:65:60:4c:2f:
                    83:a5:c3:0b:b4:ca:5a:1e:b7:bd:b8:b1:e8:8c:6d:
                    05:86:5d:53:8d:b3:42:73:14:7f:8f:9c:27:53:9a:
                    69:45:82:f5:be:5d:90:12:83:03:93:e5:7b:8c:16:
                    93:59:dd:71:ff:87:20:50:cd:29:2b:2e:8f:de:05:
                    04:4b
                Exponent: 65537 (0x10001)
        X509v3 extensions:
            X509v3 Basic Constraints: 
                CA:FALSE
            X509v3 Subject Key Identifier: 
                A3:25:0B:3F:95:88:17:B8:69:98:A7:D6:D1:3B:55:9B:7C:4F:9C:18
            X509v3 Authority Key Identifier: 
                keyid:11:50:4F:A6:2A:E2:CB:F3:FC:DE:5A:00:A3:7E:C1:95:03:33:BC:D7
                DirName:/CN=team95-net
                serial:62:D3:E1:32:BC:F2:14:46:B7:AD:5D:8F:B5:97:60:68:71:A5:05:B3

            X509v3 Extended Key Usage: 
                TLS Web Client Authentication
            X509v3 Key Usage: 
                Digital Signature
    Signature Algorithm: sha256WithRSAEncryption
         01:03:ee:fd:69:6a:7a:16:5b:ea:c4:54:fd:86:c1:01:10:f8:
         45:20:a3:b3:e0:11:99:db:1a:ac:21:3d:58:c1:5c:37:fe:b7:
         22:de:3f:cb:4d:c6:f9:e4:27:a9:63:0c:f0:04:1b:4c:1a:cb:
         38:6b:28:28:ab:50:2a:5a:17:4b:f2:ee:f1:d3:75:c5:98:25:
         1d:46:c2:59:de:ff:d7:be:13:cd:05:73:9c:be:f8:43:dc:27:
         ac:f9:69:e4:f8:33:a6:e8:f0:ee:33:83:7e:f8:44:48:eb:e2:
         32:12:7c:6e:1c:7c:e5:52:89:1f:22:4c:d6:b4:c8:ea:61:18:
         e3:db:64:1f:49:fc:06:cc:3a:d6:07:78:05:88:1b:ce:ed:e3:
         02:82:de:22:59:80:3d:ed:54:9a:7a:39:23:08:0c:e9:ac:10:
         93:e8:a7:53:08:79:86:78:ad:66:94:90:c5:b8:77:5f:96:74:
         2e:72:ca:90:79:ff:60:e0:a6:e8:c2:f2:51:39:41:5c:4d:e3:
         36:5a:96:4f:a1:61:45:50:9e:4b:65:77:27:92:1a:dd:fb:06:
         a0:9a:ce:6c:61:9f:66:52:db:d2:83:40:c9:c8:1c:cf:32:ed:
         ff:8c:6f:7a:56:4b:6c:a4:ed:75:9c:b4:8b:3d:ae:6a:7a:82:
         9e:1b:2f:55
-----BEGIN CERTIFICATE-----
MIIDWjCCAkKgAwIBAgIRAOU29iRk5hCsNXfm9xluJJMwDQYJKoZIhvcNAQELBQAw
FTETMBEGA1UEAwwKdGVhbTk1LW5ldDAeFw0yMTA5MTIyMzM0NDZaFw0yNDA4Mjcy
MzM0NDZaMBgxFjAUBgNVBAMMDXRlYW05NS1jbGllbnQwggEiMA0GCSqGSIb3DQEB
AQUAA4IBDwAwggEKAoIBAQDdEJhZxxcm58t+5w3tJUDyVgjQtbEP7Rd/9DSOAoZ/
grlSY8bi9SA/Q6DIxjlHcqgtOq8cIhUSiS795b3A7+RSTJtOx5O24pPbiDP8WsAS
Y9ULwZmVn90Gs2quQfDXzrZU/AEmJVytNuSzv+EciTmavnLxoc25eeg9MwvpQCpr
W/anBPzxx9k0kxM45AXDSp4Js126fU3iTDNuRkIPVRqOZsXr80zS8EDekQMObcrk
GKGj15oDh7aqtU96EUK/ZWBML4Olwwu0yloet724seiMbQWGXVONs0JzFH+PnCdT
mmlFgvW+XZASgwOT5XuMFpNZ3XH/hyBQzSkrLo/eBQRLAgMBAAGjgaEwgZ4wCQYD
VR0TBAIwADAdBgNVHQ4EFgQUoyULP5WIF7hpmKfW0TtVm3xPnBgwUAYDVR0jBEkw
R4AUEVBPpiriy/P83loAo37BlQMzvNehGaQXMBUxEzARBgNVBAMMCnRlYW05NS1u
ZXSCFGLT4TK88hRGt61dj7WXYGhxpQWzMBMGA1UdJQQMMAoGCCsGAQUFBwMCMAsG
A1UdDwQEAwIHgDANBgkqhkiG9w0BAQsFAAOCAQEAAQPu/WlqehZb6sRU/YbBARD4
RSCjs+ARmdsarCE9WMFcN/63It4/y03G+eQnqWMM8AQbTBrLOGsoKKtQKloXS/Lu
8dN1xZglHUbCWd7/174TzQVznL74Q9wnrPlp5Pgzpujw7jODfvhESOviMhJ8bhx8
5VKJHyJM1rTI6mEY49tkH0n8Bsw61gd4BYgbzu3jAoLeIlmAPe1Umno5IwgM6awQ
k+inUwh5hnitZpSQxbh3X5Z0LnLKkHn/YOCm6MLyUTlBXE3jNlqWT6FhRVCeS2V3
J5Ia3fsGoJrObGGfZlLb0oNAycgczzLt/4xvelZLbKTtdZy0iz2uanqCnhsvVQ==
-----END CERTIFICATE-----
