Certificate:
    Data:
        Version: 3 (0x2)
        Serial Number:
            9a:3c:75:c9:82:cc:77:70:12:7d:9f:33:cb:b8:77:b0
        Signature Algorithm: sha256WithRSAEncryption
        Issuer: CN=team129-net
        Validity
            Not Before: Sep 12 23:51:43 2021 GMT
            Not After : Aug 27 23:51:43 2024 GMT
        Subject: CN=team129-client
        Subject Public Key Info:
            Public Key Algorithm: rsaEncryption
                RSA Public-Key: (2048 bit)
                Modulus:
                    00:db:70:ef:d1:2e:10:d4:e3:93:a6:18:b8:f6:0e:
                    94:80:6e:8e:3d:41:39:4b:48:d8:c1:f9:f4:b9:b4:
                    77:00:03:bd:0e:29:40:04:2a:be:88:d5:eb:05:34:
                    a8:6f:22:60:67:b6:10:9b:59:df:20:e0:49:87:18:
                    c2:9b:6b:52:5a:bf:f7:a7:5b:55:16:5e:b6:e1:a8:
                    88:d2:32:0c:3e:3d:d7:40:b7:7f:a2:5e:34:d0:60:
                    a1:85:54:32:29:a7:d6:7b:7e:92:dd:26:72:a5:1a:
                    3e:e0:7e:39:59:b4:52:f6:c9:e1:6b:41:e4:c6:22:
                    0f:d9:5c:24:5b:31:e7:f3:a7:92:e4:ef:a7:f2:36:
                    87:52:29:38:3e:56:0b:46:b7:db:ee:c2:e4:d2:f1:
                    a4:6c:27:c7:1e:9e:ea:52:e2:d3:99:65:14:6f:08:
                    ca:55:b1:b2:73:4d:d6:94:d4:85:ea:19:31:2b:66:
                    d3:8b:f8:91:1b:e3:25:ec:7a:06:3c:93:0e:ee:0b:
                    b1:cd:01:81:69:3e:0d:51:9c:54:fc:ef:42:e9:c1:
                    0a:1f:f2:73:ac:66:08:ed:5e:ab:35:2d:59:5d:cd:
                    0c:98:eb:cd:5a:fe:a8:c1:26:71:c4:e1:fa:5e:09:
                    5f:fa:2a:c8:0b:05:0d:2f:ae:0b:da:74:c7:39:a7:
                    46:f9
                Exponent: 65537 (0x10001)
        X509v3 extensions:
            X509v3 Basic Constraints: 
                CA:FALSE
            X509v3 Subject Key Identifier: 
                44:2F:A9:90:FC:A5:D9:C5:86:88:86:08:FA:94:AF:C3:C3:47:5B:44
            X509v3 Authority Key Identifier: 
                keyid:11:B8:A9:2A:EE:93:C1:AD:30:EA:79:23:69:5D:15:CD:D5:68:1B:EF
                DirName:/CN=team129-net
                serial:19:4E:D1:C8:6F:61:69:79:4D:D4:60:4E:DB:D9:5F:BE:B8:F7:3A:3B

            X509v3 Extended Key Usage: 
                TLS Web Client Authentication
            X509v3 Key Usage: 
                Digital Signature
    Signature Algorithm: sha256WithRSAEncryption
         14:23:53:24:b0:63:f8:cf:ad:25:21:b9:1f:9d:a7:57:7c:13:
         00:1b:1b:84:1c:42:b3:bb:5e:ad:20:b3:c1:d6:c5:b5:3b:82:
         9d:2d:35:7c:2b:b0:76:ff:2f:93:cc:0e:72:e2:9d:be:95:8c:
         67:f0:dd:51:2e:a3:56:a3:e9:d0:c6:ff:4f:d8:ef:65:93:f4:
         13:ac:d7:91:f4:21:31:35:26:91:6e:89:d6:a8:7d:61:20:77:
         a3:a7:ee:ef:a2:b1:c6:6d:1b:42:77:be:5d:d6:f9:27:c3:1a:
         5d:c0:ce:ed:96:c8:14:0c:9a:50:f2:8f:93:24:9a:25:e8:7d:
         25:f9:ef:5b:d7:eb:61:01:ec:70:3b:ca:cb:10:ee:34:38:da:
         92:ea:e6:a1:e9:13:01:3f:cf:c1:a4:83:fb:69:d1:b3:6c:48:
         3c:37:d0:b9:67:b2:d2:3e:93:2d:3b:a5:0a:cc:e8:f7:a4:fc:
         fc:0b:ab:c3:72:20:90:2e:44:4c:5d:1f:84:6d:c9:c1:1c:1f:
         d3:33:bc:48:00:2c:61:0a:99:24:a9:9e:29:84:37:83:e2:fd:
         7b:07:31:c6:33:a4:25:b8:96:c4:be:f6:73:8a:b2:9d:ca:04:
         76:96:f1:9e:6f:b2:38:fa:ae:ba:b0:3c:48:2a:8e:f4:31:d1:
         22:1a:81:87
-----BEGIN CERTIFICATE-----
MIIDXTCCAkWgAwIBAgIRAJo8dcmCzHdwEn2fM8u4d7AwDQYJKoZIhvcNAQELBQAw
FjEUMBIGA1UEAwwLdGVhbTEyOS1uZXQwHhcNMjEwOTEyMjM1MTQzWhcNMjQwODI3
MjM1MTQzWjAZMRcwFQYDVQQDDA50ZWFtMTI5LWNsaWVudDCCASIwDQYJKoZIhvcN
AQEBBQADggEPADCCAQoCggEBANtw79EuENTjk6YYuPYOlIBujj1BOUtI2MH59Lm0
dwADvQ4pQAQqvojV6wU0qG8iYGe2EJtZ3yDgSYcYwptrUlq/96dbVRZetuGoiNIy
DD4910C3f6JeNNBgoYVUMimn1nt+kt0mcqUaPuB+OVm0UvbJ4WtB5MYiD9lcJFsx
5/OnkuTvp/I2h1IpOD5WC0a32+7C5NLxpGwnxx6e6lLi05llFG8IylWxsnNN1pTU
heoZMStm04v4kRvjJex6BjyTDu4Lsc0BgWk+DVGcVPzvQunBCh/yc6xmCO1eqzUt
WV3NDJjrzVr+qMEmccTh+l4JX/oqyAsFDS+uC9p0xzmnRvkCAwEAAaOBojCBnzAJ
BgNVHRMEAjAAMB0GA1UdDgQWBBREL6mQ/KXZxYaIhgj6lK/Dw0dbRDBRBgNVHSME
SjBIgBQRuKkq7pPBrTDqeSNpXRXN1Wgb76EapBgwFjEUMBIGA1UEAwwLdGVhbTEy
OS1uZXSCFBlO0chvYWl5TdRgTtvZX7649zo7MBMGA1UdJQQMMAoGCCsGAQUFBwMC
MAsGA1UdDwQEAwIHgDANBgkqhkiG9w0BAQsFAAOCAQEAFCNTJLBj+M+tJSG5H52n
V3wTABsbhBxCs7terSCzwdbFtTuCnS01fCuwdv8vk8wOcuKdvpWMZ/DdUS6jVqPp
0Mb/T9jvZZP0E6zXkfQhMTUmkW6J1qh9YSB3o6fu76Kxxm0bQne+Xdb5J8MaXcDO
7ZbIFAyaUPKPkySaJeh9JfnvW9frYQHscDvKyxDuNDjakurmoekTAT/PwaSD+2nR
s2xIPDfQuWey0j6TLTulCszo96T8/Aurw3IgkC5ETF0fhG3JwRwf0zO8SAAsYQqZ
JKmeKYQ3g+L9ewcxxjOkJbiWxL72c4qyncoEdpbxnm+yOPquurA8SCqO9DHRIhqB
hw==
-----END CERTIFICATE-----
