Certificate:
    Data:
        Version: 3 (0x2)
        Serial Number:
            56:7b:65:01:c9:38:25:8c:d4:36:eb:e5:ac:7e:07:c9
        Signature Algorithm: sha256WithRSAEncryption
        Issuer: CN=team209-net
        Validity
            Not Before: Sep 13 00:31:45 2021 GMT
            Not After : Aug 28 00:31:45 2024 GMT
        Subject: CN=team209-server
        Subject Public Key Info:
            Public Key Algorithm: rsaEncryption
                RSA Public-Key: (2048 bit)
                Modulus:
                    00:b6:10:7e:6f:a4:5b:de:6e:ad:2a:eb:67:9d:ff:
                    d3:84:7e:e1:97:3c:61:52:3d:f8:78:f8:77:8d:55:
                    7c:5f:ef:d8:9e:b3:3e:7d:a0:4f:53:bc:8c:36:6d:
                    5d:0e:c2:00:62:03:34:f4:4a:34:77:bf:09:15:da:
                    57:f5:6e:9c:ea:31:34:d2:64:64:c6:f3:b9:4e:7d:
                    b7:7c:fa:9d:d5:34:43:c8:fd:db:3c:4a:90:39:dc:
                    c9:10:6c:48:ca:73:6a:3d:9b:25:78:40:77:87:c9:
                    02:6c:79:bf:2f:de:59:d7:ed:20:45:ed:da:b4:fa:
                    5c:2e:05:a8:20:5a:26:26:ac:5a:71:94:45:76:11:
                    c3:3a:2d:57:fe:e3:3d:a7:7b:eb:ac:6f:45:b8:3a:
                    1b:a3:cc:8a:18:53:67:71:74:19:2b:3f:21:3d:2e:
                    c0:dc:96:fb:06:19:c4:9e:93:d3:54:3d:72:b8:6e:
                    c9:19:64:86:ea:44:d8:51:63:19:18:af:df:54:bd:
                    e6:2e:66:80:67:a9:b2:b3:62:9e:c1:da:9e:18:59:
                    7d:26:1d:49:37:f7:ca:ff:a2:1b:ac:30:71:1b:75:
                    95:4c:23:72:6d:18:b5:27:2f:a7:de:b9:fe:23:53:
                    aa:10:00:9e:3f:91:b1:7c:bb:e8:ea:01:33:7a:dd:
                    a9:a1
                Exponent: 65537 (0x10001)
        X509v3 extensions:
            X509v3 Basic Constraints: 
                CA:FALSE
            X509v3 Subject Key Identifier: 
                79:4D:6F:3A:E3:4C:C4:10:D5:17:39:29:08:0D:3D:46:A2:3C:60:89
            X509v3 Authority Key Identifier: 
                keyid:DD:9B:5D:48:1B:68:27:EF:33:D1:6D:79:44:EE:39:40:8C:FF:A6:B6
                DirName:/CN=team209-net
                serial:2B:5A:2A:70:1A:23:4E:4B:A1:37:C9:57:21:46:A4:52:FB:58:40:D4

            X509v3 Extended Key Usage: 
                TLS Web Server Authentication
            X509v3 Key Usage: 
                Digital Signature, Key Encipherment
            X509v3 Subject Alternative Name: 
                DNS:team209-server
    Signature Algorithm: sha256WithRSAEncryption
         30:04:0b:82:d0:da:8e:6a:09:51:00:c6:11:cb:b6:ee:f6:7c:
         58:47:09:9a:f5:c7:46:cc:36:33:21:24:0c:e3:3b:47:f4:0b:
         3e:03:91:41:15:72:e3:47:49:15:ca:0c:a6:56:93:71:ae:23:
         50:f8:d2:de:bb:8d:0b:42:52:e2:5d:d6:73:1a:d3:6a:a2:76:
         38:30:1b:af:bb:f4:15:ca:1f:6e:3b:70:05:3c:11:9e:f4:ea:
         d4:84:a9:f4:fa:1d:e3:92:48:30:2c:75:df:3f:bb:f9:16:bd:
         d0:36:e2:93:cc:51:18:91:18:7e:83:49:44:11:fe:71:b1:6b:
         f0:65:4c:2f:d3:58:8d:8a:5f:be:ee:a1:fa:38:b6:9f:39:73:
         78:63:6c:c5:15:e8:23:8b:ef:d7:f3:be:18:cd:e6:05:0d:6f:
         14:42:5d:4d:53:6a:33:71:02:96:52:b5:58:b8:d8:0b:68:98:
         df:ee:06:7d:30:fa:45:c6:b7:c7:5d:d4:65:c2:5d:d3:b6:4b:
         45:96:8c:d9:94:41:54:c0:a8:5f:e9:c9:d0:22:da:67:c4:ac:
         8d:5a:32:76:ed:98:fa:41:5b:9a:c7:69:26:0f:f8:56:95:73:
         e7:e7:29:9f:c9:87:e3:6b:b4:22:34:a9:f9:6f:f0:37:cf:77:
         d5:e9:95:6a
-----BEGIN CERTIFICATE-----
MIIDdzCCAl+gAwIBAgIQVntlAck4JYzUNuvlrH4HyTANBgkqhkiG9w0BAQsFADAW
MRQwEgYDVQQDDAt0ZWFtMjA5LW5ldDAeFw0yMTA5MTMwMDMxNDVaFw0yNDA4Mjgw
MDMxNDVaMBkxFzAVBgNVBAMMDnRlYW0yMDktc2VydmVyMIIBIjANBgkqhkiG9w0B
AQEFAAOCAQ8AMIIBCgKCAQEAthB+b6Rb3m6tKutnnf/ThH7hlzxhUj34ePh3jVV8
X+/YnrM+faBPU7yMNm1dDsIAYgM09Eo0d78JFdpX9W6c6jE00mRkxvO5Tn23fPqd
1TRDyP3bPEqQOdzJEGxIynNqPZsleEB3h8kCbHm/L95Z1+0gRe3atPpcLgWoIFom
JqxacZRFdhHDOi1X/uM9p3vrrG9FuDobo8yKGFNncXQZKz8hPS7A3Jb7BhnEnpPT
VD1yuG7JGWSG6kTYUWMZGK/fVL3mLmaAZ6mys2KewdqeGFl9Jh1JN/fK/6IbrDBx
G3WVTCNybRi1Jy+n3rn+I1OqEACeP5GxfLvo6gEzet2poQIDAQABo4G9MIG6MAkG
A1UdEwQCMAAwHQYDVR0OBBYEFHlNbzrjTMQQ1Rc5KQgNPUaiPGCJMFEGA1UdIwRK
MEiAFN2bXUgbaCfvM9FteUTuOUCM/6a2oRqkGDAWMRQwEgYDVQQDDAt0ZWFtMjA5
LW5ldIIUK1oqcBojTkuhN8lXIUakUvtYQNQwEwYDVR0lBAwwCgYIKwYBBQUHAwEw
CwYDVR0PBAQDAgWgMBkGA1UdEQQSMBCCDnRlYW0yMDktc2VydmVyMA0GCSqGSIb3
DQEBCwUAA4IBAQAwBAuC0NqOaglRAMYRy7bu9nxYRwma9cdGzDYzISQM4ztH9As+
A5FBFXLjR0kVygymVpNxriNQ+NLeu40LQlLiXdZzGtNqonY4MBuvu/QVyh9uO3AF
PBGe9OrUhKn0+h3jkkgwLHXfP7v5Fr3QNuKTzFEYkRh+g0lEEf5xsWvwZUwv01iN
il++7qH6OLafOXN4Y2zFFegji+/X874YzeYFDW8UQl1NU2ozcQKWUrVYuNgLaJjf
7gZ9MPpFxrfHXdRlwl3TtktFlozZlEFUwKhf6cnQItpnxKyNWjJ27Zj6QVuax2km
D/hWlXPn5ymfyYfja7QiNKn5b/A3z3fV6ZVq
-----END CERTIFICATE-----
