Certificate:
    Data:
        Version: 3 (0x2)
        Serial Number:
            d3:ee:97:99:71:fa:47:1f:da:5f:f7:ca:a6:15:74:af
        Signature Algorithm: sha256WithRSAEncryption
        Issuer: CN=team701-net
        Validity
            Not Before: Sep 13 04:50:41 2021 GMT
            Not After : Aug 28 04:50:41 2024 GMT
        Subject: CN=team701-client
        Subject Public Key Info:
            Public Key Algorithm: rsaEncryption
                RSA Public-Key: (2048 bit)
                Modulus:
                    00:a4:58:1d:4a:0e:b3:84:61:be:ef:8d:fc:da:65:
                    a9:9c:e3:a2:a3:4c:60:e3:4d:55:cb:e6:73:50:f8:
                    da:9d:ea:df:e3:fa:d4:dc:f0:87:08:b3:95:d0:c5:
                    e8:08:a5:52:66:98:9a:89:11:b7:ba:b5:05:6c:28:
                    7a:14:d5:1b:35:8f:d0:21:e7:d0:f0:87:d0:cb:45:
                    45:2d:78:66:22:ee:71:db:55:62:da:3d:f6:f8:4c:
                    f8:b3:6b:04:70:fa:21:b5:89:4a:52:64:dc:9e:82:
                    9e:0d:4e:b7:10:1c:8d:f8:df:5c:25:bc:79:52:d2:
                    85:e4:a5:db:1e:9c:8c:89:cf:ac:da:e7:01:ad:09:
                    12:f8:30:79:88:8f:93:94:7a:9e:46:19:e1:4e:e1:
                    0a:5a:04:e3:a3:07:d4:f1:56:cd:8a:ff:1d:ae:d2:
                    d4:a4:58:36:3e:3a:e9:f7:81:a6:72:08:0d:0b:7f:
                    7d:e9:58:35:cb:18:ff:15:59:52:af:99:aa:91:87:
                    46:38:88:dd:6e:8e:61:da:73:a1:fc:b9:30:91:d6:
                    d7:1e:81:3c:3a:9b:ca:ef:0d:51:74:4f:40:08:12:
                    46:72:d8:12:c7:6a:cc:21:35:56:7d:9f:ee:9a:4e:
                    33:6c:0a:d8:b5:e1:4a:82:26:da:72:6f:27:2d:9c:
                    99:4f
                Exponent: 65537 (0x10001)
        X509v3 extensions:
            X509v3 Basic Constraints: 
                CA:FALSE
            X509v3 Subject Key Identifier: 
                D1:C3:6C:1E:68:E6:21:6D:4A:3E:72:3F:14:16:69:6A:A4:54:75:77
            X509v3 Authority Key Identifier: 
                keyid:45:50:2A:AB:C4:39:7A:D4:67:CD:30:98:0E:F1:3D:83:1F:41:93:72
                DirName:/CN=team701-net
                serial:6B:16:D2:9F:DC:97:BB:6D:76:14:7F:E0:8A:8F:DC:52:FE:AC:82:32

            X509v3 Extended Key Usage: 
                TLS Web Client Authentication
            X509v3 Key Usage: 
                Digital Signature
    Signature Algorithm: sha256WithRSAEncryption
         6a:55:92:68:c4:1b:42:f7:c4:9f:b9:b6:48:8a:fc:ba:d5:39:
         40:29:88:b9:e6:91:86:fd:fe:79:7b:20:f0:45:de:64:1b:cb:
         bc:18:01:5f:45:89:0e:b8:e8:29:3b:1a:4a:8e:59:1a:64:56:
         15:1d:53:0d:8b:c6:77:27:69:dc:0b:4f:3d:8d:57:86:66:18:
         7d:e9:69:45:ae:2a:df:11:5c:39:d1:e2:f5:42:84:85:ea:c9:
         5d:9e:ab:41:a3:5f:fa:c7:90:5e:27:49:7a:e6:7f:d6:b3:96:
         7d:f3:31:10:3c:bb:e2:78:15:2b:50:73:4c:91:8f:65:af:96:
         62:db:73:ec:66:7d:66:09:45:f4:d7:29:79:07:cd:6f:c1:eb:
         48:56:65:29:87:18:47:b9:04:cb:7a:1d:31:cc:e8:b3:ef:c4:
         45:74:c9:69:e9:f0:3f:c8:3a:a1:cc:2f:60:cb:78:07:83:35:
         35:73:8e:65:2c:a5:1a:47:1c:25:a9:3a:18:f9:bd:ab:ed:0f:
         db:66:cd:d5:86:16:07:17:4c:bf:e1:21:6e:db:f0:a3:c7:dd:
         e9:21:09:c4:43:e4:03:39:87:9c:df:e4:15:84:9a:dc:f6:1d:
         18:11:8c:5f:b3:ce:12:0e:e2:af:79:e9:31:84:03:b4:9d:34:
         cb:66:00:01
-----BEGIN CERTIFICATE-----
MIIDXTCCAkWgAwIBAgIRANPul5lx+kcf2l/3yqYVdK8wDQYJKoZIhvcNAQELBQAw
FjEUMBIGA1UEAwwLdGVhbTcwMS1uZXQwHhcNMjEwOTEzMDQ1MDQxWhcNMjQwODI4
MDQ1MDQxWjAZMRcwFQYDVQQDDA50ZWFtNzAxLWNsaWVudDCCASIwDQYJKoZIhvcN
AQEBBQADggEPADCCAQoCggEBAKRYHUoOs4Rhvu+N/NplqZzjoqNMYONNVcvmc1D4
2p3q3+P61NzwhwizldDF6AilUmaYmokRt7q1BWwoehTVGzWP0CHn0PCH0MtFRS14
ZiLucdtVYto99vhM+LNrBHD6IbWJSlJk3J6Cng1OtxAcjfjfXCW8eVLSheSl2x6c
jInPrNrnAa0JEvgweYiPk5R6nkYZ4U7hCloE46MH1PFWzYr/Ha7S1KRYNj466feB
pnIIDQt/felYNcsY/xVZUq+ZqpGHRjiI3W6OYdpzofy5MJHW1x6BPDqbyu8NUXRP
QAgSRnLYEsdqzCE1Vn2f7ppOM2wK2LXhSoIm2nJvJy2cmU8CAwEAAaOBojCBnzAJ
BgNVHRMEAjAAMB0GA1UdDgQWBBTRw2weaOYhbUo+cj8UFmlqpFR1dzBRBgNVHSME
SjBIgBRFUCqrxDl61GfNMJgO8T2DH0GTcqEapBgwFjEUMBIGA1UEAwwLdGVhbTcw
MS1uZXSCFGsW0p/cl7ttdhR/4IqP3FL+rIIyMBMGA1UdJQQMMAoGCCsGAQUFBwMC
MAsGA1UdDwQEAwIHgDANBgkqhkiG9w0BAQsFAAOCAQEAalWSaMQbQvfEn7m2SIr8
utU5QCmIueaRhv3+eXsg8EXeZBvLvBgBX0WJDrjoKTsaSo5ZGmRWFR1TDYvGdydp
3AtPPY1XhmYYfelpRa4q3xFcOdHi9UKEherJXZ6rQaNf+seQXidJeuZ/1rOWffMx
EDy74ngVK1BzTJGPZa+WYttz7GZ9ZglF9NcpeQfNb8HrSFZlKYcYR7kEy3odMczo
s+/ERXTJaenwP8g6ocwvYMt4B4M1NXOOZSylGkccJak6GPm9q+0P22bN1YYWBxdM
v+Ehbtvwo8fd6SEJxEPkAzmHnN/kFYSa3PYdGBGMX7POEg7ir3npMYQDtJ00y2YA
AQ==
-----END CERTIFICATE-----
