Certificate:
    Data:
        Version: 3 (0x2)
        Serial Number:
            02:c0:72:a2:5d:7b:46:37:a5:87:3e:cb:0a:8d:35:19
        Signature Algorithm: sha256WithRSAEncryption
        Issuer: CN=team524-net
        Validity
            Not Before: Sep 13 03:33:09 2021 GMT
            Not After : Aug 28 03:33:09 2024 GMT
        Subject: CN=team524-server
        Subject Public Key Info:
            Public Key Algorithm: rsaEncryption
                RSA Public-Key: (2048 bit)
                Modulus:
                    00:c0:5d:78:23:bf:ce:d6:a6:26:60:06:90:39:1b:
                    99:7f:2e:a3:6d:7f:37:2f:4f:07:d6:f2:56:d1:b1:
                    7b:c6:0f:46:cb:45:3e:3f:23:df:b8:f7:3c:7b:db:
                    1e:0b:94:b5:95:61:96:0e:f2:bb:e9:a7:2e:12:5d:
                    53:db:16:cd:19:d1:52:d9:db:08:b2:0b:50:73:3c:
                    a4:e2:74:9a:89:08:c9:1d:a9:66:0c:b5:1c:f7:67:
                    2a:ae:18:8a:d2:56:22:64:60:e6:d0:90:c0:33:f7:
                    5e:df:5b:0d:7f:92:30:29:6b:fa:5c:0e:cf:57:d8:
                    ec:f3:31:71:b1:cb:47:a6:1b:92:1a:9f:dd:ec:88:
                    71:c5:1e:0b:fd:ca:39:7a:87:19:91:e3:2d:76:cf:
                    07:7e:8d:10:a1:b6:d8:20:70:34:5b:c9:dc:64:fb:
                    3c:5a:a3:aa:0c:0c:35:8c:d8:12:1d:54:46:ca:aa:
                    e2:70:3b:f5:cf:ac:bf:58:1c:0a:b7:40:8b:e6:ee:
                    44:42:99:ea:ba:6d:82:e5:fa:88:fb:0f:ef:25:1d:
                    d1:b5:35:ec:8b:3c:2f:41:fb:8c:67:9a:e5:90:34:
                    51:eb:a4:0d:6f:45:fb:02:5e:ca:cb:e4:a7:e6:cc:
                    d1:5f:a1:cb:aa:b0:01:ec:19:b1:0d:f0:4d:6a:2b:
                    94:bf
                Exponent: 65537 (0x10001)
        X509v3 extensions:
            X509v3 Basic Constraints: 
                CA:FALSE
            X509v3 Subject Key Identifier: 
                71:E2:84:9A:37:70:D9:FC:91:B7:95:CD:87:28:56:3E:F1:6E:EB:56
            X509v3 Authority Key Identifier: 
                keyid:09:F7:57:60:FB:6A:17:04:2B:95:5E:2A:31:6E:5D:DD:65:8E:A8:0E
                DirName:/CN=team524-net
                serial:69:B4:72:B6:CA:26:1E:4F:E8:3F:BA:2A:10:40:70:29:72:73:5C:C9

            X509v3 Extended Key Usage: 
                TLS Web Server Authentication
            X509v3 Key Usage: 
                Digital Signature, Key Encipherment
            X509v3 Subject Alternative Name: 
                DNS:team524-server
    Signature Algorithm: sha256WithRSAEncryption
         a9:56:35:99:d6:bf:40:7a:0a:35:70:46:19:75:70:f8:9a:51:
         de:aa:7b:f8:fb:31:75:86:6b:8b:d0:0a:ac:a4:1f:c8:00:38:
         0c:d5:1b:85:0d:7d:a4:63:c7:6e:00:b9:12:53:ec:98:19:d1:
         86:de:0c:80:23:3b:4c:03:69:62:43:f4:e9:00:34:45:a1:29:
         17:f0:17:78:dd:10:e7:b3:e1:ec:33:56:f2:81:69:30:dd:4d:
         cc:59:a4:2a:d2:9d:86:ef:df:df:fe:5a:f0:48:e0:98:97:bf:
         bd:75:d5:56:82:ae:0c:8c:f0:e1:30:0e:c6:ff:10:d3:e4:f0:
         ed:50:c9:29:e2:f0:a5:7a:14:80:1a:ba:1b:42:e6:55:ae:0d:
         bd:d8:c9:d5:c6:ef:5c:a0:7a:48:2f:13:c1:1f:e5:35:d8:c2:
         f8:70:50:02:b4:6f:59:46:a8:5b:6a:3c:d7:38:5b:4c:43:50:
         0b:55:59:7c:7a:bb:17:4a:df:4f:d5:c1:19:21:e8:e5:b6:82:
         62:c2:c8:8d:5f:d0:ab:fe:b8:06:45:25:e2:e6:a2:1a:57:92:
         c0:63:56:4a:2a:d3:20:9d:17:98:13:e7:06:8a:92:c5:80:4d:
         f6:6b:6a:b4:5a:59:a0:d1:17:3c:c7:c6:e5:78:fe:5a:b7:70:
         d5:44:72:a4
-----BEGIN CERTIFICATE-----
MIIDdzCCAl+gAwIBAgIQAsByol17Rjelhz7LCo01GTANBgkqhkiG9w0BAQsFADAW
MRQwEgYDVQQDDAt0ZWFtNTI0LW5ldDAeFw0yMTA5MTMwMzMzMDlaFw0yNDA4Mjgw
MzMzMDlaMBkxFzAVBgNVBAMMDnRlYW01MjQtc2VydmVyMIIBIjANBgkqhkiG9w0B
AQEFAAOCAQ8AMIIBCgKCAQEAwF14I7/O1qYmYAaQORuZfy6jbX83L08H1vJW0bF7
xg9Gy0U+PyPfuPc8e9seC5S1lWGWDvK76acuEl1T2xbNGdFS2dsIsgtQczyk4nSa
iQjJHalmDLUc92cqrhiK0lYiZGDm0JDAM/de31sNf5IwKWv6XA7PV9js8zFxsctH
phuSGp/d7IhxxR4L/co5eocZkeMtds8Hfo0QobbYIHA0W8ncZPs8WqOqDAw1jNgS
HVRGyqricDv1z6y/WBwKt0CL5u5EQpnqum2C5fqI+w/vJR3RtTXsizwvQfuMZ5rl
kDRR66QNb0X7Al7Ky+Sn5szRX6HLqrAB7BmxDfBNaiuUvwIDAQABo4G9MIG6MAkG
A1UdEwQCMAAwHQYDVR0OBBYEFHHihJo3cNn8kbeVzYcoVj7xbutWMFEGA1UdIwRK
MEiAFAn3V2D7ahcEK5VeKjFuXd1ljqgOoRqkGDAWMRQwEgYDVQQDDAt0ZWFtNTI0
LW5ldIIUabRytsomHk/oP7oqEEBwKXJzXMkwEwYDVR0lBAwwCgYIKwYBBQUHAwEw
CwYDVR0PBAQDAgWgMBkGA1UdEQQSMBCCDnRlYW01MjQtc2VydmVyMA0GCSqGSIb3
DQEBCwUAA4IBAQCpVjWZ1r9Aego1cEYZdXD4mlHeqnv4+zF1hmuL0AqspB/IADgM
1RuFDX2kY8duALkSU+yYGdGG3gyAIztMA2liQ/TpADRFoSkX8Bd43RDns+HsM1by
gWkw3U3MWaQq0p2G79/f/lrwSOCYl7+9ddVWgq4MjPDhMA7G/xDT5PDtUMkp4vCl
ehSAGrobQuZVrg292MnVxu9coHpILxPBH+U12ML4cFACtG9ZRqhbajzXOFtMQ1AL
VVl8ersXSt9P1cEZIejltoJiwsiNX9Cr/rgGRSXi5qIaV5LAY1ZKKtMgnReYE+cG
ipLFgE32a2q0Wlmg0Rc8x8bleP5at3DVRHKk
-----END CERTIFICATE-----
