Certificate:
    Data:
        Version: 3 (0x2)
        Serial Number:
            70:b7:60:29:b8:e7:22:cb:5e:4e:e6:f9:81:83:76:0f
        Signature Algorithm: sha256WithRSAEncryption
        Issuer: CN=team55-net
        Validity
            Not Before: Sep 12 23:10:36 2021 GMT
            Not After : Aug 27 23:10:36 2024 GMT
        Subject: CN=team55-server
        Subject Public Key Info:
            Public Key Algorithm: rsaEncryption
                RSA Public-Key: (2048 bit)
                Modulus:
                    00:d3:9a:a3:d1:d3:55:9b:21:ea:fc:29:5f:33:65:
                    e4:47:9d:3f:52:6b:d3:f0:fa:95:0d:ed:45:69:8a:
                    4f:0f:b4:a6:1b:d3:f1:1c:5c:c1:51:6c:ae:2a:5b:
                    96:24:8c:29:9c:33:2f:9d:00:ab:14:14:2e:59:01:
                    31:05:3b:98:34:d0:78:0c:8f:ef:6f:f5:6a:25:33:
                    50:fd:70:85:de:be:7b:89:ab:a2:e9:c2:31:37:10:
                    3c:4b:40:49:4e:a5:eb:3c:f0:7d:f7:d4:01:76:0b:
                    24:9f:11:e6:76:2a:f8:e7:fb:cd:d9:63:a6:9b:2a:
                    e7:12:a0:1f:4e:c2:d4:b8:2d:5a:f7:1e:3f:53:8f:
                    3a:17:9f:c4:5a:35:d6:7d:a4:a4:c9:f9:0d:5a:b1:
                    2b:f3:5e:56:94:1f:5c:12:84:00:cd:4e:cb:38:ae:
                    0b:ef:fe:10:d5:53:28:31:6e:ce:02:18:be:e9:84:
                    fb:85:f1:b9:14:bd:4d:22:c2:1f:54:aa:cb:29:52:
                    69:da:0f:dc:da:3e:62:c0:b5:d1:a1:cd:90:e1:9d:
                    bb:2d:8f:b3:5a:23:ea:a6:a6:20:3a:3f:b1:ab:46:
                    63:b1:3c:9d:74:2f:c4:8d:7e:e9:03:22:b4:dc:92:
                    1a:85:1b:68:ef:68:ff:0d:82:08:4a:04:88:a5:4b:
                    1e:6b
                Exponent: 65537 (0x10001)
        X509v3 extensions:
            X509v3 Basic Constraints: 
                CA:FALSE
            X509v3 Subject Key Identifier: 
                B4:D9:79:99:D6:07:F8:46:A7:92:07:E4:7D:F1:B7:18:DB:6C:9E:5A
            X509v3 Authority Key Identifier: 
                keyid:2A:37:B0:AE:20:D1:ED:C5:C2:81:BE:9B:FD:3D:AF:0C:14:EE:2D:F2
                DirName:/CN=team55-net
                serial:35:54:C4:12:51:30:7A:4B:7D:C9:77:8A:0A:C2:91:91:CB:DF:3F:E1

            X509v3 Extended Key Usage: 
                TLS Web Server Authentication
            X509v3 Key Usage: 
                Digital Signature, Key Encipherment
            X509v3 Subject Alternative Name: 
                DNS:team55-server
    Signature Algorithm: sha256WithRSAEncryption
         84:cc:a1:eb:0e:d8:01:52:99:9f:39:ae:80:43:81:f2:ce:5e:
         4f:17:db:10:40:2e:19:e5:6c:11:3b:16:a7:85:28:2f:b8:04:
         07:25:27:93:9e:4f:df:04:a3:51:02:4d:32:7a:b5:7b:5f:d7:
         72:b3:66:a0:d7:ee:a9:86:93:18:92:75:f9:2e:2c:9f:f4:29:
         bc:58:ff:2d:2a:28:0a:92:ae:a6:31:34:58:c5:fb:d7:c2:1e:
         32:bc:93:56:e7:07:f8:8c:03:64:a1:c8:71:62:a7:b0:20:d7:
         83:c1:42:94:15:ba:b5:5f:64:5a:e9:8f:da:a8:ce:f5:af:09:
         6a:c7:48:1c:22:96:4e:8e:a8:aa:3f:b0:d0:e7:ae:8f:97:c5:
         39:9e:ce:65:da:d9:91:94:72:fb:04:c1:59:22:ec:24:1a:55:
         eb:2b:56:24:05:da:d1:1d:d8:d6:6b:6f:2d:e8:e0:ee:ce:78:
         21:02:c4:c7:f5:a3:17:a5:9d:19:ea:b0:95:e0:2c:ee:22:6d:
         89:a3:61:64:3f:ad:fd:28:47:de:ec:5f:f3:91:70:21:ca:45:
         19:49:ea:37:85:f5:29:67:8e:c6:0e:92:3c:87:ff:3e:d7:d1:
         c2:55:37:ae:f6:5b:77:c3:90:bb:06:c6:75:4b:52:9e:23:82:
         f1:3a:ea:4f
-----BEGIN CERTIFICATE-----
MIIDczCCAlugAwIBAgIQcLdgKbjnIsteTub5gYN2DzANBgkqhkiG9w0BAQsFADAV
MRMwEQYDVQQDDAp0ZWFtNTUtbmV0MB4XDTIxMDkxMjIzMTAzNloXDTI0MDgyNzIz
MTAzNlowGDEWMBQGA1UEAwwNdGVhbTU1LXNlcnZlcjCCASIwDQYJKoZIhvcNAQEB
BQADggEPADCCAQoCggEBANOao9HTVZsh6vwpXzNl5EedP1Jr0/D6lQ3tRWmKTw+0
phvT8RxcwVFsripbliSMKZwzL50AqxQULlkBMQU7mDTQeAyP72/1aiUzUP1whd6+
e4mrounCMTcQPEtASU6l6zzwfffUAXYLJJ8R5nYq+Of7zdljppsq5xKgH07C1Lgt
WvceP1OPOhefxFo11n2kpMn5DVqxK/NeVpQfXBKEAM1OyziuC+/+ENVTKDFuzgIY
vumE+4XxuRS9TSLCH1SqyylSadoP3No+YsC10aHNkOGduy2Ps1oj6qamIDo/satG
Y7E8nXQvxI1+6QMitNySGoUbaO9o/w2CCEoEiKVLHmsCAwEAAaOBuzCBuDAJBgNV
HRMEAjAAMB0GA1UdDgQWBBS02XmZ1gf4RqeSB+R98bcY22yeWjBQBgNVHSMESTBH
gBQqN7CuINHtxcKBvpv9Pa8MFO4t8qEZpBcwFTETMBEGA1UEAwwKdGVhbTU1LW5l
dIIUNVTEElEwekt9yXeKCsKRkcvfP+EwEwYDVR0lBAwwCgYIKwYBBQUHAwEwCwYD
VR0PBAQDAgWgMBgGA1UdEQQRMA+CDXRlYW01NS1zZXJ2ZXIwDQYJKoZIhvcNAQEL
BQADggEBAITMoesO2AFSmZ85roBDgfLOXk8X2xBALhnlbBE7FqeFKC+4BAclJ5Oe
T98Eo1ECTTJ6tXtf13KzZqDX7qmGkxiSdfkuLJ/0KbxY/y0qKAqSrqYxNFjF+9fC
HjK8k1bnB/iMA2ShyHFip7Ag14PBQpQVurVfZFrpj9qozvWvCWrHSBwilk6OqKo/
sNDnro+XxTmezmXa2ZGUcvsEwVki7CQaVesrViQF2tEd2NZrby3o4O7OeCECxMf1
oxelnRnqsJXgLO4ibYmjYWQ/rf0oR97sX/ORcCHKRRlJ6jeF9SlnjsYOkjyH/z7X
0cJVN672W3fDkLsGxnVLUp4jgvE66k8=
-----END CERTIFICATE-----
