Certificate:
    Data:
        Version: 3 (0x2)
        Serial Number:
            74:d6:f1:4a:5d:c4:1d:cc:08:fd:7a:14:10:a2:f6:5c
        Signature Algorithm: sha256WithRSAEncryption
        Issuer: CN=team610-net
        Validity
            Not Before: Sep 13 04:27:31 2021 GMT
            Not After : Aug 28 04:27:31 2024 GMT
        Subject: CN=team610-server
        Subject Public Key Info:
            Public Key Algorithm: rsaEncryption
                RSA Public-Key: (2048 bit)
                Modulus:
                    00:a6:3c:7b:46:1b:22:24:10:fd:1f:20:fe:28:37:
                    6d:ec:b5:ce:bc:89:d8:c8:6f:a1:13:38:10:c0:f1:
                    9f:40:2c:61:33:4b:5e:5d:ce:1c:bc:77:e2:f9:19:
                    4c:97:69:73:89:e7:d2:1e:49:53:ca:5a:13:75:8f:
                    23:68:8c:6a:fe:a5:fc:f1:af:ea:1a:06:c9:21:81:
                    60:12:3f:dc:99:fc:93:66:cd:6a:ce:c4:ad:12:f8:
                    77:a1:d9:0b:a6:a2:30:91:f0:2f:06:4e:25:1f:04:
                    94:57:ec:d0:bc:c9:5c:11:a2:5a:9e:96:fb:e0:33:
                    09:77:8a:76:a8:c1:b0:49:ec:17:16:5f:e2:91:16:
                    34:9b:58:b7:78:64:7a:f1:1a:b8:bd:a3:1b:7b:ca:
                    a9:f5:85:a2:fa:e0:f9:bc:96:7a:4d:00:16:89:5c:
                    fb:35:52:9d:b3:f0:2d:2d:00:3d:d5:bd:e0:7a:2c:
                    12:20:28:2c:8a:be:ac:c9:77:dd:19:5a:29:8e:c9:
                    db:75:8e:96:41:d3:f7:4f:ee:15:3f:58:ac:c9:2d:
                    f6:f6:8a:aa:32:61:9b:89:af:56:7a:55:c6:e9:90:
                    e2:e5:ea:63:c6:b7:dc:56:b5:9b:88:95:98:c3:18:
                    46:f8:08:9e:10:9d:04:7a:9c:70:f3:a6:f1:24:9d:
                    eb:4f
                Exponent: 65537 (0x10001)
        X509v3 extensions:
            X509v3 Basic Constraints: 
                CA:FALSE
            X509v3 Subject Key Identifier: 
                AA:1D:2A:C3:C2:E8:88:A0:4E:1C:09:54:35:F8:D5:94:6C:1C:C3:19
            X509v3 Authority Key Identifier: 
                keyid:AB:89:92:00:E1:7B:43:AC:9C:93:FB:82:6D:80:05:0F:08:88:C1:AC
                DirName:/CN=team610-net
                serial:5B:28:B9:BD:9A:AC:8D:2C:D4:24:42:E1:B0:4D:C1:AC:15:69:D1:C2

            X509v3 Extended Key Usage: 
                TLS Web Server Authentication
            X509v3 Key Usage: 
                Digital Signature, Key Encipherment
            X509v3 Subject Alternative Name: 
                DNS:team610-server
    Signature Algorithm: sha256WithRSAEncryption
         16:f9:e4:95:4f:70:26:17:9c:0e:12:89:4d:74:c0:af:c4:9f:
         74:34:93:d6:3f:5c:e2:bb:20:81:cd:9c:1e:04:79:e4:63:dc:
         3a:11:9d:c6:2a:26:1f:ad:f9:f3:8c:85:62:6c:04:8c:fb:99:
         e9:48:73:fe:cc:ba:7f:84:bd:72:ee:15:a4:af:6d:bc:c2:bb:
         3b:61:28:21:8f:c3:20:39:7b:f8:bd:de:06:51:d6:c4:7a:f4:
         04:a2:27:be:28:64:d6:7e:0e:9e:62:85:4c:6b:23:a5:b6:b8:
         a0:cd:5b:3b:94:d2:0d:4d:53:ac:57:4c:c3:77:e5:02:ac:55:
         80:fb:b6:78:f8:1e:c5:b0:7f:c2:00:5c:87:6b:c7:84:ec:a4:
         ca:99:8e:5e:cd:a8:e9:ca:d4:cb:44:8a:77:6a:73:fc:8f:31:
         70:a5:54:a4:9f:1d:f5:c8:7b:0d:97:74:eb:d8:19:12:ec:02:
         67:d4:8c:b1:54:52:02:3d:cc:85:ff:44:46:fb:fa:2b:d7:0c:
         b5:f5:89:30:e6:ca:46:6d:24:ed:97:44:3c:a1:c9:e5:54:1c:
         8f:d0:79:87:cc:6a:c5:c4:ac:26:ed:cf:17:72:c0:fd:ba:a1:
         7e:26:39:32:4f:89:a7:f8:fe:bf:db:75:62:79:f4:5c:9a:e3:
         1e:23:11:05
-----BEGIN CERTIFICATE-----
MIIDdzCCAl+gAwIBAgIQdNbxSl3EHcwI/XoUEKL2XDANBgkqhkiG9w0BAQsFADAW
MRQwEgYDVQQDDAt0ZWFtNjEwLW5ldDAeFw0yMTA5MTMwNDI3MzFaFw0yNDA4Mjgw
NDI3MzFaMBkxFzAVBgNVBAMMDnRlYW02MTAtc2VydmVyMIIBIjANBgkqhkiG9w0B
AQEFAAOCAQ8AMIIBCgKCAQEApjx7RhsiJBD9HyD+KDdt7LXOvInYyG+hEzgQwPGf
QCxhM0teXc4cvHfi+RlMl2lziefSHklTyloTdY8jaIxq/qX88a/qGgbJIYFgEj/c
mfyTZs1qzsStEvh3odkLpqIwkfAvBk4lHwSUV+zQvMlcEaJanpb74DMJd4p2qMGw
SewXFl/ikRY0m1i3eGR68Rq4vaMbe8qp9YWi+uD5vJZ6TQAWiVz7NVKds/AtLQA9
1b3geiwSICgsir6syXfdGVopjsnbdY6WQdP3T+4VP1isyS329oqqMmGbia9WelXG
6ZDi5epjxrfcVrWbiJWYwxhG+AieEJ0Eepxw86bxJJ3rTwIDAQABo4G9MIG6MAkG
A1UdEwQCMAAwHQYDVR0OBBYEFKodKsPC6IigThwJVDX41ZRsHMMZMFEGA1UdIwRK
MEiAFKuJkgDhe0OsnJP7gm2ABQ8IiMGsoRqkGDAWMRQwEgYDVQQDDAt0ZWFtNjEw
LW5ldIIUWyi5vZqsjSzUJELhsE3BrBVp0cIwEwYDVR0lBAwwCgYIKwYBBQUHAwEw
CwYDVR0PBAQDAgWgMBkGA1UdEQQSMBCCDnRlYW02MTAtc2VydmVyMA0GCSqGSIb3
DQEBCwUAA4IBAQAW+eSVT3AmF5wOEolNdMCvxJ90NJPWP1ziuyCBzZweBHnkY9w6
EZ3GKiYfrfnzjIVibASM+5npSHP+zLp/hL1y7hWkr228wrs7YSghj8MgOXv4vd4G
UdbEevQEoie+KGTWfg6eYoVMayOltrigzVs7lNINTVOsV0zDd+UCrFWA+7Z4+B7F
sH/CAFyHa8eE7KTKmY5ezajpytTLRIp3anP8jzFwpVSknx31yHsNl3Tr2BkS7AJn
1IyxVFICPcyF/0RG+/or1wy19Ykw5spGbSTtl0Q8ocnlVByP0HmHzGrFxKwm7c8X
csD9uqF+JjkyT4mn+P6/23ViefRcmuMeIxEF
-----END CERTIFICATE-----
