Certificate:
    Data:
        Version: 3 (0x2)
        Serial Number:
            b1:71:db:d4:18:c9:5b:2a:89:99:e3:83:2b:86:0b:de
        Signature Algorithm: sha256WithRSAEncryption
        Issuer: CN=team487-net
        Validity
            Not Before: Sep 13 03:09:10 2021 GMT
            Not After : Aug 28 03:09:10 2024 GMT
        Subject: CN=team487-client
        Subject Public Key Info:
            Public Key Algorithm: rsaEncryption
                RSA Public-Key: (2048 bit)
                Modulus:
                    00:c7:e9:a8:79:1d:03:80:ac:32:cd:87:83:ad:c4:
                    51:48:80:8e:29:6f:f4:03:41:36:8a:24:83:6f:28:
                    1a:62:04:93:ee:ef:be:f4:52:31:95:a5:ab:52:a6:
                    92:19:ce:07:ed:32:a7:60:db:01:42:c9:b6:5c:bb:
                    f8:92:df:fb:35:29:0a:f5:fc:20:01:d4:04:5a:9e:
                    b6:ee:d1:e0:05:14:4a:aa:ac:94:10:e0:d2:c3:38:
                    d7:bd:9c:4f:61:93:b1:19:c2:2d:bb:aa:a7:4d:48:
                    b1:5e:34:33:e7:de:27:5f:db:77:21:87:27:14:56:
                    9c:8e:53:55:3f:43:52:4a:f9:59:68:ec:63:c2:bd:
                    5c:bc:7d:ca:fd:1e:a2:08:c3:eb:d4:dc:1e:06:9d:
                    79:df:b5:d5:f1:dd:ca:d1:a1:86:35:07:27:ba:32:
                    3c:e2:d1:76:4c:6d:3d:da:74:48:af:e4:48:36:a5:
                    21:48:06:43:c3:a8:8d:4c:49:d7:c3:2a:45:7b:31:
                    36:b4:39:53:30:76:2f:74:da:33:26:01:4e:8a:ea:
                    96:73:48:a1:b6:d4:17:12:5d:28:fe:4e:af:18:1f:
                    ef:5f:27:b0:ad:5b:3b:8c:6a:d3:ed:2c:a4:5d:a8:
                    31:cc:e7:9e:26:87:6f:b0:af:ac:f0:08:43:3d:8e:
                    c5:e5
                Exponent: 65537 (0x10001)
        X509v3 extensions:
            X509v3 Basic Constraints: 
                CA:FALSE
            X509v3 Subject Key Identifier: 
                8A:99:E2:21:E6:C9:BC:48:A2:D1:C2:E6:CD:23:94:15:78:23:57:37
            X509v3 Authority Key Identifier: 
                keyid:EE:F0:B4:3F:D8:8F:08:22:3A:F4:3D:95:1A:82:63:21:92:8C:11:41
                DirName:/CN=team487-net
                serial:1A:4C:EC:5A:3F:5F:B0:D6:56:0B:03:FA:D0:59:71:90:BD:EE:DD:C4

            X509v3 Extended Key Usage: 
                TLS Web Client Authentication
            X509v3 Key Usage: 
                Digital Signature
    Signature Algorithm: sha256WithRSAEncryption
         3a:4d:83:cd:f6:92:e6:4a:19:87:c1:18:0e:88:7a:06:7a:53:
         21:2b:55:e3:ad:02:0f:d9:5c:9f:fb:a3:62:8e:3c:23:94:c2:
         08:62:87:f6:d9:10:15:5d:b9:bb:3d:83:e8:e9:46:6d:63:c2:
         3b:60:2b:2e:71:0e:7b:72:05:07:62:0d:c1:1b:19:ce:fd:43:
         46:12:bf:6f:f6:00:9e:3d:a5:03:60:8f:ec:12:22:d9:1e:9c:
         c1:02:d9:0f:10:d0:9c:85:21:f3:8a:d6:a6:04:78:b0:0b:d1:
         e5:79:f0:1d:08:b5:2f:1f:82:34:42:39:34:d8:10:b6:0b:11:
         09:a3:f5:b6:77:2d:0d:a0:91:18:20:f8:53:99:db:e9:b7:7e:
         7f:e7:23:69:69:8f:be:4a:8f:3d:78:c3:c9:ee:c9:b5:e1:91:
         1b:f0:e3:b6:39:77:7d:87:89:1f:8a:e2:88:94:bc:f9:7f:76:
         51:ca:dd:22:7a:e8:cd:ca:63:12:66:90:78:69:72:34:af:30:
         06:cc:2c:87:26:7e:8e:6e:d5:c4:80:5d:1f:1c:76:46:29:79:
         97:c3:ca:7e:ed:e3:6f:08:b6:4d:02:d3:b4:6c:22:41:91:20:
         d5:c8:be:bb:73:81:16:96:83:f8:8a:47:26:db:a6:60:76:69:
         4f:45:0a:92
-----BEGIN CERTIFICATE-----
MIIDXTCCAkWgAwIBAgIRALFx29QYyVsqiZnjgyuGC94wDQYJKoZIhvcNAQELBQAw
FjEUMBIGA1UEAwwLdGVhbTQ4Ny1uZXQwHhcNMjEwOTEzMDMwOTEwWhcNMjQwODI4
MDMwOTEwWjAZMRcwFQYDVQQDDA50ZWFtNDg3LWNsaWVudDCCASIwDQYJKoZIhvcN
AQEBBQADggEPADCCAQoCggEBAMfpqHkdA4CsMs2Hg63EUUiAjilv9ANBNookg28o
GmIEk+7vvvRSMZWlq1KmkhnOB+0yp2DbAULJtly7+JLf+zUpCvX8IAHUBFqetu7R
4AUUSqqslBDg0sM4172cT2GTsRnCLbuqp01IsV40M+feJ1/bdyGHJxRWnI5TVT9D
Ukr5WWjsY8K9XLx9yv0eogjD69TcHgaded+11fHdytGhhjUHJ7oyPOLRdkxtPdp0
SK/kSDalIUgGQ8OojUxJ18MqRXsxNrQ5UzB2L3TaMyYBTorqlnNIobbUFxJdKP5O
rxgf718nsK1bO4xq0+0spF2oMcznniaHb7CvrPAIQz2OxeUCAwEAAaOBojCBnzAJ
BgNVHRMEAjAAMB0GA1UdDgQWBBSKmeIh5sm8SKLRwubNI5QVeCNXNzBRBgNVHSME
SjBIgBTu8LQ/2I8IIjr0PZUagmMhkowRQaEapBgwFjEUMBIGA1UEAwwLdGVhbTQ4
Ny1uZXSCFBpM7Fo/X7DWVgsD+tBZcZC97t3EMBMGA1UdJQQMMAoGCCsGAQUFBwMC
MAsGA1UdDwQEAwIHgDANBgkqhkiG9w0BAQsFAAOCAQEAOk2DzfaS5koZh8EYDoh6
BnpTIStV460CD9lcn/ujYo48I5TCCGKH9tkQFV25uz2D6OlGbWPCO2ArLnEOe3IF
B2INwRsZzv1DRhK/b/YAnj2lA2CP7BIi2R6cwQLZDxDQnIUh84rWpgR4sAvR5Xnw
HQi1Lx+CNEI5NNgQtgsRCaP1tnctDaCRGCD4U5nb6bd+f+cjaWmPvkqPPXjDye7J
teGRG/Djtjl3fYeJH4riiJS8+X92UcrdInrozcpjEmaQeGlyNK8wBswshyZ+jm7V
xIBdHxx2Ril5l8PKfu3jbwi2TQLTtGwiQZEg1ci+u3OBFpaD+IpHJtumYHZpT0UK
kg==
-----END CERTIFICATE-----
