Certificate:
    Data:
        Version: 3 (0x2)
        Serial Number:
            17:dd:50:56:ee:eb:a9:b9:23:b9:45:eb:bc:36:fe:b1
        Signature Algorithm: sha256WithRSAEncryption
        Issuer: CN=team8-net
        Validity
            Not Before: Sep 12 22:45:02 2021 GMT
            Not After : Aug 27 22:45:02 2024 GMT
        Subject: CN=team8-client
        Subject Public Key Info:
            Public Key Algorithm: rsaEncryption
                RSA Public-Key: (2048 bit)
                Modulus:
                    00:b6:76:0e:48:12:73:56:8d:24:63:49:ee:87:0c:
                    01:87:54:6e:91:30:67:d8:00:58:cd:c7:27:a6:07:
                    17:67:dd:ad:3e:3c:de:77:55:d1:2b:6b:88:52:c4:
                    33:25:70:e1:b2:6e:32:0f:2b:ce:5c:b9:d1:2b:83:
                    1c:af:41:61:44:62:0b:97:df:da:90:cf:50:2a:16:
                    87:bd:4a:da:75:41:1b:b7:fa:63:22:80:88:fa:48:
                    7f:98:f3:fc:7e:8f:25:1e:17:c7:9b:76:21:74:29:
                    65:f7:39:0e:f4:b5:22:42:fe:25:a8:c4:9b:65:4f:
                    3e:a0:91:59:02:3d:59:4f:c2:10:2d:fe:36:b3:06:
                    53:c7:ee:a5:63:14:a0:e8:1d:13:20:b5:28:14:ca:
                    8b:14:97:6b:71:11:fb:01:fa:f9:09:dc:bc:80:65:
                    6f:75:d2:36:15:c9:a6:5f:93:a8:13:86:40:8d:8b:
                    68:a3:b4:53:87:d7:96:f9:86:9a:5b:a2:50:25:52:
                    50:6c:4b:05:08:fa:f4:79:6d:a8:64:ea:49:3d:d8:
                    b1:c9:ed:fa:dd:da:f5:51:44:a4:fd:38:49:af:d4:
                    c8:33:80:c4:8c:12:b0:5a:35:31:df:37:64:5f:86:
                    75:24:ce:4b:bc:da:2e:91:bc:80:b5:d6:53:d1:84:
                    5f:e9
                Exponent: 65537 (0x10001)
        X509v3 extensions:
            X509v3 Basic Constraints: 
                CA:FALSE
            X509v3 Subject Key Identifier: 
                32:D6:28:7E:59:C4:F0:20:97:89:B0:05:46:99:E6:EE:AF:FF:F3:73
            X509v3 Authority Key Identifier: 
                keyid:7C:46:DA:D9:68:E1:57:BF:6D:57:33:D4:C4:63:BB:9E:D6:65:46:E2
                DirName:/CN=team8-net
                serial:1E:8F:14:6A:A0:AD:F8:48:3F:EE:0E:3C:B5:1A:FF:C5:C3:AD:D0:F3

            X509v3 Extended Key Usage: 
                TLS Web Client Authentication
            X509v3 Key Usage: 
                Digital Signature
    Signature Algorithm: sha256WithRSAEncryption
         49:05:b6:83:d8:3d:55:a8:8e:cd:bc:14:39:1f:95:4b:ed:ee:
         d8:af:bf:c9:9b:8b:54:90:19:59:68:fc:2e:e9:bb:3a:89:03:
         35:ed:1c:cf:2b:f4:4f:9a:9f:57:54:6e:5e:e8:70:fc:a4:db:
         da:b8:87:b0:35:ed:50:6c:93:99:ff:7a:a8:f0:14:5f:8d:41:
         b6:0e:cc:6c:b7:2b:2a:72:da:88:e5:b7:11:b2:1a:53:bd:44:
         db:22:f4:ed:ba:c3:de:44:c7:f5:a6:36:80:40:be:35:ea:7d:
         28:d8:90:f2:08:5e:4c:7d:66:51:f3:af:9d:41:4d:e8:0c:54:
         5b:c2:bb:75:08:79:b4:25:ba:18:7a:cd:31:0a:87:d3:74:46:
         96:7e:ca:7b:55:22:cb:6d:65:cb:d9:09:5c:df:a2:28:48:9b:
         c6:6f:e3:5d:a7:fe:cc:6b:59:6d:fd:78:2e:53:40:7b:df:44:
         d1:ed:aa:3a:2d:d6:28:7f:ca:2d:fa:83:ce:15:b4:1d:12:3f:
         25:47:b8:9e:c5:10:3d:6b:c1:e4:ba:8f:0c:7d:62:c8:b3:5c:
         a2:3e:e6:05:b5:49:26:dc:06:b0:05:09:93:fa:13:6b:f5:91:
         c7:58:96:1c:bb:d0:9f:af:d4:b0:73:da:4c:15:00:70:29:79:
         61:49:b9:22
-----BEGIN CERTIFICATE-----
MIIDVjCCAj6gAwIBAgIQF91QVu7rqbkjuUXrvDb+sTANBgkqhkiG9w0BAQsFADAU
MRIwEAYDVQQDDAl0ZWFtOC1uZXQwHhcNMjEwOTEyMjI0NTAyWhcNMjQwODI3MjI0
NTAyWjAXMRUwEwYDVQQDDAx0ZWFtOC1jbGllbnQwggEiMA0GCSqGSIb3DQEBAQUA
A4IBDwAwggEKAoIBAQC2dg5IEnNWjSRjSe6HDAGHVG6RMGfYAFjNxyemBxdn3a0+
PN53VdEra4hSxDMlcOGybjIPK85cudErgxyvQWFEYguX39qQz1AqFoe9Stp1QRu3
+mMigIj6SH+Y8/x+jyUeF8ebdiF0KWX3OQ70tSJC/iWoxJtlTz6gkVkCPVlPwhAt
/jazBlPH7qVjFKDoHRMgtSgUyosUl2txEfsB+vkJ3LyAZW910jYVyaZfk6gThkCN
i2ijtFOH15b5hppbolAlUlBsSwUI+vR5bahk6kk92LHJ7frd2vVRRKT9OEmv1Mgz
gMSMErBaNTHfN2RfhnUkzku82i6RvIC11lPRhF/pAgMBAAGjgaAwgZ0wCQYDVR0T
BAIwADAdBgNVHQ4EFgQUMtYoflnE8CCXibAFRpnm7q//83MwTwYDVR0jBEgwRoAU
fEba2WjhV79tVzPUxGO7ntZlRuKhGKQWMBQxEjAQBgNVBAMMCXRlYW04LW5ldIIU
Ho8UaqCt+Eg/7g48tRr/xcOt0PMwEwYDVR0lBAwwCgYIKwYBBQUHAwIwCwYDVR0P
BAQDAgeAMA0GCSqGSIb3DQEBCwUAA4IBAQBJBbaD2D1VqI7NvBQ5H5VL7e7Yr7/J
m4tUkBlZaPwu6bs6iQM17RzPK/RPmp9XVG5e6HD8pNvauIewNe1QbJOZ/3qo8BRf
jUG2DsxstysqctqI5bcRshpTvUTbIvTtusPeRMf1pjaAQL416n0o2JDyCF5MfWZR
86+dQU3oDFRbwrt1CHm0JboYes0xCofTdEaWfsp7VSLLbWXL2Qlc36IoSJvGb+Nd
p/7Ma1lt/XguU0B730TR7ao6LdYof8ot+oPOFbQdEj8lR7iexRA9a8Hkuo8MfWLI
s1yiPuYFtUkm3AawBQmT+hNr9ZHHWJYcu9Cfr9Swc9pMFQBwKXlhSbki
-----END CERTIFICATE-----
