Certificate:
    Data:
        Version: 3 (0x2)
        Serial Number:
            46:90:c3:57:89:32:e7:3a:23:3d:83:b5:5e:b1:fa:88
        Signature Algorithm: sha256WithRSAEncryption
        Issuer: CN=team8-net
        Validity
            Not Before: Sep 12 22:45:02 2021 GMT
            Not After : Aug 27 22:45:02 2024 GMT
        Subject: CN=team8-server
        Subject Public Key Info:
            Public Key Algorithm: rsaEncryption
                RSA Public-Key: (2048 bit)
                Modulus:
                    00:e4:0a:fc:a9:c0:80:c1:47:c0:a2:ae:84:0e:70:
                    d0:27:55:57:88:32:bf:40:de:63:26:6d:e8:37:76:
                    42:20:28:fc:30:d1:fa:40:1e:9d:f7:6b:62:45:42:
                    4d:7b:f3:87:58:56:1f:c2:93:04:d8:6f:db:d0:fd:
                    d4:a9:9e:34:5c:58:af:db:c2:cb:ad:3f:95:aa:40:
                    c6:e3:7e:03:ed:35:14:fe:3f:66:8d:5d:5b:f3:ca:
                    7f:78:0f:0f:4b:11:22:78:6b:f9:f2:16:c9:06:d1:
                    a7:71:b7:15:1a:92:5d:b7:88:5e:a1:da:1a:b0:88:
                    d8:31:1e:58:33:4e:7f:be:0b:4b:66:a6:e5:c2:4f:
                    65:6b:96:d4:49:b4:c3:72:c4:eb:30:37:f7:d6:a6:
                    c0:b3:dc:02:92:bd:37:cc:3b:ed:ed:71:3b:3f:82:
                    8b:5c:9c:5d:48:98:52:7c:0b:02:75:7c:99:ba:5c:
                    f7:24:ee:6b:10:e1:24:0d:3e:38:98:2f:32:8e:c3:
                    d4:ba:8e:0c:22:73:e7:6f:0e:d9:f0:34:cd:a0:48:
                    ab:a2:20:6c:78:2e:11:b9:b5:38:19:7e:81:1c:73:
                    d9:74:55:36:86:f4:70:ea:85:2d:4f:1d:bd:c6:0c:
                    0e:53:ea:c4:2d:7c:c7:fd:04:b3:82:63:3f:c9:e9:
                    99:37
                Exponent: 65537 (0x10001)
        X509v3 extensions:
            X509v3 Basic Constraints: 
                CA:FALSE
            X509v3 Subject Key Identifier: 
                AC:E4:86:97:0A:C7:E4:C7:17:7E:06:C3:94:21:54:EC:3C:D4:F8:C2
            X509v3 Authority Key Identifier: 
                keyid:7C:46:DA:D9:68:E1:57:BF:6D:57:33:D4:C4:63:BB:9E:D6:65:46:E2
                DirName:/CN=team8-net
                serial:1E:8F:14:6A:A0:AD:F8:48:3F:EE:0E:3C:B5:1A:FF:C5:C3:AD:D0:F3

            X509v3 Extended Key Usage: 
                TLS Web Server Authentication
            X509v3 Key Usage: 
                Digital Signature, Key Encipherment
            X509v3 Subject Alternative Name: 
                DNS:team8-server
    Signature Algorithm: sha256WithRSAEncryption
         a1:00:32:6a:10:5a:88:0f:57:27:dd:4f:c2:07:b1:d6:a1:ce:
         b7:b1:46:5f:43:43:88:45:73:db:f6:00:c1:a7:9f:8a:6e:6c:
         f4:cc:25:41:cd:50:70:a0:26:ec:07:2f:02:23:eb:c0:50:cf:
         d6:25:0a:10:d2:e4:46:98:bb:ee:f5:6a:24:88:e3:e9:e9:b3:
         0a:e7:e8:9a:be:2e:e7:69:81:8d:af:94:3d:a1:7e:4b:7c:4e:
         72:45:a3:39:b3:e7:6c:dc:f1:61:f7:2f:6c:87:25:c1:a0:e7:
         44:8a:70:8a:21:b0:6a:e5:13:04:89:13:56:7a:be:e4:44:59:
         17:e8:1a:e2:58:28:de:2c:76:52:40:c2:e0:b5:28:3c:0c:c5:
         92:7b:dd:b6:da:cd:ea:f6:d0:73:f7:38:8b:7b:c4:01:81:72:
         89:ec:a3:f1:33:bd:3a:80:f1:8e:8f:01:26:89:70:c9:1e:d9:
         90:f9:98:1b:c4:d0:80:23:0c:7d:55:36:9a:31:99:20:67:2e:
         34:14:7d:2a:d2:6a:8e:fb:eb:84:0c:e1:45:bc:a7:ba:a2:cd:
         72:53:51:20:1b:1c:ac:74:a6:4a:c8:fd:d9:15:75:d5:f1:26:
         10:7f:30:17:09:57:f0:a7:00:1d:c5:6e:a7:91:be:2f:ac:08:
         74:b6:76:71
-----BEGIN CERTIFICATE-----
MIIDbzCCAlegAwIBAgIQRpDDV4ky5zojPYO1XrH6iDANBgkqhkiG9w0BAQsFADAU
MRIwEAYDVQQDDAl0ZWFtOC1uZXQwHhcNMjEwOTEyMjI0NTAyWhcNMjQwODI3MjI0
NTAyWjAXMRUwEwYDVQQDDAx0ZWFtOC1zZXJ2ZXIwggEiMA0GCSqGSIb3DQEBAQUA
A4IBDwAwggEKAoIBAQDkCvypwIDBR8CiroQOcNAnVVeIMr9A3mMmbeg3dkIgKPww
0fpAHp33a2JFQk1784dYVh/CkwTYb9vQ/dSpnjRcWK/bwsutP5WqQMbjfgPtNRT+
P2aNXVvzyn94Dw9LESJ4a/nyFskG0adxtxUakl23iF6h2hqwiNgxHlgzTn++C0tm
puXCT2VrltRJtMNyxOswN/fWpsCz3AKSvTfMO+3tcTs/gotcnF1ImFJ8CwJ1fJm6
XPck7msQ4SQNPjiYLzKOw9S6jgwic+dvDtnwNM2gSKuiIGx4LhG5tTgZfoEcc9l0
VTaG9HDqhS1PHb3GDA5T6sQtfMf9BLOCYz/J6Zk3AgMBAAGjgbkwgbYwCQYDVR0T
BAIwADAdBgNVHQ4EFgQUrOSGlwrH5McXfgbDlCFU7DzU+MIwTwYDVR0jBEgwRoAU
fEba2WjhV79tVzPUxGO7ntZlRuKhGKQWMBQxEjAQBgNVBAMMCXRlYW04LW5ldIIU
Ho8UaqCt+Eg/7g48tRr/xcOt0PMwEwYDVR0lBAwwCgYIKwYBBQUHAwEwCwYDVR0P
BAQDAgWgMBcGA1UdEQQQMA6CDHRlYW04LXNlcnZlcjANBgkqhkiG9w0BAQsFAAOC
AQEAoQAyahBaiA9XJ91Pwgex1qHOt7FGX0NDiEVz2/YAwaefim5s9MwlQc1QcKAm
7AcvAiPrwFDP1iUKENLkRpi77vVqJIjj6emzCufomr4u52mBja+UPaF+S3xOckWj
ObPnbNzxYfcvbIclwaDnRIpwiiGwauUTBIkTVnq+5ERZF+ga4lgo3ix2UkDC4LUo
PAzFknvdttrN6vbQc/c4i3vEAYFyieyj8TO9OoDxjo8BJolwyR7ZkPmYG8TQgCMM
fVU2mjGZIGcuNBR9KtJqjvvrhAzhRbynuqLNclNRIBscrHSmSsj92RV11fEmEH8w
FwlX8KcAHcVup5G+L6wIdLZ2cQ==
-----END CERTIFICATE-----
