Certificate:
    Data:
        Version: 3 (0x2)
        Serial Number:
            66:4f:1f:2a:ed:2f:a8:d1:4b:5e:10:13:23:98:a5:08
        Signature Algorithm: sha256WithRSAEncryption
        Issuer: CN=team754-net
        Validity
            Not Before: Sep 13 05:15:52 2021 GMT
            Not After : Aug 28 05:15:52 2024 GMT
        Subject: CN=team754-client
        Subject Public Key Info:
            Public Key Algorithm: rsaEncryption
                RSA Public-Key: (2048 bit)
                Modulus:
                    00:c3:4b:ba:a1:91:31:09:3f:d0:f5:92:fb:d6:e7:
                    4d:4b:a7:96:3e:7a:99:b8:16:17:9b:ec:b8:8e:07:
                    9b:01:fa:f3:f5:4c:17:6e:a2:cc:6b:6b:56:bf:f0:
                    c7:33:e8:4a:01:66:b5:59:4c:0b:47:15:b4:67:9d:
                    42:62:c2:41:49:ae:94:cc:64:be:b2:01:4a:5e:f7:
                    e2:40:78:c9:6f:37:ac:39:e0:00:fa:80:96:37:34:
                    ec:d6:5e:12:8a:ef:32:d2:0b:1d:e5:50:40:a1:a7:
                    9a:8c:24:41:34:b4:20:2e:93:83:d2:16:ff:3f:b7:
                    06:a0:05:eb:4a:b6:f8:04:ef:5b:34:03:22:03:88:
                    40:85:15:8e:d6:7d:9a:df:31:fc:53:af:fe:af:a1:
                    0f:04:c3:b5:98:2c:bb:d5:62:41:c2:be:d8:95:53:
                    3a:c9:72:f8:89:d7:92:45:a3:86:36:b3:64:21:59:
                    20:22:39:ad:6c:c1:bf:64:88:d2:2c:25:1f:52:e2:
                    69:da:6f:4c:b2:5e:b9:dd:5c:fd:8f:d0:1b:dd:88:
                    e2:56:12:45:32:41:51:a1:94:54:da:d4:82:ab:cd:
                    a8:e7:5d:54:2a:87:30:a7:1e:e5:99:c6:5e:9b:71:
                    07:bb:f4:32:60:33:0e:c9:35:7c:59:29:ba:42:3f:
                    e4:c1
                Exponent: 65537 (0x10001)
        X509v3 extensions:
            X509v3 Basic Constraints: 
                CA:FALSE
            X509v3 Subject Key Identifier: 
                F2:8D:6A:2A:E5:BE:85:EF:DD:21:80:C6:13:B9:02:AA:DE:35:B5:CA
            X509v3 Authority Key Identifier: 
                keyid:60:64:76:92:F2:8F:1C:35:3A:3F:6B:0D:68:84:5F:B8:0C:E9:1F:3D
                DirName:/CN=team754-net
                serial:53:84:60:07:ED:7D:32:9F:D7:2B:94:28:0C:BA:F1:90:D6:D0:5F:D6

            X509v3 Extended Key Usage: 
                TLS Web Client Authentication
            X509v3 Key Usage: 
                Digital Signature
    Signature Algorithm: sha256WithRSAEncryption
         92:41:96:ef:b9:a4:16:a7:0e:f8:7b:89:47:cc:15:64:6f:91:
         6a:bd:c2:a3:b1:d4:77:63:4b:44:3d:87:8c:84:69:41:69:c7:
         e2:12:33:c1:74:1a:dc:84:dd:f5:be:de:56:70:ea:39:4a:f4:
         b0:0d:52:4c:dc:6b:04:a7:ba:14:8b:c9:3f:05:07:46:72:15:
         80:72:fe:10:f7:48:3c:fe:f8:8b:94:c4:8b:23:77:f9:1d:0a:
         77:e4:28:a4:d0:03:0a:f5:01:e3:87:ec:4c:11:9d:3a:db:25:
         22:d4:df:15:90:fb:4a:45:49:da:e2:84:a1:04:35:76:12:11:
         04:42:19:a0:8d:1a:df:d9:76:35:f8:04:d9:ba:d3:01:ee:30:
         7e:f1:37:b9:fd:4c:1a:f6:dd:9a:96:bd:32:aa:c6:49:29:80:
         66:80:72:35:c8:06:ef:12:e4:64:fd:fb:88:61:94:f5:ca:cd:
         4e:36:b5:e4:0a:88:a9:0f:5c:04:da:64:bd:9d:57:a5:e3:f6:
         56:8a:70:69:82:14:b2:90:68:10:e9:e7:cb:6d:01:0f:67:f7:
         15:7a:da:dd:0a:ee:7c:4f:64:79:72:e4:ed:9c:46:d8:7d:a7:
         6a:6d:a3:dd:60:a2:04:e4:90:67:bd:96:2d:a2:a2:5c:ac:40:
         a6:39:e1:98
-----BEGIN CERTIFICATE-----
MIIDXDCCAkSgAwIBAgIQZk8fKu0vqNFLXhATI5ilCDANBgkqhkiG9w0BAQsFADAW
MRQwEgYDVQQDDAt0ZWFtNzU0LW5ldDAeFw0yMTA5MTMwNTE1NTJaFw0yNDA4Mjgw
NTE1NTJaMBkxFzAVBgNVBAMMDnRlYW03NTQtY2xpZW50MIIBIjANBgkqhkiG9w0B
AQEFAAOCAQ8AMIIBCgKCAQEAw0u6oZExCT/Q9ZL71udNS6eWPnqZuBYXm+y4jgeb
Afrz9UwXbqLMa2tWv/DHM+hKAWa1WUwLRxW0Z51CYsJBSa6UzGS+sgFKXvfiQHjJ
bzesOeAA+oCWNzTs1l4Siu8y0gsd5VBAoaeajCRBNLQgLpOD0hb/P7cGoAXrSrb4
BO9bNAMiA4hAhRWO1n2a3zH8U6/+r6EPBMO1mCy71WJBwr7YlVM6yXL4ideSRaOG
NrNkIVkgIjmtbMG/ZIjSLCUfUuJp2m9Msl653Vz9j9Ab3YjiVhJFMkFRoZRU2tSC
q82o511UKocwpx7lmcZem3EHu/QyYDMOyTV8WSm6Qj/kwQIDAQABo4GiMIGfMAkG
A1UdEwQCMAAwHQYDVR0OBBYEFPKNairlvoXv3SGAxhO5AqreNbXKMFEGA1UdIwRK
MEiAFGBkdpLyjxw1Oj9rDWiEX7gM6R89oRqkGDAWMRQwEgYDVQQDDAt0ZWFtNzU0
LW5ldIIUU4RgB+19Mp/XK5QoDLrxkNbQX9YwEwYDVR0lBAwwCgYIKwYBBQUHAwIw
CwYDVR0PBAQDAgeAMA0GCSqGSIb3DQEBCwUAA4IBAQCSQZbvuaQWpw74e4lHzBVk
b5FqvcKjsdR3Y0tEPYeMhGlBacfiEjPBdBrchN31vt5WcOo5SvSwDVJM3GsEp7oU
i8k/BQdGchWAcv4Q90g8/viLlMSLI3f5HQp35Cik0AMK9QHjh+xMEZ062yUi1N8V
kPtKRUna4oShBDV2EhEEQhmgjRrf2XY1+ATZutMB7jB+8Te5/Uwa9t2alr0yqsZJ
KYBmgHI1yAbvEuRk/fuIYZT1ys1ONrXkCoipD1wE2mS9nVel4/ZWinBpghSykGgQ
6efLbQEPZ/cVetrdCu58T2R5cuTtnEbYfadqbaPdYKIE5JBnvZYtoqJcrECmOeGY
-----END CERTIFICATE-----
