Certificate:
    Data:
        Version: 3 (0x2)
        Serial Number:
            ec:ca:6b:c6:96:c9:e6:fc:94:54:41:3b:85:b2:66:90
        Signature Algorithm: sha256WithRSAEncryption
        Issuer: CN=team230-net
        Validity
            Not Before: Sep 13 00:52:42 2021 GMT
            Not After : Aug 28 00:52:42 2024 GMT
        Subject: CN=team230-server
        Subject Public Key Info:
            Public Key Algorithm: rsaEncryption
                RSA Public-Key: (2048 bit)
                Modulus:
                    00:cb:68:99:bc:90:eb:72:a4:1b:9e:74:87:e9:f3:
                    f5:af:e4:ed:20:18:8e:23:1e:06:53:be:1c:db:ba:
                    5a:e8:49:cd:fa:a2:df:cd:95:09:d6:5b:3a:48:3a:
                    ac:03:d9:c3:9b:02:0e:f8:40:89:e3:0e:5a:91:eb:
                    67:e6:ae:5a:cd:2f:dc:95:ef:31:41:4d:d2:26:20:
                    14:dc:cd:5a:96:60:ab:97:89:e5:10:63:f1:2d:6e:
                    4f:5b:bb:92:92:0f:87:1a:2b:c2:31:40:28:51:70:
                    13:63:9b:da:0d:dd:03:c6:3b:1d:39:ec:c5:2e:93:
                    7e:ce:f5:cd:9f:b5:fe:f5:9a:a9:da:20:f5:cc:df:
                    ca:d7:c4:0a:d1:0c:8e:fc:25:f4:86:cb:e0:ad:d5:
                    d1:f3:42:f5:3f:0f:ca:e5:d2:d0:35:49:d1:a4:b2:
                    61:cb:be:89:cf:7d:63:5e:7d:d5:cc:6d:f9:d2:07:
                    f7:d8:45:11:3a:67:ac:dd:b6:03:a2:2f:77:44:39:
                    69:e8:44:ca:c3:29:11:e4:47:e6:b3:67:cd:53:55:
                    5d:e4:ea:5a:b5:30:54:60:bf:58:04:d7:ad:d1:fd:
                    bd:b5:c8:91:d5:87:5c:93:8c:0a:50:e7:18:73:00:
                    37:ef:f6:e4:44:c5:44:fb:2c:50:26:fd:a7:cd:7e:
                    4e:45
                Exponent: 65537 (0x10001)
        X509v3 extensions:
            X509v3 Basic Constraints: 
                CA:FALSE
            X509v3 Subject Key Identifier: 
                B4:88:5F:FF:D7:61:36:25:FC:EA:6C:BD:62:4D:BC:E7:73:52:5A:52
            X509v3 Authority Key Identifier: 
                keyid:E1:3F:D0:36:32:EC:0A:D6:5B:D4:99:05:71:1E:A8:3C:1F:B8:4E:DC
                DirName:/CN=team230-net
                serial:4F:99:16:79:71:B0:68:63:32:E1:C0:28:82:AF:23:DF:5D:9E:38:D5

            X509v3 Extended Key Usage: 
                TLS Web Server Authentication
            X509v3 Key Usage: 
                Digital Signature, Key Encipherment
            X509v3 Subject Alternative Name: 
                DNS:team230-server
    Signature Algorithm: sha256WithRSAEncryption
         3c:3a:c4:ce:75:60:62:e6:00:24:9f:a9:56:f4:7b:62:44:2e:
         f9:ca:e7:0d:b1:48:e2:0e:8e:86:8b:17:56:3b:b2:83:bc:d8:
         56:b7:24:23:62:1a:92:c6:24:65:17:99:93:c3:1a:7c:ba:e4:
         c8:51:a5:94:20:e6:71:c0:47:2e:5c:c2:0e:a4:f8:12:74:5c:
         5f:46:1a:50:c8:1c:9a:89:5e:e5:0a:b0:f7:42:2d:91:82:c0:
         23:a3:b8:46:7c:db:92:7e:e9:92:3b:81:d4:3d:45:66:b7:82:
         b6:70:57:b0:aa:4f:84:8e:44:0c:11:5a:45:5e:a1:20:b4:f9:
         bb:95:43:d2:22:42:19:9f:cb:fb:d2:ec:1a:f7:a5:d3:75:b2:
         dc:f9:8a:72:83:04:68:90:d9:8b:e9:01:ca:3f:2c:92:cb:10:
         80:da:92:23:88:52:23:3c:67:5c:7c:93:92:50:4a:77:7e:99:
         b7:70:8e:6c:a5:74:8b:7b:fd:2d:c4:34:a2:39:e2:b9:23:d7:
         6c:1d:12:a6:c6:4a:16:52:1c:57:24:97:35:aa:90:9d:5c:73:
         5a:b5:5b:99:47:35:c5:4c:95:3d:a2:b8:c1:94:a1:38:6b:7d:
         59:c6:27:69:50:c3:ce:c8:08:c9:0a:b8:bc:c6:05:2b:1e:a3:
         bd:08:1a:19
-----BEGIN CERTIFICATE-----
MIIDeDCCAmCgAwIBAgIRAOzKa8aWyeb8lFRBO4WyZpAwDQYJKoZIhvcNAQELBQAw
FjEUMBIGA1UEAwwLdGVhbTIzMC1uZXQwHhcNMjEwOTEzMDA1MjQyWhcNMjQwODI4
MDA1MjQyWjAZMRcwFQYDVQQDDA50ZWFtMjMwLXNlcnZlcjCCASIwDQYJKoZIhvcN
AQEBBQADggEPADCCAQoCggEBAMtombyQ63KkG550h+nz9a/k7SAYjiMeBlO+HNu6
WuhJzfqi382VCdZbOkg6rAPZw5sCDvhAieMOWpHrZ+auWs0v3JXvMUFN0iYgFNzN
WpZgq5eJ5RBj8S1uT1u7kpIPhxorwjFAKFFwE2Ob2g3dA8Y7HTnsxS6Tfs71zZ+1
/vWaqdog9czfytfECtEMjvwl9IbL4K3V0fNC9T8PyuXS0DVJ0aSyYcu+ic99Y159
1cxt+dIH99hFETpnrN22A6Ivd0Q5aehEysMpEeRH5rNnzVNVXeTqWrUwVGC/WATX
rdH9vbXIkdWHXJOMClDnGHMAN+/25ETFRPssUCb9p81+TkUCAwEAAaOBvTCBujAJ
BgNVHRMEAjAAMB0GA1UdDgQWBBS0iF//12E2JfzqbL1iTbznc1JaUjBRBgNVHSME
SjBIgBThP9A2MuwK1lvUmQVxHqg8H7hO3KEapBgwFjEUMBIGA1UEAwwLdGVhbTIz
MC1uZXSCFE+ZFnlxsGhjMuHAKIKvI99dnjjVMBMGA1UdJQQMMAoGCCsGAQUFBwMB
MAsGA1UdDwQEAwIFoDAZBgNVHREEEjAQgg50ZWFtMjMwLXNlcnZlcjANBgkqhkiG
9w0BAQsFAAOCAQEAPDrEznVgYuYAJJ+pVvR7YkQu+crnDbFI4g6OhosXVjuyg7zY
VrckI2IaksYkZReZk8MafLrkyFGllCDmccBHLlzCDqT4EnRcX0YaUMgcmole5Qqw
90ItkYLAI6O4Rnzbkn7pkjuB1D1FZreCtnBXsKpPhI5EDBFaRV6hILT5u5VD0iJC
GZ/L+9LsGvel03Wy3PmKcoMEaJDZi+kByj8skssQgNqSI4hSIzxnXHyTklBKd36Z
t3CObKV0i3v9LcQ0ojniuSPXbB0SpsZKFlIcVySXNaqQnVxzWrVbmUc1xUyVPaK4
wZShOGt9WcYnaVDDzsgIyQq4vMYFKx6jvQgaGQ==
-----END CERTIFICATE-----
