Certificate:
    Data:
        Version: 3 (0x2)
        Serial Number:
            a3:52:ed:f1:d2:2f:8d:29:d7:56:cb:07:cf:51:0a:51
        Signature Algorithm: sha256WithRSAEncryption
        Issuer: CN=team225-net
        Validity
            Not Before: Sep 13 00:51:21 2021 GMT
            Not After : Aug 28 00:51:21 2024 GMT
        Subject: CN=team225-server
        Subject Public Key Info:
            Public Key Algorithm: rsaEncryption
                RSA Public-Key: (2048 bit)
                Modulus:
                    00:ef:f9:ba:6c:22:f2:38:ff:34:be:96:88:ba:a4:
                    ff:3f:4c:cb:a6:d8:91:2e:14:c7:a0:41:f1:8e:50:
                    fd:04:8b:08:59:b4:c7:01:41:09:a0:0b:0c:ab:8b:
                    42:59:fb:14:2e:1c:33:f6:71:4e:30:6d:2b:92:06:
                    d5:ec:bb:ce:b4:40:21:ea:dd:ac:e9:ee:ea:25:dc:
                    89:9e:4a:d1:9d:f1:59:ba:5a:a4:98:96:0e:9c:31:
                    14:ca:5f:56:12:6b:b6:49:ae:f8:1d:c5:d8:c7:72:
                    1a:02:aa:6b:d4:7f:71:7b:d5:d6:0e:77:12:2e:7c:
                    b3:9e:b1:40:dd:64:6b:15:95:0d:a6:9c:a5:6b:76:
                    c9:7a:c9:4a:f5:09:ed:af:08:86:da:7f:9d:54:c7:
                    31:a3:6a:4e:12:33:57:e4:e0:22:84:39:6d:91:8d:
                    83:37:2a:1e:13:f6:78:fe:18:e3:3d:97:3d:cb:0f:
                    32:7b:95:27:c3:e7:94:ff:c3:6e:99:42:12:dc:af:
                    f7:51:c7:dc:c4:1a:8d:42:70:fe:f3:35:a1:cf:1c:
                    c9:46:1c:ec:56:0a:2a:25:98:ef:49:f0:ba:4e:67:
                    72:11:10:cb:df:54:13:50:25:28:64:a5:c0:b3:e6:
                    c2:92:6f:9a:b1:35:c4:13:a8:26:3b:4f:3d:c4:65:
                    4e:51
                Exponent: 65537 (0x10001)
        X509v3 extensions:
            X509v3 Basic Constraints: 
                CA:FALSE
            X509v3 Subject Key Identifier: 
                2D:67:AC:00:8C:22:29:17:60:7D:78:8B:A7:96:A2:4B:3B:68:9B:94
            X509v3 Authority Key Identifier: 
                keyid:A8:DB:8B:B5:0F:65:F6:FA:BD:E1:6D:64:02:A5:53:2E:D7:20:43:7C
                DirName:/CN=team225-net
                serial:40:B5:7E:DF:9B:DF:14:21:B0:18:AA:B1:DB:F7:27:C4:D4:A8:AE:B9

            X509v3 Extended Key Usage: 
                TLS Web Server Authentication
            X509v3 Key Usage: 
                Digital Signature, Key Encipherment
            X509v3 Subject Alternative Name: 
                DNS:team225-server
    Signature Algorithm: sha256WithRSAEncryption
         62:1c:2f:b2:06:4d:88:40:34:e5:22:73:89:c5:e2:2b:4d:c4:
         b3:ca:a4:db:45:df:e0:8d:9d:8e:4c:bd:40:dc:7f:42:85:89:
         d6:0a:c6:0f:37:3d:e3:5c:a9:80:da:40:1d:2d:f9:77:33:9e:
         3e:4c:a0:b0:95:21:1f:32:92:c2:b6:75:e5:35:59:69:4f:44:
         bc:1f:97:26:43:f9:0f:1c:d6:a3:26:8d:c1:74:e3:e0:81:6c:
         cf:06:82:22:15:bf:bc:19:6d:4c:6e:33:f6:af:17:3d:7b:0b:
         7e:05:65:9f:fb:36:9a:e2:2a:67:2a:d2:38:8b:ad:ef:a3:a2:
         79:bd:d1:2c:be:bd:ca:15:c9:9b:e7:7a:b9:57:9f:5e:1e:0f:
         d0:42:f5:f4:f7:6c:ec:74:31:f8:a6:b3:5b:10:a6:0b:80:85:
         9e:83:c3:84:8a:6b:70:26:0b:12:1e:31:24:45:d7:78:de:e2:
         dc:1f:c1:0b:a9:67:a0:d7:e6:99:46:bb:45:0e:1a:e0:e5:2e:
         ce:1f:85:a1:7a:23:75:ff:2e:75:9b:83:17:69:73:47:86:e6:
         9a:0f:02:aa:90:b5:b7:09:89:93:4b:54:2c:08:d4:31:2b:23:
         8c:f9:f9:ae:d4:5e:0a:a2:d6:10:52:7a:cb:19:0c:3d:9a:e9:
         4f:95:a3:2b
-----BEGIN CERTIFICATE-----
MIIDeDCCAmCgAwIBAgIRAKNS7fHSL40p11bLB89RClEwDQYJKoZIhvcNAQELBQAw
FjEUMBIGA1UEAwwLdGVhbTIyNS1uZXQwHhcNMjEwOTEzMDA1MTIxWhcNMjQwODI4
MDA1MTIxWjAZMRcwFQYDVQQDDA50ZWFtMjI1LXNlcnZlcjCCASIwDQYJKoZIhvcN
AQEBBQADggEPADCCAQoCggEBAO/5umwi8jj/NL6WiLqk/z9My6bYkS4Ux6BB8Y5Q
/QSLCFm0xwFBCaALDKuLQln7FC4cM/ZxTjBtK5IG1ey7zrRAIerdrOnu6iXciZ5K
0Z3xWbpapJiWDpwxFMpfVhJrtkmu+B3F2MdyGgKqa9R/cXvV1g53Ei58s56xQN1k
axWVDaacpWt2yXrJSvUJ7a8Ihtp/nVTHMaNqThIzV+TgIoQ5bZGNgzcqHhP2eP4Y
4z2XPcsPMnuVJ8PnlP/DbplCEtyv91HH3MQajUJw/vM1oc8cyUYc7FYKKiWY70nw
uk5nchEQy99UE1AlKGSlwLPmwpJvmrE1xBOoJjtPPcRlTlECAwEAAaOBvTCBujAJ
BgNVHRMEAjAAMB0GA1UdDgQWBBQtZ6wAjCIpF2B9eIunlqJLO2iblDBRBgNVHSME
SjBIgBSo24u1D2X2+r3hbWQCpVMu1yBDfKEapBgwFjEUMBIGA1UEAwwLdGVhbTIy
NS1uZXSCFEC1ft+b3xQhsBiqsdv3J8TUqK65MBMGA1UdJQQMMAoGCCsGAQUFBwMB
MAsGA1UdDwQEAwIFoDAZBgNVHREEEjAQgg50ZWFtMjI1LXNlcnZlcjANBgkqhkiG
9w0BAQsFAAOCAQEAYhwvsgZNiEA05SJzicXiK03Es8qk20Xf4I2djky9QNx/QoWJ
1grGDzc941ypgNpAHS35dzOePkygsJUhHzKSwrZ15TVZaU9EvB+XJkP5DxzWoyaN
wXTj4IFszwaCIhW/vBltTG4z9q8XPXsLfgVln/s2muIqZyrSOIut76Oieb3RLL69
yhXJm+d6uVefXh4P0EL19Pds7HQx+KazWxCmC4CFnoPDhIprcCYLEh4xJEXXeN7i
3B/BC6lnoNfmmUa7RQ4a4OUuzh+FoXojdf8udZuDF2lzR4bmmg8CqpC1twmJk0tU
LAjUMSsjjPn5rtReCqLWEFJ6yxkMPZrpT5WjKw==
-----END CERTIFICATE-----
