Certificate:
    Data:
        Version: 3 (0x2)
        Serial Number:
            53:a7:fc:90:9a:83:9f:4e:7a:4d:50:57:ae:d5:a0:78
        Signature Algorithm: sha256WithRSAEncryption
        Issuer: CN=team518-net
        Validity
            Not Before: Sep 13 03:28:59 2021 GMT
            Not After : Aug 28 03:28:59 2024 GMT
        Subject: CN=team518-server
        Subject Public Key Info:
            Public Key Algorithm: rsaEncryption
                RSA Public-Key: (2048 bit)
                Modulus:
                    00:e4:11:0b:16:43:16:38:50:ec:a3:4d:1b:e0:aa:
                    1f:4e:06:9c:35:0e:a1:4f:e4:55:4f:15:92:fa:56:
                    0c:43:30:81:1f:7b:d5:37:4c:b6:0a:5b:56:97:d2:
                    27:24:d5:91:54:28:a0:09:4f:18:66:63:3f:61:94:
                    fc:2d:ce:95:05:0e:56:45:3d:40:c3:14:94:51:39:
                    22:b7:2f:5e:8f:3b:9f:22:a1:59:72:d0:37:cb:f6:
                    40:5b:ae:b6:d8:29:06:10:3e:f2:25:dc:09:f5:10:
                    f6:c5:e1:9d:1e:d0:10:62:c8:a1:8c:25:8f:49:26:
                    78:de:07:81:56:39:9c:78:5d:25:32:1e:c2:e6:1b:
                    04:ee:fe:ef:5b:a1:49:46:2a:ee:0b:00:6e:a1:1e:
                    ad:6f:bf:b5:f5:50:85:dc:8f:ad:a8:23:ea:93:68:
                    fc:03:3b:a0:58:d1:0b:18:71:85:e3:46:99:12:f7:
                    ba:50:f5:7c:2e:3a:e5:81:06:fd:a2:e5:7f:9a:73:
                    b3:c5:13:ae:d1:9e:90:f4:9e:dc:c0:d0:f1:9b:a0:
                    89:8b:44:38:37:89:7b:99:31:1c:8e:85:45:77:e7:
                    16:51:c5:ee:21:c2:b1:07:b3:3d:e2:2d:a6:99:4f:
                    a6:f2:3b:83:c2:ac:b3:7e:dc:ad:ca:eb:03:56:7c:
                    dd:69
                Exponent: 65537 (0x10001)
        X509v3 extensions:
            X509v3 Basic Constraints: 
                CA:FALSE
            X509v3 Subject Key Identifier: 
                B1:27:7B:CB:57:F6:82:75:3C:D5:24:65:5F:4C:96:0B:11:81:89:44
            X509v3 Authority Key Identifier: 
                keyid:03:7D:88:B2:F1:B3:F2:83:8A:C7:09:14:FD:A6:78:80:71:E7:3E:D9
                DirName:/CN=team518-net
                serial:02:41:9E:A1:18:16:B9:C9:9C:81:D8:55:E6:D4:43:DF:42:DA:9E:43

            X509v3 Extended Key Usage: 
                TLS Web Server Authentication
            X509v3 Key Usage: 
                Digital Signature, Key Encipherment
            X509v3 Subject Alternative Name: 
                DNS:team518-server
    Signature Algorithm: sha256WithRSAEncryption
         3b:6f:de:ff:65:0b:3e:a1:72:c2:21:f5:f6:0c:11:7d:c5:b8:
         08:ce:c6:69:82:c0:fc:6f:29:8e:54:7a:e2:14:78:08:f7:17:
         af:69:74:b4:8b:aa:9b:3b:22:08:9b:f7:12:22:0a:51:6a:e4:
         02:a5:42:2f:c1:5a:ce:4b:e9:8e:07:dd:b2:c6:93:f8:1b:a1:
         89:9c:c1:5a:4c:4d:3b:40:74:7a:7e:d8:02:e6:23:97:2a:e9:
         81:b4:bd:6e:d8:47:20:ef:4c:30:f6:d1:3d:05:36:e8:0f:b2:
         97:26:c5:8f:64:27:94:94:b6:ce:c9:f0:99:6e:28:3f:b6:7e:
         35:d0:50:12:34:69:6f:5a:d9:40:27:aa:08:61:19:dc:0d:8c:
         52:f7:b1:32:05:e7:02:21:c2:0a:8d:d6:9d:14:6b:19:61:1f:
         85:ad:15:94:6f:aa:e2:c7:d1:c1:1a:3f:f8:95:f0:d1:f4:80:
         ee:ef:bd:35:d9:d7:17:95:24:f5:0e:66:90:dc:1a:f2:80:1a:
         71:3e:0d:f5:ba:b2:fa:1c:b5:53:2b:b6:d6:c6:3b:a5:c5:c3:
         8b:56:e6:af:47:15:ae:8f:c0:60:5a:60:ab:6f:ca:36:48:1d:
         22:04:ad:c9:04:26:66:51:21:f4:31:01:5a:07:83:5c:9f:9c:
         b2:49:6a:06
-----BEGIN CERTIFICATE-----
MIIDdzCCAl+gAwIBAgIQU6f8kJqDn056TVBXrtWgeDANBgkqhkiG9w0BAQsFADAW
MRQwEgYDVQQDDAt0ZWFtNTE4LW5ldDAeFw0yMTA5MTMwMzI4NTlaFw0yNDA4Mjgw
MzI4NTlaMBkxFzAVBgNVBAMMDnRlYW01MTgtc2VydmVyMIIBIjANBgkqhkiG9w0B
AQEFAAOCAQ8AMIIBCgKCAQEA5BELFkMWOFDso00b4KofTgacNQ6hT+RVTxWS+lYM
QzCBH3vVN0y2CltWl9InJNWRVCigCU8YZmM/YZT8Lc6VBQ5WRT1AwxSUUTkity9e
jzufIqFZctA3y/ZAW6622CkGED7yJdwJ9RD2xeGdHtAQYsihjCWPSSZ43geBVjmc
eF0lMh7C5hsE7v7vW6FJRiruCwBuoR6tb7+19VCF3I+tqCPqk2j8AzugWNELGHGF
40aZEve6UPV8LjrlgQb9ouV/mnOzxROu0Z6Q9J7cwNDxm6CJi0Q4N4l7mTEcjoVF
d+cWUcXuIcKxB7M94i2mmU+m8juDwqyzftytyusDVnzdaQIDAQABo4G9MIG6MAkG
A1UdEwQCMAAwHQYDVR0OBBYEFLEne8tX9oJ1PNUkZV9MlgsRgYlEMFEGA1UdIwRK
MEiAFAN9iLLxs/KDiscJFP2meIBx5z7ZoRqkGDAWMRQwEgYDVQQDDAt0ZWFtNTE4
LW5ldIIUAkGeoRgWucmcgdhV5tRD30LankMwEwYDVR0lBAwwCgYIKwYBBQUHAwEw
CwYDVR0PBAQDAgWgMBkGA1UdEQQSMBCCDnRlYW01MTgtc2VydmVyMA0GCSqGSIb3
DQEBCwUAA4IBAQA7b97/ZQs+oXLCIfX2DBF9xbgIzsZpgsD8bymOVHriFHgI9xev
aXS0i6qbOyIIm/cSIgpRauQCpUIvwVrOS+mOB92yxpP4G6GJnMFaTE07QHR6ftgC
5iOXKumBtL1u2Ecg70ww9tE9BTboD7KXJsWPZCeUlLbOyfCZbig/tn410FASNGlv
WtlAJ6oIYRncDYxS97EyBecCIcIKjdadFGsZYR+FrRWUb6rix9HBGj/4lfDR9IDu
77012dcXlST1DmaQ3BrygBpxPg31urL6HLVTK7bWxjulxcOLVuavRxWuj8BgWmCr
b8o2SB0iBK3JBCZmUSH0MQFaB4Ncn5yySWoG
-----END CERTIFICATE-----
