Certificate:
    Data:
        Version: 3 (0x2)
        Serial Number:
            41:c5:75:8d:44:5e:15:1f:29:c8:aa:01:e4:32:f1:a4
        Signature Algorithm: sha256WithRSAEncryption
        Issuer: CN=team40-net
        Validity
            Not Before: Sep 12 23:05:32 2021 GMT
            Not After : Aug 27 23:05:32 2024 GMT
        Subject: CN=team40-client
        Subject Public Key Info:
            Public Key Algorithm: rsaEncryption
                RSA Public-Key: (2048 bit)
                Modulus:
                    00:bf:2a:8b:f4:6f:80:a1:1a:d4:9f:df:6d:35:c4:
                    a7:29:78:1c:c2:6a:14:e3:55:7a:97:4b:6e:d0:e5:
                    19:11:dd:de:7c:73:a6:6c:78:c8:66:67:f1:d2:3b:
                    bd:06:4c:5e:f8:0d:f0:be:22:c8:9b:ab:59:02:9c:
                    59:1a:56:2e:db:37:be:6e:f6:44:41:d4:5c:a2:3f:
                    70:bd:da:48:fc:a7:c0:94:ea:ce:09:16:3e:43:b2:
                    ab:be:59:c5:c7:4b:2d:0f:19:07:36:e3:f9:c8:06:
                    0c:75:56:95:58:0d:65:a4:7d:76:96:62:29:66:4d:
                    6d:94:91:4c:96:71:d7:93:08:14:1c:18:c1:e2:27:
                    02:fe:69:d7:9d:32:ed:28:40:bd:00:08:1e:ec:ae:
                    46:6e:9c:f9:3d:c0:f7:67:b0:85:30:e5:08:9b:e0:
                    72:e2:b7:22:f0:01:c5:3d:40:24:ea:45:8e:c8:d9:
                    78:94:6a:b2:e9:62:6b:01:80:45:b2:24:47:ea:16:
                    7b:bb:4e:ed:df:9e:0f:02:8c:ed:08:d4:dc:30:c7:
                    96:a1:03:81:8a:21:5f:b6:df:16:32:e4:d9:34:0b:
                    f3:62:99:20:fc:5f:24:05:3f:18:c1:0e:f5:95:77:
                    6a:76:40:62:9d:c2:a7:91:9b:38:3a:50:c7:4d:7c:
                    83:d5
                Exponent: 65537 (0x10001)
        X509v3 extensions:
            X509v3 Basic Constraints: 
                CA:FALSE
            X509v3 Subject Key Identifier: 
                E9:C4:58:32:94:E2:EC:FE:EA:4E:68:76:BC:8D:CC:47:87:F5:AD:5F
            X509v3 Authority Key Identifier: 
                keyid:9E:C4:DF:F3:69:CB:56:52:2E:3F:66:FC:F6:5D:A5:E2:E6:00:DD:2E
                DirName:/CN=team40-net
                serial:1C:B3:96:B6:E2:F8:77:BA:61:F7:57:E4:FA:B4:4E:8B:7C:83:51:EC

            X509v3 Extended Key Usage: 
                TLS Web Client Authentication
            X509v3 Key Usage: 
                Digital Signature
    Signature Algorithm: sha256WithRSAEncryption
         6e:fd:03:26:32:ae:22:71:70:c9:69:3f:ca:a7:ad:ad:b8:13:
         e9:34:e5:83:96:da:d8:11:29:05:1d:e7:e1:35:1a:0a:b2:08:
         6e:97:20:0d:d5:56:ce:96:d5:f4:9a:27:a4:af:28:c2:4f:88:
         de:9f:74:fa:d9:be:3e:3d:7a:ef:57:96:ed:6b:b6:d4:13:a0:
         88:a9:e2:07:ca:1d:c4:1e:7b:2f:d2:87:3b:f1:60:73:f0:84:
         d6:1d:03:cd:eb:b0:9f:c4:28:c4:19:b4:23:de:e2:ba:7a:d8:
         b1:97:ba:8d:b4:0b:44:f4:d0:3b:de:8f:28:38:c3:5b:30:37:
         e1:f9:ae:9b:d2:27:d8:1d:57:a0:08:74:d8:b3:0f:70:f1:b8:
         04:0d:44:22:2f:60:bb:d0:b2:25:5d:62:d3:bf:f0:a5:fd:b8:
         cb:80:03:9e:55:46:0d:57:0b:e5:20:79:1a:c4:6f:0a:a2:b9:
         b3:a0:bb:41:f6:66:0f:c4:6f:0e:84:66:b2:94:47:99:c0:ac:
         49:b5:d1:75:1c:23:1d:e9:5e:f0:35:be:f1:b1:2e:23:e0:7b:
         ca:cc:6b:09:df:27:f9:7f:57:20:ff:e0:db:22:92:c3:91:88:
         b1:59:0c:b5:77:fc:81:4b:a3:46:61:e2:ac:9b:48:07:e6:d2:
         b9:27:02:9c
-----BEGIN CERTIFICATE-----
MIIDWTCCAkGgAwIBAgIQQcV1jUReFR8pyKoB5DLxpDANBgkqhkiG9w0BAQsFADAV
MRMwEQYDVQQDDAp0ZWFtNDAtbmV0MB4XDTIxMDkxMjIzMDUzMloXDTI0MDgyNzIz
MDUzMlowGDEWMBQGA1UEAwwNdGVhbTQwLWNsaWVudDCCASIwDQYJKoZIhvcNAQEB
BQADggEPADCCAQoCggEBAL8qi/RvgKEa1J/fbTXEpyl4HMJqFONVepdLbtDlGRHd
3nxzpmx4yGZn8dI7vQZMXvgN8L4iyJurWQKcWRpWLts3vm72REHUXKI/cL3aSPyn
wJTqzgkWPkOyq75ZxcdLLQ8ZBzbj+cgGDHVWlVgNZaR9dpZiKWZNbZSRTJZx15MI
FBwYweInAv5p150y7ShAvQAIHuyuRm6c+T3A92ewhTDlCJvgcuK3IvABxT1AJOpF
jsjZeJRqsuliawGARbIkR+oWe7tO7d+eDwKM7QjU3DDHlqEDgYohX7bfFjLk2TQL
82KZIPxfJAU/GMEO9ZV3anZAYp3Cp5GbODpQx018g9UCAwEAAaOBoTCBnjAJBgNV
HRMEAjAAMB0GA1UdDgQWBBTpxFgylOLs/upOaHa8jcxHh/WtXzBQBgNVHSMESTBH
gBSexN/zactWUi4/Zvz2XaXi5gDdLqEZpBcwFTETMBEGA1UEAwwKdGVhbTQwLW5l
dIIUHLOWtuL4d7ph91fk+rROi3yDUewwEwYDVR0lBAwwCgYIKwYBBQUHAwIwCwYD
VR0PBAQDAgeAMA0GCSqGSIb3DQEBCwUAA4IBAQBu/QMmMq4icXDJaT/Kp62tuBPp
NOWDltrYESkFHefhNRoKsghulyAN1VbOltX0miekryjCT4jen3T62b4+PXrvV5bt
a7bUE6CIqeIHyh3EHnsv0oc78WBz8ITWHQPN67CfxCjEGbQj3uK6etixl7qNtAtE
9NA73o8oOMNbMDfh+a6b0ifYHVegCHTYsw9w8bgEDUQiL2C70LIlXWLTv/Cl/bjL
gAOeVUYNVwvlIHkaxG8KormzoLtB9mYPxG8OhGaylEeZwKxJtdF1HCMd6V7wNb7x
sS4j4HvKzGsJ3yf5f1cg/+DbIpLDkYixWQy1d/yBS6NGYeKsm0gH5tK5JwKc
-----END CERTIFICATE-----
