Certificate:
    Data:
        Version: 3 (0x2)
        Serial Number:
            41:09:31:17:0d:29:b2:e3:cc:91:8e:80:a4:80:43:58
        Signature Algorithm: sha256WithRSAEncryption
        Issuer: CN=team22-net
        Validity
            Not Before: Sep 12 22:52:30 2021 GMT
            Not After : Aug 27 22:52:30 2024 GMT
        Subject: CN=team22-server
        Subject Public Key Info:
            Public Key Algorithm: rsaEncryption
                RSA Public-Key: (2048 bit)
                Modulus:
                    00:cf:b5:81:1c:ac:53:70:ce:5e:ee:cf:0c:0e:dd:
                    71:7e:42:70:6d:2c:62:c5:52:7c:af:29:e1:e7:fb:
                    ad:7a:8a:b3:7d:b6:9b:85:17:9b:a0:cb:ad:bf:97:
                    55:78:5f:0d:b2:00:47:3b:76:b1:42:e8:6a:f3:7e:
                    36:6d:b7:58:37:38:43:be:5e:dd:dc:79:55:b2:4b:
                    0e:70:e9:e4:bf:35:e8:f1:8f:62:33:a3:45:35:cd:
                    6a:4e:bc:ae:5e:07:86:98:50:64:82:60:8c:9d:90:
                    fd:be:20:24:69:9d:81:a7:92:63:3d:35:1d:10:50:
                    f4:35:13:8a:16:ad:d1:66:21:f1:d4:77:2a:53:25:
                    ad:c8:02:5e:16:74:0f:98:fd:ff:ac:36:d7:a9:42:
                    90:76:f4:2e:8c:54:82:c6:ed:60:be:c6:01:a3:2a:
                    97:fb:77:74:43:6d:7d:c8:bc:9d:75:b0:98:65:dd:
                    7b:e1:8d:32:a0:0d:27:9b:52:07:dc:c3:73:0c:6c:
                    81:83:fb:fc:2a:73:74:37:94:d5:36:cc:52:37:39:
                    5a:db:eb:22:48:44:c6:83:58:85:c0:a7:b8:d9:13:
                    ea:b7:9f:41:14:94:ab:50:2f:de:12:c3:3b:f0:b9:
                    05:ff:3f:60:f6:8b:f5:98:86:09:69:7a:9f:85:0b:
                    72:d5
                Exponent: 65537 (0x10001)
        X509v3 extensions:
            X509v3 Basic Constraints: 
                CA:FALSE
            X509v3 Subject Key Identifier: 
                64:8C:9A:38:75:9E:CF:9B:8A:9D:42:6B:A9:1E:A6:2B:FA:91:C2:BF
            X509v3 Authority Key Identifier: 
                keyid:10:BD:42:F6:C1:6F:76:1B:E6:9B:A3:5A:4D:A8:9A:88:D1:6B:E2:FC
                DirName:/CN=team22-net
                serial:46:82:FC:13:E4:F7:A6:67:15:6F:3F:3E:90:1C:81:24:91:D1:6B:62

            X509v3 Extended Key Usage: 
                TLS Web Server Authentication
            X509v3 Key Usage: 
                Digital Signature, Key Encipherment
            X509v3 Subject Alternative Name: 
                DNS:team22-server
    Signature Algorithm: sha256WithRSAEncryption
         8e:36:7f:64:2a:c0:62:9f:1e:62:aa:70:ab:e0:6a:03:26:eb:
         84:b2:a2:83:ad:3e:54:b6:b3:e1:7b:16:be:c9:95:dc:05:6e:
         1d:af:f0:21:41:5e:6a:03:51:a4:d1:4c:72:75:20:fd:04:26:
         ea:c0:ad:7b:11:76:23:66:3b:96:23:ec:f0:f7:46:c4:17:40:
         1d:da:bc:f6:3c:9b:ac:9b:93:45:2e:a6:8e:29:20:44:3a:14:
         ad:6a:1d:ac:03:8b:23:4a:ce:68:f1:f3:bf:e9:e9:bd:ff:91:
         be:22:76:02:35:52:d9:c1:49:d9:f6:39:4d:57:8e:1e:3a:60:
         62:02:ba:a5:6d:4f:d2:ea:16:13:21:7a:9d:ea:55:32:f0:42:
         69:6c:49:e7:2e:43:46:bb:e5:39:89:d3:5b:66:fd:97:ef:2b:
         0e:f5:a3:c8:ec:50:a1:f3:c4:37:c4:e3:20:a2:2d:41:f1:63:
         ed:59:60:2e:93:7d:d8:02:79:5c:30:6d:d4:b6:86:65:62:3f:
         7d:30:7a:33:9d:55:e7:b0:c2:80:c8:65:88:24:95:f7:bf:2d:
         ed:d5:0e:b9:15:87:43:bc:23:7c:81:e2:58:8e:f1:ba:4f:d8:
         0e:21:17:3c:4e:7a:a3:99:fd:fe:b3:d2:34:9b:a4:65:9c:8d:
         d4:8d:94:3a
-----BEGIN CERTIFICATE-----
MIIDczCCAlugAwIBAgIQQQkxFw0psuPMkY6ApIBDWDANBgkqhkiG9w0BAQsFADAV
MRMwEQYDVQQDDAp0ZWFtMjItbmV0MB4XDTIxMDkxMjIyNTIzMFoXDTI0MDgyNzIy
NTIzMFowGDEWMBQGA1UEAwwNdGVhbTIyLXNlcnZlcjCCASIwDQYJKoZIhvcNAQEB
BQADggEPADCCAQoCggEBAM+1gRysU3DOXu7PDA7dcX5CcG0sYsVSfK8p4ef7rXqK
s322m4UXm6DLrb+XVXhfDbIARzt2sULoavN+Nm23WDc4Q75e3dx5VbJLDnDp5L81
6PGPYjOjRTXNak68rl4HhphQZIJgjJ2Q/b4gJGmdgaeSYz01HRBQ9DUTihat0WYh
8dR3KlMlrcgCXhZ0D5j9/6w216lCkHb0LoxUgsbtYL7GAaMql/t3dENtfci8nXWw
mGXde+GNMqANJ5tSB9zDcwxsgYP7/CpzdDeU1TbMUjc5WtvrIkhExoNYhcCnuNkT
6refQRSUq1Av3hLDO/C5Bf8/YPaL9ZiGCWl6n4ULctUCAwEAAaOBuzCBuDAJBgNV
HRMEAjAAMB0GA1UdDgQWBBRkjJo4dZ7Pm4qdQmupHqYr+pHCvzBQBgNVHSMESTBH
gBQQvUL2wW92G+abo1pNqJqI0Wvi/KEZpBcwFTETMBEGA1UEAwwKdGVhbTIyLW5l
dIIURoL8E+T3pmcVbz8+kByBJJHRa2IwEwYDVR0lBAwwCgYIKwYBBQUHAwEwCwYD
VR0PBAQDAgWgMBgGA1UdEQQRMA+CDXRlYW0yMi1zZXJ2ZXIwDQYJKoZIhvcNAQEL
BQADggEBAI42f2QqwGKfHmKqcKvgagMm64SyooOtPlS2s+F7Fr7JldwFbh2v8CFB
XmoDUaTRTHJ1IP0EJurArXsRdiNmO5Yj7PD3RsQXQB3avPY8m6ybk0Uupo4pIEQ6
FK1qHawDiyNKzmjx87/p6b3/kb4idgI1UtnBSdn2OU1Xjh46YGICuqVtT9LqFhMh
ep3qVTLwQmlsSecuQ0a75TmJ01tm/ZfvKw71o8jsUKHzxDfE4yCiLUHxY+1ZYC6T
fdgCeVwwbdS2hmViP30wejOdVeewwoDIZYgklfe/Le3VDrkVh0O8I3yB4liO8bpP
2A4hFzxOeqOZ/f6z0jSbpGWcjdSNlDo=
-----END CERTIFICATE-----
