Certificate:
    Data:
        Version: 3 (0x2)
        Serial Number:
            f3:6e:d6:d7:23:9b:29:b6:53:8f:22:b4:91:40:80:07
        Signature Algorithm: sha256WithRSAEncryption
        Issuer: CN=team405-net
        Validity
            Not Before: Sep 13 02:26:51 2021 GMT
            Not After : Aug 28 02:26:51 2024 GMT
        Subject: CN=team405-client
        Subject Public Key Info:
            Public Key Algorithm: rsaEncryption
                RSA Public-Key: (2048 bit)
                Modulus:
                    00:9f:ea:aa:53:72:58:16:82:30:ff:56:3f:bb:8a:
                    bd:e0:a6:d4:e8:78:9e:d4:19:ef:dd:d5:ec:25:8e:
                    39:1f:db:b7:cf:35:9d:32:04:37:07:e6:19:0c:f5:
                    4d:8a:58:c6:fe:df:b4:f1:5d:ed:b6:e7:b8:07:61:
                    50:b9:0f:60:e7:32:1d:d2:cf:19:4b:2c:fe:11:10:
                    5b:47:b0:22:25:0c:99:3d:4a:6b:26:e1:05:99:69:
                    d2:1d:e7:13:0e:3c:ea:80:0a:5c:37:5c:f0:a4:51:
                    63:6d:54:03:61:20:09:70:40:73:6a:32:14:ed:92:
                    1e:9c:56:32:18:0a:58:6e:eb:77:57:2a:2b:33:6a:
                    5b:fc:97:77:db:db:dd:4e:ca:27:dd:74:30:d5:ef:
                    78:f9:ab:0d:15:1e:8f:7f:6d:49:81:67:cf:73:fd:
                    57:b8:39:59:7e:f6:70:eb:99:24:71:81:ff:a1:fa:
                    53:0e:53:43:12:9e:e6:41:88:a5:d2:27:b8:e4:e7:
                    ed:a1:91:ea:7a:04:27:1c:84:34:61:41:bd:b8:e7:
                    93:85:ee:f9:b1:be:f6:55:0c:48:11:7f:97:2f:9a:
                    a1:ff:53:44:84:ab:a6:bd:cc:a6:c1:10:09:8c:b3:
                    4c:ba:13:a1:36:13:17:5e:30:f8:bd:f2:f9:89:4f:
                    af:2b
                Exponent: 65537 (0x10001)
        X509v3 extensions:
            X509v3 Basic Constraints: 
                CA:FALSE
            X509v3 Subject Key Identifier: 
                58:56:57:90:97:F2:63:8D:32:93:AF:76:6D:3C:46:A2:82:8B:80:C4
            X509v3 Authority Key Identifier: 
                keyid:07:40:F6:AA:68:38:7C:90:D8:8D:14:D3:58:80:F9:29:DD:02:BB:54
                DirName:/CN=team405-net
                serial:5A:7B:E2:37:DA:93:62:41:89:1E:D8:5C:21:0E:F1:A9:01:08:03:36

            X509v3 Extended Key Usage: 
                TLS Web Client Authentication
            X509v3 Key Usage: 
                Digital Signature
    Signature Algorithm: sha256WithRSAEncryption
         40:37:b1:1b:f4:ed:f6:86:dc:1f:70:47:e3:11:ba:f4:0f:51:
         f5:95:b1:95:8b:15:6c:dc:89:f3:6e:b2:64:1f:34:f6:2a:d1:
         1e:ad:a2:4b:f2:c4:f1:6d:2a:be:f5:bb:5f:43:21:fa:55:ef:
         c9:ab:43:90:55:6e:d7:14:06:aa:8a:d5:67:c5:a1:a9:09:df:
         04:db:dd:07:0e:22:d4:c5:f4:4a:8c:34:af:37:cf:f2:d2:12:
         e5:bc:45:3b:8e:52:f3:3e:6c:2e:d0:23:80:9b:51:f3:49:e2:
         f0:cf:d7:c1:78:53:d9:92:10:1f:06:6e:90:c8:70:e2:0e:1e:
         df:cb:cd:65:4c:41:9c:df:93:b5:6a:da:2a:0a:99:2b:12:f7:
         7c:60:51:b3:2d:3a:3c:6b:04:a6:92:dd:2d:03:19:2b:b8:5e:
         2c:7f:0f:96:9b:8d:ef:3e:0a:ae:95:7c:bd:da:35:9d:f6:50:
         b9:d5:b4:a6:2a:61:72:2e:de:32:cc:72:69:63:2b:b0:9f:0a:
         aa:01:9c:0f:82:9e:df:e3:1c:db:81:d6:ad:2c:3a:7e:96:ce:
         ab:89:88:66:87:b1:0f:59:8f:d2:23:55:10:97:13:5d:d8:e2:
         34:07:32:9f:00:72:99:1b:70:6f:53:64:a4:59:68:bc:ec:de:
         a9:2f:48:b8
-----BEGIN CERTIFICATE-----
MIIDXTCCAkWgAwIBAgIRAPNu1tcjmym2U48itJFAgAcwDQYJKoZIhvcNAQELBQAw
FjEUMBIGA1UEAwwLdGVhbTQwNS1uZXQwHhcNMjEwOTEzMDIyNjUxWhcNMjQwODI4
MDIyNjUxWjAZMRcwFQYDVQQDDA50ZWFtNDA1LWNsaWVudDCCASIwDQYJKoZIhvcN
AQEBBQADggEPADCCAQoCggEBAJ/qqlNyWBaCMP9WP7uKveCm1Oh4ntQZ793V7CWO
OR/bt881nTIENwfmGQz1TYpYxv7ftPFd7bbnuAdhULkPYOcyHdLPGUss/hEQW0ew
IiUMmT1KaybhBZlp0h3nEw486oAKXDdc8KRRY21UA2EgCXBAc2oyFO2SHpxWMhgK
WG7rd1cqKzNqW/yXd9vb3U7KJ910MNXvePmrDRUej39tSYFnz3P9V7g5WX72cOuZ
JHGB/6H6Uw5TQxKe5kGIpdInuOTn7aGR6noEJxyENGFBvbjnk4Xu+bG+9lUMSBF/
ly+aof9TRISrpr3MpsEQCYyzTLoToTYTF14w+L3y+YlPrysCAwEAAaOBojCBnzAJ
BgNVHRMEAjAAMB0GA1UdDgQWBBRYVleQl/JjjTKTr3ZtPEaigouAxDBRBgNVHSME
SjBIgBQHQPaqaDh8kNiNFNNYgPkp3QK7VKEapBgwFjEUMBIGA1UEAwwLdGVhbTQw
NS1uZXSCFFp74jfak2JBiR7YXCEO8akBCAM2MBMGA1UdJQQMMAoGCCsGAQUFBwMC
MAsGA1UdDwQEAwIHgDANBgkqhkiG9w0BAQsFAAOCAQEAQDexG/Tt9obcH3BH4xG6
9A9R9ZWxlYsVbNyJ826yZB809irRHq2iS/LE8W0qvvW7X0Mh+lXvyatDkFVu1xQG
qorVZ8WhqQnfBNvdBw4i1MX0Sow0rzfP8tIS5bxFO45S8z5sLtAjgJtR80ni8M/X
wXhT2ZIQHwZukMhw4g4e38vNZUxBnN+TtWraKgqZKxL3fGBRsy06PGsEppLdLQMZ
K7heLH8PlpuN7z4KrpV8vdo1nfZQudW0piphci7eMsxyaWMrsJ8KqgGcD4Ke3+Mc
24HWrSw6fpbOq4mIZoexD1mP0iNVEJcTXdjiNAcynwBymRtwb1NkpFlovOzeqS9I
uA==
-----END CERTIFICATE-----
