Certificate:
    Data:
        Version: 3 (0x2)
        Serial Number:
            22:67:39:55:92:69:c8:51:e1:39:f8:c9:7e:b6:ed:94
        Signature Algorithm: sha256WithRSAEncryption
        Issuer: CN=team69-net
        Validity
            Not Before: Sep 12 23:14:41 2021 GMT
            Not After : Aug 27 23:14:41 2024 GMT
        Subject: CN=team69-client
        Subject Public Key Info:
            Public Key Algorithm: rsaEncryption
                RSA Public-Key: (2048 bit)
                Modulus:
                    00:a7:2d:f3:cd:d4:2f:19:49:18:3c:c7:5c:4b:6e:
                    57:7d:96:fb:57:09:a0:ec:bc:18:39:3c:56:05:e4:
                    bd:a4:40:1e:4d:29:42:b2:0c:9a:49:f2:29:87:c8:
                    06:52:71:03:25:82:74:97:2f:29:2e:7a:df:c8:e7:
                    23:a7:fb:92:ff:82:42:6c:6a:68:1b:6a:b1:38:58:
                    25:ef:69:8b:a7:97:3c:89:8e:3d:e9:e7:03:a5:f0:
                    cb:ca:d8:f0:fd:7a:d4:58:8e:4d:54:25:1c:5b:56:
                    9e:f2:ec:23:ad:3b:4b:61:d0:dc:8e:4a:c8:f3:98:
                    c0:bb:3b:74:59:2e:26:b8:93:4a:47:b7:a9:91:f1:
                    bc:b4:a6:36:c7:bf:52:fd:99:8c:51:c3:b2:c8:9e:
                    44:39:96:f2:01:be:aa:62:8f:a6:e3:24:09:52:4e:
                    e7:b9:e0:05:8f:b4:ed:1e:9d:40:dc:1c:32:eb:e0:
                    b2:58:49:95:07:1f:13:da:74:72:a5:5f:a7:b3:94:
                    e7:22:1c:82:0b:58:d6:30:ae:4a:d5:11:37:ce:1e:
                    03:04:fb:52:d3:54:a6:76:02:97:73:9e:60:2f:20:
                    d6:7d:fb:2c:e3:86:35:b6:4b:71:37:1c:19:de:c6:
                    e0:6d:76:ac:03:3f:2a:78:64:d2:58:d6:dd:4e:3a:
                    2f:c3
                Exponent: 65537 (0x10001)
        X509v3 extensions:
            X509v3 Basic Constraints: 
                CA:FALSE
            X509v3 Subject Key Identifier: 
                9B:74:D6:50:ED:E5:AA:6E:0E:4B:AB:22:E7:55:34:07:A2:3A:99:C3
            X509v3 Authority Key Identifier: 
                keyid:1A:7C:50:F0:B5:29:13:6B:86:8B:04:EA:FE:5A:B5:B0:AA:E3:79:77
                DirName:/CN=team69-net
                serial:57:5F:BC:E1:DB:BD:13:90:17:4F:7B:9A:2E:77:C3:66:FE:87:86:DA

            X509v3 Extended Key Usage: 
                TLS Web Client Authentication
            X509v3 Key Usage: 
                Digital Signature
    Signature Algorithm: sha256WithRSAEncryption
         8e:c7:38:c4:9e:50:e5:80:35:de:12:c8:a9:e7:e5:9a:85:5b:
         54:01:58:03:81:55:33:7a:46:b6:ad:8b:55:26:1b:a6:95:d6:
         76:5d:a8:0b:8f:ba:2d:07:c7:66:cb:c0:c6:1e:62:e4:0e:de:
         a4:24:3d:ce:66:e3:8e:91:d6:f6:09:2a:ad:07:a4:d5:a0:73:
         e5:77:56:74:ad:1d:74:e0:80:83:c1:c6:52:5e:79:17:dd:10:
         20:4f:76:22:46:23:bc:dc:9b:58:ea:b5:20:67:67:42:5e:b5:
         4a:30:47:81:35:16:03:77:0b:70:94:fc:c7:49:72:2f:ed:4c:
         24:a2:42:6b:0f:50:3f:0b:22:fe:29:f7:5e:34:fd:9d:4b:ef:
         44:73:39:81:ca:5c:86:05:8d:45:a9:a4:97:42:9c:91:53:fb:
         af:99:b9:bf:7f:86:df:2e:68:83:32:b5:79:4e:07:45:61:a6:
         98:39:ee:e7:4a:45:b1:d4:d0:f1:26:90:6a:13:35:5b:66:ff:
         12:54:8c:00:80:cc:e2:0e:cd:27:39:91:38:32:c1:dc:a6:3f:
         19:f9:0d:93:a1:45:79:3e:9a:fe:c8:6a:9b:f7:b2:05:89:60:
         f1:d4:4d:fb:70:91:3f:9e:27:e1:fb:1d:c0:7e:11:53:e0:8c:
         95:92:3c:c0
-----BEGIN CERTIFICATE-----
MIIDWTCCAkGgAwIBAgIQImc5VZJpyFHhOfjJfrbtlDANBgkqhkiG9w0BAQsFADAV
MRMwEQYDVQQDDAp0ZWFtNjktbmV0MB4XDTIxMDkxMjIzMTQ0MVoXDTI0MDgyNzIz
MTQ0MVowGDEWMBQGA1UEAwwNdGVhbTY5LWNsaWVudDCCASIwDQYJKoZIhvcNAQEB
BQADggEPADCCAQoCggEBAKct883ULxlJGDzHXEtuV32W+1cJoOy8GDk8VgXkvaRA
Hk0pQrIMmknyKYfIBlJxAyWCdJcvKS5638jnI6f7kv+CQmxqaBtqsThYJe9pi6eX
PImOPennA6Xwy8rY8P161FiOTVQlHFtWnvLsI607S2HQ3I5KyPOYwLs7dFkuJriT
Ske3qZHxvLSmNse/Uv2ZjFHDssieRDmW8gG+qmKPpuMkCVJO57ngBY+07R6dQNwc
MuvgslhJlQcfE9p0cqVfp7OU5yIcggtY1jCuStURN84eAwT7UtNUpnYCl3OeYC8g
1n37LOOGNbZLcTccGd7G4G12rAM/Knhk0ljW3U46L8MCAwEAAaOBoTCBnjAJBgNV
HRMEAjAAMB0GA1UdDgQWBBSbdNZQ7eWqbg5LqyLnVTQHojqZwzBQBgNVHSMESTBH
gBQafFDwtSkTa4aLBOr+WrWwquN5d6EZpBcwFTETMBEGA1UEAwwKdGVhbTY5LW5l
dIIUV1+84du9E5AXT3uaLnfDZv6HhtowEwYDVR0lBAwwCgYIKwYBBQUHAwIwCwYD
VR0PBAQDAgeAMA0GCSqGSIb3DQEBCwUAA4IBAQCOxzjEnlDlgDXeEsip5+WahVtU
AVgDgVUzeka2rYtVJhumldZ2XagLj7otB8dmy8DGHmLkDt6kJD3OZuOOkdb2CSqt
B6TVoHPld1Z0rR104ICDwcZSXnkX3RAgT3YiRiO83JtY6rUgZ2dCXrVKMEeBNRYD
dwtwlPzHSXIv7UwkokJrD1A/CyL+KfdeNP2dS+9EczmBylyGBY1FqaSXQpyRU/uv
mbm/f4bfLmiDMrV5TgdFYaaYOe7nSkWx1NDxJpBqEzVbZv8SVIwAgMziDs0nOZE4
MsHcpj8Z+Q2ToUV5Ppr+yGqb97IFiWDx1E37cJE/nifh+x3AfhFT4IyVkjzA
-----END CERTIFICATE-----
