Certificate:
    Data:
        Version: 3 (0x2)
        Serial Number:
            ae:2b:0e:19:bf:dc:fe:ca:30:e6:f6:dc:92:35:1c:7c
        Signature Algorithm: sha256WithRSAEncryption
        Issuer: CN=team607-net
        Validity
            Not Before: Sep 13 04:05:04 2021 GMT
            Not After : Aug 28 04:05:04 2024 GMT
        Subject: CN=team607-server
        Subject Public Key Info:
            Public Key Algorithm: rsaEncryption
                RSA Public-Key: (2048 bit)
                Modulus:
                    00:eb:90:cf:35:31:41:f6:23:26:da:d5:66:ba:16:
                    f0:3e:ce:b4:e7:96:fc:29:db:0d:9d:6b:98:f0:fc:
                    fa:4c:e1:c2:66:1d:16:7c:00:67:c2:2f:ef:10:7e:
                    1a:8b:15:43:ff:e4:d4:4c:c5:b1:66:48:e9:bc:2c:
                    ba:61:65:96:76:4f:ff:ca:73:22:e8:5e:97:19:c1:
                    b9:cb:48:6b:ab:5b:cb:4e:48:43:dc:8d:13:05:06:
                    f8:53:dc:19:14:72:6c:c2:73:07:e8:22:89:03:67:
                    e2:04:ec:8c:ee:dc:64:d6:1a:a0:f6:63:72:54:ed:
                    33:6b:f2:ec:ee:e4:04:be:27:a8:25:76:1a:ed:98:
                    4b:0a:74:69:e7:a2:c9:96:ee:b7:e0:d1:3c:84:03:
                    6e:a5:5f:6f:fd:6a:dc:9e:d5:2d:39:db:5e:6f:86:
                    ff:56:a0:69:fd:30:a1:11:27:77:71:d4:c7:d1:cd:
                    45:b0:47:da:f2:59:90:2c:6d:cc:35:c2:ab:bf:a3:
                    4a:14:dd:1c:6f:9a:f9:22:23:46:99:c9:8a:2d:9c:
                    1e:c7:7a:b4:72:c3:62:88:81:53:27:08:69:80:d6:
                    59:38:29:de:b5:1d:cb:79:8e:27:d0:e5:6f:e7:a0:
                    14:d7:2b:a0:44:ff:1a:7c:cc:c2:23:69:49:2f:95:
                    81:eb
                Exponent: 65537 (0x10001)
        X509v3 extensions:
            X509v3 Basic Constraints: 
                CA:FALSE
            X509v3 Subject Key Identifier: 
                FC:4F:52:13:E4:6B:9C:C4:C4:D0:86:FB:87:A1:A3:06:8E:06:C6:C1
            X509v3 Authority Key Identifier: 
                keyid:3F:8E:E9:D0:AC:3E:32:31:BB:DB:CB:98:80:40:57:FC:CD:46:7E:95
                DirName:/CN=team607-net
                serial:2C:2E:94:83:09:84:BD:31:11:65:AD:9C:59:9C:A0:AB:BA:25:E4:F7

            X509v3 Extended Key Usage: 
                TLS Web Server Authentication
            X509v3 Key Usage: 
                Digital Signature, Key Encipherment
            X509v3 Subject Alternative Name: 
                DNS:team607-server
    Signature Algorithm: sha256WithRSAEncryption
         23:42:91:bd:9e:d1:a0:40:87:f2:66:2d:2a:33:5d:50:b3:77:
         64:fd:a1:8a:da:39:a3:2f:31:ac:14:e0:b6:b8:3e:09:2b:63:
         8d:a7:67:89:2b:df:5b:f5:53:72:df:81:90:57:55:e6:01:a7:
         63:3e:ee:7a:9a:68:1a:83:37:05:a2:fc:89:79:10:b5:75:b6:
         da:9c:f7:ec:cd:77:46:9e:c7:f5:6c:7b:44:d0:a8:b2:71:6e:
         48:2a:d9:6d:30:a4:51:6c:df:7a:35:2f:52:8a:3b:be:8c:3d:
         da:cd:83:90:58:bc:0d:34:a0:11:af:fd:1c:a9:d2:d6:55:11:
         3d:ee:8c:44:ef:7c:89:50:75:a0:61:da:75:89:32:4c:9f:88:
         1f:f8:fa:4b:9f:a0:aa:49:e4:a2:f4:53:66:3b:74:a1:10:e9:
         1d:ee:c2:a4:ab:62:e2:eb:d2:c5:60:8d:7c:71:b0:d3:62:6f:
         eb:2f:d1:5e:56:cf:d9:c9:90:d0:b3:a2:d3:6f:ee:29:45:ff:
         7c:a4:d3:6c:94:44:a6:74:9c:4b:a7:3f:36:8a:e0:65:14:4d:
         28:dd:33:4b:f7:29:73:a0:52:77:d3:b8:5b:c8:ec:e9:4c:78:
         b5:52:51:bd:91:a3:c9:49:26:8d:7e:38:62:a2:51:27:4f:bc:
         61:5d:7e:47
-----BEGIN CERTIFICATE-----
MIIDeDCCAmCgAwIBAgIRAK4rDhm/3P7KMOb23JI1HHwwDQYJKoZIhvcNAQELBQAw
FjEUMBIGA1UEAwwLdGVhbTYwNy1uZXQwHhcNMjEwOTEzMDQwNTA0WhcNMjQwODI4
MDQwNTA0WjAZMRcwFQYDVQQDDA50ZWFtNjA3LXNlcnZlcjCCASIwDQYJKoZIhvcN
AQEBBQADggEPADCCAQoCggEBAOuQzzUxQfYjJtrVZroW8D7OtOeW/CnbDZ1rmPD8
+kzhwmYdFnwAZ8Iv7xB+GosVQ//k1EzFsWZI6bwsumFllnZP/8pzIuhelxnBuctI
a6tby05IQ9yNEwUG+FPcGRRybMJzB+giiQNn4gTsjO7cZNYaoPZjclTtM2vy7O7k
BL4nqCV2Gu2YSwp0aeeiyZbut+DRPIQDbqVfb/1q3J7VLTnbXm+G/1agaf0woREn
d3HUx9HNRbBH2vJZkCxtzDXCq7+jShTdHG+a+SIjRpnJii2cHsd6tHLDYoiBUycI
aYDWWTgp3rUdy3mOJ9Dlb+egFNcroET/GnzMwiNpSS+VgesCAwEAAaOBvTCBujAJ
BgNVHRMEAjAAMB0GA1UdDgQWBBT8T1IT5GucxMTQhvuHoaMGjgbGwTBRBgNVHSME
SjBIgBQ/junQrD4yMbvby5iAQFf8zUZ+laEapBgwFjEUMBIGA1UEAwwLdGVhbTYw
Ny1uZXSCFCwulIMJhL0xEWWtnFmcoKu6JeT3MBMGA1UdJQQMMAoGCCsGAQUFBwMB
MAsGA1UdDwQEAwIFoDAZBgNVHREEEjAQgg50ZWFtNjA3LXNlcnZlcjANBgkqhkiG
9w0BAQsFAAOCAQEAI0KRvZ7RoECH8mYtKjNdULN3ZP2hito5oy8xrBTgtrg+CStj
jadniSvfW/VTct+BkFdV5gGnYz7ueppoGoM3BaL8iXkQtXW22pz37M13Rp7H9Wx7
RNCosnFuSCrZbTCkUWzfejUvUoo7vow92s2DkFi8DTSgEa/9HKnS1lURPe6MRO98
iVB1oGHadYkyTJ+IH/j6S5+gqknkovRTZjt0oRDpHe7CpKti4uvSxWCNfHGw02Jv
6y/RXlbP2cmQ0LOi02/uKUX/fKTTbJREpnScS6c/NorgZRRNKN0zS/cpc6BSd9O4
W8js6Ux4tVJRvZGjyUkmjX44YqJRJ0+8YV1+Rw==
-----END CERTIFICATE-----
