Certificate:
    Data:
        Version: 3 (0x2)
        Serial Number:
            eb:0c:a5:a1:23:f2:25:4c:c6:d6:56:62:c5:11:50:4f
        Signature Algorithm: sha256WithRSAEncryption
        Issuer: CN=team607-net
        Validity
            Not Before: Sep 13 04:05:04 2021 GMT
            Not After : Aug 28 04:05:04 2024 GMT
        Subject: CN=team607-client
        Subject Public Key Info:
            Public Key Algorithm: rsaEncryption
                RSA Public-Key: (2048 bit)
                Modulus:
                    00:cf:0a:8c:7a:cd:21:f4:31:5a:dc:52:53:83:d2:
                    a0:96:3c:1a:e4:bc:59:ef:1d:e4:34:2a:17:57:c9:
                    f6:ae:81:ed:e1:b4:a3:5c:37:40:a6:5b:ee:d7:8a:
                    91:b1:b1:c6:0f:78:6d:83:73:56:cf:a2:df:28:35:
                    88:44:f1:2b:c5:53:3e:d6:44:b6:9c:fe:9f:fa:08:
                    43:b3:2c:17:c1:1a:20:25:91:3a:96:92:4b:06:3b:
                    dc:53:8d:1c:6a:53:5c:ba:89:b8:02:63:9d:91:85:
                    6d:08:b9:52:69:05:c6:ed:05:5a:f5:b7:bc:fa:c2:
                    c8:2d:08:88:fa:b6:36:ba:6c:9a:59:26:3e:50:03:
                    08:d9:7a:b9:40:9f:85:26:b5:ac:55:37:de:26:64:
                    da:0c:6c:3d:1b:d8:2c:76:76:ca:a7:72:56:97:1c:
                    94:ae:f6:56:b6:12:2d:16:cb:8d:a5:51:cb:a5:db:
                    e3:5a:45:62:16:0a:48:9d:2e:94:96:aa:df:e7:fc:
                    ae:90:0c:bd:2d:7c:fa:a5:f1:17:0f:8a:41:51:09:
                    1e:f3:a6:fb:ae:31:37:6e:5e:c9:bc:38:55:0f:1c:
                    b4:85:79:78:4b:b8:30:b0:ec:01:2f:58:84:f1:fb:
                    5a:1c:b3:6a:6a:a1:63:e2:2c:36:a1:40:98:09:60:
                    a7:d1
                Exponent: 65537 (0x10001)
        X509v3 extensions:
            X509v3 Basic Constraints: 
                CA:FALSE
            X509v3 Subject Key Identifier: 
                20:9B:8A:05:8E:61:EA:AD:8A:5D:74:18:1A:DB:43:E1:33:3F:FD:71
            X509v3 Authority Key Identifier: 
                keyid:3F:8E:E9:D0:AC:3E:32:31:BB:DB:CB:98:80:40:57:FC:CD:46:7E:95
                DirName:/CN=team607-net
                serial:2C:2E:94:83:09:84:BD:31:11:65:AD:9C:59:9C:A0:AB:BA:25:E4:F7

            X509v3 Extended Key Usage: 
                TLS Web Client Authentication
            X509v3 Key Usage: 
                Digital Signature
    Signature Algorithm: sha256WithRSAEncryption
         34:9e:8a:47:bb:98:ec:7a:3a:e8:07:39:df:da:30:6f:3e:f6:
         63:9b:87:2f:0d:35:56:0c:41:57:7a:cd:f9:98:a5:d4:ec:4b:
         3e:12:5c:b9:c3:9e:1e:d1:f2:71:90:05:a3:cb:18:05:5f:52:
         8b:60:38:dd:91:d4:0e:d9:6a:14:4c:4d:b2:8f:6a:b4:50:a2:
         89:7a:0a:ef:09:a2:36:d8:0b:bf:da:f8:06:e8:41:dd:69:75:
         6d:cd:9c:78:a7:24:c6:99:fc:0e:62:6b:46:a3:64:e8:ff:78:
         bf:51:3f:f6:78:cb:c9:b7:af:43:34:ea:14:3a:b1:b2:d5:c8:
         72:45:2f:30:20:87:9c:25:d0:33:de:02:64:84:0f:52:14:96:
         e1:d3:8f:1e:6b:54:99:cd:4d:2e:35:79:be:ae:68:de:95:5c:
         77:cc:2d:c3:6d:7d:fa:f6:8c:bb:65:b6:81:5e:fa:03:ac:ac:
         68:43:91:92:7d:42:c2:b2:e9:ff:cb:1d:af:50:dd:c8:c3:f4:
         34:ec:d5:eb:77:e2:05:bc:b4:40:d8:46:3a:46:ec:fd:75:4c:
         3a:fe:2c:bb:b6:e4:9c:be:c6:1b:7e:df:f7:be:40:2e:8e:0b:
         24:7e:08:92:9f:fe:13:fd:98:a7:ba:ae:20:8c:a8:96:bd:e2:
         60:4a:5a:ea
-----BEGIN CERTIFICATE-----
MIIDXTCCAkWgAwIBAgIRAOsMpaEj8iVMxtZWYsURUE8wDQYJKoZIhvcNAQELBQAw
FjEUMBIGA1UEAwwLdGVhbTYwNy1uZXQwHhcNMjEwOTEzMDQwNTA0WhcNMjQwODI4
MDQwNTA0WjAZMRcwFQYDVQQDDA50ZWFtNjA3LWNsaWVudDCCASIwDQYJKoZIhvcN
AQEBBQADggEPADCCAQoCggEBAM8KjHrNIfQxWtxSU4PSoJY8GuS8We8d5DQqF1fJ
9q6B7eG0o1w3QKZb7teKkbGxxg94bYNzVs+i3yg1iETxK8VTPtZEtpz+n/oIQ7Ms
F8EaICWROpaSSwY73FONHGpTXLqJuAJjnZGFbQi5UmkFxu0FWvW3vPrCyC0IiPq2
NrpsmlkmPlADCNl6uUCfhSa1rFU33iZk2gxsPRvYLHZ2yqdyVpcclK72VrYSLRbL
jaVRy6Xb41pFYhYKSJ0ulJaq3+f8rpAMvS18+qXxFw+KQVEJHvOm+64xN25eybw4
VQ8ctIV5eEu4MLDsAS9YhPH7WhyzamqhY+IsNqFAmAlgp9ECAwEAAaOBojCBnzAJ
BgNVHRMEAjAAMB0GA1UdDgQWBBQgm4oFjmHqrYpddBga20PhMz/9cTBRBgNVHSME
SjBIgBQ/junQrD4yMbvby5iAQFf8zUZ+laEapBgwFjEUMBIGA1UEAwwLdGVhbTYw
Ny1uZXSCFCwulIMJhL0xEWWtnFmcoKu6JeT3MBMGA1UdJQQMMAoGCCsGAQUFBwMC
MAsGA1UdDwQEAwIHgDANBgkqhkiG9w0BAQsFAAOCAQEANJ6KR7uY7Ho66Ac539ow
bz72Y5uHLw01VgxBV3rN+Zil1OxLPhJcucOeHtHycZAFo8sYBV9Si2A43ZHUDtlq
FExNso9qtFCiiXoK7wmiNtgLv9r4BuhB3Wl1bc2ceKckxpn8DmJrRqNk6P94v1E/
9njLybevQzTqFDqxstXIckUvMCCHnCXQM94CZIQPUhSW4dOPHmtUmc1NLjV5vq5o
3pVcd8wtw219+vaMu2W2gV76A6ysaEORkn1CwrLp/8sdr1DdyMP0NOzV63fiBby0
QNhGOkbs/XVMOv4su7bknL7GG37f975ALo4LJH4Ikp/+E/2Yp7quIIyolr3iYEpa
6g==
-----END CERTIFICATE-----
