Certificate:
    Data:
        Version: 3 (0x2)
        Serial Number:
            3d:af:8e:77:55:6b:36:71:8d:94:09:6c:b1:43:1b:64
        Signature Algorithm: sha256WithRSAEncryption
        Issuer: CN=team458-net
        Validity
            Not Before: Sep 13 02:53:53 2021 GMT
            Not After : Aug 28 02:53:53 2024 GMT
        Subject: CN=team458-server
        Subject Public Key Info:
            Public Key Algorithm: rsaEncryption
                RSA Public-Key: (2048 bit)
                Modulus:
                    00:e3:7d:2a:48:30:72:3e:b2:5f:3c:2f:63:51:cd:
                    3f:e4:2b:43:99:88:c4:4e:32:8a:90:5e:50:bf:88:
                    e4:d1:9a:ca:4f:4c:5c:54:b6:f1:fc:76:fd:fe:df:
                    44:92:62:91:ac:6d:c1:de:29:a1:54:26:f5:11:39:
                    63:53:e4:aa:02:8d:b5:3b:3c:f5:85:7e:67:97:eb:
                    27:ac:e9:10:8b:4f:4d:55:22:a4:32:d0:12:78:4f:
                    4d:5a:b8:a9:2c:ab:62:77:92:a6:f5:d5:4a:14:48:
                    8b:bc:ed:b0:7b:06:d2:1b:51:2c:03:5f:20:d5:9e:
                    2f:fb:40:f0:d7:59:b9:04:c7:1c:87:ec:c9:ff:1b:
                    28:dd:35:c5:1d:ef:09:e8:dc:d0:83:03:d1:a2:70:
                    b7:d2:92:ca:db:6a:37:3f:46:2f:5d:04:21:50:72:
                    a6:8c:81:15:1a:58:78:65:40:32:76:13:4c:73:27:
                    bf:ff:b2:c5:eb:93:26:60:a3:e0:51:7d:ad:9c:71:
                    7b:11:49:8d:57:6f:7d:52:42:ed:2e:cf:2f:da:10:
                    16:b6:29:a9:e5:69:ab:c7:e7:bc:88:ed:f3:14:dc:
                    d9:02:b6:f5:20:ed:83:95:f4:fe:d8:62:46:a7:0e:
                    c0:f1:5b:58:8f:0d:07:2d:b6:2b:fc:eb:7b:10:64:
                    2b:1d
                Exponent: 65537 (0x10001)
        X509v3 extensions:
            X509v3 Basic Constraints: 
                CA:FALSE
            X509v3 Subject Key Identifier: 
                A5:1B:A8:B5:1D:A0:F9:1E:71:D4:1A:3E:57:F8:29:BB:0E:B2:89:3A
            X509v3 Authority Key Identifier: 
                keyid:3E:8A:BC:02:9F:B9:A6:F8:61:2F:A8:FD:82:01:6B:19:21:35:B3:23
                DirName:/CN=team458-net
                serial:2C:7F:DF:91:90:D4:24:73:2B:9A:F9:7E:4A:63:8A:68:AD:13:BB:D3

            X509v3 Extended Key Usage: 
                TLS Web Server Authentication
            X509v3 Key Usage: 
                Digital Signature, Key Encipherment
            X509v3 Subject Alternative Name: 
                DNS:team458-server
    Signature Algorithm: sha256WithRSAEncryption
         79:32:2e:19:39:ff:58:f7:20:10:91:2d:9f:5a:19:0a:c5:83:
         14:4e:84:94:e3:ca:b2:cf:64:8a:8a:59:20:a7:3b:6a:11:2e:
         c8:b5:02:3a:4e:20:58:3b:bb:53:d4:be:0b:c7:3a:38:49:a8:
         6b:6e:c4:12:cd:e1:2a:15:81:82:ab:c6:ab:70:2a:df:be:b3:
         8a:6e:45:c1:2b:68:3a:04:a0:8d:84:39:28:ba:80:35:45:dc:
         9a:bb:06:5b:80:47:ba:70:1d:37:97:b9:12:74:35:81:2c:49:
         c6:c3:14:1a:45:1b:3b:1f:3e:b4:f2:29:ad:20:9e:03:81:35:
         83:73:22:33:df:8d:d5:29:8b:57:5f:34:5e:58:0b:ee:2e:e5:
         e9:d4:a5:35:b7:bb:b7:8f:d5:23:76:9a:50:de:d6:47:bd:20:
         c2:43:33:c3:cb:cc:b3:c5:9c:3d:db:3e:41:66:00:45:5f:88:
         9d:d0:f8:9b:25:71:0f:4d:c1:08:20:21:49:8e:62:87:b6:5e:
         c3:2d:61:7d:b3:32:17:3b:b5:f5:96:17:82:4d:a9:62:87:f6:
         ab:1d:08:8d:6e:6b:d3:59:da:ac:5a:9c:9e:f9:1a:43:9b:11:
         92:58:a9:1b:5a:8f:73:58:17:9b:a7:bd:03:b0:3d:c3:2c:14:
         69:27:71:2e
-----BEGIN CERTIFICATE-----
MIIDdzCCAl+gAwIBAgIQPa+Od1VrNnGNlAlssUMbZDANBgkqhkiG9w0BAQsFADAW
MRQwEgYDVQQDDAt0ZWFtNDU4LW5ldDAeFw0yMTA5MTMwMjUzNTNaFw0yNDA4Mjgw
MjUzNTNaMBkxFzAVBgNVBAMMDnRlYW00NTgtc2VydmVyMIIBIjANBgkqhkiG9w0B
AQEFAAOCAQ8AMIIBCgKCAQEA430qSDByPrJfPC9jUc0/5CtDmYjETjKKkF5Qv4jk
0ZrKT0xcVLbx/Hb9/t9EkmKRrG3B3imhVCb1ETljU+SqAo21Ozz1hX5nl+snrOkQ
i09NVSKkMtASeE9NWripLKtid5Km9dVKFEiLvO2wewbSG1EsA18g1Z4v+0Dw11m5
BMcch+zJ/xso3TXFHe8J6NzQgwPRonC30pLK22o3P0YvXQQhUHKmjIEVGlh4ZUAy
dhNMcye//7LF65MmYKPgUX2tnHF7EUmNV299UkLtLs8v2hAWtimp5Wmrx+e8iO3z
FNzZArb1IO2DlfT+2GJGpw7A8VtYjw0HLbYr/Ot7EGQrHQIDAQABo4G9MIG6MAkG
A1UdEwQCMAAwHQYDVR0OBBYEFKUbqLUdoPkecdQaPlf4KbsOsok6MFEGA1UdIwRK
MEiAFD6KvAKfuab4YS+o/YIBaxkhNbMjoRqkGDAWMRQwEgYDVQQDDAt0ZWFtNDU4
LW5ldIIULH/fkZDUJHMrmvl+SmOKaK0Tu9MwEwYDVR0lBAwwCgYIKwYBBQUHAwEw
CwYDVR0PBAQDAgWgMBkGA1UdEQQSMBCCDnRlYW00NTgtc2VydmVyMA0GCSqGSIb3
DQEBCwUAA4IBAQB5Mi4ZOf9Y9yAQkS2fWhkKxYMUToSU48qyz2SKilkgpztqES7I
tQI6TiBYO7tT1L4Lxzo4SahrbsQSzeEqFYGCq8arcCrfvrOKbkXBK2g6BKCNhDko
uoA1RdyauwZbgEe6cB03l7kSdDWBLEnGwxQaRRs7Hz608imtIJ4DgTWDcyIz343V
KYtXXzReWAvuLuXp1KU1t7u3j9UjdppQ3tZHvSDCQzPDy8yzxZw92z5BZgBFX4id
0PibJXEPTcEIICFJjmKHtl7DLWF9szIXO7X1lheCTalih/arHQiNbmvTWdqsWpye
+RpDmxGSWKkbWo9zWBebp70DsD3DLBRpJ3Eu
-----END CERTIFICATE-----
