Certificate:
    Data:
        Version: 3 (0x2)
        Serial Number:
            61:8f:cb:a1:fe:dc:fe:79:06:c1:61:e2:f0:58:3e:3a
        Signature Algorithm: sha256WithRSAEncryption
        Issuer: CN=team627-net
        Validity
            Not Before: Sep 13 04:38:39 2021 GMT
            Not After : Aug 28 04:38:39 2024 GMT
        Subject: CN=team627-server
        Subject Public Key Info:
            Public Key Algorithm: rsaEncryption
                RSA Public-Key: (2048 bit)
                Modulus:
                    00:97:0f:bc:92:01:b4:d5:bc:7c:d7:f4:82:d8:5a:
                    44:ca:fb:54:10:1b:2a:c8:d2:a0:1b:3b:9b:b7:04:
                    4f:e4:0a:3b:10:34:d7:4b:e2:71:54:49:db:2d:f1:
                    1c:33:9f:fb:6b:d5:4e:d3:ef:12:b1:e1:f7:b9:e0:
                    4b:6d:92:c9:bb:9e:16:19:f3:50:b8:6a:23:66:6d:
                    d3:16:ab:4d:8f:f1:c2:fb:b1:87:a7:ab:f1:c5:d6:
                    06:26:ee:12:c1:e4:29:7d:de:58:a3:49:a3:46:62:
                    02:96:ed:4b:4f:e7:b1:8f:90:a2:c0:ec:ff:21:ff:
                    ea:fb:02:75:b8:95:8f:37:a5:60:49:88:a2:dc:62:
                    be:4d:cc:7f:27:e9:b1:11:bf:71:9f:ab:c7:fc:09:
                    81:e0:d9:d7:26:1a:a1:f0:47:00:ee:cf:ae:1c:03:
                    59:33:4a:97:c2:1f:ac:73:d8:4a:86:69:69:d7:a3:
                    03:9a:39:f4:4b:1a:21:6c:68:0a:ce:92:9d:d9:d3:
                    71:b5:12:89:bb:0c:62:ea:aa:1b:22:c2:66:b7:83:
                    50:cc:98:31:d4:c5:f9:d8:10:7a:fc:32:30:9d:f2:
                    d4:d7:1c:a3:c7:a9:1c:d1:5f:8b:e4:77:e2:9d:f8:
                    bd:a3:89:bb:10:3b:51:1f:c7:ec:1e:52:42:2b:64:
                    be:f3
                Exponent: 65537 (0x10001)
        X509v3 extensions:
            X509v3 Basic Constraints: 
                CA:FALSE
            X509v3 Subject Key Identifier: 
                8F:94:B2:0D:59:9E:E2:F8:1E:E0:57:B1:1C:33:0A:D1:2B:B5:33:E2
            X509v3 Authority Key Identifier: 
                keyid:69:44:9F:37:AE:76:87:38:54:4E:6B:77:CE:56:50:71:53:F2:DF:E7
                DirName:/CN=team627-net
                serial:57:DF:54:B0:B1:8A:E8:DF:F8:70:E0:1B:E3:54:17:D2:1E:63:B0:1D

            X509v3 Extended Key Usage: 
                TLS Web Server Authentication
            X509v3 Key Usage: 
                Digital Signature, Key Encipherment
            X509v3 Subject Alternative Name: 
                DNS:team627-server
    Signature Algorithm: sha256WithRSAEncryption
         81:e8:5f:3c:0e:27:fc:99:89:20:6f:79:53:c9:44:cf:d3:de:
         4a:8a:5a:19:ff:38:c7:8b:df:ac:4e:30:5f:21:90:fc:44:e4:
         39:e5:be:07:41:54:9d:d6:52:c3:c1:10:87:3a:33:7c:69:31:
         87:a4:96:bb:3d:dd:b9:30:c4:1b:f6:58:00:c5:a3:bc:1d:d4:
         c8:63:ce:e6:57:64:14:cb:20:2f:e6:ae:c0:53:07:d8:11:69:
         24:ad:13:df:85:b5:02:79:24:08:80:53:bc:f9:a2:92:06:c0:
         30:5b:2a:7d:ef:2a:82:74:33:7a:2e:85:24:39:d4:65:b2:94:
         19:ee:62:7d:4f:83:2c:62:8a:0b:33:7a:75:f8:e1:e1:af:4e:
         8c:09:48:6e:7f:dd:df:b2:dd:70:3b:f0:e2:be:95:68:fc:80:
         2d:6d:f9:6e:0d:d3:9e:e7:08:11:ec:09:b2:ea:2c:1f:f1:39:
         9c:4e:fe:18:aa:41:1a:f0:05:5f:6c:58:2f:f1:6a:c7:54:38:
         30:76:99:e0:d3:96:a3:7c:48:07:e8:d4:cc:3f:23:cc:58:a6:
         cc:aa:c9:ab:c7:cd:3e:e7:94:14:24:f1:67:52:6b:47:0e:24:
         dd:0c:89:c5:1a:2a:74:d1:c6:e8:98:8d:c6:55:eb:a6:b6:b4:
         2a:64:ae:32
-----BEGIN CERTIFICATE-----
MIIDdzCCAl+gAwIBAgIQYY/Lof7c/nkGwWHi8Fg+OjANBgkqhkiG9w0BAQsFADAW
MRQwEgYDVQQDDAt0ZWFtNjI3LW5ldDAeFw0yMTA5MTMwNDM4MzlaFw0yNDA4Mjgw
NDM4MzlaMBkxFzAVBgNVBAMMDnRlYW02Mjctc2VydmVyMIIBIjANBgkqhkiG9w0B
AQEFAAOCAQ8AMIIBCgKCAQEAlw+8kgG01bx81/SC2FpEyvtUEBsqyNKgGzubtwRP
5Ao7EDTXS+JxVEnbLfEcM5/7a9VO0+8SseH3ueBLbZLJu54WGfNQuGojZm3TFqtN
j/HC+7GHp6vxxdYGJu4SweQpfd5Yo0mjRmIClu1LT+exj5CiwOz/If/q+wJ1uJWP
N6VgSYii3GK+Tcx/J+mxEb9xn6vH/AmB4NnXJhqh8EcA7s+uHANZM0qXwh+sc9hK
hmlp16MDmjn0SxohbGgKzpKd2dNxtRKJuwxi6qobIsJmt4NQzJgx1MX52BB6/DIw
nfLU1xyjx6kc0V+L5Hfinfi9o4m7EDtRH8fsHlJCK2S+8wIDAQABo4G9MIG6MAkG
A1UdEwQCMAAwHQYDVR0OBBYEFI+Usg1ZnuL4HuBXsRwzCtErtTPiMFEGA1UdIwRK
MEiAFGlEnzeudoc4VE5rd85WUHFT8t/noRqkGDAWMRQwEgYDVQQDDAt0ZWFtNjI3
LW5ldIIUV99UsLGK6N/4cOAb41QX0h5jsB0wEwYDVR0lBAwwCgYIKwYBBQUHAwEw
CwYDVR0PBAQDAgWgMBkGA1UdEQQSMBCCDnRlYW02Mjctc2VydmVyMA0GCSqGSIb3
DQEBCwUAA4IBAQCB6F88Dif8mYkgb3lTyUTP095KiloZ/zjHi9+sTjBfIZD8ROQ5
5b4HQVSd1lLDwRCHOjN8aTGHpJa7Pd25MMQb9lgAxaO8HdTIY87mV2QUyyAv5q7A
UwfYEWkkrRPfhbUCeSQIgFO8+aKSBsAwWyp97yqCdDN6LoUkOdRlspQZ7mJ9T4Ms
YooLM3p1+OHhr06MCUhuf93fst1wO/DivpVo/IAtbfluDdOe5wgR7Amy6iwf8Tmc
Tv4YqkEa8AVfbFgv8WrHVDgwdpng05ajfEgH6NTMPyPMWKbMqsmrx80+55QUJPFn
UmtHDiTdDInFGip00cbomI3GVeumtrQqZK4y
-----END CERTIFICATE-----
