Certificate:
    Data:
        Version: 3 (0x2)
        Serial Number:
            a5:1d:69:09:34:c9:af:d1:6f:c3:b8:8e:04:c6:90:e6
        Signature Algorithm: sha256WithRSAEncryption
        Issuer: CN=team627-net
        Validity
            Not Before: Sep 13 04:38:39 2021 GMT
            Not After : Aug 28 04:38:39 2024 GMT
        Subject: CN=team627-client
        Subject Public Key Info:
            Public Key Algorithm: rsaEncryption
                RSA Public-Key: (2048 bit)
                Modulus:
                    00:d3:5a:35:a2:ae:b2:41:43:42:a1:3e:51:c9:74:
                    da:5b:b2:ca:c9:24:81:fb:9c:09:31:93:01:47:0d:
                    98:b2:ed:3c:f6:e2:74:ea:cb:4c:bb:6d:7d:55:80:
                    3e:df:02:bb:f6:77:ba:76:24:6e:69:38:3e:e5:07:
                    b9:2f:38:09:4e:21:31:21:e9:d6:fd:56:e9:b2:60:
                    7a:ea:6d:05:a2:02:7e:52:bf:14:0b:a3:6d:93:26:
                    35:0d:96:eb:50:6a:76:fd:af:5e:1d:45:a5:75:87:
                    59:d6:6b:80:91:26:e0:94:d4:26:78:3f:ef:2e:89:
                    03:3c:f4:5f:82:93:5e:27:ff:c5:b7:98:97:41:89:
                    d6:70:7f:a1:e4:a6:5c:00:99:ca:4c:9f:c4:e8:b5:
                    d9:13:7b:f3:3a:0c:c2:e0:ee:40:11:fa:df:5e:d8:
                    6a:bb:55:61:58:c4:bb:13:79:8b:f9:26:62:c4:5a:
                    ca:9f:01:ff:f4:b0:97:96:27:8d:5c:1d:07:48:80:
                    6a:16:fa:7f:3b:9f:9b:cd:38:e3:50:6c:a5:31:25:
                    c3:4e:ac:a6:fd:e6:3e:22:4c:c2:61:08:c0:eb:d0:
                    c8:84:ab:25:74:ba:78:c3:78:b7:f6:70:1f:b4:20:
                    77:db:1b:b9:63:94:aa:98:37:68:06:9e:5b:30:ae:
                    4d:79
                Exponent: 65537 (0x10001)
        X509v3 extensions:
            X509v3 Basic Constraints: 
                CA:FALSE
            X509v3 Subject Key Identifier: 
                E7:A9:FC:8E:BB:0B:BD:00:63:9A:B4:32:D8:C1:AD:AB:DC:C7:4F:EA
            X509v3 Authority Key Identifier: 
                keyid:69:44:9F:37:AE:76:87:38:54:4E:6B:77:CE:56:50:71:53:F2:DF:E7
                DirName:/CN=team627-net
                serial:57:DF:54:B0:B1:8A:E8:DF:F8:70:E0:1B:E3:54:17:D2:1E:63:B0:1D

            X509v3 Extended Key Usage: 
                TLS Web Client Authentication
            X509v3 Key Usage: 
                Digital Signature
    Signature Algorithm: sha256WithRSAEncryption
         ad:86:6c:cb:95:e9:c8:43:d8:cd:f0:05:0a:d1:19:13:ce:36:
         ae:70:46:ca:83:03:af:c8:36:22:03:05:1f:65:fb:76:a8:53:
         40:66:da:16:61:30:1c:46:d8:31:2d:18:5c:42:14:4a:b9:00:
         1a:dd:2f:70:62:f5:14:29:50:44:ad:07:31:0b:07:44:81:c1:
         10:dd:af:5a:ec:d0:11:49:ec:27:01:9e:57:be:65:7a:ef:aa:
         16:29:c6:37:05:e3:7d:f7:4f:dc:53:e8:5a:9a:2c:18:2d:27:
         12:22:4e:88:2d:de:bf:15:9a:f2:44:44:47:4e:bc:f9:8f:a1:
         c5:cd:8b:3f:38:79:11:87:c0:02:2d:5a:ee:4a:29:31:bb:bf:
         34:06:be:03:49:41:3d:16:9a:46:1f:6f:68:63:5e:31:e2:ae:
         2b:5d:da:6f:45:56:e9:f7:ee:68:db:e5:af:0c:5f:63:27:af:
         ea:d1:e4:a4:dd:70:19:c9:d1:90:78:4c:12:72:29:21:04:a6:
         49:e5:8d:85:81:5b:f4:78:85:15:5c:b2:35:cd:75:00:10:69:
         b0:d6:78:71:26:8d:31:b2:1c:24:fa:91:d0:02:05:0f:ce:55:
         76:1d:ab:0c:48:67:92:c1:68:63:1d:36:00:30:86:dc:c5:c0:
         3b:30:a9:09
-----BEGIN CERTIFICATE-----
MIIDXTCCAkWgAwIBAgIRAKUdaQk0ya/Rb8O4jgTGkOYwDQYJKoZIhvcNAQELBQAw
FjEUMBIGA1UEAwwLdGVhbTYyNy1uZXQwHhcNMjEwOTEzMDQzODM5WhcNMjQwODI4
MDQzODM5WjAZMRcwFQYDVQQDDA50ZWFtNjI3LWNsaWVudDCCASIwDQYJKoZIhvcN
AQEBBQADggEPADCCAQoCggEBANNaNaKuskFDQqE+Ucl02luyyskkgfucCTGTAUcN
mLLtPPbidOrLTLttfVWAPt8Cu/Z3unYkbmk4PuUHuS84CU4hMSHp1v1W6bJgeupt
BaICflK/FAujbZMmNQ2W61Bqdv2vXh1FpXWHWdZrgJEm4JTUJng/7y6JAzz0X4KT
Xif/xbeYl0GJ1nB/oeSmXACZykyfxOi12RN78zoMwuDuQBH6317YartVYVjEuxN5
i/kmYsRayp8B//Swl5YnjVwdB0iAahb6fzufm80441BspTElw06spv3mPiJMwmEI
wOvQyISrJXS6eMN4t/ZwH7Qgd9sbuWOUqpg3aAaeWzCuTXkCAwEAAaOBojCBnzAJ
BgNVHRMEAjAAMB0GA1UdDgQWBBTnqfyOuwu9AGOatDLYwa2r3MdP6jBRBgNVHSME
SjBIgBRpRJ83rnaHOFROa3fOVlBxU/Lf56EapBgwFjEUMBIGA1UEAwwLdGVhbTYy
Ny1uZXSCFFffVLCxiujf+HDgG+NUF9IeY7AdMBMGA1UdJQQMMAoGCCsGAQUFBwMC
MAsGA1UdDwQEAwIHgDANBgkqhkiG9w0BAQsFAAOCAQEArYZsy5XpyEPYzfAFCtEZ
E842rnBGyoMDr8g2IgMFH2X7dqhTQGbaFmEwHEbYMS0YXEIUSrkAGt0vcGL1FClQ
RK0HMQsHRIHBEN2vWuzQEUnsJwGeV75leu+qFinGNwXjffdP3FPoWposGC0nEiJO
iC3evxWa8kRER068+Y+hxc2LPzh5EYfAAi1a7kopMbu/NAa+A0lBPRaaRh9vaGNe
MeKuK13ab0VW6ffuaNvlrwxfYyev6tHkpN1wGcnRkHhMEnIpIQSmSeWNhYFb9HiF
FVyyNc11ABBpsNZ4cSaNMbIcJPqR0AIFD85Vdh2rDEhnksFoYx02ADCG3MXAOzCp
CQ==
-----END CERTIFICATE-----
