Certificate:
    Data:
        Version: 3 (0x2)
        Serial Number:
            b0:92:70:8c:06:3c:92:77:d8:38:a6:b4:c9:a6:ef:6d
        Signature Algorithm: sha256WithRSAEncryption
        Issuer: CN=team531-net
        Validity
            Not Before: Sep 13 03:22:24 2021 GMT
            Not After : Aug 28 03:22:24 2024 GMT
        Subject: CN=team531-server
        Subject Public Key Info:
            Public Key Algorithm: rsaEncryption
                RSA Public-Key: (2048 bit)
                Modulus:
                    00:f8:aa:d5:42:5a:eb:65:b4:c4:cf:3a:a9:73:75:
                    11:dd:6e:d6:6e:94:ef:64:35:67:45:15:9f:c2:57:
                    3f:b2:26:b2:4c:e4:4b:3f:e2:17:44:99:80:d9:2f:
                    cd:ef:99:ef:f2:d8:54:d4:a6:95:6c:93:23:90:f6:
                    b6:fd:a8:4e:2b:8a:78:32:36:0c:e3:69:17:a0:05:
                    27:1d:8c:7a:40:fe:13:94:5d:76:7e:7d:c8:ed:e8:
                    54:86:fe:a7:09:cf:53:c4:28:ed:9d:4c:aa:4b:d3:
                    fc:1c:67:d3:46:e8:af:49:0b:93:c0:29:1f:b3:49:
                    1b:d1:6e:23:8c:8d:2a:9b:d1:5d:31:b1:d2:f2:c2:
                    03:68:79:33:a9:db:47:d9:df:5e:5b:5a:44:dd:f2:
                    d3:3e:26:9e:b5:29:8a:69:64:e5:24:5f:df:02:9a:
                    30:47:d5:df:1b:08:6c:c5:b6:0c:fb:ce:a0:31:03:
                    b8:43:c2:bb:40:b8:f8:db:86:d7:e7:96:0f:a9:a7:
                    bc:7f:8c:86:a3:88:c5:d6:44:5f:de:da:f0:8c:b2:
                    41:e8:6d:5b:75:24:88:0e:a0:5e:68:d6:c0:cd:a2:
                    1e:1f:38:70:09:7e:4c:bd:59:52:d5:7a:01:52:df:
                    2a:5c:17:82:78:7a:97:21:79:9d:1c:eb:3e:a3:45:
                    aa:8b
                Exponent: 65537 (0x10001)
        X509v3 extensions:
            X509v3 Basic Constraints: 
                CA:FALSE
            X509v3 Subject Key Identifier: 
                52:75:AA:BF:9D:9A:84:48:78:2F:B3:7C:C6:FF:7A:8F:A4:17:32:EB
            X509v3 Authority Key Identifier: 
                keyid:14:2F:28:3D:83:8A:AA:C3:A9:B3:84:BC:F1:FD:AE:72:55:74:2E:E9
                DirName:/CN=team531-net
                serial:4F:61:38:D8:15:7E:04:7D:20:C6:44:5C:65:8C:51:78:D7:C3:BC:A7

            X509v3 Extended Key Usage: 
                TLS Web Server Authentication
            X509v3 Key Usage: 
                Digital Signature, Key Encipherment
            X509v3 Subject Alternative Name: 
                DNS:team531-server
    Signature Algorithm: sha256WithRSAEncryption
         2a:23:d5:95:9b:fe:21:aa:b1:70:44:98:fa:4a:a3:09:33:83:
         b6:95:10:d0:ba:8b:3b:1b:66:f3:fd:2f:62:9e:8c:e3:d4:41:
         4a:2a:33:d5:bb:91:88:c9:eb:ff:63:92:f4:d4:4e:77:7d:fd:
         9c:9a:d9:18:cd:a6:82:9d:6b:33:7e:62:fb:98:cb:b2:e3:22:
         a6:15:48:bf:44:e1:c7:38:fe:dc:6e:9d:ef:df:97:fc:53:fc:
         06:00:49:fc:bb:7a:9d:fe:87:ee:78:d8:36:9b:dd:31:94:76:
         21:6a:d2:8a:a9:fb:4b:80:97:58:e2:5e:52:c9:d8:0a:35:6d:
         dc:2d:73:df:e2:13:bc:ae:a9:fe:7f:4c:f0:cb:f2:ad:46:f4:
         15:cb:20:87:0f:0b:b0:4d:42:fe:0a:23:81:7a:52:39:11:f3:
         54:3c:cf:ab:4e:ad:fc:c6:24:4a:61:2c:03:1a:28:c3:2b:36:
         34:e9:65:5c:a8:7a:cf:86:a2:3f:a8:4b:45:d8:82:0f:83:cc:
         a4:34:9a:b6:e7:0c:f1:f2:fc:b9:78:37:08:fb:0c:ef:3f:be:
         1d:df:0d:06:50:d3:9b:1a:b9:7b:e8:89:09:24:fb:f6:f6:4c:
         55:43:67:30:6d:4f:ea:26:8a:06:54:dc:5c:eb:b5:6e:aa:ff:
         57:65:21:70
-----BEGIN CERTIFICATE-----
MIIDeDCCAmCgAwIBAgIRALCScIwGPJJ32DimtMmm720wDQYJKoZIhvcNAQELBQAw
FjEUMBIGA1UEAwwLdGVhbTUzMS1uZXQwHhcNMjEwOTEzMDMyMjI0WhcNMjQwODI4
MDMyMjI0WjAZMRcwFQYDVQQDDA50ZWFtNTMxLXNlcnZlcjCCASIwDQYJKoZIhvcN
AQEBBQADggEPADCCAQoCggEBAPiq1UJa62W0xM86qXN1Ed1u1m6U72Q1Z0UVn8JX
P7ImskzkSz/iF0SZgNkvze+Z7/LYVNSmlWyTI5D2tv2oTiuKeDI2DONpF6AFJx2M
ekD+E5Rddn59yO3oVIb+pwnPU8Qo7Z1MqkvT/Bxn00bor0kLk8ApH7NJG9FuI4yN
KpvRXTGx0vLCA2h5M6nbR9nfXltaRN3y0z4mnrUpimlk5SRf3wKaMEfV3xsIbMW2
DPvOoDEDuEPCu0C4+NuG1+eWD6mnvH+MhqOIxdZEX97a8IyyQehtW3UkiA6gXmjW
wM2iHh84cAl+TL1ZUtV6AVLfKlwXgnh6lyF5nRzrPqNFqosCAwEAAaOBvTCBujAJ
BgNVHRMEAjAAMB0GA1UdDgQWBBRSdaq/nZqESHgvs3zG/3qPpBcy6zBRBgNVHSME
SjBIgBQULyg9g4qqw6mzhLzx/a5yVXQu6aEapBgwFjEUMBIGA1UEAwwLdGVhbTUz
MS1uZXSCFE9hONgVfgR9IMZEXGWMUXjXw7ynMBMGA1UdJQQMMAoGCCsGAQUFBwMB
MAsGA1UdDwQEAwIFoDAZBgNVHREEEjAQgg50ZWFtNTMxLXNlcnZlcjANBgkqhkiG
9w0BAQsFAAOCAQEAKiPVlZv+IaqxcESY+kqjCTODtpUQ0LqLOxtm8/0vYp6M49RB
Sioz1buRiMnr/2OS9NROd339nJrZGM2mgp1rM35i+5jLsuMiphVIv0Thxzj+3G6d
79+X/FP8BgBJ/Lt6nf6H7njYNpvdMZR2IWrSiqn7S4CXWOJeUsnYCjVt3C1z3+IT
vK6p/n9M8MvyrUb0Fcsghw8LsE1C/gojgXpSORHzVDzPq06t/MYkSmEsAxoowys2
NOllXKh6z4aiP6hLRdiCD4PMpDSatucM8fL8uXg3CPsM7z++Hd8NBlDTmxq5e+iJ
CST79vZMVUNnMG1P6iaKBlTcXOu1bqr/V2UhcA==
-----END CERTIFICATE-----
