Certificate:
    Data:
        Version: 3 (0x2)
        Serial Number:
            b9:e2:b3:a1:e7:fe:8a:e9:66:fb:2e:ad:87:14:a8:c0
        Signature Algorithm: sha256WithRSAEncryption
        Issuer: CN=team531-net
        Validity
            Not Before: Sep 13 03:22:24 2021 GMT
            Not After : Aug 28 03:22:24 2024 GMT
        Subject: CN=team531-client
        Subject Public Key Info:
            Public Key Algorithm: rsaEncryption
                RSA Public-Key: (2048 bit)
                Modulus:
                    00:d7:f7:0d:a6:71:d1:36:7a:08:fd:a6:da:15:e7:
                    82:a9:6b:66:ec:dc:59:ef:60:18:17:6b:b4:95:5b:
                    54:cf:e4:b7:d4:74:43:dd:ff:24:35:aa:93:1f:75:
                    94:61:09:26:90:8f:0b:6b:a3:f5:c6:ac:7a:29:fe:
                    50:b9:90:60:bd:91:47:a1:89:c7:d3:28:b5:5b:7e:
                    6f:8e:03:d1:38:8c:b8:55:87:c7:08:64:b8:78:a3:
                    78:18:be:00:8e:c5:ab:3f:02:7d:f9:fe:5d:5e:fd:
                    9c:8b:b4:bd:99:c7:ee:b5:25:7d:2b:2b:7d:3f:c2:
                    c2:5c:4d:19:0c:72:39:7c:6a:35:2a:21:ae:1a:16:
                    fe:47:b0:21:7a:f8:40:07:e7:c4:89:4a:7d:f8:15:
                    cc:4d:3e:c1:44:04:98:c6:dd:c6:39:00:11:ab:10:
                    8a:45:48:ae:e1:d3:77:f8:72:6c:2c:75:1e:81:78:
                    24:d2:2e:d7:ce:06:8c:2e:86:37:5c:5f:ff:10:d4:
                    e4:d0:55:97:dc:51:d8:28:ed:54:de:3a:8d:5f:ec:
                    9e:81:b5:20:54:55:cb:99:d8:53:76:e1:8c:fd:a1:
                    10:e5:1a:ba:e9:82:67:19:ef:d6:17:bf:35:ae:02:
                    d1:45:1f:9b:a0:d3:df:87:d2:7b:5d:20:d4:b9:87:
                    db:71
                Exponent: 65537 (0x10001)
        X509v3 extensions:
            X509v3 Basic Constraints: 
                CA:FALSE
            X509v3 Subject Key Identifier: 
                68:AB:6E:23:86:D1:EF:C8:D5:1F:D6:97:61:08:16:DB:64:10:68:6A
            X509v3 Authority Key Identifier: 
                keyid:14:2F:28:3D:83:8A:AA:C3:A9:B3:84:BC:F1:FD:AE:72:55:74:2E:E9
                DirName:/CN=team531-net
                serial:4F:61:38:D8:15:7E:04:7D:20:C6:44:5C:65:8C:51:78:D7:C3:BC:A7

            X509v3 Extended Key Usage: 
                TLS Web Client Authentication
            X509v3 Key Usage: 
                Digital Signature
    Signature Algorithm: sha256WithRSAEncryption
         6f:cd:2d:4f:10:8a:80:63:87:74:f7:c6:14:e5:41:81:64:e1:
         27:02:95:5a:03:dd:9e:8d:b6:30:9d:8a:17:9d:6b:23:41:62:
         b3:8c:bb:d5:b1:0f:2a:24:c0:44:16:4e:75:7b:ac:64:41:73:
         09:b1:1c:cb:d9:82:2d:da:e3:3b:89:13:1f:6e:4b:6f:f3:cd:
         b4:f1:fa:53:dd:ed:be:00:1c:f0:3b:e1:cf:47:0c:f6:3f:87:
         5f:bf:89:d9:bc:ac:53:12:41:ef:96:cc:01:f0:16:8a:6e:a4:
         6e:9d:1d:57:9f:1a:f4:0e:e0:18:d0:7b:4d:c8:3f:6d:30:ae:
         ed:c5:72:6f:47:fb:a0:0a:46:b1:c4:0e:34:a1:9d:16:6a:13:
         a1:5f:06:86:06:2d:57:e9:c3:f3:f4:fd:72:e3:94:0f:f6:80:
         ed:53:e9:5e:46:3f:d4:8c:25:97:2e:95:b6:4e:b9:09:91:10:
         92:7f:0c:18:c0:77:32:58:4d:08:3a:75:45:32:de:b3:12:0a:
         c4:62:9b:ed:21:c6:cf:dd:c6:6c:66:a4:a6:9c:57:c0:1a:6b:
         e8:8c:13:52:19:0c:f8:63:a4:15:de:49:11:50:d9:69:90:b3:
         80:b9:a2:98:ce:0b:8f:ca:12:ca:e1:66:3f:4f:90:7d:ea:7d:
         30:a7:ae:e9
-----BEGIN CERTIFICATE-----
MIIDXTCCAkWgAwIBAgIRALnis6Hn/orpZvsurYcUqMAwDQYJKoZIhvcNAQELBQAw
FjEUMBIGA1UEAwwLdGVhbTUzMS1uZXQwHhcNMjEwOTEzMDMyMjI0WhcNMjQwODI4
MDMyMjI0WjAZMRcwFQYDVQQDDA50ZWFtNTMxLWNsaWVudDCCASIwDQYJKoZIhvcN
AQEBBQADggEPADCCAQoCggEBANf3DaZx0TZ6CP2m2hXngqlrZuzcWe9gGBdrtJVb
VM/kt9R0Q93/JDWqkx91lGEJJpCPC2uj9casein+ULmQYL2RR6GJx9MotVt+b44D
0TiMuFWHxwhkuHijeBi+AI7Fqz8Cffn+XV79nIu0vZnH7rUlfSsrfT/CwlxNGQxy
OXxqNSohrhoW/kewIXr4QAfnxIlKffgVzE0+wUQEmMbdxjkAEasQikVIruHTd/hy
bCx1HoF4JNIu184GjC6GN1xf/xDU5NBVl9xR2CjtVN46jV/snoG1IFRVy5nYU3bh
jP2hEOUauumCZxnv1he/Na4C0UUfm6DT34fSe10g1LmH23ECAwEAAaOBojCBnzAJ
BgNVHRMEAjAAMB0GA1UdDgQWBBRoq24jhtHvyNUf1pdhCBbbZBBoajBRBgNVHSME
SjBIgBQULyg9g4qqw6mzhLzx/a5yVXQu6aEapBgwFjEUMBIGA1UEAwwLdGVhbTUz
MS1uZXSCFE9hONgVfgR9IMZEXGWMUXjXw7ynMBMGA1UdJQQMMAoGCCsGAQUFBwMC
MAsGA1UdDwQEAwIHgDANBgkqhkiG9w0BAQsFAAOCAQEAb80tTxCKgGOHdPfGFOVB
gWThJwKVWgPdno22MJ2KF51rI0Fis4y71bEPKiTARBZOdXusZEFzCbEcy9mCLdrj
O4kTH25Lb/PNtPH6U93tvgAc8Dvhz0cM9j+HX7+J2bysUxJB75bMAfAWim6kbp0d
V58a9A7gGNB7Tcg/bTCu7cVyb0f7oApGscQONKGdFmoToV8GhgYtV+nD8/T9cuOU
D/aA7VPpXkY/1Iwlly6Vtk65CZEQkn8MGMB3MlhNCDp1RTLesxIKxGKb7SHGz93G
bGakppxXwBpr6IwTUhkM+GOkFd5JEVDZaZCzgLmimM4Lj8oSyuFmP0+Qfep9MKeu
6Q==
-----END CERTIFICATE-----
