Certificate:
    Data:
        Version: 3 (0x2)
        Serial Number:
            89:eb:54:f2:45:a7:10:f6:e7:0c:f9:61:ac:9d:d8:b3
        Signature Algorithm: sha256WithRSAEncryption
        Issuer: CN=team293-net
        Validity
            Not Before: Sep 13 01:21:34 2021 GMT
            Not After : Aug 28 01:21:34 2024 GMT
        Subject: CN=team293-client
        Subject Public Key Info:
            Public Key Algorithm: rsaEncryption
                RSA Public-Key: (2048 bit)
                Modulus:
                    00:c1:3b:0a:55:7c:ea:6f:80:3c:4c:64:05:e0:8a:
                    67:a9:91:09:cc:b2:9d:71:c6:c6:47:b3:ed:4b:4d:
                    a5:c9:3b:5b:68:8a:ba:8e:7d:ba:07:70:6e:70:0a:
                    9a:06:71:31:b2:98:d9:76:28:fb:1d:5a:5d:8d:15:
                    88:f5:2e:a4:fc:72:1e:d6:a2:03:c1:64:1f:bc:5e:
                    c4:0f:7b:86:1c:71:e8:b0:3e:7d:89:19:67:23:14:
                    5d:4f:ea:65:8f:43:48:c1:39:0b:a1:9b:31:13:dd:
                    3a:3b:49:29:6f:d7:3e:f8:be:d2:d9:c8:62:11:56:
                    d6:a9:bf:86:a9:db:ef:9e:1c:32:22:c2:f1:09:11:
                    0b:50:06:c5:1a:1b:98:e4:13:9d:65:81:28:ee:94:
                    8f:dd:79:1b:70:fa:52:61:21:f9:c4:c6:66:3d:e0:
                    96:c2:9b:73:8f:92:d6:b9:7c:83:18:f7:a7:ed:e4:
                    ee:99:5a:99:d1:f7:3b:74:6e:d1:ae:13:eb:cb:ae:
                    93:63:52:f8:c9:72:b6:6d:71:ba:08:46:03:fe:72:
                    4a:6d:94:ea:68:4a:c4:bb:df:b5:8e:03:c9:14:a4:
                    99:21:11:55:98:5b:ba:47:c4:da:9e:b9:69:53:8e:
                    12:c4:d9:0c:36:03:76:6a:80:cf:f0:41:bc:2c:16:
                    f0:f7
                Exponent: 65537 (0x10001)
        X509v3 extensions:
            X509v3 Basic Constraints: 
                CA:FALSE
            X509v3 Subject Key Identifier: 
                AE:B9:3A:F3:3B:50:F3:E2:F2:C3:E1:5B:03:F9:BA:0D:EC:CF:56:6F
            X509v3 Authority Key Identifier: 
                keyid:CB:B7:BD:7B:AD:69:FD:67:4F:4B:7B:14:97:4E:22:30:9F:CA:6D:A3
                DirName:/CN=team293-net
                serial:4D:A7:47:59:74:D5:F6:95:C9:B6:36:1F:AC:AF:CE:CD:65:FD:51:15

            X509v3 Extended Key Usage: 
                TLS Web Client Authentication
            X509v3 Key Usage: 
                Digital Signature
    Signature Algorithm: sha256WithRSAEncryption
         3c:06:02:e3:63:52:c5:1a:1c:60:f5:75:e9:e6:d4:1b:1c:15:
         38:89:94:f4:c5:9c:a2:54:6e:f3:0c:73:9e:0f:2f:f8:57:55:
         6d:7d:99:21:8f:a2:83:09:42:97:b8:c8:7e:bb:1b:60:b2:23:
         24:6c:a6:36:8b:a1:12:9e:43:40:45:8a:42:68:6b:b4:5e:b2:
         31:b0:8c:74:f1:4c:95:9a:93:e7:01:6e:d6:ed:d2:1d:e9:74:
         df:e2:35:a8:08:0b:8d:ff:75:39:42:51:67:96:6a:5f:14:5e:
         da:d7:e7:a9:9c:84:bd:74:d5:4f:71:df:7e:e3:6b:a2:98:de:
         96:7f:7d:76:47:ac:2a:9f:e1:50:83:20:fa:d6:4a:a6:93:18:
         ee:2b:c6:3f:49:32:57:ac:60:58:62:b1:09:ca:02:65:1c:f9:
         0b:4f:3e:91:57:b1:b3:53:8e:3a:b8:ed:71:e3:c2:80:bd:7e:
         6d:77:3f:b3:9f:b4:c7:f3:38:fd:78:5c:d5:d8:0e:3e:2a:ab:
         2d:18:b6:eb:8b:ac:5d:e7:4b:2f:80:4c:8d:2c:23:77:c8:7f:
         32:9f:08:b5:78:4d:0b:28:82:bb:5b:00:b7:ae:9c:51:e2:ee:
         0d:ec:83:2b:d9:2c:84:92:c2:47:7f:c9:63:bb:ed:2e:99:6a:
         14:1f:41:1c
-----BEGIN CERTIFICATE-----
MIIDXTCCAkWgAwIBAgIRAInrVPJFpxD25wz5Yayd2LMwDQYJKoZIhvcNAQELBQAw
FjEUMBIGA1UEAwwLdGVhbTI5My1uZXQwHhcNMjEwOTEzMDEyMTM0WhcNMjQwODI4
MDEyMTM0WjAZMRcwFQYDVQQDDA50ZWFtMjkzLWNsaWVudDCCASIwDQYJKoZIhvcN
AQEBBQADggEPADCCAQoCggEBAME7ClV86m+APExkBeCKZ6mRCcyynXHGxkez7UtN
pck7W2iKuo59ugdwbnAKmgZxMbKY2XYo+x1aXY0ViPUupPxyHtaiA8FkH7xexA97
hhxx6LA+fYkZZyMUXU/qZY9DSME5C6GbMRPdOjtJKW/XPvi+0tnIYhFW1qm/hqnb
754cMiLC8QkRC1AGxRobmOQTnWWBKO6Uj915G3D6UmEh+cTGZj3glsKbc4+S1rl8
gxj3p+3k7plamdH3O3Ru0a4T68uuk2NS+Mlytm1xughGA/5ySm2U6mhKxLvftY4D
yRSkmSERVZhbukfE2p65aVOOEsTZDDYDdmqAz/BBvCwW8PcCAwEAAaOBojCBnzAJ
BgNVHRMEAjAAMB0GA1UdDgQWBBSuuTrzO1Dz4vLD4VsD+boN7M9WbzBRBgNVHSME
SjBIgBTLt717rWn9Z09LexSXTiIwn8pto6EapBgwFjEUMBIGA1UEAwwLdGVhbTI5
My1uZXSCFE2nR1l01faVybY2H6yvzs1l/VEVMBMGA1UdJQQMMAoGCCsGAQUFBwMC
MAsGA1UdDwQEAwIHgDANBgkqhkiG9w0BAQsFAAOCAQEAPAYC42NSxRocYPV16ebU
GxwVOImU9MWcolRu8wxzng8v+FdVbX2ZIY+igwlCl7jIfrsbYLIjJGymNouhEp5D
QEWKQmhrtF6yMbCMdPFMlZqT5wFu1u3SHel03+I1qAgLjf91OUJRZ5ZqXxRe2tfn
qZyEvXTVT3HffuNropjeln99dkesKp/hUIMg+tZKppMY7ivGP0kyV6xgWGKxCcoC
ZRz5C08+kVexs1OOOrjtcePCgL1+bXc/s5+0x/M4/Xhc1dgOPiqrLRi264usXedL
L4BMjSwjd8h/Mp8ItXhNCyiCu1sAt66cUeLuDeyDK9kshJLCR3/JY7vtLplqFB9B
HA==
-----END CERTIFICATE-----
