Certificate:
    Data:
        Version: 3 (0x2)
        Serial Number:
            77:cb:0c:ce:94:f2:10:84:6e:44:06:96:96:58:40:66
        Signature Algorithm: sha256WithRSAEncryption
        Issuer: CN=team387-net
        Validity
            Not Before: Sep 13 02:12:46 2021 GMT
            Not After : Aug 28 02:12:46 2024 GMT
        Subject: CN=team387-server
        Subject Public Key Info:
            Public Key Algorithm: rsaEncryption
                RSA Public-Key: (2048 bit)
                Modulus:
                    00:bb:2d:d7:56:1f:50:28:00:e5:56:d2:b3:0a:93:
                    35:69:98:4c:42:d5:3d:da:10:dd:3b:61:c5:8d:a0:
                    16:eb:b9:57:0e:8a:86:aa:49:3c:dc:37:0b:63:d6:
                    16:8f:7e:cd:63:b7:e9:62:16:22:2b:46:c9:94:0a:
                    1e:a7:19:7d:07:41:f8:71:ad:16:87:d5:2b:72:7b:
                    8a:32:1b:5c:f4:68:b2:76:cb:32:56:52:d0:9e:c8:
                    65:91:6f:c4:92:a4:8d:67:99:f6:d4:dc:43:5e:85:
                    da:f7:fb:a0:c4:d5:df:24:85:5f:11:8e:3f:df:8f:
                    80:a7:2d:c8:cf:1e:a0:7f:c5:c0:36:62:56:fa:b3:
                    1f:20:4a:80:78:f1:33:50:5b:4e:1c:86:61:98:ac:
                    3a:56:6c:0b:e7:27:fc:20:9b:f6:fd:8a:9c:20:ec:
                    20:20:9b:01:6c:7f:cf:32:cc:f2:3b:15:50:50:f8:
                    1c:3f:e3:9d:7d:50:fe:7f:cf:24:16:8d:b9:b2:6a:
                    4d:f8:d4:60:8b:a6:c8:ab:3e:c8:42:1b:8f:52:7a:
                    98:da:73:91:be:08:ac:3b:50:9a:af:3a:46:13:6e:
                    e0:73:b2:33:3c:cb:c1:57:b2:fa:76:7a:ff:4a:52:
                    06:65:42:5d:e2:3d:81:43:de:1e:71:e4:be:89:6f:
                    b0:bd
                Exponent: 65537 (0x10001)
        X509v3 extensions:
            X509v3 Basic Constraints: 
                CA:FALSE
            X509v3 Subject Key Identifier: 
                A9:50:ED:B6:B9:55:5B:40:61:0C:BB:C3:7D:36:9E:5F:BF:48:41:59
            X509v3 Authority Key Identifier: 
                keyid:2E:E1:10:57:D7:CA:A5:51:E2:94:F6:5E:17:89:11:E8:20:23:98:75
                DirName:/CN=team387-net
                serial:58:46:17:1D:37:EC:39:98:ED:5A:ED:49:37:8D:2D:2A:B0:AC:86:6E

            X509v3 Extended Key Usage: 
                TLS Web Server Authentication
            X509v3 Key Usage: 
                Digital Signature, Key Encipherment
            X509v3 Subject Alternative Name: 
                DNS:team387-server
    Signature Algorithm: sha256WithRSAEncryption
         bd:4a:22:6c:a8:f5:ac:f2:9e:93:aa:6a:cf:31:7c:e4:62:9d:
         09:0b:14:44:b9:9c:35:ec:b1:d9:8a:c1:52:4e:36:8a:ad:03:
         81:e7:18:0e:00:02:72:2a:14:92:47:a1:b0:14:fb:07:c5:0b:
         e0:8f:01:a0:d6:48:52:cd:14:ca:a2:15:f6:a2:07:db:a9:7a:
         69:d8:49:c3:5a:68:f1:d9:b4:a1:7d:b3:ec:1b:ec:0d:35:5a:
         6e:a5:50:56:de:c4:9f:99:67:f5:80:12:e3:45:ad:85:b2:b8:
         09:94:32:45:59:73:d2:7b:96:fa:78:b5:6f:ff:00:95:0f:fb:
         7e:44:63:18:7f:a0:d0:91:b5:e0:ab:ef:5f:d2:09:e6:be:3a:
         8f:3b:81:4e:3e:ca:4b:32:cc:1f:49:c3:32:ce:51:0c:82:41:
         7c:5f:b5:c1:6a:e7:ba:6b:02:e2:91:12:9d:69:9b:2e:7e:10:
         9c:8e:3a:3e:37:f4:1c:93:bc:bd:ea:f8:5d:99:f0:1c:61:0f:
         dd:ae:1e:8a:4d:44:c1:d7:bc:1c:17:db:c4:a8:ed:59:8f:7c:
         ec:42:6e:5f:03:3c:17:d6:6d:02:55:84:6f:66:d8:43:a3:58:
         4a:a1:28:8e:14:03:71:31:5c:93:0c:34:31:32:57:43:47:7f:
         e8:46:6e:cd
-----BEGIN CERTIFICATE-----
MIIDdzCCAl+gAwIBAgIQd8sMzpTyEIRuRAaWllhAZjANBgkqhkiG9w0BAQsFADAW
MRQwEgYDVQQDDAt0ZWFtMzg3LW5ldDAeFw0yMTA5MTMwMjEyNDZaFw0yNDA4Mjgw
MjEyNDZaMBkxFzAVBgNVBAMMDnRlYW0zODctc2VydmVyMIIBIjANBgkqhkiG9w0B
AQEFAAOCAQ8AMIIBCgKCAQEAuy3XVh9QKADlVtKzCpM1aZhMQtU92hDdO2HFjaAW
67lXDoqGqkk83DcLY9YWj37NY7fpYhYiK0bJlAoepxl9B0H4ca0Wh9UrcnuKMhtc
9GiydssyVlLQnshlkW/EkqSNZ5n21NxDXoXa9/ugxNXfJIVfEY4/34+Apy3Izx6g
f8XANmJW+rMfIEqAePEzUFtOHIZhmKw6VmwL5yf8IJv2/YqcIOwgIJsBbH/PMszy
OxVQUPgcP+OdfVD+f88kFo25smpN+NRgi6bIqz7IQhuPUnqY2nORvgisO1CarzpG
E27gc7IzPMvBV7L6dnr/SlIGZUJd4j2BQ94eceS+iW+wvQIDAQABo4G9MIG6MAkG
A1UdEwQCMAAwHQYDVR0OBBYEFKlQ7ba5VVtAYQy7w302nl+/SEFZMFEGA1UdIwRK
MEiAFC7hEFfXyqVR4pT2XheJEeggI5h1oRqkGDAWMRQwEgYDVQQDDAt0ZWFtMzg3
LW5ldIIUWEYXHTfsOZjtWu1JN40tKrCshm4wEwYDVR0lBAwwCgYIKwYBBQUHAwEw
CwYDVR0PBAQDAgWgMBkGA1UdEQQSMBCCDnRlYW0zODctc2VydmVyMA0GCSqGSIb3
DQEBCwUAA4IBAQC9SiJsqPWs8p6TqmrPMXzkYp0JCxREuZw17LHZisFSTjaKrQOB
5xgOAAJyKhSSR6GwFPsHxQvgjwGg1khSzRTKohX2ogfbqXpp2EnDWmjx2bShfbPs
G+wNNVpupVBW3sSfmWf1gBLjRa2FsrgJlDJFWXPSe5b6eLVv/wCVD/t+RGMYf6DQ
kbXgq+9f0gnmvjqPO4FOPspLMswfScMyzlEMgkF8X7XBaue6awLikRKdaZsufhCc
jjo+N/Qck7y96vhdmfAcYQ/drh6KTUTB17wcF9vEqO1Zj3zsQm5fAzwX1m0CVYRv
ZthDo1hKoSiOFANxMVyTDDQxMldDR3/oRm7N
-----END CERTIFICATE-----
