Certificate:
    Data:
        Version: 3 (0x2)
        Serial Number:
            09:a2:27:75:00:56:aa:cf:df:c6:f3:9d:a4:97:f9:d3
        Signature Algorithm: sha256WithRSAEncryption
        Issuer: CN=team573-net
        Validity
            Not Before: Sep 13 03:41:57 2021 GMT
            Not After : Aug 28 03:41:57 2024 GMT
        Subject: CN=team573-server
        Subject Public Key Info:
            Public Key Algorithm: rsaEncryption
                RSA Public-Key: (2048 bit)
                Modulus:
                    00:f2:f7:b2:0f:88:a0:30:10:c4:7d:e3:0f:6f:6a:
                    28:49:8c:28:78:1b:25:e5:cd:da:2c:2a:a8:5d:c6:
                    9c:aa:a7:1e:93:e6:0a:aa:29:a6:b6:6c:4e:a2:fa:
                    dc:d9:b8:3a:18:e0:3a:9e:0a:eb:cd:2d:53:00:24:
                    c2:5a:89:bd:94:38:ca:96:b8:ad:c4:27:40:15:9f:
                    56:4d:44:97:a5:11:52:9b:a1:23:34:1e:6f:d9:a1:
                    c3:88:3a:9f:88:f4:20:29:54:09:e6:e7:cd:a1:ff:
                    e3:b3:76:0b:6e:5c:62:80:08:e6:5f:9c:96:d7:ca:
                    2a:42:8d:15:57:07:3e:ab:b2:4b:a9:87:7f:2e:b6:
                    42:7f:91:f1:52:8c:49:7a:b9:b1:d5:3e:a1:19:e1:
                    c9:35:ef:5e:1c:73:a3:47:36:4c:78:c9:ab:a2:6e:
                    48:6f:58:ac:01:56:7a:84:b4:ba:7b:a4:4e:32:8a:
                    f7:77:59:56:ce:cf:b5:39:07:3e:fb:46:98:45:9c:
                    58:20:df:c3:7c:19:dd:ce:49:53:ca:ac:e3:f3:0b:
                    d4:7d:2a:9f:98:b5:b2:ab:30:d7:c2:a2:bf:b0:d1:
                    e5:ef:50:6d:71:ac:5a:5e:21:11:67:15:2c:0b:eb:
                    25:e7:e2:9b:6e:17:09:c2:73:aa:e7:ba:6c:a3:aa:
                    3d:a5
                Exponent: 65537 (0x10001)
        X509v3 extensions:
            X509v3 Basic Constraints: 
                CA:FALSE
            X509v3 Subject Key Identifier: 
                CF:0F:69:2D:EE:E5:E3:A6:74:C5:2A:0F:D3:D2:80:3A:DD:A3:2F:1F
            X509v3 Authority Key Identifier: 
                keyid:E9:A6:F4:E7:F9:CA:13:5B:6B:A4:BC:ED:18:59:0B:B8:38:9C:94:77
                DirName:/CN=team573-net
                serial:5E:52:61:0D:6B:02:82:82:85:62:D6:46:D7:B6:9C:95:EB:92:57:90

            X509v3 Extended Key Usage: 
                TLS Web Server Authentication
            X509v3 Key Usage: 
                Digital Signature, Key Encipherment
            X509v3 Subject Alternative Name: 
                DNS:team573-server
    Signature Algorithm: sha256WithRSAEncryption
         4c:ac:ad:5c:21:e1:df:ea:58:1d:fb:97:66:91:f7:0f:2c:47:
         2b:03:19:41:ea:31:a9:d5:e5:b2:fb:48:c4:7c:b0:90:df:4f:
         be:11:5a:90:49:54:e9:cd:db:7c:3c:17:e9:83:d3:a8:2c:cb:
         60:3b:69:af:7b:f0:11:a4:3e:3b:a5:c1:2a:c0:e6:9f:45:cb:
         9e:c1:91:31:55:7a:8c:51:e1:a5:7c:b6:85:66:cb:20:83:07:
         04:af:53:8f:ea:39:5b:5a:63:ea:5d:5e:ac:74:26:a5:d0:b3:
         16:96:c2:c0:52:f0:77:5d:ed:5d:5d:34:b8:04:33:99:54:98:
         c2:4b:16:ce:2e:fc:dc:ee:5d:79:88:52:3a:2f:4b:ee:7a:f0:
         7e:02:8f:47:0d:cb:ff:f1:dc:4b:52:5d:c2:4b:4c:f2:6e:09:
         8e:54:22:18:8b:b1:71:70:78:b2:27:74:b0:f1:2f:60:c8:24:
         61:34:dd:ab:4e:13:de:44:b7:be:9f:01:62:05:c3:b6:68:df:
         c2:1f:13:66:ae:1a:06:b7:49:da:eb:ac:77:35:75:09:8b:0e:
         51:87:20:36:cf:db:57:fa:ed:8c:18:17:77:01:7c:02:94:3f:
         be:64:70:a7:ed:0c:e0:90:50:6a:e5:9a:79:40:dc:cb:02:5e:
         c6:15:34:2e
-----BEGIN CERTIFICATE-----
MIIDdzCCAl+gAwIBAgIQCaIndQBWqs/fxvOdpJf50zANBgkqhkiG9w0BAQsFADAW
MRQwEgYDVQQDDAt0ZWFtNTczLW5ldDAeFw0yMTA5MTMwMzQxNTdaFw0yNDA4Mjgw
MzQxNTdaMBkxFzAVBgNVBAMMDnRlYW01NzMtc2VydmVyMIIBIjANBgkqhkiG9w0B
AQEFAAOCAQ8AMIIBCgKCAQEA8veyD4igMBDEfeMPb2ooSYwoeBsl5c3aLCqoXcac
qqcek+YKqimmtmxOovrc2bg6GOA6ngrrzS1TACTCWom9lDjKlritxCdAFZ9WTUSX
pRFSm6EjNB5v2aHDiDqfiPQgKVQJ5ufNof/js3YLblxigAjmX5yW18oqQo0VVwc+
q7JLqYd/LrZCf5HxUoxJermx1T6hGeHJNe9eHHOjRzZMeMmrom5Ib1isAVZ6hLS6
e6ROMor3d1lWzs+1OQc++0aYRZxYIN/DfBndzklTyqzj8wvUfSqfmLWyqzDXwqK/
sNHl71BtcaxaXiERZxUsC+sl5+KbbhcJwnOq57pso6o9pQIDAQABo4G9MIG6MAkG
A1UdEwQCMAAwHQYDVR0OBBYEFM8PaS3u5eOmdMUqD9PSgDrdoy8fMFEGA1UdIwRK
MEiAFOmm9Of5yhNba6S87RhZC7g4nJR3oRqkGDAWMRQwEgYDVQQDDAt0ZWFtNTcz
LW5ldIIUXlJhDWsCgoKFYtZG17acleuSV5AwEwYDVR0lBAwwCgYIKwYBBQUHAwEw
CwYDVR0PBAQDAgWgMBkGA1UdEQQSMBCCDnRlYW01NzMtc2VydmVyMA0GCSqGSIb3
DQEBCwUAA4IBAQBMrK1cIeHf6lgd+5dmkfcPLEcrAxlB6jGp1eWy+0jEfLCQ30++
EVqQSVTpzdt8PBfpg9OoLMtgO2mve/ARpD47pcEqwOafRcuewZExVXqMUeGlfLaF
ZssggwcEr1OP6jlbWmPqXV6sdCal0LMWlsLAUvB3Xe1dXTS4BDOZVJjCSxbOLvzc
7l15iFI6L0vuevB+Ao9HDcv/8dxLUl3CS0zybgmOVCIYi7FxcHiyJ3Sw8S9gyCRh
NN2rThPeRLe+nwFiBcO2aN/CHxNmrhoGt0na66x3NXUJiw5RhyA2z9tX+u2MGBd3
AXwClD++ZHCn7QzgkFBq5Zp5QNzLAl7GFTQu
-----END CERTIFICATE-----
