Certificate:
    Data:
        Version: 3 (0x2)
        Serial Number:
            f7:08:66:c5:83:ce:d2:b3:34:7d:17:f1:68:17:a6:33
        Signature Algorithm: sha256WithRSAEncryption
        Issuer: CN=team287-net
        Validity
            Not Before: Sep 13 01:17:31 2021 GMT
            Not After : Aug 28 01:17:31 2024 GMT
        Subject: CN=team287-client
        Subject Public Key Info:
            Public Key Algorithm: rsaEncryption
                RSA Public-Key: (2048 bit)
                Modulus:
                    00:b1:cc:ea:a2:07:13:b3:3d:25:15:3a:16:8c:52:
                    64:09:b1:51:ef:c1:c1:53:0c:94:43:71:1b:8d:65:
                    df:88:79:9e:4b:d1:e4:fb:a9:7b:40:c8:bc:8e:06:
                    7a:b8:a2:62:09:7d:74:70:e6:9c:bf:30:f7:c6:47:
                    3f:29:05:f2:21:ff:ae:5e:e0:56:eb:2b:4e:b9:c9:
                    e3:b0:41:b1:78:13:2f:1b:45:76:dc:2d:8e:a3:41:
                    2e:fa:79:b7:91:16:42:3f:3d:92:0e:f1:84:d4:2e:
                    14:c3:65:44:e9:be:37:23:41:7c:16:1e:9a:3d:15:
                    e1:4c:c3:dd:cf:0c:45:69:c6:18:1f:96:bb:d0:12:
                    6e:62:13:3e:49:c2:a2:1c:2f:d9:10:85:fd:c0:d3:
                    cc:e1:2c:1f:45:f0:b5:ce:9f:bd:55:dc:63:96:74:
                    4d:9e:26:00:36:28:bf:93:fa:dd:9a:b0:5e:a3:e3:
                    ba:00:94:6c:2f:0a:04:39:02:d5:a9:32:e5:e3:c0:
                    9e:f7:13:30:2a:4f:01:ac:91:43:3c:92:c3:fd:ad:
                    c9:97:3a:c1:8e:94:e2:81:51:b0:52:5c:61:18:3f:
                    d7:70:7f:64:2e:b3:35:da:6b:24:f3:40:97:91:2a:
                    96:de:b1:a6:cb:9c:2e:bc:6e:d3:3f:ae:17:28:3d:
                    53:b5
                Exponent: 65537 (0x10001)
        X509v3 extensions:
            X509v3 Basic Constraints: 
                CA:FALSE
            X509v3 Subject Key Identifier: 
                F3:1A:B1:77:74:96:7C:84:E0:59:1E:93:7E:18:85:3E:C1:06:E9:52
            X509v3 Authority Key Identifier: 
                keyid:98:74:DD:D5:7E:74:40:4D:46:E7:3A:BD:36:8B:62:47:9C:96:F9:D5
                DirName:/CN=team287-net
                serial:72:E2:B1:CB:05:2D:63:A5:C2:D3:9A:DC:F4:5B:14:61:DC:88:3B:D8

            X509v3 Extended Key Usage: 
                TLS Web Client Authentication
            X509v3 Key Usage: 
                Digital Signature
    Signature Algorithm: sha256WithRSAEncryption
         9e:0f:ca:cd:50:61:47:a4:8d:b9:27:80:0e:c1:99:fe:52:5c:
         06:2c:43:50:cb:ed:3a:15:5f:fc:7e:50:e6:5b:da:32:21:5c:
         57:17:53:41:91:0f:de:c2:8c:bc:13:d2:04:09:ae:e3:fb:f9:
         ee:b6:7d:33:84:ea:de:46:88:71:58:52:33:14:6d:fe:df:bd:
         64:7f:7b:3e:28:3e:77:0a:6d:67:e1:6a:ef:e0:94:6a:0b:fd:
         94:c8:f3:18:b7:81:52:a1:b0:6b:fe:8a:2c:c7:df:77:8d:9d:
         5a:a6:27:30:94:36:20:a7:79:c9:1a:91:75:46:89:34:ba:bb:
         72:54:3b:74:b2:f1:c1:a9:ca:b8:ee:85:3c:fb:e4:70:2b:06:
         26:63:17:f1:38:bd:8d:7b:60:b7:66:5f:38:4c:ab:ac:e7:b5:
         ea:77:90:77:13:d5:25:e4:38:39:e5:d6:a8:c4:52:fd:4f:a7:
         bc:4f:8d:23:2b:ac:43:32:ff:96:86:70:3d:b0:06:1d:57:eb:
         91:b3:81:fb:2d:8b:30:0b:7a:e8:55:68:a4:0e:4e:3f:f3:68:
         68:97:3d:f1:ef:ad:f9:05:4a:bf:e1:45:ee:83:7b:d4:fe:6a:
         35:7e:5c:b3:6f:9f:8d:be:04:4e:7e:85:97:85:02:ed:cf:30:
         f4:41:50:05
-----BEGIN CERTIFICATE-----
MIIDXTCCAkWgAwIBAgIRAPcIZsWDztKzNH0X8WgXpjMwDQYJKoZIhvcNAQELBQAw
FjEUMBIGA1UEAwwLdGVhbTI4Ny1uZXQwHhcNMjEwOTEzMDExNzMxWhcNMjQwODI4
MDExNzMxWjAZMRcwFQYDVQQDDA50ZWFtMjg3LWNsaWVudDCCASIwDQYJKoZIhvcN
AQEBBQADggEPADCCAQoCggEBALHM6qIHE7M9JRU6FoxSZAmxUe/BwVMMlENxG41l
34h5nkvR5Pupe0DIvI4GeriiYgl9dHDmnL8w98ZHPykF8iH/rl7gVusrTrnJ47BB
sXgTLxtFdtwtjqNBLvp5t5EWQj89kg7xhNQuFMNlROm+NyNBfBYemj0V4UzD3c8M
RWnGGB+Wu9ASbmITPknCohwv2RCF/cDTzOEsH0Xwtc6fvVXcY5Z0TZ4mADYov5P6
3ZqwXqPjugCUbC8KBDkC1aky5ePAnvcTMCpPAayRQzySw/2tyZc6wY6U4oFRsFJc
YRg/13B/ZC6zNdprJPNAl5Eqlt6xpsucLrxu0z+uFyg9U7UCAwEAAaOBojCBnzAJ
BgNVHRMEAjAAMB0GA1UdDgQWBBTzGrF3dJZ8hOBZHpN+GIU+wQbpUjBRBgNVHSME
SjBIgBSYdN3VfnRATUbnOr02i2JHnJb51aEapBgwFjEUMBIGA1UEAwwLdGVhbTI4
Ny1uZXSCFHLiscsFLWOlwtOa3PRbFGHciDvYMBMGA1UdJQQMMAoGCCsGAQUFBwMC
MAsGA1UdDwQEAwIHgDANBgkqhkiG9w0BAQsFAAOCAQEAng/KzVBhR6SNuSeADsGZ
/lJcBixDUMvtOhVf/H5Q5lvaMiFcVxdTQZEP3sKMvBPSBAmu4/v57rZ9M4Tq3kaI
cVhSMxRt/t+9ZH97Pig+dwptZ+Fq7+CUagv9lMjzGLeBUqGwa/6KLMffd42dWqYn
MJQ2IKd5yRqRdUaJNLq7clQ7dLLxwanKuO6FPPvkcCsGJmMX8Ti9jXtgt2ZfOEyr
rOe16neQdxPVJeQ4OeXWqMRS/U+nvE+NIyusQzL/loZwPbAGHVfrkbOB+y2LMAt6
6FVopA5OP/NoaJc98e+t+QVKv+FF7oN71P5qNX5cs2+fjb4ETn6Fl4UC7c8w9EFQ
BQ==
-----END CERTIFICATE-----
