Certificate:
    Data:
        Version: 3 (0x2)
        Serial Number:
            95:e5:ea:e8:d9:04:44:2c:1e:8b:c9:ec:7d:2d:3c:c7
        Signature Algorithm: sha256WithRSAEncryption
        Issuer: CN=team630-net
        Validity
            Not Before: Sep 13 04:14:46 2021 GMT
            Not After : Aug 28 04:14:46 2024 GMT
        Subject: CN=team630-client
        Subject Public Key Info:
            Public Key Algorithm: rsaEncryption
                RSA Public-Key: (2048 bit)
                Modulus:
                    00:bb:18:d5:9d:5c:0f:15:b1:95:65:b5:a2:83:fb:
                    7f:3c:31:17:35:13:34:12:db:8c:1a:d7:0d:6c:98:
                    8c:13:da:bf:f3:61:5f:75:71:61:95:c8:51:5c:d5:
                    33:50:f6:5a:2e:fd:cf:ef:12:45:85:e0:8d:fa:c5:
                    dc:d8:2b:d9:a1:cb:45:d5:c9:ea:02:20:31:a3:f4:
                    72:31:d1:b6:04:4a:70:17:a0:ab:15:51:1b:df:c6:
                    df:d8:e4:a8:5e:a3:25:40:34:4e:a3:cc:3e:8e:3e:
                    68:9f:08:bf:62:6b:d8:06:6b:fe:46:cc:20:09:c7:
                    d3:29:a3:aa:1d:08:ae:bb:85:f6:1b:3b:0a:c1:1e:
                    50:56:94:37:c5:97:fd:e3:e8:09:69:ca:4e:cf:30:
                    45:48:27:44:f2:ad:94:1e:15:05:8f:54:bd:e5:f5:
                    17:0e:a4:8d:c1:e9:46:e0:4a:6b:b7:f0:73:1e:f1:
                    83:c8:bb:5a:b1:e0:11:09:7d:c8:b5:09:eb:d1:08:
                    20:49:81:83:83:c5:d2:5a:26:09:3c:46:7e:70:1d:
                    ee:27:b0:d5:cc:83:e8:83:65:6a:58:b1:20:d8:9c:
                    0e:69:e5:8e:15:73:04:cf:88:71:95:78:1f:fa:f8:
                    75:db:09:31:dd:86:33:4e:1a:27:01:73:9b:46:5a:
                    0c:65
                Exponent: 65537 (0x10001)
        X509v3 extensions:
            X509v3 Basic Constraints: 
                CA:FALSE
            X509v3 Subject Key Identifier: 
                BC:3E:81:CD:04:5E:7F:8B:92:21:B8:12:C8:80:82:1C:99:7F:27:C2
            X509v3 Authority Key Identifier: 
                keyid:3E:D0:CD:5E:28:8E:D3:FA:6D:FC:5D:B5:53:35:E9:08:24:2F:65:18
                DirName:/CN=team630-net
                serial:4B:E4:6D:45:FA:1D:D1:D7:0C:AE:BC:D2:24:57:2B:FF:78:EF:44:61

            X509v3 Extended Key Usage: 
                TLS Web Client Authentication
            X509v3 Key Usage: 
                Digital Signature
    Signature Algorithm: sha256WithRSAEncryption
         c4:f8:67:b7:43:d7:34:65:de:c1:34:fa:8b:b9:bf:bc:af:80:
         9c:e5:d0:87:8e:76:9e:9e:e1:6a:2f:69:77:cc:38:fb:e8:0b:
         fd:4a:8b:62:16:99:63:ae:c9:df:72:66:98:82:c6:2d:3a:ea:
         74:69:31:e2:3a:cd:bf:a9:b5:71:b8:62:33:7e:b8:8a:92:2d:
         be:f5:c0:61:1b:92:a6:b7:d5:a7:d9:ca:f3:7f:3f:e7:6f:0e:
         a5:88:ed:26:87:c3:25:56:60:94:b3:e5:55:72:ff:6f:79:73:
         96:19:6b:ec:76:e9:34:21:a9:75:a9:10:79:8b:5a:6e:a2:c4:
         e7:ab:16:0f:47:79:cc:ad:61:b9:71:06:60:ac:20:ba:d8:5f:
         bc:49:b2:63:ff:1e:eb:e1:e6:b8:ad:ad:32:ea:ae:09:c7:e8:
         9e:4d:13:76:14:b9:76:84:cf:0b:52:9a:30:c4:43:d4:76:68:
         c0:5f:6a:9d:a1:54:f5:5e:15:8a:bd:1c:8c:a5:4c:f9:a7:50:
         81:35:25:20:8e:12:68:d2:19:71:50:a9:71:ff:b2:14:20:3a:
         90:13:a5:48:14:8d:28:c4:71:89:e1:24:bb:e7:0a:5b:d6:0f:
         d3:9d:db:46:8f:16:7e:7a:97:f9:3d:3e:33:07:5d:60:70:9c:
         6b:22:2b:ab
-----BEGIN CERTIFICATE-----
MIIDXTCCAkWgAwIBAgIRAJXl6ujZBEQsHovJ7H0tPMcwDQYJKoZIhvcNAQELBQAw
FjEUMBIGA1UEAwwLdGVhbTYzMC1uZXQwHhcNMjEwOTEzMDQxNDQ2WhcNMjQwODI4
MDQxNDQ2WjAZMRcwFQYDVQQDDA50ZWFtNjMwLWNsaWVudDCCASIwDQYJKoZIhvcN
AQEBBQADggEPADCCAQoCggEBALsY1Z1cDxWxlWW1ooP7fzwxFzUTNBLbjBrXDWyY
jBPav/NhX3VxYZXIUVzVM1D2Wi79z+8SRYXgjfrF3Ngr2aHLRdXJ6gIgMaP0cjHR
tgRKcBegqxVRG9/G39jkqF6jJUA0TqPMPo4+aJ8Iv2Jr2AZr/kbMIAnH0ymjqh0I
rruF9hs7CsEeUFaUN8WX/ePoCWnKTs8wRUgnRPKtlB4VBY9UveX1Fw6kjcHpRuBK
a7fwcx7xg8i7WrHgEQl9yLUJ69EIIEmBg4PF0lomCTxGfnAd7iew1cyD6INlalix
INicDmnljhVzBM+IcZV4H/r4ddsJMd2GM04aJwFzm0ZaDGUCAwEAAaOBojCBnzAJ
BgNVHRMEAjAAMB0GA1UdDgQWBBS8PoHNBF5/i5IhuBLIgIIcmX8nwjBRBgNVHSME
SjBIgBQ+0M1eKI7T+m38XbVTNekIJC9lGKEapBgwFjEUMBIGA1UEAwwLdGVhbTYz
MC1uZXSCFEvkbUX6HdHXDK680iRXK/9470RhMBMGA1UdJQQMMAoGCCsGAQUFBwMC
MAsGA1UdDwQEAwIHgDANBgkqhkiG9w0BAQsFAAOCAQEAxPhnt0PXNGXewTT6i7m/
vK+AnOXQh452np7hai9pd8w4++gL/UqLYhaZY67J33JmmILGLTrqdGkx4jrNv6m1
cbhiM364ipItvvXAYRuSprfVp9nK838/528OpYjtJofDJVZglLPlVXL/b3lzlhlr
7HbpNCGpdakQeYtabqLE56sWD0d5zK1huXEGYKwguthfvEmyY/8e6+HmuK2tMuqu
Ccfonk0TdhS5doTPC1KaMMRD1HZowF9qnaFU9V4Vir0cjKVM+adQgTUlII4SaNIZ
cVCpcf+yFCA6kBOlSBSNKMRxieEku+cKW9YP053bRo8WfnqX+T0+MwddYHCcayIr
qw==
-----END CERTIFICATE-----
