Certificate:
    Data:
        Version: 3 (0x2)
        Serial Number:
            59:d4:32:c3:3c:d5:f8:14:66:10:08:c1:3f:1f:a1:73
        Signature Algorithm: sha256WithRSAEncryption
        Issuer: CN=team257-net
        Validity
            Not Before: Sep 13 01:06:47 2021 GMT
            Not After : Aug 28 01:06:47 2024 GMT
        Subject: CN=team257-client
        Subject Public Key Info:
            Public Key Algorithm: rsaEncryption
                RSA Public-Key: (2048 bit)
                Modulus:
                    00:aa:5d:f0:c4:11:94:4e:ee:28:5e:b6:49:9e:b5:
                    c2:34:df:36:25:cb:4f:27:16:45:15:b6:60:34:79:
                    3f:47:2f:a2:e8:cb:5a:0f:ce:fc:e1:bf:3c:1b:d3:
                    4d:0a:6b:b4:34:51:9e:b8:24:a5:ff:c7:94:87:ab:
                    ed:5c:c1:5c:d3:7d:d0:3f:f3:5a:f4:30:36:f0:e9:
                    95:05:97:c8:12:45:a7:b2:91:a8:74:77:53:e1:a0:
                    70:56:d3:a6:65:ef:6e:6b:48:22:99:f5:c7:40:18:
                    09:32:16:75:a2:0c:5b:9b:36:cf:d3:a8:32:61:3b:
                    17:be:ff:e8:a3:03:1f:c9:9f:af:e4:70:18:f7:02:
                    4c:5e:6c:6e:52:f6:47:fd:50:e8:ad:f5:6b:50:66:
                    e0:00:d9:c3:95:f5:a2:dd:e1:67:a2:72:02:cb:c5:
                    10:58:c4:ec:e7:a8:94:59:27:ed:82:d2:0f:f4:cc:
                    91:6c:d9:96:fa:fb:be:27:f4:3f:f0:53:70:3a:f7:
                    0f:5c:66:3b:95:03:b3:73:b8:b8:72:7c:95:cf:40:
                    49:6c:d5:81:25:8c:9b:c4:a0:e0:4a:1b:d0:77:eb:
                    39:2e:b3:90:a0:a9:d5:59:05:e5:71:95:f8:6f:92:
                    41:2e:50:e3:46:e0:1c:95:de:d7:6c:0e:82:54:68:
                    8f:b1
                Exponent: 65537 (0x10001)
        X509v3 extensions:
            X509v3 Basic Constraints: 
                CA:FALSE
            X509v3 Subject Key Identifier: 
                EE:80:7B:5E:11:60:7E:8B:CB:24:88:A6:77:7E:67:B0:16:F5:C8:6D
            X509v3 Authority Key Identifier: 
                keyid:DF:11:4B:FB:53:6C:02:32:5C:EB:F0:B1:8A:70:33:45:24:28:74:AC
                DirName:/CN=team257-net
                serial:7D:ED:87:8A:0B:EE:19:3B:A3:C5:13:B5:2E:2A:CB:CF:19:75:6D:91

            X509v3 Extended Key Usage: 
                TLS Web Client Authentication
            X509v3 Key Usage: 
                Digital Signature
    Signature Algorithm: sha256WithRSAEncryption
         3d:65:4d:4b:91:3d:5e:d2:92:c5:5a:80:fe:11:aa:ef:fa:45:
         a6:88:ff:56:81:01:5d:20:65:4e:8a:62:54:40:12:cf:ed:c2:
         af:20:95:a8:8b:41:2e:76:9a:2c:97:42:75:e3:2c:e6:bc:c9:
         d6:3e:fe:18:0a:f6:28:6a:5d:44:ba:90:ef:42:c0:b9:84:4e:
         90:3d:02:f9:a6:34:fc:32:2f:c8:b6:58:5e:61:6c:9a:c2:14:
         b6:2c:bc:b6:4d:df:f2:60:16:10:9b:5d:56:7c:92:ce:a0:9f:
         a7:29:3a:96:98:ec:f0:f9:fd:89:57:99:0e:c1:6f:e4:ae:69:
         2e:9d:7c:17:2d:67:1e:e3:e5:01:83:c0:ef:76:48:4c:ee:6d:
         4a:96:08:64:73:df:a0:5d:f5:f0:ad:27:f9:9b:36:5a:39:95:
         f4:e9:8a:60:59:84:43:34:6d:e1:52:d3:ae:c2:cb:4c:19:c3:
         ed:c9:96:5e:9a:33:3e:04:7d:a1:f6:c2:a2:25:88:24:9b:0f:
         91:6d:d1:d9:db:f3:f7:8f:1c:29:bb:b0:d6:dd:6d:01:6a:d1:
         c7:6b:fc:7a:ec:82:d9:34:d1:1d:03:7d:0c:71:50:40:c7:3c:
         6a:f0:75:0c:dc:1e:65:49:37:0c:94:24:70:b0:83:5d:b3:74:
         ed:30:d2:3b
-----BEGIN CERTIFICATE-----
MIIDXDCCAkSgAwIBAgIQWdQywzzV+BRmEAjBPx+hczANBgkqhkiG9w0BAQsFADAW
MRQwEgYDVQQDDAt0ZWFtMjU3LW5ldDAeFw0yMTA5MTMwMTA2NDdaFw0yNDA4Mjgw
MTA2NDdaMBkxFzAVBgNVBAMMDnRlYW0yNTctY2xpZW50MIIBIjANBgkqhkiG9w0B
AQEFAAOCAQ8AMIIBCgKCAQEAql3wxBGUTu4oXrZJnrXCNN82JctPJxZFFbZgNHk/
Ry+i6MtaD8784b88G9NNCmu0NFGeuCSl/8eUh6vtXMFc033QP/Na9DA28OmVBZfI
EkWnspGodHdT4aBwVtOmZe9ua0gimfXHQBgJMhZ1ogxbmzbP06gyYTsXvv/oowMf
yZ+v5HAY9wJMXmxuUvZH/VDorfVrUGbgANnDlfWi3eFnonICy8UQWMTs56iUWSft
gtIP9MyRbNmW+vu+J/Q/8FNwOvcPXGY7lQOzc7i4cnyVz0BJbNWBJYybxKDgShvQ
d+s5LrOQoKnVWQXlcZX4b5JBLlDjRuAcld7XbA6CVGiPsQIDAQABo4GiMIGfMAkG
A1UdEwQCMAAwHQYDVR0OBBYEFO6Ae14RYH6LyySIpnd+Z7AW9chtMFEGA1UdIwRK
MEiAFN8RS/tTbAIyXOvwsYpwM0UkKHSsoRqkGDAWMRQwEgYDVQQDDAt0ZWFtMjU3
LW5ldIIUfe2HigvuGTujxRO1LirLzxl1bZEwEwYDVR0lBAwwCgYIKwYBBQUHAwIw
CwYDVR0PBAQDAgeAMA0GCSqGSIb3DQEBCwUAA4IBAQA9ZU1LkT1e0pLFWoD+Earv
+kWmiP9WgQFdIGVOimJUQBLP7cKvIJWoi0Eudposl0J14yzmvMnWPv4YCvYoal1E
upDvQsC5hE6QPQL5pjT8Mi/ItlheYWyawhS2LLy2Td/yYBYQm11WfJLOoJ+nKTqW
mOzw+f2JV5kOwW/krmkunXwXLWce4+UBg8DvdkhM7m1Klghkc9+gXfXwrSf5mzZa
OZX06YpgWYRDNG3hUtOuwstMGcPtyZZemjM+BH2h9sKiJYgkmw+RbdHZ2/P3jxwp
u7DW3W0BatHHa/x67ILZNNEdA30McVBAxzxq8HUM3B5lSTcMlCRwsINds3TtMNI7
-----END CERTIFICATE-----
