Certificate:
    Data:
        Version: 3 (0x2)
        Serial Number:
            f0:07:21:1d:cb:df:46:a0:bd:21:39:9a:79:50:b5:5c
        Signature Algorithm: sha256WithRSAEncryption
        Issuer: CN=team728-net
        Validity
            Not Before: Sep 13 05:01:06 2021 GMT
            Not After : Aug 28 05:01:06 2024 GMT
        Subject: CN=team728-server
        Subject Public Key Info:
            Public Key Algorithm: rsaEncryption
                RSA Public-Key: (2048 bit)
                Modulus:
                    00:d2:0a:bb:3f:93:26:5f:84:a4:e3:94:5e:cf:90:
                    60:ee:eb:90:57:eb:f1:5d:50:3f:ab:bf:fd:c3:ab:
                    ef:98:48:84:d8:fe:3c:79:be:6b:32:34:f4:31:60:
                    7d:32:49:6b:5c:08:60:34:7d:1f:4a:51:11:7c:7b:
                    b3:c1:96:0f:f1:83:45:0c:64:b8:26:ca:ca:1f:d6:
                    d4:c6:17:81:44:e2:9c:47:17:72:53:b8:fb:11:5d:
                    49:4d:0d:7d:2a:4e:0d:9d:18:7c:3f:66:3f:44:09:
                    5b:5b:d4:16:8a:be:c5:04:2d:cc:2a:4c:0d:6b:11:
                    cd:9e:85:59:cb:31:e9:41:21:d5:d7:d0:ac:b4:70:
                    11:53:f0:3c:c5:05:06:ee:aa:e5:5c:c6:58:0c:83:
                    b8:e6:1f:d7:e0:c1:cf:1d:15:b3:ed:ab:da:39:1c:
                    62:96:94:07:70:f8:b8:7d:a3:fc:54:14:64:29:56:
                    dc:37:a5:b9:5e:7c:a9:f4:3c:cc:9b:ee:d1:a6:59:
                    5c:11:b9:4d:34:4b:60:63:8f:a8:c0:b3:18:a2:59:
                    c7:ed:61:7a:6c:5c:86:3b:bc:bf:db:bd:2e:85:c4:
                    b8:40:cf:ad:65:93:33:bd:b9:71:2c:85:27:40:ac:
                    45:4b:4a:de:ef:5d:b3:08:02:ac:39:43:a2:bd:03:
                    b6:ef
                Exponent: 65537 (0x10001)
        X509v3 extensions:
            X509v3 Basic Constraints: 
                CA:FALSE
            X509v3 Subject Key Identifier: 
                74:0B:46:52:A8:47:71:57:E3:8F:A8:44:33:1F:93:8E:B0:2B:A7:C6
            X509v3 Authority Key Identifier: 
                keyid:A1:AA:99:DA:69:B0:B0:98:C2:A1:04:5C:95:CE:CF:DF:B2:51:4A:6B
                DirName:/CN=team728-net
                serial:38:38:18:43:71:57:21:4C:70:88:19:32:C4:29:68:3C:FF:30:5F:42

            X509v3 Extended Key Usage: 
                TLS Web Server Authentication
            X509v3 Key Usage: 
                Digital Signature, Key Encipherment
            X509v3 Subject Alternative Name: 
                DNS:team728-server
    Signature Algorithm: sha256WithRSAEncryption
         28:ee:04:6c:ed:35:77:57:27:c8:98:ce:5c:0e:ea:72:7f:f2:
         d8:e0:64:2e:ab:c1:78:11:cb:bc:1a:e5:f5:79:b1:ff:89:89:
         ca:fb:bd:36:bb:1d:4c:fd:87:b6:eb:4b:d6:92:16:e4:07:a2:
         40:d4:3a:bf:8d:c0:10:c7:f2:dc:e4:5f:49:05:2f:c3:86:5f:
         e2:f6:7e:e9:28:ec:a3:5e:5e:99:15:1b:cd:46:3a:3a:7f:f5:
         21:e3:7f:0e:ad:06:00:e5:b5:df:c2:11:0b:b3:42:a5:40:ce:
         cc:9f:fe:06:48:f6:1b:71:e4:73:75:9c:b4:b5:02:1a:a4:a9:
         1e:31:f7:28:4e:88:75:04:d4:d4:87:17:aa:83:72:f6:f5:0c:
         a6:5f:83:24:8a:a0:22:a3:d2:dc:76:26:63:88:d6:5a:49:de:
         80:98:72:23:f3:84:94:30:e2:3d:e6:f7:10:2d:b4:cf:3b:82:
         35:ec:80:12:7d:7b:52:02:ca:2c:57:33:bc:6a:70:32:c2:c2:
         e8:08:41:f5:ac:3d:97:dc:19:3a:e4:61:f0:f0:6b:20:7e:cf:
         f3:fd:fc:f7:16:aa:ae:ba:b2:2c:0f:1e:92:f2:64:d1:f5:37:
         11:05:d1:3d:5a:cb:0b:7a:93:aa:25:0d:37:1e:62:5e:0d:84:
         b6:a7:fb:32
-----BEGIN CERTIFICATE-----
MIIDeDCCAmCgAwIBAgIRAPAHIR3L30agvSE5mnlQtVwwDQYJKoZIhvcNAQELBQAw
FjEUMBIGA1UEAwwLdGVhbTcyOC1uZXQwHhcNMjEwOTEzMDUwMTA2WhcNMjQwODI4
MDUwMTA2WjAZMRcwFQYDVQQDDA50ZWFtNzI4LXNlcnZlcjCCASIwDQYJKoZIhvcN
AQEBBQADggEPADCCAQoCggEBANIKuz+TJl+EpOOUXs+QYO7rkFfr8V1QP6u//cOr
75hIhNj+PHm+azI09DFgfTJJa1wIYDR9H0pREXx7s8GWD/GDRQxkuCbKyh/W1MYX
gUTinEcXclO4+xFdSU0NfSpODZ0YfD9mP0QJW1vUFoq+xQQtzCpMDWsRzZ6FWcsx
6UEh1dfQrLRwEVPwPMUFBu6q5VzGWAyDuOYf1+DBzx0Vs+2r2jkcYpaUB3D4uH2j
/FQUZClW3DeluV58qfQ8zJvu0aZZXBG5TTRLYGOPqMCzGKJZx+1hemxchju8v9u9
LoXEuEDPrWWTM725cSyFJ0CsRUtK3u9dswgCrDlDor0Dtu8CAwEAAaOBvTCBujAJ
BgNVHRMEAjAAMB0GA1UdDgQWBBR0C0ZSqEdxV+OPqEQzH5OOsCunxjBRBgNVHSME
SjBIgBShqpnaabCwmMKhBFyVzs/fslFKa6EapBgwFjEUMBIGA1UEAwwLdGVhbTcy
OC1uZXSCFDg4GENxVyFMcIgZMsQpaDz/MF9CMBMGA1UdJQQMMAoGCCsGAQUFBwMB
MAsGA1UdDwQEAwIFoDAZBgNVHREEEjAQgg50ZWFtNzI4LXNlcnZlcjANBgkqhkiG
9w0BAQsFAAOCAQEAKO4EbO01d1cnyJjOXA7qcn/y2OBkLqvBeBHLvBrl9Xmx/4mJ
yvu9NrsdTP2HtutL1pIW5AeiQNQ6v43AEMfy3ORfSQUvw4Zf4vZ+6Sjso15emRUb
zUY6On/1IeN/Dq0GAOW138IRC7NCpUDOzJ/+Bkj2G3Hkc3WctLUCGqSpHjH3KE6I
dQTU1IcXqoNy9vUMpl+DJIqgIqPS3HYmY4jWWknegJhyI/OElDDiPeb3EC20zzuC
NeyAEn17UgLKLFczvGpwMsLC6AhB9aw9l9wZOuRh8PBrIH7P8/389xaqrrqyLA8e
kvJk0fU3EQXRPVrLC3qTqiUNNx5iXg2Etqf7Mg==
-----END CERTIFICATE-----
