Certificate:
    Data:
        Version: 3 (0x2)
        Serial Number:
            ae:fa:c2:38:ac:0e:53:df:7c:5b:9a:6f:7b:b1:8a:74
        Signature Algorithm: sha256WithRSAEncryption
        Issuer: CN=team611-net
        Validity
            Not Before: Sep 13 04:06:03 2021 GMT
            Not After : Aug 28 04:06:03 2024 GMT
        Subject: CN=team611-server
        Subject Public Key Info:
            Public Key Algorithm: rsaEncryption
                RSA Public-Key: (2048 bit)
                Modulus:
                    00:d6:9b:53:9d:3f:99:d6:c5:88:b6:62:65:a1:a2:
                    6b:86:6d:e6:d3:7c:6b:ba:84:0a:c5:ed:c7:06:96:
                    b2:f5:da:d1:11:6b:38:dc:5e:c7:0a:45:31:ed:1a:
                    56:37:62:f3:56:fb:f1:22:15:46:d8:b9:59:c9:10:
                    0d:ba:e2:f0:17:3d:01:ca:2d:ac:03:c7:2e:07:39:
                    93:9e:a9:f3:bf:5c:67:77:9c:e3:6a:15:8c:35:c0:
                    8b:09:7c:8e:e6:5f:ba:d4:4a:3b:52:30:b5:41:04:
                    83:bf:c1:5e:d9:a0:55:96:70:2f:af:19:8a:8b:4a:
                    45:78:7f:3d:45:e3:5c:c4:02:0a:bd:04:47:b9:a9:
                    59:73:35:c6:5c:f1:f9:32:63:67:96:e6:ac:f4:e5:
                    47:bb:f0:41:23:02:83:e1:37:5b:4b:34:d9:29:d1:
                    00:3c:74:c0:10:3f:f3:9e:30:a3:e1:a5:ad:e0:4b:
                    e5:11:15:1a:a6:10:06:72:1c:76:7c:4f:81:9e:ef:
                    cb:71:4b:ff:4b:6a:80:86:74:be:cb:7e:64:c5:60:
                    10:20:22:9d:6e:70:ad:4d:eb:d1:c1:6e:0b:1f:ea:
                    f8:20:d7:83:9e:fc:d4:24:8e:aa:e8:ba:7b:09:39:
                    d0:17:68:69:4f:b3:91:73:00:c1:5c:8c:06:8f:76:
                    d0:2b
                Exponent: 65537 (0x10001)
        X509v3 extensions:
            X509v3 Basic Constraints: 
                CA:FALSE
            X509v3 Subject Key Identifier: 
                46:99:16:90:9E:66:21:17:F0:C2:59:53:F6:77:63:62:F5:C8:BA:1D
            X509v3 Authority Key Identifier: 
                keyid:85:32:CE:53:25:F4:E3:92:F3:11:CA:EB:58:9B:14:52:F7:ED:5D:4E
                DirName:/CN=team611-net
                serial:0E:D8:03:3A:87:EC:26:B9:52:00:14:96:39:D2:CD:F5:D4:A8:72:49

            X509v3 Extended Key Usage: 
                TLS Web Server Authentication
            X509v3 Key Usage: 
                Digital Signature, Key Encipherment
            X509v3 Subject Alternative Name: 
                DNS:team611-server
    Signature Algorithm: sha256WithRSAEncryption
         81:75:2b:d1:5b:36:43:86:fa:47:60:fe:12:a2:57:9e:70:65:
         5f:b5:ba:28:d0:61:79:e9:a4:2c:55:e0:fd:6e:e6:de:8d:2b:
         ba:cb:6a:33:51:72:79:ac:c8:d4:9a:7b:6a:2a:c3:8d:3e:6f:
         b8:25:bc:16:35:2f:76:67:90:e9:1a:04:b8:c8:f4:73:4b:67:
         7c:ac:cb:c6:5c:ea:ce:c9:35:eb:ca:b6:7e:e8:5f:99:8b:0e:
         df:36:39:7c:4a:44:2d:59:2e:b4:36:a9:70:1e:99:d3:3e:5b:
         9c:f5:bc:fc:af:a2:17:41:db:bf:04:1d:52:5b:07:cd:89:df:
         ef:a1:99:c1:4d:62:c0:07:e1:fb:31:9a:ec:c2:5c:a0:a4:6e:
         52:fd:b2:72:b5:0d:6f:92:c9:fd:87:ac:ba:1a:d4:1a:3a:31:
         71:75:60:72:02:cc:a1:5d:b4:7c:51:09:ca:1e:61:9e:11:08:
         f0:41:f7:6d:64:1e:24:9d:fc:d4:0d:27:26:45:ea:bc:87:fd:
         98:34:63:fe:5f:20:95:6f:d9:55:7d:bc:57:08:9d:f3:c0:23:
         49:55:62:38:df:61:2b:ec:58:87:32:6b:37:54:e7:e0:b8:aa:
         aa:3a:51:09:0b:01:47:16:eb:84:d9:4f:56:d6:54:6e:87:a2:
         d5:69:f2:74
-----BEGIN CERTIFICATE-----
MIIDeDCCAmCgAwIBAgIRAK76wjisDlPffFuab3uxinQwDQYJKoZIhvcNAQELBQAw
FjEUMBIGA1UEAwwLdGVhbTYxMS1uZXQwHhcNMjEwOTEzMDQwNjAzWhcNMjQwODI4
MDQwNjAzWjAZMRcwFQYDVQQDDA50ZWFtNjExLXNlcnZlcjCCASIwDQYJKoZIhvcN
AQEBBQADggEPADCCAQoCggEBANabU50/mdbFiLZiZaGia4Zt5tN8a7qECsXtxwaW
svXa0RFrONxexwpFMe0aVjdi81b78SIVRti5WckQDbri8Bc9AcotrAPHLgc5k56p
879cZ3ec42oVjDXAiwl8juZfutRKO1IwtUEEg7/BXtmgVZZwL68ZiotKRXh/PUXj
XMQCCr0ER7mpWXM1xlzx+TJjZ5bmrPTlR7vwQSMCg+E3W0s02SnRADx0wBA/854w
o+GlreBL5REVGqYQBnIcdnxPgZ7vy3FL/0tqgIZ0vst+ZMVgECAinW5wrU3r0cFu
Cx/q+CDXg5781CSOqui6ewk50BdoaU+zkXMAwVyMBo920CsCAwEAAaOBvTCBujAJ
BgNVHRMEAjAAMB0GA1UdDgQWBBRGmRaQnmYhF/DCWVP2d2Ni9ci6HTBRBgNVHSME
SjBIgBSFMs5TJfTjkvMRyutYmxRS9+1dTqEapBgwFjEUMBIGA1UEAwwLdGVhbTYx
MS1uZXSCFA7YAzqH7Ca5UgAUljnSzfXUqHJJMBMGA1UdJQQMMAoGCCsGAQUFBwMB
MAsGA1UdDwQEAwIFoDAZBgNVHREEEjAQgg50ZWFtNjExLXNlcnZlcjANBgkqhkiG
9w0BAQsFAAOCAQEAgXUr0Vs2Q4b6R2D+EqJXnnBlX7W6KNBheemkLFXg/W7m3o0r
ustqM1FyeazI1Jp7airDjT5vuCW8FjUvdmeQ6RoEuMj0c0tnfKzLxlzqzsk168q2
fuhfmYsO3zY5fEpELVkutDapcB6Z0z5bnPW8/K+iF0HbvwQdUlsHzYnf76GZwU1i
wAfh+zGa7MJcoKRuUv2ycrUNb5LJ/YesuhrUGjoxcXVgcgLMoV20fFEJyh5hnhEI
8EH3bWQeJJ381A0nJkXqvIf9mDRj/l8glW/ZVX28Vwid88AjSVViON9hK+xYhzJr
N1Tn4LiqqjpRCQsBRxbrhNlPVtZUboei1WnydA==
-----END CERTIFICATE-----
