Certificate:
    Data:
        Version: 3 (0x2)
        Serial Number:
            42:a9:26:42:27:e2:eb:ce:36:d5:1a:92:fe:8b:f8:c8
        Signature Algorithm: sha256WithRSAEncryption
        Issuer: CN=team347-net
        Validity
            Not Before: Sep 13 01:57:29 2021 GMT
            Not After : Aug 28 01:57:29 2024 GMT
        Subject: CN=team347-server
        Subject Public Key Info:
            Public Key Algorithm: rsaEncryption
                RSA Public-Key: (2048 bit)
                Modulus:
                    00:df:d7:62:f8:76:d4:42:5e:a2:78:2d:13:7a:83:
                    1d:ba:b8:38:5a:2b:cd:70:04:26:b7:a2:10:bd:c0:
                    43:32:b9:d5:f4:78:77:fa:a7:5a:b8:ed:da:a6:3e:
                    78:b6:56:a0:1f:9e:6b:33:5b:1b:f8:30:02:89:70:
                    3d:8c:47:e8:8f:d8:76:9f:9a:ea:d3:b6:2a:f8:a7:
                    e3:94:35:79:3b:e8:a5:02:68:6d:5c:45:c8:06:40:
                    6b:1f:ed:71:8b:58:f7:23:b0:f5:23:64:27:28:56:
                    09:77:ef:c8:8d:cc:59:8a:3b:0d:bd:8c:91:c6:16:
                    eb:45:e1:5f:39:45:12:b0:3e:22:8c:40:63:04:b1:
                    1b:f8:43:fa:f4:c9:d3:c2:ec:82:5a:98:36:e7:5c:
                    8e:74:75:d1:55:10:98:48:8a:6c:58:51:1f:c9:9d:
                    19:6c:0b:83:f1:47:80:db:6b:11:32:8e:93:16:f4:
                    67:b4:de:2f:1c:3b:46:8d:76:33:7b:6c:2c:79:6e:
                    01:26:91:78:20:f1:db:e1:e3:06:dd:7c:21:d0:b5:
                    97:49:70:75:f3:40:7e:ba:79:8b:65:67:db:76:0f:
                    00:6e:3c:85:22:cf:f0:10:45:19:10:ea:91:ae:1f:
                    64:d2:56:db:99:b0:81:da:07:a1:2c:91:fe:33:c7:
                    ea:11
                Exponent: 65537 (0x10001)
        X509v3 extensions:
            X509v3 Basic Constraints: 
                CA:FALSE
            X509v3 Subject Key Identifier: 
                A1:D2:21:EF:49:6E:69:2A:4C:1F:93:EA:0F:E6:64:B3:17:D8:27:29
            X509v3 Authority Key Identifier: 
                keyid:66:52:13:8A:82:E7:B2:2D:3B:89:B9:D3:9E:F4:76:98:5F:5D:C4:0D
                DirName:/CN=team347-net
                serial:16:52:7E:B3:B9:1D:D6:1E:4D:68:0C:E5:67:9F:FF:2F:59:A0:E4:7B

            X509v3 Extended Key Usage: 
                TLS Web Server Authentication
            X509v3 Key Usage: 
                Digital Signature, Key Encipherment
            X509v3 Subject Alternative Name: 
                DNS:team347-server
    Signature Algorithm: sha256WithRSAEncryption
         1b:27:2e:97:66:01:10:f9:74:c9:d3:02:c0:1f:e9:4f:30:38:
         28:2a:19:24:3b:6c:9e:16:25:eb:f3:9c:29:d2:48:d2:e9:ef:
         37:a2:59:ff:b5:12:d6:4a:94:45:9f:27:db:95:c6:3e:58:59:
         ce:1d:89:38:37:ca:68:75:31:45:80:b3:81:a1:c9:4c:37:2e:
         59:de:c9:70:eb:1f:6f:0f:5e:46:81:bd:6b:d0:51:d1:cf:24:
         77:94:47:5c:b8:41:e2:54:fa:2c:05:c2:7e:27:5f:c7:e1:5e:
         89:59:91:c6:cf:3f:d7:8c:bc:cc:38:4d:bc:26:25:69:61:8a:
         c2:20:f5:38:55:9a:5a:d6:83:e8:e9:ed:c2:33:16:1e:a4:ab:
         94:c3:b7:11:a6:60:90:f1:11:41:27:a0:56:14:09:0d:e2:b9:
         da:4d:b6:68:13:fc:27:cf:3e:21:e8:17:6a:78:7b:45:4e:bc:
         3a:30:fd:20:4b:dc:e4:99:f7:17:bc:fc:11:07:5a:4b:3a:4f:
         3c:07:f9:ed:58:b0:b0:5e:3f:fb:39:45:c8:ca:72:fe:d4:23:
         75:07:27:4f:f5:18:1f:0f:62:04:bd:f7:a8:1c:19:c2:c9:f3:
         82:ca:45:7e:96:a3:52:44:a5:30:af:5e:7d:7e:71:a9:7c:d7:
         a6:78:eb:2e
-----BEGIN CERTIFICATE-----
MIIDdzCCAl+gAwIBAgIQQqkmQifi68421RqS/ov4yDANBgkqhkiG9w0BAQsFADAW
MRQwEgYDVQQDDAt0ZWFtMzQ3LW5ldDAeFw0yMTA5MTMwMTU3MjlaFw0yNDA4Mjgw
MTU3MjlaMBkxFzAVBgNVBAMMDnRlYW0zNDctc2VydmVyMIIBIjANBgkqhkiG9w0B
AQEFAAOCAQ8AMIIBCgKCAQEA39di+HbUQl6ieC0TeoMdurg4WivNcAQmt6IQvcBD
MrnV9Hh3+qdauO3apj54tlagH55rM1sb+DACiXA9jEfoj9h2n5rq07Yq+KfjlDV5
O+ilAmhtXEXIBkBrH+1xi1j3I7D1I2QnKFYJd+/IjcxZijsNvYyRxhbrReFfOUUS
sD4ijEBjBLEb+EP69MnTwuyCWpg251yOdHXRVRCYSIpsWFEfyZ0ZbAuD8UeA22sR
Mo6TFvRntN4vHDtGjXYze2wseW4BJpF4IPHb4eMG3Xwh0LWXSXB180B+unmLZWfb
dg8AbjyFIs/wEEUZEOqRrh9k0lbbmbCB2gehLJH+M8fqEQIDAQABo4G9MIG6MAkG
A1UdEwQCMAAwHQYDVR0OBBYEFKHSIe9JbmkqTB+T6g/mZLMX2CcpMFEGA1UdIwRK
MEiAFGZSE4qC57ItO4m50570dphfXcQNoRqkGDAWMRQwEgYDVQQDDAt0ZWFtMzQ3
LW5ldIIUFlJ+s7kd1h5NaAzlZ5//L1mg5HswEwYDVR0lBAwwCgYIKwYBBQUHAwEw
CwYDVR0PBAQDAgWgMBkGA1UdEQQSMBCCDnRlYW0zNDctc2VydmVyMA0GCSqGSIb3
DQEBCwUAA4IBAQAbJy6XZgEQ+XTJ0wLAH+lPMDgoKhkkO2yeFiXr85wp0kjS6e83
oln/tRLWSpRFnyfblcY+WFnOHYk4N8podTFFgLOBoclMNy5Z3slw6x9vD15Ggb1r
0FHRzyR3lEdcuEHiVPosBcJ+J1/H4V6JWZHGzz/XjLzMOE28JiVpYYrCIPU4VZpa
1oPo6e3CMxYepKuUw7cRpmCQ8RFBJ6BWFAkN4rnaTbZoE/wnzz4h6BdqeHtFTrw6
MP0gS9zkmfcXvPwRB1pLOk88B/ntWLCwXj/7OUXIynL+1CN1BydP9RgfD2IEvfeo
HBnCyfOCykV+lqNSRKUwr159fnGpfNemeOsu
-----END CERTIFICATE-----
