Certificate:
    Data:
        Version: 3 (0x2)
        Serial Number:
            59:f7:3d:2d:73:4e:55:c1:a4:80:07:74:74:d4:66:5f
        Signature Algorithm: sha256WithRSAEncryption
        Issuer: CN=team191-net
        Validity
            Not Before: Sep 13 00:33:02 2021 GMT
            Not After : Aug 28 00:33:02 2024 GMT
        Subject: CN=team191-client
        Subject Public Key Info:
            Public Key Algorithm: rsaEncryption
                RSA Public-Key: (2048 bit)
                Modulus:
                    00:c8:12:11:b5:9e:d0:56:a6:3a:32:1b:72:f2:e4:
                    02:cb:4d:40:dd:f9:da:d3:6f:42:32:70:3c:81:2c:
                    01:9c:b6:f3:7e:99:86:07:1a:d6:a6:c2:5a:a7:e4:
                    9d:d6:20:56:cf:d6:a6:5f:43:97:b7:9a:fd:72:67:
                    62:9e:af:9a:0f:c0:01:bd:6e:df:82:ed:2a:be:40:
                    fb:94:18:51:e8:0b:f7:fd:c3:35:ec:3f:0c:7e:22:
                    76:55:02:ca:a2:a4:88:81:ce:d1:f8:64:8f:a9:42:
                    27:1e:5c:95:32:ba:4e:6c:a1:4b:bc:64:d3:88:b2:
                    f8:e6:b2:4a:9f:eb:14:38:34:cb:bf:33:fa:a9:57:
                    8b:99:73:17:05:05:ca:50:f1:34:ae:81:42:7b:da:
                    48:3c:e1:72:41:10:d0:4c:6a:c0:9a:df:8f:3b:e5:
                    4b:98:c5:7d:12:f8:52:b3:0c:4f:51:06:55:34:00:
                    73:3c:c8:b9:fa:08:03:02:53:2f:b6:7c:c6:43:a7:
                    57:e0:bc:6e:6a:e8:b7:b2:67:eb:f3:e6:0a:06:f3:
                    13:29:a9:60:9b:20:c2:1a:92:f7:5f:9a:29:59:25:
                    57:24:9e:fc:09:ab:e6:a6:80:d0:1e:38:65:25:09:
                    a4:f9:2c:06:69:2a:e6:9e:b6:3b:29:a3:43:00:16:
                    51:9f
                Exponent: 65537 (0x10001)
        X509v3 extensions:
            X509v3 Basic Constraints: 
                CA:FALSE
            X509v3 Subject Key Identifier: 
                87:B1:FF:8F:FB:5D:9B:0D:D4:6C:39:D0:F8:AC:9A:53:40:B5:45:22
            X509v3 Authority Key Identifier: 
                keyid:CF:27:C6:AD:E2:9B:D4:AB:75:BF:BE:9B:A2:2E:7C:8D:D1:18:5D:56
                DirName:/CN=team191-net
                serial:7A:DC:81:D1:EB:09:1D:0D:C1:17:97:A3:B6:BF:8D:DA:9F:B1:27:1E

            X509v3 Extended Key Usage: 
                TLS Web Client Authentication
            X509v3 Key Usage: 
                Digital Signature
    Signature Algorithm: sha256WithRSAEncryption
         11:fb:70:45:ff:fb:0d:79:6e:79:59:09:c1:5b:64:89:4a:f8:
         e7:0c:e5:cd:a2:44:54:19:a0:b9:3e:2d:cc:06:88:97:9c:33:
         5c:56:b0:d8:02:0d:fb:16:b3:e5:b4:14:8b:dc:c1:d4:bb:d3:
         76:e9:33:ff:66:78:79:e7:a1:a8:d8:9d:7f:10:74:41:42:00:
         54:49:17:cd:42:56:8b:3b:d2:a5:ae:a4:8d:d4:4a:56:b7:56:
         a5:c9:01:f3:33:12:2e:0f:b1:15:f1:cb:26:51:c0:1b:cd:dc:
         d3:67:46:86:78:cb:1d:43:59:68:b3:ad:a7:0e:7e:99:17:87:
         54:3b:1e:d6:d9:68:6d:7e:f7:e6:86:04:3d:50:4f:dd:63:a8:
         f5:ff:84:30:1d:e9:33:04:8a:5f:ea:9c:6d:e0:95:84:93:7e:
         d7:0d:49:e9:12:02:74:e5:65:26:8e:06:c2:e0:21:1b:d3:76:
         10:2d:97:43:30:38:24:cb:52:8a:65:cd:2a:a4:31:25:60:44:
         e3:63:b1:d1:9d:27:ef:8c:8d:42:37:a1:40:96:e7:73:05:b3:
         a9:81:f8:d7:58:e2:bb:17:4e:46:c8:f2:36:82:49:ee:4e:de:
         bd:86:b9:58:e2:62:9f:48:51:12:1c:38:56:e7:2a:38:dc:07:
         25:b4:69:31
-----BEGIN CERTIFICATE-----
MIIDXDCCAkSgAwIBAgIQWfc9LXNOVcGkgAd0dNRmXzANBgkqhkiG9w0BAQsFADAW
MRQwEgYDVQQDDAt0ZWFtMTkxLW5ldDAeFw0yMTA5MTMwMDMzMDJaFw0yNDA4Mjgw
MDMzMDJaMBkxFzAVBgNVBAMMDnRlYW0xOTEtY2xpZW50MIIBIjANBgkqhkiG9w0B
AQEFAAOCAQ8AMIIBCgKCAQEAyBIRtZ7QVqY6Mhty8uQCy01A3fna029CMnA8gSwB
nLbzfpmGBxrWpsJap+Sd1iBWz9amX0OXt5r9cmdinq+aD8ABvW7fgu0qvkD7lBhR
6Av3/cM17D8MfiJ2VQLKoqSIgc7R+GSPqUInHlyVMrpObKFLvGTTiLL45rJKn+sU
ODTLvzP6qVeLmXMXBQXKUPE0roFCe9pIPOFyQRDQTGrAmt+PO+VLmMV9EvhSswxP
UQZVNABzPMi5+ggDAlMvtnzGQ6dX4Lxuaui3smfr8+YKBvMTKalgmyDCGpL3X5op
WSVXJJ78CavmpoDQHjhlJQmk+SwGaSrmnrY7KaNDABZRnwIDAQABo4GiMIGfMAkG
A1UdEwQCMAAwHQYDVR0OBBYEFIex/4/7XZsN1Gw50PismlNAtUUiMFEGA1UdIwRK
MEiAFM8nxq3im9Srdb++m6IufI3RGF1WoRqkGDAWMRQwEgYDVQQDDAt0ZWFtMTkx
LW5ldIIUetyB0esJHQ3BF5ejtr+N2p+xJx4wEwYDVR0lBAwwCgYIKwYBBQUHAwIw
CwYDVR0PBAQDAgeAMA0GCSqGSIb3DQEBCwUAA4IBAQAR+3BF//sNeW55WQnBW2SJ
SvjnDOXNokRUGaC5Pi3MBoiXnDNcVrDYAg37FrPltBSL3MHUu9N26TP/Znh556Go
2J1/EHRBQgBUSRfNQlaLO9KlrqSN1EpWt1alyQHzMxIuD7EV8csmUcAbzdzTZ0aG
eMsdQ1los62nDn6ZF4dUOx7W2WhtfvfmhgQ9UE/dY6j1/4QwHekzBIpf6pxt4JWE
k37XDUnpEgJ05WUmjgbC4CEb03YQLZdDMDgky1KKZc0qpDElYETjY7HRnSfvjI1C
N6FAludzBbOpgfjXWOK7F05GyPI2gknuTt69hrlY4mKfSFESHDhW5yo43AcltGkx
-----END CERTIFICATE-----
