Certificate:
    Data:
        Version: 3 (0x2)
        Serial Number:
            e6:1f:5a:c4:7d:29:9e:16:b4:c5:73:ad:3e:08:1e:cd
        Signature Algorithm: sha256WithRSAEncryption
        Issuer: CN=team109-net
        Validity
            Not Before: Sep 12 23:41:50 2021 GMT
            Not After : Aug 27 23:41:50 2024 GMT
        Subject: CN=team109-client
        Subject Public Key Info:
            Public Key Algorithm: rsaEncryption
                RSA Public-Key: (2048 bit)
                Modulus:
                    00:cc:ec:e3:7b:e1:97:7d:f0:ea:3a:59:1b:1c:d3:
                    de:69:cf:75:ee:a1:75:e4:7e:09:07:f9:c0:58:aa:
                    12:21:ac:a6:5f:97:85:f1:24:c9:67:63:d3:40:94:
                    46:6a:20:9e:c6:a0:f3:56:e4:36:a5:07:3a:7f:d9:
                    32:75:45:9e:14:00:b1:40:ba:b5:0c:4a:65:44:23:
                    0d:45:52:b2:a7:7e:b1:c8:18:dd:69:08:aa:ad:8b:
                    0e:59:33:de:74:32:68:fc:10:28:56:c6:9d:20:5a:
                    2e:e4:38:64:86:24:4e:00:d8:3c:c4:3d:55:b6:e3:
                    fc:7a:82:b7:f5:b8:cf:da:53:b1:94:65:0b:b4:44:
                    f6:29:b4:9a:10:e0:af:9a:de:c5:7f:5e:21:26:10:
                    8d:86:97:d1:bb:35:75:c9:08:d8:da:ec:89:d4:bf:
                    17:36:5e:cc:14:bd:00:73:e0:5c:a3:6d:f3:a0:67:
                    83:92:d3:2b:a0:da:0b:4b:7d:61:5b:37:e5:44:c1:
                    65:d9:67:64:ce:e1:ce:6f:46:c3:4b:01:60:63:7d:
                    6f:1e:52:34:e7:91:34:0b:53:67:60:23:22:1f:14:
                    96:65:48:12:04:87:48:26:44:f9:9d:12:de:76:32:
                    c3:66:f9:15:a8:e4:f1:80:44:6e:e5:2b:26:71:7f:
                    47:79
                Exponent: 65537 (0x10001)
        X509v3 extensions:
            X509v3 Basic Constraints: 
                CA:FALSE
            X509v3 Subject Key Identifier: 
                B1:FF:8C:8F:B4:02:A9:3F:7A:4A:7B:82:CE:7B:C3:7B:3C:8F:90:91
            X509v3 Authority Key Identifier: 
                keyid:3A:5B:48:37:2A:A3:7D:5A:E0:74:67:38:9E:C2:F3:8D:98:53:C6:AD
                DirName:/CN=team109-net
                serial:2A:9D:DF:92:70:D8:92:2E:C2:7D:2D:8D:D5:53:4C:13:1C:10:DA:BF

            X509v3 Extended Key Usage: 
                TLS Web Client Authentication
            X509v3 Key Usage: 
                Digital Signature
    Signature Algorithm: sha256WithRSAEncryption
         84:ad:ec:29:93:fa:fe:22:6c:b1:71:3b:83:70:89:8e:20:2c:
         ab:1f:f0:80:22:71:10:af:33:e0:84:36:ae:9c:b3:05:97:e5:
         45:93:cb:a1:04:65:b4:aa:46:73:1e:62:a0:c5:8b:e0:38:ed:
         d1:be:e0:4c:ff:4f:2c:52:24:ed:05:ce:4a:fc:3e:16:d2:ef:
         9c:33:3a:98:2b:bb:46:c2:1c:06:24:6f:a0:ea:e1:fc:34:d4:
         32:40:c1:ac:3c:49:6c:02:e0:b3:11:ba:6b:56:59:5e:3f:4e:
         7b:17:f9:c5:84:ef:09:a3:8b:41:51:b2:64:6e:cd:e2:1d:74:
         48:a6:e3:e8:32:12:4b:91:8d:21:c7:e3:89:9b:d0:1b:46:f6:
         7e:8b:16:ec:f6:29:c4:69:7e:45:19:d4:8f:ca:27:6e:1f:b6:
         a4:19:50:bd:d4:ad:8e:61:2a:aa:7d:a5:17:47:b4:cc:6e:2f:
         27:59:86:48:5a:25:fc:a9:bf:22:75:0c:a8:a1:17:78:4d:6b:
         9c:81:ad:0b:e7:ff:c3:fe:15:71:50:04:21:24:35:ae:61:ea:
         e3:da:0b:48:c1:ab:3a:9c:ee:0d:da:4d:9b:e5:17:f3:93:38:
         61:1b:44:88:28:50:9e:b1:df:f5:d8:12:56:bf:cb:0d:26:ac:
         cf:54:8c:f1
-----BEGIN CERTIFICATE-----
MIIDXTCCAkWgAwIBAgIRAOYfWsR9KZ4WtMVzrT4IHs0wDQYJKoZIhvcNAQELBQAw
FjEUMBIGA1UEAwwLdGVhbTEwOS1uZXQwHhcNMjEwOTEyMjM0MTUwWhcNMjQwODI3
MjM0MTUwWjAZMRcwFQYDVQQDDA50ZWFtMTA5LWNsaWVudDCCASIwDQYJKoZIhvcN
AQEBBQADggEPADCCAQoCggEBAMzs43vhl33w6jpZGxzT3mnPde6hdeR+CQf5wFiq
EiGspl+XhfEkyWdj00CURmognsag81bkNqUHOn/ZMnVFnhQAsUC6tQxKZUQjDUVS
sqd+scgY3WkIqq2LDlkz3nQyaPwQKFbGnSBaLuQ4ZIYkTgDYPMQ9Vbbj/HqCt/W4
z9pTsZRlC7RE9im0mhDgr5rexX9eISYQjYaX0bs1dckI2NrsidS/FzZezBS9AHPg
XKNt86Bng5LTK6DaC0t9YVs35UTBZdlnZM7hzm9Gw0sBYGN9bx5SNOeRNAtTZ2Aj
Ih8UlmVIEgSHSCZE+Z0S3nYyw2b5Fajk8YBEbuUrJnF/R3kCAwEAAaOBojCBnzAJ
BgNVHRMEAjAAMB0GA1UdDgQWBBSx/4yPtAKpP3pKe4LOe8N7PI+QkTBRBgNVHSME
SjBIgBQ6W0g3KqN9WuB0ZziewvONmFPGraEapBgwFjEUMBIGA1UEAwwLdGVhbTEw
OS1uZXSCFCqd35Jw2JIuwn0tjdVTTBMcENq/MBMGA1UdJQQMMAoGCCsGAQUFBwMC
MAsGA1UdDwQEAwIHgDANBgkqhkiG9w0BAQsFAAOCAQEAhK3sKZP6/iJssXE7g3CJ
jiAsqx/wgCJxEK8z4IQ2rpyzBZflRZPLoQRltKpGcx5ioMWL4Djt0b7gTP9PLFIk
7QXOSvw+FtLvnDM6mCu7RsIcBiRvoOrh/DTUMkDBrDxJbALgsxG6a1ZZXj9Oexf5
xYTvCaOLQVGyZG7N4h10SKbj6DISS5GNIcfjiZvQG0b2fosW7PYpxGl+RRnUj8on
bh+2pBlQvdStjmEqqn2lF0e0zG4vJ1mGSFol/Km/InUMqKEXeE1rnIGtC+f/w/4V
cVAEISQ1rmHq49oLSMGrOpzuDdpNm+UX85M4YRtEiChQnrHf9dgSVr/LDSasz1SM
8Q==
-----END CERTIFICATE-----
