Certificate:
    Data:
        Version: 3 (0x2)
        Serial Number:
            5b:16:07:a9:57:c0:ec:12:f1:cd:8e:b4:58:83:d0:61
        Signature Algorithm: sha256WithRSAEncryption
        Issuer: CN=team331-net
        Validity
            Not Before: Sep 13 01:48:21 2021 GMT
            Not After : Aug 28 01:48:21 2024 GMT
        Subject: CN=team331-client
        Subject Public Key Info:
            Public Key Algorithm: rsaEncryption
                RSA Public-Key: (2048 bit)
                Modulus:
                    00:c1:7f:e0:5f:8a:8b:2d:b7:78:6c:78:c8:c8:39:
                    75:6b:31:22:52:d0:eb:1f:2f:f2:49:13:64:0a:1f:
                    10:e0:f9:d6:10:b8:c1:f2:c9:95:8c:ff:01:19:69:
                    10:14:b0:5a:c5:e6:77:f2:51:8d:d1:73:71:a6:15:
                    53:51:24:a2:80:e1:7b:2d:8d:aa:c7:4d:a8:45:78:
                    46:3c:df:68:fa:19:2c:5f:33:3c:ec:0b:f4:74:bc:
                    4a:58:f8:58:d9:c9:46:27:63:fc:4a:58:95:84:b2:
                    b7:75:b1:24:7a:2b:b6:b9:93:4b:40:51:56:2d:ff:
                    6d:2a:56:3d:4c:d9:d4:2e:6a:e6:5c:0b:02:34:3b:
                    35:12:60:f6:03:98:d3:ed:ad:c2:4c:bd:df:13:27:
                    ad:e1:51:21:bc:f2:56:68:2e:d1:62:d8:98:bd:14:
                    fb:c1:d9:37:95:6d:d5:44:61:9e:d7:40:33:94:4d:
                    fd:69:33:94:42:47:99:ff:cc:1b:06:37:84:49:db:
                    d7:d5:a1:09:aa:f2:b4:69:b8:71:4d:87:f7:a8:27:
                    30:af:ee:9c:20:8a:ac:c9:db:03:ab:aa:89:2a:95:
                    f0:bd:a1:b1:a8:72:66:a8:f7:40:2e:0b:12:b3:03:
                    05:77:67:68:2e:ae:ff:20:ad:db:15:af:7b:86:a9:
                    39:0f
                Exponent: 65537 (0x10001)
        X509v3 extensions:
            X509v3 Basic Constraints: 
                CA:FALSE
            X509v3 Subject Key Identifier: 
                CA:85:26:F6:EE:3B:A8:54:32:C7:9A:CA:5B:5B:9F:B3:13:47:7C:5D
            X509v3 Authority Key Identifier: 
                keyid:12:9F:3C:4D:FB:2A:9B:7D:44:8E:DB:E1:BC:E1:03:A0:56:CA:04:DD
                DirName:/CN=team331-net
                serial:24:91:5C:8E:15:22:C0:78:CF:5F:0C:84:B0:7C:A9:C9:FC:D1:8D:D5

            X509v3 Extended Key Usage: 
                TLS Web Client Authentication
            X509v3 Key Usage: 
                Digital Signature
    Signature Algorithm: sha256WithRSAEncryption
         6f:da:5c:16:59:72:65:06:8c:6f:e0:91:47:15:af:e8:b5:27:
         c3:7a:24:87:15:da:94:fb:76:99:b8:aa:af:50:54:1f:50:f5:
         fc:73:92:f1:0c:dc:b5:04:d4:ef:b1:46:fe:e5:09:34:8c:a4:
         06:cd:89:97:7d:ff:64:15:94:31:cc:62:e8:d5:da:68:0b:aa:
         54:ed:a6:d5:c4:b6:12:d6:a8:2c:11:bf:b7:7d:2f:12:6b:db:
         16:be:7f:3a:41:3a:a9:2a:6d:b8:c3:3f:1f:f7:02:13:e4:02:
         f0:65:cf:80:af:ca:0e:41:93:fd:a8:b9:85:8e:e6:e4:d5:b6:
         b5:44:60:4a:5c:4f:b8:b2:18:38:40:99:9e:d4:b2:4e:77:eb:
         87:b3:d0:68:9e:25:64:07:c1:b2:29:22:c4:43:19:4b:fb:9b:
         f3:a0:48:53:5c:e0:5a:d1:8e:da:d6:a5:26:db:f2:34:a8:fc:
         37:a8:4f:a5:47:0c:5b:bf:5c:c2:a2:7c:b1:8f:49:ed:e6:fc:
         d1:e7:49:5c:59:ea:df:67:02:86:07:80:5b:2d:4e:4c:23:c9:
         61:49:23:27:6a:3d:a2:e0:05:36:9d:74:0e:81:6e:c3:c3:bb:
         c5:c9:1e:8a:c6:d3:ba:76:35:c7:08:4f:27:5b:b1:5d:84:be:
         ef:1d:fb:c2
-----BEGIN CERTIFICATE-----
MIIDXDCCAkSgAwIBAgIQWxYHqVfA7BLxzY60WIPQYTANBgkqhkiG9w0BAQsFADAW
MRQwEgYDVQQDDAt0ZWFtMzMxLW5ldDAeFw0yMTA5MTMwMTQ4MjFaFw0yNDA4Mjgw
MTQ4MjFaMBkxFzAVBgNVBAMMDnRlYW0zMzEtY2xpZW50MIIBIjANBgkqhkiG9w0B
AQEFAAOCAQ8AMIIBCgKCAQEAwX/gX4qLLbd4bHjIyDl1azEiUtDrHy/ySRNkCh8Q
4PnWELjB8smVjP8BGWkQFLBaxeZ38lGN0XNxphVTUSSigOF7LY2qx02oRXhGPN9o
+hksXzM87Av0dLxKWPhY2clGJ2P8SliVhLK3dbEkeiu2uZNLQFFWLf9tKlY9TNnU
LmrmXAsCNDs1EmD2A5jT7a3CTL3fEyet4VEhvPJWaC7RYtiYvRT7wdk3lW3VRGGe
10AzlE39aTOUQkeZ/8wbBjeESdvX1aEJqvK0abhxTYf3qCcwr+6cIIqsydsDq6qJ
KpXwvaGxqHJmqPdALgsSswMFd2doLq7/IK3bFa97hqk5DwIDAQABo4GiMIGfMAkG
A1UdEwQCMAAwHQYDVR0OBBYEFMqFJvbuO6hUMseayltbn7MTR3xdMFEGA1UdIwRK
MEiAFBKfPE37Kpt9RI7b4bzhA6BWygTdoRqkGDAWMRQwEgYDVQQDDAt0ZWFtMzMx
LW5ldIIUJJFcjhUiwHjPXwyEsHypyfzRjdUwEwYDVR0lBAwwCgYIKwYBBQUHAwIw
CwYDVR0PBAQDAgeAMA0GCSqGSIb3DQEBCwUAA4IBAQBv2lwWWXJlBoxv4JFHFa/o
tSfDeiSHFdqU+3aZuKqvUFQfUPX8c5LxDNy1BNTvsUb+5Qk0jKQGzYmXff9kFZQx
zGLo1dpoC6pU7abVxLYS1qgsEb+3fS8Sa9sWvn86QTqpKm24wz8f9wIT5ALwZc+A
r8oOQZP9qLmFjubk1ba1RGBKXE+4shg4QJme1LJOd+uHs9BoniVkB8GyKSLEQxlL
+5vzoEhTXOBa0Y7a1qUm2/I0qPw3qE+lRwxbv1zConyxj0nt5vzR50lcWerfZwKG
B4BbLU5MI8lhSSMnaj2i4AU2nXQOgW7Dw7vFyR6KxtO6djXHCE8nW7FdhL7vHfvC
-----END CERTIFICATE-----
