Certificate:
    Data:
        Version: 3 (0x2)
        Serial Number:
            8f:52:57:ad:d1:b1:93:7e:f6:fd:6c:91:42:5b:3f:2b
        Signature Algorithm: sha256WithRSAEncryption
        Issuer: CN=team117-net
        Validity
            Not Before: Sep 12 23:45:55 2021 GMT
            Not After : Aug 27 23:45:55 2024 GMT
        Subject: CN=team117-server
        Subject Public Key Info:
            Public Key Algorithm: rsaEncryption
                RSA Public-Key: (2048 bit)
                Modulus:
                    00:f3:d2:9d:d6:95:1c:54:be:2b:bc:3d:3f:b8:f9:
                    6b:b1:bc:aa:18:86:35:53:fe:eb:2d:fc:f8:c7:69:
                    20:7b:56:ed:d9:67:bc:89:d5:e8:7b:4b:17:4f:0f:
                    16:05:bb:a3:e3:c2:19:80:14:ce:05:23:a1:70:cf:
                    9b:df:0e:fc:b3:21:da:c5:bb:97:8f:87:f5:d7:e4:
                    be:2a:5e:dc:73:ec:39:e5:89:52:78:2b:e2:b6:a1:
                    a6:16:5d:37:49:fc:f1:cf:d3:ff:4c:13:54:93:3f:
                    33:ee:99:3f:7b:38:2c:94:c9:f0:fd:e2:59:68:46:
                    36:06:08:36:d3:e5:b6:41:70:e8:03:7e:e3:ba:1f:
                    70:5e:18:ab:41:81:c7:cf:7c:06:7e:b6:ba:16:1d:
                    f0:b3:15:73:c0:ca:c2:1b:6f:a6:c7:15:f2:5a:52:
                    c6:e7:dd:9a:7a:ee:14:be:67:22:72:bd:39:0b:e2:
                    ed:c2:27:c0:ab:57:8a:1b:23:fb:5c:a6:29:17:34:
                    14:50:b3:1c:4b:d7:71:bf:27:c5:8d:77:7a:81:8d:
                    95:3d:44:54:c7:95:28:88:8b:76:4e:cb:e1:3b:e8:
                    35:0a:4c:52:a4:02:db:8d:66:64:9c:18:d6:72:75:
                    45:15:94:f6:37:f5:fc:d9:cd:02:92:a3:16:69:8f:
                    bb:f3
                Exponent: 65537 (0x10001)
        X509v3 extensions:
            X509v3 Basic Constraints: 
                CA:FALSE
            X509v3 Subject Key Identifier: 
                24:7E:B9:9E:47:51:F1:40:08:FE:8B:D9:FC:A9:E1:37:72:72:1B:4D
            X509v3 Authority Key Identifier: 
                keyid:34:30:67:FF:26:13:3C:AE:86:76:B7:66:F5:87:95:E5:53:D6:9A:70
                DirName:/CN=team117-net
                serial:76:BC:00:01:BC:76:D5:06:7A:B6:34:29:D3:A2:BF:F6:49:E7:9A:D3

            X509v3 Extended Key Usage: 
                TLS Web Server Authentication
            X509v3 Key Usage: 
                Digital Signature, Key Encipherment
            X509v3 Subject Alternative Name: 
                DNS:team117-server
    Signature Algorithm: sha256WithRSAEncryption
         62:6c:f4:73:ae:ae:24:72:d9:b2:2c:a3:99:91:6a:5c:d3:6c:
         2e:47:de:e9:3e:d9:58:7a:c1:e9:f7:1f:66:26:39:d1:61:8d:
         aa:a0:06:48:d9:9e:db:16:69:5f:3c:98:67:6c:b3:7d:e0:75:
         9a:6d:01:67:aa:dd:c0:b9:e4:19:bb:b3:f7:5d:1c:fb:57:39:
         a7:41:c0:e5:ea:70:ea:f1:1b:6d:3e:36:91:05:be:d9:e4:d8:
         15:59:4b:00:61:80:3d:89:40:e1:82:5d:93:9c:00:bf:07:f6:
         f4:d7:05:2d:28:5d:0f:5c:9c:7d:82:77:26:b5:8f:74:5a:b8:
         91:7c:94:80:56:60:b0:57:c5:ed:e9:c0:8c:ca:4d:25:54:1d:
         75:f0:45:55:71:b4:f7:73:bc:13:44:01:e1:ed:4e:74:51:14:
         d0:e3:1b:17:31:b5:79:fd:9b:be:5f:76:92:2e:da:f8:e2:22:
         23:b2:9d:15:da:91:7d:1f:ca:ff:c0:b8:57:e2:0b:47:3c:31:
         95:7a:93:25:6d:b7:5c:14:34:67:9e:19:24:cf:da:87:76:f4:
         81:a4:c1:4f:1c:d0:13:a7:a3:4e:51:55:f8:0a:64:ec:c6:b4:
         a1:e0:ba:ea:a3:2a:fe:78:d3:b1:56:7f:e2:7d:c9:59:5b:9b:
         ea:66:9e:e4
-----BEGIN CERTIFICATE-----
MIIDeDCCAmCgAwIBAgIRAI9SV63RsZN+9v1skUJbPyswDQYJKoZIhvcNAQELBQAw
FjEUMBIGA1UEAwwLdGVhbTExNy1uZXQwHhcNMjEwOTEyMjM0NTU1WhcNMjQwODI3
MjM0NTU1WjAZMRcwFQYDVQQDDA50ZWFtMTE3LXNlcnZlcjCCASIwDQYJKoZIhvcN
AQEBBQADggEPADCCAQoCggEBAPPSndaVHFS+K7w9P7j5a7G8qhiGNVP+6y38+Mdp
IHtW7dlnvInV6HtLF08PFgW7o+PCGYAUzgUjoXDPm98O/LMh2sW7l4+H9dfkvipe
3HPsOeWJUngr4rahphZdN0n88c/T/0wTVJM/M+6ZP3s4LJTJ8P3iWWhGNgYINtPl
tkFw6AN+47ofcF4Yq0GBx898Bn62uhYd8LMVc8DKwhtvpscV8lpSxufdmnruFL5n
InK9OQvi7cInwKtXihsj+1ymKRc0FFCzHEvXcb8nxY13eoGNlT1EVMeVKIiLdk7L
4TvoNQpMUqQC241mZJwY1nJ1RRWU9jf1/NnNApKjFmmPu/MCAwEAAaOBvTCBujAJ
BgNVHRMEAjAAMB0GA1UdDgQWBBQkfrmeR1HxQAj+i9n8qeE3cnIbTTBRBgNVHSME
SjBIgBQ0MGf/JhM8roZ2t2b1h5XlU9aacKEapBgwFjEUMBIGA1UEAwwLdGVhbTEx
Ny1uZXSCFHa8AAG8dtUGerY0KdOiv/ZJ55rTMBMGA1UdJQQMMAoGCCsGAQUFBwMB
MAsGA1UdDwQEAwIFoDAZBgNVHREEEjAQgg50ZWFtMTE3LXNlcnZlcjANBgkqhkiG
9w0BAQsFAAOCAQEAYmz0c66uJHLZsiyjmZFqXNNsLkfe6T7ZWHrB6fcfZiY50WGN
qqAGSNme2xZpXzyYZ2yzfeB1mm0BZ6rdwLnkGbuz910c+1c5p0HA5epw6vEbbT42
kQW+2eTYFVlLAGGAPYlA4YJdk5wAvwf29NcFLShdD1ycfYJ3JrWPdFq4kXyUgFZg
sFfF7enAjMpNJVQddfBFVXG093O8E0QB4e1OdFEU0OMbFzG1ef2bvl92ki7a+OIi
I7KdFdqRfR/K/8C4V+ILRzwxlXqTJW23XBQ0Z54ZJM/ah3b0gaTBTxzQE6ejTlFV
+Apk7Ma0oeC66qMq/njTsVZ/4n3JWVub6mae5A==
-----END CERTIFICATE-----
