Certificate:
    Data:
        Version: 3 (0x2)
        Serial Number:
            df:92:bf:16:19:14:b5:7d:e6:66:4a:f7:99:2d:39:03
        Signature Algorithm: sha256WithRSAEncryption
        Issuer: CN=team375-net
        Validity
            Not Before: Sep 13 02:09:48 2021 GMT
            Not After : Aug 28 02:09:48 2024 GMT
        Subject: CN=team375-server
        Subject Public Key Info:
            Public Key Algorithm: rsaEncryption
                RSA Public-Key: (2048 bit)
                Modulus:
                    00:9f:02:28:52:3f:e1:ab:cc:f2:93:ad:68:d8:64:
                    32:a1:6e:ee:37:e0:8f:e2:29:b8:77:93:d9:e1:0f:
                    a3:b1:ee:a2:d9:b9:82:b8:52:40:ec:48:5a:25:a4:
                    d9:6c:8f:e5:6a:ec:80:02:3c:85:40:dd:f9:fa:b0:
                    74:74:b1:16:6a:6c:e1:3b:ce:02:1f:a0:e9:a2:16:
                    21:87:df:ea:8d:db:6e:f5:d3:19:e9:1d:11:71:af:
                    77:e8:8a:c5:3b:5d:f3:d9:d7:28:23:d6:a6:00:dc:
                    d5:e5:0c:2b:cf:b3:15:db:26:f1:89:fe:9f:07:f0:
                    82:c7:4a:23:df:1e:37:43:92:a0:5f:26:db:e7:8c:
                    b1:4e:4c:9a:51:e6:05:e7:dc:22:9f:6b:87:69:a4:
                    ae:f7:ba:a0:9d:6c:09:aa:6d:b2:02:f0:67:80:97:
                    3c:c8:14:93:9c:fa:0a:ff:68:f8:47:8f:2c:5d:da:
                    92:eb:3a:b3:34:4f:20:ca:1d:98:00:d3:4c:8d:4c:
                    62:18:ce:c0:f5:38:39:bd:16:7a:b1:2e:9a:58:54:
                    ad:b9:73:d2:2f:29:b3:98:a4:00:35:ae:2c:9c:82:
                    f7:25:40:b8:99:96:46:ea:cf:6f:5e:65:03:17:7f:
                    76:f2:fd:a4:26:a0:7b:c5:c1:3b:3a:e1:34:49:b7:
                    b6:a7
                Exponent: 65537 (0x10001)
        X509v3 extensions:
            X509v3 Basic Constraints: 
                CA:FALSE
            X509v3 Subject Key Identifier: 
                EB:9B:12:FC:D7:5D:CF:5F:4E:E3:C5:B9:04:17:9B:A3:8D:81:CA:3E
            X509v3 Authority Key Identifier: 
                keyid:CC:80:7A:FB:60:81:74:18:11:A8:14:B4:4D:C3:F0:B8:96:D6:48:1E
                DirName:/CN=team375-net
                serial:62:29:A8:4F:BF:63:37:58:4C:99:EB:91:6B:02:8F:E0:08:5D:E2:A6

            X509v3 Extended Key Usage: 
                TLS Web Server Authentication
            X509v3 Key Usage: 
                Digital Signature, Key Encipherment
            X509v3 Subject Alternative Name: 
                DNS:team375-server
    Signature Algorithm: sha256WithRSAEncryption
         99:09:41:95:5a:90:38:ad:99:d4:41:b2:ee:c9:f3:e3:d9:95:
         97:32:84:6b:3e:c8:1e:9c:e5:c6:fa:23:38:32:a9:3e:0e:07:
         35:4e:c5:67:91:f2:ab:16:cc:57:eb:0c:59:eb:05:d2:7e:83:
         79:71:37:01:c2:81:5e:e6:90:87:c4:ca:8b:c2:cf:67:ed:05:
         85:8d:72:90:f7:28:83:a5:f0:88:79:ab:71:c3:48:e9:41:e5:
         a5:3d:de:46:08:33:e5:24:77:24:24:3a:04:0b:7d:b5:2e:ee:
         67:75:a1:18:2d:47:d7:32:ba:a0:f9:3a:45:bd:a4:75:92:c1:
         c3:db:d7:a0:28:d1:23:e9:20:99:e0:62:dd:fb:e0:3e:d1:1f:
         bc:5e:5b:12:af:9a:1a:49:f7:91:d4:ba:ba:ea:42:8a:73:ce:
         cd:1b:4a:01:f9:27:a4:67:cc:ed:86:bd:06:a6:9f:a2:86:5a:
         9c:d0:bf:33:b4:97:b0:ff:f1:af:dd:ed:16:43:19:37:3d:82:
         0a:e0:b7:11:9d:07:e5:1d:ed:f1:46:b0:7e:ac:76:50:1b:4f:
         01:17:7e:ce:31:08:79:e8:d6:2a:b8:2c:ab:d5:76:11:e3:05:
         6d:5c:0b:41:18:36:0b:ec:88:b3:fd:50:a9:ef:8b:a2:62:c2:
         c3:27:50:8b
-----BEGIN CERTIFICATE-----
MIIDeDCCAmCgAwIBAgIRAN+SvxYZFLV95mZK95ktOQMwDQYJKoZIhvcNAQELBQAw
FjEUMBIGA1UEAwwLdGVhbTM3NS1uZXQwHhcNMjEwOTEzMDIwOTQ4WhcNMjQwODI4
MDIwOTQ4WjAZMRcwFQYDVQQDDA50ZWFtMzc1LXNlcnZlcjCCASIwDQYJKoZIhvcN
AQEBBQADggEPADCCAQoCggEBAJ8CKFI/4avM8pOtaNhkMqFu7jfgj+IpuHeT2eEP
o7Huotm5grhSQOxIWiWk2WyP5WrsgAI8hUDd+fqwdHSxFmps4TvOAh+g6aIWIYff
6o3bbvXTGekdEXGvd+iKxTtd89nXKCPWpgDc1eUMK8+zFdsm8Yn+nwfwgsdKI98e
N0OSoF8m2+eMsU5MmlHmBefcIp9rh2mkrve6oJ1sCaptsgLwZ4CXPMgUk5z6Cv9o
+EePLF3akus6szRPIModmADTTI1MYhjOwPU4Ob0WerEumlhUrblz0i8ps5ikADWu
LJyC9yVAuJmWRurPb15lAxd/dvL9pCage8XBOzrhNEm3tqcCAwEAAaOBvTCBujAJ
BgNVHRMEAjAAMB0GA1UdDgQWBBTrmxL8113PX07jxbkEF5ujjYHKPjBRBgNVHSME
SjBIgBTMgHr7YIF0GBGoFLRNw/C4ltZIHqEapBgwFjEUMBIGA1UEAwwLdGVhbTM3
NS1uZXSCFGIpqE+/YzdYTJnrkWsCj+AIXeKmMBMGA1UdJQQMMAoGCCsGAQUFBwMB
MAsGA1UdDwQEAwIFoDAZBgNVHREEEjAQgg50ZWFtMzc1LXNlcnZlcjANBgkqhkiG
9w0BAQsFAAOCAQEAmQlBlVqQOK2Z1EGy7snz49mVlzKEaz7IHpzlxvojODKpPg4H
NU7FZ5HyqxbMV+sMWesF0n6DeXE3AcKBXuaQh8TKi8LPZ+0FhY1ykPcog6XwiHmr
ccNI6UHlpT3eRggz5SR3JCQ6BAt9tS7uZ3WhGC1H1zK6oPk6Rb2kdZLBw9vXoCjR
I+kgmeBi3fvgPtEfvF5bEq+aGkn3kdS6uupCinPOzRtKAfknpGfM7Ya9BqafooZa
nNC/M7SXsP/xr93tFkMZNz2CCuC3EZ0H5R3t8Uawfqx2UBtPARd+zjEIeejWKrgs
q9V2EeMFbVwLQRg2C+yIs/1Qqe+LomLCwydQiw==
-----END CERTIFICATE-----
