Certificate:
    Data:
        Version: 3 (0x2)
        Serial Number:
            48:a9:b8:44:9a:ac:bb:91:9f:3e:1e:c6:c5:ab:22:5e
        Signature Algorithm: sha256WithRSAEncryption
        Issuer: CN=team143-net
        Validity
            Not Before: Sep 13 00:01:15 2021 GMT
            Not After : Aug 28 00:01:15 2024 GMT
        Subject: CN=team143-client
        Subject Public Key Info:
            Public Key Algorithm: rsaEncryption
                RSA Public-Key: (2048 bit)
                Modulus:
                    00:cc:94:7a:c3:56:bf:86:ba:34:8e:0f:70:8c:6a:
                    c0:26:9e:7a:22:4b:cc:8f:83:7f:4a:4e:a4:1d:8d:
                    45:f2:a0:b4:89:3f:ef:58:ad:d2:a9:67:5f:d2:44:
                    6a:53:87:45:38:14:b1:39:ed:49:e6:06:b6:8c:f9:
                    ee:4e:ad:de:82:2c:17:b5:87:8c:b0:cd:66:96:52:
                    3c:ff:91:3e:1e:a7:8d:0f:b0:c8:49:28:59:c2:71:
                    7f:05:44:f8:f5:fd:85:8a:00:8c:ea:99:f4:cd:f8:
                    88:92:3b:80:56:dc:d6:ff:be:d1:c8:6e:91:a4:e2:
                    4b:fa:b5:1c:7b:b0:f9:85:7b:34:84:ca:65:fb:8c:
                    11:39:6b:a0:5e:73:49:c0:14:42:8c:99:78:53:f4:
                    60:dc:92:d8:f0:1a:67:63:ec:7c:da:b1:71:9a:ee:
                    3b:c9:12:19:f5:64:25:c6:7a:17:da:20:bc:f2:e0:
                    f2:45:0f:10:f8:9f:72:d3:0d:6f:4e:64:1d:4e:59:
                    4b:00:74:e1:16:5b:44:26:e2:06:0f:e4:92:c6:30:
                    8b:f7:77:fa:91:48:5b:ad:c7:51:6e:09:c4:cb:d1:
                    7a:0b:09:89:d3:d6:11:23:c9:c2:53:38:f1:4a:de:
                    d8:6a:08:b8:f4:81:2f:f2:50:7f:9a:a0:ee:0f:5d:
                    43:8f
                Exponent: 65537 (0x10001)
        X509v3 extensions:
            X509v3 Basic Constraints: 
                CA:FALSE
            X509v3 Subject Key Identifier: 
                B1:62:63:46:0A:85:41:88:BC:C8:0C:A6:99:B5:CF:8B:AB:4B:88:3B
            X509v3 Authority Key Identifier: 
                keyid:E5:6D:DF:58:0D:DA:0D:27:E5:79:65:70:69:CB:C1:6C:E9:53:85:7A
                DirName:/CN=team143-net
                serial:17:74:18:C7:EB:21:5C:69:6A:50:E1:52:9D:67:04:CD:95:33:46:96

            X509v3 Extended Key Usage: 
                TLS Web Client Authentication
            X509v3 Key Usage: 
                Digital Signature
    Signature Algorithm: sha256WithRSAEncryption
         a3:ba:ef:df:f2:dd:bc:be:63:5f:66:0b:f1:f4:8d:1c:40:22:
         33:38:1c:43:34:cf:e1:4d:3a:45:eb:f7:a1:58:dd:b6:36:b9:
         fc:77:9c:27:8a:b9:5d:41:a9:6b:dd:3e:ab:cd:33:8d:eb:5e:
         f0:b8:f5:c3:89:30:c0:95:b2:7f:5e:23:45:8c:b6:43:e2:37:
         af:54:d4:59:95:fb:9b:ea:c6:a5:71:ca:d3:8a:5a:8c:16:30:
         a9:3e:7b:77:5f:ef:1a:8d:a9:48:41:ed:83:55:5f:c7:6f:38:
         79:d8:55:0a:a3:d8:ea:95:49:35:8f:58:2c:70:d1:7c:7a:ce:
         f4:bb:7d:7a:a6:dd:e0:60:96:c0:14:d2:b6:6f:c0:87:42:63:
         00:7f:70:0e:06:fb:e2:10:ea:49:52:35:65:3e:b9:64:3f:93:
         4d:4f:ca:1a:ae:8c:9c:ed:a1:6c:20:bf:89:48:26:df:a2:1f:
         42:ac:15:96:36:db:04:7e:2a:0d:d6:5f:06:ea:82:f1:4d:48:
         66:de:0a:9f:41:e0:fd:c9:41:b9:c5:e9:4a:3a:b8:35:d4:c8:
         5f:7d:0a:36:b3:a0:1a:25:98:20:0c:9a:90:52:7a:ca:45:89:
         8e:45:45:f1:7d:6f:85:f6:b4:99:94:4d:b1:fd:cd:66:82:bc:
         8b:e1:ea:6e
-----BEGIN CERTIFICATE-----
MIIDXDCCAkSgAwIBAgIQSKm4RJqsu5GfPh7GxasiXjANBgkqhkiG9w0BAQsFADAW
MRQwEgYDVQQDDAt0ZWFtMTQzLW5ldDAeFw0yMTA5MTMwMDAxMTVaFw0yNDA4Mjgw
MDAxMTVaMBkxFzAVBgNVBAMMDnRlYW0xNDMtY2xpZW50MIIBIjANBgkqhkiG9w0B
AQEFAAOCAQ8AMIIBCgKCAQEAzJR6w1a/hro0jg9wjGrAJp56IkvMj4N/Sk6kHY1F
8qC0iT/vWK3SqWdf0kRqU4dFOBSxOe1J5ga2jPnuTq3egiwXtYeMsM1mllI8/5E+
HqeND7DISShZwnF/BUT49f2FigCM6pn0zfiIkjuAVtzW/77RyG6RpOJL+rUce7D5
hXs0hMpl+4wROWugXnNJwBRCjJl4U/Rg3JLY8BpnY+x82rFxmu47yRIZ9WQlxnoX
2iC88uDyRQ8Q+J9y0w1vTmQdTllLAHThFltEJuIGD+SSxjCL93f6kUhbrcdRbgnE
y9F6CwmJ09YRI8nCUzjxSt7Yagi49IEv8lB/mqDuD11DjwIDAQABo4GiMIGfMAkG
A1UdEwQCMAAwHQYDVR0OBBYEFLFiY0YKhUGIvMgMppm1z4urS4g7MFEGA1UdIwRK
MEiAFOVt31gN2g0n5XllcGnLwWzpU4V6oRqkGDAWMRQwEgYDVQQDDAt0ZWFtMTQz
LW5ldIIUF3QYx+shXGlqUOFSnWcEzZUzRpYwEwYDVR0lBAwwCgYIKwYBBQUHAwIw
CwYDVR0PBAQDAgeAMA0GCSqGSIb3DQEBCwUAA4IBAQCjuu/f8t28vmNfZgvx9I0c
QCIzOBxDNM/hTTpF6/ehWN22Nrn8d5wnirldQalr3T6rzTON617wuPXDiTDAlbJ/
XiNFjLZD4jevVNRZlfub6salccrTilqMFjCpPnt3X+8ajalIQe2DVV/Hbzh52FUK
o9jqlUk1j1gscNF8es70u316pt3gYJbAFNK2b8CHQmMAf3AOBvviEOpJUjVlPrlk
P5NNT8oaroyc7aFsIL+JSCbfoh9CrBWWNtsEfioN1l8G6oLxTUhm3gqfQeD9yUG5
xelKOrg11MhffQo2s6AaJZggDJqQUnrKRYmORUXxfW+F9rSZlE2x/c1mgryL4epu
-----END CERTIFICATE-----
