Certificate:
    Data:
        Version: 3 (0x2)
        Serial Number:
            8b:ae:0f:27:43:1e:51:ba:0e:fd:a8:ca:f8:e7:6e:6d
        Signature Algorithm: sha256WithRSAEncryption
        Issuer: CN=team143-net
        Validity
            Not Before: Sep 13 00:01:15 2021 GMT
            Not After : Aug 28 00:01:15 2024 GMT
        Subject: CN=team143-server
        Subject Public Key Info:
            Public Key Algorithm: rsaEncryption
                RSA Public-Key: (2048 bit)
                Modulus:
                    00:c3:c0:5f:87:04:8b:df:c8:cf:3f:97:10:c1:16:
                    01:0b:91:ae:71:b1:81:64:f7:57:fb:89:ca:32:e5:
                    bc:4d:0b:17:2f:a7:c4:d8:fd:5a:2e:68:d0:61:19:
                    09:d4:8e:47:60:da:3f:7a:80:4c:c9:4b:13:4c:6c:
                    7d:89:40:3d:2d:63:49:60:0e:07:a5:93:ff:06:56:
                    e1:4f:b7:27:28:4e:ad:b3:c0:c6:8f:8e:cc:fb:dc:
                    65:2d:ed:e7:04:da:7b:3a:89:be:87:b9:76:26:58:
                    ef:c4:43:f7:f9:b7:c8:58:d0:11:27:35:22:d7:e2:
                    55:60:6e:62:c7:e2:4a:bc:dd:e4:14:8b:e9:d3:72:
                    b1:6b:d7:25:8b:b1:4b:1d:fe:24:5e:aa:2d:3a:bb:
                    b7:f5:0f:a2:b1:36:dd:db:e9:06:92:49:d4:81:91:
                    84:11:ef:e8:ec:cf:16:b5:05:fb:6d:be:75:8b:d9:
                    28:39:5d:90:19:d8:ce:6d:43:37:71:dc:0b:0d:ac:
                    b2:f5:28:5e:d6:39:0b:32:9e:42:1b:f3:e0:54:d2:
                    9f:bd:e3:05:6b:45:5b:1b:06:3e:f0:1b:0e:64:5c:
                    62:4a:d9:00:0a:49:77:82:7c:f1:4c:33:a8:1e:af:
                    55:76:62:08:79:27:f6:a9:b7:df:72:0f:2c:68:70:
                    76:7b
                Exponent: 65537 (0x10001)
        X509v3 extensions:
            X509v3 Basic Constraints: 
                CA:FALSE
            X509v3 Subject Key Identifier: 
                A0:7A:33:22:C0:40:E3:56:A8:1D:87:1F:78:E6:AE:FA:30:78:59:DF
            X509v3 Authority Key Identifier: 
                keyid:E5:6D:DF:58:0D:DA:0D:27:E5:79:65:70:69:CB:C1:6C:E9:53:85:7A
                DirName:/CN=team143-net
                serial:17:74:18:C7:EB:21:5C:69:6A:50:E1:52:9D:67:04:CD:95:33:46:96

            X509v3 Extended Key Usage: 
                TLS Web Server Authentication
            X509v3 Key Usage: 
                Digital Signature, Key Encipherment
            X509v3 Subject Alternative Name: 
                DNS:team143-server
    Signature Algorithm: sha256WithRSAEncryption
         90:85:e6:f8:b5:cb:7b:3d:86:6f:5b:10:ff:9b:2b:6f:bc:9a:
         ea:27:38:f9:92:52:7a:ba:d0:5b:82:ad:49:63:c5:6a:d6:ab:
         42:58:ae:31:7c:6f:e6:0e:3d:20:30:2f:ed:2b:12:57:f6:35:
         45:ad:c3:9d:6b:f5:50:54:f7:a8:78:d3:08:c9:a0:9d:d0:28:
         71:24:05:57:29:fe:c5:88:be:9d:34:6b:c4:98:8d:2b:f9:a9:
         e9:e7:63:e9:12:3f:37:f3:24:bc:e2:ba:1a:51:fe:8e:24:46:
         cf:56:ac:c5:1d:ee:72:4f:04:dc:d9:b2:17:bc:8e:68:75:35:
         1f:45:92:8d:f9:76:b4:19:f0:8b:46:38:f4:90:9c:bf:f9:fa:
         df:21:0d:40:0f:60:7f:5a:b5:c3:0d:45:cd:63:2a:57:ee:72:
         a0:23:40:66:b1:4e:c0:18:64:1d:81:9f:9d:93:66:17:28:a3:
         e6:70:2f:0a:c2:07:45:b2:9f:3b:1f:88:75:1b:8f:4d:1b:1c:
         5c:e5:48:e5:db:b5:bc:bb:af:f0:4f:08:0d:cc:58:d6:4f:d1:
         9f:b8:65:71:5b:ed:30:cc:c8:fc:da:3d:14:d4:c5:0f:4c:38:
         39:b3:76:6f:16:58:b9:4c:47:82:49:23:ee:8d:27:fc:e6:28:
         55:78:4b:53
-----BEGIN CERTIFICATE-----
MIIDeDCCAmCgAwIBAgIRAIuuDydDHlG6Dv2oyvjnbm0wDQYJKoZIhvcNAQELBQAw
FjEUMBIGA1UEAwwLdGVhbTE0My1uZXQwHhcNMjEwOTEzMDAwMTE1WhcNMjQwODI4
MDAwMTE1WjAZMRcwFQYDVQQDDA50ZWFtMTQzLXNlcnZlcjCCASIwDQYJKoZIhvcN
AQEBBQADggEPADCCAQoCggEBAMPAX4cEi9/Izz+XEMEWAQuRrnGxgWT3V/uJyjLl
vE0LFy+nxNj9Wi5o0GEZCdSOR2DaP3qATMlLE0xsfYlAPS1jSWAOB6WT/wZW4U+3
JyhOrbPAxo+OzPvcZS3t5wTaezqJvoe5diZY78RD9/m3yFjQESc1ItfiVWBuYsfi
Srzd5BSL6dNysWvXJYuxSx3+JF6qLTq7t/UPorE23dvpBpJJ1IGRhBHv6OzPFrUF
+22+dYvZKDldkBnYzm1DN3HcCw2ssvUoXtY5CzKeQhvz4FTSn73jBWtFWxsGPvAb
DmRcYkrZAApJd4J88UwzqB6vVXZiCHkn9qm333IPLGhwdnsCAwEAAaOBvTCBujAJ
BgNVHRMEAjAAMB0GA1UdDgQWBBSgejMiwEDjVqgdhx945q76MHhZ3zBRBgNVHSME
SjBIgBTlbd9YDdoNJ+V5ZXBpy8Fs6VOFeqEapBgwFjEUMBIGA1UEAwwLdGVhbTE0
My1uZXSCFBd0GMfrIVxpalDhUp1nBM2VM0aWMBMGA1UdJQQMMAoGCCsGAQUFBwMB
MAsGA1UdDwQEAwIFoDAZBgNVHREEEjAQgg50ZWFtMTQzLXNlcnZlcjANBgkqhkiG
9w0BAQsFAAOCAQEAkIXm+LXLez2Gb1sQ/5srb7ya6ic4+ZJSerrQW4KtSWPFatar
QliuMXxv5g49IDAv7SsSV/Y1Ra3DnWv1UFT3qHjTCMmgndAocSQFVyn+xYi+nTRr
xJiNK/mp6edj6RI/N/MkvOK6GlH+jiRGz1asxR3uck8E3NmyF7yOaHU1H0WSjfl2
tBnwi0Y49JCcv/n63yENQA9gf1q1ww1FzWMqV+5yoCNAZrFOwBhkHYGfnZNmFyij
5nAvCsIHRbKfOx+IdRuPTRscXOVI5du1vLuv8E8IDcxY1k/Rn7hlcVvtMMzI/No9
FNTFD0w4ObN2bxZYuUxHgkkj7o0n/OYoVXhLUw==
-----END CERTIFICATE-----
