Certificate:
    Data:
        Version: 3 (0x2)
        Serial Number:
            d1:fb:b4:e1:99:78:ba:6b:7b:48:f3:5d:07:d7:50:71
        Signature Algorithm: sha256WithRSAEncryption
        Issuer: CN=team748-net
        Validity
            Not Before: Sep 13 05:49:48 2021 GMT
            Not After : Aug 28 05:49:48 2024 GMT
        Subject: CN=team748-server
        Subject Public Key Info:
            Public Key Algorithm: rsaEncryption
                RSA Public-Key: (2048 bit)
                Modulus:
                    00:c0:12:3d:d2:90:5b:26:a8:d1:a2:2d:a4:8e:0e:
                    f6:a5:7a:de:35:fc:a1:82:50:87:87:9e:31:f2:a5:
                    fb:31:50:42:5e:2e:f4:9d:d0:b1:62:aa:52:53:ed:
                    d9:23:80:e4:4c:c6:58:b6:ee:fc:06:56:ec:18:ee:
                    10:1b:f4:a6:77:f2:b2:e6:a9:05:ae:b4:6e:bc:d9:
                    6f:41:a0:80:3b:d6:92:80:c8:5b:04:21:cd:41:af:
                    b6:35:20:f8:de:71:5f:42:8e:8c:9f:16:de:09:ea:
                    90:03:f0:3d:3a:f1:52:8f:49:d2:3e:7d:a6:48:52:
                    5b:bd:32:e4:9c:31:29:77:c9:3f:82:85:20:2c:32:
                    94:af:10:00:58:1d:bd:f3:e1:53:1b:3e:18:5e:3f:
                    57:cf:63:77:01:95:42:a6:a5:9d:eb:87:b3:2d:dd:
                    d9:30:00:b0:28:60:e7:ae:9d:72:0c:e9:cf:d7:eb:
                    1c:fa:1a:69:10:43:b3:53:4a:88:84:a7:9f:5e:65:
                    4e:bf:6e:5c:45:a5:d1:f2:0b:18:35:ad:d6:1d:5c:
                    3c:c2:a8:c4:04:dc:e0:95:d3:6f:01:02:0c:08:a9:
                    bc:e9:bc:d0:a6:b4:98:4c:9c:1d:fb:2f:aa:c4:dd:
                    f3:6c:b7:64:b1:ac:57:c6:cb:ab:1c:48:b8:fe:be:
                    b8:0b
                Exponent: 65537 (0x10001)
        X509v3 extensions:
            X509v3 Basic Constraints: 
                CA:FALSE
            X509v3 Subject Key Identifier: 
                F3:3B:D0:65:DD:96:41:A3:CC:97:64:0C:B1:9E:8D:29:52:4D:4D:09
            X509v3 Authority Key Identifier: 
                keyid:53:EF:A6:28:ED:52:50:F8:0E:5A:77:87:FE:32:72:48:B2:54:8C:53
                DirName:/CN=team748-net
                serial:39:9D:5D:19:75:23:82:B4:11:38:F0:23:37:8B:8A:B2:FB:CF:6C:E5

            X509v3 Extended Key Usage: 
                TLS Web Server Authentication
            X509v3 Key Usage: 
                Digital Signature, Key Encipherment
            X509v3 Subject Alternative Name: 
                DNS:team748-server
    Signature Algorithm: sha256WithRSAEncryption
         ad:3a:70:96:b1:8c:da:c7:94:c0:a1:7b:b1:0b:71:b6:d3:cc:
         60:51:f1:d4:0b:44:e7:a2:e8:d4:79:1c:ae:a0:b4:18:84:31:
         d5:58:b9:53:92:92:d3:35:87:73:d0:13:f9:89:21:32:80:5d:
         40:f9:72:75:47:6f:67:5d:cc:7c:49:78:28:30:cd:5f:f4:35:
         c9:35:6c:42:14:80:1c:9f:87:0b:66:b9:20:24:a6:0e:b7:53:
         a1:82:8e:aa:bc:4d:b1:81:23:2e:ed:97:da:5d:94:6b:26:0f:
         75:d0:66:53:45:a9:b5:19:01:57:86:cc:05:15:12:9b:12:c9:
         cc:2d:12:97:9f:88:4d:90:a1:2e:a5:72:45:38:12:82:88:c2:
         20:92:95:47:c6:9f:a9:63:77:32:67:6a:f5:3d:bc:2b:99:16:
         44:7b:49:3b:e9:a7:76:8c:c4:e0:0a:86:01:dd:74:03:b9:af:
         55:82:53:fe:ce:0f:2b:74:fb:4a:4c:fc:58:45:a3:18:16:ce:
         9b:ae:3a:2f:a8:ad:78:b0:0b:17:fd:fa:fe:3b:33:ed:f0:6c:
         43:f9:97:a6:d0:20:a7:4e:8d:77:43:66:ac:f9:33:e7:b1:c9:
         63:8f:c7:38:6b:46:e3:c6:ba:08:fc:a4:82:43:f2:fd:5c:b6:
         d3:38:d5:ee
-----BEGIN CERTIFICATE-----
MIIDeDCCAmCgAwIBAgIRANH7tOGZeLpre0jzXQfXUHEwDQYJKoZIhvcNAQELBQAw
FjEUMBIGA1UEAwwLdGVhbTc0OC1uZXQwHhcNMjEwOTEzMDU0OTQ4WhcNMjQwODI4
MDU0OTQ4WjAZMRcwFQYDVQQDDA50ZWFtNzQ4LXNlcnZlcjCCASIwDQYJKoZIhvcN
AQEBBQADggEPADCCAQoCggEBAMASPdKQWyao0aItpI4O9qV63jX8oYJQh4eeMfKl
+zFQQl4u9J3QsWKqUlPt2SOA5EzGWLbu/AZW7BjuEBv0pnfysuapBa60brzZb0Gg
gDvWkoDIWwQhzUGvtjUg+N5xX0KOjJ8W3gnqkAPwPTrxUo9J0j59pkhSW70y5Jwx
KXfJP4KFICwylK8QAFgdvfPhUxs+GF4/V89jdwGVQqalneuHsy3d2TAAsChg566d
cgzpz9frHPoaaRBDs1NKiISnn15lTr9uXEWl0fILGDWt1h1cPMKoxATc4JXTbwEC
DAipvOm80Ka0mEycHfsvqsTd82y3ZLGsV8bLqxxIuP6+uAsCAwEAAaOBvTCBujAJ
BgNVHRMEAjAAMB0GA1UdDgQWBBTzO9Bl3ZZBo8yXZAyxno0pUk1NCTBRBgNVHSME
SjBIgBRT76Yo7VJQ+A5ad4f+MnJIslSMU6EapBgwFjEUMBIGA1UEAwwLdGVhbTc0
OC1uZXSCFDmdXRl1I4K0ETjwIzeLirL7z2zlMBMGA1UdJQQMMAoGCCsGAQUFBwMB
MAsGA1UdDwQEAwIFoDAZBgNVHREEEjAQgg50ZWFtNzQ4LXNlcnZlcjANBgkqhkiG
9w0BAQsFAAOCAQEArTpwlrGM2seUwKF7sQtxttPMYFHx1AtE56Lo1HkcrqC0GIQx
1Vi5U5KS0zWHc9AT+YkhMoBdQPlydUdvZ13MfEl4KDDNX/Q1yTVsQhSAHJ+HC2a5
ICSmDrdToYKOqrxNsYEjLu2X2l2UayYPddBmU0WptRkBV4bMBRUSmxLJzC0Sl5+I
TZChLqVyRTgSgojCIJKVR8afqWN3Mmdq9T28K5kWRHtJO+mndozE4AqGAd10A7mv
VYJT/s4PK3T7Skz8WEWjGBbOm646L6iteLALF/36/jsz7fBsQ/mXptAgp06Nd0Nm
rPkz57HJY4/HOGtG48a6CPykgkPy/Vy20zjV7g==
-----END CERTIFICATE-----
