Certificate:
    Data:
        Version: 3 (0x2)
        Serial Number:
            04:f1:50:a7:1f:c2:1e:ce:09:e9:3b:27:de:c0:13:6f
        Signature Algorithm: sha256WithRSAEncryption
        Issuer: CN=team722-net
        Validity
            Not Before: Sep 13 05:34:41 2021 GMT
            Not After : Aug 28 05:34:41 2024 GMT
        Subject: CN=team722-server
        Subject Public Key Info:
            Public Key Algorithm: rsaEncryption
                RSA Public-Key: (2048 bit)
                Modulus:
                    00:eb:45:de:ca:08:dc:74:49:3f:d9:f6:c8:a3:d0:
                    7a:78:17:36:a1:a2:7f:bd:e3:63:69:3d:37:51:e5:
                    28:0a:bc:29:10:e4:a5:97:05:dc:47:f7:81:0f:17:
                    c5:d1:46:dc:a1:66:c8:1b:b8:31:06:6e:41:ad:60:
                    53:df:60:f0:db:d7:6f:e0:2c:49:d9:08:85:df:c7:
                    ca:0d:11:21:cd:aa:56:32:40:7b:92:f8:6a:1b:c7:
                    f8:6b:22:54:a7:4c:e4:4c:cc:b2:17:df:13:b2:3e:
                    0e:c0:9e:e2:0d:df:87:cd:e0:4c:39:cc:ad:17:cd:
                    ea:8e:6d:73:74:10:35:a4:ca:2c:71:26:4c:fa:21:
                    d8:78:c8:3a:df:0b:c2:fe:5b:0d:f3:91:60:3d:13:
                    3f:1e:c1:54:a0:fa:2c:dd:77:2f:ca:84:46:f4:29:
                    0c:8e:5c:35:23:ba:e9:dd:d1:a5:72:92:35:fd:0a:
                    e1:ff:0e:11:8b:2b:83:5a:a7:5d:3f:c1:bc:0f:97:
                    bb:a7:c6:72:ef:18:8a:72:01:7a:aa:06:d7:98:23:
                    af:aa:6e:5d:d3:6e:b2:7b:11:eb:f0:cc:7b:ff:43:
                    e5:54:9f:c3:8b:d4:fc:04:1f:65:cc:b0:75:7e:0c:
                    df:c5:f1:ee:21:ba:09:ae:51:71:16:47:2a:36:19:
                    40:71
                Exponent: 65537 (0x10001)
        X509v3 extensions:
            X509v3 Basic Constraints: 
                CA:FALSE
            X509v3 Subject Key Identifier: 
                4E:02:42:4F:A8:BA:2A:FA:EF:53:F8:FC:89:4D:91:86:61:6A:76:74
            X509v3 Authority Key Identifier: 
                keyid:3B:93:77:51:A9:01:5B:F3:01:D0:6A:F1:4C:80:84:0A:2E:C8:8E:23
                DirName:/CN=team722-net
                serial:1C:AD:2C:91:60:16:65:D9:E9:DD:8D:CF:55:6B:6D:28:CE:AB:66:89

            X509v3 Extended Key Usage: 
                TLS Web Server Authentication
            X509v3 Key Usage: 
                Digital Signature, Key Encipherment
            X509v3 Subject Alternative Name: 
                DNS:team722-server
    Signature Algorithm: sha256WithRSAEncryption
         5a:fc:cb:34:e0:45:3e:53:14:90:7a:dd:a0:f1:f4:49:f9:28:
         83:7b:e5:65:ba:51:b8:0b:24:e4:96:45:4a:2f:86:61:c8:15:
         8c:74:a1:bd:53:60:50:b5:f5:d2:12:2a:25:f5:e3:6a:63:b3:
         d1:f8:0f:f4:30:31:ee:84:f2:cb:41:71:34:08:b7:6c:2d:f0:
         5f:e4:ef:5b:13:cc:c6:03:88:b6:45:47:35:92:d5:4c:f1:39:
         6e:12:f9:59:8f:93:ee:ce:5a:d1:7c:64:3e:79:77:cf:d5:9b:
         4b:a4:96:79:3a:88:c7:0a:f3:6a:61:8b:ea:1e:e4:dc:1f:c1:
         5d:4a:39:b1:70:54:ff:15:26:8b:d2:f6:bc:4a:56:11:04:ad:
         85:57:22:75:4c:e6:bd:ed:cb:fb:48:b2:6e:7f:dc:2d:48:9b:
         5e:b9:12:07:0b:c6:88:6c:36:98:e8:57:3c:6c:2f:84:93:7f:
         68:bd:81:09:8d:01:4c:b4:2a:b3:85:18:ed:d0:40:5c:08:a5:
         e0:c1:34:4e:3b:ac:35:01:1f:56:ff:36:85:a4:84:da:db:3f:
         1f:25:91:83:aa:05:a8:32:3a:a2:de:05:06:25:7a:fd:41:11:
         5d:8b:36:4b:2a:e1:08:b9:38:5c:34:1e:52:30:d5:7a:93:cc:
         56:61:0f:0e
-----BEGIN CERTIFICATE-----
MIIDdzCCAl+gAwIBAgIQBPFQpx/CHs4J6Tsn3sATbzANBgkqhkiG9w0BAQsFADAW
MRQwEgYDVQQDDAt0ZWFtNzIyLW5ldDAeFw0yMTA5MTMwNTM0NDFaFw0yNDA4Mjgw
NTM0NDFaMBkxFzAVBgNVBAMMDnRlYW03MjItc2VydmVyMIIBIjANBgkqhkiG9w0B
AQEFAAOCAQ8AMIIBCgKCAQEA60XeygjcdEk/2fbIo9B6eBc2oaJ/veNjaT03UeUo
CrwpEOSllwXcR/eBDxfF0UbcoWbIG7gxBm5BrWBT32Dw29dv4CxJ2QiF38fKDREh
zapWMkB7kvhqG8f4ayJUp0zkTMyyF98Tsj4OwJ7iDd+HzeBMOcytF83qjm1zdBA1
pMoscSZM+iHYeMg63wvC/lsN85FgPRM/HsFUoPos3XcvyoRG9CkMjlw1I7rp3dGl
cpI1/Qrh/w4RiyuDWqddP8G8D5e7p8Zy7xiKcgF6qgbXmCOvqm5d026yexHr8Mx7
/0PlVJ/Di9T8BB9lzLB1fgzfxfHuIboJrlFxFkcqNhlAcQIDAQABo4G9MIG6MAkG
A1UdEwQCMAAwHQYDVR0OBBYEFE4CQk+ouir671P4/IlNkYZhanZ0MFEGA1UdIwRK
MEiAFDuTd1GpAVvzAdBq8UyAhAouyI4joRqkGDAWMRQwEgYDVQQDDAt0ZWFtNzIy
LW5ldIIUHK0skWAWZdnp3Y3PVWttKM6rZokwEwYDVR0lBAwwCgYIKwYBBQUHAwEw
CwYDVR0PBAQDAgWgMBkGA1UdEQQSMBCCDnRlYW03MjItc2VydmVyMA0GCSqGSIb3
DQEBCwUAA4IBAQBa/Ms04EU+UxSQet2g8fRJ+SiDe+VlulG4CyTklkVKL4ZhyBWM
dKG9U2BQtfXSEiol9eNqY7PR+A/0MDHuhPLLQXE0CLdsLfBf5O9bE8zGA4i2RUc1
ktVM8TluEvlZj5PuzlrRfGQ+eXfP1ZtLpJZ5OojHCvNqYYvqHuTcH8FdSjmxcFT/
FSaL0va8SlYRBK2FVyJ1TOa97cv7SLJuf9wtSJteuRIHC8aIbDaY6Fc8bC+Ek39o
vYEJjQFMtCqzhRjt0EBcCKXgwTROO6w1AR9W/zaFpITa2z8fJZGDqgWoMjqi3gUG
JXr9QRFdizZLKuEIuThcNB5SMNV6k8xWYQ8O
-----END CERTIFICATE-----
