Certificate:
    Data:
        Version: 3 (0x2)
        Serial Number:
            68:71:02:f9:b3:48:73:06:d7:0d:51:de:ea:30:e2:03
        Signature Algorithm: sha256WithRSAEncryption
        Issuer: CN=team451-net
        Validity
            Not Before: Sep 13 02:51:32 2021 GMT
            Not After : Aug 28 02:51:32 2024 GMT
        Subject: CN=team451-server
        Subject Public Key Info:
            Public Key Algorithm: rsaEncryption
                RSA Public-Key: (2048 bit)
                Modulus:
                    00:ce:93:92:47:96:1c:94:92:97:32:d4:9e:0a:83:
                    49:79:9a:6e:ba:43:44:98:f3:31:27:ee:ec:78:5a:
                    8f:8f:69:06:f8:8c:a7:d0:6c:7a:06:0f:81:f3:46:
                    8e:97:bd:e3:38:97:b9:43:88:f2:6b:5a:1f:2a:bc:
                    f3:70:46:86:cd:6c:b0:15:22:47:48:21:c0:92:18:
                    1a:7b:32:29:9b:fb:0d:fc:34:e1:2c:d1:08:d5:08:
                    7e:44:cc:7d:05:27:84:a4:d2:a7:2c:a7:bd:5b:33:
                    7f:49:61:34:b8:8e:ba:f7:3c:e8:cd:e2:cd:8f:46:
                    d8:6a:b1:8d:2d:b4:c8:1b:24:2c:bb:90:0d:89:b2:
                    8a:e8:aa:00:1d:3c:77:84:c8:c2:77:cf:a6:e0:2b:
                    be:41:5f:eb:56:0d:65:5b:4f:cd:33:b5:c2:5e:9f:
                    5e:7d:5e:2a:19:a5:5e:7c:0c:00:95:3e:d9:28:8f:
                    63:de:89:ea:20:45:20:b8:f4:b7:3a:43:ef:a8:1d:
                    e7:cb:6f:64:c7:50:e2:7c:fc:c5:98:b4:bd:a4:29:
                    96:60:1a:e7:5a:c5:08:78:76:fb:ad:98:26:e4:8a:
                    7a:0a:86:95:0b:f1:6b:cc:7d:8e:3c:df:1d:8f:43:
                    02:15:91:ed:eb:f9:45:49:31:c9:01:75:fa:d8:1e:
                    8c:dd
                Exponent: 65537 (0x10001)
        X509v3 extensions:
            X509v3 Basic Constraints: 
                CA:FALSE
            X509v3 Subject Key Identifier: 
                AD:33:3E:E7:DB:3E:47:85:00:17:15:13:80:A9:46:04:E8:D2:85:71
            X509v3 Authority Key Identifier: 
                keyid:AF:67:49:32:2C:88:8F:B5:AC:BB:20:97:F3:AD:A9:68:6C:C8:93:9D
                DirName:/CN=team451-net
                serial:5E:A9:45:19:67:0C:0B:C2:EC:44:1A:A9:BC:9A:69:6F:CA:35:67:BD

            X509v3 Extended Key Usage: 
                TLS Web Server Authentication
            X509v3 Key Usage: 
                Digital Signature, Key Encipherment
            X509v3 Subject Alternative Name: 
                DNS:team451-server
    Signature Algorithm: sha256WithRSAEncryption
         57:d0:3d:1b:ea:aa:d0:ab:3b:aa:1f:cc:1a:a0:52:2d:e7:8f:
         27:78:16:76:99:10:97:8f:79:18:b1:d5:c8:25:9e:95:1f:a8:
         2d:43:f3:a6:24:69:4d:74:6e:82:b1:aa:24:d7:81:3e:bd:73:
         d0:84:7b:18:e4:14:42:db:1b:f0:8e:fe:0a:a1:23:42:33:74:
         86:28:ea:b9:21:4c:9f:4c:94:e5:35:a3:d7:9e:b9:cc:df:c7:
         29:29:86:cf:95:b5:f4:5f:e0:04:7d:98:c0:7f:56:c5:b6:33:
         f4:08:62:82:53:ad:25:7b:19:3c:d5:88:15:90:5f:f0:14:65:
         0c:4e:fe:89:be:28:0b:0f:0c:87:cd:5f:52:8e:4e:d6:17:3b:
         1d:c0:5b:21:b7:20:a2:d0:b2:61:e5:5c:22:7e:0f:27:c8:ba:
         81:25:3f:ed:ac:a9:41:4e:d8:b5:5d:1a:f9:8a:34:86:0b:ea:
         28:c3:16:f7:9c:a8:73:43:4d:41:b3:05:ba:23:97:f9:31:71:
         27:fc:c1:be:5c:ac:f5:6c:80:cb:74:52:e6:19:92:64:e8:03:
         f6:35:e9:74:36:c8:a0:d5:2e:4a:00:c0:88:84:88:25:54:2e:
         4f:08:9e:98:15:fe:28:61:a7:4c:cc:4b:e1:1c:03:87:f0:32:
         ae:67:e6:d8
-----BEGIN CERTIFICATE-----
MIIDdzCCAl+gAwIBAgIQaHEC+bNIcwbXDVHe6jDiAzANBgkqhkiG9w0BAQsFADAW
MRQwEgYDVQQDDAt0ZWFtNDUxLW5ldDAeFw0yMTA5MTMwMjUxMzJaFw0yNDA4Mjgw
MjUxMzJaMBkxFzAVBgNVBAMMDnRlYW00NTEtc2VydmVyMIIBIjANBgkqhkiG9w0B
AQEFAAOCAQ8AMIIBCgKCAQEAzpOSR5YclJKXMtSeCoNJeZpuukNEmPMxJ+7seFqP
j2kG+Iyn0Gx6Bg+B80aOl73jOJe5Q4jya1ofKrzzcEaGzWywFSJHSCHAkhgaezIp
m/sN/DThLNEI1Qh+RMx9BSeEpNKnLKe9WzN/SWE0uI669zzozeLNj0bYarGNLbTI
GyQsu5ANibKK6KoAHTx3hMjCd8+m4Cu+QV/rVg1lW0/NM7XCXp9efV4qGaVefAwA
lT7ZKI9j3onqIEUguPS3OkPvqB3ny29kx1DifPzFmLS9pCmWYBrnWsUIeHb7rZgm
5Ip6CoaVC/FrzH2OPN8dj0MCFZHt6/lFSTHJAXX62B6M3QIDAQABo4G9MIG6MAkG
A1UdEwQCMAAwHQYDVR0OBBYEFK0zPufbPkeFABcVE4CpRgTo0oVxMFEGA1UdIwRK
MEiAFK9nSTIsiI+1rLsgl/OtqWhsyJOdoRqkGDAWMRQwEgYDVQQDDAt0ZWFtNDUx
LW5ldIIUXqlFGWcMC8LsRBqpvJppb8o1Z70wEwYDVR0lBAwwCgYIKwYBBQUHAwEw
CwYDVR0PBAQDAgWgMBkGA1UdEQQSMBCCDnRlYW00NTEtc2VydmVyMA0GCSqGSIb3
DQEBCwUAA4IBAQBX0D0b6qrQqzuqH8waoFIt548neBZ2mRCXj3kYsdXIJZ6VH6gt
Q/OmJGlNdG6Csaok14E+vXPQhHsY5BRC2xvwjv4KoSNCM3SGKOq5IUyfTJTlNaPX
nrnM38cpKYbPlbX0X+AEfZjAf1bFtjP0CGKCU60lexk81YgVkF/wFGUMTv6JvigL
DwyHzV9Sjk7WFzsdwFshtyCi0LJh5Vwifg8nyLqBJT/trKlBTti1XRr5ijSGC+oo
wxb3nKhzQ01BswW6I5f5MXEn/MG+XKz1bIDLdFLmGZJk6AP2Nel0Nsig1S5KAMCI
hIglVC5PCJ6YFf4oYadMzEvhHAOH8DKuZ+bY
-----END CERTIFICATE-----
