Certificate:
    Data:
        Version: 3 (0x2)
        Serial Number:
            43:94:34:7c:33:1c:cb:db:2c:90:03:97:39:6b:54:14
        Signature Algorithm: sha256WithRSAEncryption
        Issuer: CN=team452-net
        Validity
            Not Before: Sep 13 02:43:55 2021 GMT
            Not After : Aug 28 02:43:55 2024 GMT
        Subject: CN=team452-client
        Subject Public Key Info:
            Public Key Algorithm: rsaEncryption
                RSA Public-Key: (2048 bit)
                Modulus:
                    00:a6:8e:33:7c:19:22:75:aa:3e:42:ed:0d:81:79:
                    b0:24:4c:b0:d3:7a:e4:fe:af:24:e4:57:d9:0f:c7:
                    98:5b:e4:8a:de:d6:d5:e1:9b:c7:a1:88:d2:50:a5:
                    1c:78:4a:67:ec:1a:4a:9d:d7:52:de:d3:61:fe:6a:
                    cc:c1:67:b9:73:4e:76:c4:a6:f2:13:09:0d:06:a4:
                    72:75:00:1e:83:68:7c:01:13:00:78:42:2a:4a:c7:
                    25:54:2b:64:32:be:1d:6a:a1:aa:07:ca:58:43:98:
                    db:4e:cb:e7:17:19:49:b2:c2:4d:b0:2d:50:96:b3:
                    68:91:d5:c0:f0:c9:b6:20:8f:e7:92:39:de:dd:66:
                    81:aa:03:83:8c:1e:b4:32:0f:92:38:e5:8f:4b:6f:
                    15:7f:a2:ee:22:a5:9e:98:06:1f:33:3c:61:cc:69:
                    4f:9f:e7:29:cf:bf:96:aa:37:02:89:20:85:ac:4a:
                    16:e0:a4:3b:43:3e:09:20:84:9d:1d:7d:fe:1b:0a:
                    69:4b:7c:af:cf:e2:70:0e:40:8e:4a:f7:ff:ec:7a:
                    cb:3d:66:bc:70:6f:8c:b3:1d:82:d4:81:0b:13:90:
                    8e:7b:93:3f:6e:93:41:cf:f7:26:19:db:84:a2:c7:
                    10:14:06:df:2a:ab:35:9e:7f:1a:66:29:82:54:93:
                    7d:73
                Exponent: 65537 (0x10001)
        X509v3 extensions:
            X509v3 Basic Constraints: 
                CA:FALSE
            X509v3 Subject Key Identifier: 
                53:09:54:AD:C2:49:56:04:AE:28:98:D3:C4:BD:8D:22:50:A0:D6:51
            X509v3 Authority Key Identifier: 
                keyid:AF:7F:67:24:56:2F:D6:DF:5A:1C:44:7C:AF:95:8C:64:C3:4A:F9:C1
                DirName:/CN=team452-net
                serial:7F:07:B4:E7:6B:20:CE:B6:C2:03:AB:23:EB:A3:6F:97:2C:D5:7D:EC

            X509v3 Extended Key Usage: 
                TLS Web Client Authentication
            X509v3 Key Usage: 
                Digital Signature
    Signature Algorithm: sha256WithRSAEncryption
         7a:3b:97:51:1b:e9:dd:60:f0:80:26:d5:ae:14:0d:31:f5:c4:
         b9:e2:1d:d3:8e:0b:a9:06:d1:af:15:4d:15:d6:e4:4c:bf:ea:
         72:5e:e6:e2:a6:6b:60:a9:0b:81:cc:c9:55:c2:aa:7e:55:6f:
         9c:3f:e9:30:e6:e2:54:8e:7c:da:89:7f:91:71:a0:68:d3:f1:
         9d:4c:47:7e:74:73:9f:f8:ba:7f:1f:f1:87:6e:3a:1a:9c:b0:
         51:b0:47:74:45:c9:b7:d6:8f:ab:90:1c:25:7a:1c:ec:53:9c:
         39:60:14:4b:16:a9:09:38:e8:d2:3c:46:f7:4b:45:b6:f6:bc:
         0b:6a:ad:ab:16:5b:c1:fb:70:c9:3e:71:a8:e2:0b:23:3b:75:
         0f:5a:64:5c:4f:4b:31:25:60:04:fd:78:fd:7a:cc:fa:62:c0:
         99:9a:1f:fb:27:58:51:67:e5:7e:59:12:23:e5:c5:72:db:00:
         49:99:53:c2:25:30:17:22:6d:a7:4e:7f:b7:62:84:1d:dd:0a:
         28:77:39:74:2d:c2:0f:b5:b8:79:8f:a6:c3:04:43:1b:87:31:
         0f:87:1f:17:62:df:1b:7b:17:31:bd:3f:95:b3:72:08:5f:42:
         a4:be:84:8d:b8:53:09:6e:de:d1:b5:7d:48:f0:81:e5:d5:5f:
         41:33:08:e7
-----BEGIN CERTIFICATE-----
MIIDXDCCAkSgAwIBAgIQQ5Q0fDMcy9sskAOXOWtUFDANBgkqhkiG9w0BAQsFADAW
MRQwEgYDVQQDDAt0ZWFtNDUyLW5ldDAeFw0yMTA5MTMwMjQzNTVaFw0yNDA4Mjgw
MjQzNTVaMBkxFzAVBgNVBAMMDnRlYW00NTItY2xpZW50MIIBIjANBgkqhkiG9w0B
AQEFAAOCAQ8AMIIBCgKCAQEApo4zfBkidao+Qu0NgXmwJEyw03rk/q8k5FfZD8eY
W+SK3tbV4ZvHoYjSUKUceEpn7BpKnddS3tNh/mrMwWe5c052xKbyEwkNBqRydQAe
g2h8ARMAeEIqSsclVCtkMr4daqGqB8pYQ5jbTsvnFxlJssJNsC1QlrNokdXA8Mm2
II/nkjne3WaBqgODjB60Mg+SOOWPS28Vf6LuIqWemAYfMzxhzGlPn+cpz7+WqjcC
iSCFrEoW4KQ7Qz4JIISdHX3+GwppS3yvz+JwDkCOSvf/7HrLPWa8cG+Msx2C1IEL
E5COe5M/bpNBz/cmGduEoscQFAbfKqs1nn8aZimCVJN9cwIDAQABo4GiMIGfMAkG
A1UdEwQCMAAwHQYDVR0OBBYEFFMJVK3CSVYEriiY08S9jSJQoNZRMFEGA1UdIwRK
MEiAFK9/ZyRWL9bfWhxEfK+VjGTDSvnBoRqkGDAWMRQwEgYDVQQDDAt0ZWFtNDUy
LW5ldIIUfwe052sgzrbCA6sj66NvlyzVfewwEwYDVR0lBAwwCgYIKwYBBQUHAwIw
CwYDVR0PBAQDAgeAMA0GCSqGSIb3DQEBCwUAA4IBAQB6O5dRG+ndYPCAJtWuFA0x
9cS54h3TjgupBtGvFU0V1uRMv+pyXubipmtgqQuBzMlVwqp+VW+cP+kw5uJUjnza
iX+RcaBo0/GdTEd+dHOf+Lp/H/GHbjoanLBRsEd0Rcm31o+rkBwlehzsU5w5YBRL
FqkJOOjSPEb3S0W29rwLaq2rFlvB+3DJPnGo4gsjO3UPWmRcT0sxJWAE/Xj9esz6
YsCZmh/7J1hRZ+V+WRIj5cVy2wBJmVPCJTAXIm2nTn+3YoQd3Qoodzl0LcIPtbh5
j6bDBEMbhzEPhx8XYt8bexcxvT+Vs3IIX0KkvoSNuFMJbt7RtX1I8IHl1V9BMwjn
-----END CERTIFICATE-----
