Certificate:
    Data:
        Version: 3 (0x2)
        Serial Number:
            51:c4:9f:1f:cc:49:46:bb:ba:e3:bf:4f:ea:1a:16:d1
        Signature Algorithm: sha256WithRSAEncryption
        Issuer: CN=team452-net
        Validity
            Not Before: Sep 13 02:43:55 2021 GMT
            Not After : Aug 28 02:43:55 2024 GMT
        Subject: CN=team452-server
        Subject Public Key Info:
            Public Key Algorithm: rsaEncryption
                RSA Public-Key: (2048 bit)
                Modulus:
                    00:e9:b4:9d:0a:55:72:57:3d:1a:04:94:a1:25:3f:
                    26:3a:ac:16:dd:7b:a1:a7:69:4e:cb:cc:d1:08:63:
                    b3:fa:64:2e:87:0b:5b:2e:47:ca:ee:3e:10:50:c9:
                    36:28:51:e4:74:d4:76:e0:ba:ab:12:75:94:d8:1a:
                    41:0f:df:7c:bc:e2:20:32:95:c6:19:f2:4c:f2:5c:
                    4d:6e:ab:ea:e4:8a:d9:29:d7:04:f0:94:7f:1a:38:
                    6a:0d:77:d8:e8:2b:00:66:fb:54:77:c1:1f:5d:90:
                    17:a3:42:86:4d:46:09:21:b8:6d:7e:e9:20:6b:06:
                    6e:5d:e4:44:94:d3:0d:7b:33:bb:66:77:31:94:e6:
                    fb:39:b8:8b:2f:23:72:fe:d9:6d:99:13:0f:a1:93:
                    ee:c3:b5:3a:5e:fd:c8:d6:27:1b:1c:5a:c7:c1:55:
                    bb:27:35:e6:6c:52:0c:90:26:15:a3:26:18:1b:e8:
                    46:68:73:84:37:54:60:12:e2:8d:72:7d:04:de:68:
                    d6:18:b5:44:77:d1:99:08:9f:b1:76:e0:ee:ac:9f:
                    20:1b:e0:dc:53:6e:2d:ad:95:6a:42:c2:92:20:1a:
                    e0:36:0a:d5:b5:57:81:02:7b:59:72:f5:ec:54:54:
                    b8:a7:1f:87:8a:30:eb:e3:d6:80:09:a1:72:1b:bc:
                    7c:25
                Exponent: 65537 (0x10001)
        X509v3 extensions:
            X509v3 Basic Constraints: 
                CA:FALSE
            X509v3 Subject Key Identifier: 
                FC:51:E7:5D:B8:67:43:F7:B8:D1:61:0D:7C:AC:AF:03:69:60:D5:A4
            X509v3 Authority Key Identifier: 
                keyid:AF:7F:67:24:56:2F:D6:DF:5A:1C:44:7C:AF:95:8C:64:C3:4A:F9:C1
                DirName:/CN=team452-net
                serial:7F:07:B4:E7:6B:20:CE:B6:C2:03:AB:23:EB:A3:6F:97:2C:D5:7D:EC

            X509v3 Extended Key Usage: 
                TLS Web Server Authentication
            X509v3 Key Usage: 
                Digital Signature, Key Encipherment
            X509v3 Subject Alternative Name: 
                DNS:team452-server
    Signature Algorithm: sha256WithRSAEncryption
         84:9c:3e:95:70:f4:11:b7:8b:af:e4:62:71:14:7d:31:9b:47:
         e9:91:a3:f5:6f:70:0f:51:a7:6a:2c:40:01:45:9e:65:79:7a:
         9c:55:b3:66:d6:54:1c:6e:38:05:a1:3f:48:2f:9e:a5:8b:de:
         ee:7d:7f:2b:d1:88:31:ed:33:03:bf:c9:4b:10:3a:04:7c:4d:
         da:e7:f8:82:fe:0e:36:7e:ba:89:47:81:4b:61:52:13:95:52:
         6d:26:94:34:6c:33:fc:a0:fb:30:57:b2:c4:4a:c8:c6:aa:b0:
         d0:a9:35:62:44:79:fa:32:b5:3b:f5:54:f9:bf:be:e5:7e:28:
         44:29:63:5a:e1:01:82:b3:f1:c9:eb:29:21:be:fb:fa:d7:82:
         69:be:85:af:54:c1:a6:1e:8b:a4:8c:a8:55:e1:9a:99:db:79:
         b9:57:fe:02:6a:46:27:56:d7:2f:b6:38:73:ba:3f:fe:ee:7e:
         cd:ef:8a:cb:a6:f1:9e:e8:e4:fd:53:64:c4:82:0f:16:e3:b0:
         8b:d6:30:13:b6:a1:b6:12:54:40:cb:ca:e6:e9:9d:5a:83:c0:
         cb:a4:d2:14:88:3b:63:8a:25:05:d1:e6:d4:b7:5d:83:56:67:
         7b:ef:f6:29:2f:23:59:4d:ee:28:e1:cc:0d:8e:aa:bf:93:f4:
         95:8c:13:ff
-----BEGIN CERTIFICATE-----
MIIDdzCCAl+gAwIBAgIQUcSfH8xJRru6479P6hoW0TANBgkqhkiG9w0BAQsFADAW
MRQwEgYDVQQDDAt0ZWFtNDUyLW5ldDAeFw0yMTA5MTMwMjQzNTVaFw0yNDA4Mjgw
MjQzNTVaMBkxFzAVBgNVBAMMDnRlYW00NTItc2VydmVyMIIBIjANBgkqhkiG9w0B
AQEFAAOCAQ8AMIIBCgKCAQEA6bSdClVyVz0aBJShJT8mOqwW3Xuhp2lOy8zRCGOz
+mQuhwtbLkfK7j4QUMk2KFHkdNR24LqrEnWU2BpBD998vOIgMpXGGfJM8lxNbqvq
5IrZKdcE8JR/GjhqDXfY6CsAZvtUd8EfXZAXo0KGTUYJIbhtfukgawZuXeRElNMN
ezO7ZncxlOb7ObiLLyNy/tltmRMPoZPuw7U6Xv3I1icbHFrHwVW7JzXmbFIMkCYV
oyYYG+hGaHOEN1RgEuKNcn0E3mjWGLVEd9GZCJ+xduDurJ8gG+DcU24trZVqQsKS
IBrgNgrVtVeBAntZcvXsVFS4px+HijDr49aACaFyG7x8JQIDAQABo4G9MIG6MAkG
A1UdEwQCMAAwHQYDVR0OBBYEFPxR5124Z0P3uNFhDXysrwNpYNWkMFEGA1UdIwRK
MEiAFK9/ZyRWL9bfWhxEfK+VjGTDSvnBoRqkGDAWMRQwEgYDVQQDDAt0ZWFtNDUy
LW5ldIIUfwe052sgzrbCA6sj66NvlyzVfewwEwYDVR0lBAwwCgYIKwYBBQUHAwEw
CwYDVR0PBAQDAgWgMBkGA1UdEQQSMBCCDnRlYW00NTItc2VydmVyMA0GCSqGSIb3
DQEBCwUAA4IBAQCEnD6VcPQRt4uv5GJxFH0xm0fpkaP1b3APUadqLEABRZ5leXqc
VbNm1lQcbjgFoT9IL56li97ufX8r0Ygx7TMDv8lLEDoEfE3a5/iC/g42frqJR4FL
YVITlVJtJpQ0bDP8oPswV7LESsjGqrDQqTViRHn6MrU79VT5v77lfihEKWNa4QGC
s/HJ6ykhvvv614JpvoWvVMGmHoukjKhV4ZqZ23m5V/4CakYnVtcvtjhzuj/+7n7N
74rLpvGe6OT9U2TEgg8W47CL1jATtqG2ElRAy8rm6Z1ag8DLpNIUiDtjiiUF0ebU
t12DVmd77/YpLyNZTe4o4cwNjqq/k/SVjBP/
-----END CERTIFICATE-----
