Certificate:
    Data:
        Version: 3 (0x2)
        Serial Number:
            92:81:9d:b6:ed:65:3e:30:a2:d8:ab:8f:94:0a:0b:be
        Signature Algorithm: sha256WithRSAEncryption
        Issuer: CN=team303-net
        Validity
            Not Before: Sep 13 01:28:24 2021 GMT
            Not After : Aug 28 01:28:24 2024 GMT
        Subject: CN=team303-server
        Subject Public Key Info:
            Public Key Algorithm: rsaEncryption
                RSA Public-Key: (2048 bit)
                Modulus:
                    00:d6:84:fe:b4:a4:a0:8e:f0:d9:00:a7:95:5f:ec:
                    f2:2f:16:43:50:b4:b6:5b:8d:b1:72:f6:e2:38:f8:
                    fc:2f:44:4e:4a:ec:9c:a2:ba:7e:b0:45:78:78:fd:
                    f9:c6:f4:12:91:48:68:c8:9e:18:70:db:cc:a8:d9:
                    5a:c3:5a:11:f9:ba:37:49:dc:02:28:76:df:be:ae:
                    3f:b6:a3:7b:48:24:a3:e2:3e:9d:30:e1:01:7e:94:
                    67:0c:de:2a:45:ca:d2:b8:7a:c8:47:03:d6:cc:96:
                    38:99:f0:b9:6e:9e:50:b6:0a:3d:ec:87:fc:d9:a7:
                    72:80:d1:9a:dc:71:8b:02:78:2a:f9:47:e0:50:cd:
                    7a:cb:dc:cf:b8:6e:63:86:16:c3:60:d4:bf:73:50:
                    c2:fe:96:63:c4:92:b2:4b:b6:a8:6d:59:c1:4f:a7:
                    b5:9c:99:19:d4:ab:2c:8b:78:00:d9:c8:e3:92:02:
                    cf:2a:14:58:97:91:bf:85:ef:93:7f:c4:85:6b:5a:
                    3b:41:36:af:7b:9e:2a:8f:d5:73:1b:47:6f:2a:82:
                    33:ad:f8:2f:55:94:e0:b3:69:db:ab:57:02:b4:4a:
                    ef:cd:69:c8:20:03:a3:16:49:77:44:39:6b:ee:4d:
                    ce:66:bc:06:84:53:e1:34:12:43:48:b3:29:8c:d6:
                    91:a5
                Exponent: 65537 (0x10001)
        X509v3 extensions:
            X509v3 Basic Constraints: 
                CA:FALSE
            X509v3 Subject Key Identifier: 
                A0:D6:2A:21:AB:5D:F4:14:FC:F9:AE:00:1E:61:01:F9:02:F1:74:96
            X509v3 Authority Key Identifier: 
                keyid:2D:4E:C5:6D:89:5A:0E:78:5F:B3:CF:CB:05:EE:C2:41:19:8E:DB:D3
                DirName:/CN=team303-net
                serial:76:E0:F1:41:62:D1:2C:FF:F5:AC:AC:4F:2D:A6:BA:3A:7B:93:77:4C

            X509v3 Extended Key Usage: 
                TLS Web Server Authentication
            X509v3 Key Usage: 
                Digital Signature, Key Encipherment
            X509v3 Subject Alternative Name: 
                DNS:team303-server
    Signature Algorithm: sha256WithRSAEncryption
         8f:0c:7b:21:59:f9:9e:0a:7a:5e:cf:09:9a:cf:a1:91:14:3e:
         e3:15:ee:40:44:7e:92:1e:6c:ce:22:34:ec:32:20:12:f3:fe:
         5d:12:60:65:3f:a2:30:40:02:6b:93:d7:2f:8d:60:14:c2:a1:
         15:96:6b:e6:90:ab:7d:65:f8:60:25:76:12:d0:de:75:8d:69:
         5c:99:b3:0a:f2:fd:ac:a3:7b:0e:9b:a6:14:39:7e:87:46:e8:
         9c:54:14:d3:68:0e:b6:bc:fd:f0:71:6c:f7:b7:b0:42:cb:23:
         ea:5a:60:49:a9:f0:42:01:2e:89:55:ae:3d:2d:a2:65:e7:db:
         b7:23:52:27:da:75:3d:17:80:1d:1d:c0:d2:93:81:bb:7e:dc:
         64:8a:44:81:4f:35:a0:9f:3b:32:a9:b0:3f:3b:82:c0:aa:88:
         5a:3f:c2:c2:81:a3:1a:06:0b:8f:a8:33:85:7f:9d:27:1e:b9:
         85:b2:ce:44:b1:ae:3f:ee:cc:73:1b:ec:43:e6:2c:33:51:c0:
         db:09:68:ab:e4:94:6c:3f:31:a1:fe:c4:13:33:ca:e5:7d:5d:
         86:a4:e6:ce:17:47:28:ac:6b:66:b5:a3:62:8b:c2:32:59:ab:
         e8:7f:77:87:35:5a:2b:34:e2:a4:79:03:9e:80:0e:29:9a:88:
         58:27:9d:cc
-----BEGIN CERTIFICATE-----
MIIDeDCCAmCgAwIBAgIRAJKBnbbtZT4wotirj5QKC74wDQYJKoZIhvcNAQELBQAw
FjEUMBIGA1UEAwwLdGVhbTMwMy1uZXQwHhcNMjEwOTEzMDEyODI0WhcNMjQwODI4
MDEyODI0WjAZMRcwFQYDVQQDDA50ZWFtMzAzLXNlcnZlcjCCASIwDQYJKoZIhvcN
AQEBBQADggEPADCCAQoCggEBANaE/rSkoI7w2QCnlV/s8i8WQ1C0tluNsXL24jj4
/C9ETkrsnKK6frBFeHj9+cb0EpFIaMieGHDbzKjZWsNaEfm6N0ncAih2376uP7aj
e0gko+I+nTDhAX6UZwzeKkXK0rh6yEcD1syWOJnwuW6eULYKPeyH/NmncoDRmtxx
iwJ4KvlH4FDNesvcz7huY4YWw2DUv3NQwv6WY8SSsku2qG1ZwU+ntZyZGdSrLIt4
ANnI45ICzyoUWJeRv4Xvk3/EhWtaO0E2r3ueKo/VcxtHbyqCM634L1WU4LNp26tX
ArRK781pyCADoxZJd0Q5a+5Nzma8BoRT4TQSQ0izKYzWkaUCAwEAAaOBvTCBujAJ
BgNVHRMEAjAAMB0GA1UdDgQWBBSg1iohq130FPz5rgAeYQH5AvF0ljBRBgNVHSME
SjBIgBQtTsVtiVoOeF+zz8sF7sJBGY7b06EapBgwFjEUMBIGA1UEAwwLdGVhbTMw
My1uZXSCFHbg8UFi0Sz/9aysTy2mujp7k3dMMBMGA1UdJQQMMAoGCCsGAQUFBwMB
MAsGA1UdDwQEAwIFoDAZBgNVHREEEjAQgg50ZWFtMzAzLXNlcnZlcjANBgkqhkiG
9w0BAQsFAAOCAQEAjwx7IVn5ngp6Xs8Jms+hkRQ+4xXuQER+kh5sziI07DIgEvP+
XRJgZT+iMEACa5PXL41gFMKhFZZr5pCrfWX4YCV2EtDedY1pXJmzCvL9rKN7Dpum
FDl+h0bonFQU02gOtrz98HFs97ewQssj6lpgSanwQgEuiVWuPS2iZefbtyNSJ9p1
PReAHR3A0pOBu37cZIpEgU81oJ87MqmwPzuCwKqIWj/CwoGjGgYLj6gzhX+dJx65
hbLORLGuP+7McxvsQ+YsM1HA2wloq+SUbD8xof7EEzPK5X1dhqTmzhdHKKxrZrWj
YovCMlmr6H93hzVaKzTipHkDnoAOKZqIWCedzA==
-----END CERTIFICATE-----
