Certificate:
    Data:
        Version: 3 (0x2)
        Serial Number:
            cc:98:e1:10:2a:c8:60:dd:5f:3f:e4:ed:3d:88:3b:1c
        Signature Algorithm: sha256WithRSAEncryption
        Issuer: CN=team303-net
        Validity
            Not Before: Sep 13 01:28:24 2021 GMT
            Not After : Aug 28 01:28:24 2024 GMT
        Subject: CN=team303-client
        Subject Public Key Info:
            Public Key Algorithm: rsaEncryption
                RSA Public-Key: (2048 bit)
                Modulus:
                    00:ea:2d:12:83:c5:e7:68:09:37:e6:e4:42:98:b1:
                    07:a6:ee:de:09:f2:63:e5:59:79:5c:5f:41:dd:b9:
                    49:67:f1:cd:01:da:0a:0e:09:bd:e8:be:6d:35:26:
                    6d:fb:91:6b:31:f5:37:a2:67:22:fb:e9:44:e2:0b:
                    db:3d:6d:af:98:9a:3c:f5:98:9d:f3:48:9a:fe:2d:
                    90:27:35:e7:34:2d:49:6e:b2:a5:9d:43:1c:9c:87:
                    51:a4:a8:c8:ec:c5:7d:99:55:fa:26:a0:0d:06:fa:
                    2a:c1:60:2f:78:b7:fe:cb:34:66:b9:38:11:6c:f8:
                    fa:1c:2c:10:73:46:2b:a9:d1:f1:fe:5e:ec:f0:c5:
                    c3:38:33:6d:2f:58:ba:07:4d:4d:a4:6b:65:2a:28:
                    73:f5:43:19:d7:a2:bc:f8:bc:91:15:40:63:13:78:
                    9a:e4:fc:05:ed:92:b5:a2:f4:5a:ad:99:95:19:48:
                    42:76:a3:bf:c4:77:f3:ed:17:ae:f6:07:95:04:94:
                    27:80:0c:3a:5d:db:0f:64:6d:a9:4e:dd:0e:30:36:
                    24:c8:33:77:4d:63:82:f7:f6:9a:fd:0f:e6:f3:5b:
                    1b:91:30:83:3c:15:f6:85:aa:d1:de:55:65:d8:e7:
                    a3:d9:e8:e1:bc:0f:c3:db:cd:1a:c6:1c:43:77:b2:
                    01:73
                Exponent: 65537 (0x10001)
        X509v3 extensions:
            X509v3 Basic Constraints: 
                CA:FALSE
            X509v3 Subject Key Identifier: 
                24:66:F8:54:DA:83:73:B5:1A:6B:D5:93:08:93:CE:BC:9B:6B:2C:DD
            X509v3 Authority Key Identifier: 
                keyid:2D:4E:C5:6D:89:5A:0E:78:5F:B3:CF:CB:05:EE:C2:41:19:8E:DB:D3
                DirName:/CN=team303-net
                serial:76:E0:F1:41:62:D1:2C:FF:F5:AC:AC:4F:2D:A6:BA:3A:7B:93:77:4C

            X509v3 Extended Key Usage: 
                TLS Web Client Authentication
            X509v3 Key Usage: 
                Digital Signature
    Signature Algorithm: sha256WithRSAEncryption
         29:6b:50:9e:b8:d3:ae:6f:6e:b5:d6:31:fb:ef:e6:c7:1a:0e:
         18:bd:15:57:dc:5a:e9:6c:61:40:82:fb:20:bf:5d:94:15:31:
         b3:ec:4e:07:ec:6b:06:9b:3b:3c:8f:c9:0b:a8:fc:0a:29:17:
         46:e9:a3:27:e2:bd:bf:ef:ad:18:2d:6c:77:f8:03:d0:90:72:
         07:fa:8c:dd:3a:0f:35:00:cb:74:99:4b:7a:77:c5:0e:83:31:
         7b:b4:66:d4:7c:2c:3e:d2:73:c0:0b:cb:a2:4c:02:2f:67:ae:
         33:87:17:62:20:15:2d:f2:3e:ce:5c:d9:4c:75:ee:e4:21:20:
         c7:f8:45:37:c7:44:db:3b:17:ea:08:28:7f:b2:e8:2f:28:7b:
         59:30:1f:dd:3b:d0:6b:95:6a:fd:b9:f2:b7:9b:84:a2:c3:32:
         5f:6f:89:67:a6:04:b0:79:79:e1:27:34:b3:ac:d7:32:0d:f1:
         ce:99:31:5a:2e:e4:bd:6c:2f:3a:cc:dc:32:54:9a:58:35:66:
         31:fe:ca:20:b7:0e:a4:df:fe:01:59:50:18:ed:e4:ad:5b:11:
         b9:4b:a0:61:b1:88:5c:93:2d:60:d0:44:bf:4e:68:18:ab:9b:
         6d:79:4b:2f:15:8a:db:cf:46:e2:ad:0d:9f:ae:57:43:a9:77:
         23:40:22:c3
-----BEGIN CERTIFICATE-----
MIIDXTCCAkWgAwIBAgIRAMyY4RAqyGDdXz/k7T2IOxwwDQYJKoZIhvcNAQELBQAw
FjEUMBIGA1UEAwwLdGVhbTMwMy1uZXQwHhcNMjEwOTEzMDEyODI0WhcNMjQwODI4
MDEyODI0WjAZMRcwFQYDVQQDDA50ZWFtMzAzLWNsaWVudDCCASIwDQYJKoZIhvcN
AQEBBQADggEPADCCAQoCggEBAOotEoPF52gJN+bkQpixB6bu3gnyY+VZeVxfQd25
SWfxzQHaCg4Jvei+bTUmbfuRazH1N6JnIvvpROIL2z1tr5iaPPWYnfNImv4tkCc1
5zQtSW6ypZ1DHJyHUaSoyOzFfZlV+iagDQb6KsFgL3i3/ss0Zrk4EWz4+hwsEHNG
K6nR8f5e7PDFwzgzbS9YugdNTaRrZSooc/VDGdeivPi8kRVAYxN4muT8Be2StaL0
Wq2ZlRlIQnajv8R38+0XrvYHlQSUJ4AMOl3bD2RtqU7dDjA2JMgzd01jgvf2mv0P
5vNbG5EwgzwV9oWq0d5VZdjno9no4bwPw9vNGsYcQ3eyAXMCAwEAAaOBojCBnzAJ
BgNVHRMEAjAAMB0GA1UdDgQWBBQkZvhU2oNztRpr1ZMIk868m2ss3TBRBgNVHSME
SjBIgBQtTsVtiVoOeF+zz8sF7sJBGY7b06EapBgwFjEUMBIGA1UEAwwLdGVhbTMw
My1uZXSCFHbg8UFi0Sz/9aysTy2mujp7k3dMMBMGA1UdJQQMMAoGCCsGAQUFBwMC
MAsGA1UdDwQEAwIHgDANBgkqhkiG9w0BAQsFAAOCAQEAKWtQnrjTrm9utdYx++/m
xxoOGL0VV9xa6WxhQIL7IL9dlBUxs+xOB+xrBps7PI/JC6j8CikXRumjJ+K9v++t
GC1sd/gD0JByB/qM3ToPNQDLdJlLenfFDoMxe7Rm1HwsPtJzwAvLokwCL2euM4cX
YiAVLfI+zlzZTHXu5CEgx/hFN8dE2zsX6ggof7LoLyh7WTAf3TvQa5Vq/bnyt5uE
osMyX2+JZ6YEsHl54Sc0s6zXMg3xzpkxWi7kvWwvOszcMlSaWDVmMf7KILcOpN/+
AVlQGO3krVsRuUugYbGIXJMtYNBEv05oGKubbXlLLxWK289G4q0Nn65XQ6l3I0Ai
ww==
-----END CERTIFICATE-----
