Certificate:
    Data:
        Version: 3 (0x2)
        Serial Number:
            1a:e0:10:15:40:e9:4b:18:29:f8:7e:0d:98:24:11:5e
        Signature Algorithm: sha256WithRSAEncryption
        Issuer: CN=team222-net
        Validity
            Not Before: Sep 13 00:50:03 2021 GMT
            Not After : Aug 28 00:50:03 2024 GMT
        Subject: CN=team222-client
        Subject Public Key Info:
            Public Key Algorithm: rsaEncryption
                RSA Public-Key: (2048 bit)
                Modulus:
                    00:a5:8c:28:a4:59:37:9e:51:50:9c:8b:ac:3d:d2:
                    77:32:9e:c6:36:44:f2:3d:0c:92:88:ef:e0:17:14:
                    9d:77:3b:7f:17:10:e3:86:f1:86:8e:e9:72:a8:d1:
                    70:61:65:29:3e:72:fe:c2:2a:d9:89:f6:18:5d:7a:
                    dd:a2:7b:94:65:5b:15:f3:26:d5:77:92:7d:cf:8c:
                    6c:ac:45:b9:c6:d0:f3:d0:ef:94:13:0c:04:51:b3:
                    62:1c:23:14:20:e7:94:25:b2:f3:58:15:21:7b:b0:
                    78:5f:7e:fa:17:c2:17:88:a2:47:f5:9f:cb:65:0e:
                    9d:17:09:8a:3e:09:0b:b9:b6:a5:fe:86:20:63:4e:
                    55:b5:70:0a:ec:3b:4c:f9:ad:1b:c7:3d:0e:c7:fd:
                    fc:7a:1d:52:ca:d2:d9:c4:ed:e8:94:0c:c6:eb:e1:
                    58:83:e2:bb:cc:b7:60:da:5e:e6:61:ff:aa:ca:1d:
                    f9:a6:3e:32:11:e4:94:ca:f0:47:69:38:66:f0:05:
                    90:17:a9:7f:7a:73:5a:ab:79:f4:84:09:49:46:96:
                    3d:e7:46:f0:a4:9f:b9:62:07:b9:0c:a2:53:01:30:
                    64:45:ae:41:75:ed:e1:55:43:29:42:db:45:a5:99:
                    1b:50:96:56:1a:e6:3f:94:e5:92:40:5d:a0:e6:94:
                    b5:55
                Exponent: 65537 (0x10001)
        X509v3 extensions:
            X509v3 Basic Constraints: 
                CA:FALSE
            X509v3 Subject Key Identifier: 
                60:0D:E8:39:24:F0:57:5E:63:2B:22:1C:36:94:AE:64:3D:BB:16:6D
            X509v3 Authority Key Identifier: 
                keyid:27:26:CA:5C:B4:F1:5B:E8:3D:62:E6:B6:5A:E4:1D:05:6D:CE:51:C8
                DirName:/CN=team222-net
                serial:2A:12:DB:AF:77:68:E6:D2:A5:3B:39:7A:CA:53:F9:D0:79:FA:6B:29

            X509v3 Extended Key Usage: 
                TLS Web Client Authentication
            X509v3 Key Usage: 
                Digital Signature
    Signature Algorithm: sha256WithRSAEncryption
         c0:80:86:b9:bc:16:ec:28:3d:94:91:d9:31:78:3c:cd:24:a3:
         e9:f5:f7:ea:3b:9c:67:d5:57:f9:c7:94:22:e1:e4:5c:6a:59:
         31:4e:eb:a8:0d:b1:b8:e2:73:e2:cc:16:ad:b3:a5:f8:53:6c:
         a1:44:89:9b:05:0a:2e:3d:ce:d7:89:d2:93:ee:37:0c:b8:16:
         d8:a8:07:b2:4e:15:47:e3:03:25:f4:df:07:7c:01:33:3f:5c:
         26:a8:60:c9:67:9b:bd:92:d4:9a:ae:da:bc:b5:36:b8:f2:84:
         d6:d0:42:f2:0d:76:a2:81:e9:ac:73:3b:ae:81:0d:44:f1:74:
         8f:a9:1b:88:dc:a7:17:c3:1e:f0:3d:79:aa:ad:68:5e:42:6a:
         55:9e:47:aa:cf:d2:90:36:11:12:fd:d8:76:8f:ea:e2:b5:31:
         6f:ec:18:c4:f0:fa:90:b3:07:f6:66:c1:35:82:17:29:7d:33:
         61:ed:f8:6b:82:af:d3:95:53:46:01:f2:d2:ba:56:86:79:50:
         a5:f8:8d:29:de:6c:89:7e:35:54:28:54:0e:e1:18:9e:55:6f:
         cd:fa:e5:5b:b3:3f:17:40:e7:dc:41:b9:f1:ae:31:c5:a8:3e:
         d2:47:4c:0b:cc:5c:68:da:20:67:85:50:0b:92:e4:aa:ef:54:
         e4:c5:5a:da
-----BEGIN CERTIFICATE-----
MIIDXDCCAkSgAwIBAgIQGuAQFUDpSxgp+H4NmCQRXjANBgkqhkiG9w0BAQsFADAW
MRQwEgYDVQQDDAt0ZWFtMjIyLW5ldDAeFw0yMTA5MTMwMDUwMDNaFw0yNDA4Mjgw
MDUwMDNaMBkxFzAVBgNVBAMMDnRlYW0yMjItY2xpZW50MIIBIjANBgkqhkiG9w0B
AQEFAAOCAQ8AMIIBCgKCAQEApYwopFk3nlFQnIusPdJ3Mp7GNkTyPQySiO/gFxSd
dzt/FxDjhvGGjulyqNFwYWUpPnL+wirZifYYXXrdonuUZVsV8ybVd5J9z4xsrEW5
xtDz0O+UEwwEUbNiHCMUIOeUJbLzWBUhe7B4X376F8IXiKJH9Z/LZQ6dFwmKPgkL
ubal/oYgY05VtXAK7DtM+a0bxz0Ox/38eh1SytLZxO3olAzG6+FYg+K7zLdg2l7m
Yf+qyh35pj4yEeSUyvBHaThm8AWQF6l/enNaq3n0hAlJRpY950bwpJ+5Yge5DKJT
ATBkRa5Bde3hVUMpQttFpZkbUJZWGuY/lOWSQF2g5pS1VQIDAQABo4GiMIGfMAkG
A1UdEwQCMAAwHQYDVR0OBBYEFGAN6Dkk8FdeYysiHDaUrmQ9uxZtMFEGA1UdIwRK
MEiAFCcmyly08VvoPWLmtlrkHQVtzlHIoRqkGDAWMRQwEgYDVQQDDAt0ZWFtMjIy
LW5ldIIUKhLbr3do5tKlOzl6ylP50Hn6aykwEwYDVR0lBAwwCgYIKwYBBQUHAwIw
CwYDVR0PBAQDAgeAMA0GCSqGSIb3DQEBCwUAA4IBAQDAgIa5vBbsKD2UkdkxeDzN
JKPp9ffqO5xn1Vf5x5Qi4eRcalkxTuuoDbG44nPizBats6X4U2yhRImbBQouPc7X
idKT7jcMuBbYqAeyThVH4wMl9N8HfAEzP1wmqGDJZ5u9ktSartq8tTa48oTW0ELy
DXaigemsczuugQ1E8XSPqRuI3KcXwx7wPXmqrWheQmpVnkeqz9KQNhES/dh2j+ri
tTFv7BjE8PqQswf2ZsE1ghcpfTNh7fhrgq/TlVNGAfLSulaGeVCl+I0p3myJfjVU
KFQO4RieVW/N+uVbsz8XQOfcQbnxrjHFqD7SR0wLzFxo2iBnhVALkuSq71TkxVra
-----END CERTIFICATE-----
