Certificate:
    Data:
        Version: 3 (0x2)
        Serial Number:
            32:f5:56:37:9b:b1:9d:e0:27:d1:ce:99:6e:9c:ce:8c
        Signature Algorithm: sha256WithRSAEncryption
        Issuer: CN=team222-net
        Validity
            Not Before: Sep 13 00:50:03 2021 GMT
            Not After : Aug 28 00:50:03 2024 GMT
        Subject: CN=team222-server
        Subject Public Key Info:
            Public Key Algorithm: rsaEncryption
                RSA Public-Key: (2048 bit)
                Modulus:
                    00:bd:db:8d:cb:a6:d0:df:67:f7:db:28:7e:25:f2:
                    8c:45:19:e4:ad:d7:b1:6d:b0:cb:ef:5d:c1:c0:c7:
                    8a:ce:e7:d7:d1:42:99:96:5a:e8:42:f2:68:50:40:
                    b5:ff:c6:20:7c:47:6b:0a:c4:1a:48:4a:98:76:c5:
                    d2:02:f5:e8:82:99:fb:85:b6:21:01:e8:46:07:c6:
                    1b:19:09:9e:d3:a3:6d:cf:c1:3d:98:e9:ec:8c:ca:
                    30:aa:25:3e:90:7e:33:3c:55:08:ce:7c:8c:70:11:
                    04:5e:aa:d9:e6:52:ce:73:ea:56:a0:06:79:12:51:
                    7f:cd:3a:9f:b6:1e:aa:5f:fe:71:3a:cf:b0:9d:7b:
                    0e:87:bd:c1:99:05:d9:3c:8d:02:44:83:14:a4:3d:
                    64:81:f6:a3:ea:6a:c3:54:c5:cb:37:78:ca:2c:c9:
                    54:4c:c2:5f:cc:91:89:fa:47:e0:68:45:02:d3:11:
                    9a:7d:13:d0:1c:32:e5:36:f1:d1:f7:e1:4a:dc:e5:
                    e6:d2:83:55:a7:70:22:2e:45:45:76:54:c1:9a:a7:
                    d5:37:e0:8b:4e:5e:13:2c:ca:60:16:4a:4c:8a:05:
                    ce:e1:09:7b:23:ec:eb:5d:66:e9:ba:36:4c:c0:2b:
                    aa:b0:43:87:72:a9:99:4d:c6:b8:0f:77:cf:3e:9d:
                    c4:19
                Exponent: 65537 (0x10001)
        X509v3 extensions:
            X509v3 Basic Constraints: 
                CA:FALSE
            X509v3 Subject Key Identifier: 
                EA:4D:B6:EA:E2:06:27:F0:7F:65:7E:CB:81:5B:1D:39:64:35:FE:8B
            X509v3 Authority Key Identifier: 
                keyid:27:26:CA:5C:B4:F1:5B:E8:3D:62:E6:B6:5A:E4:1D:05:6D:CE:51:C8
                DirName:/CN=team222-net
                serial:2A:12:DB:AF:77:68:E6:D2:A5:3B:39:7A:CA:53:F9:D0:79:FA:6B:29

            X509v3 Extended Key Usage: 
                TLS Web Server Authentication
            X509v3 Key Usage: 
                Digital Signature, Key Encipherment
            X509v3 Subject Alternative Name: 
                DNS:team222-server
    Signature Algorithm: sha256WithRSAEncryption
         1d:f6:61:23:31:01:e3:5c:f5:e8:03:f9:9e:86:70:16:6a:38:
         50:60:ca:ae:e2:28:79:49:ea:5e:e0:61:48:b8:3d:11:17:3c:
         47:27:ff:16:bb:ff:17:0a:66:f8:f9:cc:ad:e6:c2:5e:02:62:
         a9:19:d8:f6:c8:b9:d0:46:2a:63:e9:ac:b8:e0:b5:0f:6f:f7:
         32:7f:71:4c:0a:aa:03:e1:bf:5c:7c:d3:f5:53:e8:3d:12:e7:
         44:26:4c:32:37:2b:e2:44:ba:e3:a1:60:12:96:e1:c7:02:62:
         c1:4e:1c:b4:13:f2:e8:7c:75:90:57:c7:a9:26:73:cd:3c:82:
         02:84:e4:04:c5:26:5a:b8:b5:28:41:56:15:41:bb:d3:10:cb:
         41:fd:06:2e:8b:44:b4:61:92:ed:8b:00:45:e3:cb:67:00:fa:
         1f:2a:e7:a3:20:86:49:c7:31:a3:fb:43:94:b0:ec:1a:41:f5:
         e0:ee:96:ee:a6:27:1f:64:24:c0:7c:cb:c5:73:62:04:4f:2b:
         ac:41:fd:4e:ae:66:d4:7a:95:2c:48:0d:25:4f:4a:ac:00:5a:
         7b:a4:10:dc:4c:39:9b:fc:bc:31:99:f9:83:37:12:60:5e:26:
         65:cf:f1:59:b4:4d:ab:e5:61:14:fb:ad:3a:8b:e4:54:c2:11:
         70:d4:b5:4d
-----BEGIN CERTIFICATE-----
MIIDdzCCAl+gAwIBAgIQMvVWN5uxneAn0c6ZbpzOjDANBgkqhkiG9w0BAQsFADAW
MRQwEgYDVQQDDAt0ZWFtMjIyLW5ldDAeFw0yMTA5MTMwMDUwMDNaFw0yNDA4Mjgw
MDUwMDNaMBkxFzAVBgNVBAMMDnRlYW0yMjItc2VydmVyMIIBIjANBgkqhkiG9w0B
AQEFAAOCAQ8AMIIBCgKCAQEAvduNy6bQ32f32yh+JfKMRRnkrdexbbDL713BwMeK
zufX0UKZllroQvJoUEC1/8YgfEdrCsQaSEqYdsXSAvXogpn7hbYhAehGB8YbGQme
06Ntz8E9mOnsjMowqiU+kH4zPFUIznyMcBEEXqrZ5lLOc+pWoAZ5ElF/zTqfth6q
X/5xOs+wnXsOh73BmQXZPI0CRIMUpD1kgfaj6mrDVMXLN3jKLMlUTMJfzJGJ+kfg
aEUC0xGafRPQHDLlNvHR9+FK3OXm0oNVp3AiLkVFdlTBmqfVN+CLTl4TLMpgFkpM
igXO4Ql7I+zrXWbpujZMwCuqsEOHcqmZTca4D3fPPp3EGQIDAQABo4G9MIG6MAkG
A1UdEwQCMAAwHQYDVR0OBBYEFOpNturiBifwf2V+y4FbHTlkNf6LMFEGA1UdIwRK
MEiAFCcmyly08VvoPWLmtlrkHQVtzlHIoRqkGDAWMRQwEgYDVQQDDAt0ZWFtMjIy
LW5ldIIUKhLbr3do5tKlOzl6ylP50Hn6aykwEwYDVR0lBAwwCgYIKwYBBQUHAwEw
CwYDVR0PBAQDAgWgMBkGA1UdEQQSMBCCDnRlYW0yMjItc2VydmVyMA0GCSqGSIb3
DQEBCwUAA4IBAQAd9mEjMQHjXPXoA/mehnAWajhQYMqu4ih5Sepe4GFIuD0RFzxH
J/8Wu/8XCmb4+cyt5sJeAmKpGdj2yLnQRipj6ay44LUPb/cyf3FMCqoD4b9cfNP1
U+g9EudEJkwyNyviRLrjoWASluHHAmLBThy0E/LofHWQV8epJnPNPIIChOQExSZa
uLUoQVYVQbvTEMtB/QYui0S0YZLtiwBF48tnAPofKuejIIZJxzGj+0OUsOwaQfXg
7pbupicfZCTAfMvFc2IETyusQf1OrmbUepUsSA0lT0qsAFp7pBDcTDmb/LwxmfmD
NxJgXiZlz/FZtE2r5WEU+606i+RUwhFw1LVN
-----END CERTIFICATE-----
