Certificate:
    Data:
        Version: 3 (0x2)
        Serial Number:
            40:19:13:3b:b2:75:59:ba:f3:94:3a:f3:0c:66:76:dc
        Signature Algorithm: sha256WithRSAEncryption
        Issuer: CN=team481-net
        Validity
            Not Before: Sep 13 02:59:00 2021 GMT
            Not After : Aug 28 02:59:00 2024 GMT
        Subject: CN=team481-server
        Subject Public Key Info:
            Public Key Algorithm: rsaEncryption
                RSA Public-Key: (2048 bit)
                Modulus:
                    00:bf:da:94:26:47:cc:b9:dd:ad:0a:72:98:50:fb:
                    70:6e:34:a0:61:50:3d:0b:bc:f8:da:82:d4:b5:ef:
                    e5:97:38:e3:d1:e7:40:1a:29:95:0e:76:73:4e:3e:
                    9a:45:f7:f2:2e:f3:ae:b3:1e:61:ac:5a:33:2e:c6:
                    19:d4:9d:7e:85:bb:68:a2:9e:ec:92:2c:88:38:58:
                    4f:09:8b:0a:46:01:7e:e2:0a:3b:d0:ae:b2:d3:bb:
                    5c:3c:31:c1:9e:30:2e:9a:bf:ff:26:a7:6f:55:fd:
                    b6:a0:38:f4:d2:79:d0:70:9b:77:1c:b5:4b:e6:e6:
                    83:84:fb:67:7e:68:a5:8a:e9:aa:86:b6:2a:9f:23:
                    bb:63:5e:b4:a3:77:ff:02:97:09:f1:6b:3d:5e:71:
                    ca:44:b0:84:28:49:d9:6a:14:ae:9f:e9:03:9b:09:
                    8c:1f:01:af:b3:d5:6d:bb:89:58:b7:df:91:d0:95:
                    08:2e:1c:f5:1d:48:77:27:d6:14:d1:89:98:7b:8f:
                    e4:cd:20:20:70:51:00:43:29:f7:83:72:5e:57:49:
                    27:22:cd:fd:1b:d6:bd:9e:8f:7a:53:f5:55:1d:b4:
                    72:be:20:b4:ec:8e:5c:3d:09:ea:ef:23:b5:2f:22:
                    9b:da:8b:d0:0f:2a:7e:f9:02:0d:84:58:11:4e:19:
                    cd:1f
                Exponent: 65537 (0x10001)
        X509v3 extensions:
            X509v3 Basic Constraints: 
                CA:FALSE
            X509v3 Subject Key Identifier: 
                9F:19:6B:F1:B6:8F:BB:9D:EB:EA:57:1C:42:AB:99:79:BD:6C:B6:0F
            X509v3 Authority Key Identifier: 
                keyid:35:45:98:22:31:54:56:BB:4E:3F:53:C4:F5:80:B6:2D:10:EF:67:D5
                DirName:/CN=team481-net
                serial:5B:CD:3E:EA:22:5D:C5:ED:AF:6C:3B:03:E7:D8:4C:42:C7:F9:B2:76

            X509v3 Extended Key Usage: 
                TLS Web Server Authentication
            X509v3 Key Usage: 
                Digital Signature, Key Encipherment
            X509v3 Subject Alternative Name: 
                DNS:team481-server
    Signature Algorithm: sha256WithRSAEncryption
         19:12:5b:45:6f:6b:15:28:28:ca:a1:60:ec:be:44:84:04:df:
         13:92:a6:b3:85:35:fb:f1:9e:08:f4:85:2e:7f:d3:a3:45:8f:
         db:77:4e:8d:f9:32:23:0f:b0:a0:ef:15:a9:03:83:f9:be:d8:
         70:9e:07:dd:6b:3d:06:6f:92:e3:95:4c:20:bf:3a:ed:f8:a9:
         70:e3:97:84:33:54:54:1b:8a:8c:89:28:91:1d:90:ec:31:cc:
         5a:f2:1c:61:00:5d:24:2d:65:87:a5:61:82:e8:0e:a6:d3:aa:
         31:7d:b5:50:83:dc:1c:f9:34:9b:1a:e3:90:97:0d:9e:4a:00:
         1f:60:e8:a9:a7:a0:a7:a2:f9:16:c0:10:33:ce:2e:10:19:54:
         85:57:73:5a:31:39:29:cc:45:0d:1c:82:69:d9:2f:6d:fe:81:
         71:98:0a:4d:48:05:b8:d7:e1:f0:0c:16:e6:a4:82:8e:8d:96:
         3b:73:3b:56:5e:31:36:ff:61:b5:bd:e9:50:79:db:95:c4:88:
         57:c6:07:ef:ed:da:85:80:8b:56:f1:76:2e:ba:16:ae:14:4d:
         4e:1b:e6:05:cf:fd:4d:86:18:1e:fb:b0:4d:c7:e7:98:b1:a7:
         b8:8a:4a:2a:8c:15:f7:81:d2:50:b4:87:d2:32:bd:0f:66:66:
         8c:55:da:c6
-----BEGIN CERTIFICATE-----
MIIDdzCCAl+gAwIBAgIQQBkTO7J1WbrzlDrzDGZ23DANBgkqhkiG9w0BAQsFADAW
MRQwEgYDVQQDDAt0ZWFtNDgxLW5ldDAeFw0yMTA5MTMwMjU5MDBaFw0yNDA4Mjgw
MjU5MDBaMBkxFzAVBgNVBAMMDnRlYW00ODEtc2VydmVyMIIBIjANBgkqhkiG9w0B
AQEFAAOCAQ8AMIIBCgKCAQEAv9qUJkfMud2tCnKYUPtwbjSgYVA9C7z42oLUte/l
lzjj0edAGimVDnZzTj6aRffyLvOusx5hrFozLsYZ1J1+hbtoop7skiyIOFhPCYsK
RgF+4go70K6y07tcPDHBnjAumr//JqdvVf22oDj00nnQcJt3HLVL5uaDhPtnfmil
iumqhrYqnyO7Y160o3f/ApcJ8Ws9XnHKRLCEKEnZahSun+kDmwmMHwGvs9Vtu4lY
t9+R0JUILhz1HUh3J9YU0YmYe4/kzSAgcFEAQyn3g3JeV0knIs39G9a9no96U/VV
HbRyviC07I5cPQnq7yO1LyKb2ovQDyp++QINhFgRThnNHwIDAQABo4G9MIG6MAkG
A1UdEwQCMAAwHQYDVR0OBBYEFJ8Za/G2j7ud6+pXHEKrmXm9bLYPMFEGA1UdIwRK
MEiAFDVFmCIxVFa7Tj9TxPWAti0Q72fVoRqkGDAWMRQwEgYDVQQDDAt0ZWFtNDgx
LW5ldIIUW80+6iJdxe2vbDsD59hMQsf5snYwEwYDVR0lBAwwCgYIKwYBBQUHAwEw
CwYDVR0PBAQDAgWgMBkGA1UdEQQSMBCCDnRlYW00ODEtc2VydmVyMA0GCSqGSIb3
DQEBCwUAA4IBAQAZEltFb2sVKCjKoWDsvkSEBN8TkqazhTX78Z4I9IUuf9OjRY/b
d06N+TIjD7Cg7xWpA4P5vthwngfdaz0Gb5LjlUwgvzrt+Klw45eEM1RUG4qMiSiR
HZDsMcxa8hxhAF0kLWWHpWGC6A6m06oxfbVQg9wc+TSbGuOQlw2eSgAfYOipp6Cn
ovkWwBAzzi4QGVSFV3NaMTkpzEUNHIJp2S9t/oFxmApNSAW41+HwDBbmpIKOjZY7
cztWXjE2/2G1velQeduVxIhXxgfv7dqFgItW8XYuuhauFE1OG+YFz/1Nhhge+7BN
x+eYsae4ikoqjBX3gdJQtIfSMr0PZmaMVdrG
-----END CERTIFICATE-----
