Certificate:
    Data:
        Version: 3 (0x2)
        Serial Number:
            98:c6:76:eb:27:9d:20:d5:13:66:ec:81:42:a9:34:92
        Signature Algorithm: sha256WithRSAEncryption
        Issuer: CN=team423-net
        Validity
            Not Before: Sep 13 02:30:48 2021 GMT
            Not After : Aug 28 02:30:48 2024 GMT
        Subject: CN=team423-client
        Subject Public Key Info:
            Public Key Algorithm: rsaEncryption
                RSA Public-Key: (2048 bit)
                Modulus:
                    00:b0:d9:9a:e7:3b:e4:97:a5:4c:ee:43:f4:4b:50:
                    52:71:e3:77:f1:e4:9f:8b:c0:dd:2e:ae:cd:7e:5b:
                    cc:07:f9:a3:c8:10:d5:4e:ea:c2:df:0d:a4:ff:f8:
                    74:b8:3e:53:ec:ae:85:99:ca:36:e1:0c:28:89:26:
                    2d:6b:20:21:58:75:68:27:64:bf:37:5a:80:03:0e:
                    9f:fd:6f:ef:40:58:99:08:ef:2b:37:55:7c:de:a0:
                    31:56:d4:81:27:75:b4:53:86:80:64:1b:80:e9:93:
                    10:1b:d7:65:21:ea:90:1f:d8:e8:68:c0:8f:2f:1c:
                    53:c3:60:2c:9f:eb:09:19:42:95:a1:3c:77:06:b4:
                    89:3d:d9:be:17:4e:b2:7b:70:93:41:8e:4e:a0:e7:
                    3c:85:03:c6:e0:60:61:bb:64:7d:74:26:12:0a:b6:
                    ef:ad:52:8d:1b:fa:f9:40:3d:2b:97:f9:c7:db:ea:
                    45:58:fd:80:cb:ec:5a:d4:24:99:73:41:34:c3:13:
                    f5:b1:4c:a4:1b:3f:b3:4c:72:56:4d:d1:b6:03:43:
                    cd:b2:29:55:4c:c7:2b:92:08:36:14:09:e4:8b:96:
                    d5:5c:c1:ff:cf:d5:e6:4b:b5:db:79:de:f2:0b:b0:
                    49:ba:b9:33:ff:a9:fc:ce:4a:6b:e8:66:8f:d7:02:
                    5d:b5
                Exponent: 65537 (0x10001)
        X509v3 extensions:
            X509v3 Basic Constraints: 
                CA:FALSE
            X509v3 Subject Key Identifier: 
                57:67:92:1C:F1:C4:F6:AF:BC:EE:0B:6B:05:81:B7:30:2E:11:26:B0
            X509v3 Authority Key Identifier: 
                keyid:71:3C:9E:F6:DC:E2:AC:14:AC:15:EC:A7:DA:A7:28:3A:2A:55:37:87
                DirName:/CN=team423-net
                serial:46:20:ED:3B:11:18:C3:A3:08:0C:8B:D4:A1:83:AD:39:77:8A:B0:46

            X509v3 Extended Key Usage: 
                TLS Web Client Authentication
            X509v3 Key Usage: 
                Digital Signature
    Signature Algorithm: sha256WithRSAEncryption
         78:ab:c9:11:a3:b7:1d:a0:5d:94:c0:62:b7:97:7f:54:b0:c4:
         ee:ff:85:09:8d:dc:98:b5:9f:21:b2:95:8a:79:41:fd:07:ff:
         e4:65:2f:01:77:c5:7d:5b:5d:0d:5f:7b:95:68:45:67:5b:1a:
         3b:f6:5b:8f:01:9a:cb:6b:a4:10:00:ed:76:8f:b7:4d:36:74:
         a0:73:9b:e9:e5:a1:7a:92:07:02:dd:b7:a4:ae:38:9a:06:fe:
         ff:d0:f2:5b:80:f5:5b:80:35:78:cd:f7:1d:83:b4:1c:4f:33:
         bd:fb:9f:3e:8c:b9:d8:28:82:35:ac:95:87:02:70:3d:bf:27:
         56:0c:a5:15:a6:48:98:fb:f7:70:79:a8:5b:38:c3:4d:bd:da:
         e3:67:a7:b6:f7:53:ad:d9:f6:6e:5a:f3:8d:ae:96:dc:dc:6a:
         04:af:32:19:d6:0b:20:4a:26:1e:88:f6:1f:44:ac:47:57:52:
         2d:45:85:2d:9e:66:65:bb:27:5a:15:69:d1:42:59:b0:ed:2b:
         3d:a9:f9:d4:48:c4:09:0b:3a:ad:b9:cc:b4:37:e4:e9:82:2e:
         03:84:0c:82:ba:f7:19:a7:86:91:1b:3a:54:d4:4c:f0:77:db:
         67:6a:82:46:6e:54:92:40:b8:8f:61:d3:f3:e7:d6:b3:d6:27:
         37:08:a6:23
-----BEGIN CERTIFICATE-----
MIIDXTCCAkWgAwIBAgIRAJjGdusnnSDVE2bsgUKpNJIwDQYJKoZIhvcNAQELBQAw
FjEUMBIGA1UEAwwLdGVhbTQyMy1uZXQwHhcNMjEwOTEzMDIzMDQ4WhcNMjQwODI4
MDIzMDQ4WjAZMRcwFQYDVQQDDA50ZWFtNDIzLWNsaWVudDCCASIwDQYJKoZIhvcN
AQEBBQADggEPADCCAQoCggEBALDZmuc75JelTO5D9EtQUnHjd/Hkn4vA3S6uzX5b
zAf5o8gQ1U7qwt8NpP/4dLg+U+yuhZnKNuEMKIkmLWsgIVh1aCdkvzdagAMOn/1v
70BYmQjvKzdVfN6gMVbUgSd1tFOGgGQbgOmTEBvXZSHqkB/Y6GjAjy8cU8NgLJ/r
CRlClaE8dwa0iT3ZvhdOsntwk0GOTqDnPIUDxuBgYbtkfXQmEgq2761SjRv6+UA9
K5f5x9vqRVj9gMvsWtQkmXNBNMMT9bFMpBs/s0xyVk3RtgNDzbIpVUzHK5IINhQJ
5IuW1VzB/8/V5ku123ne8guwSbq5M/+p/M5Ka+hmj9cCXbUCAwEAAaOBojCBnzAJ
BgNVHRMEAjAAMB0GA1UdDgQWBBRXZ5Ic8cT2r7zuC2sFgbcwLhEmsDBRBgNVHSME
SjBIgBRxPJ723OKsFKwV7Kfapyg6KlU3h6EapBgwFjEUMBIGA1UEAwwLdGVhbTQy
My1uZXSCFEYg7TsRGMOjCAyL1KGDrTl3irBGMBMGA1UdJQQMMAoGCCsGAQUFBwMC
MAsGA1UdDwQEAwIHgDANBgkqhkiG9w0BAQsFAAOCAQEAeKvJEaO3HaBdlMBit5d/
VLDE7v+FCY3cmLWfIbKVinlB/Qf/5GUvAXfFfVtdDV97lWhFZ1saO/ZbjwGay2uk
EADtdo+3TTZ0oHOb6eWhepIHAt23pK44mgb+/9DyW4D1W4A1eM33HYO0HE8zvfuf
Poy52CiCNayVhwJwPb8nVgylFaZImPv3cHmoWzjDTb3a42entvdTrdn2blrzja6W
3NxqBK8yGdYLIEomHoj2H0SsR1dSLUWFLZ5mZbsnWhVp0UJZsO0rPan51EjECQs6
rbnMtDfk6YIuA4QMgrr3GaeGkRs6VNRM8HfbZ2qCRm5UkkC4j2HT8+fWs9YnNwim
Iw==
-----END CERTIFICATE-----
