Certificate:
    Data:
        Version: 3 (0x2)
        Serial Number:
            9c:86:3b:00:74:0e:60:57:97:2f:c5:18:72:6e:f3:35
        Signature Algorithm: sha256WithRSAEncryption
        Issuer: CN=team423-net
        Validity
            Not Before: Sep 13 02:30:48 2021 GMT
            Not After : Aug 28 02:30:48 2024 GMT
        Subject: CN=team423-server
        Subject Public Key Info:
            Public Key Algorithm: rsaEncryption
                RSA Public-Key: (2048 bit)
                Modulus:
                    00:d0:0b:35:76:a2:e3:3d:06:45:71:09:38:0d:1a:
                    de:32:3a:ba:f6:68:82:af:04:d1:d9:f7:b0:c9:3d:
                    ea:cd:bf:71:73:31:a3:87:fd:1c:0f:70:2a:b0:ad:
                    63:9b:80:b0:27:e0:cb:55:f7:20:91:b8:62:cb:67:
                    f7:17:4c:a6:21:f3:19:2f:40:92:18:c7:24:dc:f1:
                    17:6d:8a:c6:ac:c6:12:d0:f4:7d:18:70:a7:32:b7:
                    4c:94:0e:d6:87:19:ea:02:eb:3e:80:d9:cf:11:56:
                    e2:7f:ff:e5:c1:19:12:65:d8:e5:59:5d:5e:88:b0:
                    13:36:75:e6:d1:97:ec:27:ee:1e:7c:63:48:1f:fe:
                    33:b7:41:77:2e:69:78:ae:29:1f:38:95:e8:6e:82:
                    a3:5e:07:93:bc:e9:c1:56:98:7b:6e:88:93:c1:eb:
                    12:0f:69:7f:02:0e:0d:8d:cc:57:41:00:72:a4:b2:
                    23:f6:dd:6f:e4:2b:08:23:22:4a:6a:46:4e:f3:67:
                    36:5c:86:59:0f:e4:ab:66:3d:ba:e0:a8:db:4a:74:
                    e0:8a:d0:81:1b:6e:27:25:0e:7d:e4:2e:e0:13:68:
                    c4:90:e2:83:c8:cd:2b:f5:24:6c:ca:27:40:25:50:
                    13:a9:b8:84:60:97:15:f2:51:17:1c:d1:3a:4f:d3:
                    94:f9
                Exponent: 65537 (0x10001)
        X509v3 extensions:
            X509v3 Basic Constraints: 
                CA:FALSE
            X509v3 Subject Key Identifier: 
                48:7A:33:95:1D:3E:2A:37:9C:CD:53:F7:DA:D2:4B:EB:E8:D9:32:B3
            X509v3 Authority Key Identifier: 
                keyid:71:3C:9E:F6:DC:E2:AC:14:AC:15:EC:A7:DA:A7:28:3A:2A:55:37:87
                DirName:/CN=team423-net
                serial:46:20:ED:3B:11:18:C3:A3:08:0C:8B:D4:A1:83:AD:39:77:8A:B0:46

            X509v3 Extended Key Usage: 
                TLS Web Server Authentication
            X509v3 Key Usage: 
                Digital Signature, Key Encipherment
            X509v3 Subject Alternative Name: 
                DNS:team423-server
    Signature Algorithm: sha256WithRSAEncryption
         0d:2f:f0:04:24:c2:62:4d:c0:d4:eb:6e:8a:16:17:8f:9f:e9:
         d8:9a:ac:af:f3:0d:98:92:02:86:89:be:62:45:bd:a8:c4:22:
         37:56:b0:a8:3c:9b:6b:78:a1:97:45:5d:9d:37:1d:53:61:3d:
         91:12:49:07:c3:ad:9c:b4:58:6b:47:28:de:20:3f:33:48:e5:
         85:c1:c8:03:d8:e4:09:05:48:29:d9:40:9a:f6:b2:85:69:a3:
         5e:5e:5d:16:1a:8b:86:93:b6:81:7a:29:e8:af:e6:c6:cd:84:
         9b:40:05:f4:ea:1e:cd:da:72:c8:cc:20:44:06:b1:62:22:62:
         64:e1:bd:32:3d:61:6e:c0:77:53:3f:51:fc:72:32:60:0b:04:
         f2:a6:9c:bf:41:ec:eb:69:25:59:09:81:1f:a2:17:cc:4b:07:
         ea:08:64:5a:d8:48:b6:ca:9f:3a:53:87:8c:c1:b6:6c:c2:01:
         38:7f:50:13:f3:48:0f:ef:a1:bc:93:46:36:ee:28:5e:34:aa:
         bc:65:d9:5a:2f:04:3c:fa:dd:27:ae:7f:b4:b5:47:37:7f:23:
         cc:b4:e6:f8:40:28:f3:70:b2:2f:f6:c3:e2:f7:3d:df:e2:a8:
         89:b1:93:ac:92:1d:10:de:b7:dd:51:06:55:c0:ef:29:2e:ed:
         1d:0e:01:19
-----BEGIN CERTIFICATE-----
MIIDeDCCAmCgAwIBAgIRAJyGOwB0DmBXly/FGHJu8zUwDQYJKoZIhvcNAQELBQAw
FjEUMBIGA1UEAwwLdGVhbTQyMy1uZXQwHhcNMjEwOTEzMDIzMDQ4WhcNMjQwODI4
MDIzMDQ4WjAZMRcwFQYDVQQDDA50ZWFtNDIzLXNlcnZlcjCCASIwDQYJKoZIhvcN
AQEBBQADggEPADCCAQoCggEBANALNXai4z0GRXEJOA0a3jI6uvZogq8E0dn3sMk9
6s2/cXMxo4f9HA9wKrCtY5uAsCfgy1X3IJG4Ystn9xdMpiHzGS9AkhjHJNzxF22K
xqzGEtD0fRhwpzK3TJQO1ocZ6gLrPoDZzxFW4n//5cEZEmXY5VldXoiwEzZ15tGX
7CfuHnxjSB/+M7dBdy5peK4pHziV6G6Co14Hk7zpwVaYe26Ik8HrEg9pfwIODY3M
V0EAcqSyI/bdb+QrCCMiSmpGTvNnNlyGWQ/kq2Y9uuCo20p04IrQgRtuJyUOfeQu
4BNoxJDig8jNK/UkbMonQCVQE6m4hGCXFfJRFxzROk/TlPkCAwEAAaOBvTCBujAJ
BgNVHRMEAjAAMB0GA1UdDgQWBBRIejOVHT4qN5zNU/fa0kvr6NkyszBRBgNVHSME
SjBIgBRxPJ723OKsFKwV7Kfapyg6KlU3h6EapBgwFjEUMBIGA1UEAwwLdGVhbTQy
My1uZXSCFEYg7TsRGMOjCAyL1KGDrTl3irBGMBMGA1UdJQQMMAoGCCsGAQUFBwMB
MAsGA1UdDwQEAwIFoDAZBgNVHREEEjAQgg50ZWFtNDIzLXNlcnZlcjANBgkqhkiG
9w0BAQsFAAOCAQEADS/wBCTCYk3A1OtuihYXj5/p2Jqsr/MNmJIChom+YkW9qMQi
N1awqDyba3ihl0VdnTcdU2E9kRJJB8OtnLRYa0co3iA/M0jlhcHIA9jkCQVIKdlA
mvayhWmjXl5dFhqLhpO2gXop6K/mxs2Em0AF9OoezdpyyMwgRAaxYiJiZOG9Mj1h
bsB3Uz9R/HIyYAsE8qacv0Hs62klWQmBH6IXzEsH6ghkWthItsqfOlOHjMG2bMIB
OH9QE/NID++hvJNGNu4oXjSqvGXZWi8EPPrdJ65/tLVHN38jzLTm+EAo83CyL/bD
4vc93+KoibGTrJIdEN633VEGVcDvKS7tHQ4BGQ==
-----END CERTIFICATE-----
