Certificate:
    Data:
        Version: 3 (0x2)
        Serial Number:
            1d:71:07:8e:c5:6c:e5:bb:df:06:0f:cc:91:f0:91:f8
        Signature Algorithm: sha256WithRSAEncryption
        Issuer: CN=team30-net
        Validity
            Not Before: Sep 12 23:01:14 2021 GMT
            Not After : Aug 27 23:01:14 2024 GMT
        Subject: CN=team30-client
        Subject Public Key Info:
            Public Key Algorithm: rsaEncryption
                RSA Public-Key: (2048 bit)
                Modulus:
                    00:d5:24:d4:fc:e5:d1:27:3b:f4:53:ac:78:18:e0:
                    6d:19:85:0f:92:d6:5f:a0:27:5a:38:04:7a:b9:5c:
                    60:83:1f:11:40:a0:06:67:c1:0c:8a:48:c2:3e:22:
                    b3:79:94:9b:fa:de:72:08:d7:50:19:3a:2e:05:1b:
                    b2:a9:c1:f5:c8:56:6f:86:ea:e3:58:bb:7e:a3:70:
                    6d:d6:3a:08:55:27:25:4c:7d:97:22:dc:c1:0a:e7:
                    9c:c6:e6:96:3d:0b:0d:fe:70:e1:c5:7b:e3:7b:58:
                    77:b8:33:27:c7:39:f7:38:ed:c2:dc:f8:e0:9f:51:
                    a4:8b:05:4d:bf:13:46:54:e2:aa:a7:a7:d1:40:6a:
                    ec:a4:11:e5:3d:df:4a:f1:8f:82:6d:75:25:60:93:
                    b8:e9:27:d7:14:ba:25:0e:ef:03:52:90:9a:a3:21:
                    17:f0:da:08:f2:1e:f6:ee:71:a4:a9:12:3c:15:fe:
                    1d:f9:30:45:37:47:33:e0:aa:9b:bf:98:55:d0:d3:
                    e3:95:5a:74:72:17:3a:d1:39:23:a7:f6:f7:0d:34:
                    f8:75:11:36:45:4f:8f:4d:3a:8d:de:bb:07:0e:60:
                    d9:1a:ce:28:ea:a0:0e:8f:57:05:13:64:79:05:25:
                    99:94:54:c4:7c:7e:8a:ff:47:70:49:12:f8:b2:99:
                    f3:57
                Exponent: 65537 (0x10001)
        X509v3 extensions:
            X509v3 Basic Constraints: 
                CA:FALSE
            X509v3 Subject Key Identifier: 
                6E:45:1D:2D:80:6A:D7:99:25:8B:57:C9:4E:76:E3:05:F2:B3:69:F0
            X509v3 Authority Key Identifier: 
                keyid:A2:5F:90:AD:C9:F9:FA:FD:CE:1B:FD:E5:49:5F:38:83:46:6D:AE:68
                DirName:/CN=team30-net
                serial:6E:82:21:00:92:02:BF:01:70:2A:A4:FD:07:61:B0:77:D1:D7:82:11

            X509v3 Extended Key Usage: 
                TLS Web Client Authentication
            X509v3 Key Usage: 
                Digital Signature
    Signature Algorithm: sha256WithRSAEncryption
         8a:53:86:57:7d:5b:c5:54:c6:d5:fd:bb:06:87:e9:cb:e6:13:
         ca:72:3c:17:fc:fd:df:b2:4d:f0:07:fa:42:f8:41:c0:dd:8f:
         bb:a9:6d:57:8d:47:fb:e2:ca:f4:cf:a9:a9:f2:f7:69:cc:5e:
         2e:26:a3:63:e2:73:38:ed:df:4c:d5:ba:58:4b:15:90:e7:47:
         7b:a8:ba:25:36:bc:af:8c:00:22:32:c9:de:cd:d9:f7:5c:b5:
         aa:78:61:30:74:4a:96:c4:3c:87:2f:0a:18:50:19:24:53:73:
         7b:30:bf:46:3a:af:1a:18:21:50:67:1e:f9:81:2f:ac:04:ea:
         97:ef:2f:d2:9b:b3:d5:e5:c1:14:d2:2b:ba:b3:08:63:96:17:
         a3:43:34:74:e6:17:19:a7:1a:86:43:7d:c7:d8:d0:2a:f1:49:
         d4:23:80:e8:21:4c:94:18:a2:5a:59:7f:35:79:92:a4:03:0a:
         06:ae:8b:9e:8e:fb:df:22:6c:86:01:64:ea:2f:67:4b:c3:e1:
         ec:1f:4b:bd:b0:f5:bf:5c:b8:49:19:2e:b5:fd:5f:8f:32:9e:
         39:9c:46:32:00:34:40:d9:d9:8c:31:2e:a5:c9:34:47:49:7d:
         1b:54:bf:c0:20:f5:c7:ca:a9:df:ac:43:2b:e8:33:7e:ed:32:
         95:d7:69:46
-----BEGIN CERTIFICATE-----
MIIDWTCCAkGgAwIBAgIQHXEHjsVs5bvfBg/MkfCR+DANBgkqhkiG9w0BAQsFADAV
MRMwEQYDVQQDDAp0ZWFtMzAtbmV0MB4XDTIxMDkxMjIzMDExNFoXDTI0MDgyNzIz
MDExNFowGDEWMBQGA1UEAwwNdGVhbTMwLWNsaWVudDCCASIwDQYJKoZIhvcNAQEB
BQADggEPADCCAQoCggEBANUk1Pzl0Sc79FOseBjgbRmFD5LWX6AnWjgEerlcYIMf
EUCgBmfBDIpIwj4is3mUm/recgjXUBk6LgUbsqnB9chWb4bq41i7fqNwbdY6CFUn
JUx9lyLcwQrnnMbmlj0LDf5w4cV743tYd7gzJ8c59zjtwtz44J9RpIsFTb8TRlTi
qqen0UBq7KQR5T3fSvGPgm11JWCTuOkn1xS6JQ7vA1KQmqMhF/DaCPIe9u5xpKkS
PBX+HfkwRTdHM+Cqm7+YVdDT45VadHIXOtE5I6f29w00+HURNkVPj006jd67Bw5g
2RrOKOqgDo9XBRNkeQUlmZRUxHx+iv9HcEkS+LKZ81cCAwEAAaOBoTCBnjAJBgNV
HRMEAjAAMB0GA1UdDgQWBBRuRR0tgGrXmSWLV8lOduMF8rNp8DBQBgNVHSMESTBH
gBSiX5Ctyfn6/c4b/eVJXziDRm2uaKEZpBcwFTETMBEGA1UEAwwKdGVhbTMwLW5l
dIIUboIhAJICvwFwKqT9B2Gwd9HXghEwEwYDVR0lBAwwCgYIKwYBBQUHAwIwCwYD
VR0PBAQDAgeAMA0GCSqGSIb3DQEBCwUAA4IBAQCKU4ZXfVvFVMbV/bsGh+nL5hPK
cjwX/P3fsk3wB/pC+EHA3Y+7qW1XjUf74sr0z6mp8vdpzF4uJqNj4nM47d9M1bpY
SxWQ50d7qLolNryvjAAiMsnezdn3XLWqeGEwdEqWxDyHLwoYUBkkU3N7ML9GOq8a
GCFQZx75gS+sBOqX7y/Sm7PV5cEU0iu6swhjlhejQzR05hcZpxqGQ33H2NAq8UnU
I4DoIUyUGKJaWX81eZKkAwoGrouejvvfImyGAWTqL2dLw+HsH0u9sPW/XLhJGS61
/V+PMp45nEYyADRA2dmMMS6lyTRHSX0bVL/AIPXHyqnfrEMr6DN+7TKV12lG
-----END CERTIFICATE-----
