Certificate:
    Data:
        Version: 3 (0x2)
        Serial Number:
            60:5f:ca:be:8e:d2:cb:22:7d:35:19:e0:5f:63:92:bf
        Signature Algorithm: sha256WithRSAEncryption
        Issuer: CN=team388-net
        Validity
            Not Before: Sep 13 02:17:10 2021 GMT
            Not After : Aug 28 02:17:10 2024 GMT
        Subject: CN=team388-server
        Subject Public Key Info:
            Public Key Algorithm: rsaEncryption
                RSA Public-Key: (2048 bit)
                Modulus:
                    00:b7:9c:76:c5:ef:16:51:90:8b:fe:23:b9:57:b4:
                    c6:43:6c:c9:10:a4:f5:12:2e:92:5f:9f:39:54:85:
                    f0:23:37:7a:aa:44:06:9e:5e:38:19:e9:ff:9f:1f:
                    c0:86:d2:d7:d2:79:ad:85:78:04:29:db:e2:89:3d:
                    b0:0b:a6:f4:fe:3f:6c:a6:40:14:dd:d7:97:56:7c:
                    e3:d1:51:02:b9:82:3e:1f:34:f7:cc:d0:ef:9a:30:
                    ad:99:95:e6:b7:9b:45:01:f7:cd:b1:ab:ea:f7:ae:
                    9a:61:55:fb:b3:00:03:b6:66:e5:7a:dd:22:10:5a:
                    c3:d8:cc:d7:e9:2b:2b:70:99:46:b9:2b:99:75:b3:
                    c3:f9:17:0b:4d:61:7e:91:77:53:36:ba:c5:d7:bc:
                    a0:49:ad:d7:f0:ce:99:b8:9c:df:3b:50:8e:38:3e:
                    59:96:44:92:44:8a:ce:28:f2:ba:f4:72:77:ba:b1:
                    74:49:78:04:08:1a:82:73:66:d6:42:e4:df:5f:2d:
                    1e:21:c5:03:ee:da:5c:d6:1b:1c:af:e4:08:e0:65:
                    64:c9:7f:aa:54:b1:3a:2e:25:c9:d0:c9:11:e5:1d:
                    c3:6b:4a:94:08:52:b6:b2:14:e9:06:85:9c:98:68:
                    8a:ee:eb:60:a2:0a:22:ad:e7:82:cf:fa:70:a3:57:
                    03:33
                Exponent: 65537 (0x10001)
        X509v3 extensions:
            X509v3 Basic Constraints: 
                CA:FALSE
            X509v3 Subject Key Identifier: 
                B5:04:8B:8D:5C:A5:DC:E4:FE:B8:93:45:47:D1:27:2A:82:FD:84:96
            X509v3 Authority Key Identifier: 
                keyid:5A:36:C4:E7:F4:9F:2E:EB:08:80:CD:B1:33:63:B0:26:94:AD:3A:53
                DirName:/CN=team388-net
                serial:40:A1:CD:46:38:D6:19:42:F4:FB:3E:27:8C:42:E4:FA:6C:68:09:5E

            X509v3 Extended Key Usage: 
                TLS Web Server Authentication
            X509v3 Key Usage: 
                Digital Signature, Key Encipherment
            X509v3 Subject Alternative Name: 
                DNS:team388-server
    Signature Algorithm: sha256WithRSAEncryption
         83:5c:60:99:80:7e:0a:d4:13:76:43:85:59:aa:89:72:18:93:
         e0:02:98:64:fd:e8:0a:cc:c5:39:4a:67:fc:91:5e:6f:c7:1e:
         04:e0:89:ed:a4:88:fa:29:49:c8:3e:3f:7a:c5:bd:1e:57:47:
         a4:1a:0a:b9:54:dd:7a:a7:11:eb:b4:e4:46:6e:d4:c1:d1:69:
         e7:78:75:bd:13:8c:85:a5:4f:9c:19:44:89:f6:33:fd:c8:ac:
         74:62:cf:4b:fd:a0:fd:ce:ad:94:65:44:37:cb:2c:31:b6:96:
         1f:9e:0a:1d:09:31:6e:cb:4a:c0:68:95:1d:69:77:a8:7c:93:
         f8:a1:a8:30:53:93:ab:cd:91:c0:33:57:6a:83:61:29:9e:58:
         42:d9:c0:bc:bd:df:d2:0f:21:f8:0f:84:c0:9a:3b:ca:c4:fd:
         88:6a:1d:13:b3:dc:d0:98:54:27:5e:23:dc:d8:6c:f4:b8:61:
         01:62:e3:b0:39:6e:57:31:93:d8:a2:d6:7f:03:89:42:ab:1e:
         35:ff:1e:83:d1:f6:cb:61:ec:4b:d4:c8:27:c1:58:62:fa:a4:
         81:c6:e5:08:81:5b:d9:5e:e0:3d:e7:34:62:7a:ec:c6:1d:54:
         82:bc:21:75:e2:17:3f:5f:21:2c:14:f7:03:3d:5f:c5:31:aa:
         f6:4a:81:77
-----BEGIN CERTIFICATE-----
MIIDdzCCAl+gAwIBAgIQYF/Kvo7SyyJ9NRngX2OSvzANBgkqhkiG9w0BAQsFADAW
MRQwEgYDVQQDDAt0ZWFtMzg4LW5ldDAeFw0yMTA5MTMwMjE3MTBaFw0yNDA4Mjgw
MjE3MTBaMBkxFzAVBgNVBAMMDnRlYW0zODgtc2VydmVyMIIBIjANBgkqhkiG9w0B
AQEFAAOCAQ8AMIIBCgKCAQEAt5x2xe8WUZCL/iO5V7TGQ2zJEKT1Ei6SX585VIXw
Izd6qkQGnl44Gen/nx/AhtLX0nmthXgEKdviiT2wC6b0/j9spkAU3deXVnzj0VEC
uYI+HzT3zNDvmjCtmZXmt5tFAffNsavq966aYVX7swADtmblet0iEFrD2MzX6Ssr
cJlGuSuZdbPD+RcLTWF+kXdTNrrF17ygSa3X8M6ZuJzfO1COOD5ZlkSSRIrOKPK6
9HJ3urF0SXgECBqCc2bWQuTfXy0eIcUD7tpc1hscr+QI4GVkyX+qVLE6LiXJ0MkR
5R3Da0qUCFK2shTpBoWcmGiK7utgogoireeCz/pwo1cDMwIDAQABo4G9MIG6MAkG
A1UdEwQCMAAwHQYDVR0OBBYEFLUEi41cpdzk/riTRUfRJyqC/YSWMFEGA1UdIwRK
MEiAFFo2xOf0ny7rCIDNsTNjsCaUrTpToRqkGDAWMRQwEgYDVQQDDAt0ZWFtMzg4
LW5ldIIUQKHNRjjWGUL0+z4njELk+mxoCV4wEwYDVR0lBAwwCgYIKwYBBQUHAwEw
CwYDVR0PBAQDAgWgMBkGA1UdEQQSMBCCDnRlYW0zODgtc2VydmVyMA0GCSqGSIb3
DQEBCwUAA4IBAQCDXGCZgH4K1BN2Q4VZqolyGJPgAphk/egKzMU5Smf8kV5vxx4E
4IntpIj6KUnIPj96xb0eV0ekGgq5VN16pxHrtORGbtTB0WnneHW9E4yFpU+cGUSJ
9jP9yKx0Ys9L/aD9zq2UZUQ3yywxtpYfngodCTFuy0rAaJUdaXeofJP4oagwU5Or
zZHAM1dqg2EpnlhC2cC8vd/SDyH4D4TAmjvKxP2Iah0Ts9zQmFQnXiPc2Gz0uGEB
YuOwOW5XMZPYotZ/A4lCqx41/x6D0fbLYexL1MgnwVhi+qSBxuUIgVvZXuA95zRi
euzGHVSCvCF14hc/XyEsFPcDPV/FMar2SoF3
-----END CERTIFICATE-----
