Certificate:
    Data:
        Version: 3 (0x2)
        Serial Number:
            34:ce:fc:5e:eb:c0:98:8c:94:e4:ce:ec:12:2f:a8:08
        Signature Algorithm: sha256WithRSAEncryption
        Issuer: CN=team87-net
        Validity
            Not Before: Sep 12 23:28:52 2021 GMT
            Not After : Aug 27 23:28:52 2024 GMT
        Subject: CN=team87-client
        Subject Public Key Info:
            Public Key Algorithm: rsaEncryption
                RSA Public-Key: (2048 bit)
                Modulus:
                    00:c3:6d:45:ce:dc:df:11:b3:79:55:76:2f:3d:bb:
                    3f:cf:d4:20:45:c1:4e:8b:4f:03:5f:f7:06:67:49:
                    de:a5:4a:47:a9:17:44:4e:f3:7c:c6:02:18:6c:c8:
                    fc:49:af:9d:34:e5:88:0a:4c:cc:d1:21:52:a1:4d:
                    ad:09:0f:09:e1:a7:8b:44:33:12:6a:8f:c2:b8:bd:
                    d9:89:e3:a7:35:58:27:5b:30:5a:89:f1:83:d6:9d:
                    d6:23:33:61:be:e4:4a:85:5c:50:6c:5e:6f:5f:da:
                    10:f1:57:a6:46:5e:31:6e:3b:45:c9:ce:9d:0f:5c:
                    5c:74:60:27:92:a2:5f:ea:47:41:f6:02:d1:94:b0:
                    72:55:be:b9:9a:52:5d:b1:10:90:45:5e:a1:b7:b0:
                    bc:c0:11:2a:ed:66:1d:be:45:99:be:80:54:ec:47:
                    ab:da:00:ec:eb:c2:f6:85:a5:49:14:3e:57:db:76:
                    bc:ed:b1:bb:f0:70:09:49:70:2e:8f:ee:7d:47:d3:
                    b9:67:aa:47:11:06:dc:9d:c2:9f:eb:97:00:4d:28:
                    c4:28:3e:3c:56:02:63:07:1a:87:b6:c7:ee:5f:4f:
                    14:45:9d:02:06:60:d9:c2:e6:29:3c:75:83:ae:38:
                    b8:d0:e8:39:24:86:40:79:81:b7:39:ef:32:a0:00:
                    17:c3
                Exponent: 65537 (0x10001)
        X509v3 extensions:
            X509v3 Basic Constraints: 
                CA:FALSE
            X509v3 Subject Key Identifier: 
                4C:53:AB:89:30:D3:97:88:C8:E2:66:95:B4:F1:4B:EF:7B:74:6B:85
            X509v3 Authority Key Identifier: 
                keyid:C4:0A:51:59:33:15:02:E5:28:AE:95:E0:3A:F4:23:BC:0A:E4:87:9D
                DirName:/CN=team87-net
                serial:17:5A:B4:55:22:A0:F6:4F:2F:18:29:20:16:70:93:2B:88:74:19:9F

            X509v3 Extended Key Usage: 
                TLS Web Client Authentication
            X509v3 Key Usage: 
                Digital Signature
    Signature Algorithm: sha256WithRSAEncryption
         17:83:c7:7f:94:2b:0e:b0:76:46:1d:a7:47:c2:88:5f:ee:ef:
         e0:90:89:2d:fb:d6:49:68:1c:1a:dd:c4:63:3b:c9:a3:49:e8:
         af:eb:e3:79:14:9c:b6:79:ae:67:be:b7:da:d4:27:2d:10:80:
         c8:60:70:4f:3e:49:4c:59:d4:96:74:7a:4e:bb:58:86:0e:fc:
         d6:85:91:cf:f5:90:cd:6a:a0:b7:a9:d0:f6:0c:4b:06:98:23:
         b6:c4:94:1d:de:aa:79:04:65:2d:87:27:68:65:49:80:2f:57:
         32:1d:38:dc:ae:a2:2e:83:53:23:11:df:63:7f:eb:b5:53:9c:
         72:05:f5:f8:68:97:e1:d7:61:29:52:28:2a:26:fd:fa:4c:eb:
         31:2f:2a:c2:a2:a7:8d:c8:ee:25:ec:7a:18:77:c1:e2:23:2e:
         6d:c6:df:d5:5b:8c:1f:70:73:0e:45:b2:47:67:16:32:00:48:
         bf:91:3e:6e:3c:fe:03:8b:3d:53:a1:a4:dd:4d:2d:34:d7:f1:
         fc:39:9c:80:52:27:70:f6:7e:d4:59:48:09:1e:d5:ea:61:1c:
         39:83:30:3f:56:7c:27:6d:79:c8:f2:c6:5a:cb:f9:1a:0e:b7:
         f9:b7:48:b2:bf:40:c3:ed:10:4f:c1:ef:78:11:5a:cc:b1:53:
         1a:b2:e6:bc
-----BEGIN CERTIFICATE-----
MIIDWTCCAkGgAwIBAgIQNM78XuvAmIyU5M7sEi+oCDANBgkqhkiG9w0BAQsFADAV
MRMwEQYDVQQDDAp0ZWFtODctbmV0MB4XDTIxMDkxMjIzMjg1MloXDTI0MDgyNzIz
Mjg1MlowGDEWMBQGA1UEAwwNdGVhbTg3LWNsaWVudDCCASIwDQYJKoZIhvcNAQEB
BQADggEPADCCAQoCggEBAMNtRc7c3xGzeVV2Lz27P8/UIEXBTotPA1/3BmdJ3qVK
R6kXRE7zfMYCGGzI/EmvnTTliApMzNEhUqFNrQkPCeGni0QzEmqPwri92YnjpzVY
J1swWonxg9ad1iMzYb7kSoVcUGxeb1/aEPFXpkZeMW47RcnOnQ9cXHRgJ5KiX+pH
QfYC0ZSwclW+uZpSXbEQkEVeobewvMARKu1mHb5Fmb6AVOxHq9oA7OvC9oWlSRQ+
V9t2vO2xu/BwCUlwLo/ufUfTuWeqRxEG3J3Cn+uXAE0oxCg+PFYCYwcah7bH7l9P
FEWdAgZg2cLmKTx1g644uNDoOSSGQHmBtznvMqAAF8MCAwEAAaOBoTCBnjAJBgNV
HRMEAjAAMB0GA1UdDgQWBBRMU6uJMNOXiMjiZpW08Uvve3RrhTBQBgNVHSMESTBH
gBTEClFZMxUC5SiuleA69CO8CuSHnaEZpBcwFTETMBEGA1UEAwwKdGVhbTg3LW5l
dIIUF1q0VSKg9k8vGCkgFnCTK4h0GZ8wEwYDVR0lBAwwCgYIKwYBBQUHAwIwCwYD
VR0PBAQDAgeAMA0GCSqGSIb3DQEBCwUAA4IBAQAXg8d/lCsOsHZGHadHwohf7u/g
kIkt+9ZJaBwa3cRjO8mjSeiv6+N5FJy2ea5nvrfa1CctEIDIYHBPPklMWdSWdHpO
u1iGDvzWhZHP9ZDNaqC3qdD2DEsGmCO2xJQd3qp5BGUthydoZUmAL1cyHTjcrqIu
g1MjEd9jf+u1U5xyBfX4aJfh12EpUigqJv36TOsxLyrCoqeNyO4l7HoYd8HiIy5t
xt/VW4wfcHMORbJHZxYyAEi/kT5uPP4Diz1ToaTdTS001/H8OZyAUidw9n7UWUgJ
HtXqYRw5gzA/VnwnbXnI8sZay/kaDrf5t0iyv0DD7RBPwe94EVrMsVMasua8
-----END CERTIFICATE-----
