Certificate:
    Data:
        Version: 3 (0x2)
        Serial Number:
            48:d3:87:d5:3c:97:a4:ea:bc:97:ea:19:61:b8:2e:55
        Signature Algorithm: sha256WithRSAEncryption
        Issuer: CN=team674-net
        Validity
            Not Before: Sep 13 04:34:08 2021 GMT
            Not After : Aug 28 04:34:08 2024 GMT
        Subject: CN=team674-client
        Subject Public Key Info:
            Public Key Algorithm: rsaEncryption
                RSA Public-Key: (2048 bit)
                Modulus:
                    00:ac:3e:a7:88:89:04:8d:03:75:90:0d:b3:ab:4e:
                    b4:14:6c:0e:c0:15:67:84:1e:76:75:7b:7e:60:57:
                    75:4d:70:16:9b:17:30:3f:8a:b5:88:8f:b3:cf:08:
                    6d:a8:6d:26:9d:27:7b:07:22:93:04:e0:ee:af:6d:
                    e3:07:cd:1d:bb:cf:b2:a2:d8:46:2c:c1:d4:d2:93:
                    11:35:31:4d:11:fd:29:3b:bc:0c:20:a8:52:1f:3e:
                    07:75:26:73:f9:37:67:ab:c0:f3:18:9e:f6:ba:97:
                    3b:34:69:a4:71:8c:ab:c8:65:ce:4a:de:86:3e:0e:
                    94:50:ca:e1:da:34:d5:f3:4c:c8:3c:a3:d8:ba:aa:
                    43:21:e9:cf:63:4d:8b:15:bb:85:c4:56:4d:2e:7c:
                    30:29:46:68:bc:dc:43:56:c6:de:73:5d:33:ed:5e:
                    a2:36:e4:58:96:eb:fa:09:00:fb:c4:e3:e0:65:00:
                    ea:61:10:b6:9a:0e:1d:d1:4e:60:6e:18:71:56:98:
                    f5:0f:58:0c:94:72:83:cf:97:7c:e1:b9:99:97:04:
                    62:b3:46:b2:de:be:31:0c:3d:7e:a1:98:34:a6:98:
                    b8:b7:b4:ab:24:66:61:ed:bc:fe:df:f2:a4:e1:f3:
                    e1:74:65:31:c4:cd:8a:11:84:e0:ac:bc:0b:25:5e:
                    02:39
                Exponent: 65537 (0x10001)
        X509v3 extensions:
            X509v3 Basic Constraints: 
                CA:FALSE
            X509v3 Subject Key Identifier: 
                CF:92:90:29:B9:4C:49:2A:C3:6A:A2:DB:51:BF:95:A3:4C:DA:20:FF
            X509v3 Authority Key Identifier: 
                keyid:C4:84:9D:8E:DB:40:67:07:ED:7A:69:4A:BF:2F:BE:EE:EE:B1:E3:DB
                DirName:/CN=team674-net
                serial:7A:39:EA:4A:2C:2F:13:94:21:84:87:D5:26:7F:49:C3:BD:96:26:76

            X509v3 Extended Key Usage: 
                TLS Web Client Authentication
            X509v3 Key Usage: 
                Digital Signature
    Signature Algorithm: sha256WithRSAEncryption
         35:73:a7:70:e1:a2:5f:ad:64:fd:5c:dc:0c:37:36:7e:0a:e3:
         ac:10:60:9e:7c:f6:80:05:40:46:23:94:af:03:92:f2:16:c6:
         ab:29:b4:a2:d8:6c:e4:10:b5:2e:3c:66:23:71:73:03:45:50:
         8b:b9:9c:93:bd:8f:93:13:e5:de:22:77:ab:00:0d:9c:5e:d3:
         85:21:6d:40:2e:3e:e3:ec:f4:6f:ec:22:fa:c9:c6:57:b7:56:
         a3:11:be:cd:af:07:68:5c:7e:9d:30:95:a1:b5:8e:a2:20:03:
         e4:b2:45:8f:af:40:24:43:c2:a7:11:22:ab:49:7b:d5:66:c7:
         df:74:56:96:08:5d:e5:78:ef:3a:72:a9:61:47:cc:b0:bf:88:
         91:ae:cf:1b:50:9d:ab:22:a9:f2:51:4f:aa:17:5f:70:99:a1:
         f5:46:de:a8:bf:a9:01:56:a8:b1:93:94:ce:94:0c:3d:97:c9:
         4e:22:07:fe:62:3c:c9:b4:f2:4e:cd:15:2a:d6:ca:78:13:3d:
         03:c5:80:ce:de:30:0c:64:f8:ac:7a:2a:43:2f:48:a2:7b:c0:
         6c:5b:d4:f7:1f:97:7b:40:b7:9b:ab:87:55:03:14:93:80:fc:
         75:d5:8a:9e:e8:fe:a8:20:29:f4:8f:ac:26:de:65:31:66:5f:
         a5:c7:60:2d
-----BEGIN CERTIFICATE-----
MIIDXDCCAkSgAwIBAgIQSNOH1TyXpOq8l+oZYbguVTANBgkqhkiG9w0BAQsFADAW
MRQwEgYDVQQDDAt0ZWFtNjc0LW5ldDAeFw0yMTA5MTMwNDM0MDhaFw0yNDA4Mjgw
NDM0MDhaMBkxFzAVBgNVBAMMDnRlYW02NzQtY2xpZW50MIIBIjANBgkqhkiG9w0B
AQEFAAOCAQ8AMIIBCgKCAQEArD6niIkEjQN1kA2zq060FGwOwBVnhB52dXt+YFd1
TXAWmxcwP4q1iI+zzwhtqG0mnSd7ByKTBODur23jB80du8+yothGLMHU0pMRNTFN
Ef0pO7wMIKhSHz4HdSZz+Tdnq8DzGJ72upc7NGmkcYyryGXOSt6GPg6UUMrh2jTV
80zIPKPYuqpDIenPY02LFbuFxFZNLnwwKUZovNxDVsbec10z7V6iNuRYluv6CQD7
xOPgZQDqYRC2mg4d0U5gbhhxVpj1D1gMlHKDz5d84bmZlwRis0ay3r4xDD1+oZg0
ppi4t7SrJGZh7bz+3/Kk4fPhdGUxxM2KEYTgrLwLJV4COQIDAQABo4GiMIGfMAkG
A1UdEwQCMAAwHQYDVR0OBBYEFM+SkCm5TEkqw2qi21G/laNM2iD/MFEGA1UdIwRK
MEiAFMSEnY7bQGcH7XppSr8vvu7usePboRqkGDAWMRQwEgYDVQQDDAt0ZWFtNjc0
LW5ldIIUejnqSiwvE5QhhIfVJn9Jw72WJnYwEwYDVR0lBAwwCgYIKwYBBQUHAwIw
CwYDVR0PBAQDAgeAMA0GCSqGSIb3DQEBCwUAA4IBAQA1c6dw4aJfrWT9XNwMNzZ+
CuOsEGCefPaABUBGI5SvA5LyFsarKbSi2GzkELUuPGYjcXMDRVCLuZyTvY+TE+Xe
InerAA2cXtOFIW1ALj7j7PRv7CL6ycZXt1ajEb7NrwdoXH6dMJWhtY6iIAPkskWP
r0AkQ8KnESKrSXvVZsffdFaWCF3leO86cqlhR8ywv4iRrs8bUJ2rIqnyUU+qF19w
maH1Rt6ov6kBVqixk5TOlAw9l8lOIgf+YjzJtPJOzRUq1sp4Ez0DxYDO3jAMZPis
eipDL0iie8BsW9T3H5d7QLebq4dVAxSTgPx11Yqe6P6oICn0j6wm3mUxZl+lx2At
-----END CERTIFICATE-----
