Certificate:
    Data:
        Version: 3 (0x2)
        Serial Number:
            1f:1d:8a:3f:d5:19:8f:7e:88:85:7a:d7:19:25:94:58
        Signature Algorithm: sha256WithRSAEncryption
        Issuer: CN=team66-net
        Validity
            Not Before: Sep 12 23:17:07 2021 GMT
            Not After : Aug 27 23:17:07 2024 GMT
        Subject: CN=team66-client
        Subject Public Key Info:
            Public Key Algorithm: rsaEncryption
                RSA Public-Key: (2048 bit)
                Modulus:
                    00:bc:6a:59:5b:73:83:2d:b8:bc:6a:74:d9:ff:17:
                    77:19:7c:6a:ff:17:20:d4:70:8b:7f:dc:08:37:bd:
                    d9:df:95:75:f4:75:0c:b0:0e:99:d8:68:d6:14:58:
                    48:57:19:5c:7e:e4:df:19:79:30:75:23:17:ec:85:
                    88:1b:50:e7:45:ed:23:64:b2:d1:9e:41:cf:3e:98:
                    fa:11:20:15:87:ce:de:4d:cf:0c:e3:1c:4c:0d:eb:
                    38:91:3e:b4:8d:94:45:66:d8:07:d4:a8:53:37:85:
                    57:86:ad:08:e6:c5:b4:e2:f7:48:b0:e5:6a:12:f0:
                    cc:ba:f4:94:d0:ec:b5:78:d9:c1:55:54:cc:26:9e:
                    71:1a:df:1e:3d:4d:88:d7:99:6c:7d:83:09:7c:f5:
                    78:e5:db:f1:74:f0:7f:79:9c:4d:dd:a7:85:4b:0a:
                    9a:00:3b:12:15:a8:8d:71:2b:2b:af:0f:54:39:91:
                    96:aa:25:04:ba:cf:00:fd:1f:1a:09:a8:33:36:2f:
                    8a:16:84:55:0f:d7:a4:29:f5:69:e7:3d:d9:2e:0f:
                    37:ec:2d:1b:0d:7d:85:8b:13:dc:77:d2:3b:e7:76:
                    43:82:5c:c5:93:b0:01:69:56:78:fd:c4:71:36:c1:
                    bf:c9:66:31:dd:c7:82:14:fe:b2:a3:91:01:1e:3a:
                    f1:af
                Exponent: 65537 (0x10001)
        X509v3 extensions:
            X509v3 Basic Constraints: 
                CA:FALSE
            X509v3 Subject Key Identifier: 
                5E:D1:DF:95:FC:45:1D:C5:B3:E2:77:4B:98:19:DD:63:8E:41:F4:70
            X509v3 Authority Key Identifier: 
                keyid:51:83:C8:77:8C:25:72:2B:9E:91:71:D3:D4:54:D2:EB:DA:28:E0:3A
                DirName:/CN=team66-net
                serial:69:8C:3C:FD:73:D3:9E:85:53:E2:E8:66:6B:82:29:66:EE:98:51:40

            X509v3 Extended Key Usage: 
                TLS Web Client Authentication
            X509v3 Key Usage: 
                Digital Signature
    Signature Algorithm: sha256WithRSAEncryption
         50:a6:21:5d:e1:94:d3:81:30:0d:c3:87:6d:70:dd:2d:77:b4:
         23:3a:dd:12:1f:5d:26:6f:52:c1:8a:93:dd:29:a1:c5:05:8c:
         a9:5c:40:b7:38:bf:9a:79:34:3c:28:c7:eb:6f:30:ae:1f:7c:
         d2:14:3b:42:57:41:54:91:e6:f4:40:cf:87:1a:0d:c5:b8:32:
         17:82:32:6b:00:3a:bc:a8:9f:ed:e9:9f:43:cf:f7:1d:7d:64:
         2f:c5:10:25:95:18:85:85:7e:8a:c4:c8:9c:a1:20:32:6d:ef:
         2d:53:b8:4c:f1:6d:aa:da:25:d6:e8:5b:b4:41:c7:1f:e1:d1:
         98:a5:1d:bc:3e:ec:6c:44:b6:e7:76:08:48:87:4f:75:e5:0f:
         be:1c:bc:33:e5:60:c3:03:1b:b9:44:7f:22:ff:97:cd:8f:1b:
         89:18:ae:3a:ad:4d:5f:3e:f4:c8:96:06:21:0a:74:a2:b6:e3:
         0c:7d:bd:1e:42:e1:78:de:86:49:55:da:e7:5a:ad:90:52:93:
         a0:40:8a:3c:4f:0c:e1:a1:21:39:7f:e1:55:96:58:9d:43:aa:
         a5:50:fa:6d:3d:20:0d:06:69:cd:34:e4:31:4f:90:5a:25:57:
         73:2c:e7:6f:3d:0f:9b:b2:27:ed:a3:8b:ac:13:d8:58:02:c2:
         b5:0e:7d:7d
-----BEGIN CERTIFICATE-----
MIIDWTCCAkGgAwIBAgIQHx2KP9UZj36IhXrXGSWUWDANBgkqhkiG9w0BAQsFADAV
MRMwEQYDVQQDDAp0ZWFtNjYtbmV0MB4XDTIxMDkxMjIzMTcwN1oXDTI0MDgyNzIz
MTcwN1owGDEWMBQGA1UEAwwNdGVhbTY2LWNsaWVudDCCASIwDQYJKoZIhvcNAQEB
BQADggEPADCCAQoCggEBALxqWVtzgy24vGp02f8Xdxl8av8XINRwi3/cCDe92d+V
dfR1DLAOmdho1hRYSFcZXH7k3xl5MHUjF+yFiBtQ50XtI2Sy0Z5Bzz6Y+hEgFYfO
3k3PDOMcTA3rOJE+tI2URWbYB9SoUzeFV4atCObFtOL3SLDlahLwzLr0lNDstXjZ
wVVUzCaecRrfHj1NiNeZbH2DCXz1eOXb8XTwf3mcTd2nhUsKmgA7EhWojXErK68P
VDmRlqolBLrPAP0fGgmoMzYvihaEVQ/XpCn1aec92S4PN+wtGw19hYsT3HfSO+d2
Q4JcxZOwAWlWeP3EcTbBv8lmMd3HghT+sqORAR468a8CAwEAAaOBoTCBnjAJBgNV
HRMEAjAAMB0GA1UdDgQWBBRe0d+V/EUdxbPid0uYGd1jjkH0cDBQBgNVHSMESTBH
gBRRg8h3jCVyK56RcdPUVNLr2ijgOqEZpBcwFTETMBEGA1UEAwwKdGVhbTY2LW5l
dIIUaYw8/XPTnoVT4uhma4IpZu6YUUAwEwYDVR0lBAwwCgYIKwYBBQUHAwIwCwYD
VR0PBAQDAgeAMA0GCSqGSIb3DQEBCwUAA4IBAQBQpiFd4ZTTgTANw4dtcN0td7Qj
Ot0SH10mb1LBipPdKaHFBYypXEC3OL+aeTQ8KMfrbzCuH3zSFDtCV0FUkeb0QM+H
Gg3FuDIXgjJrADq8qJ/t6Z9Dz/cdfWQvxRAllRiFhX6KxMicoSAybe8tU7hM8W2q
2iXW6Fu0Qccf4dGYpR28PuxsRLbndghIh0915Q++HLwz5WDDAxu5RH8i/5fNjxuJ
GK46rU1fPvTIlgYhCnSituMMfb0eQuF43oZJVdrnWq2QUpOgQIo8TwzhoSE5f+FV
llidQ6qlUPptPSANBmnNNOQxT5BaJVdzLOdvPQ+bsifto4usE9hYAsK1Dn19
-----END CERTIFICATE-----
