Certificate:
    Data:
        Version: 3 (0x2)
        Serial Number:
            40:e4:db:cd:cf:e6:be:e3:ff:f8:a0:aa:33:6b:0a:aa
        Signature Algorithm: sha256WithRSAEncryption
        Issuer: CN=team670-net
        Validity
            Not Before: Sep 13 04:59:47 2021 GMT
            Not After : Aug 28 04:59:47 2024 GMT
        Subject: CN=team670-server
        Subject Public Key Info:
            Public Key Algorithm: rsaEncryption
                RSA Public-Key: (2048 bit)
                Modulus:
                    00:b6:14:c6:81:dd:63:49:ea:26:d8:92:bc:95:30:
                    ed:c4:de:e3:68:e4:55:96:94:10:ab:6f:a9:61:ff:
                    a3:98:67:2e:3b:bd:d9:7e:de:5f:05:3d:b4:4f:29:
                    1e:a9:16:49:3b:cb:8d:87:61:4a:8b:10:df:7e:27:
                    7a:28:9d:35:c6:b1:07:5b:95:69:77:54:dd:fa:26:
                    a7:1a:95:9d:9c:ae:f8:b8:6a:62:54:9a:92:fc:70:
                    da:20:b7:6c:5e:40:19:91:24:d1:0b:a1:35:71:7e:
                    63:7e:b6:2f:10:2f:51:9b:b0:22:f3:36:62:50:6b:
                    8e:dd:ce:a4:a3:3b:66:6f:c0:d3:3d:c4:f1:64:70:
                    4f:3e:a7:3c:7d:39:71:24:92:dc:25:72:05:62:b8:
                    f8:68:fa:08:f1:03:23:57:11:03:da:e4:ca:63:38:
                    e3:6e:68:e3:cc:74:3b:ae:14:c9:70:38:70:bc:51:
                    43:f5:88:0a:8c:ff:04:fc:c1:6e:c3:f5:a3:65:3f:
                    36:f2:ce:54:80:bd:0d:6f:b3:cf:82:e1:43:4f:11:
                    d0:d1:0e:68:1f:ce:6e:1b:cc:80:b8:26:af:a7:5c:
                    5f:c1:79:46:d9:bb:4a:a0:f5:56:28:c2:57:31:10:
                    64:79:3a:61:66:53:98:d9:7a:14:c4:19:77:61:bb:
                    1b:79
                Exponent: 65537 (0x10001)
        X509v3 extensions:
            X509v3 Basic Constraints: 
                CA:FALSE
            X509v3 Subject Key Identifier: 
                FB:97:BF:9F:EF:BA:D9:D9:D9:45:3E:C3:2F:19:68:47:94:3D:92:3F
            X509v3 Authority Key Identifier: 
                keyid:FD:3F:F3:D4:1D:40:CF:FB:55:F2:A7:C9:62:5A:D1:A1:77:FA:6D:3D
                DirName:/CN=team670-net
                serial:76:32:4D:CE:30:02:24:7B:CB:D9:05:F7:45:0D:44:27:B9:41:CB:CD

            X509v3 Extended Key Usage: 
                TLS Web Server Authentication
            X509v3 Key Usage: 
                Digital Signature, Key Encipherment
            X509v3 Subject Alternative Name: 
                DNS:team670-server
    Signature Algorithm: sha256WithRSAEncryption
         55:9f:e0:45:e6:ae:1c:e4:a4:1a:ba:fa:3c:06:90:f0:90:8e:
         03:4c:e1:af:f2:4a:80:34:b4:02:08:50:a9:14:27:df:e9:14:
         c8:2c:d8:41:d4:9e:f6:3f:3c:c5:6a:f2:ce:36:3a:ab:38:83:
         29:16:24:2e:a3:0d:3b:37:64:a2:94:57:8b:fc:84:45:1e:6c:
         5a:4b:5f:8f:0e:6a:99:00:bc:e7:ea:03:53:32:ed:be:cd:a7:
         21:b9:56:3b:03:31:bf:3d:50:b8:21:bb:fe:44:ba:32:b5:21:
         62:2d:27:5e:40:13:22:f5:b0:b1:17:1f:37:37:74:90:dd:1c:
         a5:47:81:09:3b:3f:b0:d6:18:9b:44:75:83:7f:86:41:00:b5:
         a9:7d:88:89:cc:cf:8a:1a:ce:3e:bb:ae:b0:e8:9d:cb:bd:5a:
         4b:0e:0c:8a:26:86:ee:8f:7e:9b:13:8d:3e:ef:2d:2a:3b:e9:
         e3:25:11:cc:2b:29:be:e8:c6:54:45:0e:f4:95:41:10:df:3f:
         5a:04:1f:60:8d:f3:85:fe:6a:fc:6f:36:dc:f0:e0:b8:33:c8:
         cd:b4:26:20:38:b0:ba:1b:ff:e5:d5:6b:60:de:dc:97:19:90:
         a3:32:3f:4c:ab:5d:38:c2:6f:d1:2e:97:45:a8:35:23:4a:a5:
         7d:37:74:c5
-----BEGIN CERTIFICATE-----
MIIDdzCCAl+gAwIBAgIQQOTbzc/mvuP/+KCqM2sKqjANBgkqhkiG9w0BAQsFADAW
MRQwEgYDVQQDDAt0ZWFtNjcwLW5ldDAeFw0yMTA5MTMwNDU5NDdaFw0yNDA4Mjgw
NDU5NDdaMBkxFzAVBgNVBAMMDnRlYW02NzAtc2VydmVyMIIBIjANBgkqhkiG9w0B
AQEFAAOCAQ8AMIIBCgKCAQEAthTGgd1jSeom2JK8lTDtxN7jaORVlpQQq2+pYf+j
mGcuO73Zft5fBT20TykeqRZJO8uNh2FKixDffid6KJ01xrEHW5Vpd1Td+ianGpWd
nK74uGpiVJqS/HDaILdsXkAZkSTRC6E1cX5jfrYvEC9Rm7Ai8zZiUGuO3c6koztm
b8DTPcTxZHBPPqc8fTlxJJLcJXIFYrj4aPoI8QMjVxED2uTKYzjjbmjjzHQ7rhTJ
cDhwvFFD9YgKjP8E/MFuw/WjZT828s5UgL0Nb7PPguFDTxHQ0Q5oH85uG8yAuCav
p1xfwXlG2btKoPVWKMJXMRBkeTphZlOY2XoUxBl3YbsbeQIDAQABo4G9MIG6MAkG
A1UdEwQCMAAwHQYDVR0OBBYEFPuXv5/vutnZ2UU+wy8ZaEeUPZI/MFEGA1UdIwRK
MEiAFP0/89QdQM/7VfKnyWJa0aF3+m09oRqkGDAWMRQwEgYDVQQDDAt0ZWFtNjcw
LW5ldIIUdjJNzjACJHvL2QX3RQ1EJ7lBy80wEwYDVR0lBAwwCgYIKwYBBQUHAwEw
CwYDVR0PBAQDAgWgMBkGA1UdEQQSMBCCDnRlYW02NzAtc2VydmVyMA0GCSqGSIb3
DQEBCwUAA4IBAQBVn+BF5q4c5KQauvo8BpDwkI4DTOGv8kqANLQCCFCpFCff6RTI
LNhB1J72PzzFavLONjqrOIMpFiQuow07N2SilFeL/IRFHmxaS1+PDmqZALzn6gNT
Mu2+zachuVY7AzG/PVC4Ibv+RLoytSFiLSdeQBMi9bCxFx83N3SQ3RylR4EJOz+w
1hibRHWDf4ZBALWpfYiJzM+KGs4+u66w6J3LvVpLDgyKJobuj36bE40+7y0qO+nj
JRHMKym+6MZURQ70lUEQ3z9aBB9gjfOF/mr8bzbc8OC4M8jNtCYgOLC6G//l1Wtg
3tyXGZCjMj9Mq104wm/RLpdFqDUjSqV9N3TF
-----END CERTIFICATE-----
