Certificate:
    Data:
        Version: 3 (0x2)
        Serial Number:
            f4:c1:a4:b7:2b:73:f7:f7:86:98:7e:36:a4:cd:26:de
        Signature Algorithm: sha256WithRSAEncryption
        Issuer: CN=team154-net
        Validity
            Not Before: Sep 13 00:06:08 2021 GMT
            Not After : Aug 28 00:06:08 2024 GMT
        Subject: CN=team154-server
        Subject Public Key Info:
            Public Key Algorithm: rsaEncryption
                RSA Public-Key: (2048 bit)
                Modulus:
                    00:da:41:1e:3c:e7:a9:58:ca:3d:5c:dd:07:50:a3:
                    40:41:d2:c1:b5:63:70:ab:cf:b9:34:64:49:cb:c9:
                    49:89:2b:ab:f6:e7:3a:2b:84:c4:82:84:b3:bc:91:
                    04:c1:a7:f8:8a:68:0e:25:48:a8:13:78:8a:e1:2f:
                    c6:b5:01:fe:e3:bb:ef:73:b6:0d:a9:4f:f3:18:a6:
                    3c:80:2f:17:4f:9a:7a:0a:b2:f8:6e:fb:d8:88:06:
                    86:b4:f5:f5:05:a0:9a:9e:ce:24:54:a4:f8:41:9f:
                    38:8a:8b:51:8c:80:83:e9:6c:8e:6a:fc:58:83:0f:
                    f2:6b:d5:4c:7c:93:77:d8:a3:29:42:d0:bb:4b:fe:
                    8f:f6:b2:79:5a:64:3d:3b:b7:12:af:f2:fa:1c:a2:
                    b5:7c:40:c6:01:13:3d:67:c6:01:a3:de:00:d6:3c:
                    ea:c5:e1:81:90:8a:58:19:e8:d6:a2:5a:bb:aa:73:
                    3e:e0:7a:88:75:4d:56:f7:aa:75:1f:74:a6:3a:dc:
                    bb:3e:b1:c6:d5:29:0e:eb:fc:61:02:4c:9b:1c:04:
                    9a:fb:71:e3:c8:c0:c9:41:8d:aa:da:c3:04:29:7a:
                    91:2c:a9:40:c1:b8:f8:35:dc:12:95:6c:bd:72:6c:
                    14:70:ca:52:34:64:67:8e:bf:82:cf:7a:77:17:84:
                    fc:93
                Exponent: 65537 (0x10001)
        X509v3 extensions:
            X509v3 Basic Constraints: 
                CA:FALSE
            X509v3 Subject Key Identifier: 
                0A:3D:70:3C:93:76:AD:CF:07:F9:91:DC:EA:EB:BF:D1:06:11:AD:99
            X509v3 Authority Key Identifier: 
                keyid:DE:D1:A4:23:60:01:76:48:B9:48:11:81:89:2A:AE:04:A9:56:D4:50
                DirName:/CN=team154-net
                serial:2F:33:9E:95:32:96:B2:F8:9A:92:A1:1F:10:1D:3C:65:29:0B:5B:48

            X509v3 Extended Key Usage: 
                TLS Web Server Authentication
            X509v3 Key Usage: 
                Digital Signature, Key Encipherment
            X509v3 Subject Alternative Name: 
                DNS:team154-server
    Signature Algorithm: sha256WithRSAEncryption
         2c:63:8a:55:ed:ac:fe:05:b9:cb:7d:5c:64:2a:a3:80:c2:4e:
         3e:07:b7:68:5b:23:94:b3:fe:e0:51:36:f8:df:5c:01:b0:88:
         d8:16:9e:57:46:dd:fb:76:45:cc:e7:21:e8:fd:c1:60:ff:f4:
         aa:86:4f:b9:07:f6:3c:d5:19:0e:99:cb:c8:b7:2c:94:d4:6e:
         42:18:49:03:12:12:c2:94:7d:69:03:e1:fc:37:4a:53:1a:f2:
         83:70:d2:d2:c3:11:ca:f8:10:93:5d:05:c6:f8:e8:f6:80:ed:
         f0:66:46:9c:86:9e:6e:82:86:aa:11:67:66:4e:51:ab:e5:56:
         52:8a:11:c5:32:b1:7b:9b:c1:b9:84:73:4b:4a:66:7a:ea:56:
         06:8f:d8:49:dd:e5:b2:e3:d8:6f:fe:08:a6:06:93:64:ed:32:
         a7:80:9c:03:d9:05:f2:b6:9b:16:36:11:a6:64:a6:49:7f:9c:
         24:21:41:49:6d:6e:2d:23:00:a1:df:32:41:2e:57:dd:79:64:
         38:54:a8:df:b1:84:fa:c0:ee:87:15:ff:65:e5:37:e2:79:1e:
         39:53:24:2f:2b:ba:2f:3a:9e:2c:d4:66:32:cc:02:c6:66:1b:
         38:19:da:1d:14:2d:5c:9b:a4:9c:0b:9b:9c:1e:b4:92:c0:13:
         84:2a:2d:d8
-----BEGIN CERTIFICATE-----
MIIDeDCCAmCgAwIBAgIRAPTBpLcrc/f3hph+NqTNJt4wDQYJKoZIhvcNAQELBQAw
FjEUMBIGA1UEAwwLdGVhbTE1NC1uZXQwHhcNMjEwOTEzMDAwNjA4WhcNMjQwODI4
MDAwNjA4WjAZMRcwFQYDVQQDDA50ZWFtMTU0LXNlcnZlcjCCASIwDQYJKoZIhvcN
AQEBBQADggEPADCCAQoCggEBANpBHjznqVjKPVzdB1CjQEHSwbVjcKvPuTRkScvJ
SYkrq/bnOiuExIKEs7yRBMGn+IpoDiVIqBN4iuEvxrUB/uO773O2DalP8ximPIAv
F0+aegqy+G772IgGhrT19QWgmp7OJFSk+EGfOIqLUYyAg+lsjmr8WIMP8mvVTHyT
d9ijKULQu0v+j/ayeVpkPTu3Eq/y+hyitXxAxgETPWfGAaPeANY86sXhgZCKWBno
1qJau6pzPuB6iHVNVveqdR90pjrcuz6xxtUpDuv8YQJMmxwEmvtx48jAyUGNqtrD
BCl6kSypQMG4+DXcEpVsvXJsFHDKUjRkZ46/gs96dxeE/JMCAwEAAaOBvTCBujAJ
BgNVHRMEAjAAMB0GA1UdDgQWBBQKPXA8k3atzwf5kdzq67/RBhGtmTBRBgNVHSME
SjBIgBTe0aQjYAF2SLlIEYGJKq4EqVbUUKEapBgwFjEUMBIGA1UEAwwLdGVhbTE1
NC1uZXSCFC8znpUylrL4mpKhHxAdPGUpC1tIMBMGA1UdJQQMMAoGCCsGAQUFBwMB
MAsGA1UdDwQEAwIFoDAZBgNVHREEEjAQgg50ZWFtMTU0LXNlcnZlcjANBgkqhkiG
9w0BAQsFAAOCAQEALGOKVe2s/gW5y31cZCqjgMJOPge3aFsjlLP+4FE2+N9cAbCI
2BaeV0bd+3ZFzOch6P3BYP/0qoZPuQf2PNUZDpnLyLcslNRuQhhJAxISwpR9aQPh
/DdKUxryg3DS0sMRyvgQk10Fxvjo9oDt8GZGnIaeboKGqhFnZk5Rq+VWUooRxTKx
e5vBuYRzS0pmeupWBo/YSd3lsuPYb/4IpgaTZO0yp4CcA9kF8rabFjYRpmSmSX+c
JCFBSW1uLSMAod8yQS5X3XlkOFSo37GE+sDuhxX/ZeU34nkeOVMkLyu6LzqeLNRm
MswCxmYbOBnaHRQtXJuknAubnB60ksAThCot2A==
-----END CERTIFICATE-----
