Certificate:
    Data:
        Version: 3 (0x2)
        Serial Number:
            52:55:0a:92:3f:fa:8b:3f:9f:77:df:99:c5:a0:83:83
        Signature Algorithm: sha256WithRSAEncryption
        Issuer: CN=team598-net
        Validity
            Not Before: Sep 13 04:01:12 2021 GMT
            Not After : Aug 28 04:01:12 2024 GMT
        Subject: CN=team598-server
        Subject Public Key Info:
            Public Key Algorithm: rsaEncryption
                RSA Public-Key: (2048 bit)
                Modulus:
                    00:d8:dc:18:af:74:37:8c:f7:1e:a6:2e:f2:12:2f:
                    a4:e1:f1:58:09:7d:d7:3a:f1:59:d5:17:f1:59:61:
                    97:cc:8a:1f:c3:e9:94:91:7a:0a:17:af:c3:51:6c:
                    de:9e:87:e5:5a:e5:27:87:81:ce:a0:cd:d2:59:96:
                    39:a7:ce:6e:58:54:b3:99:67:cb:b9:c7:49:97:e1:
                    f0:8c:91:11:ef:e5:97:8d:ea:48:23:2b:fb:07:01:
                    9c:7b:1f:63:a4:f6:73:72:21:ed:ba:b2:4a:3c:7b:
                    f8:6c:36:a6:18:d7:87:40:bd:f1:a3:05:ed:69:7c:
                    b9:0e:ab:7f:33:83:c4:89:84:8a:31:12:63:f4:c5:
                    fb:af:67:dc:d2:66:0b:ec:51:d6:3b:ce:2f:3b:4d:
                    70:5e:ce:cb:53:b3:00:cf:d5:6d:28:b2:3a:c5:29:
                    da:f1:e3:30:b8:fe:0c:94:c1:b7:f3:90:cc:38:16:
                    11:6b:78:1c:27:14:05:dd:66:b1:ad:ab:68:85:31:
                    b6:bd:64:b7:26:3f:96:8c:b3:78:85:f6:53:6d:b2:
                    6c:5b:85:e9:17:42:49:92:04:56:33:4f:72:ac:b4:
                    90:62:58:0d:65:d3:42:8f:60:08:ec:e1:06:3c:92:
                    a6:e3:d2:20:0d:4d:41:f3:5f:47:35:67:cb:85:ee:
                    fc:11
                Exponent: 65537 (0x10001)
        X509v3 extensions:
            X509v3 Basic Constraints: 
                CA:FALSE
            X509v3 Subject Key Identifier: 
                D4:F4:4C:86:C8:F1:06:A0:01:03:6F:38:8A:FD:A5:4E:CC:DD:F1:E2
            X509v3 Authority Key Identifier: 
                keyid:9E:70:EE:35:9D:2C:B5:9B:DD:CD:BE:AA:6D:D3:4F:86:19:2F:90:62
                DirName:/CN=team598-net
                serial:66:38:62:70:22:92:60:49:66:61:DA:DB:3A:1C:44:14:E8:38:FD:5A

            X509v3 Extended Key Usage: 
                TLS Web Server Authentication
            X509v3 Key Usage: 
                Digital Signature, Key Encipherment
            X509v3 Subject Alternative Name: 
                DNS:team598-server
    Signature Algorithm: sha256WithRSAEncryption
         35:a5:9b:68:78:8f:d9:6e:3d:3e:ed:de:22:83:41:9b:05:3e:
         18:c6:4e:e2:ba:0c:81:37:bd:50:4e:ce:35:0b:92:29:99:b6:
         3e:79:63:3c:1a:70:b7:0d:7e:16:e2:d9:e3:84:ce:c6:77:41:
         7e:5f:6d:ef:18:34:14:bb:4f:8d:28:96:3c:04:18:ce:d6:66:
         aa:a1:34:41:fa:50:4f:cd:fb:5b:21:a5:51:f8:99:8e:60:2b:
         b5:b2:a5:8f:92:be:75:d3:7d:1d:66:6b:a6:78:c4:8d:03:95:
         9b:9c:14:b3:42:c1:3f:16:ba:e7:0c:47:bf:4a:27:14:79:68:
         bf:23:ba:4d:10:62:af:67:e2:09:82:e1:6e:d3:68:3f:4a:c7:
         e0:57:6c:37:06:b5:43:4e:50:74:39:bd:3a:08:5b:0a:b7:56:
         f6:4b:fe:a4:85:5a:1e:9c:c8:0b:7f:df:38:96:a1:84:94:ed:
         b0:8a:68:d1:ee:cc:e7:96:1e:28:26:94:0e:8c:9d:4e:d7:92:
         76:9d:43:00:f5:92:3b:10:06:b1:d3:ae:f1:13:70:ae:55:33:
         bf:78:e0:6c:56:53:78:3e:4a:35:8c:bf:a1:34:2e:9d:7a:0d:
         6d:86:a7:17:4d:1d:ab:74:f3:07:1c:70:7a:66:14:5a:84:3c:
         40:aa:86:2c
-----BEGIN CERTIFICATE-----
MIIDdzCCAl+gAwIBAgIQUlUKkj/6iz+fd9+ZxaCDgzANBgkqhkiG9w0BAQsFADAW
MRQwEgYDVQQDDAt0ZWFtNTk4LW5ldDAeFw0yMTA5MTMwNDAxMTJaFw0yNDA4Mjgw
NDAxMTJaMBkxFzAVBgNVBAMMDnRlYW01OTgtc2VydmVyMIIBIjANBgkqhkiG9w0B
AQEFAAOCAQ8AMIIBCgKCAQEA2NwYr3Q3jPcepi7yEi+k4fFYCX3XOvFZ1RfxWWGX
zIofw+mUkXoKF6/DUWzenoflWuUnh4HOoM3SWZY5p85uWFSzmWfLucdJl+HwjJER
7+WXjepIIyv7BwGcex9jpPZzciHturJKPHv4bDamGNeHQL3xowXtaXy5Dqt/M4PE
iYSKMRJj9MX7r2fc0mYL7FHWO84vO01wXs7LU7MAz9VtKLI6xSna8eMwuP4MlMG3
85DMOBYRa3gcJxQF3WaxratohTG2vWS3Jj+WjLN4hfZTbbJsW4XpF0JJkgRWM09y
rLSQYlgNZdNCj2AI7OEGPJKm49IgDU1B819HNWfLhe78EQIDAQABo4G9MIG6MAkG
A1UdEwQCMAAwHQYDVR0OBBYEFNT0TIbI8QagAQNvOIr9pU7M3fHiMFEGA1UdIwRK
MEiAFJ5w7jWdLLWb3c2+qm3TT4YZL5BioRqkGDAWMRQwEgYDVQQDDAt0ZWFtNTk4
LW5ldIIUZjhicCKSYElmYdrbOhxEFOg4/VowEwYDVR0lBAwwCgYIKwYBBQUHAwEw
CwYDVR0PBAQDAgWgMBkGA1UdEQQSMBCCDnRlYW01OTgtc2VydmVyMA0GCSqGSIb3
DQEBCwUAA4IBAQA1pZtoeI/Zbj0+7d4ig0GbBT4Yxk7iugyBN71QTs41C5IpmbY+
eWM8GnC3DX4W4tnjhM7Gd0F+X23vGDQUu0+NKJY8BBjO1maqoTRB+lBPzftbIaVR
+JmOYCu1sqWPkr51030dZmumeMSNA5WbnBSzQsE/FrrnDEe/SicUeWi/I7pNEGKv
Z+IJguFu02g/SsfgV2w3BrVDTlB0Ob06CFsKt1b2S/6khVoenMgLf984lqGElO2w
imjR7sznlh4oJpQOjJ1O15J2nUMA9ZI7EAax067xE3CuVTO/eOBsVlN4Pko1jL+h
NC6deg1thqcXTR2rdPMHHHB6ZhRahDxAqoYs
-----END CERTIFICATE-----
