Certificate:
    Data:
        Version: 3 (0x2)
        Serial Number:
            32:c7:eb:1a:32:73:b3:f0:43:a1:4b:73:11:c8:e9:c4
        Signature Algorithm: sha256WithRSAEncryption
        Issuer: CN=team486-net
        Validity
            Not Before: Sep 13 03:08:33 2021 GMT
            Not After : Aug 28 03:08:33 2024 GMT
        Subject: CN=team486-client
        Subject Public Key Info:
            Public Key Algorithm: rsaEncryption
                RSA Public-Key: (2048 bit)
                Modulus:
                    00:a7:ab:4f:15:e2:07:4b:4c:1a:7a:d8:a0:6d:7d:
                    30:c1:b4:da:b0:6f:37:e2:dd:8e:2e:2f:c4:ed:81:
                    21:a0:f8:22:40:33:e4:fc:ae:21:ba:14:7f:fa:39:
                    c2:dc:50:25:cf:05:87:4c:bd:c6:df:2b:54:24:16:
                    12:84:94:1d:56:45:51:59:74:46:62:80:a2:b0:1d:
                    2a:cf:ff:4e:a5:34:95:90:27:17:cb:2f:b7:f1:26:
                    a0:8d:de:d0:1a:fd:25:95:82:96:8f:6c:2b:6b:c6:
                    82:44:24:cd:c6:1e:da:cb:a2:f8:5b:57:e7:ba:dc:
                    df:43:b7:d6:8f:c4:e9:fe:a7:09:25:59:1c:c8:e7:
                    ec:23:36:1a:91:3e:df:85:18:ab:b9:45:80:c1:4a:
                    9c:1f:0f:21:ae:f4:6b:10:a7:d6:55:c4:0d:8a:02:
                    cc:4d:59:c9:f8:f6:24:92:e4:48:95:a7:86:1c:72:
                    59:e0:d4:20:57:64:e3:01:02:d1:27:55:1e:7a:53:
                    ac:29:cb:ae:cc:d5:fe:88:7f:6f:02:f3:0e:91:68:
                    71:48:41:f6:27:12:51:ff:b8:28:91:26:a3:c9:6f:
                    71:42:7d:d2:88:c5:fd:42:61:ec:44:b2:68:24:7b:
                    e8:b1:60:de:bc:a4:a5:82:83:e3:90:c7:9a:23:64:
                    79:11
                Exponent: 65537 (0x10001)
        X509v3 extensions:
            X509v3 Basic Constraints: 
                CA:FALSE
            X509v3 Subject Key Identifier: 
                54:9F:E2:91:B9:5D:81:F8:FB:DA:B1:A2:24:63:33:13:CF:32:9C:10
            X509v3 Authority Key Identifier: 
                keyid:C9:B8:1F:5A:E3:3B:8F:8B:3E:2E:EE:B4:08:3C:07:AA:CE:2B:F7:76
                DirName:/CN=team486-net
                serial:4F:F7:C2:C4:E2:6F:96:0B:37:52:95:4C:35:F3:33:EF:55:C1:33:FE

            X509v3 Extended Key Usage: 
                TLS Web Client Authentication
            X509v3 Key Usage: 
                Digital Signature
    Signature Algorithm: sha256WithRSAEncryption
         8b:18:87:e9:a9:64:2f:10:89:d3:04:39:a8:19:a7:64:8b:cc:
         74:78:4b:a5:dc:72:94:bd:20:20:70:b1:01:52:1a:2c:fa:ad:
         15:a7:bc:89:06:b3:fa:f3:67:d6:a3:9c:a0:e8:6c:20:ab:e6:
         59:48:55:f3:64:23:ae:db:c6:2c:b6:68:64:8d:63:27:0f:df:
         72:50:d2:7b:a5:be:61:95:6c:3e:ee:9e:23:30:35:9c:79:8b:
         40:69:d9:14:72:50:63:25:6e:67:12:2a:b5:a7:ae:e4:ab:26:
         50:11:ee:d7:d9:ae:e5:01:28:5b:dc:9f:ad:8c:af:aa:d2:59:
         10:08:c4:fb:ab:20:c3:09:d8:9f:e3:ea:93:fc:7f:2b:f3:16:
         74:ed:d2:78:3c:70:e4:0c:e0:76:73:d8:78:02:51:d5:50:27:
         39:d1:ae:e8:68:57:ba:aa:a0:66:39:b7:22:cf:6e:e4:b6:88:
         d7:8d:8b:0d:73:65:53:3d:00:d9:84:be:12:d2:97:74:72:1b:
         b9:cb:59:72:13:07:f6:e3:2e:9f:2a:a6:05:b7:55:dd:71:26:
         32:b2:ed:ab:1a:f3:cf:72:68:c9:7a:5b:19:be:b7:1c:b6:07:
         ee:24:ee:37:b3:94:c8:28:51:de:16:53:da:17:55:bd:d4:7a:
         e6:97:d3:89
-----BEGIN CERTIFICATE-----
MIIDXDCCAkSgAwIBAgIQMsfrGjJzs/BDoUtzEcjpxDANBgkqhkiG9w0BAQsFADAW
MRQwEgYDVQQDDAt0ZWFtNDg2LW5ldDAeFw0yMTA5MTMwMzA4MzNaFw0yNDA4Mjgw
MzA4MzNaMBkxFzAVBgNVBAMMDnRlYW00ODYtY2xpZW50MIIBIjANBgkqhkiG9w0B
AQEFAAOCAQ8AMIIBCgKCAQEAp6tPFeIHS0waetigbX0wwbTasG834t2OLi/E7YEh
oPgiQDPk/K4huhR/+jnC3FAlzwWHTL3G3ytUJBYShJQdVkVRWXRGYoCisB0qz/9O
pTSVkCcXyy+38Sagjd7QGv0llYKWj2wra8aCRCTNxh7ay6L4W1fnutzfQ7fWj8Tp
/qcJJVkcyOfsIzYakT7fhRiruUWAwUqcHw8hrvRrEKfWVcQNigLMTVnJ+PYkkuRI
laeGHHJZ4NQgV2TjAQLRJ1UeelOsKcuuzNX+iH9vAvMOkWhxSEH2JxJR/7gokSaj
yW9xQn3SiMX9QmHsRLJoJHvosWDevKSlgoPjkMeaI2R5EQIDAQABo4GiMIGfMAkG
A1UdEwQCMAAwHQYDVR0OBBYEFFSf4pG5XYH4+9qxoiRjMxPPMpwQMFEGA1UdIwRK
MEiAFMm4H1rjO4+LPi7utAg8B6rOK/d2oRqkGDAWMRQwEgYDVQQDDAt0ZWFtNDg2
LW5ldIIUT/fCxOJvlgs3UpVMNfMz71XBM/4wEwYDVR0lBAwwCgYIKwYBBQUHAwIw
CwYDVR0PBAQDAgeAMA0GCSqGSIb3DQEBCwUAA4IBAQCLGIfpqWQvEInTBDmoGadk
i8x0eEul3HKUvSAgcLEBUhos+q0Vp7yJBrP682fWo5yg6Gwgq+ZZSFXzZCOu28Ys
tmhkjWMnD99yUNJ7pb5hlWw+7p4jMDWceYtAadkUclBjJW5nEiq1p67kqyZQEe7X
2a7lAShb3J+tjK+q0lkQCMT7qyDDCdif4+qT/H8r8xZ07dJ4PHDkDOB2c9h4AlHV
UCc50a7oaFe6qqBmObciz27ktojXjYsNc2VTPQDZhL4S0pd0chu5y1lyEwf24y6f
KqYFt1XdcSYysu2rGvPPcmjJelsZvrcctgfuJO43s5TIKFHeFlPaF1W91Hrml9OJ
-----END CERTIFICATE-----
