Certificate:
    Data:
        Version: 3 (0x2)
        Serial Number:
            89:77:40:46:4e:0e:ae:5c:aa:3b:1b:d9:d5:4e:34:0e
        Signature Algorithm: sha256WithRSAEncryption
        Issuer: CN=team495-net
        Validity
            Not Before: Sep 13 03:05:29 2021 GMT
            Not After : Aug 28 03:05:29 2024 GMT
        Subject: CN=team495-server
        Subject Public Key Info:
            Public Key Algorithm: rsaEncryption
                RSA Public-Key: (2048 bit)
                Modulus:
                    00:c4:70:63:fa:b0:37:5e:36:63:ab:d1:23:92:8e:
                    ae:a3:f1:68:5a:ea:1b:84:1c:b5:5d:4d:98:15:c6:
                    46:d1:28:98:bb:2a:fa:0a:9b:30:a1:23:25:4c:02:
                    e0:18:e5:1c:8a:df:a3:eb:c6:78:7b:3f:77:a3:75:
                    48:03:1d:a4:3f:14:70:cf:92:59:f6:65:f3:9b:24:
                    e8:86:7c:45:e4:28:25:a7:ad:18:7b:77:20:f0:dd:
                    64:b0:c9:d7:f0:07:81:64:96:1c:de:16:9b:0e:ac:
                    b8:c6:28:de:ee:60:54:41:20:aa:d2:5d:d9:e5:9f:
                    68:d9:bd:b7:9d:07:04:68:cb:d8:27:fb:d8:5b:ab:
                    78:23:71:42:c2:e7:8f:20:b8:bf:49:4b:61:de:a1:
                    50:ca:b1:0b:b6:eb:66:7d:f4:e5:77:49:6b:8a:ab:
                    fe:ea:f8:41:d1:48:f0:80:7a:46:e0:04:4b:8b:98:
                    f3:d5:96:f2:6b:a4:d0:b0:8a:b8:2b:13:fc:6b:52:
                    50:3c:b0:44:d7:d4:78:cb:9d:d7:01:61:99:d5:20:
                    8d:57:1c:4e:38:28:be:a2:c0:6b:22:aa:fa:5e:56:
                    80:37:91:ac:21:da:e3:68:cf:d2:c2:c6:00:db:fe:
                    9e:3a:85:1c:0b:f2:28:ae:c0:34:e7:a7:68:b1:e8:
                    94:d9
                Exponent: 65537 (0x10001)
        X509v3 extensions:
            X509v3 Basic Constraints: 
                CA:FALSE
            X509v3 Subject Key Identifier: 
                10:13:96:47:1A:C0:11:6A:8A:50:72:BC:CA:E5:C6:86:F7:61:1F:A0
            X509v3 Authority Key Identifier: 
                keyid:CB:0C:FA:B6:3D:E8:AA:36:4B:94:93:5F:A4:A6:32:1B:98:36:D4:F3
                DirName:/CN=team495-net
                serial:33:40:DF:2F:44:B5:D9:7C:28:62:8C:C5:58:D2:F5:82:73:B5:7D:A7

            X509v3 Extended Key Usage: 
                TLS Web Server Authentication
            X509v3 Key Usage: 
                Digital Signature, Key Encipherment
            X509v3 Subject Alternative Name: 
                DNS:team495-server
    Signature Algorithm: sha256WithRSAEncryption
         69:1a:bb:f0:3c:6e:11:b9:2f:f3:cc:43:9c:97:25:56:73:cb:
         25:d6:ea:e3:51:05:30:32:26:57:93:b1:29:5e:59:6e:c9:2a:
         b4:9b:28:69:f3:b0:ed:9b:1f:48:b5:8f:39:1a:e0:82:5f:50:
         bd:39:93:92:1a:a4:ed:e2:78:25:f0:af:9a:bf:9d:51:c0:0b:
         a3:60:3d:55:b2:62:05:92:69:ca:2d:38:cf:2c:b5:74:6a:1d:
         0e:56:ee:26:f9:07:30:3a:36:fe:56:1e:25:eb:7f:f9:b0:a1:
         36:c6:1c:be:44:6a:52:36:b3:2a:7c:84:15:e8:c4:23:c7:7d:
         b5:0e:1a:01:7a:00:88:6a:32:7e:3c:35:80:c3:9d:c7:00:58:
         8c:ae:b9:3c:bc:5d:7b:99:7d:96:ad:eb:82:e1:28:7d:1b:60:
         f7:72:f5:f0:8c:9d:04:cf:f0:17:6f:27:99:93:b4:39:42:1d:
         a8:4e:ed:75:27:72:28:09:91:ae:17:85:3e:7d:b2:82:57:ed:
         a6:8a:ed:dc:1d:77:b8:36:98:ed:c7:63:a4:7c:94:df:8a:ea:
         bb:e7:47:8e:94:31:95:9b:38:4f:8a:98:7f:48:3e:10:fb:ef:
         17:c9:65:5c:a4:d8:a3:62:9b:dc:15:89:77:8f:ba:16:ec:b3:
         c0:a9:f2:b2
-----BEGIN CERTIFICATE-----
MIIDeDCCAmCgAwIBAgIRAIl3QEZODq5cqjsb2dVONA4wDQYJKoZIhvcNAQELBQAw
FjEUMBIGA1UEAwwLdGVhbTQ5NS1uZXQwHhcNMjEwOTEzMDMwNTI5WhcNMjQwODI4
MDMwNTI5WjAZMRcwFQYDVQQDDA50ZWFtNDk1LXNlcnZlcjCCASIwDQYJKoZIhvcN
AQEBBQADggEPADCCAQoCggEBAMRwY/qwN142Y6vRI5KOrqPxaFrqG4QctV1NmBXG
RtEomLsq+gqbMKEjJUwC4BjlHIrfo+vGeHs/d6N1SAMdpD8UcM+SWfZl85sk6IZ8
ReQoJaetGHt3IPDdZLDJ1/AHgWSWHN4Wmw6suMYo3u5gVEEgqtJd2eWfaNm9t50H
BGjL2Cf72FureCNxQsLnjyC4v0lLYd6hUMqxC7brZn305XdJa4qr/ur4QdFI8IB6
RuAES4uY89WW8muk0LCKuCsT/GtSUDywRNfUeMud1wFhmdUgjVccTjgovqLAayKq
+l5WgDeRrCHa42jP0sLGANv+njqFHAvyKK7ANOenaLHolNkCAwEAAaOBvTCBujAJ
BgNVHRMEAjAAMB0GA1UdDgQWBBQQE5ZHGsARaopQcrzK5caG92EfoDBRBgNVHSME
SjBIgBTLDPq2PeiqNkuUk1+kpjIbmDbU86EapBgwFjEUMBIGA1UEAwwLdGVhbTQ5
NS1uZXSCFDNA3y9Etdl8KGKMxVjS9YJztX2nMBMGA1UdJQQMMAoGCCsGAQUFBwMB
MAsGA1UdDwQEAwIFoDAZBgNVHREEEjAQgg50ZWFtNDk1LXNlcnZlcjANBgkqhkiG
9w0BAQsFAAOCAQEAaRq78DxuEbkv88xDnJclVnPLJdbq41EFMDImV5OxKV5Zbskq
tJsoafOw7ZsfSLWPORrggl9QvTmTkhqk7eJ4JfCvmr+dUcALo2A9VbJiBZJpyi04
zyy1dGodDlbuJvkHMDo2/lYeJet/+bChNsYcvkRqUjazKnyEFejEI8d9tQ4aAXoA
iGoyfjw1gMOdxwBYjK65PLxde5l9lq3rguEofRtg93L18IydBM/wF28nmZO0OUId
qE7tdSdyKAmRrheFPn2yglftport3B13uDaY7cdjpHyU34rqu+dHjpQxlZs4T4qY
f0g+EPvvF8llXKTYo2Kb3BWJd4+6FuyzwKnysg==
-----END CERTIFICATE-----
