Certificate:
    Data:
        Version: 3 (0x2)
        Serial Number:
            3b:6e:8f:f1:3e:a8:b9:a5:dc:32:62:0b:20:95:04:8d
        Signature Algorithm: sha256WithRSAEncryption
        Issuer: CN=team354-net
        Validity
            Not Before: Sep 13 02:00:15 2021 GMT
            Not After : Aug 28 02:00:15 2024 GMT
        Subject: CN=team354-client
        Subject Public Key Info:
            Public Key Algorithm: rsaEncryption
                RSA Public-Key: (2048 bit)
                Modulus:
                    00:f0:e7:17:a8:ea:de:49:18:b8:a0:4e:25:6a:4d:
                    9d:e2:91:83:4b:39:47:c4:00:e6:71:24:06:3a:02:
                    fc:8d:7e:7f:0b:9b:db:b6:14:a0:b8:13:ba:31:43:
                    4c:14:48:54:fc:81:f8:7c:c3:08:5d:5b:fe:90:87:
                    b4:45:da:8e:41:d1:d6:96:01:aa:4c:4a:7c:5a:6b:
                    c5:43:74:2d:82:c3:6b:96:55:ab:85:e4:26:a4:0d:
                    6a:9c:4f:c0:1b:f5:5a:dd:a5:d9:70:54:e5:19:b3:
                    4d:61:0e:3d:88:71:2b:80:51:ce:0a:3c:d5:0d:22:
                    28:ec:d2:2c:4e:12:b6:63:1b:5e:87:26:35:84:db:
                    2c:26:8d:75:59:5c:4e:30:52:51:42:49:fe:eb:fe:
                    2b:6b:2d:7c:b6:10:08:06:2f:71:bc:43:71:48:6c:
                    cc:cf:3d:97:ca:ad:da:51:d0:a4:7a:00:fb:a0:d9:
                    e0:af:63:6c:cc:38:4f:64:9f:7f:cc:b3:5e:0f:25:
                    c9:12:17:79:34:94:10:08:3f:9f:90:63:5f:84:66:
                    d2:31:fd:39:13:ca:b0:57:e2:a6:68:c5:6c:8c:f1:
                    61:e6:16:17:c6:90:ab:91:24:42:62:5b:df:9b:f5:
                    ef:73:d6:12:5c:e2:54:62:50:dc:11:d0:80:ef:a7:
                    40:fb
                Exponent: 65537 (0x10001)
        X509v3 extensions:
            X509v3 Basic Constraints: 
                CA:FALSE
            X509v3 Subject Key Identifier: 
                5F:EB:63:AC:72:1C:49:7A:A0:3A:81:32:5B:82:7F:62:04:F5:3A:F1
            X509v3 Authority Key Identifier: 
                keyid:E9:65:17:53:C9:CA:2A:56:A9:0D:4B:66:3E:20:FC:E3:0E:81:F9:D5
                DirName:/CN=team354-net
                serial:18:DC:BC:11:8E:AD:3C:33:A2:97:AD:AE:11:4E:F5:A4:99:B1:29:1B

            X509v3 Extended Key Usage: 
                TLS Web Client Authentication
            X509v3 Key Usage: 
                Digital Signature
    Signature Algorithm: sha256WithRSAEncryption
         74:46:49:29:d0:d5:36:e2:fc:15:91:21:0c:90:fd:23:88:38:
         24:9a:63:d3:23:e8:4f:0e:a2:d4:aa:0f:a4:c1:20:d9:bb:82:
         26:ce:cf:6d:a1:bc:e0:26:09:db:77:df:d4:4c:20:66:1d:83:
         73:25:cd:f2:8c:cc:7c:17:c4:53:28:a4:2c:0b:ad:9c:21:1a:
         3c:a4:c1:27:25:19:da:5b:e4:1c:55:1d:15:d1:21:82:84:1c:
         6c:15:66:43:64:4c:31:81:63:8c:75:9f:15:80:99:2c:c3:17:
         44:f2:69:96:48:43:8e:c5:26:1d:43:bd:8a:b7:49:ca:fd:86:
         29:70:a8:e9:f8:24:bc:d2:ad:13:8a:8a:8c:b7:5e:1e:fe:12:
         a3:e3:44:00:73:e9:83:4e:35:80:ff:67:ed:ce:58:db:62:a4:
         d8:14:e8:42:79:91:fd:1d:9b:a7:50:9f:2d:f7:22:c7:70:22:
         5f:36:34:a0:8b:10:b3:ef:d8:94:78:bf:2e:b2:dc:18:2e:46:
         6f:e8:8b:8a:91:e0:b5:d7:38:17:08:ed:e8:a9:7a:8a:67:f3:
         14:67:31:f5:ba:d2:f3:66:39:4c:09:28:c4:e0:08:0e:37:a4:
         d3:65:72:56:42:fd:c7:c3:ee:3b:b2:e1:3e:68:71:23:34:90:
         d6:2c:40:5a
-----BEGIN CERTIFICATE-----
MIIDXDCCAkSgAwIBAgIQO26P8T6ouaXcMmILIJUEjTANBgkqhkiG9w0BAQsFADAW
MRQwEgYDVQQDDAt0ZWFtMzU0LW5ldDAeFw0yMTA5MTMwMjAwMTVaFw0yNDA4Mjgw
MjAwMTVaMBkxFzAVBgNVBAMMDnRlYW0zNTQtY2xpZW50MIIBIjANBgkqhkiG9w0B
AQEFAAOCAQ8AMIIBCgKCAQEA8OcXqOreSRi4oE4lak2d4pGDSzlHxADmcSQGOgL8
jX5/C5vbthSguBO6MUNMFEhU/IH4fMMIXVv+kIe0RdqOQdHWlgGqTEp8WmvFQ3Qt
gsNrllWrheQmpA1qnE/AG/Va3aXZcFTlGbNNYQ49iHErgFHOCjzVDSIo7NIsThK2
YxtehyY1hNssJo11WVxOMFJRQkn+6/4ray18thAIBi9xvENxSGzMzz2Xyq3aUdCk
egD7oNngr2NszDhPZJ9/zLNeDyXJEhd5NJQQCD+fkGNfhGbSMf05E8qwV+KmaMVs
jPFh5hYXxpCrkSRCYlvfm/Xvc9YSXOJUYlDcEdCA76dA+wIDAQABo4GiMIGfMAkG
A1UdEwQCMAAwHQYDVR0OBBYEFF/rY6xyHEl6oDqBMluCf2IE9TrxMFEGA1UdIwRK
MEiAFOllF1PJyipWqQ1LZj4g/OMOgfnVoRqkGDAWMRQwEgYDVQQDDAt0ZWFtMzU0
LW5ldIIUGNy8EY6tPDOil62uEU71pJmxKRswEwYDVR0lBAwwCgYIKwYBBQUHAwIw
CwYDVR0PBAQDAgeAMA0GCSqGSIb3DQEBCwUAA4IBAQB0Rkkp0NU24vwVkSEMkP0j
iDgkmmPTI+hPDqLUqg+kwSDZu4Imzs9tobzgJgnbd9/UTCBmHYNzJc3yjMx8F8RT
KKQsC62cIRo8pMEnJRnaW+QcVR0V0SGChBxsFWZDZEwxgWOMdZ8VgJkswxdE8mmW
SEOOxSYdQ72Kt0nK/YYpcKjp+CS80q0TioqMt14e/hKj40QAc+mDTjWA/2ftzljb
YqTYFOhCeZH9HZunUJ8t9yLHcCJfNjSgixCz79iUeL8ustwYLkZv6IuKkeC11zgX
CO3oqXqKZ/MUZzH1utLzZjlMCSjE4AgON6TTZXJWQv3Hw+47suE+aHEjNJDWLEBa
-----END CERTIFICATE-----
