Certificate:
    Data:
        Version: 3 (0x2)
        Serial Number:
            9f:95:bf:7b:8e:89:d5:f0:c1:2d:47:ad:6e:81:f2:4a
        Signature Algorithm: sha256WithRSAEncryption
        Issuer: CN=team710-net
        Validity
            Not Before: Sep 13 05:28:53 2021 GMT
            Not After : Aug 28 05:28:53 2024 GMT
        Subject: CN=team710-client
        Subject Public Key Info:
            Public Key Algorithm: rsaEncryption
                RSA Public-Key: (2048 bit)
                Modulus:
                    00:cc:26:28:ab:56:73:2f:71:dc:45:8a:f7:0f:7c:
                    39:af:65:5c:a2:53:e4:75:4c:ab:2c:6e:32:4f:95:
                    a1:d7:f3:05:ee:c3:99:c7:09:b6:ca:ba:89:4a:ab:
                    a9:3a:23:87:36:f9:16:76:22:cf:6a:18:53:c3:4a:
                    8c:14:31:68:14:34:eb:d1:6d:b5:5d:2a:94:da:77:
                    06:a6:90:1c:ea:7b:5a:c8:f2:61:42:e1:ae:72:b9:
                    38:ef:c5:f7:da:22:13:48:8f:4a:c8:13:d6:cc:12:
                    a3:8e:c6:d3:d2:2d:67:24:f0:d3:65:38:da:3c:bf:
                    96:40:c7:6e:d1:ef:52:5d:44:39:de:09:f6:47:6c:
                    95:59:21:8a:23:87:59:42:11:a5:c0:3f:78:7f:2c:
                    33:ac:19:af:20:82:af:ea:3a:3d:c3:18:29:f5:6f:
                    8a:9e:02:9c:14:f3:fa:12:e2:83:eb:3a:b2:83:00:
                    32:5b:02:2c:4f:33:84:ab:22:67:af:11:8a:44:25:
                    1d:ec:71:3d:cc:9c:1c:a3:26:19:19:09:b4:75:e6:
                    65:bc:f8:86:80:75:31:56:60:50:f8:0e:b0:09:28:
                    6f:a5:61:34:eb:2e:f6:e6:cd:b8:19:ae:6a:ea:db:
                    ce:98:a2:a3:3e:a6:8f:21:ef:96:be:15:a0:f4:78:
                    e3:3d
                Exponent: 65537 (0x10001)
        X509v3 extensions:
            X509v3 Basic Constraints: 
                CA:FALSE
            X509v3 Subject Key Identifier: 
                5C:26:94:B4:54:0A:63:DD:F8:29:40:4A:0A:ED:B4:5F:A0:4D:4B:BE
            X509v3 Authority Key Identifier: 
                keyid:89:A2:1B:FA:A9:2D:00:65:70:5E:51:56:30:6B:21:24:14:10:C2:84
                DirName:/CN=team710-net
                serial:17:16:E9:38:93:37:74:0E:7F:F3:C3:A4:DC:B9:78:F2:EC:38:A1:EC

            X509v3 Extended Key Usage: 
                TLS Web Client Authentication
            X509v3 Key Usage: 
                Digital Signature
    Signature Algorithm: sha256WithRSAEncryption
         63:f7:80:5a:b0:00:92:e7:ff:23:aa:e4:7e:1a:80:31:1f:b4:
         74:1e:4d:21:1c:f9:1b:15:68:9d:ab:07:7f:c1:04:01:7e:59:
         a7:13:ba:07:8d:19:b1:ea:40:48:bb:9a:0c:c4:a8:ae:3b:92:
         91:1b:b4:ce:af:7c:ec:22:71:01:47:03:06:b4:61:6e:14:b4:
         6b:c0:7f:9c:09:80:f4:db:7d:40:4f:4b:61:b0:69:a7:51:d2:
         4e:a4:a4:73:1b:01:14:3b:98:04:15:45:fa:be:df:62:b6:5a:
         04:bd:9b:a9:fe:f6:87:b6:08:a7:1d:67:ba:a0:62:79:55:0e:
         c4:7f:e9:16:82:2f:9f:ab:36:64:ea:ab:62:9d:44:62:24:09:
         b9:74:96:fb:4e:a5:a2:0d:93:a6:16:e9:4e:68:c8:82:5a:c4:
         f4:af:2d:3c:59:ce:36:cd:f2:09:3d:59:47:18:54:79:eb:87:
         5a:32:2a:5b:2f:74:4c:b6:f4:a3:25:90:c4:fb:3c:70:38:21:
         6c:91:58:73:a5:b3:05:a9:bb:fa:f6:87:2b:11:c2:aa:42:b5:
         b7:a8:dd:d5:3f:98:8e:7d:ef:af:41:ac:6c:ca:b6:ee:6f:a2:
         82:b7:40:47:6f:8b:ef:3b:79:33:e9:3e:52:f7:e8:84:9f:d4:
         24:c7:cb:c8
-----BEGIN CERTIFICATE-----
MIIDXTCCAkWgAwIBAgIRAJ+Vv3uOidXwwS1HrW6B8kowDQYJKoZIhvcNAQELBQAw
FjEUMBIGA1UEAwwLdGVhbTcxMC1uZXQwHhcNMjEwOTEzMDUyODUzWhcNMjQwODI4
MDUyODUzWjAZMRcwFQYDVQQDDA50ZWFtNzEwLWNsaWVudDCCASIwDQYJKoZIhvcN
AQEBBQADggEPADCCAQoCggEBAMwmKKtWcy9x3EWK9w98Oa9lXKJT5HVMqyxuMk+V
odfzBe7DmccJtsq6iUqrqTojhzb5FnYiz2oYU8NKjBQxaBQ069FttV0qlNp3BqaQ
HOp7WsjyYULhrnK5OO/F99oiE0iPSsgT1swSo47G09ItZyTw02U42jy/lkDHbtHv
Ul1EOd4J9kdslVkhiiOHWUIRpcA/eH8sM6wZryCCr+o6PcMYKfVvip4CnBTz+hLi
g+s6soMAMlsCLE8zhKsiZ68RikQlHexxPcycHKMmGRkJtHXmZbz4hoB1MVZgUPgO
sAkob6VhNOsu9ubNuBmuaurbzpiioz6mjyHvlr4VoPR44z0CAwEAAaOBojCBnzAJ
BgNVHRMEAjAAMB0GA1UdDgQWBBRcJpS0VApj3fgpQEoK7bRfoE1LvjBRBgNVHSME
SjBIgBSJohv6qS0AZXBeUVYwayEkFBDChKEapBgwFjEUMBIGA1UEAwwLdGVhbTcx
MC1uZXSCFBcW6TiTN3QOf/PDpNy5ePLsOKHsMBMGA1UdJQQMMAoGCCsGAQUFBwMC
MAsGA1UdDwQEAwIHgDANBgkqhkiG9w0BAQsFAAOCAQEAY/eAWrAAkuf/I6rkfhqA
MR+0dB5NIRz5GxVonasHf8EEAX5ZpxO6B40ZsepASLuaDMSorjuSkRu0zq987CJx
AUcDBrRhbhS0a8B/nAmA9Nt9QE9LYbBpp1HSTqSkcxsBFDuYBBVF+r7fYrZaBL2b
qf72h7YIpx1nuqBieVUOxH/pFoIvn6s2ZOqrYp1EYiQJuXSW+06log2TphbpTmjI
glrE9K8tPFnONs3yCT1ZRxhUeeuHWjIqWy90TLb0oyWQxPs8cDghbJFYc6WzBam7
+vaHKxHCqkK1t6jd1T+Yjn3vr0GsbMq27m+igrdAR2+L7zt5M+k+UvfohJ/UJMfL
yA==
-----END CERTIFICATE-----
