Certificate:
    Data:
        Version: 3 (0x2)
        Serial Number:
            1c:57:d0:0d:f6:87:12:9a:13:94:2c:03:ad:f3:9f:b7
        Signature Algorithm: sha256WithRSAEncryption
        Issuer: CN=team592-net
        Validity
            Not Before: Sep 13 04:09:26 2021 GMT
            Not After : Aug 28 04:09:26 2024 GMT
        Subject: CN=team592-client
        Subject Public Key Info:
            Public Key Algorithm: rsaEncryption
                RSA Public-Key: (2048 bit)
                Modulus:
                    00:dd:20:da:50:f4:7d:50:f3:85:ee:e3:fc:24:88:
                    ec:a3:d9:37:06:62:ac:b2:32:50:b6:63:78:e1:c5:
                    4c:72:a6:e6:32:3d:68:82:4b:4c:b5:20:09:55:80:
                    81:9d:00:3f:cd:a5:b4:a3:c7:a9:e7:fa:da:0a:0d:
                    f8:a3:68:42:10:da:a6:9f:9d:23:a5:17:38:de:d9:
                    41:9b:c3:ba:f7:79:f2:22:d8:c5:3a:bc:99:f6:91:
                    f5:7f:fe:ce:d3:0e:7e:02:4c:0e:23:a6:ae:00:a0:
                    a7:12:cf:54:78:8d:5b:bb:94:3d:cd:cb:5d:51:fd:
                    6d:f8:e6:42:6b:6e:ee:75:f3:78:1b:b2:0b:38:2f:
                    12:3e:87:b3:7a:55:2f:fb:d7:bd:1c:4a:48:9d:a5:
                    cb:81:77:5d:54:bf:d7:3c:e3:04:e5:21:a0:15:68:
                    3d:1b:ae:7e:a3:52:84:2a:56:35:9c:83:78:83:38:
                    48:41:89:8f:10:ae:20:50:b9:4d:86:b0:4f:8b:76:
                    b9:d0:99:62:80:d7:fd:21:7a:1b:46:b0:9b:14:c1:
                    df:52:37:e4:11:1e:33:26:ef:8a:48:7f:8d:6d:c7:
                    46:ab:10:37:e7:8a:ba:18:37:80:47:19:8c:ec:ae:
                    32:cd:21:17:ac:c4:5f:0d:b0:8a:ca:a8:ce:a1:2c:
                    cb:c5
                Exponent: 65537 (0x10001)
        X509v3 extensions:
            X509v3 Basic Constraints: 
                CA:FALSE
            X509v3 Subject Key Identifier: 
                31:90:13:CF:6C:FE:19:4A:40:81:AC:F1:EF:39:F1:E9:87:CE:72:BF
            X509v3 Authority Key Identifier: 
                keyid:B9:E9:20:4E:5F:E6:43:39:D6:81:EC:F6:81:D2:F6:DA:31:39:AF:B8
                DirName:/CN=team592-net
                serial:25:99:56:0B:7F:6D:F5:11:6F:23:11:4E:AA:AD:BF:BB:F7:68:F3:7E

            X509v3 Extended Key Usage: 
                TLS Web Client Authentication
            X509v3 Key Usage: 
                Digital Signature
    Signature Algorithm: sha256WithRSAEncryption
         77:9e:63:0c:05:c0:8b:ba:9e:20:7e:f2:a0:e7:bb:3b:f5:11:
         19:a3:e7:e0:49:7e:02:9a:88:22:3e:ef:30:1b:22:52:d9:b2:
         4b:46:6c:af:f8:4a:52:ba:79:c1:94:59:af:2c:30:ca:a3:17:
         a5:af:c4:42:cf:37:66:61:ac:5a:8d:19:85:df:0e:28:eb:a6:
         d8:f4:e3:70:2e:bc:bb:0f:33:e3:54:f7:14:c1:03:50:53:ed:
         e0:5e:cc:97:96:c8:32:e0:71:39:75:f1:37:79:71:fa:f7:ab:
         bd:96:ba:a0:a5:ba:bd:52:9e:1b:ee:8e:f8:82:1c:2a:b5:2f:
         9f:2c:89:ac:06:ff:17:f6:f6:ea:8c:a0:be:32:2c:c5:37:6b:
         05:c2:2c:46:62:1d:38:b4:ed:7a:c0:ce:d2:2b:ac:70:f8:89:
         a4:58:cd:c7:b3:ac:f9:0a:cd:3f:03:6e:8e:b3:61:1c:9d:c3:
         57:c4:d2:0d:76:87:39:a5:ea:db:22:18:b4:6d:97:e4:c0:a5:
         91:a9:60:8a:3b:e2:12:6c:9a:e1:97:4f:55:bb:f3:48:63:49:
         35:02:b0:98:ef:0b:1f:82:0d:10:94:b5:88:c1:6a:91:4a:7f:
         80:a7:6f:3d:3e:42:18:b8:90:cd:5d:16:01:75:0e:a7:a4:ed:
         61:98:24:9d
-----BEGIN CERTIFICATE-----
MIIDXDCCAkSgAwIBAgIQHFfQDfaHEpoTlCwDrfOftzANBgkqhkiG9w0BAQsFADAW
MRQwEgYDVQQDDAt0ZWFtNTkyLW5ldDAeFw0yMTA5MTMwNDA5MjZaFw0yNDA4Mjgw
NDA5MjZaMBkxFzAVBgNVBAMMDnRlYW01OTItY2xpZW50MIIBIjANBgkqhkiG9w0B
AQEFAAOCAQ8AMIIBCgKCAQEA3SDaUPR9UPOF7uP8JIjso9k3BmKssjJQtmN44cVM
cqbmMj1ogktMtSAJVYCBnQA/zaW0o8ep5/raCg34o2hCENqmn50jpRc43tlBm8O6
93nyItjFOryZ9pH1f/7O0w5+AkwOI6auAKCnEs9UeI1bu5Q9zctdUf1t+OZCa27u
dfN4G7ILOC8SPoezelUv+9e9HEpInaXLgXddVL/XPOME5SGgFWg9G65+o1KEKlY1
nIN4gzhIQYmPEK4gULlNhrBPi3a50JligNf9IXobRrCbFMHfUjfkER4zJu+KSH+N
bcdGqxA354q6GDeARxmM7K4yzSEXrMRfDbCKyqjOoSzLxQIDAQABo4GiMIGfMAkG
A1UdEwQCMAAwHQYDVR0OBBYEFDGQE89s/hlKQIGs8e858emHznK/MFEGA1UdIwRK
MEiAFLnpIE5f5kM51oHs9oHS9toxOa+4oRqkGDAWMRQwEgYDVQQDDAt0ZWFtNTky
LW5ldIIUJZlWC39t9RFvIxFOqq2/u/do834wEwYDVR0lBAwwCgYIKwYBBQUHAwIw
CwYDVR0PBAQDAgeAMA0GCSqGSIb3DQEBCwUAA4IBAQB3nmMMBcCLup4gfvKg57s7
9REZo+fgSX4CmogiPu8wGyJS2bJLRmyv+EpSunnBlFmvLDDKoxelr8RCzzdmYaxa
jRmF3w4o66bY9ONwLry7DzPjVPcUwQNQU+3gXsyXlsgy4HE5dfE3eXH696u9lrqg
pbq9Up4b7o74ghwqtS+fLImsBv8X9vbqjKC+MizFN2sFwixGYh04tO16wM7SK6xw
+ImkWM3Hs6z5Cs0/A26Os2EcncNXxNINdoc5perbIhi0bZfkwKWRqWCKO+ISbJrh
l09Vu/NIY0k1ArCY7wsfgg0QlLWIwWqRSn+Ap289PkIYuJDNXRYBdQ6npO1hmCSd
-----END CERTIFICATE-----
