Certificate:
    Data:
        Version: 3 (0x2)
        Serial Number:
            eb:d6:92:9d:07:31:0e:bb:ae:b9:3f:12:c2:ac:d0:dc
        Signature Algorithm: sha256WithRSAEncryption
        Issuer: CN=team592-net
        Validity
            Not Before: Sep 13 04:09:27 2021 GMT
            Not After : Aug 28 04:09:27 2024 GMT
        Subject: CN=team592-server
        Subject Public Key Info:
            Public Key Algorithm: rsaEncryption
                RSA Public-Key: (2048 bit)
                Modulus:
                    00:bf:af:38:95:59:13:3b:a0:43:c1:d9:5b:67:b0:
                    cc:45:0e:85:aa:fd:5d:89:9e:85:c8:c3:3f:98:61:
                    ab:09:8b:7b:65:02:35:21:33:bb:1d:6b:a5:64:6c:
                    ee:40:4a:ee:28:f3:35:df:32:19:49:ad:9c:c6:de:
                    b8:8c:63:88:34:c0:ad:4e:25:43:56:ff:b3:fc:dc:
                    36:0d:b8:7e:62:ff:b1:a9:82:7a:a6:03:e0:ce:09:
                    97:d4:b1:f5:96:2c:ea:ad:14:42:db:98:25:71:50:
                    02:90:74:dd:7c:7b:83:4b:33:b7:b0:a2:6f:2a:95:
                    d8:46:e1:c2:83:11:23:10:99:08:24:f0:b3:7d:91:
                    0d:eb:71:c5:e9:c3:1f:22:cd:37:d7:da:b7:7b:f0:
                    56:74:3f:e6:43:04:94:75:38:b3:e6:10:c0:a5:d3:
                    f1:3c:dc:d4:22:0d:fa:b2:f4:b2:ea:e6:5b:f8:5b:
                    b5:a6:67:05:8b:79:f4:f3:77:31:4d:a8:40:40:73:
                    02:84:66:85:73:a4:99:9c:5a:11:a5:f5:91:a0:a4:
                    57:6b:7f:d9:9a:18:e2:9f:52:34:7d:03:cc:b3:29:
                    af:b1:4b:99:a6:6d:ee:72:37:2b:c0:0b:c3:da:6a:
                    24:ab:31:77:8d:8b:06:ac:13:8d:d8:a7:4e:dd:4b:
                    bf:e9
                Exponent: 65537 (0x10001)
        X509v3 extensions:
            X509v3 Basic Constraints: 
                CA:FALSE
            X509v3 Subject Key Identifier: 
                91:CB:BA:B2:57:D5:3A:A1:6D:78:85:9F:28:9A:55:1F:04:6D:7E:54
            X509v3 Authority Key Identifier: 
                keyid:B9:E9:20:4E:5F:E6:43:39:D6:81:EC:F6:81:D2:F6:DA:31:39:AF:B8
                DirName:/CN=team592-net
                serial:25:99:56:0B:7F:6D:F5:11:6F:23:11:4E:AA:AD:BF:BB:F7:68:F3:7E

            X509v3 Extended Key Usage: 
                TLS Web Server Authentication
            X509v3 Key Usage: 
                Digital Signature, Key Encipherment
            X509v3 Subject Alternative Name: 
                DNS:team592-server
    Signature Algorithm: sha256WithRSAEncryption
         58:27:6e:82:4a:5e:12:34:9d:2c:a9:bb:c8:4a:55:4e:fb:34:
         35:e6:ae:83:b0:72:e4:a3:b8:67:05:71:d8:9f:10:b7:fb:4d:
         17:03:68:d6:a0:bf:30:2d:13:f8:a0:8a:34:70:00:60:43:d2:
         3f:ea:37:6c:41:0d:71:82:aa:fa:9f:0d:35:3e:a7:8a:6d:b7:
         12:4f:75:75:26:e3:a7:fe:35:50:c5:76:53:9b:1e:f4:6d:e9:
         e1:4a:97:3c:80:e3:23:f6:f3:6f:c0:9c:b5:04:32:65:d2:29:
         8c:75:97:41:af:d7:76:ed:22:50:3f:ac:fc:1b:6a:07:fc:7a:
         cc:c7:c4:a8:53:d5:c0:56:9b:b7:36:2d:37:7e:04:c2:23:1f:
         e8:1d:83:40:d6:7b:3c:75:22:3d:ea:2a:af:1e:76:a4:ab:e1:
         47:69:97:72:78:44:8e:8c:fc:d4:ba:71:d8:3f:da:8e:6f:bc:
         83:fe:b8:f6:64:a0:39:dc:e5:0e:0e:33:98:08:65:e2:12:42:
         c7:91:d0:53:26:70:79:a0:45:90:0e:02:05:cc:c5:96:8a:d9:
         dc:5b:01:8f:d9:0b:ec:33:3e:e2:db:35:39:62:17:e8:55:5b:
         11:9d:ce:29:87:86:92:f8:14:b0:9c:aa:5a:75:a9:13:29:7c:
         e6:f0:81:b3
-----BEGIN CERTIFICATE-----
MIIDeDCCAmCgAwIBAgIRAOvWkp0HMQ67rrk/EsKs0NwwDQYJKoZIhvcNAQELBQAw
FjEUMBIGA1UEAwwLdGVhbTU5Mi1uZXQwHhcNMjEwOTEzMDQwOTI3WhcNMjQwODI4
MDQwOTI3WjAZMRcwFQYDVQQDDA50ZWFtNTkyLXNlcnZlcjCCASIwDQYJKoZIhvcN
AQEBBQADggEPADCCAQoCggEBAL+vOJVZEzugQ8HZW2ewzEUOhar9XYmehcjDP5hh
qwmLe2UCNSEzux1rpWRs7kBK7ijzNd8yGUmtnMbeuIxjiDTArU4lQ1b/s/zcNg24
fmL/samCeqYD4M4Jl9Sx9ZYs6q0UQtuYJXFQApB03Xx7g0szt7CibyqV2EbhwoMR
IxCZCCTws32RDetxxenDHyLNN9fat3vwVnQ/5kMElHU4s+YQwKXT8Tzc1CIN+rL0
surmW/hbtaZnBYt59PN3MU2oQEBzAoRmhXOkmZxaEaX1kaCkV2t/2ZoY4p9SNH0D
zLMpr7FLmaZt7nI3K8ALw9pqJKsxd42LBqwTjdinTt1Lv+kCAwEAAaOBvTCBujAJ
BgNVHRMEAjAAMB0GA1UdDgQWBBSRy7qyV9U6oW14hZ8omlUfBG1+VDBRBgNVHSME
SjBIgBS56SBOX+ZDOdaB7PaB0vbaMTmvuKEapBgwFjEUMBIGA1UEAwwLdGVhbTU5
Mi1uZXSCFCWZVgt/bfURbyMRTqqtv7v3aPN+MBMGA1UdJQQMMAoGCCsGAQUFBwMB
MAsGA1UdDwQEAwIFoDAZBgNVHREEEjAQgg50ZWFtNTkyLXNlcnZlcjANBgkqhkiG
9w0BAQsFAAOCAQEAWCdugkpeEjSdLKm7yEpVTvs0Neaug7By5KO4ZwVx2J8Qt/tN
FwNo1qC/MC0T+KCKNHAAYEPSP+o3bEENcYKq+p8NNT6nim23Ek91dSbjp/41UMV2
U5se9G3p4UqXPIDjI/bzb8CctQQyZdIpjHWXQa/Xdu0iUD+s/BtqB/x6zMfEqFPV
wFabtzYtN34EwiMf6B2DQNZ7PHUiPeoqrx52pKvhR2mXcnhEjoz81Lpx2D/ajm+8
g/649mSgOdzlDg4zmAhl4hJCx5HQUyZweaBFkA4CBczFlorZ3FsBj9kL7DM+4ts1
OWIX6FVbEZ3OKYeGkvgUsJyqWnWpEyl85vCBsw==
-----END CERTIFICATE-----
