Certificate:
    Data:
        Version: 3 (0x2)
        Serial Number:
            5d:19:05:00:a8:48:44:9f:e6:5e:f6:c5:2f:14:ef:6a
        Signature Algorithm: sha256WithRSAEncryption
        Issuer: CN=team498-net
        Validity
            Not Before: Sep 13 03:06:30 2021 GMT
            Not After : Aug 28 03:06:30 2024 GMT
        Subject: CN=team498-client
        Subject Public Key Info:
            Public Key Algorithm: rsaEncryption
                RSA Public-Key: (2048 bit)
                Modulus:
                    00:d4:45:e5:89:1f:11:87:ce:79:0d:38:64:d4:63:
                    b7:c1:c8:86:07:0b:72:61:9a:d6:b4:5c:f3:68:c0:
                    8f:e8:f9:6f:f8:22:bd:cb:e7:02:16:b7:f9:ab:e9:
                    49:4c:b0:14:7c:fa:a4:f3:b5:18:b6:d2:ff:59:f0:
                    7e:27:5d:3c:94:1f:0b:b0:89:a0:2f:12:5b:17:02:
                    85:8a:6b:ed:a6:8c:c2:e4:9e:f7:0d:5b:91:4d:43:
                    a5:d3:ea:37:ac:2c:8d:3f:c4:0b:7c:12:01:4d:a6:
                    32:65:53:12:0b:dd:0c:99:6a:92:31:75:9c:55:e0:
                    5e:35:d8:cd:5b:0b:ea:bf:4a:97:17:91:a9:f4:70:
                    91:26:ee:91:2b:ff:a6:54:e2:e1:eb:0b:32:ed:a2:
                    5e:f1:88:eb:75:68:89:75:d2:63:6c:a4:64:ff:f8:
                    f3:82:d8:4e:39:ed:7e:89:c8:ef:76:ae:86:7d:e1:
                    31:3a:4c:f0:de:fe:a1:df:3a:66:6e:59:a7:9f:2e:
                    5d:a9:ab:fb:a8:f4:85:55:8d:a5:ee:32:13:41:0a:
                    3e:77:b4:81:4a:54:1f:02:2c:39:a6:45:03:0a:5a:
                    85:76:39:85:7d:23:ea:96:0f:6a:d0:38:d2:10:a5:
                    7d:97:47:b4:3d:6c:5b:f0:f0:8b:28:e8:bd:47:4e:
                    98:8d
                Exponent: 65537 (0x10001)
        X509v3 extensions:
            X509v3 Basic Constraints: 
                CA:FALSE
            X509v3 Subject Key Identifier: 
                6A:59:1B:13:3A:C1:24:AA:55:03:2A:DF:4B:10:51:5C:69:58:CA:AB
            X509v3 Authority Key Identifier: 
                keyid:0B:E4:E7:2A:8B:0D:D9:9C:EB:FA:21:80:07:B1:FE:67:4F:8F:95:FD
                DirName:/CN=team498-net
                serial:70:EE:BE:B4:97:7B:CA:D8:7A:EE:1D:CB:0C:2D:78:2D:62:8B:2F:A6

            X509v3 Extended Key Usage: 
                TLS Web Client Authentication
            X509v3 Key Usage: 
                Digital Signature
    Signature Algorithm: sha256WithRSAEncryption
         93:6b:43:08:ea:8b:63:32:b4:66:4a:7b:81:cd:db:cd:8e:2c:
         fc:6e:df:ca:93:cc:51:b7:31:c8:14:a2:d8:33:a7:73:72:04:
         3f:22:c5:b3:bb:86:56:7f:c7:19:47:25:1c:db:34:45:e0:1d:
         0e:f9:dd:89:71:3d:f6:22:c8:76:2a:07:0f:ca:fb:08:40:00:
         9b:71:2c:23:41:17:d7:ce:f6:18:7d:c5:0e:3f:14:1a:06:8b:
         12:5b:5e:45:60:3e:b9:75:f7:67:9a:7d:04:95:50:1e:a6:d1:
         03:b0:e7:de:2d:01:3e:b3:70:be:f2:6f:bb:7c:e8:7f:a2:ac:
         a6:04:f4:ae:73:f0:ef:4a:88:50:6c:c3:91:98:69:a3:0a:80:
         ab:02:1f:5f:4b:1d:07:9d:4b:c5:2f:62:86:92:ea:c0:9e:04:
         17:3c:2a:8a:44:5f:8a:ec:b7:a0:e5:84:c1:5b:23:90:f5:82:
         0a:77:a8:98:72:da:ff:1e:82:67:e9:6f:55:3d:e1:6c:11:02:
         33:00:e7:de:dd:d7:b0:7b:5d:a3:63:01:19:9d:72:a3:90:48:
         40:6e:16:25:52:71:f9:fc:39:68:5f:9c:26:9a:22:8a:34:3e:
         f6:d2:02:62:c1:5e:10:04:97:a0:32:0e:83:78:f0:e0:a8:31:
         6d:9a:3a:17
-----BEGIN CERTIFICATE-----
MIIDXDCCAkSgAwIBAgIQXRkFAKhIRJ/mXvbFLxTvajANBgkqhkiG9w0BAQsFADAW
MRQwEgYDVQQDDAt0ZWFtNDk4LW5ldDAeFw0yMTA5MTMwMzA2MzBaFw0yNDA4Mjgw
MzA2MzBaMBkxFzAVBgNVBAMMDnRlYW00OTgtY2xpZW50MIIBIjANBgkqhkiG9w0B
AQEFAAOCAQ8AMIIBCgKCAQEA1EXliR8Rh855DThk1GO3wciGBwtyYZrWtFzzaMCP
6Plv+CK9y+cCFrf5q+lJTLAUfPqk87UYttL/WfB+J108lB8LsImgLxJbFwKFimvt
pozC5J73DVuRTUOl0+o3rCyNP8QLfBIBTaYyZVMSC90MmWqSMXWcVeBeNdjNWwvq
v0qXF5Gp9HCRJu6RK/+mVOLh6wsy7aJe8YjrdWiJddJjbKRk//jzgthOOe1+icjv
dq6GfeExOkzw3v6h3zpmblmnny5dqav7qPSFVY2l7jITQQo+d7SBSlQfAiw5pkUD
ClqFdjmFfSPqlg9q0DjSEKV9l0e0PWxb8PCLKOi9R06YjQIDAQABo4GiMIGfMAkG
A1UdEwQCMAAwHQYDVR0OBBYEFGpZGxM6wSSqVQMq30sQUVxpWMqrMFEGA1UdIwRK
MEiAFAvk5yqLDdmc6/ohgAex/mdPj5X9oRqkGDAWMRQwEgYDVQQDDAt0ZWFtNDk4
LW5ldIIUcO6+tJd7yth67h3LDC14LWKLL6YwEwYDVR0lBAwwCgYIKwYBBQUHAwIw
CwYDVR0PBAQDAgeAMA0GCSqGSIb3DQEBCwUAA4IBAQCTa0MI6otjMrRmSnuBzdvN
jiz8bt/Kk8xRtzHIFKLYM6dzcgQ/IsWzu4ZWf8cZRyUc2zRF4B0O+d2JcT32Ish2
KgcPyvsIQACbcSwjQRfXzvYYfcUOPxQaBosSW15FYD65dfdnmn0ElVAeptEDsOfe
LQE+s3C+8m+7fOh/oqymBPSuc/DvSohQbMORmGmjCoCrAh9fSx0HnUvFL2KGkurA
ngQXPCqKRF+K7Leg5YTBWyOQ9YIKd6iYctr/HoJn6W9VPeFsEQIzAOfe3dewe12j
YwEZnXKjkEhAbhYlUnH5/DloX5wmmiKKND720gJiwV4QBJegMg6DePDgqDFtmjoX
-----END CERTIFICATE-----
