Certificate:
    Data:
        Version: 3 (0x2)
        Serial Number:
            ad:ae:77:c3:b8:ee:75:37:9b:e1:38:44:34:4c:5f:1e
        Signature Algorithm: sha256WithRSAEncryption
        Issuer: CN=team498-net
        Validity
            Not Before: Sep 13 03:06:30 2021 GMT
            Not After : Aug 28 03:06:30 2024 GMT
        Subject: CN=team498-server
        Subject Public Key Info:
            Public Key Algorithm: rsaEncryption
                RSA Public-Key: (2048 bit)
                Modulus:
                    00:b5:2a:29:f3:c0:88:a4:bc:9b:b4:8f:6f:4a:83:
                    be:36:a6:5d:d8:3a:40:f2:f4:94:67:26:0e:d6:0e:
                    ad:ef:1b:3d:b8:af:e7:cb:74:36:07:99:29:9f:69:
                    90:2a:81:02:a8:10:0b:68:c3:66:0e:fe:3c:b3:93:
                    29:8f:54:eb:ae:c2:c1:2f:7a:f2:89:95:e6:e8:df:
                    88:cc:96:f7:7f:9f:c5:da:80:3e:9b:c1:f5:b8:74:
                    9e:13:07:0f:93:c0:f4:d5:1e:ab:63:26:1f:f4:6d:
                    c7:e9:47:73:ab:e5:51:6e:4d:cc:a9:08:a5:19:60:
                    11:74:d2:ae:5b:95:f2:54:bc:f8:7d:86:e2:a3:b4:
                    a0:e7:50:8f:16:60:00:2b:e9:ed:48:38:6c:c7:22:
                    ee:7b:d0:53:50:c6:db:b3:63:dd:0a:26:54:60:e3:
                    0d:8b:1e:68:a7:1f:9c:3f:ea:c5:0c:5f:14:56:71:
                    d7:20:29:33:3e:a5:73:5a:e6:f0:71:96:e0:0c:e4:
                    4d:01:30:8e:91:b5:8b:2d:84:f1:5a:de:d5:fb:eb:
                    e1:dd:ae:a0:61:f8:9c:ad:e2:1a:6e:aa:71:25:32:
                    f8:a4:8b:b3:04:92:5d:25:32:02:7c:a0:9a:b9:bc:
                    91:9d:b8:8b:00:61:44:c3:c9:5b:78:f9:40:e7:fc:
                    4e:59
                Exponent: 65537 (0x10001)
        X509v3 extensions:
            X509v3 Basic Constraints: 
                CA:FALSE
            X509v3 Subject Key Identifier: 
                92:C9:E9:5F:77:E7:51:CE:6C:05:71:5B:20:75:C7:27:00:8B:46:7D
            X509v3 Authority Key Identifier: 
                keyid:0B:E4:E7:2A:8B:0D:D9:9C:EB:FA:21:80:07:B1:FE:67:4F:8F:95:FD
                DirName:/CN=team498-net
                serial:70:EE:BE:B4:97:7B:CA:D8:7A:EE:1D:CB:0C:2D:78:2D:62:8B:2F:A6

            X509v3 Extended Key Usage: 
                TLS Web Server Authentication
            X509v3 Key Usage: 
                Digital Signature, Key Encipherment
            X509v3 Subject Alternative Name: 
                DNS:team498-server
    Signature Algorithm: sha256WithRSAEncryption
         37:f8:2e:02:47:69:94:72:15:35:b8:cd:4d:b3:5a:ce:87:f1:
         b4:66:c5:1f:8b:15:1a:36:d3:38:87:a0:f4:39:e5:2c:ea:c9:
         c6:25:eb:14:4d:e8:8d:90:8f:01:fa:5e:d5:c0:3b:33:4b:69:
         e1:50:db:a3:9f:4f:3f:a2:bd:e3:8e:c8:bd:8d:83:6a:08:f7:
         78:7a:59:f9:d8:be:13:c8:6d:26:46:06:09:fd:cb:f7:e6:03:
         ba:7a:8a:0c:63:3a:c9:12:8d:6a:a4:fc:87:77:42:1e:6d:3f:
         12:a7:de:ac:6c:bb:36:f9:8c:da:89:58:4e:d7:e6:28:62:2f:
         a7:da:eb:e2:6e:af:b1:53:f9:e7:6c:f2:ec:8b:2d:74:29:17:
         a1:8c:ff:21:4a:fe:3a:7b:9f:7c:3d:14:ee:d4:66:51:49:94:
         a1:f8:d6:ed:1c:48:62:75:bc:2f:02:93:44:88:9c:fa:bf:a5:
         17:ef:e1:e5:c7:2d:de:6e:8d:39:7a:bc:19:7d:55:b2:ce:6f:
         7f:7c:91:e2:ca:df:b4:7c:50:aa:b6:3e:5d:96:bc:8c:51:52:
         bc:26:b6:65:44:c8:ed:4c:71:7c:57:68:17:19:f2:2a:12:8f:
         63:dc:1f:59:2e:a2:5b:28:64:4d:1d:48:64:90:fc:56:3c:5b:
         d2:5c:57:01
-----BEGIN CERTIFICATE-----
MIIDeDCCAmCgAwIBAgIRAK2ud8O47nU3m+E4RDRMXx4wDQYJKoZIhvcNAQELBQAw
FjEUMBIGA1UEAwwLdGVhbTQ5OC1uZXQwHhcNMjEwOTEzMDMwNjMwWhcNMjQwODI4
MDMwNjMwWjAZMRcwFQYDVQQDDA50ZWFtNDk4LXNlcnZlcjCCASIwDQYJKoZIhvcN
AQEBBQADggEPADCCAQoCggEBALUqKfPAiKS8m7SPb0qDvjamXdg6QPL0lGcmDtYO
re8bPbiv58t0NgeZKZ9pkCqBAqgQC2jDZg7+PLOTKY9U667CwS968omV5ujfiMyW
93+fxdqAPpvB9bh0nhMHD5PA9NUeq2MmH/Rtx+lHc6vlUW5NzKkIpRlgEXTSrluV
8lS8+H2G4qO0oOdQjxZgACvp7Ug4bMci7nvQU1DG27Nj3QomVGDjDYseaKcfnD/q
xQxfFFZx1yApMz6lc1rm8HGW4AzkTQEwjpG1iy2E8Vre1fvr4d2uoGH4nK3iGm6q
cSUy+KSLswSSXSUyAnygmrm8kZ24iwBhRMPJW3j5QOf8TlkCAwEAAaOBvTCBujAJ
BgNVHRMEAjAAMB0GA1UdDgQWBBSSyelfd+dRzmwFcVsgdccnAItGfTBRBgNVHSME
SjBIgBQL5Ocqiw3ZnOv6IYAHsf5nT4+V/aEapBgwFjEUMBIGA1UEAwwLdGVhbTQ5
OC1uZXSCFHDuvrSXe8rYeu4dywwteC1iiy+mMBMGA1UdJQQMMAoGCCsGAQUFBwMB
MAsGA1UdDwQEAwIFoDAZBgNVHREEEjAQgg50ZWFtNDk4LXNlcnZlcjANBgkqhkiG
9w0BAQsFAAOCAQEAN/guAkdplHIVNbjNTbNazofxtGbFH4sVGjbTOIeg9DnlLOrJ
xiXrFE3ojZCPAfpe1cA7M0tp4VDbo59PP6K9447IvY2Dagj3eHpZ+di+E8htJkYG
Cf3L9+YDunqKDGM6yRKNaqT8h3dCHm0/EqferGy7NvmM2olYTtfmKGIvp9rr4m6v
sVP552zy7IstdCkXoYz/IUr+OnuffD0U7tRmUUmUofjW7RxIYnW8LwKTRIic+r+l
F+/h5cct3m6NOXq8GX1Vss5vf3yR4srftHxQqrY+XZa8jFFSvCa2ZUTI7UxxfFdo
FxnyKhKPY9wfWS6iWyhkTR1IZJD8Vjxb0lxXAQ==
-----END CERTIFICATE-----
