Certificate:
    Data:
        Version: 3 (0x2)
        Serial Number:
            01:17:0f:ad:a2:87:25:1a:c0:e7:03:41:f1:f2:31:23
        Signature Algorithm: sha256WithRSAEncryption
        Issuer: CN=team174-net
        Validity
            Not Before: Sep 13 00:15:49 2021 GMT
            Not After : Aug 28 00:15:49 2024 GMT
        Subject: CN=team174-client
        Subject Public Key Info:
            Public Key Algorithm: rsaEncryption
                RSA Public-Key: (2048 bit)
                Modulus:
                    00:d2:2d:f7:7f:19:4f:d0:1e:39:06:31:1b:92:b8:
                    c0:71:9a:2f:59:7c:9a:30:7a:79:3e:9a:f7:2d:37:
                    ab:ae:9a:20:a4:bd:c1:5b:b8:13:ea:ee:36:82:51:
                    48:24:a1:24:56:27:b7:04:27:8d:1b:a0:fa:f7:f2:
                    39:3f:6d:06:bd:9a:8d:26:c4:9f:0a:33:97:b4:3a:
                    18:dc:2b:b0:c8:ff:82:4d:cd:e5:86:2a:f7:84:99:
                    ec:94:7e:63:10:e2:98:91:69:0f:fe:02:9f:6d:33:
                    da:a2:75:0f:d1:27:49:23:6f:25:ce:8f:42:ad:d6:
                    df:bb:b0:49:2f:23:f7:d7:33:2a:79:6e:2a:58:d2:
                    0d:06:9a:9f:7c:86:03:c5:b9:91:8b:72:71:35:b6:
                    69:24:94:e8:01:e0:34:60:1f:cc:02:19:c6:49:92:
                    8f:17:47:4d:ae:e4:7c:1b:6c:af:73:4d:6c:05:86:
                    01:3a:8b:a5:2d:8f:16:2c:54:d0:be:a2:ec:8b:96:
                    ab:a5:e1:5d:ae:7a:04:20:f3:69:b2:41:a5:d3:8d:
                    d4:51:73:e9:60:a5:82:92:8b:50:4b:db:d6:2c:f5:
                    d7:47:b4:fb:ba:b9:c5:5c:fe:1a:1b:75:a3:a3:63:
                    c3:6c:ad:7a:80:fc:5c:a2:e8:12:7d:71:77:83:1d:
                    b1:c7
                Exponent: 65537 (0x10001)
        X509v3 extensions:
            X509v3 Basic Constraints: 
                CA:FALSE
            X509v3 Subject Key Identifier: 
                72:61:19:92:B4:57:42:0E:59:AC:BC:4E:9D:47:C7:D6:CD:10:F6:E3
            X509v3 Authority Key Identifier: 
                keyid:AA:84:4B:4A:16:2A:0C:77:B5:FB:FD:CD:F1:8B:22:86:0E:42:BC:2A
                DirName:/CN=team174-net
                serial:6A:49:4B:69:DF:61:24:CF:6B:61:E5:56:2C:0E:60:85:D2:AA:4C:4D

            X509v3 Extended Key Usage: 
                TLS Web Client Authentication
            X509v3 Key Usage: 
                Digital Signature
    Signature Algorithm: sha256WithRSAEncryption
         69:2b:f3:71:9c:e1:1f:90:7a:d5:aa:50:d7:38:c1:ae:85:2e:
         8e:1b:f8:c1:b4:ce:d4:10:7a:e0:73:8b:d1:2f:b8:36:c4:58:
         fe:9f:ed:04:c1:5b:ed:e1:e2:2d:29:5c:08:28:48:41:30:07:
         31:2d:72:e0:e4:2c:01:5f:93:b5:58:90:91:61:db:d1:d6:a1:
         04:eb:11:69:f1:c0:9e:d2:d6:08:3b:d7:26:cb:71:3d:66:19:
         fe:14:fa:dc:3b:7e:7c:59:a5:47:3c:50:e5:54:ab:bb:e4:9c:
         58:6e:6d:85:6a:e6:cb:a9:30:79:a2:a2:cf:b7:4a:2a:8c:ed:
         f7:13:ad:ed:d5:14:06:c0:64:df:63:e2:1f:f4:96:8f:51:4d:
         99:8c:9e:74:b5:2b:47:ed:48:e1:8c:fb:10:f7:e7:e4:76:6c:
         19:40:82:ad:c6:f6:d2:05:12:62:52:9d:57:41:4c:6f:f9:38:
         61:7f:e1:bd:53:f8:c5:58:4c:a3:e1:14:25:f0:57:18:16:e2:
         e0:58:a1:a1:02:83:2a:54:68:2d:f0:e9:ec:71:a4:39:f0:04:
         62:f5:8e:b9:f2:42:3b:8f:f0:b6:07:c6:10:a1:c4:ff:17:83:
         92:11:40:4d:e2:13:9e:fc:6b:3e:04:ee:f7:60:28:14:29:ce:
         03:a2:b2:8b
-----BEGIN CERTIFICATE-----
MIIDXDCCAkSgAwIBAgIQARcPraKHJRrA5wNB8fIxIzANBgkqhkiG9w0BAQsFADAW
MRQwEgYDVQQDDAt0ZWFtMTc0LW5ldDAeFw0yMTA5MTMwMDE1NDlaFw0yNDA4Mjgw
MDE1NDlaMBkxFzAVBgNVBAMMDnRlYW0xNzQtY2xpZW50MIIBIjANBgkqhkiG9w0B
AQEFAAOCAQ8AMIIBCgKCAQEA0i33fxlP0B45BjEbkrjAcZovWXyaMHp5Ppr3LTer
rpogpL3BW7gT6u42glFIJKEkVie3BCeNG6D69/I5P20GvZqNJsSfCjOXtDoY3Cuw
yP+CTc3lhir3hJnslH5jEOKYkWkP/gKfbTPaonUP0SdJI28lzo9Crdbfu7BJLyP3
1zMqeW4qWNINBpqffIYDxbmRi3JxNbZpJJToAeA0YB/MAhnGSZKPF0dNruR8G2yv
c01sBYYBOoulLY8WLFTQvqLsi5arpeFdrnoEIPNpskGl043UUXPpYKWCkotQS9vW
LPXXR7T7urnFXP4aG3Wjo2PDbK16gPxcougSfXF3gx2xxwIDAQABo4GiMIGfMAkG
A1UdEwQCMAAwHQYDVR0OBBYEFHJhGZK0V0IOWay8Tp1Hx9bNEPbjMFEGA1UdIwRK
MEiAFKqES0oWKgx3tfv9zfGLIoYOQrwqoRqkGDAWMRQwEgYDVQQDDAt0ZWFtMTc0
LW5ldIIUaklLad9hJM9rYeVWLA5ghdKqTE0wEwYDVR0lBAwwCgYIKwYBBQUHAwIw
CwYDVR0PBAQDAgeAMA0GCSqGSIb3DQEBCwUAA4IBAQBpK/NxnOEfkHrVqlDXOMGu
hS6OG/jBtM7UEHrgc4vRL7g2xFj+n+0EwVvt4eItKVwIKEhBMAcxLXLg5CwBX5O1
WJCRYdvR1qEE6xFp8cCe0tYIO9cmy3E9Zhn+FPrcO358WaVHPFDlVKu75JxYbm2F
aubLqTB5oqLPt0oqjO33E63t1RQGwGTfY+If9JaPUU2ZjJ50tStH7UjhjPsQ9+fk
dmwZQIKtxvbSBRJiUp1XQUxv+Thhf+G9U/jFWEyj4RQl8FcYFuLgWKGhAoMqVGgt
8OnscaQ58ARi9Y658kI7j/C2B8YQocT/F4OSEUBN4hOe/Gs+BO73YCgUKc4DorKL
-----END CERTIFICATE-----
