Certificate:
    Data:
        Version: 3 (0x2)
        Serial Number:
            d6:ca:2b:73:6c:ad:a3:0d:c9:26:6f:80:43:7f:06:ac
        Signature Algorithm: sha256WithRSAEncryption
        Issuer: CN=team18-net
        Validity
            Not Before: Sep 12 22:49:08 2021 GMT
            Not After : Aug 27 22:49:08 2024 GMT
        Subject: CN=team18-server
        Subject Public Key Info:
            Public Key Algorithm: rsaEncryption
                RSA Public-Key: (2048 bit)
                Modulus:
                    00:c3:49:80:87:9d:f7:84:d4:ea:de:81:14:21:49:
                    1a:5e:b0:32:98:be:1f:85:0f:ea:64:1b:fa:40:27:
                    a3:71:fb:56:fa:3c:99:3d:53:be:88:cf:2f:82:b7:
                    93:20:da:95:60:c9:fd:01:d2:4d:c3:f4:f5:3e:18:
                    a2:fe:21:40:df:29:96:0c:94:8f:28:aa:b9:da:4f:
                    9c:93:6a:1b:f3:8c:af:0e:c0:52:ec:a8:d1:8c:8e:
                    2d:5b:ab:0e:91:3a:ff:6b:51:d8:bb:aa:78:07:c7:
                    3b:47:9d:fe:50:0e:9d:f7:10:68:f0:9b:54:20:d6:
                    7e:66:ce:b3:ae:c1:84:a9:80:84:e9:b2:d1:c9:90:
                    b3:bd:e3:54:25:e4:15:0a:43:2a:06:58:7a:cd:95:
                    47:26:0b:33:ea:cb:ea:d0:53:c0:8f:b6:fd:85:49:
                    e0:2e:2b:2a:c9:6c:33:ff:ee:e5:b7:b2:60:8a:3f:
                    11:b7:8d:b8:e7:06:a3:ef:a2:93:1e:8f:a1:59:6e:
                    45:60:29:d7:b7:ce:63:6f:6b:52:47:76:6a:5c:06:
                    31:54:2d:ef:8c:14:0e:7a:fa:a7:7c:5a:b7:76:b6:
                    57:a2:a8:74:99:a4:5e:e1:8c:7f:0e:74:ac:fc:74:
                    5a:47:cd:eb:e9:2f:0f:71:0c:5a:c5:d4:94:d5:ab:
                    89:e7
                Exponent: 65537 (0x10001)
        X509v3 extensions:
            X509v3 Basic Constraints: 
                CA:FALSE
            X509v3 Subject Key Identifier: 
                4F:1D:90:20:53:A6:1F:7F:42:96:24:DB:D4:48:20:0E:B3:6E:A8:BB
            X509v3 Authority Key Identifier: 
                keyid:CA:62:3D:E7:10:52:9F:2E:7D:86:1A:DE:88:AC:A3:84:88:B9:A5:09
                DirName:/CN=team18-net
                serial:0B:6A:FC:43:C3:DD:D7:BC:FA:33:D1:77:F0:70:D0:12:D5:4B:44:4B

            X509v3 Extended Key Usage: 
                TLS Web Server Authentication
            X509v3 Key Usage: 
                Digital Signature, Key Encipherment
            X509v3 Subject Alternative Name: 
                DNS:team18-server
    Signature Algorithm: sha256WithRSAEncryption
         8a:8e:05:6f:8d:10:16:8d:d7:a4:af:26:e4:9a:74:aa:94:14:
         eb:59:01:c3:6b:34:f0:d0:86:f9:1b:32:4d:39:ea:34:ad:49:
         83:43:8d:90:c5:16:50:f6:68:3d:90:24:7c:11:19:c8:fe:74:
         34:4f:db:f5:49:33:f2:93:0f:b1:01:f8:ab:60:9d:6f:ef:fb:
         e2:26:3b:6b:dd:cf:f0:e3:71:85:53:fb:c6:b1:f2:16:df:cb:
         c0:69:3e:3a:f5:33:61:f4:5c:ed:0c:37:4b:a3:1c:2f:bb:78:
         f4:ad:d2:b1:04:9a:8b:57:82:cc:a8:a5:52:68:ee:b1:9b:ce:
         81:60:84:12:04:09:50:68:8c:69:3d:3b:9f:d9:fc:fb:31:ab:
         5c:65:38:b7:4f:da:fe:dc:22:bd:75:ce:1e:81:3d:f6:76:89:
         09:f4:07:65:82:7f:d9:11:aa:d8:60:40:61:40:d9:00:45:25:
         1b:84:ca:12:e4:24:67:1f:e5:53:54:cb:4c:e5:de:4a:d1:96:
         82:49:96:15:00:6e:fc:ba:04:f5:06:53:90:25:6a:c5:c9:ce:
         f7:4f:91:ce:c0:31:7d:b6:7c:12:72:49:84:7a:2a:8a:fe:fd:
         05:c3:7e:d7:d4:2d:1f:e2:b9:d1:c3:70:9a:e5:a6:6c:94:f8:
         01:05:ad:6a
-----BEGIN CERTIFICATE-----
MIIDdDCCAlygAwIBAgIRANbKK3NsraMNySZvgEN/BqwwDQYJKoZIhvcNAQELBQAw
FTETMBEGA1UEAwwKdGVhbTE4LW5ldDAeFw0yMTA5MTIyMjQ5MDhaFw0yNDA4Mjcy
MjQ5MDhaMBgxFjAUBgNVBAMMDXRlYW0xOC1zZXJ2ZXIwggEiMA0GCSqGSIb3DQEB
AQUAA4IBDwAwggEKAoIBAQDDSYCHnfeE1OregRQhSRpesDKYvh+FD+pkG/pAJ6Nx
+1b6PJk9U76Izy+Ct5Mg2pVgyf0B0k3D9PU+GKL+IUDfKZYMlI8oqrnaT5yTahvz
jK8OwFLsqNGMji1bqw6ROv9rUdi7qngHxztHnf5QDp33EGjwm1Qg1n5mzrOuwYSp
gITpstHJkLO941Ql5BUKQyoGWHrNlUcmCzPqy+rQU8CPtv2FSeAuKyrJbDP/7uW3
smCKPxG3jbjnBqPvopMej6FZbkVgKde3zmNva1JHdmpcBjFULe+MFA56+qd8Wrd2
tleiqHSZpF7hjH8OdKz8dFpHzevpLw9xDFrF1JTVq4nnAgMBAAGjgbswgbgwCQYD
VR0TBAIwADAdBgNVHQ4EFgQUTx2QIFOmH39CliTb1EggDrNuqLswUAYDVR0jBEkw
R4AUymI95xBSny59hhreiKyjhIi5pQmhGaQXMBUxEzARBgNVBAMMCnRlYW0xOC1u
ZXSCFAtq/EPD3de8+jPRd/Bw0BLVS0RLMBMGA1UdJQQMMAoGCCsGAQUFBwMBMAsG
A1UdDwQEAwIFoDAYBgNVHREEETAPgg10ZWFtMTgtc2VydmVyMA0GCSqGSIb3DQEB
CwUAA4IBAQCKjgVvjRAWjdekrybkmnSqlBTrWQHDazTw0Ib5GzJNOeo0rUmDQ42Q
xRZQ9mg9kCR8ERnI/nQ0T9v1STPykw+xAfirYJ1v7/viJjtr3c/w43GFU/vGsfIW
38vAaT469TNh9FztDDdLoxwvu3j0rdKxBJqLV4LMqKVSaO6xm86BYIQSBAlQaIxp
PTuf2fz7MatcZTi3T9r+3CK9dc4egT32dokJ9Adlgn/ZEarYYEBhQNkARSUbhMoS
5CRnH+VTVMtM5d5K0ZaCSZYVAG78ugT1BlOQJWrFyc73T5HOwDF9tnwSckmEeiqK
/v0Fw37X1C0f4rnRw3Ca5aZslPgBBa1q
-----END CERTIFICATE-----
