Certificate:
    Data:
        Version: 3 (0x2)
        Serial Number:
            74:40:87:92:97:2f:d8:9a:56:18:dc:c1:be:7d:40:f2
        Signature Algorithm: sha256WithRSAEncryption
        Issuer: CN=team327-net
        Validity
            Not Before: Sep 13 01:44:38 2021 GMT
            Not After : Aug 28 01:44:39 2024 GMT
        Subject: CN=team327-client
        Subject Public Key Info:
            Public Key Algorithm: rsaEncryption
                RSA Public-Key: (2048 bit)
                Modulus:
                    00:93:50:2f:af:f1:b7:c2:cf:19:a2:14:95:2e:d1:
                    5c:a1:fc:25:50:5e:04:69:0f:63:33:31:59:44:d3:
                    34:99:c2:d2:df:3c:68:ac:4f:b6:a5:e5:17:d5:f4:
                    86:2a:96:ca:5c:46:1b:f6:80:cd:c5:4d:67:25:79:
                    2e:b5:79:1b:cf:53:56:27:9a:c0:a4:d5:66:49:13:
                    37:3b:4d:73:4b:bc:36:85:b1:8d:cd:bc:64:22:e1:
                    59:b9:51:85:be:64:09:ab:b9:24:8c:0e:37:1b:d2:
                    43:95:c8:6d:b2:8e:d9:85:45:ef:18:54:63:3f:c2:
                    11:f2:22:e1:06:9f:0f:3f:27:71:56:1e:9e:e4:6c:
                    eb:58:14:aa:22:d2:88:a6:ff:c2:50:78:72:7f:37:
                    4d:e4:78:26:35:0f:66:6e:51:46:e9:8c:2b:0e:a3:
                    5e:e8:75:ee:91:f5:8c:4f:75:51:39:d5:5d:36:ff:
                    64:51:05:d1:93:d7:be:cf:a6:61:96:68:d2:6e:99:
                    77:54:c3:2a:dc:14:ef:b0:e8:c8:02:1c:13:7d:bf:
                    44:a9:07:05:cf:b7:a3:ef:e2:e4:8f:0b:4c:4b:a2:
                    20:74:16:82:7d:93:76:17:62:35:96:f7:25:46:b0:
                    2c:79:b2:67:8a:e6:4b:d4:6f:36:5e:49:b2:61:a9:
                    a9:2d
                Exponent: 65537 (0x10001)
        X509v3 extensions:
            X509v3 Basic Constraints: 
                CA:FALSE
            X509v3 Subject Key Identifier: 
                81:52:16:5A:42:AF:37:B4:D9:88:4D:82:14:58:E7:CB:CD:E9:CA:C7
            X509v3 Authority Key Identifier: 
                keyid:FD:65:26:5C:07:CE:C8:90:08:E7:B3:A5:0C:1E:44:24:97:4B:61:00
                DirName:/CN=team327-net
                serial:78:0B:F4:0C:54:7A:41:B2:D9:12:B5:67:F4:23:C8:EC:7A:57:B3:BD

            X509v3 Extended Key Usage: 
                TLS Web Client Authentication
            X509v3 Key Usage: 
                Digital Signature
    Signature Algorithm: sha256WithRSAEncryption
         b2:d6:d3:4b:1d:87:13:80:85:c4:63:28:05:6a:08:c7:b2:a2:
         15:c2:0b:8c:09:80:ad:f5:90:14:d3:a4:71:fb:2f:34:d7:a7:
         9c:bb:8d:8a:b2:43:2b:cb:c0:81:46:ef:3f:5e:98:37:50:2e:
         ac:41:56:4e:7e:7e:b4:b5:5f:90:e4:f7:46:6c:da:e2:b7:9e:
         96:f8:17:31:24:a4:12:3f:de:e7:2b:f0:c4:b2:46:f0:7e:c5:
         3a:0e:30:8a:d7:e9:67:4f:7b:ba:3c:62:13:81:3d:96:8a:f3:
         76:e0:25:6f:93:14:99:2f:b8:a3:48:8c:b0:00:70:f0:30:b0:
         27:6c:d2:2a:c5:02:12:f6:3e:15:de:74:8b:54:98:55:f2:14:
         f8:ed:64:63:79:06:49:03:d7:e9:ee:45:07:16:41:6b:e2:12:
         2a:83:3f:07:21:3b:65:51:d8:0b:2c:0e:df:69:95:18:d3:36:
         fa:3f:27:82:eb:5a:f3:f9:8e:1e:0b:25:f0:b3:01:5d:9d:6d:
         fe:0f:9e:00:30:29:e4:db:eb:8f:f0:8d:a2:0f:e0:e0:22:d8:
         9a:50:5b:03:57:ef:a8:2e:59:bb:79:7d:97:a0:be:dd:61:39:
         65:67:c0:aa:95:fa:e1:01:f3:db:6c:40:1c:ab:37:17:c0:2e:
         ab:3d:42:69
-----BEGIN CERTIFICATE-----
MIIDXDCCAkSgAwIBAgIQdECHkpcv2JpWGNzBvn1A8jANBgkqhkiG9w0BAQsFADAW
MRQwEgYDVQQDDAt0ZWFtMzI3LW5ldDAeFw0yMTA5MTMwMTQ0MzhaFw0yNDA4Mjgw
MTQ0MzlaMBkxFzAVBgNVBAMMDnRlYW0zMjctY2xpZW50MIIBIjANBgkqhkiG9w0B
AQEFAAOCAQ8AMIIBCgKCAQEAk1Avr/G3ws8ZohSVLtFcofwlUF4EaQ9jMzFZRNM0
mcLS3zxorE+2peUX1fSGKpbKXEYb9oDNxU1nJXkutXkbz1NWJ5rApNVmSRM3O01z
S7w2hbGNzbxkIuFZuVGFvmQJq7kkjA43G9JDlchtso7ZhUXvGFRjP8IR8iLhBp8P
PydxVh6e5GzrWBSqItKIpv/CUHhyfzdN5HgmNQ9mblFG6YwrDqNe6HXukfWMT3VR
OdVdNv9kUQXRk9e+z6ZhlmjSbpl3VMMq3BTvsOjIAhwTfb9EqQcFz7ej7+LkjwtM
S6IgdBaCfZN2F2I1lvclRrAsebJniuZL1G82XkmyYampLQIDAQABo4GiMIGfMAkG
A1UdEwQCMAAwHQYDVR0OBBYEFIFSFlpCrze02YhNghRY58vN6crHMFEGA1UdIwRK
MEiAFP1lJlwHzsiQCOezpQweRCSXS2EAoRqkGDAWMRQwEgYDVQQDDAt0ZWFtMzI3
LW5ldIIUeAv0DFR6QbLZErVn9CPI7HpXs70wEwYDVR0lBAwwCgYIKwYBBQUHAwIw
CwYDVR0PBAQDAgeAMA0GCSqGSIb3DQEBCwUAA4IBAQCy1tNLHYcTgIXEYygFagjH
sqIVwguMCYCt9ZAU06Rx+y8016ecu42KskMry8CBRu8/Xpg3UC6sQVZOfn60tV+Q
5PdGbNrit56W+BcxJKQSP97nK/DEskbwfsU6DjCK1+lnT3u6PGITgT2WivN24CVv
kxSZL7ijSIywAHDwMLAnbNIqxQIS9j4V3nSLVJhV8hT47WRjeQZJA9fp7kUHFkFr
4hIqgz8HITtlUdgLLA7faZUY0zb6PyeC61rz+Y4eCyXwswFdnW3+D54AMCnk2+uP
8I2iD+DgItiaUFsDV++oLlm7eX2XoL7dYTllZ8CqlfrhAfPbbEAcqzcXwC6rPUJp
-----END CERTIFICATE-----
