Certificate:
    Data:
        Version: 3 (0x2)
        Serial Number:
            d7:f6:6d:09:ba:ef:f6:c4:f5:5b:ab:24:07:05:37:bd
        Signature Algorithm: sha256WithRSAEncryption
        Issuer: CN=team501-net
        Validity
            Not Before: Sep 13 03:09:17 2021 GMT
            Not After : Aug 28 03:09:17 2024 GMT
        Subject: CN=team501-client
        Subject Public Key Info:
            Public Key Algorithm: rsaEncryption
                RSA Public-Key: (2048 bit)
                Modulus:
                    00:b8:73:e9:d4:8c:68:75:21:ff:8f:31:9e:53:1e:
                    03:b2:ed:f0:15:09:4c:30:78:f4:51:7a:d6:c5:98:
                    48:52:cf:b1:00:08:36:35:8d:d7:ef:fe:ae:0a:0f:
                    7c:7d:8f:27:78:58:17:5d:f0:77:60:99:ac:ed:d2:
                    ab:1e:98:2e:ca:62:5b:36:89:c5:f4:01:59:1c:b6:
                    c5:f1:e7:f4:54:c8:26:85:f9:6b:25:af:df:42:dc:
                    6b:ab:da:65:12:56:5e:33:37:c8:28:21:7d:64:2a:
                    00:a8:f0:a1:92:32:f5:5d:2e:da:6d:ee:19:3a:a9:
                    2c:6e:25:a0:5f:b2:69:cb:7c:5a:d8:06:91:9b:d8:
                    9d:61:85:d7:93:ca:9c:1a:7e:50:b2:f7:63:00:b3:
                    81:4e:d2:00:9e:f6:b6:ec:d0:e2:b4:23:dc:48:a6:
                    df:17:be:1b:d2:17:8e:8e:79:a7:dd:32:ed:2c:25:
                    ac:bf:da:22:bf:c6:f5:d6:da:b4:f6:50:b9:fb:d3:
                    e1:13:62:cd:fb:df:55:ea:6f:13:a6:42:7c:db:af:
                    1e:bb:2c:cd:6d:22:ee:17:0c:a5:11:0e:19:f8:fc:
                    bd:1b:4a:96:90:ba:b7:d4:93:3a:50:4f:b4:eb:15:
                    49:e5:79:92:06:0a:18:e5:c6:99:77:04:6e:ad:92:
                    61:41
                Exponent: 65537 (0x10001)
        X509v3 extensions:
            X509v3 Basic Constraints: 
                CA:FALSE
            X509v3 Subject Key Identifier: 
                DF:80:44:0E:18:0C:E4:38:8A:24:55:D5:C9:37:93:0C:D9:77:2F:A9
            X509v3 Authority Key Identifier: 
                keyid:E8:01:64:0E:0C:7B:C9:84:5B:C9:B2:49:55:91:96:31:AE:C2:68:26
                DirName:/CN=team501-net
                serial:2B:88:21:79:05:A5:E9:85:A3:AA:88:DD:38:91:26:F4:37:F2:FB:6E

            X509v3 Extended Key Usage: 
                TLS Web Client Authentication
            X509v3 Key Usage: 
                Digital Signature
    Signature Algorithm: sha256WithRSAEncryption
         9c:cf:fc:e2:4b:00:0d:fb:a3:5e:6b:e4:ea:09:72:d9:74:1a:
         49:4c:fa:69:71:5c:75:57:2f:97:12:f8:81:2c:e0:49:a6:2a:
         a5:e7:da:14:a6:9a:86:6e:ab:ca:12:42:92:41:e7:03:de:29:
         33:bb:02:e1:3a:37:20:0a:63:98:58:88:47:66:4f:88:b7:ce:
         98:d6:3f:87:32:13:8f:44:10:18:12:61:11:8e:8f:45:7a:ad:
         41:4e:c5:5b:3a:bb:40:2f:6e:79:59:c0:2d:a1:24:6a:85:fa:
         51:19:a1:49:be:6c:bd:14:48:73:a2:2d:b9:36:de:93:10:0c:
         61:32:b2:a5:98:ca:d8:5f:5c:e4:09:2a:fe:b6:f6:83:da:58:
         e6:b3:3d:c6:2c:a4:44:d9:40:21:bf:a9:94:88:61:74:1c:05:
         13:1d:f9:ae:46:33:6d:bf:f0:ce:94:74:93:22:9f:77:18:f0:
         85:e2:0c:8e:59:d7:8f:1e:2e:33:79:de:62:28:45:9e:ed:56:
         fe:09:62:9e:48:40:21:1a:a4:1d:a6:16:86:12:f0:66:5f:ca:
         c2:6a:53:de:65:d1:c0:82:70:d4:66:ec:2d:f4:af:3d:c7:ca:
         b8:2b:13:03:71:11:eb:24:97:ba:fa:2f:e6:a3:92:42:53:d2:
         8c:bd:10:8b
-----BEGIN CERTIFICATE-----
MIIDXTCCAkWgAwIBAgIRANf2bQm67/bE9VurJAcFN70wDQYJKoZIhvcNAQELBQAw
FjEUMBIGA1UEAwwLdGVhbTUwMS1uZXQwHhcNMjEwOTEzMDMwOTE3WhcNMjQwODI4
MDMwOTE3WjAZMRcwFQYDVQQDDA50ZWFtNTAxLWNsaWVudDCCASIwDQYJKoZIhvcN
AQEBBQADggEPADCCAQoCggEBALhz6dSMaHUh/48xnlMeA7Lt8BUJTDB49FF61sWY
SFLPsQAINjWN1+/+rgoPfH2PJ3hYF13wd2CZrO3Sqx6YLspiWzaJxfQBWRy2xfHn
9FTIJoX5ayWv30Lca6vaZRJWXjM3yCghfWQqAKjwoZIy9V0u2m3uGTqpLG4loF+y
act8WtgGkZvYnWGF15PKnBp+ULL3YwCzgU7SAJ72tuzQ4rQj3Eim3xe+G9IXjo55
p90y7SwlrL/aIr/G9dbatPZQufvT4RNizfvfVepvE6ZCfNuvHrsszW0i7hcMpREO
Gfj8vRtKlpC6t9STOlBPtOsVSeV5kgYKGOXGmXcEbq2SYUECAwEAAaOBojCBnzAJ
BgNVHRMEAjAAMB0GA1UdDgQWBBTfgEQOGAzkOIokVdXJN5MM2XcvqTBRBgNVHSME
SjBIgBToAWQODHvJhFvJsklVkZYxrsJoJqEapBgwFjEUMBIGA1UEAwwLdGVhbTUw
MS1uZXSCFCuIIXkFpemFo6qI3TiRJvQ38vtuMBMGA1UdJQQMMAoGCCsGAQUFBwMC
MAsGA1UdDwQEAwIHgDANBgkqhkiG9w0BAQsFAAOCAQEAnM/84ksADfujXmvk6gly
2XQaSUz6aXFcdVcvlxL4gSzgSaYqpefaFKaahm6ryhJCkkHnA94pM7sC4To3IApj
mFiIR2ZPiLfOmNY/hzITj0QQGBJhEY6PRXqtQU7FWzq7QC9ueVnALaEkaoX6URmh
Sb5svRRIc6ItuTbekxAMYTKypZjK2F9c5Akq/rb2g9pY5rM9xiykRNlAIb+plIhh
dBwFEx35rkYzbb/wzpR0kyKfdxjwheIMjlnXjx4uM3neYihFnu1W/glinkhAIRqk
HaYWhhLwZl/KwmpT3mXRwIJw1GbsLfSvPcfKuCsTA3ER6ySXuvov5qOSQlPSjL0Q
iw==
-----END CERTIFICATE-----
