Certificate:
    Data:
        Version: 3 (0x2)
        Serial Number:
            69:5c:66:d6:b1:30:9b:4b:58:cc:98:92:b6:de:6c:e7
        Signature Algorithm: sha256WithRSAEncryption
        Issuer: CN=team54-net
        Validity
            Not Before: Sep 12 23:11:49 2021 GMT
            Not After : Aug 27 23:11:49 2024 GMT
        Subject: CN=team54-client
        Subject Public Key Info:
            Public Key Algorithm: rsaEncryption
                RSA Public-Key: (2048 bit)
                Modulus:
                    00:c3:8e:51:01:3c:36:9c:02:64:ec:85:71:29:20:
                    1d:13:71:bd:09:5e:c6:2c:ae:f3:63:6d:be:f9:df:
                    1c:a6:8a:19:95:ba:e4:47:bb:7f:45:13:37:74:dc:
                    2e:a3:cd:5c:8c:44:d3:f6:82:e9:0e:19:e1:e1:7d:
                    d0:87:1b:48:1a:da:dc:39:de:f8:9f:b0:e3:e6:a8:
                    22:c8:1f:4b:c3:53:ad:bf:ed:95:d6:d8:21:d7:e6:
                    d9:4e:f5:52:af:6b:7b:1e:d2:c4:5a:92:89:b7:27:
                    be:ee:f0:3e:79:e0:8b:25:35:e5:58:87:d2:31:22:
                    d9:9c:66:b1:0e:51:9c:7c:54:3b:6a:5c:cf:ad:e0:
                    a4:d3:e0:56:a2:c6:ef:74:a3:31:41:4d:81:1c:86:
                    56:ca:94:82:4b:56:73:b0:97:17:8c:7e:b7:f4:e1:
                    c6:13:d7:ec:a5:85:0e:89:22:5d:6e:88:38:82:cd:
                    16:4f:16:98:3c:89:6e:08:0f:2e:b9:99:cb:90:23:
                    0d:4c:6a:1f:a7:f3:3e:bf:06:e4:5d:a0:a2:3a:ec:
                    29:f0:63:e5:7e:bf:78:ff:7e:18:84:a1:68:ee:4b:
                    0d:d3:f1:ad:81:92:8b:7b:34:69:5d:47:dd:45:8c:
                    e6:cd:88:20:32:f3:a0:18:bd:b8:4d:32:f5:f8:58:
                    c2:5d
                Exponent: 65537 (0x10001)
        X509v3 extensions:
            X509v3 Basic Constraints: 
                CA:FALSE
            X509v3 Subject Key Identifier: 
                5A:DE:30:24:6A:92:5D:FC:7C:6D:78:55:B2:14:BC:BC:99:11:61:77
            X509v3 Authority Key Identifier: 
                keyid:C8:DF:67:FA:9C:E2:9B:4C:8D:7D:73:D2:6A:27:28:DC:83:DA:1D:3A
                DirName:/CN=team54-net
                serial:4E:A1:6E:9C:3B:C6:75:FF:51:85:50:52:5C:E5:96:2F:05:CF:0E:C6

            X509v3 Extended Key Usage: 
                TLS Web Client Authentication
            X509v3 Key Usage: 
                Digital Signature
    Signature Algorithm: sha256WithRSAEncryption
         01:95:eb:e6:e8:81:c0:5b:9b:20:1d:3c:b0:d2:8f:13:63:99:
         d0:4f:f6:72:41:27:34:58:0c:43:df:41:19:47:79:56:1e:02:
         cb:1a:62:49:31:d1:96:d5:60:e6:0b:2b:1a:e0:1c:62:be:b4:
         e0:f0:89:67:19:1e:7d:ae:ab:8a:e2:4a:b9:2e:ae:85:dc:8d:
         ac:11:14:7d:8f:2f:4b:28:ae:7b:32:c3:86:4f:ca:ca:d0:a9:
         36:28:8d:dc:55:a6:f2:50:1b:60:16:78:a9:ea:96:40:91:c4:
         c5:cd:e4:80:0b:78:ff:de:f8:5f:83:91:64:de:20:e3:f0:a3:
         46:4e:d4:27:af:d4:ad:b4:f7:c7:c7:87:52:43:ee:90:9c:76:
         44:59:7b:a2:17:0a:5a:0d:8b:4b:31:d1:df:d7:05:ac:fb:86:
         35:33:7e:b3:ea:44:d3:04:3e:09:51:5c:72:aa:2d:2d:fd:fc:
         07:da:69:ec:ae:54:ec:9b:91:ee:a0:f4:71:7a:e2:ea:7a:28:
         cc:95:17:22:09:c3:32:1e:97:b5:8b:2d:8c:eb:70:44:94:ff:
         7d:66:55:ad:2f:bd:1c:c4:a7:87:1a:b6:4a:46:54:e4:bf:2a:
         f8:a9:7c:82:44:a8:b7:29:6d:85:86:05:a9:ea:9e:57:d0:ea:
         7e:7e:f5:96
-----BEGIN CERTIFICATE-----
MIIDWTCCAkGgAwIBAgIQaVxm1rEwm0tYzJiStt5s5zANBgkqhkiG9w0BAQsFADAV
MRMwEQYDVQQDDAp0ZWFtNTQtbmV0MB4XDTIxMDkxMjIzMTE0OVoXDTI0MDgyNzIz
MTE0OVowGDEWMBQGA1UEAwwNdGVhbTU0LWNsaWVudDCCASIwDQYJKoZIhvcNAQEB
BQADggEPADCCAQoCggEBAMOOUQE8NpwCZOyFcSkgHRNxvQlexiyu82NtvvnfHKaK
GZW65Ee7f0UTN3TcLqPNXIxE0/aC6Q4Z4eF90IcbSBra3Dne+J+w4+aoIsgfS8NT
rb/tldbYIdfm2U71Uq9rex7SxFqSibcnvu7wPnngiyU15ViH0jEi2ZxmsQ5RnHxU
O2pcz63gpNPgVqLG73SjMUFNgRyGVsqUgktWc7CXF4x+t/ThxhPX7KWFDokiXW6I
OILNFk8WmDyJbggPLrmZy5AjDUxqH6fzPr8G5F2gojrsKfBj5X6/eP9+GIShaO5L
DdPxrYGSi3s0aV1H3UWM5s2IIDLzoBi9uE0y9fhYwl0CAwEAAaOBoTCBnjAJBgNV
HRMEAjAAMB0GA1UdDgQWBBRa3jAkapJd/HxteFWyFLy8mRFhdzBQBgNVHSMESTBH
gBTI32f6nOKbTI19c9JqJyjcg9odOqEZpBcwFTETMBEGA1UEAwwKdGVhbTU0LW5l
dIIUTqFunDvGdf9RhVBSXOWWLwXPDsYwEwYDVR0lBAwwCgYIKwYBBQUHAwIwCwYD
VR0PBAQDAgeAMA0GCSqGSIb3DQEBCwUAA4IBAQABlevm6IHAW5sgHTyw0o8TY5nQ
T/ZyQSc0WAxD30EZR3lWHgLLGmJJMdGW1WDmCysa4BxivrTg8IlnGR59rquK4kq5
Lq6F3I2sERR9jy9LKK57MsOGT8rK0Kk2KI3cVabyUBtgFnip6pZAkcTFzeSAC3j/
3vhfg5Fk3iDj8KNGTtQnr9SttPfHx4dSQ+6QnHZEWXuiFwpaDYtLMdHf1wWs+4Y1
M36z6kTTBD4JUVxyqi0t/fwH2mnsrlTsm5HuoPRxeuLqeijMlRciCcMyHpe1iy2M
63BElP99ZlWtL70cxKeHGrZKRlTkvyr4qXyCRKi3KW2FhgWp6p5X0Op+fvWW
-----END CERTIFICATE-----
