Certificate:
    Data:
        Version: 3 (0x2)
        Serial Number:
            63:b3:d4:0f:0e:b4:7d:43:88:f8:0a:b0:63:26:1f:f7
        Signature Algorithm: sha256WithRSAEncryption
        Issuer: CN=team239-net
        Validity
            Not Before: Sep 13 00:57:22 2021 GMT
            Not After : Aug 28 00:57:22 2024 GMT
        Subject: CN=team239-client
        Subject Public Key Info:
            Public Key Algorithm: rsaEncryption
                RSA Public-Key: (2048 bit)
                Modulus:
                    00:c4:3c:41:46:5b:f0:2c:f0:de:65:e8:29:3b:36:
                    27:c4:ec:cb:c8:33:e9:2e:4d:df:a4:2f:e0:b4:f7:
                    f3:19:74:7b:07:5f:de:74:84:5a:43:b3:b5:2b:6d:
                    13:5b:e7:6d:65:e6:07:a2:8e:06:4f:cc:c7:b5:ad:
                    bc:c3:80:8a:02:5f:42:c4:44:13:49:94:08:ac:07:
                    3f:57:dd:d1:85:35:57:14:1b:5d:37:e5:b3:5d:98:
                    68:69:5c:9d:82:13:c2:a8:37:88:6c:70:e6:cb:e4:
                    84:b5:2b:68:c3:cf:29:ea:52:fd:1c:6d:7e:83:c6:
                    e4:93:be:60:9d:b7:96:ae:39:64:6f:4b:ea:fb:d2:
                    d5:55:e7:9a:1b:6e:c8:51:e0:18:70:17:c9:90:7b:
                    bd:27:cf:30:ff:a5:f1:ee:58:47:41:b8:6f:f9:35:
                    61:31:81:84:5e:66:1d:25:29:29:6b:1d:5e:d2:8a:
                    dc:75:11:5c:c1:70:42:0a:de:ee:7c:9e:5c:3a:70:
                    28:99:bc:c3:f8:3b:95:f4:f0:5e:00:22:92:78:8c:
                    e7:c1:d4:4e:29:55:18:71:e8:cc:e0:d8:2a:61:3d:
                    fd:65:d4:93:92:f1:08:e5:3c:af:88:8c:6e:f8:e2:
                    e7:21:55:87:c7:14:2f:22:cc:2b:e2:53:ac:9a:9c:
                    ab:b7
                Exponent: 65537 (0x10001)
        X509v3 extensions:
            X509v3 Basic Constraints: 
                CA:FALSE
            X509v3 Subject Key Identifier: 
                F3:FF:D8:C3:64:28:4E:F1:0E:8C:A1:5E:CA:29:B1:15:F1:0E:00:0E
            X509v3 Authority Key Identifier: 
                keyid:2D:C0:5C:99:36:4B:DC:95:42:FA:DE:DA:F4:C2:6F:C2:AE:21:22:0F
                DirName:/CN=team239-net
                serial:38:44:1F:DC:33:22:6C:DF:FD:35:7C:5F:53:7C:AF:07:52:82:17:F0

            X509v3 Extended Key Usage: 
                TLS Web Client Authentication
            X509v3 Key Usage: 
                Digital Signature
    Signature Algorithm: sha256WithRSAEncryption
         80:55:33:c8:e1:67:88:d3:6f:ca:09:c1:76:c0:91:29:f6:a8:
         8d:55:59:25:df:66:f9:ab:f2:22:46:2e:dc:ab:37:b1:d0:45:
         fc:00:7a:8d:ce:07:9a:87:fc:25:96:2b:a0:20:2d:24:fd:72:
         d9:c5:70:d6:bf:00:bf:17:fb:97:90:da:ad:30:f6:7e:fa:69:
         42:f4:74:40:a8:20:e0:bc:ca:11:18:3f:eb:4e:f6:a2:2c:e7:
         65:4f:2d:3c:80:a3:4b:2d:7c:da:dc:4d:a8:64:31:37:8e:04:
         bb:93:68:c3:10:69:69:10:07:46:19:ca:a4:d6:18:14:ae:6f:
         02:d3:d1:c6:38:28:93:d4:57:5c:54:f4:3e:20:4e:19:5f:8f:
         23:fa:25:f2:5a:db:78:d9:b3:1b:f5:ca:6d:06:42:5f:d5:58:
         51:89:fc:bf:0c:4b:8b:92:6c:8a:d8:cf:c0:12:78:b4:98:c3:
         ad:03:29:20:84:9b:07:24:fd:2c:a5:cd:67:01:69:77:ad:37:
         65:3d:c4:67:bc:b6:1b:98:d1:e9:23:5f:03:65:c2:a4:bd:b7:
         22:ed:a4:ed:60:72:b5:bd:b6:5b:8f:bc:f7:4c:3f:db:fa:c6:
         ac:5a:c7:33:89:55:f8:9f:86:2e:08:7d:23:d1:85:8e:7c:1c:
         2a:38:07:0f
-----BEGIN CERTIFICATE-----
MIIDXDCCAkSgAwIBAgIQY7PUDw60fUOI+AqwYyYf9zANBgkqhkiG9w0BAQsFADAW
MRQwEgYDVQQDDAt0ZWFtMjM5LW5ldDAeFw0yMTA5MTMwMDU3MjJaFw0yNDA4Mjgw
MDU3MjJaMBkxFzAVBgNVBAMMDnRlYW0yMzktY2xpZW50MIIBIjANBgkqhkiG9w0B
AQEFAAOCAQ8AMIIBCgKCAQEAxDxBRlvwLPDeZegpOzYnxOzLyDPpLk3fpC/gtPfz
GXR7B1/edIRaQ7O1K20TW+dtZeYHoo4GT8zHta28w4CKAl9CxEQTSZQIrAc/V93R
hTVXFBtdN+WzXZhoaVydghPCqDeIbHDmy+SEtStow88p6lL9HG1+g8bkk75gnbeW
rjlkb0vq+9LVVeeaG27IUeAYcBfJkHu9J88w/6Xx7lhHQbhv+TVhMYGEXmYdJSkp
ax1e0orcdRFcwXBCCt7ufJ5cOnAombzD+DuV9PBeACKSeIznwdROKVUYcejM4Ngq
YT39ZdSTkvEI5TyviIxu+OLnIVWHxxQvIswr4lOsmpyrtwIDAQABo4GiMIGfMAkG
A1UdEwQCMAAwHQYDVR0OBBYEFPP/2MNkKE7xDoyhXsopsRXxDgAOMFEGA1UdIwRK
MEiAFC3AXJk2S9yVQvre2vTCb8KuISIPoRqkGDAWMRQwEgYDVQQDDAt0ZWFtMjM5
LW5ldIIUOEQf3DMibN/9NXxfU3yvB1KCF/AwEwYDVR0lBAwwCgYIKwYBBQUHAwIw
CwYDVR0PBAQDAgeAMA0GCSqGSIb3DQEBCwUAA4IBAQCAVTPI4WeI02/KCcF2wJEp
9qiNVVkl32b5q/IiRi7cqzex0EX8AHqNzgeah/wlliugIC0k/XLZxXDWvwC/F/uX
kNqtMPZ++mlC9HRAqCDgvMoRGD/rTvaiLOdlTy08gKNLLXza3E2oZDE3jgS7k2jD
EGlpEAdGGcqk1hgUrm8C09HGOCiT1FdcVPQ+IE4ZX48j+iXyWtt42bMb9cptBkJf
1VhRify/DEuLkmyK2M/AEni0mMOtAykghJsHJP0spc1nAWl3rTdlPcRnvLYbmNHp
I18DZcKkvbci7aTtYHK1vbZbj7z3TD/b+sasWscziVX4n4YuCH0j0YWOfBwqOAcP
-----END CERTIFICATE-----
