Certificate:
    Data:
        Version: 3 (0x2)
        Serial Number:
            b2:88:6a:f7:29:a0:6b:39:80:d1:01:1f:c4:17:14:6b
        Signature Algorithm: sha256WithRSAEncryption
        Issuer: CN=team462-net
        Validity
            Not Before: Sep 13 02:49:03 2021 GMT
            Not After : Aug 28 02:49:03 2024 GMT
        Subject: CN=team462-server
        Subject Public Key Info:
            Public Key Algorithm: rsaEncryption
                RSA Public-Key: (2048 bit)
                Modulus:
                    00:c1:0e:e5:52:6b:8f:05:ba:ed:54:20:f1:0f:18:
                    20:9e:8a:1a:cf:8f:0d:e3:e0:b4:fd:cc:cd:2f:95:
                    9d:27:5e:67:1a:9d:0d:a3:35:e9:99:64:9f:85:e6:
                    64:b2:af:42:9f:95:1c:92:43:27:2e:5a:6a:3f:c0:
                    dc:17:fa:cb:02:d4:2c:39:82:4e:65:46:ef:69:c1:
                    2b:36:46:86:c7:b0:4d:38:c8:ba:71:55:d5:d4:13:
                    ca:bc:3b:03:66:04:7f:c6:5b:0b:a5:1e:c2:5b:09:
                    c3:19:85:62:65:65:7d:b3:aa:18:3f:e8:45:5f:54:
                    67:05:ec:14:89:49:44:07:51:e2:15:8c:f8:d4:0f:
                    e9:ae:0f:00:48:e4:d9:20:be:88:24:58:af:31:87:
                    52:b6:85:90:79:29:b3:25:ad:91:fa:8a:68:8b:22:
                    1d:95:01:26:c9:e7:d5:c0:1c:dd:8b:0d:64:ac:b7:
                    84:b2:39:0a:b8:94:1b:58:27:c9:c9:47:04:64:db:
                    0c:ad:c0:87:7d:a1:55:8d:09:5f:82:87:60:b7:b6:
                    56:64:d3:8a:dc:c8:45:03:51:1a:c2:aa:29:e8:2c:
                    39:a9:1a:86:f7:37:9e:43:81:ff:60:6f:9b:dd:8c:
                    e5:e5:53:66:fa:a0:2a:b9:dc:f3:d7:b6:e2:66:0b:
                    cd:27
                Exponent: 65537 (0x10001)
        X509v3 extensions:
            X509v3 Basic Constraints: 
                CA:FALSE
            X509v3 Subject Key Identifier: 
                29:70:D3:5E:42:1A:D6:00:0C:35:01:18:2F:53:56:A4:D3:FD:35:6D
            X509v3 Authority Key Identifier: 
                keyid:48:CF:C3:CC:51:CE:CB:BE:82:A1:26:EA:BC:36:C6:18:C4:19:2F:D5
                DirName:/CN=team462-net
                serial:75:6A:AE:58:F9:6F:C3:38:1D:E9:93:67:64:08:3E:CC:8B:CC:B4:6C

            X509v3 Extended Key Usage: 
                TLS Web Server Authentication
            X509v3 Key Usage: 
                Digital Signature, Key Encipherment
            X509v3 Subject Alternative Name: 
                DNS:team462-server
    Signature Algorithm: sha256WithRSAEncryption
         55:d5:a2:ce:be:6b:bf:35:3d:09:3d:63:83:a6:49:94:09:ae:
         10:58:a1:17:ea:fa:d3:bd:0a:4c:cf:33:20:ce:72:27:93:01:
         43:67:1a:4c:d3:3f:6d:28:f2:f6:51:aa:a3:60:5f:73:fb:ba:
         fc:6a:ee:fd:04:f4:46:79:2d:03:73:22:18:ab:8c:5d:81:0c:
         f7:56:74:28:49:23:a1:e1:64:f7:11:9f:6f:13:5c:1e:15:e6:
         0e:84:c1:ad:fe:8b:eb:b6:e6:a7:4a:86:79:ac:15:47:80:df:
         97:f1:86:1f:c7:ee:7b:f5:69:61:ac:3f:a8:b7:fb:80:36:6b:
         71:3d:91:42:40:7c:92:6e:7e:5e:9e:58:f0:06:15:db:0c:58:
         f1:d7:5b:a7:ff:4d:3c:7c:af:98:f4:9b:29:13:5e:be:9a:18:
         9c:c8:d7:e8:1a:bc:87:b3:46:e1:7b:71:39:a2:c3:d9:b7:fe:
         ba:ce:86:3a:4d:fd:f6:a8:a0:22:e2:f0:09:bc:e0:27:90:89:
         4a:21:42:4c:2b:49:ff:9b:5b:3a:27:a4:b4:15:66:e1:79:d9:
         ff:85:3c:fb:ea:22:6b:7f:62:06:3d:67:9c:80:0e:52:bc:0f:
         e5:e8:53:2c:d8:20:dd:66:79:5f:2b:22:81:ef:32:09:e5:f7:
         00:dd:c7:ea
-----BEGIN CERTIFICATE-----
MIIDeDCCAmCgAwIBAgIRALKIavcpoGs5gNEBH8QXFGswDQYJKoZIhvcNAQELBQAw
FjEUMBIGA1UEAwwLdGVhbTQ2Mi1uZXQwHhcNMjEwOTEzMDI0OTAzWhcNMjQwODI4
MDI0OTAzWjAZMRcwFQYDVQQDDA50ZWFtNDYyLXNlcnZlcjCCASIwDQYJKoZIhvcN
AQEBBQADggEPADCCAQoCggEBAMEO5VJrjwW67VQg8Q8YIJ6KGs+PDePgtP3MzS+V
nSdeZxqdDaM16Zlkn4XmZLKvQp+VHJJDJy5aaj/A3Bf6ywLULDmCTmVG72nBKzZG
hsewTTjIunFV1dQTyrw7A2YEf8ZbC6UewlsJwxmFYmVlfbOqGD/oRV9UZwXsFIlJ
RAdR4hWM+NQP6a4PAEjk2SC+iCRYrzGHUraFkHkpsyWtkfqKaIsiHZUBJsnn1cAc
3YsNZKy3hLI5CriUG1gnyclHBGTbDK3Ah32hVY0JX4KHYLe2VmTTitzIRQNRGsKq
KegsOakahvc3nkOB/2Bvm92M5eVTZvqgKrnc89e24mYLzScCAwEAAaOBvTCBujAJ
BgNVHRMEAjAAMB0GA1UdDgQWBBQpcNNeQhrWAAw1ARgvU1ak0/01bTBRBgNVHSME
SjBIgBRIz8PMUc7LvoKhJuq8NsYYxBkv1aEapBgwFjEUMBIGA1UEAwwLdGVhbTQ2
Mi1uZXSCFHVqrlj5b8M4HemTZ2QIPsyLzLRsMBMGA1UdJQQMMAoGCCsGAQUFBwMB
MAsGA1UdDwQEAwIFoDAZBgNVHREEEjAQgg50ZWFtNDYyLXNlcnZlcjANBgkqhkiG
9w0BAQsFAAOCAQEAVdWizr5rvzU9CT1jg6ZJlAmuEFihF+r6070KTM8zIM5yJ5MB
Q2caTNM/bSjy9lGqo2Bfc/u6/Gru/QT0RnktA3MiGKuMXYEM91Z0KEkjoeFk9xGf
bxNcHhXmDoTBrf6L67bmp0qGeawVR4Dfl/GGH8fue/VpYaw/qLf7gDZrcT2RQkB8
km5+Xp5Y8AYV2wxY8ddbp/9NPHyvmPSbKRNevpoYnMjX6Bq8h7NG4XtxOaLD2bf+
us6GOk399qigIuLwCbzgJ5CJSiFCTCtJ/5tbOiektBVm4XnZ/4U8++oia39iBj1n
nIAOUrwP5ehTLNgg3WZ5Xysige8yCeX3AN3H6g==
-----END CERTIFICATE-----
