Certificate:
    Data:
        Version: 3 (0x2)
        Serial Number:
            84:3a:ae:18:47:ee:8d:aa:6b:be:72:73:7c:46:7a:4d
        Signature Algorithm: sha256WithRSAEncryption
        Issuer: CN=team2-net
        Validity
            Not Before: Sep 12 22:35:39 2021 GMT
            Not After : Aug 27 22:35:39 2024 GMT
        Subject: CN=team2-server
        Subject Public Key Info:
            Public Key Algorithm: rsaEncryption
                RSA Public-Key: (2048 bit)
                Modulus:
                    00:d5:6e:f9:45:9d:2a:29:f8:d3:21:c5:35:75:6d:
                    c0:ed:43:4f:97:98:60:84:46:ee:98:f0:09:52:5e:
                    1b:a2:c8:4a:57:e9:08:0d:aa:45:a6:03:70:c4:56:
                    a2:0c:ac:03:c7:7a:be:19:3b:7c:8d:7f:c6:af:e9:
                    1a:0f:28:1e:40:d5:8d:e2:11:89:dd:f0:eb:9c:60:
                    e2:47:e1:75:89:f7:78:f1:39:8a:f3:35:d3:d2:94:
                    21:b6:c2:c7:8c:73:2f:dc:5b:3c:65:7a:ea:2c:32:
                    4a:ec:1b:e9:cb:2a:9a:7b:7f:8a:45:b5:72:8f:00:
                    e9:be:7d:85:5f:c2:e0:8c:71:e8:60:ba:07:3b:16:
                    17:49:aa:8f:e7:cc:4a:bc:d9:7f:e7:ed:c9:af:13:
                    9b:fb:5e:99:5c:45:fb:d1:9f:5c:25:64:d2:37:3d:
                    5c:c4:0c:11:93:b2:f4:65:58:40:19:b6:d8:41:3c:
                    60:23:d3:00:0e:eb:a0:0f:da:97:fa:66:00:ee:95:
                    88:b9:2a:9b:e2:37:12:71:d4:1f:04:6b:e8:20:17:
                    14:5b:f7:e8:8c:70:68:26:d2:62:02:0a:af:91:da:
                    17:cc:88:4b:78:a8:ae:1f:00:90:88:6b:20:68:83:
                    15:49:54:90:19:8e:5b:1d:69:9f:cd:53:af:51:5f:
                    bd:13
                Exponent: 65537 (0x10001)
        X509v3 extensions:
            X509v3 Basic Constraints: 
                CA:FALSE
            X509v3 Subject Key Identifier: 
                AF:95:F7:4A:60:6B:96:70:BA:44:D9:FD:75:44:53:21:4C:20:12:55
            X509v3 Authority Key Identifier: 
                keyid:22:72:69:05:15:E0:AE:50:EC:1B:F6:32:02:43:45:25:DD:9F:8B:BF
                DirName:/CN=team2-net
                serial:74:9F:20:CD:3B:18:FD:63:AB:8B:51:CA:D3:53:A4:D8:18:53:34:72

            X509v3 Extended Key Usage: 
                TLS Web Server Authentication
            X509v3 Key Usage: 
                Digital Signature, Key Encipherment
            X509v3 Subject Alternative Name: 
                DNS:team2-server
    Signature Algorithm: sha256WithRSAEncryption
         2d:fb:8f:f5:7c:3f:b5:33:f0:ab:c6:1d:f6:18:6b:f5:88:9a:
         96:fe:a4:30:72:75:3d:25:67:16:1a:7b:5d:dd:16:6f:ce:14:
         f8:73:99:4e:5f:5f:05:ea:17:1a:71:62:ba:68:70:c4:55:be:
         bf:64:d3:ef:1a:af:6e:4c:1f:c6:dc:ad:32:c5:1f:51:5b:5a:
         bb:20:31:f5:1e:16:4d:0b:d4:c8:bf:35:ca:fa:64:56:b5:52:
         e5:ca:2d:12:e4:31:f1:5c:e0:36:93:bc:6e:0a:1a:72:10:0b:
         6a:cd:d8:93:15:1c:7d:c1:07:6d:b4:91:13:a1:e1:d9:45:4b:
         5d:64:69:87:c5:4d:5b:17:7f:81:d1:30:97:ce:91:6d:c3:c3:
         e7:c0:e4:dc:ad:fb:91:d7:50:4a:81:1b:dd:10:c4:45:1e:a3:
         4c:16:68:10:26:23:c5:37:64:e8:f7:14:8d:71:7c:5c:4b:80:
         98:f8:e6:ee:ed:84:c2:a8:17:b5:c9:8d:b0:20:9b:d7:35:f3:
         2d:61:27:d8:95:89:5b:29:bc:a6:ad:0f:58:0d:37:35:35:a6:
         aa:b9:7f:5d:cb:3c:32:5c:80:cd:dd:69:ed:89:22:03:4a:39:
         cb:d5:07:a3:97:bb:09:66:5b:17:41:ff:26:3e:0e:3b:95:c6:
         83:fa:f4:fe
-----BEGIN CERTIFICATE-----
MIIDcDCCAligAwIBAgIRAIQ6rhhH7o2qa75yc3xGek0wDQYJKoZIhvcNAQELBQAw
FDESMBAGA1UEAwwJdGVhbTItbmV0MB4XDTIxMDkxMjIyMzUzOVoXDTI0MDgyNzIy
MzUzOVowFzEVMBMGA1UEAwwMdGVhbTItc2VydmVyMIIBIjANBgkqhkiG9w0BAQEF
AAOCAQ8AMIIBCgKCAQEA1W75RZ0qKfjTIcU1dW3A7UNPl5hghEbumPAJUl4boshK
V+kIDapFpgNwxFaiDKwDx3q+GTt8jX/Gr+kaDygeQNWN4hGJ3fDrnGDiR+F1ifd4
8TmK8zXT0pQhtsLHjHMv3Fs8ZXrqLDJK7Bvpyyqae3+KRbVyjwDpvn2FX8LgjHHo
YLoHOxYXSaqP58xKvNl/5+3JrxOb+16ZXEX70Z9cJWTSNz1cxAwRk7L0ZVhAGbbY
QTxgI9MADuugD9qX+mYA7pWIuSqb4jcScdQfBGvoIBcUW/fojHBoJtJiAgqvkdoX
zIhLeKiuHwCQiGsgaIMVSVSQGY5bHWmfzVOvUV+9EwIDAQABo4G5MIG2MAkGA1Ud
EwQCMAAwHQYDVR0OBBYEFK+V90pga5ZwukTZ/XVEUyFMIBJVME8GA1UdIwRIMEaA
FCJyaQUV4K5Q7Bv2MgJDRSXdn4u/oRikFjAUMRIwEAYDVQQDDAl0ZWFtMi1uZXSC
FHSfIM07GP1jq4tRytNTpNgYUzRyMBMGA1UdJQQMMAoGCCsGAQUFBwMBMAsGA1Ud
DwQEAwIFoDAXBgNVHREEEDAOggx0ZWFtMi1zZXJ2ZXIwDQYJKoZIhvcNAQELBQAD
ggEBAC37j/V8P7Uz8KvGHfYYa/WImpb+pDBydT0lZxYae13dFm/OFPhzmU5fXwXq
FxpxYrpocMRVvr9k0+8ar25MH8bcrTLFH1FbWrsgMfUeFk0L1Mi/Ncr6ZFa1UuXK
LRLkMfFc4DaTvG4KGnIQC2rN2JMVHH3BB220kROh4dlFS11kaYfFTVsXf4HRMJfO
kW3Dw+fA5Nyt+5HXUEqBG90QxEUeo0wWaBAmI8U3ZOj3FI1xfFxLgJj45u7thMKo
F7XJjbAgm9c18y1hJ9iViVspvKatD1gNNzU1pqq5f13LPDJcgM3dae2JIgNKOcvV
B6OXuwlmWxdB/yY+DjuVxoP69P4=
-----END CERTIFICATE-----
