Certificate:
    Data:
        Version: 3 (0x2)
        Serial Number:
            93:d1:cc:32:7b:b1:1d:02:ca:89:b8:41:a1:d4:ef:b9
        Signature Algorithm: sha256WithRSAEncryption
        Issuer: CN=team705-net
        Validity
            Not Before: Sep 13 04:52:44 2021 GMT
            Not After : Aug 28 04:52:44 2024 GMT
        Subject: CN=team705-server
        Subject Public Key Info:
            Public Key Algorithm: rsaEncryption
                RSA Public-Key: (2048 bit)
                Modulus:
                    00:d5:e2:70:17:9c:bc:d9:a8:eb:c5:8d:57:53:62:
                    e6:01:eb:3e:52:c8:9c:f8:3e:cc:4e:55:38:60:28:
                    df:49:61:11:26:88:8d:36:e0:c6:58:fc:40:f7:d1:
                    95:50:b5:f4:83:c7:cb:19:23:09:9b:06:6a:24:39:
                    54:fc:f5:e0:d4:e0:4b:4c:68:12:6e:71:f8:c9:db:
                    0c:4e:5d:c2:55:cf:32:f5:9a:e7:ca:42:a1:82:db:
                    45:72:13:18:45:8f:f7:54:1b:b2:61:e8:c9:b6:6f:
                    ff:94:a3:ea:0b:fb:bf:1b:3c:6e:21:0f:aa:12:be:
                    30:f7:48:1a:b7:0e:7b:61:e6:b3:de:12:4e:9e:d3:
                    bd:04:4b:3e:03:67:04:57:e5:de:fd:09:f4:46:c8:
                    dd:88:25:6e:5f:0b:df:3a:86:37:5e:c7:82:4a:08:
                    97:f5:3f:6f:67:58:df:f9:1f:35:36:37:0b:58:31:
                    37:b8:a2:e9:02:1d:ef:dc:d5:bc:1b:1c:ff:fe:08:
                    09:76:33:65:af:9c:fa:4e:a9:b6:02:1e:6a:72:64:
                    83:19:2d:76:92:ca:50:6a:42:f0:ba:c6:60:1d:50:
                    88:88:2e:fc:67:d1:7c:2b:f2:09:af:b2:c0:db:e4:
                    2c:ec:26:ff:ef:8e:08:f1:97:9a:2e:e4:3a:00:7b:
                    cd:f3
                Exponent: 65537 (0x10001)
        X509v3 extensions:
            X509v3 Basic Constraints: 
                CA:FALSE
            X509v3 Subject Key Identifier: 
                F8:74:23:DD:20:A8:85:25:21:52:EC:12:FE:78:55:F6:45:87:B8:7F
            X509v3 Authority Key Identifier: 
                keyid:0B:4C:3D:4E:AE:51:1A:B3:AC:7C:62:06:D5:76:27:57:6E:15:6B:21
                DirName:/CN=team705-net
                serial:69:D1:05:AA:76:60:4D:68:87:4A:1E:08:18:E2:14:19:4E:3C:6F:18

            X509v3 Extended Key Usage: 
                TLS Web Server Authentication
            X509v3 Key Usage: 
                Digital Signature, Key Encipherment
            X509v3 Subject Alternative Name: 
                DNS:team705-server
    Signature Algorithm: sha256WithRSAEncryption
         57:55:e9:93:be:92:23:8b:ba:ac:af:a8:0e:26:d2:db:11:94:
         d6:49:1b:29:51:df:a7:fb:a0:7b:a5:2e:67:32:33:f6:a1:23:
         cb:67:09:b3:53:55:c0:27:7d:5e:82:80:51:e8:25:6e:e1:b6:
         8e:90:94:54:24:b7:43:71:81:25:53:27:df:bf:81:dc:18:8c:
         05:1a:0a:bc:f9:92:e6:e0:64:af:5f:c5:3f:59:09:e1:61:a5:
         27:e2:e2:23:42:f6:5e:e6:a5:03:1d:a5:fd:40:9a:7c:00:9b:
         2c:2a:3a:fc:49:de:73:4e:7e:aa:87:9f:c8:af:cb:61:3d:8a:
         7f:0f:93:8a:9d:aa:e7:18:77:3d:34:3a:17:d5:5f:c5:72:6c:
         4a:13:76:47:a6:37:8a:b8:54:26:17:73:ff:06:ac:9a:14:40:
         c6:a6:01:c3:9d:38:f2:de:7a:3a:4a:73:ed:6b:0c:6e:e2:33:
         76:b3:e8:8f:41:1a:df:d9:be:0b:1f:1f:c0:41:47:13:79:e8:
         e6:b0:3a:d9:ae:b8:c4:0c:cc:f2:e5:17:a6:b2:54:b3:e6:e1:
         dd:1d:47:ad:86:c6:29:c4:1f:6d:18:9c:76:83:af:2b:55:52:
         ee:4a:8b:16:c9:de:a0:15:f9:71:b6:ca:13:e0:30:e6:e0:91:
         d7:41:e5:05
-----BEGIN CERTIFICATE-----
MIIDeDCCAmCgAwIBAgIRAJPRzDJ7sR0Cyom4QaHU77kwDQYJKoZIhvcNAQELBQAw
FjEUMBIGA1UEAwwLdGVhbTcwNS1uZXQwHhcNMjEwOTEzMDQ1MjQ0WhcNMjQwODI4
MDQ1MjQ0WjAZMRcwFQYDVQQDDA50ZWFtNzA1LXNlcnZlcjCCASIwDQYJKoZIhvcN
AQEBBQADggEPADCCAQoCggEBANXicBecvNmo68WNV1Ni5gHrPlLInPg+zE5VOGAo
30lhESaIjTbgxlj8QPfRlVC19IPHyxkjCZsGaiQ5VPz14NTgS0xoEm5x+MnbDE5d
wlXPMvWa58pCoYLbRXITGEWP91QbsmHoybZv/5Sj6gv7vxs8biEPqhK+MPdIGrcO
e2Hms94STp7TvQRLPgNnBFfl3v0J9EbI3Yglbl8L3zqGN17HgkoIl/U/b2dY3/kf
NTY3C1gxN7ii6QId79zVvBsc//4ICXYzZa+c+k6ptgIeanJkgxktdpLKUGpC8LrG
YB1QiIgu/GfRfCvyCa+ywNvkLOwm/++OCPGXmi7kOgB7zfMCAwEAAaOBvTCBujAJ
BgNVHRMEAjAAMB0GA1UdDgQWBBT4dCPdIKiFJSFS7BL+eFX2RYe4fzBRBgNVHSME
SjBIgBQLTD1OrlEas6x8YgbVdidXbhVrIaEapBgwFjEUMBIGA1UEAwwLdGVhbTcw
NS1uZXSCFGnRBap2YE1oh0oeCBjiFBlOPG8YMBMGA1UdJQQMMAoGCCsGAQUFBwMB
MAsGA1UdDwQEAwIFoDAZBgNVHREEEjAQgg50ZWFtNzA1LXNlcnZlcjANBgkqhkiG
9w0BAQsFAAOCAQEAV1Xpk76SI4u6rK+oDibS2xGU1kkbKVHfp/uge6UuZzIz9qEj
y2cJs1NVwCd9XoKAUeglbuG2jpCUVCS3Q3GBJVMn37+B3BiMBRoKvPmS5uBkr1/F
P1kJ4WGlJ+LiI0L2XualAx2l/UCafACbLCo6/Enec05+qoefyK/LYT2Kfw+Tip2q
5xh3PTQ6F9VfxXJsShN2R6Y3irhUJhdz/wasmhRAxqYBw5048t56Okpz7WsMbuIz
drPoj0Ea39m+Cx8fwEFHE3no5rA62a64xAzM8uUXprJUs+bh3R1HrYbGKcQfbRic
doOvK1VS7kqLFsneoBX5cbbKE+Aw5uCR10HlBQ==
-----END CERTIFICATE-----
