Certificate:
    Data:
        Version: 3 (0x2)
        Serial Number:
            69:75:4a:88:ac:8d:8c:a8:f4:fe:bb:b2:0f:8c:15:dd
        Signature Algorithm: sha256WithRSAEncryption
        Issuer: CN=team226-net
        Validity
            Not Before: Sep 13 00:36:47 2021 GMT
            Not After : Aug 28 00:36:47 2024 GMT
        Subject: CN=team226-client
        Subject Public Key Info:
            Public Key Algorithm: rsaEncryption
                RSA Public-Key: (2048 bit)
                Modulus:
                    00:d2:e7:32:e2:cb:7b:09:54:9f:8f:48:68:99:47:
                    cf:77:a7:ee:27:6e:ed:eb:1b:8a:85:72:e7:63:07:
                    b0:2d:92:ae:6a:66:c9:c3:46:21:7a:5a:65:84:a3:
                    06:67:ce:f8:91:34:fc:1a:49:d5:34:ad:48:31:dc:
                    01:f6:6a:d2:7f:68:4a:ed:33:ea:9c:5c:0b:83:e3:
                    66:d8:3d:5d:0f:de:35:67:33:8a:1d:d0:db:07:bd:
                    8d:56:58:d3:0d:e2:fe:c1:ea:8a:e9:9c:52:80:4d:
                    b7:b1:ef:fc:5a:dc:0a:59:d4:77:cc:70:29:0e:16:
                    67:6a:c3:2d:a1:e2:35:cb:d3:f1:1b:8e:bd:f1:1b:
                    e9:38:7c:ff:02:49:73:1d:20:9f:8f:26:39:7d:58:
                    5d:4e:d1:b7:43:2b:45:3d:f5:fd:80:28:b4:3e:b7:
                    92:de:b1:27:ba:63:17:b2:7f:d5:a3:40:53:bb:3c:
                    95:2b:40:7e:00:9c:5a:dc:f9:58:91:2b:cd:8d:7b:
                    34:54:9b:4d:4c:d5:ea:5c:e8:04:dc:13:3c:ed:4e:
                    8b:15:44:4f:fe:b8:40:ec:b5:5b:0b:2f:4f:e8:c1:
                    8b:8d:65:d0:b8:43:e7:f8:39:01:cd:bf:b6:1f:b9:
                    c1:fc:d9:c3:a5:2a:3b:9c:f4:9d:15:e2:ff:5c:1d:
                    81:5d
                Exponent: 65537 (0x10001)
        X509v3 extensions:
            X509v3 Basic Constraints: 
                CA:FALSE
            X509v3 Subject Key Identifier: 
                6F:1B:D7:50:12:89:A3:ED:59:47:EE:5F:51:32:CE:1A:44:AB:89:22
            X509v3 Authority Key Identifier: 
                keyid:63:F6:8F:55:E9:13:74:05:38:3B:25:A9:4B:FE:05:B2:18:78:F7:CB
                DirName:/CN=team226-net
                serial:5A:E7:A8:66:40:17:E7:5E:ED:E2:03:40:5D:C2:9B:2D:7E:6B:76:76

            X509v3 Extended Key Usage: 
                TLS Web Client Authentication
            X509v3 Key Usage: 
                Digital Signature
    Signature Algorithm: sha256WithRSAEncryption
         ad:22:96:28:f3:3f:40:44:e2:c7:2c:09:d0:d9:96:20:5f:55:
         4d:b9:d0:cc:c5:b2:43:75:35:3b:13:08:13:f6:45:14:c1:26:
         ad:62:fa:47:98:59:73:6a:c4:f1:e5:a2:d7:50:1c:3a:de:0b:
         37:2e:f2:54:90:8f:28:ad:36:f9:51:72:c5:27:82:27:92:dc:
         56:52:da:54:6e:a2:c8:12:08:67:67:bb:bd:e4:c8:a5:fc:e5:
         0a:21:25:67:b4:52:79:04:c1:67:de:ed:57:c5:9e:7c:48:ed:
         6f:96:36:80:d1:d7:45:de:c1:e8:bd:92:c8:89:ad:b8:40:8c:
         c9:1d:c5:7e:b2:57:c5:71:d6:9a:64:1e:e8:76:89:e8:a9:96:
         eb:ac:39:b2:ce:a7:57:c3:72:80:b0:47:33:d3:47:b7:e1:63:
         90:2c:12:16:6f:a8:03:dc:56:af:f9:95:31:fd:e0:6e:a1:47:
         9e:2c:5e:ef:aa:d7:cc:9e:87:e6:ef:0e:a7:ab:9a:c1:86:c4:
         3c:36:dd:d4:8a:da:1b:db:2a:34:b7:2b:0c:67:d2:d1:d4:e2:
         4c:c1:b2:d8:b4:cf:42:0e:f0:9b:85:a2:46:49:eb:8f:b1:0b:
         6a:22:1a:68:e0:c8:1d:9e:1e:9b:10:5a:ae:63:ce:d1:da:fe:
         4c:08:83:a1
-----BEGIN CERTIFICATE-----
MIIDXDCCAkSgAwIBAgIQaXVKiKyNjKj0/ruyD4wV3TANBgkqhkiG9w0BAQsFADAW
MRQwEgYDVQQDDAt0ZWFtMjI2LW5ldDAeFw0yMTA5MTMwMDM2NDdaFw0yNDA4Mjgw
MDM2NDdaMBkxFzAVBgNVBAMMDnRlYW0yMjYtY2xpZW50MIIBIjANBgkqhkiG9w0B
AQEFAAOCAQ8AMIIBCgKCAQEA0ucy4st7CVSfj0homUfPd6fuJ27t6xuKhXLnYwew
LZKuambJw0YhelplhKMGZ874kTT8GknVNK1IMdwB9mrSf2hK7TPqnFwLg+Nm2D1d
D941ZzOKHdDbB72NVljTDeL+weqK6ZxSgE23se/8WtwKWdR3zHApDhZnasMtoeI1
y9PxG4698RvpOHz/AklzHSCfjyY5fVhdTtG3QytFPfX9gCi0PreS3rEnumMXsn/V
o0BTuzyVK0B+AJxa3PlYkSvNjXs0VJtNTNXqXOgE3BM87U6LFURP/rhA7LVbCy9P
6MGLjWXQuEPn+DkBzb+2H7nB/NnDpSo7nPSdFeL/XB2BXQIDAQABo4GiMIGfMAkG
A1UdEwQCMAAwHQYDVR0OBBYEFG8b11ASiaPtWUfuX1EyzhpEq4kiMFEGA1UdIwRK
MEiAFGP2j1XpE3QFODslqUv+BbIYePfLoRqkGDAWMRQwEgYDVQQDDAt0ZWFtMjI2
LW5ldIIUWueoZkAX517t4gNAXcKbLX5rdnYwEwYDVR0lBAwwCgYIKwYBBQUHAwIw
CwYDVR0PBAQDAgeAMA0GCSqGSIb3DQEBCwUAA4IBAQCtIpYo8z9AROLHLAnQ2ZYg
X1VNudDMxbJDdTU7EwgT9kUUwSatYvpHmFlzasTx5aLXUBw63gs3LvJUkI8orTb5
UXLFJ4InktxWUtpUbqLIEghnZ7u95Mil/OUKISVntFJ5BMFn3u1XxZ58SO1vljaA
0ddF3sHovZLIia24QIzJHcV+slfFcdaaZB7odonoqZbrrDmyzqdXw3KAsEcz00e3
4WOQLBIWb6gD3Fav+ZUx/eBuoUeeLF7vqtfMnofm7w6nq5rBhsQ8Nt3Uitob2yo0
tysMZ9LR1OJMwbLYtM9CDvCbhaJGSeuPsQtqIhpo4Mgdnh6bEFquY87R2v5MCIOh
-----END CERTIFICATE-----
