Certificate:
    Data:
        Version: 3 (0x2)
        Serial Number:
            e6:5d:90:5d:7d:b6:1f:cf:63:78:f2:65:59:20:94:da
        Signature Algorithm: sha256WithRSAEncryption
        Issuer: CN=team47-net
        Validity
            Not Before: Sep 12 23:07:45 2021 GMT
            Not After : Aug 27 23:07:45 2024 GMT
        Subject: CN=team47-client
        Subject Public Key Info:
            Public Key Algorithm: rsaEncryption
                RSA Public-Key: (2048 bit)
                Modulus:
                    00:e1:6f:5e:46:62:4c:45:42:3a:f3:aa:16:57:59:
                    7d:5c:33:56:35:bf:b4:bd:88:af:c4:ae:74:46:95:
                    68:4c:4f:23:76:73:39:4c:90:bf:43:f9:87:ca:de:
                    fb:6c:ea:6b:3b:00:7e:e6:f1:80:b3:93:86:27:9d:
                    2a:4c:6b:0a:b4:ea:cd:be:f6:5d:b9:6e:4a:6c:8e:
                    ea:4e:95:5c:11:d9:27:13:e4:05:cc:b1:77:68:55:
                    1a:12:88:be:68:be:b8:ef:24:88:4b:47:43:7a:fd:
                    b0:44:1b:fb:ab:6f:ac:7f:5c:08:fb:21:9a:5f:1e:
                    9b:43:77:ec:4c:a1:cf:59:00:49:59:1a:22:9e:d2:
                    53:d9:20:a7:0a:1f:cd:eb:c9:1f:86:82:8c:cb:6c:
                    f2:28:a9:e9:e4:15:46:50:27:dc:6c:3b:a9:31:9f:
                    81:d1:d2:a8:cd:0a:88:3a:8a:95:4d:ed:ca:00:db:
                    66:bc:d1:62:d0:dc:eb:a1:2a:64:69:a8:70:c6:25:
                    af:df:43:b8:4b:ce:5f:10:19:4e:dd:81:ca:50:dd:
                    94:7f:5a:75:02:91:95:96:80:59:e8:6d:e6:3e:ab:
                    c1:96:01:ca:82:9a:71:6c:a0:c3:61:9d:e6:99:5f:
                    3a:25:5f:af:be:49:43:7d:4d:e0:3f:90:8d:54:5d:
                    c5:d5
                Exponent: 65537 (0x10001)
        X509v3 extensions:
            X509v3 Basic Constraints: 
                CA:FALSE
            X509v3 Subject Key Identifier: 
                DD:8E:A9:BC:84:43:7C:76:92:88:53:82:31:FF:25:35:CB:44:56:15
            X509v3 Authority Key Identifier: 
                keyid:BB:30:E6:08:21:B4:DE:CE:9D:88:F6:ED:2C:93:44:F6:AE:B2:1C:B4
                DirName:/CN=team47-net
                serial:07:D5:B4:58:96:B2:5E:7C:9C:F7:F4:8D:17:53:CF:3E:03:79:EF:69

            X509v3 Extended Key Usage: 
                TLS Web Client Authentication
            X509v3 Key Usage: 
                Digital Signature
    Signature Algorithm: sha256WithRSAEncryption
         79:f8:d6:4b:e2:2b:32:d8:ad:d1:f2:12:d8:b7:ba:44:d9:96:
         41:a9:f5:72:c2:1b:a1:92:de:d9:01:c2:f1:92:5d:71:56:4d:
         3a:21:13:be:bd:97:ca:ed:f9:5f:e4:73:98:09:9b:b5:a4:3b:
         1c:c6:1f:3e:9e:a8:74:a6:c5:ff:3e:4e:5e:10:77:70:c5:6f:
         0c:24:77:c9:65:e7:d3:f9:e8:ef:77:53:30:43:e2:dd:39:4d:
         9b:6f:82:f7:3f:e3:bb:47:29:0b:ed:a9:03:1a:0e:b5:31:2d:
         a6:04:a1:0c:46:06:52:62:ab:82:1c:1d:28:99:67:8b:0f:0a:
         45:35:19:09:be:2f:36:6a:55:53:a6:50:48:f9:5d:f4:01:e3:
         dd:6a:a6:7b:61:71:e6:cf:c9:3a:75:5b:95:a5:e3:44:a9:59:
         fa:72:f0:d8:f1:09:3d:7e:f6:ea:02:0d:04:27:d9:d4:f6:c3:
         0d:08:23:c7:6e:1c:f0:6d:9c:58:b1:7a:81:13:af:b1:51:a2:
         59:57:54:3e:61:ed:19:55:8f:0e:43:20:d3:4c:3c:49:ff:ad:
         32:da:d0:c8:6d:27:03:c7:e2:b2:3c:3e:f9:ed:c5:f3:ca:c4:
         ab:89:77:72:c3:a3:97:68:dc:98:f4:13:09:70:37:34:1b:ab:
         1a:6d:f2:44
-----BEGIN CERTIFICATE-----
MIIDWjCCAkKgAwIBAgIRAOZdkF19th/PY3jyZVkglNowDQYJKoZIhvcNAQELBQAw
FTETMBEGA1UEAwwKdGVhbTQ3LW5ldDAeFw0yMTA5MTIyMzA3NDVaFw0yNDA4Mjcy
MzA3NDVaMBgxFjAUBgNVBAMMDXRlYW00Ny1jbGllbnQwggEiMA0GCSqGSIb3DQEB
AQUAA4IBDwAwggEKAoIBAQDhb15GYkxFQjrzqhZXWX1cM1Y1v7S9iK/ErnRGlWhM
TyN2czlMkL9D+YfK3vts6ms7AH7m8YCzk4YnnSpMawq06s2+9l25bkpsjupOlVwR
2ScT5AXMsXdoVRoSiL5ovrjvJIhLR0N6/bBEG/urb6x/XAj7IZpfHptDd+xMoc9Z
AElZGiKe0lPZIKcKH83ryR+GgozLbPIoqenkFUZQJ9xsO6kxn4HR0qjNCog6ipVN
7coA22a80WLQ3OuhKmRpqHDGJa/fQ7hLzl8QGU7dgcpQ3ZR/WnUCkZWWgFnobeY+
q8GWAcqCmnFsoMNhneaZXzolX6++SUN9TeA/kI1UXcXVAgMBAAGjgaEwgZ4wCQYD
VR0TBAIwADAdBgNVHQ4EFgQU3Y6pvIRDfHaSiFOCMf8lNctEVhUwUAYDVR0jBEkw
R4AUuzDmCCG03s6diPbtLJNE9q6yHLShGaQXMBUxEzARBgNVBAMMCnRlYW00Ny1u
ZXSCFAfVtFiWsl58nPf0jRdTzz4Dee9pMBMGA1UdJQQMMAoGCCsGAQUFBwMCMAsG
A1UdDwQEAwIHgDANBgkqhkiG9w0BAQsFAAOCAQEAefjWS+IrMtit0fIS2Le6RNmW
Qan1csIboZLe2QHC8ZJdcVZNOiETvr2Xyu35X+RzmAmbtaQ7HMYfPp6odKbF/z5O
XhB3cMVvDCR3yWXn0/no73dTMEPi3TlNm2+C9z/ju0cpC+2pAxoOtTEtpgShDEYG
UmKrghwdKJlniw8KRTUZCb4vNmpVU6ZQSPld9AHj3Wqme2Fx5s/JOnVblaXjRKlZ
+nLw2PEJPX726gINBCfZ1PbDDQgjx24c8G2cWLF6gROvsVGiWVdUPmHtGVWPDkMg
00w8Sf+tMtrQyG0nA8fisjw++e3F88rEq4l3csOjl2jcmPQTCXA3NBurGm3yRA==
-----END CERTIFICATE-----
