Certificate:
    Data:
        Version: 3 (0x2)
        Serial Number:
            1f:be:3f:74:54:ec:36:fe:a4:33:da:82:55:88:8f:24
        Signature Algorithm: sha256WithRSAEncryption
        Issuer: CN=team470-net
        Validity
            Not Before: Sep 13 02:58:05 2021 GMT
            Not After : Aug 28 02:58:05 2024 GMT
        Subject: CN=team470-client
        Subject Public Key Info:
            Public Key Algorithm: rsaEncryption
                RSA Public-Key: (2048 bit)
                Modulus:
                    00:b1:3c:bc:43:36:94:26:17:53:9f:d5:a2:13:dc:
                    08:09:aa:d4:1a:c7:d3:da:4b:54:86:9f:98:1a:f8:
                    c7:ff:00:d6:cc:47:9e:85:67:01:54:01:94:c3:4b:
                    40:fa:5b:48:14:0b:1d:ba:ef:ba:e6:6c:50:e9:36:
                    de:72:3d:c7:1d:a3:2b:10:bd:8f:8e:1c:b9:ad:a1:
                    7e:b4:03:d7:05:de:1c:0f:c4:a4:57:4b:09:3b:33:
                    09:bd:61:4f:1d:3f:86:00:95:5d:b0:a9:e0:e8:da:
                    0e:9c:cd:a2:36:f6:ae:53:5b:de:d8:55:a2:fc:c3:
                    cc:e6:bc:20:e7:be:08:a8:c2:5c:8e:96:39:4c:e7:
                    6f:7a:8e:99:c0:2b:3d:2e:f1:f8:e8:7d:80:a0:a8:
                    9c:61:53:85:d6:b7:e6:61:04:38:9e:11:22:d8:93:
                    7e:35:f8:74:91:f2:40:90:5d:f5:77:a0:61:85:2c:
                    86:9a:90:91:ae:6c:dc:bc:dd:54:a6:43:09:7d:7b:
                    7c:bb:93:d6:ed:48:c6:eb:78:ec:e0:43:68:7c:ad:
                    eb:84:7e:92:7f:21:f3:2b:30:f2:7c:f2:b6:2e:79:
                    31:a9:47:d7:07:1a:79:ff:42:37:60:c4:2b:a7:13:
                    cc:25:49:d7:d5:ac:93:d0:b7:8e:43:3f:b2:0f:c7:
                    2e:8b
                Exponent: 65537 (0x10001)
        X509v3 extensions:
            X509v3 Basic Constraints: 
                CA:FALSE
            X509v3 Subject Key Identifier: 
                94:AB:26:A1:EB:FA:43:56:06:DE:21:5A:6F:11:48:07:D2:1E:AD:D2
            X509v3 Authority Key Identifier: 
                keyid:69:66:8B:45:FE:34:09:2B:6E:EC:EA:E6:EF:AE:15:A7:F7:CC:2B:3A
                DirName:/CN=team470-net
                serial:2E:A5:ED:05:85:94:E4:AF:C8:C8:7F:A8:6E:C1:78:EC:53:00:8A:4D

            X509v3 Extended Key Usage: 
                TLS Web Client Authentication
            X509v3 Key Usage: 
                Digital Signature
    Signature Algorithm: sha256WithRSAEncryption
         74:82:ed:3a:0f:81:e9:d4:e2:14:1a:68:21:42:b8:86:01:dc:
         55:59:50:2a:29:c9:e0:62:ea:89:f6:39:de:f8:fe:d5:4f:79:
         74:6b:48:4a:c4:3c:13:60:ab:2d:da:8f:e4:9b:1f:4e:8e:f1:
         93:48:fe:12:e7:31:97:dc:27:26:3f:01:ee:6e:88:8c:8c:62:
         14:bb:eb:cb:c5:7f:17:6f:15:74:1a:d0:03:ed:8d:33:01:02:
         83:72:79:c4:2a:4b:8d:f2:d6:b4:08:4e:5c:f8:22:1a:c2:87:
         32:c4:68:7f:a7:95:25:f3:1b:e4:49:11:4b:a7:e0:87:54:85:
         79:e1:be:29:e4:73:78:9e:64:b9:4d:eb:1b:bd:71:d2:10:13:
         d5:27:00:5e:35:59:14:84:26:c4:78:27:11:8b:62:dc:8d:de:
         86:ea:00:9e:0f:26:4a:8f:bb:4d:19:08:0c:8d:47:a2:56:77:
         08:55:9b:f0:5a:5f:0a:3a:eb:fb:1a:1e:ed:85:e1:49:3b:06:
         76:cf:3d:09:a0:13:0a:40:b9:33:31:41:d3:c0:e2:3e:29:a7:
         f9:a8:8d:e1:08:67:84:17:44:f1:ab:48:23:b9:2e:13:6d:ec:
         b8:8a:3b:a1:9c:3a:79:90:a1:0b:74:f6:93:9e:8f:4c:c8:bf:
         4c:99:08:ce
-----BEGIN CERTIFICATE-----
MIIDXDCCAkSgAwIBAgIQH74/dFTsNv6kM9qCVYiPJDANBgkqhkiG9w0BAQsFADAW
MRQwEgYDVQQDDAt0ZWFtNDcwLW5ldDAeFw0yMTA5MTMwMjU4MDVaFw0yNDA4Mjgw
MjU4MDVaMBkxFzAVBgNVBAMMDnRlYW00NzAtY2xpZW50MIIBIjANBgkqhkiG9w0B
AQEFAAOCAQ8AMIIBCgKCAQEAsTy8QzaUJhdTn9WiE9wICarUGsfT2ktUhp+YGvjH
/wDWzEeehWcBVAGUw0tA+ltIFAsduu+65mxQ6Tbecj3HHaMrEL2Pjhy5raF+tAPX
Bd4cD8SkV0sJOzMJvWFPHT+GAJVdsKng6NoOnM2iNvauU1ve2FWi/MPM5rwg574I
qMJcjpY5TOdveo6ZwCs9LvH46H2AoKicYVOF1rfmYQQ4nhEi2JN+Nfh0kfJAkF31
d6BhhSyGmpCRrmzcvN1UpkMJfXt8u5PW7UjG63js4ENofK3rhH6SfyHzKzDyfPK2
LnkxqUfXBxp5/0I3YMQrpxPMJUnX1ayT0LeOQz+yD8cuiwIDAQABo4GiMIGfMAkG
A1UdEwQCMAAwHQYDVR0OBBYEFJSrJqHr+kNWBt4hWm8RSAfSHq3SMFEGA1UdIwRK
MEiAFGlmi0X+NAkrbuzq5u+uFaf3zCs6oRqkGDAWMRQwEgYDVQQDDAt0ZWFtNDcw
LW5ldIIULqXtBYWU5K/IyH+obsF47FMAik0wEwYDVR0lBAwwCgYIKwYBBQUHAwIw
CwYDVR0PBAQDAgeAMA0GCSqGSIb3DQEBCwUAA4IBAQB0gu06D4Hp1OIUGmghQriG
AdxVWVAqKcngYuqJ9jne+P7VT3l0a0hKxDwTYKst2o/kmx9OjvGTSP4S5zGX3Ccm
PwHuboiMjGIUu+vLxX8XbxV0GtAD7Y0zAQKDcnnEKkuN8ta0CE5c+CIawocyxGh/
p5Ul8xvkSRFLp+CHVIV54b4p5HN4nmS5TesbvXHSEBPVJwBeNVkUhCbEeCcRi2Lc
jd6G6gCeDyZKj7tNGQgMjUeiVncIVZvwWl8KOuv7Gh7theFJOwZ2zz0JoBMKQLkz
MUHTwOI+Kaf5qI3hCGeEF0Txq0gjuS4Tbey4ijuhnDp5kKELdPaTno9MyL9MmQjO
-----END CERTIFICATE-----
