Certificate:
    Data:
        Version: 3 (0x2)
        Serial Number:
            20:e5:9c:76:4d:38:3d:ce:a8:49:6b:3b:79:ca:16:6d
        Signature Algorithm: sha256WithRSAEncryption
        Issuer: CN=team189-net
        Validity
            Not Before: Sep 13 00:32:38 2021 GMT
            Not After : Aug 28 00:32:38 2024 GMT
        Subject: CN=team189-server
        Subject Public Key Info:
            Public Key Algorithm: rsaEncryption
                RSA Public-Key: (2048 bit)
                Modulus:
                    00:a0:21:e3:25:56:e4:a5:81:65:4a:ec:cc:0c:e3:
                    84:05:9c:43:da:5c:d2:2d:82:2e:3b:a5:ad:cf:cc:
                    9d:0f:eb:fc:6f:ae:31:8d:6b:13:52:f5:91:70:b7:
                    98:f2:b6:87:43:b4:5d:52:bd:e1:bf:ac:af:4a:1f:
                    e9:eb:51:d4:38:de:f8:d4:97:5f:c3:db:c1:0e:39:
                    13:25:c1:eb:a6:ea:c2:5b:06:c8:74:a9:67:5c:e5:
                    52:9d:e1:6f:e9:a3:8e:78:d9:7b:4a:26:13:03:1e:
                    d3:b2:6c:b3:41:9c:f1:24:da:9b:d0:ad:f1:e4:d8:
                    b7:eb:ec:40:7e:d6:a5:2f:eb:9e:21:36:78:57:21:
                    38:86:37:32:de:84:1f:71:c4:b0:c1:10:83:c7:2c:
                    4e:2f:71:78:a5:df:7a:aa:e8:47:7c:ed:96:fa:20:
                    19:38:9a:c2:89:70:c8:c5:49:47:a5:e7:a5:96:ea:
                    84:a1:15:e4:c4:5e:2e:4e:e0:7b:ac:f1:5b:aa:54:
                    df:95:6f:7d:61:7e:aa:d2:b4:19:1a:33:12:9e:bd:
                    5e:67:85:c0:4c:2c:07:46:ce:91:a9:23:36:18:71:
                    8a:6b:e3:78:c3:c2:b7:11:48:33:2a:d5:a3:bf:f8:
                    b7:84:5a:d5:7c:9e:9e:92:e4:73:0f:c2:25:2d:3c:
                    4c:a5
                Exponent: 65537 (0x10001)
        X509v3 extensions:
            X509v3 Basic Constraints: 
                CA:FALSE
            X509v3 Subject Key Identifier: 
                48:2A:08:39:68:1F:EA:8C:C5:98:A8:EB:DE:4E:A2:8C:9E:D9:AF:8D
            X509v3 Authority Key Identifier: 
                keyid:5B:C4:6A:85:F3:E0:2E:AE:C1:89:C1:27:BB:A1:74:89:99:AD:A3:D7
                DirName:/CN=team189-net
                serial:5E:69:68:0C:01:E9:8F:80:7F:43:F8:DF:EE:0F:52:97:B2:20:B3:7D

            X509v3 Extended Key Usage: 
                TLS Web Server Authentication
            X509v3 Key Usage: 
                Digital Signature, Key Encipherment
            X509v3 Subject Alternative Name: 
                DNS:team189-server
    Signature Algorithm: sha256WithRSAEncryption
         75:bf:ec:f3:33:f4:66:39:0d:75:84:65:f7:14:54:0a:99:38:
         e8:df:b1:36:06:aa:71:bd:4b:ce:48:91:bc:f0:69:8b:59:fd:
         e2:c1:32:a0:79:f9:c5:5d:7d:61:d8:52:33:ac:d7:e3:fa:1d:
         0b:cc:01:cb:64:30:a3:d2:1c:d5:ef:80:53:55:db:6c:aa:a3:
         56:bd:96:07:fd:3e:dd:4d:9f:42:93:cb:d6:4d:f4:8f:e1:d6:
         56:37:73:bd:b6:7d:fb:77:59:46:ff:af:a2:c6:9e:8b:02:8d:
         7f:5d:ae:4d:54:de:ca:53:a1:a0:94:a6:3c:aa:64:bd:c6:c9:
         68:97:01:2c:a2:ca:7f:c5:8b:9f:00:10:2a:42:18:5c:e9:05:
         ad:6c:66:75:81:1a:81:ce:3b:48:b9:31:bc:b0:f4:df:c0:7b:
         fb:99:5a:8b:95:33:3b:3f:59:70:a4:fd:00:19:12:e5:9b:b8:
         05:a4:b5:0d:8a:18:32:a7:ab:90:ce:c1:36:aa:9d:ce:2d:a6:
         5a:1d:c2:fd:d0:8a:07:1f:7c:05:aa:31:b0:b2:f5:88:37:bf:
         4f:2b:ca:a4:96:19:cf:9b:36:d8:07:45:9e:fd:51:a4:03:12:
         34:d5:e5:61:07:9a:59:71:f4:7c:79:82:3b:45:77:89:13:14:
         36:c5:36:20
-----BEGIN CERTIFICATE-----
MIIDdzCCAl+gAwIBAgIQIOWcdk04Pc6oSWs7ecoWbTANBgkqhkiG9w0BAQsFADAW
MRQwEgYDVQQDDAt0ZWFtMTg5LW5ldDAeFw0yMTA5MTMwMDMyMzhaFw0yNDA4Mjgw
MDMyMzhaMBkxFzAVBgNVBAMMDnRlYW0xODktc2VydmVyMIIBIjANBgkqhkiG9w0B
AQEFAAOCAQ8AMIIBCgKCAQEAoCHjJVbkpYFlSuzMDOOEBZxD2lzSLYIuO6Wtz8yd
D+v8b64xjWsTUvWRcLeY8raHQ7RdUr3hv6yvSh/p61HUON741Jdfw9vBDjkTJcHr
purCWwbIdKlnXOVSneFv6aOOeNl7SiYTAx7TsmyzQZzxJNqb0K3x5Ni36+xAftal
L+ueITZ4VyE4hjcy3oQfccSwwRCDxyxOL3F4pd96quhHfO2W+iAZOJrCiXDIxUlH
peelluqEoRXkxF4uTuB7rPFbqlTflW99YX6q0rQZGjMSnr1eZ4XATCwHRs6RqSM2
GHGKa+N4w8K3EUgzKtWjv/i3hFrVfJ6ekuRzD8IlLTxMpQIDAQABo4G9MIG6MAkG
A1UdEwQCMAAwHQYDVR0OBBYEFEgqCDloH+qMxZio695Oooye2a+NMFEGA1UdIwRK
MEiAFFvEaoXz4C6uwYnBJ7uhdImZraPXoRqkGDAWMRQwEgYDVQQDDAt0ZWFtMTg5
LW5ldIIUXmloDAHpj4B/Q/jf7g9Sl7Igs30wEwYDVR0lBAwwCgYIKwYBBQUHAwEw
CwYDVR0PBAQDAgWgMBkGA1UdEQQSMBCCDnRlYW0xODktc2VydmVyMA0GCSqGSIb3
DQEBCwUAA4IBAQB1v+zzM/RmOQ11hGX3FFQKmTjo37E2BqpxvUvOSJG88GmLWf3i
wTKgefnFXX1h2FIzrNfj+h0LzAHLZDCj0hzV74BTVdtsqqNWvZYH/T7dTZ9Ck8vW
TfSP4dZWN3O9tn37d1lG/6+ixp6LAo1/Xa5NVN7KU6GglKY8qmS9xslolwEsosp/
xYufABAqQhhc6QWtbGZ1gRqBzjtIuTG8sPTfwHv7mVqLlTM7P1lwpP0AGRLlm7gF
pLUNihgyp6uQzsE2qp3OLaZaHcL90IoHH3wFqjGwsvWIN79PK8qklhnPmzbYB0We
/VGkAxI01eVhB5pZcfR8eYI7RXeJExQ2xTYg
-----END CERTIFICATE-----
