Certificate:
    Data:
        Version: 3 (0x2)
        Serial Number:
            27:1d:47:90:e7:1c:6c:8c:6c:b9:bd:9a:c3:87:ed:a3
        Signature Algorithm: sha256WithRSAEncryption
        Issuer: CN=team463-net
        Validity
            Not Before: Sep 13 02:49:26 2021 GMT
            Not After : Aug 28 02:49:26 2024 GMT
        Subject: CN=team463-client
        Subject Public Key Info:
            Public Key Algorithm: rsaEncryption
                RSA Public-Key: (2048 bit)
                Modulus:
                    00:c0:97:34:36:eb:15:93:3a:e8:ea:a6:17:b6:f3:
                    b9:25:fb:eb:0b:11:d9:f1:e2:cc:9d:5e:68:69:1e:
                    d6:9d:26:f5:6f:00:56:ec:f1:a5:10:dd:a5:20:5a:
                    27:c8:20:65:16:08:90:4c:70:60:0b:22:d5:d6:94:
                    0f:e2:40:92:e3:c3:ca:e0:78:a4:d4:f6:6b:2d:63:
                    22:18:51:fa:53:a4:bc:c2:ca:e6:ec:21:c0:c9:cd:
                    18:b3:f9:b0:4e:ce:1c:4d:11:d4:0f:7c:df:a0:74:
                    7f:db:bb:21:f9:91:4b:db:e1:ed:e1:dc:af:b5:c3:
                    29:fa:3f:50:93:d4:d5:15:4a:8d:17:64:70:e7:3a:
                    e8:cd:76:78:71:b9:31:df:21:a7:e7:78:b7:b9:cd:
                    ac:32:9f:57:a9:64:d6:57:ca:30:bd:3c:01:0f:b0:
                    60:f7:23:f2:ad:24:d5:31:2c:6f:46:46:55:90:34:
                    0e:59:9c:ae:0b:d0:86:3c:6e:61:db:f1:51:07:72:
                    7c:88:c5:a9:74:cc:0f:a6:23:09:f1:2c:80:03:00:
                    4a:dc:8e:96:bc:ef:4b:af:28:59:4e:4c:2e:ab:77:
                    b3:a9:6d:e4:e6:a5:6f:61:50:a0:b3:d8:f3:db:ec:
                    26:07:2d:50:c8:c9:b5:a0:98:cb:03:8f:07:68:76:
                    91:0f
                Exponent: 65537 (0x10001)
        X509v3 extensions:
            X509v3 Basic Constraints: 
                CA:FALSE
            X509v3 Subject Key Identifier: 
                70:A7:E4:DC:AA:F9:68:C4:26:0D:89:F4:2E:10:16:F7:DF:94:B6:42
            X509v3 Authority Key Identifier: 
                keyid:A6:74:0D:60:CE:77:3C:F5:53:1C:0F:C0:EF:90:B7:D7:D3:FB:D5:9E
                DirName:/CN=team463-net
                serial:5C:77:49:63:87:32:3C:99:EE:05:A9:41:EB:96:55:50:F4:3B:C1:63

            X509v3 Extended Key Usage: 
                TLS Web Client Authentication
            X509v3 Key Usage: 
                Digital Signature
    Signature Algorithm: sha256WithRSAEncryption
         cf:10:b3:8c:d2:73:82:71:e9:dc:ac:e8:6a:58:fd:b3:bd:d5:
         4a:96:e3:5e:bb:96:21:ea:29:3e:a8:38:f6:e8:c4:62:7c:f3:
         e2:e0:3e:e6:51:58:b3:e8:c5:4e:f1:aa:a6:02:60:e6:04:ee:
         9e:41:ed:fd:1a:69:80:07:6a:7a:73:e8:ed:b9:1f:ea:4f:43:
         9b:65:37:10:ca:cf:29:b4:b7:b2:02:8d:e7:e1:fe:5a:ba:01:
         ce:0e:c1:6b:31:8a:8d:cd:84:51:74:5b:75:fa:89:a9:40:39:
         b2:5b:56:cf:ac:71:b5:79:02:cc:99:5f:92:e8:8e:a4:d4:e5:
         42:ef:66:5d:88:bf:b8:65:f2:d3:7a:9d:01:11:e7:53:2f:92:
         09:1d:6e:59:42:f7:4f:5f:e0:2e:1a:a3:5e:bd:f5:67:cc:76:
         f9:ac:5f:95:c6:6f:d0:74:e8:cc:80:5f:a3:de:2b:34:e2:9a:
         29:60:d2:17:e7:17:5c:b7:63:f1:c1:8f:7c:bb:26:8d:e7:1d:
         59:17:d3:3c:40:ef:eb:95:61:e4:3d:6f:72:97:b5:ad:8b:a1:
         de:c6:4b:3b:28:83:c6:29:f0:d8:f2:b2:04:42:28:94:ff:32:
         13:b7:0a:dc:4f:62:c0:65:f9:28:12:d5:a4:16:12:aa:e5:d4:
         a0:bf:24:83
-----BEGIN CERTIFICATE-----
MIIDXDCCAkSgAwIBAgIQJx1HkOccbIxsub2aw4ftozANBgkqhkiG9w0BAQsFADAW
MRQwEgYDVQQDDAt0ZWFtNDYzLW5ldDAeFw0yMTA5MTMwMjQ5MjZaFw0yNDA4Mjgw
MjQ5MjZaMBkxFzAVBgNVBAMMDnRlYW00NjMtY2xpZW50MIIBIjANBgkqhkiG9w0B
AQEFAAOCAQ8AMIIBCgKCAQEAwJc0NusVkzro6qYXtvO5JfvrCxHZ8eLMnV5oaR7W
nSb1bwBW7PGlEN2lIFonyCBlFgiQTHBgCyLV1pQP4kCS48PK4Hik1PZrLWMiGFH6
U6S8wsrm7CHAyc0Ys/mwTs4cTRHUD3zfoHR/27sh+ZFL2+Ht4dyvtcMp+j9Qk9TV
FUqNF2Rw5zrozXZ4cbkx3yGn53i3uc2sMp9XqWTWV8owvTwBD7Bg9yPyrSTVMSxv
RkZVkDQOWZyuC9CGPG5h2/FRB3J8iMWpdMwPpiMJ8SyAAwBK3I6WvO9LryhZTkwu
q3ezqW3k5qVvYVCgs9jz2+wmBy1QyMm1oJjLA48HaHaRDwIDAQABo4GiMIGfMAkG
A1UdEwQCMAAwHQYDVR0OBBYEFHCn5Nyq+WjEJg2J9C4QFvfflLZCMFEGA1UdIwRK
MEiAFKZ0DWDOdzz1UxwPwO+Qt9fT+9WeoRqkGDAWMRQwEgYDVQQDDAt0ZWFtNDYz
LW5ldIIUXHdJY4cyPJnuBalB65ZVUPQ7wWMwEwYDVR0lBAwwCgYIKwYBBQUHAwIw
CwYDVR0PBAQDAgeAMA0GCSqGSIb3DQEBCwUAA4IBAQDPELOM0nOCcencrOhqWP2z
vdVKluNeu5Yh6ik+qDj26MRifPPi4D7mUViz6MVO8aqmAmDmBO6eQe39GmmAB2p6
c+jtuR/qT0ObZTcQys8ptLeyAo3n4f5augHODsFrMYqNzYRRdFt1+ompQDmyW1bP
rHG1eQLMmV+S6I6k1OVC72ZdiL+4ZfLTep0BEedTL5IJHW5ZQvdPX+AuGqNevfVn
zHb5rF+Vxm/QdOjMgF+j3is04popYNIX5xdct2PxwY98uyaN5x1ZF9M8QO/rlWHk
PW9yl7Wti6Hexks7KIPGKfDY8rIEQiiU/zITtwrcT2LAZfkoEtWkFhKq5dSgvySD
-----END CERTIFICATE-----
