Certificate:
    Data:
        Version: 3 (0x2)
        Serial Number:
            dd:54:a3:46:19:36:a3:2e:cc:a6:05:2c:f7:cc:88:bd
        Signature Algorithm: sha256WithRSAEncryption
        Issuer: CN=team697-net
        Validity
            Not Before: Sep 13 04:46:21 2021 GMT
            Not After : Aug 28 04:46:21 2024 GMT
        Subject: CN=team697-server
        Subject Public Key Info:
            Public Key Algorithm: rsaEncryption
                RSA Public-Key: (2048 bit)
                Modulus:
                    00:ab:04:03:b6:58:6d:d6:9d:6f:6e:3b:55:c3:64:
                    ec:b9:44:e6:0e:88:4b:5b:47:be:af:8d:92:aa:ef:
                    3a:64:89:76:ba:36:de:1e:c7:7b:7b:31:de:61:8d:
                    74:88:b3:0f:b1:dd:1a:6e:01:7d:91:a6:48:14:ca:
                    05:89:31:df:23:3d:d3:37:ef:b7:19:3f:2a:25:e2:
                    c7:90:3e:e7:02:35:78:4d:3c:e3:0d:ff:0b:82:a6:
                    0a:66:8d:c5:40:35:31:03:33:71:91:95:05:79:24:
                    50:4d:97:01:1d:f4:8f:cd:93:e9:dd:56:65:70:2e:
                    be:32:2b:d4:60:6e:ea:ce:5a:c8:bf:cf:62:d5:1b:
                    f1:cf:2a:2b:5c:1e:3e:48:c3:17:49:87:bc:95:d3:
                    e1:73:04:19:4b:27:6a:00:ec:c9:78:a1:b8:14:9c:
                    87:6c:71:06:40:69:91:6f:9b:3c:8d:1a:8b:eb:7e:
                    ef:0a:86:d4:45:48:01:29:76:87:b6:5b:da:f4:41:
                    2b:0b:14:f3:a8:d9:e2:ad:35:db:15:93:c3:e8:86:
                    31:54:55:3e:0d:26:e1:1e:98:04:ed:b7:87:86:ba:
                    e0:96:d4:c0:26:52:58:91:4c:3f:82:44:cc:b3:cd:
                    1b:96:f0:6d:93:66:cc:dc:5c:82:35:27:37:a3:8b:
                    c8:83
                Exponent: 65537 (0x10001)
        X509v3 extensions:
            X509v3 Basic Constraints: 
                CA:FALSE
            X509v3 Subject Key Identifier: 
                03:2E:D2:5C:A3:74:76:F0:41:5F:0A:D0:98:5E:92:60:42:33:6C:35
            X509v3 Authority Key Identifier: 
                keyid:30:A1:55:DF:80:29:44:8A:3C:9A:DE:CC:6F:BE:8A:55:3D:56:29:76
                DirName:/CN=team697-net
                serial:31:67:F2:6E:C2:06:13:78:1F:41:88:B1:21:CD:0E:B9:5A:D3:B9:E6

            X509v3 Extended Key Usage: 
                TLS Web Server Authentication
            X509v3 Key Usage: 
                Digital Signature, Key Encipherment
            X509v3 Subject Alternative Name: 
                DNS:team697-server
    Signature Algorithm: sha256WithRSAEncryption
         e0:1c:89:c1:6c:52:b4:d2:e5:c7:b4:f8:1b:01:52:fa:9a:81:
         a6:14:8b:e8:c0:e7:cf:18:50:e3:74:9f:66:13:99:db:21:9f:
         90:7d:85:87:4f:ec:b6:73:f6:75:32:0c:95:d5:ff:bc:85:f3:
         0b:a3:0d:6d:0a:05:be:67:a0:5e:ec:c8:ae:f4:5f:40:c5:c5:
         1b:6b:2f:62:69:b8:10:b5:44:87:06:d2:7d:da:a8:12:86:80:
         7e:d4:dc:c9:97:57:5a:a6:28:e2:a6:49:d9:5f:0d:2d:b9:95:
         71:81:02:63:ca:7b:c8:64:02:58:8c:e7:ec:fc:d5:b9:90:65:
         94:92:f4:de:3b:15:ba:08:de:49:01:25:df:7a:52:6c:5c:44:
         c2:77:f7:f2:db:23:f5:72:93:6f:33:71:7f:84:c2:fd:e0:1c:
         eb:96:fd:d4:2b:5e:b0:83:02:a8:b5:2d:4e:72:fd:b3:f7:3e:
         9a:f7:44:52:e2:20:85:ff:bf:fd:c6:85:a8:74:ff:4a:a8:b7:
         df:2a:1d:a7:04:2c:69:26:a0:86:73:77:ed:2a:f5:1d:3e:42:
         3e:fc:a6:53:70:af:5b:f3:c0:78:77:09:8f:51:50:b0:2a:5d:
         b8:62:be:21:17:7f:f1:02:4d:8b:b8:91:bd:f5:f4:59:80:ee:
         6c:f1:f9:c1
-----BEGIN CERTIFICATE-----
MIIDeDCCAmCgAwIBAgIRAN1Uo0YZNqMuzKYFLPfMiL0wDQYJKoZIhvcNAQELBQAw
FjEUMBIGA1UEAwwLdGVhbTY5Ny1uZXQwHhcNMjEwOTEzMDQ0NjIxWhcNMjQwODI4
MDQ0NjIxWjAZMRcwFQYDVQQDDA50ZWFtNjk3LXNlcnZlcjCCASIwDQYJKoZIhvcN
AQEBBQADggEPADCCAQoCggEBAKsEA7ZYbdadb247VcNk7LlE5g6IS1tHvq+Nkqrv
OmSJdro23h7He3sx3mGNdIizD7HdGm4BfZGmSBTKBYkx3yM90zfvtxk/KiXix5A+
5wI1eE084w3/C4KmCmaNxUA1MQMzcZGVBXkkUE2XAR30j82T6d1WZXAuvjIr1GBu
6s5ayL/PYtUb8c8qK1wePkjDF0mHvJXT4XMEGUsnagDsyXihuBSch2xxBkBpkW+b
PI0ai+t+7wqG1EVIASl2h7Zb2vRBKwsU86jZ4q012xWTw+iGMVRVPg0m4R6YBO23
h4a64JbUwCZSWJFMP4JEzLPNG5bwbZNmzNxcgjUnN6OLyIMCAwEAAaOBvTCBujAJ
BgNVHRMEAjAAMB0GA1UdDgQWBBQDLtJco3R28EFfCtCYXpJgQjNsNTBRBgNVHSME
SjBIgBQwoVXfgClEijya3sxvvopVPVYpdqEapBgwFjEUMBIGA1UEAwwLdGVhbTY5
Ny1uZXSCFDFn8m7CBhN4H0GIsSHNDrla07nmMBMGA1UdJQQMMAoGCCsGAQUFBwMB
MAsGA1UdDwQEAwIFoDAZBgNVHREEEjAQgg50ZWFtNjk3LXNlcnZlcjANBgkqhkiG
9w0BAQsFAAOCAQEA4ByJwWxStNLlx7T4GwFS+pqBphSL6MDnzxhQ43SfZhOZ2yGf
kH2Fh0/stnP2dTIMldX/vIXzC6MNbQoFvmegXuzIrvRfQMXFG2svYmm4ELVEhwbS
fdqoEoaAftTcyZdXWqYo4qZJ2V8NLbmVcYECY8p7yGQCWIzn7PzVuZBllJL03jsV
ugjeSQEl33pSbFxEwnf38tsj9XKTbzNxf4TC/eAc65b91CtesIMCqLUtTnL9s/c+
mvdEUuIghf+//caFqHT/Sqi33yodpwQsaSaghnN37Sr1HT5CPvymU3CvW/PAeHcJ
j1FQsCpduGK+IRd/8QJNi7iRvfX0WYDubPH5wQ==
-----END CERTIFICATE-----
