Certificate:
    Data:
        Version: 3 (0x2)
        Serial Number:
            a0:ae:17:11:aa:be:ec:ea:af:ea:92:8d:bc:b3:2c:0f
        Signature Algorithm: sha256WithRSAEncryption
        Issuer: CN=team745-net
        Validity
            Not Before: Sep 13 05:45:54 2021 GMT
            Not After : Aug 28 05:45:54 2024 GMT
        Subject: CN=team745-client
        Subject Public Key Info:
            Public Key Algorithm: rsaEncryption
                RSA Public-Key: (2048 bit)
                Modulus:
                    00:d8:5d:87:ee:32:03:9d:5e:66:1b:61:53:e5:25:
                    d1:4b:6d:9e:1e:7e:84:4f:c5:88:73:24:58:b7:5b:
                    91:4f:08:da:9a:4d:a6:ad:19:83:ab:40:5d:96:3d:
                    47:92:92:14:ca:c0:44:2d:38:4d:1f:22:e9:d3:de:
                    8a:8d:d6:d6:0e:ed:62:8b:46:65:31:55:e4:cc:b9:
                    b4:f8:37:5a:5b:28:57:16:15:17:f2:46:d2:18:1d:
                    bc:2e:3a:f1:19:01:97:57:9f:0d:a4:c8:84:43:0d:
                    9e:69:93:c2:3a:49:2a:d9:4d:8d:80:8e:53:38:e8:
                    99:30:23:48:7d:62:ea:92:6c:ee:25:bb:1a:39:9c:
                    50:9e:dc:a9:b2:48:4f:78:f6:5f:db:5c:24:f9:2b:
                    d3:91:e8:e9:ba:4f:5e:93:68:1b:51:1f:5a:43:b3:
                    84:79:e7:e5:ba:79:55:44:5e:c4:ea:b7:69:1a:fe:
                    bc:08:33:38:05:78:fb:5f:13:57:2d:2a:3e:e7:69:
                    bd:14:df:22:0d:4c:55:02:dc:54:47:ca:e8:f5:2e:
                    71:00:52:46:1b:9c:a0:5f:b2:bc:c9:a5:a8:ef:df:
                    b9:fa:63:d9:09:3b:6f:2a:34:5f:95:c9:36:1e:99:
                    18:7f:b6:14:4e:fa:c8:48:95:0c:a2:99:27:b0:74:
                    e8:1d
                Exponent: 65537 (0x10001)
        X509v3 extensions:
            X509v3 Basic Constraints: 
                CA:FALSE
            X509v3 Subject Key Identifier: 
                0A:F4:CF:36:26:DD:05:92:2C:36:71:B2:1A:32:F6:2C:52:89:4A:33
            X509v3 Authority Key Identifier: 
                keyid:17:FA:53:4E:19:0F:55:A1:10:9B:B5:47:24:5D:A6:6C:C2:21:78:34
                DirName:/CN=team745-net
                serial:72:40:52:4A:D6:AA:A1:C0:98:EC:57:09:3F:D5:54:B3:27:90:8A:85

            X509v3 Extended Key Usage: 
                TLS Web Client Authentication
            X509v3 Key Usage: 
                Digital Signature
    Signature Algorithm: sha256WithRSAEncryption
         79:63:2d:11:8e:a9:3a:26:31:69:09:d7:b6:7e:6f:b9:cc:a9:
         56:4d:43:8d:12:84:ea:ea:cf:27:dd:65:26:b4:60:8f:1c:e9:
         c2:1d:f0:c4:2f:bd:e1:71:f1:ab:e5:77:1b:07:5e:ef:70:60:
         7f:7a:7f:8c:c0:48:e9:b1:27:51:d9:37:b9:cd:97:a3:cb:e3:
         99:5e:ee:ff:49:41:fc:ab:c1:9a:b2:da:38:88:fb:92:3b:fc:
         b5:5b:90:a5:93:8b:ab:9a:4e:e1:39:bc:a4:ae:29:eb:2a:45:
         a3:84:be:03:81:61:6a:e5:a9:a3:8d:aa:e5:db:13:13:5c:e0:
         9c:3e:99:e3:5f:e0:6b:07:4e:cd:40:75:f8:c8:95:ff:9e:78:
         e5:34:5b:27:07:b9:2b:49:43:1d:25:da:c1:f8:9c:8b:6c:50:
         fd:bb:d6:d9:66:5b:f8:bd:19:d3:92:3c:02:f5:8d:32:f5:0f:
         7b:6d:ac:eb:bd:7c:6e:b1:74:0f:97:8d:24:86:31:c8:80:0b:
         16:ed:63:d6:c9:5e:c6:6c:11:93:38:d5:9d:59:c9:35:bf:98:
         4a:05:53:1c:0e:3c:49:87:f5:76:29:66:0f:0b:69:bd:56:f8:
         48:11:3d:a1:51:c5:b0:5c:a2:3c:4b:8b:ff:8c:2b:07:ed:c5:
         fd:e3:0d:4b
-----BEGIN CERTIFICATE-----
MIIDXTCCAkWgAwIBAgIRAKCuFxGqvuzqr+qSjbyzLA8wDQYJKoZIhvcNAQELBQAw
FjEUMBIGA1UEAwwLdGVhbTc0NS1uZXQwHhcNMjEwOTEzMDU0NTU0WhcNMjQwODI4
MDU0NTU0WjAZMRcwFQYDVQQDDA50ZWFtNzQ1LWNsaWVudDCCASIwDQYJKoZIhvcN
AQEBBQADggEPADCCAQoCggEBANhdh+4yA51eZhthU+Ul0Uttnh5+hE/FiHMkWLdb
kU8I2ppNpq0Zg6tAXZY9R5KSFMrARC04TR8i6dPeio3W1g7tYotGZTFV5My5tPg3
WlsoVxYVF/JG0hgdvC468RkBl1efDaTIhEMNnmmTwjpJKtlNjYCOUzjomTAjSH1i
6pJs7iW7GjmcUJ7cqbJIT3j2X9tcJPkr05Ho6bpPXpNoG1EfWkOzhHnn5bp5VURe
xOq3aRr+vAgzOAV4+18TVy0qPudpvRTfIg1MVQLcVEfK6PUucQBSRhucoF+yvMml
qO/fufpj2Qk7byo0X5XJNh6ZGH+2FE76yEiVDKKZJ7B06B0CAwEAAaOBojCBnzAJ
BgNVHRMEAjAAMB0GA1UdDgQWBBQK9M82Jt0Fkiw2cbIaMvYsUolKMzBRBgNVHSME
SjBIgBQX+lNOGQ9VoRCbtUckXaZswiF4NKEapBgwFjEUMBIGA1UEAwwLdGVhbTc0
NS1uZXSCFHJAUkrWqqHAmOxXCT/VVLMnkIqFMBMGA1UdJQQMMAoGCCsGAQUFBwMC
MAsGA1UdDwQEAwIHgDANBgkqhkiG9w0BAQsFAAOCAQEAeWMtEY6pOiYxaQnXtn5v
ucypVk1DjRKE6urPJ91lJrRgjxzpwh3wxC+94XHxq+V3Gwde73Bgf3p/jMBI6bEn
Udk3uc2Xo8vjmV7u/0lB/KvBmrLaOIj7kjv8tVuQpZOLq5pO4Tm8pK4p6ypFo4S+
A4FhauWpo42q5dsTE1zgnD6Z41/gawdOzUB1+MiV/5545TRbJwe5K0lDHSXawfic
i2xQ/bvW2WZb+L0Z05I8AvWNMvUPe22s6718brF0D5eNJIYxyIALFu1j1slexmwR
kzjVnVnJNb+YSgVTHA48SYf1dilmDwtpvVb4SBE9oVHFsFyiPEuL/4wrB+3F/eMN
Sw==
-----END CERTIFICATE-----
