Certificate:
    Data:
        Version: 3 (0x2)
        Serial Number:
            6e:1b:fd:7c:77:5b:e9:24:50:99:7d:d4:4c:92:88
        Signature Algorithm: sha256WithRSAEncryption
        Issuer: CN=team21-net
        Validity
            Not Before: Sep 12 22:52:24 2021 GMT
            Not After : Aug 27 22:52:24 2024 GMT
        Subject: CN=team21-client
        Subject Public Key Info:
            Public Key Algorithm: rsaEncryption
                RSA Public-Key: (2048 bit)
                Modulus:
                    00:a9:98:d2:73:a0:e8:1a:d7:fa:85:7b:45:d6:18:
                    a0:d8:4b:d7:4d:99:af:37:8b:b2:ca:99:4c:43:47:
                    ca:6c:bd:39:f6:2e:94:3b:83:fe:03:76:2c:b7:10:
                    96:59:0f:df:5c:51:f7:61:ea:3c:cb:6f:41:90:06:
                    46:c5:d4:a4:09:f2:d2:0d:6d:06:bd:c7:09:88:8f:
                    1e:3d:b9:60:88:10:27:d8:1d:3b:3c:50:b0:03:24:
                    1d:f5:62:38:6a:47:59:ee:0c:a9:ba:46:1b:5a:51:
                    95:49:d8:ed:b7:58:d0:f5:15:53:40:04:31:bb:68:
                    ce:4b:2f:d5:ab:07:e4:5e:1e:19:e9:82:13:fc:4a:
                    b1:72:4f:fa:ab:84:1c:57:5f:91:12:aa:c0:4f:9c:
                    01:41:11:ad:bc:4b:1d:68:8e:e9:47:f7:38:8e:2e:
                    2e:b5:1b:90:58:ad:eb:68:3b:c8:0b:ad:88:22:58:
                    27:d7:b7:e2:79:c3:5c:65:16:6d:ee:ae:a9:f0:10:
                    f3:9b:40:12:f3:ba:48:6f:0f:d6:6c:ce:56:42:a1:
                    b4:f4:e9:20:5b:d3:7c:70:60:2b:46:f7:83:93:c9:
                    c5:32:c1:f9:34:db:0c:a4:5a:bf:3c:59:e6:b8:4b:
                    2b:48:8e:e2:2c:f0:84:59:b0:76:62:6c:11:99:86:
                    a8:d7
                Exponent: 65537 (0x10001)
        X509v3 extensions:
            X509v3 Basic Constraints: 
                CA:FALSE
            X509v3 Subject Key Identifier: 
                EA:2F:1C:E2:E2:BB:4F:02:69:DC:F3:E1:A0:C8:6B:64:AE:05:EB:71
            X509v3 Authority Key Identifier: 
                keyid:DB:6E:75:50:5B:52:6C:2C:1F:79:23:0F:FB:6A:64:F5:23:C6:C2:03
                DirName:/CN=team21-net
                serial:51:2D:D2:47:2C:5E:37:0F:20:F4:57:0C:16:1B:69:44:D2:AA:BA:7E

            X509v3 Extended Key Usage: 
                TLS Web Client Authentication
            X509v3 Key Usage: 
                Digital Signature
    Signature Algorithm: sha256WithRSAEncryption
         4d:bd:06:9b:60:04:be:e4:16:80:41:0f:5e:4d:f4:1f:b4:e8:
         27:c6:d1:29:ea:5f:90:f0:aa:47:e0:14:49:62:5d:bf:62:75:
         ae:19:7c:3f:5b:7e:b9:e1:96:cc:c2:31:79:ba:33:a6:11:c3:
         30:6b:11:b1:48:cd:36:26:10:05:ac:f7:4b:c1:0d:ed:3b:2f:
         11:14:87:19:a3:9a:8f:08:ae:aa:f4:ae:c2:86:4b:74:c3:40:
         11:7a:a4:ce:35:ae:d2:0d:e1:66:d3:2f:e4:13:f0:9b:b0:a8:
         71:49:ee:b8:ae:eb:b3:65:58:6e:40:85:69:6c:4c:10:2f:de:
         01:a7:59:53:d7:88:91:80:35:63:d0:75:9f:15:25:6a:28:ff:
         59:8e:02:b7:a1:67:5b:84:9a:71:e8:66:53:67:f6:87:3b:51:
         61:53:9a:14:84:b3:74:c0:39:5e:d4:d4:c7:b1:fd:12:eb:c8:
         2c:ad:ca:93:f9:c4:0f:0e:17:4f:7b:29:22:65:aa:81:2c:c5:
         c2:14:09:b9:71:b5:63:2e:2b:b3:b5:26:b8:92:3c:d5:15:8b:
         3e:6f:9f:e0:53:e4:7b:76:44:bc:0f:84:5d:97:d7:01:0f:f6:
         9d:33:6f:ed:4d:76:f9:2f:35:b5:c3:7b:97:3e:b6:76:58:40:
         54:82:45:81
-----BEGIN CERTIFICATE-----
MIIDWDCCAkCgAwIBAgIPbhv9fHdb6SRQmX3UTJKIMA0GCSqGSIb3DQEBCwUAMBUx
EzARBgNVBAMMCnRlYW0yMS1uZXQwHhcNMjEwOTEyMjI1MjI0WhcNMjQwODI3MjI1
MjI0WjAYMRYwFAYDVQQDDA10ZWFtMjEtY2xpZW50MIIBIjANBgkqhkiG9w0BAQEF
AAOCAQ8AMIIBCgKCAQEAqZjSc6DoGtf6hXtF1hig2EvXTZmvN4uyyplMQ0fKbL05
9i6UO4P+A3YstxCWWQ/fXFH3Yeo8y29BkAZGxdSkCfLSDW0GvccJiI8ePblgiBAn
2B07PFCwAyQd9WI4akdZ7gypukYbWlGVSdjtt1jQ9RVTQAQxu2jOSy/VqwfkXh4Z
6YIT/Eqxck/6q4QcV1+REqrAT5wBQRGtvEsdaI7pR/c4ji4utRuQWK3raDvIC62I
Ilgn17fiecNcZRZt7q6p8BDzm0AS87pIbw/WbM5WQqG09OkgW9N8cGArRveDk8nF
MsH5NNsMpFq/PFnmuEsrSI7iLPCEWbB2YmwRmYao1wIDAQABo4GhMIGeMAkGA1Ud
EwQCMAAwHQYDVR0OBBYEFOovHOLiu08Cadzz4aDIa2SuBetxMFAGA1UdIwRJMEeA
FNtudVBbUmwsH3kjD/tqZPUjxsIDoRmkFzAVMRMwEQYDVQQDDAp0ZWFtMjEtbmV0
ghRRLdJHLF43DyD0VwwWG2lE0qq6fjATBgNVHSUEDDAKBggrBgEFBQcDAjALBgNV
HQ8EBAMCB4AwDQYJKoZIhvcNAQELBQADggEBAE29BptgBL7kFoBBD15N9B+06CfG
0SnqX5DwqkfgFEliXb9ida4ZfD9bfrnhlszCMXm6M6YRwzBrEbFIzTYmEAWs90vB
De07LxEUhxmjmo8Irqr0rsKGS3TDQBF6pM41rtIN4WbTL+QT8JuwqHFJ7riu67Nl
WG5AhWlsTBAv3gGnWVPXiJGANWPQdZ8VJWoo/1mOArehZ1uEmnHoZlNn9oc7UWFT
mhSEs3TAOV7U1Mex/RLryCytypP5xA8OF097KSJlqoEsxcIUCblxtWMuK7O1JriS
PNUViz5vn+BT5Ht2RLwPhF2X1wEP9p0zb+1NdvkvNbXDe5c+tnZYQFSCRYE=
-----END CERTIFICATE-----
