Certificate:
    Data:
        Version: 3 (0x2)
        Serial Number:
            32:da:ad:8f:36:fc:8c:da:de:46:34:a8:7c:11:a6:85
        Signature Algorithm: sha256WithRSAEncryption
        Issuer: CN=team474-net
        Validity
            Not Before: Sep 13 03:00:13 2021 GMT
            Not After : Aug 28 03:00:13 2024 GMT
        Subject: CN=team474-client
        Subject Public Key Info:
            Public Key Algorithm: rsaEncryption
                RSA Public-Key: (2048 bit)
                Modulus:
                    00:cc:cc:ca:71:7f:e0:52:52:e3:a3:dc:ee:36:e0:
                    9c:a8:54:b2:e1:d4:c4:ff:df:e9:a7:cb:68:9f:58:
                    2f:a3:53:57:ab:39:01:d6:97:2f:4c:a8:ea:a6:ec:
                    f7:64:41:4c:0a:da:e0:80:c9:4e:56:56:90:da:26:
                    18:e4:e6:dc:5e:7d:46:aa:93:aa:d6:66:7d:e3:6b:
                    39:26:1f:a5:d3:7c:58:a7:b4:48:64:ef:b9:92:b8:
                    95:36:1c:00:3a:f2:73:c7:90:1b:9e:e8:9e:e4:65:
                    61:28:f1:d8:e8:9f:66:0e:25:58:39:f8:d0:ea:c2:
                    fe:4c:78:9a:f6:2e:f0:a9:d4:78:3f:de:92:cf:d8:
                    81:5d:09:ff:80:96:8a:88:f1:a9:de:46:15:3e:4f:
                    35:32:47:31:b0:37:29:13:18:30:1d:4a:1d:8b:c0:
                    6a:a1:ed:75:09:30:7a:59:25:ba:82:ed:78:72:77:
                    2b:8a:67:3d:63:54:97:a5:7f:b2:b3:7d:5a:6e:91:
                    db:0c:8b:03:5b:31:9a:c6:a1:62:5f:1c:97:aa:8d:
                    c8:1b:c1:d0:c1:d5:60:2e:51:9a:09:47:34:f0:1f:
                    3f:2d:72:18:20:18:4b:d7:52:cc:da:f3:96:06:e9:
                    34:ae:03:ed:13:15:2c:9d:95:4c:a4:86:f0:dc:48:
                    65:55
                Exponent: 65537 (0x10001)
        X509v3 extensions:
            X509v3 Basic Constraints: 
                CA:FALSE
            X509v3 Subject Key Identifier: 
                D2:10:29:28:6B:23:16:28:A0:1B:0F:9D:BE:1F:FF:43:58:24:6C:50
            X509v3 Authority Key Identifier: 
                keyid:85:6A:D1:9D:07:4D:85:3C:6F:0D:92:C2:BE:92:86:71:FA:6D:B0:66
                DirName:/CN=team474-net
                serial:1A:DD:E0:63:5E:25:05:3F:E1:6C:82:67:38:DD:5E:03:EB:EF:95:48

            X509v3 Extended Key Usage: 
                TLS Web Client Authentication
            X509v3 Key Usage: 
                Digital Signature
    Signature Algorithm: sha256WithRSAEncryption
         ba:bb:a5:a1:be:33:86:b2:fc:d7:e9:51:ad:a9:91:1b:00:a9:
         d6:c5:c2:f3:1a:18:b2:1a:2f:f7:1f:d4:84:f5:d0:48:71:ec:
         6f:e3:00:1e:dc:eb:1e:da:d6:0b:36:03:73:28:d3:97:5c:18:
         4a:82:62:40:bd:06:42:59:1a:a5:e1:0c:e3:a3:68:42:0b:bd:
         21:ca:db:db:40:d2:cb:62:16:58:2f:77:61:0c:0a:36:ed:c4:
         ba:08:59:db:72:93:6e:a5:a0:56:61:6c:a4:08:02:60:f5:eb:
         d5:d6:59:1e:99:bf:cc:da:42:ae:1d:1f:e7:a1:08:95:3c:1b:
         92:2d:22:a4:2b:12:8c:71:47:ae:77:bb:9f:7c:7b:3a:e8:30:
         96:15:be:7c:65:67:f9:ff:28:81:bb:e7:c6:87:fa:d7:37:67:
         17:be:b7:c0:d5:fa:22:e7:a8:bb:f5:71:a9:20:17:f6:b3:0f:
         e8:c6:f5:4b:1c:30:bb:f9:2b:ad:7b:df:0e:44:91:02:14:0d:
         f4:b1:66:91:b5:5b:2c:83:57:56:c1:0d:1e:91:df:1f:6b:5e:
         f7:cd:e4:e8:8a:54:de:28:02:6e:2a:a5:f2:c2:b5:77:34:02:
         ed:ca:5f:cb:14:5c:96:c5:fb:d7:69:91:5c:0a:f3:8a:21:31:
         08:39:c4:f6
-----BEGIN CERTIFICATE-----
MIIDXDCCAkSgAwIBAgIQMtqtjzb8jNreRjSofBGmhTANBgkqhkiG9w0BAQsFADAW
MRQwEgYDVQQDDAt0ZWFtNDc0LW5ldDAeFw0yMTA5MTMwMzAwMTNaFw0yNDA4Mjgw
MzAwMTNaMBkxFzAVBgNVBAMMDnRlYW00NzQtY2xpZW50MIIBIjANBgkqhkiG9w0B
AQEFAAOCAQ8AMIIBCgKCAQEAzMzKcX/gUlLjo9zuNuCcqFSy4dTE/9/pp8ton1gv
o1NXqzkB1pcvTKjqpuz3ZEFMCtrggMlOVlaQ2iYY5ObcXn1GqpOq1mZ942s5Jh+l
03xYp7RIZO+5kriVNhwAOvJzx5Abnuie5GVhKPHY6J9mDiVYOfjQ6sL+THia9i7w
qdR4P96Sz9iBXQn/gJaKiPGp3kYVPk81MkcxsDcpExgwHUodi8Bqoe11CTB6WSW6
gu14cncrimc9Y1SXpX+ys31abpHbDIsDWzGaxqFiXxyXqo3IG8HQwdVgLlGaCUc0
8B8/LXIYIBhL11LM2vOWBuk0rgPtExUsnZVMpIbw3EhlVQIDAQABo4GiMIGfMAkG
A1UdEwQCMAAwHQYDVR0OBBYEFNIQKShrIxYooBsPnb4f/0NYJGxQMFEGA1UdIwRK
MEiAFIVq0Z0HTYU8bw2Swr6ShnH6bbBmoRqkGDAWMRQwEgYDVQQDDAt0ZWFtNDc0
LW5ldIIUGt3gY14lBT/hbIJnON1eA+vvlUgwEwYDVR0lBAwwCgYIKwYBBQUHAwIw
CwYDVR0PBAQDAgeAMA0GCSqGSIb3DQEBCwUAA4IBAQC6u6WhvjOGsvzX6VGtqZEb
AKnWxcLzGhiyGi/3H9SE9dBIcexv4wAe3Ose2tYLNgNzKNOXXBhKgmJAvQZCWRql
4Qzjo2hCC70hytvbQNLLYhZYL3dhDAo27cS6CFnbcpNupaBWYWykCAJg9evV1lke
mb/M2kKuHR/noQiVPBuSLSKkKxKMcUeud7uffHs66DCWFb58ZWf5/yiBu+fGh/rX
N2cXvrfA1foi56i79XGpIBf2sw/oxvVLHDC7+Sute98ORJECFA30sWaRtVssg1dW
wQ0ekd8fa173zeToilTeKAJuKqXywrV3NALtyl/LFFyWxfvXaZFcCvOKITEIOcT2
-----END CERTIFICATE-----
