Certificate:
    Data:
        Version: 3 (0x2)
        Serial Number:
            e5:60:33:fb:15:a6:49:24:ec:2d:3a:a9:73:fa:6e:8c
        Signature Algorithm: sha256WithRSAEncryption
        Issuer: CN=team658-net
        Validity
            Not Before: Sep 13 04:53:34 2021 GMT
            Not After : Aug 28 04:53:34 2024 GMT
        Subject: CN=team658-server
        Subject Public Key Info:
            Public Key Algorithm: rsaEncryption
                RSA Public-Key: (2048 bit)
                Modulus:
                    00:c5:13:50:c9:f3:3e:a7:ea:52:22:22:78:46:98:
                    6f:1d:aa:2a:ea:a3:d2:72:ed:77:f1:46:23:d2:68:
                    d2:89:cc:15:e6:5a:61:ce:40:05:da:ed:50:cf:3c:
                    96:d7:d2:9b:7d:1a:33:b9:d3:02:c2:46:be:6b:9b:
                    cf:07:d7:43:3e:0c:f4:a0:c3:ea:98:37:8c:29:11:
                    05:37:15:c3:aa:1f:35:8c:e4:5f:70:9f:d3:5f:e7:
                    60:27:68:bb:b8:df:d2:21:96:66:bf:a6:3a:71:26:
                    5d:9a:8b:ac:79:83:55:35:7e:2f:8d:d4:5e:39:57:
                    0f:ba:72:06:3e:ab:81:6b:f1:95:12:3a:1b:09:81:
                    57:7f:46:06:22:6f:2f:cd:f2:43:c8:a5:56:28:76:
                    82:b7:b8:73:a3:fc:8b:6d:ed:35:0a:b7:a8:66:9d:
                    21:0c:cd:7c:85:4d:3e:e7:04:0c:07:4d:0c:38:75:
                    c9:78:14:3f:3b:6d:10:56:51:6d:8e:e0:86:81:a9:
                    be:df:5b:6b:7e:40:ae:e6:a0:88:3b:35:73:40:3f:
                    92:e9:00:94:eb:f1:79:60:98:96:cc:ab:1f:e2:f2:
                    c4:65:c9:8e:d8:13:8c:14:88:5c:70:f7:3d:04:5e:
                    b4:40:dd:78:77:64:74:9e:8a:a8:b9:8d:ed:47:56:
                    ff:43
                Exponent: 65537 (0x10001)
        X509v3 extensions:
            X509v3 Basic Constraints: 
                CA:FALSE
            X509v3 Subject Key Identifier: 
                D0:0A:0C:01:37:2B:7E:72:7D:3B:A1:BE:4E:3C:C7:6D:2A:5F:B1:31
            X509v3 Authority Key Identifier: 
                keyid:9F:2D:AF:88:A0:5F:4B:80:86:27:6F:A6:F4:53:19:C4:C0:08:FC:C3
                DirName:/CN=team658-net
                serial:26:EC:1F:69:AB:51:54:43:37:26:96:1F:59:05:3A:85:C0:FD:04:FB

            X509v3 Extended Key Usage: 
                TLS Web Server Authentication
            X509v3 Key Usage: 
                Digital Signature, Key Encipherment
            X509v3 Subject Alternative Name: 
                DNS:team658-server
    Signature Algorithm: sha256WithRSAEncryption
         9d:f2:a4:62:7b:2f:27:3c:3e:d4:85:5c:05:67:a6:16:b1:4a:
         5c:95:a3:1c:f7:7d:fe:5a:7e:d2:4c:fa:81:24:b1:9f:ab:c2:
         7e:15:ee:42:a9:51:4f:3c:8d:0d:97:cc:55:1e:26:2e:d5:8d:
         96:f4:d1:e9:29:06:f6:cf:db:5e:35:de:68:a2:87:4c:82:d3:
         e4:07:b7:5d:71:51:c8:f7:bc:7f:e2:52:e2:51:81:82:2d:21:
         4e:55:05:84:50:bb:d7:40:e8:aa:0e:0a:4f:9f:7b:81:4c:0f:
         3a:ae:cf:23:bb:d9:74:6a:3a:c1:c0:70:7f:ac:77:12:22:d8:
         94:a9:4b:a5:49:a6:17:37:8e:a5:ee:98:a4:53:59:32:77:0b:
         ea:21:5c:a4:4d:18:29:f2:c7:a4:a6:21:da:06:25:00:5b:68:
         81:98:b4:bc:81:23:32:9c:37:0e:b4:37:5b:54:da:ab:60:85:
         a3:64:d3:e3:05:5b:5d:46:0c:eb:7d:1c:f2:55:cc:5d:67:dd:
         d8:82:1b:8d:a5:36:96:88:8c:be:f0:3f:09:aa:6e:57:c0:fc:
         0f:15:29:b0:e8:c0:9a:05:db:47:cb:9c:2b:e0:cb:6d:99:c3:
         2b:17:37:1d:e0:24:b6:5a:5b:4d:61:1b:9a:b5:cf:fb:65:b6:
         6e:58:55:d7
-----BEGIN CERTIFICATE-----
MIIDeDCCAmCgAwIBAgIRAOVgM/sVpkkk7C06qXP6bowwDQYJKoZIhvcNAQELBQAw
FjEUMBIGA1UEAwwLdGVhbTY1OC1uZXQwHhcNMjEwOTEzMDQ1MzM0WhcNMjQwODI4
MDQ1MzM0WjAZMRcwFQYDVQQDDA50ZWFtNjU4LXNlcnZlcjCCASIwDQYJKoZIhvcN
AQEBBQADggEPADCCAQoCggEBAMUTUMnzPqfqUiIieEaYbx2qKuqj0nLtd/FGI9Jo
0onMFeZaYc5ABdrtUM88ltfSm30aM7nTAsJGvmubzwfXQz4M9KDD6pg3jCkRBTcV
w6ofNYzkX3Cf01/nYCdou7jf0iGWZr+mOnEmXZqLrHmDVTV+L43UXjlXD7pyBj6r
gWvxlRI6GwmBV39GBiJvL83yQ8ilVih2gre4c6P8i23tNQq3qGadIQzNfIVNPucE
DAdNDDh1yXgUPzttEFZRbY7ghoGpvt9ba35AruagiDs1c0A/kukAlOvxeWCYlsyr
H+LyxGXJjtgTjBSIXHD3PQRetEDdeHdkdJ6KqLmN7UdW/0MCAwEAAaOBvTCBujAJ
BgNVHRMEAjAAMB0GA1UdDgQWBBTQCgwBNyt+cn07ob5OPMdtKl+xMTBRBgNVHSME
SjBIgBSfLa+IoF9LgIYnb6b0UxnEwAj8w6EapBgwFjEUMBIGA1UEAwwLdGVhbTY1
OC1uZXSCFCbsH2mrUVRDNyaWH1kFOoXA/QT7MBMGA1UdJQQMMAoGCCsGAQUFBwMB
MAsGA1UdDwQEAwIFoDAZBgNVHREEEjAQgg50ZWFtNjU4LXNlcnZlcjANBgkqhkiG
9w0BAQsFAAOCAQEAnfKkYnsvJzw+1IVcBWemFrFKXJWjHPd9/lp+0kz6gSSxn6vC
fhXuQqlRTzyNDZfMVR4mLtWNlvTR6SkG9s/bXjXeaKKHTILT5Ae3XXFRyPe8f+JS
4lGBgi0hTlUFhFC710Doqg4KT597gUwPOq7PI7vZdGo6wcBwf6x3EiLYlKlLpUmm
FzeOpe6YpFNZMncL6iFcpE0YKfLHpKYh2gYlAFtogZi0vIEjMpw3DrQ3W1Taq2CF
o2TT4wVbXUYM630c8lXMXWfd2IIbjaU2loiMvvA/CapuV8D8DxUpsOjAmgXbR8uc
K+DLbZnDKxc3HeAktlpbTWEbmrXP+2W2blhV1w==
-----END CERTIFICATE-----
