Certificate:
    Data:
        Version: 3 (0x2)
        Serial Number:
            eb:d8:1c:4c:30:df:d6:d5:5a:ee:59:33:b0:2d:6b:08
        Signature Algorithm: sha256WithRSAEncryption
        Issuer: CN=team189-net
        Validity
            Not Before: Sep 13 00:25:14 2021 GMT
            Not After : Aug 28 00:25:14 2024 GMT
        Subject: CN=team189-server
        Subject Public Key Info:
            Public Key Algorithm: rsaEncryption
                RSA Public-Key: (2048 bit)
                Modulus:
                    00:cf:f9:39:f7:81:72:c6:4e:97:80:cd:1f:f8:af:
                    04:15:e0:40:e2:7c:fe:44:5a:13:14:5a:ac:d1:72:
                    74:ff:eb:b0:49:70:60:52:06:91:b6:90:a1:0a:72:
                    89:7e:4a:fa:f4:3a:86:eb:da:34:24:09:20:66:9a:
                    07:fd:a2:63:9f:d8:fc:5e:b3:de:18:f6:eb:5d:4c:
                    c7:ac:91:4f:6e:34:3e:73:11:53:3a:29:04:15:e0:
                    79:fe:4e:0f:63:69:91:d7:bf:31:3e:69:9e:9b:fc:
                    04:f1:3b:a6:5d:bb:f5:2c:5f:03:bc:25:4b:c8:e2:
                    be:ad:44:b1:ab:a8:81:95:00:bc:f4:ac:28:b9:31:
                    34:25:a9:34:b4:59:f5:81:1b:af:7d:a8:66:4d:9c:
                    7e:88:91:9c:00:9e:5f:88:8b:c8:6a:b4:14:49:4e:
                    df:d9:82:22:06:aa:47:a2:b7:32:42:d7:e8:06:78:
                    0b:da:8a:9a:20:5f:6b:87:0b:0e:a1:d3:7d:1f:3c:
                    2b:b6:5c:05:66:c2:c5:f4:05:62:75:79:a2:1f:e2:
                    c1:a1:6c:17:66:1d:69:48:68:3a:f8:25:97:80:99:
                    84:35:1b:d7:9e:89:36:b0:d4:c9:e7:ef:39:0d:64:
                    4e:61:61:ca:12:99:13:12:48:ef:6d:1e:c7:bf:ba:
                    4f:6d
                Exponent: 65537 (0x10001)
        X509v3 extensions:
            X509v3 Basic Constraints: 
                CA:FALSE
            X509v3 Subject Key Identifier: 
                C6:B9:36:41:B6:CA:F5:17:B6:A9:F2:9C:1F:F5:F6:61:89:48:2D:54
            X509v3 Authority Key Identifier: 
                keyid:98:00:7F:06:CC:15:5D:C7:3F:34:FD:96:A9:B6:8A:66:42:56:3B:E3
                DirName:/CN=team189-net
                serial:5E:C3:A3:88:A3:5F:AE:5E:B1:F5:54:F8:23:7F:9E:81:A0:57:38:2D

            X509v3 Extended Key Usage: 
                TLS Web Server Authentication
            X509v3 Key Usage: 
                Digital Signature, Key Encipherment
            X509v3 Subject Alternative Name: 
                DNS:team189-server
    Signature Algorithm: sha256WithRSAEncryption
         b2:06:03:73:6e:33:a6:d1:30:3f:07:f9:d2:e8:74:d9:79:5c:
         e7:96:6f:4d:ff:54:9c:5c:91:7b:6b:79:d9:a5:7e:b6:9f:bd:
         5f:6e:27:4e:36:cb:71:4a:52:9c:5c:15:15:e7:ec:91:85:49:
         fb:6f:69:00:f3:09:cf:38:22:aa:09:57:f7:31:83:66:ca:a4:
         86:8e:ed:bf:14:d8:7c:db:ac:9a:74:81:c2:a5:01:8a:db:91:
         02:b4:7f:c5:b3:d7:7d:af:98:2b:94:18:0c:b5:49:bd:e9:12:
         d0:79:93:a3:e5:78:7c:c8:9a:b2:a4:46:5b:7c:05:43:d0:2e:
         5d:4a:2f:fc:c3:dd:4c:19:d3:17:a4:46:b2:01:99:d6:b9:90:
         c0:b7:9c:95:38:9b:66:f0:c8:5c:4c:2c:f3:e4:57:22:6f:27:
         2d:6f:58:64:99:ee:c3:f9:89:09:01:e4:f3:77:fc:4f:df:aa:
         ff:9f:79:95:69:57:8d:5c:e0:7f:95:03:12:a6:15:05:23:cf:
         36:11:6d:1d:16:5b:fb:8a:6c:7e:94:e0:dc:2f:8a:14:93:db:
         0e:58:00:d1:3f:fc:c0:b6:59:9b:78:7e:e3:fe:e0:3d:1d:34:
         af:7a:d6:49:08:50:6e:46:e8:b1:b9:74:57:55:71:2e:5f:e9:
         b8:7a:18:1c
-----BEGIN CERTIFICATE-----
MIIDeDCCAmCgAwIBAgIRAOvYHEww39bVWu5ZM7AtawgwDQYJKoZIhvcNAQELBQAw
FjEUMBIGA1UEAwwLdGVhbTE4OS1uZXQwHhcNMjEwOTEzMDAyNTE0WhcNMjQwODI4
MDAyNTE0WjAZMRcwFQYDVQQDDA50ZWFtMTg5LXNlcnZlcjCCASIwDQYJKoZIhvcN
AQEBBQADggEPADCCAQoCggEBAM/5OfeBcsZOl4DNH/ivBBXgQOJ8/kRaExRarNFy
dP/rsElwYFIGkbaQoQpyiX5K+vQ6huvaNCQJIGaaB/2iY5/Y/F6z3hj2611Mx6yR
T240PnMRUzopBBXgef5OD2Npkde/MT5pnpv8BPE7pl279SxfA7wlS8jivq1Esauo
gZUAvPSsKLkxNCWpNLRZ9YEbr32oZk2cfoiRnACeX4iLyGq0FElO39mCIgaqR6K3
MkLX6AZ4C9qKmiBfa4cLDqHTfR88K7ZcBWbCxfQFYnV5oh/iwaFsF2YdaUhoOvgl
l4CZhDUb156JNrDUyefvOQ1kTmFhyhKZExJI720ex7+6T20CAwEAAaOBvTCBujAJ
BgNVHRMEAjAAMB0GA1UdDgQWBBTGuTZBtsr1F7ap8pwf9fZhiUgtVDBRBgNVHSME
SjBIgBSYAH8GzBVdxz80/ZaptopmQlY746EapBgwFjEUMBIGA1UEAwwLdGVhbTE4
OS1uZXSCFF7Do4ijX65esfVU+CN/noGgVzgtMBMGA1UdJQQMMAoGCCsGAQUFBwMB
MAsGA1UdDwQEAwIFoDAZBgNVHREEEjAQgg50ZWFtMTg5LXNlcnZlcjANBgkqhkiG
9w0BAQsFAAOCAQEAsgYDc24zptEwPwf50uh02Xlc55ZvTf9UnFyRe2t52aV+tp+9
X24nTjbLcUpSnFwVFefskYVJ+29pAPMJzzgiqglX9zGDZsqkho7tvxTYfNusmnSB
wqUBituRArR/xbPXfa+YK5QYDLVJvekS0HmTo+V4fMiasqRGW3wFQ9AuXUov/MPd
TBnTF6RGsgGZ1rmQwLeclTibZvDIXEws8+RXIm8nLW9YZJnuw/mJCQHk83f8T9+q
/595lWlXjVzgf5UDEqYVBSPPNhFtHRZb+4psfpTg3C+KFJPbDlgA0T/8wLZZm3h+
4/7gPR00r3rWSQhQbkbosbl0V1VxLl/puHoYHA==
-----END CERTIFICATE-----
