Certificate:
    Data:
        Version: 3 (0x2)
        Serial Number:
            4f:f4:4a:9d:09:fc:41:ad:f5:08:f9:1a:09:eb:a1:40
        Signature Algorithm: sha256WithRSAEncryption
        Issuer: CN=team538-net
        Validity
            Not Before: Sep 13 03:25:32 2021 GMT
            Not After : Aug 28 03:25:32 2024 GMT
        Subject: CN=team538-client
        Subject Public Key Info:
            Public Key Algorithm: rsaEncryption
                RSA Public-Key: (2048 bit)
                Modulus:
                    00:ae:8f:99:82:1a:6f:eb:b3:06:07:bc:5e:5f:b6:
                    10:8d:ff:b5:58:b1:8d:55:2a:59:7c:fb:9d:07:41:
                    d9:1e:f5:8b:90:d8:d9:d8:9a:d6:fb:26:6d:20:cb:
                    b8:2e:52:82:cc:a3:ff:da:90:cf:ba:e1:32:80:36:
                    e0:ae:e6:f4:1d:44:61:6f:6d:79:e8:ca:a8:ea:6b:
                    68:b6:f6:0e:ff:0f:68:a9:2c:58:a3:a6:c3:4f:0a:
                    11:a8:d9:14:87:16:54:7a:9d:4f:66:01:ae:d4:49:
                    f3:4d:de:8f:df:e0:bb:01:66:eb:dd:ec:03:8f:9a:
                    91:88:e6:f3:cc:86:1b:51:1d:f2:0e:e3:ab:04:4d:
                    26:d2:0b:0a:10:3e:b3:4c:e8:5b:1c:f7:29:e6:07:
                    1a:7a:c8:4f:1b:b5:e0:c8:61:ea:87:8f:dd:1f:1f:
                    bc:8b:1d:14:f8:b3:a2:9e:e8:d9:44:4c:6f:46:ec:
                    26:6f:55:f4:44:e7:09:2d:38:02:94:18:eb:a9:a8:
                    73:c9:5d:72:64:df:5b:49:a3:4f:ca:70:b3:26:7c:
                    a1:7c:33:ae:5a:58:0c:87:47:ef:b4:0a:57:60:c3:
                    75:cd:48:8e:d0:76:83:ef:24:be:b8:11:94:19:89:
                    e4:af:ea:e6:54:e6:94:57:df:fe:d3:83:31:0e:6e:
                    74:c1
                Exponent: 65537 (0x10001)
        X509v3 extensions:
            X509v3 Basic Constraints: 
                CA:FALSE
            X509v3 Subject Key Identifier: 
                0A:A2:0B:0B:58:EF:BC:9B:40:2C:BA:5F:D6:58:47:EA:83:D3:62:06
            X509v3 Authority Key Identifier: 
                keyid:0B:B9:AF:B0:71:2A:CC:24:B6:88:CA:83:20:BB:AB:38:8F:54:BF:95
                DirName:/CN=team538-net
                serial:36:DC:7B:71:33:B1:8B:A2:82:A2:D2:CA:BE:E1:30:5F:F6:75:EC:DA

            X509v3 Extended Key Usage: 
                TLS Web Client Authentication
            X509v3 Key Usage: 
                Digital Signature
    Signature Algorithm: sha256WithRSAEncryption
         6c:2d:66:21:37:d7:8c:aa:fa:6b:90:cf:e1:4d:a6:56:e0:b6:
         66:80:4f:72:91:5a:b3:c1:3f:59:8e:12:9c:03:58:5d:06:52:
         eb:ab:c3:87:37:45:0f:ab:ce:d9:90:d5:87:4a:a0:ed:7b:15:
         83:b9:eb:1a:be:d0:61:b2:f7:64:66:76:89:da:87:c9:0b:35:
         ae:5a:c1:5e:26:f3:27:fd:fb:16:94:22:66:7d:ef:23:0a:e8:
         be:d9:c0:bd:b1:21:b1:d8:ed:c5:2b:15:94:6e:a2:07:c0:d6:
         2d:66:bc:c2:8e:ec:50:aa:da:3c:31:bb:c4:4f:fc:73:9b:1c:
         a3:45:db:e5:ca:89:89:ea:ed:eb:2c:ca:4a:8d:14:80:cd:ef:
         89:b1:1c:db:e3:13:ce:5f:c3:17:4f:c0:e8:49:a7:56:40:e0:
         69:0b:9b:94:55:90:4f:0f:51:72:a2:b3:e7:46:26:f5:ae:f8:
         72:2d:2d:3e:ab:84:8b:f4:ac:06:d5:37:1e:f3:0c:95:cb:50:
         17:e3:b4:d4:6a:6c:81:34:fd:b2:b0:a0:67:40:1d:7c:7f:f7:
         44:3c:45:de:cd:b5:51:ac:89:5f:7d:a8:76:ff:06:32:3f:5b:
         a0:c9:c2:03:04:a3:25:ee:9f:5e:78:4e:4c:e0:20:e4:cb:c4:
         a7:ab:28:24
-----BEGIN CERTIFICATE-----
MIIDXDCCAkSgAwIBAgIQT/RKnQn8Qa31CPkaCeuhQDANBgkqhkiG9w0BAQsFADAW
MRQwEgYDVQQDDAt0ZWFtNTM4LW5ldDAeFw0yMTA5MTMwMzI1MzJaFw0yNDA4Mjgw
MzI1MzJaMBkxFzAVBgNVBAMMDnRlYW01MzgtY2xpZW50MIIBIjANBgkqhkiG9w0B
AQEFAAOCAQ8AMIIBCgKCAQEAro+Zghpv67MGB7xeX7YQjf+1WLGNVSpZfPudB0HZ
HvWLkNjZ2JrW+yZtIMu4LlKCzKP/2pDPuuEygDbgrub0HURhb2156Mqo6mtotvYO
/w9oqSxYo6bDTwoRqNkUhxZUep1PZgGu1EnzTd6P3+C7AWbr3ewDj5qRiObzzIYb
UR3yDuOrBE0m0gsKED6zTOhbHPcp5gcaeshPG7XgyGHqh4/dHx+8ix0U+LOinujZ
RExvRuwmb1X0ROcJLTgClBjrqahzyV1yZN9bSaNPynCzJnyhfDOuWlgMh0fvtApX
YMN1zUiO0HaD7yS+uBGUGYnkr+rmVOaUV9/+04MxDm50wQIDAQABo4GiMIGfMAkG
A1UdEwQCMAAwHQYDVR0OBBYEFAqiCwtY77ybQCy6X9ZYR+qD02IGMFEGA1UdIwRK
MEiAFAu5r7BxKswktojKgyC7qziPVL+VoRqkGDAWMRQwEgYDVQQDDAt0ZWFtNTM4
LW5ldIIUNtx7cTOxi6KCotLKvuEwX/Z17NowEwYDVR0lBAwwCgYIKwYBBQUHAwIw
CwYDVR0PBAQDAgeAMA0GCSqGSIb3DQEBCwUAA4IBAQBsLWYhN9eMqvprkM/hTaZW
4LZmgE9ykVqzwT9ZjhKcA1hdBlLrq8OHN0UPq87ZkNWHSqDtexWDuesavtBhsvdk
ZnaJ2ofJCzWuWsFeJvMn/fsWlCJmfe8jCui+2cC9sSGx2O3FKxWUbqIHwNYtZrzC
juxQqto8MbvET/xzmxyjRdvlyomJ6u3rLMpKjRSAze+JsRzb4xPOX8MXT8DoSadW
QOBpC5uUVZBPD1FyorPnRib1rvhyLS0+q4SL9KwG1Tce8wyVy1AX47TUamyBNP2y
sKBnQB18f/dEPEXezbVRrIlffah2/wYyP1ugycIDBKMl7p9eeE5M4CDky8Snqygk
-----END CERTIFICATE-----
