Certificate:
    Data:
        Version: 3 (0x2)
        Serial Number:
            85:e1:43:77:b9:f5:da:8d:00:df:61:40:b6:d3:6b:c8
        Signature Algorithm: sha256WithRSAEncryption
        Issuer: CN=team217-net
        Validity
            Not Before: Sep 13 00:44:59 2021 GMT
            Not After : Aug 28 00:44:59 2024 GMT
        Subject: CN=team217-server
        Subject Public Key Info:
            Public Key Algorithm: rsaEncryption
                RSA Public-Key: (2048 bit)
                Modulus:
                    00:c5:35:e9:9c:db:9b:61:8b:25:e6:ba:32:64:43:
                    10:88:a1:a0:2b:6e:96:4b:f4:69:15:17:93:7c:1c:
                    be:65:c1:3f:03:ea:40:75:92:c1:90:82:60:16:3d:
                    66:2c:67:64:da:4d:30:1c:29:ed:fd:ce:c1:72:43:
                    9c:92:76:ca:d9:b6:17:5c:18:2b:ca:11:87:6f:a9:
                    a2:d1:f5:20:6a:6f:9b:74:6f:9d:38:6e:7f:c9:8c:
                    34:61:ba:95:5c:b2:e9:25:ed:79:c4:93:69:91:eb:
                    86:6c:a4:69:7f:7d:31:db:f5:06:1d:4a:24:4a:d6:
                    18:0f:8d:f3:b8:f2:cf:3d:c6:2d:96:03:22:29:94:
                    f7:54:71:47:9d:22:e5:c1:c8:0a:1c:26:df:04:07:
                    c6:c3:36:07:45:95:6b:b5:0e:51:ba:c9:c5:3b:9f:
                    6a:fc:57:07:10:4f:88:8c:e6:06:3a:c2:e4:88:6d:
                    3e:2b:a6:dc:9c:c0:06:49:6b:78:3b:c4:80:9e:e6:
                    a3:ef:fc:17:3b:08:61:41:bc:80:47:66:fe:bb:18:
                    20:31:22:2d:f0:0b:ae:47:32:29:40:a0:25:e6:ec:
                    e0:64:4a:68:f9:7f:f6:04:54:04:6d:ad:a5:91:df:
                    38:33:de:47:fa:b2:3d:11:84:c1:d8:46:52:c9:ad:
                    92:e9
                Exponent: 65537 (0x10001)
        X509v3 extensions:
            X509v3 Basic Constraints: 
                CA:FALSE
            X509v3 Subject Key Identifier: 
                1D:20:E4:98:9E:C7:52:AB:61:85:7F:C8:5C:CF:52:63:36:B4:FF:EE
            X509v3 Authority Key Identifier: 
                keyid:AE:44:50:E9:FD:FA:E5:E6:15:BB:5F:70:C9:E5:AF:49:4A:9D:EC:27
                DirName:/CN=team217-net
                serial:6E:0B:E6:76:7F:44:99:5E:1B:6D:67:5C:A5:20:CA:CB:42:F6:E4:42

            X509v3 Extended Key Usage: 
                TLS Web Server Authentication
            X509v3 Key Usage: 
                Digital Signature, Key Encipherment
            X509v3 Subject Alternative Name: 
                DNS:team217-server
    Signature Algorithm: sha256WithRSAEncryption
         5f:e7:e8:e6:ad:27:6b:4f:a8:81:0f:39:22:4d:85:9e:b0:0b:
         d5:fb:40:ec:3d:2f:22:67:c4:d4:40:84:30:6e:74:87:bd:77:
         5b:0c:7e:72:97:d1:a9:0d:94:8a:42:36:68:4d:fc:fc:6d:71:
         fe:b3:f0:66:ad:9e:2c:82:b5:fb:5d:93:41:ac:34:62:fa:c1:
         75:a2:4c:0f:7b:52:6f:f9:2e:36:86:f7:85:55:6d:a1:13:08:
         b2:e1:4d:dc:b5:73:27:2e:bb:14:74:72:b8:83:34:45:dd:59:
         0d:c9:38:d5:af:d8:bb:d6:f5:95:1d:2c:7c:40:6f:18:a6:d0:
         56:14:e0:67:64:92:86:d7:49:e6:ca:50:cc:f6:43:94:96:d9:
         1e:e9:86:6e:91:94:f4:7d:cd:21:b7:6d:1e:85:5f:ff:74:c3:
         41:73:43:c5:61:0c:55:b7:12:73:d9:28:a2:4e:af:c4:97:89:
         06:9f:ff:af:24:18:f5:a0:f5:ab:60:51:58:26:93:d0:48:dd:
         59:cf:93:98:a2:43:c1:95:08:9f:e7:29:31:17:fd:fc:23:12:
         28:99:95:9c:a1:88:9d:70:c7:af:97:8d:55:d3:e9:7d:5d:63:
         ab:e5:88:ee:ac:72:ca:ce:70:e1:bc:e9:2f:e9:d0:ed:82:d0:
         a3:0c:09:8a
-----BEGIN CERTIFICATE-----
MIIDeDCCAmCgAwIBAgIRAIXhQ3e59dqNAN9hQLbTa8gwDQYJKoZIhvcNAQELBQAw
FjEUMBIGA1UEAwwLdGVhbTIxNy1uZXQwHhcNMjEwOTEzMDA0NDU5WhcNMjQwODI4
MDA0NDU5WjAZMRcwFQYDVQQDDA50ZWFtMjE3LXNlcnZlcjCCASIwDQYJKoZIhvcN
AQEBBQADggEPADCCAQoCggEBAMU16Zzbm2GLJea6MmRDEIihoCtulkv0aRUXk3wc
vmXBPwPqQHWSwZCCYBY9ZixnZNpNMBwp7f3OwXJDnJJ2ytm2F1wYK8oRh2+potH1
IGpvm3RvnThuf8mMNGG6lVyy6SXtecSTaZHrhmykaX99Mdv1Bh1KJErWGA+N87jy
zz3GLZYDIimU91RxR50i5cHIChwm3wQHxsM2B0WVa7UOUbrJxTufavxXBxBPiIzm
BjrC5IhtPium3JzABklreDvEgJ7mo+/8FzsIYUG8gEdm/rsYIDEiLfALrkcyKUCg
Jebs4GRKaPl/9gRUBG2tpZHfODPeR/qyPRGEwdhGUsmtkukCAwEAAaOBvTCBujAJ
BgNVHRMEAjAAMB0GA1UdDgQWBBQdIOSYnsdSq2GFf8hcz1JjNrT/7jBRBgNVHSME
SjBIgBSuRFDp/frl5hW7X3DJ5a9JSp3sJ6EapBgwFjEUMBIGA1UEAwwLdGVhbTIx
Ny1uZXSCFG4L5nZ/RJleG21nXKUgystC9uRCMBMGA1UdJQQMMAoGCCsGAQUFBwMB
MAsGA1UdDwQEAwIFoDAZBgNVHREEEjAQgg50ZWFtMjE3LXNlcnZlcjANBgkqhkiG
9w0BAQsFAAOCAQEAX+fo5q0na0+ogQ85Ik2FnrAL1ftA7D0vImfE1ECEMG50h713
Wwx+cpfRqQ2UikI2aE38/G1x/rPwZq2eLIK1+12TQaw0YvrBdaJMD3tSb/kuNob3
hVVtoRMIsuFN3LVzJy67FHRyuIM0Rd1ZDck41a/Yu9b1lR0sfEBvGKbQVhTgZ2SS
htdJ5spQzPZDlJbZHumGbpGU9H3NIbdtHoVf/3TDQXNDxWEMVbcSc9kook6vxJeJ
Bp//ryQY9aD1q2BRWCaT0EjdWc+TmKJDwZUIn+cpMRf9/CMSKJmVnKGInXDHr5eN
VdPpfV1jq+WI7qxyys5w4bzpL+nQ7YLQowwJig==
-----END CERTIFICATE-----
