Certificate:
    Data:
        Version: 3 (0x2)
        Serial Number:
            fd:b5:4c:c7:21:a2:3a:af:12:e0:59:d0:06:ae:f2:25
        Signature Algorithm: sha256WithRSAEncryption
        Issuer: CN=team217-net
        Validity
            Not Before: Sep 13 00:44:58 2021 GMT
            Not After : Aug 28 00:44:58 2024 GMT
        Subject: CN=team217-client
        Subject Public Key Info:
            Public Key Algorithm: rsaEncryption
                RSA Public-Key: (2048 bit)
                Modulus:
                    00:b2:0a:53:1d:0c:36:b1:0a:f4:af:68:a8:66:33:
                    91:d4:05:34:27:1f:79:4e:00:55:ac:d9:c9:a0:cd:
                    f4:e1:fe:d6:75:67:41:20:46:74:42:bc:1a:b9:a4:
                    36:ae:36:4d:df:d4:10:e6:b8:59:bf:3f:b9:67:b2:
                    9f:89:7c:88:10:d5:5b:ed:ac:e9:5b:3f:a2:0f:c8:
                    61:6a:48:93:fc:60:4e:36:a8:06:e5:54:5a:af:c6:
                    16:0b:64:f4:a7:23:de:12:1a:f2:41:a5:ab:d8:76:
                    ea:3c:ae:6f:4e:7e:ca:0d:cd:40:db:86:d9:94:fc:
                    85:b7:9e:7b:14:fb:99:ce:82:f6:08:15:6d:09:28:
                    57:82:3d:cd:31:b2:e8:6e:59:42:73:85:01:2b:7f:
                    20:2c:dc:92:4f:2e:0d:3a:53:44:f5:3b:e5:a4:4f:
                    74:80:46:7b:d2:73:47:a6:77:93:ae:14:f4:51:42:
                    46:61:d8:d3:e2:4d:21:70:46:bb:56:77:3b:24:c9:
                    c9:38:25:f5:57:cc:64:dc:fa:fe:23:28:6f:f9:6c:
                    f5:87:e1:60:d6:00:4b:97:be:0b:8c:a8:55:e5:e7:
                    9b:dd:c9:41:fe:58:b5:e6:07:94:1c:6d:3a:25:d6:
                    13:52:f2:21:34:24:f5:08:88:d6:3a:b1:38:14:35:
                    40:f3
                Exponent: 65537 (0x10001)
        X509v3 extensions:
            X509v3 Basic Constraints: 
                CA:FALSE
            X509v3 Subject Key Identifier: 
                D2:24:DB:B0:4B:20:12:A4:DD:18:B8:C8:A3:B4:95:68:A7:E6:49:09
            X509v3 Authority Key Identifier: 
                keyid:AE:44:50:E9:FD:FA:E5:E6:15:BB:5F:70:C9:E5:AF:49:4A:9D:EC:27
                DirName:/CN=team217-net
                serial:6E:0B:E6:76:7F:44:99:5E:1B:6D:67:5C:A5:20:CA:CB:42:F6:E4:42

            X509v3 Extended Key Usage: 
                TLS Web Client Authentication
            X509v3 Key Usage: 
                Digital Signature
    Signature Algorithm: sha256WithRSAEncryption
         44:42:82:b9:8c:f4:56:25:90:c4:ac:04:f8:1d:b1:0d:c4:22:
         86:d9:22:b7:5e:b0:85:e8:bd:c3:f3:3c:45:60:f9:84:b4:81:
         32:4f:08:b6:7c:f6:b8:e4:91:37:99:10:28:38:8b:e6:62:d6:
         54:c0:4f:2e:ee:dc:c8:e6:09:c1:bf:5e:40:5c:69:ef:ee:26:
         52:d6:70:96:a1:70:12:8b:b0:0a:28:89:6a:f1:cd:f5:38:eb:
         1a:74:f5:fa:53:6b:a1:7e:87:0a:2e:d1:1a:43:54:59:ee:88:
         76:76:05:1f:63:95:67:e9:28:56:5d:43:d8:90:c6:b7:f1:05:
         ed:e5:29:6d:ef:58:60:c3:59:e3:f3:27:96:90:3f:af:e3:39:
         2d:ce:14:c7:88:1e:b3:da:a2:8c:9f:cd:29:01:8a:55:34:22:
         bb:c9:06:6c:2e:d8:2c:71:ef:f3:af:7c:95:98:b2:11:94:1f:
         50:e4:a9:86:c3:76:1d:26:83:ed:00:1d:38:d3:9c:fc:29:c0:
         9c:11:04:bd:d5:b5:2e:83:f9:b0:d2:72:56:58:c1:cc:26:f0:
         f9:6d:21:4b:36:2e:de:82:69:9f:bb:57:71:6a:fe:5a:45:d3:
         b5:7c:67:77:56:26:00:04:e2:4c:b1:1e:27:6f:d7:b7:8f:d4:
         39:83:10:16
-----BEGIN CERTIFICATE-----
MIIDXTCCAkWgAwIBAgIRAP21TMchojqvEuBZ0Aau8iUwDQYJKoZIhvcNAQELBQAw
FjEUMBIGA1UEAwwLdGVhbTIxNy1uZXQwHhcNMjEwOTEzMDA0NDU4WhcNMjQwODI4
MDA0NDU4WjAZMRcwFQYDVQQDDA50ZWFtMjE3LWNsaWVudDCCASIwDQYJKoZIhvcN
AQEBBQADggEPADCCAQoCggEBALIKUx0MNrEK9K9oqGYzkdQFNCcfeU4AVazZyaDN
9OH+1nVnQSBGdEK8GrmkNq42Td/UEOa4Wb8/uWeyn4l8iBDVW+2s6Vs/og/IYWpI
k/xgTjaoBuVUWq/GFgtk9Kcj3hIa8kGlq9h26jyub05+yg3NQNuG2ZT8hbeeexT7
mc6C9ggVbQkoV4I9zTGy6G5ZQnOFASt/ICzckk8uDTpTRPU75aRPdIBGe9JzR6Z3
k64U9FFCRmHY0+JNIXBGu1Z3OyTJyTgl9VfMZNz6/iMob/ls9YfhYNYAS5e+C4yo
VeXnm93JQf5YteYHlBxtOiXWE1LyITQk9QiI1jqxOBQ1QPMCAwEAAaOBojCBnzAJ
BgNVHRMEAjAAMB0GA1UdDgQWBBTSJNuwSyASpN0YuMijtJVop+ZJCTBRBgNVHSME
SjBIgBSuRFDp/frl5hW7X3DJ5a9JSp3sJ6EapBgwFjEUMBIGA1UEAwwLdGVhbTIx
Ny1uZXSCFG4L5nZ/RJleG21nXKUgystC9uRCMBMGA1UdJQQMMAoGCCsGAQUFBwMC
MAsGA1UdDwQEAwIHgDANBgkqhkiG9w0BAQsFAAOCAQEAREKCuYz0ViWQxKwE+B2x
DcQihtkit16whei9w/M8RWD5hLSBMk8Itnz2uOSRN5kQKDiL5mLWVMBPLu7cyOYJ
wb9eQFxp7+4mUtZwlqFwEouwCiiJavHN9TjrGnT1+lNroX6HCi7RGkNUWe6IdnYF
H2OVZ+koVl1D2JDGt/EF7eUpbe9YYMNZ4/MnlpA/r+M5Lc4Ux4ges9qijJ/NKQGK
VTQiu8kGbC7YLHHv8698lZiyEZQfUOSphsN2HSaD7QAdONOc/CnAnBEEvdW1LoP5
sNJyVljBzCbw+W0hSzYu3oJpn7tXcWr+WkXTtXxnd1YmAATiTLEeJ2/Xt4/UOYMQ
Fg==
-----END CERTIFICATE-----
