Certificate:
    Data:
        Version: 3 (0x2)
        Serial Number:
            24:31:a1:04:dd:17:20:58:9c:3a:8a:75:e4:96:4c:5d
        Signature Algorithm: sha256WithRSAEncryption
        Issuer: CN=team527-net
        Validity
            Not Before: Sep 13 03:34:52 2021 GMT
            Not After : Aug 28 03:34:52 2024 GMT
        Subject: CN=team527-server
        Subject Public Key Info:
            Public Key Algorithm: rsaEncryption
                RSA Public-Key: (2048 bit)
                Modulus:
                    00:de:69:a7:92:05:43:26:1c:2b:2e:6f:da:73:30:
                    20:c3:49:72:90:75:0c:fb:c4:66:2d:0f:1a:3b:12:
                    e1:19:bc:91:84:17:0b:f8:c0:d1:6e:86:95:49:60:
                    d6:a1:4d:ad:a0:3a:6f:fa:73:9c:f3:39:54:fb:b4:
                    03:22:6b:c3:40:0d:df:fc:33:72:4b:d7:a0:38:7d:
                    f8:c6:c3:37:50:b7:a7:2e:e2:ad:28:cf:2e:5f:b4:
                    71:ce:4e:6f:74:fc:f6:40:f1:c2:e9:1c:af:07:20:
                    8b:61:4a:7d:0c:33:1f:ae:00:78:65:7e:82:46:0e:
                    b2:8a:f2:22:12:f0:7a:de:19:a6:7e:34:4d:96:87:
                    73:c3:45:d4:e7:81:1a:40:43:e1:78:c5:f1:15:8b:
                    27:de:65:79:9f:2c:1f:c8:de:78:44:65:04:26:4b:
                    88:12:ca:d4:e7:f8:e1:6b:b2:84:d5:42:63:99:5d:
                    66:26:74:1d:42:13:a0:65:cd:62:aa:da:4b:a3:c9:
                    33:63:86:5b:8d:28:f3:84:ee:a8:ab:74:e1:dc:2f:
                    83:e0:1a:60:9b:77:81:23:e9:1a:e9:b2:5f:4e:f2:
                    fe:c8:de:5d:31:61:5f:76:a1:18:b4:3d:cf:84:ef:
                    d2:13:ee:dc:6f:bf:8a:46:73:a5:31:c7:65:c4:70:
                    82:7d
                Exponent: 65537 (0x10001)
        X509v3 extensions:
            X509v3 Basic Constraints: 
                CA:FALSE
            X509v3 Subject Key Identifier: 
                C2:C4:A0:C1:0C:E9:B3:76:36:EA:7E:3E:5C:E2:2A:5C:F7:B7:C4:43
            X509v3 Authority Key Identifier: 
                keyid:29:AC:46:34:D8:0B:DD:B8:62:4D:94:4E:82:57:15:FC:62:F7:1E:CD
                DirName:/CN=team527-net
                serial:25:0E:DC:1D:E2:9C:27:BB:6A:11:A6:9B:7B:8B:FF:13:C8:44:F6:04

            X509v3 Extended Key Usage: 
                TLS Web Server Authentication
            X509v3 Key Usage: 
                Digital Signature, Key Encipherment
            X509v3 Subject Alternative Name: 
                DNS:team527-server
    Signature Algorithm: sha256WithRSAEncryption
         9f:09:68:03:cd:2c:78:a2:eb:d6:fc:40:52:fb:f5:df:8e:44:
         10:a3:53:fd:75:c5:b2:ca:47:ae:a9:5e:df:43:e2:37:48:61:
         7f:4a:c9:39:c1:d5:d6:19:3e:74:c1:dc:13:c9:8a:84:7a:8b:
         59:6d:97:01:c6:59:46:23:67:37:f9:bb:52:9c:1d:cd:36:6b:
         8f:9c:bd:2d:10:58:0d:7a:4a:49:9b:f1:a0:ef:3a:c9:9e:9a:
         9a:64:4f:55:54:85:61:bc:29:f5:a6:f4:c2:04:1e:60:ce:af:
         55:d4:fe:0d:bb:50:d0:c8:f4:a1:70:73:96:d2:85:e3:a9:2e:
         5c:6a:5f:97:24:7e:a3:c6:90:75:7a:37:d0:3c:fb:0e:a7:3f:
         2f:28:4b:e9:0b:7c:61:02:0c:0a:9b:e3:a9:aa:3c:20:6b:49:
         c5:1a:93:ed:b4:f8:42:00:e1:b3:63:7d:12:ea:7c:2b:70:92:
         69:41:bf:96:1e:44:1f:dd:1d:d4:16:26:0d:de:bf:a6:ad:67:
         a5:98:6d:20:8e:7e:ff:f2:38:9e:c5:67:8d:f9:69:d2:34:3b:
         97:83:2f:23:55:2b:8e:0c:2d:b2:1b:cf:dc:44:f7:91:c4:f6:
         27:23:a8:08:93:f6:64:c3:4d:45:9b:01:bf:13:9b:02:ec:41:
         b3:b3:89:d7
-----BEGIN CERTIFICATE-----
MIIDdzCCAl+gAwIBAgIQJDGhBN0XIFicOop15JZMXTANBgkqhkiG9w0BAQsFADAW
MRQwEgYDVQQDDAt0ZWFtNTI3LW5ldDAeFw0yMTA5MTMwMzM0NTJaFw0yNDA4Mjgw
MzM0NTJaMBkxFzAVBgNVBAMMDnRlYW01Mjctc2VydmVyMIIBIjANBgkqhkiG9w0B
AQEFAAOCAQ8AMIIBCgKCAQEA3mmnkgVDJhwrLm/aczAgw0lykHUM+8RmLQ8aOxLh
GbyRhBcL+MDRboaVSWDWoU2toDpv+nOc8zlU+7QDImvDQA3f/DNyS9egOH34xsM3
ULenLuKtKM8uX7Rxzk5vdPz2QPHC6RyvByCLYUp9DDMfrgB4ZX6CRg6yivIiEvB6
3hmmfjRNlodzw0XU54EaQEPheMXxFYsn3mV5nywfyN54RGUEJkuIEsrU5/jha7KE
1UJjmV1mJnQdQhOgZc1iqtpLo8kzY4ZbjSjzhO6oq3Th3C+D4Bpgm3eBI+ka6bJf
TvL+yN5dMWFfdqEYtD3PhO/SE+7cb7+KRnOlMcdlxHCCfQIDAQABo4G9MIG6MAkG
A1UdEwQCMAAwHQYDVR0OBBYEFMLEoMEM6bN2Nup+PlziKlz3t8RDMFEGA1UdIwRK
MEiAFCmsRjTYC924Yk2UToJXFfxi9x7NoRqkGDAWMRQwEgYDVQQDDAt0ZWFtNTI3
LW5ldIIUJQ7cHeKcJ7tqEaabe4v/E8hE9gQwEwYDVR0lBAwwCgYIKwYBBQUHAwEw
CwYDVR0PBAQDAgWgMBkGA1UdEQQSMBCCDnRlYW01Mjctc2VydmVyMA0GCSqGSIb3
DQEBCwUAA4IBAQCfCWgDzSx4ouvW/EBS+/XfjkQQo1P9dcWyykeuqV7fQ+I3SGF/
Ssk5wdXWGT50wdwTyYqEeotZbZcBxllGI2c3+btSnB3NNmuPnL0tEFgNekpJm/Gg
7zrJnpqaZE9VVIVhvCn1pvTCBB5gzq9V1P4Nu1DQyPShcHOW0oXjqS5cal+XJH6j
xpB1ejfQPPsOpz8vKEvpC3xhAgwKm+Opqjwga0nFGpPttPhCAOGzY30S6nwrcJJp
Qb+WHkQf3R3UFiYN3r+mrWelmG0gjn7/8jiexWeN+WnSNDuXgy8jVSuODC2yG8/c
RPeRxPYnI6gIk/Zkw01FmwG/E5sC7EGzs4nX
-----END CERTIFICATE-----
