Certificate:
    Data:
        Version: 3 (0x2)
        Serial Number:
            07:ad:92:c0:65:d6:74:0b:91:17:62:45:51:99:80:40
        Signature Algorithm: sha256WithRSAEncryption
        Issuer: CN=team460-net
        Validity
            Not Before: Sep 13 02:47:27 2021 GMT
            Not After : Aug 28 02:47:27 2024 GMT
        Subject: CN=team460-server
        Subject Public Key Info:
            Public Key Algorithm: rsaEncryption
                RSA Public-Key: (2048 bit)
                Modulus:
                    00:b5:08:a1:a7:d6:c0:fc:3c:30:6e:79:5e:c8:9e:
                    fd:5e:3b:fb:bd:d5:e6:dc:80:01:b7:41:5b:9c:17:
                    7f:79:6c:22:75:56:13:e2:c5:04:7e:3e:59:00:cd:
                    13:6f:f3:2c:3a:16:a5:41:4f:11:6c:42:e3:ab:ed:
                    f4:95:fc:55:40:49:21:32:15:75:bc:f7:04:68:ea:
                    f9:5e:f7:2c:37:98:59:6a:bd:b1:ae:1c:66:33:07:
                    68:b6:a0:b1:49:34:a1:f6:09:c8:9a:9e:be:ef:bd:
                    53:f9:32:ed:bf:99:75:2d:44:31:91:7e:9b:cc:63:
                    49:3d:09:9f:e6:71:62:51:48:b3:65:30:bd:08:65:
                    a3:ac:b9:e8:3c:2d:40:06:c9:b5:39:93:d9:a2:57:
                    b2:8d:ab:60:a6:58:dd:5e:a7:80:24:6c:6f:cf:f6:
                    e3:6a:62:e1:e2:09:87:5b:5a:3f:7f:1b:0c:50:c7:
                    77:c2:c0:ca:bd:3e:15:a7:b3:e1:55:87:38:ab:b6:
                    af:0a:a9:1d:cc:9d:68:13:f1:87:f3:76:4b:45:50:
                    d2:49:75:60:37:f7:82:13:bd:cc:8f:10:4d:0b:4e:
                    bb:f3:b0:ff:71:64:12:cd:f9:1b:79:ae:db:8f:84:
                    a4:41:2a:0e:76:61:f7:59:9d:54:47:3f:44:a7:d1:
                    b7:43
                Exponent: 65537 (0x10001)
        X509v3 extensions:
            X509v3 Basic Constraints: 
                CA:FALSE
            X509v3 Subject Key Identifier: 
                01:C9:F6:1F:AF:CF:AF:09:04:11:98:65:31:26:5E:3F:B0:98:F6:09
            X509v3 Authority Key Identifier: 
                keyid:36:1E:DB:ED:26:77:3E:A9:58:E1:7B:C4:77:C5:60:F1:A4:93:EB:E8
                DirName:/CN=team460-net
                serial:55:DC:A9:6D:4E:E2:2F:F5:94:3F:5F:D1:FC:0E:7A:53:8B:1B:4C:7A

            X509v3 Extended Key Usage: 
                TLS Web Server Authentication
            X509v3 Key Usage: 
                Digital Signature, Key Encipherment
            X509v3 Subject Alternative Name: 
                DNS:team460-server
    Signature Algorithm: sha256WithRSAEncryption
         3a:03:49:73:0e:e8:5e:05:00:5a:de:6f:07:ef:ae:b1:88:0f:
         65:4e:c3:ea:48:f3:22:ce:50:5e:c4:41:88:5d:4b:38:79:91:
         b4:29:64:4c:88:7c:9a:57:38:e0:91:25:e3:a0:46:13:71:d0:
         63:74:04:bf:25:30:ae:66:4b:70:e6:91:ac:6a:3e:72:61:60:
         84:e2:40:3a:43:60:45:69:ce:4d:0f:2f:90:f0:7d:2f:79:72:
         26:91:3b:7c:99:d7:fb:2c:ce:d8:86:4b:d9:6f:d8:ef:30:5b:
         fc:f8:9b:9a:c0:d4:10:2b:19:ce:b8:fd:ca:7b:be:32:28:59:
         c0:b4:88:66:bf:cf:c6:3f:ba:84:0a:95:47:0c:85:b7:94:7e:
         22:f7:e6:c6:b6:d9:7a:9c:3a:40:01:b3:31:af:40:04:89:a6:
         a7:ce:87:c5:e2:e9:96:c6:e0:43:36:63:04:d8:49:ca:1d:7c:
         a7:8c:4d:85:36:65:df:99:64:7c:c9:25:5d:2b:e6:2b:91:99:
         2b:a7:b4:64:08:21:2d:94:48:49:16:ce:f8:af:50:74:46:87:
         72:bf:b1:30:27:9a:ce:41:77:f2:8e:e8:d2:16:3c:11:d6:4f:
         b2:6d:4d:6c:af:6a:d1:49:f5:86:b1:28:59:d7:6e:d7:98:a2:
         50:9f:ba:41
-----BEGIN CERTIFICATE-----
MIIDdzCCAl+gAwIBAgIQB62SwGXWdAuRF2JFUZmAQDANBgkqhkiG9w0BAQsFADAW
MRQwEgYDVQQDDAt0ZWFtNDYwLW5ldDAeFw0yMTA5MTMwMjQ3MjdaFw0yNDA4Mjgw
MjQ3MjdaMBkxFzAVBgNVBAMMDnRlYW00NjAtc2VydmVyMIIBIjANBgkqhkiG9w0B
AQEFAAOCAQ8AMIIBCgKCAQEAtQihp9bA/DwwbnleyJ79Xjv7vdXm3IABt0FbnBd/
eWwidVYT4sUEfj5ZAM0Tb/MsOhalQU8RbELjq+30lfxVQEkhMhV1vPcEaOr5Xvcs
N5hZar2xrhxmMwdotqCxSTSh9gnImp6+771T+TLtv5l1LUQxkX6bzGNJPQmf5nFi
UUizZTC9CGWjrLnoPC1ABsm1OZPZoleyjatgpljdXqeAJGxvz/bjamLh4gmHW1o/
fxsMUMd3wsDKvT4Vp7PhVYc4q7avCqkdzJ1oE/GH83ZLRVDSSXVgN/eCE73MjxBN
C06787D/cWQSzfkbea7bj4SkQSoOdmH3WZ1URz9Ep9G3QwIDAQABo4G9MIG6MAkG
A1UdEwQCMAAwHQYDVR0OBBYEFAHJ9h+vz68JBBGYZTEmXj+wmPYJMFEGA1UdIwRK
MEiAFDYe2+0mdz6pWOF7xHfFYPGkk+vooRqkGDAWMRQwEgYDVQQDDAt0ZWFtNDYw
LW5ldIIUVdypbU7iL/WUP1/R/A56U4sbTHowEwYDVR0lBAwwCgYIKwYBBQUHAwEw
CwYDVR0PBAQDAgWgMBkGA1UdEQQSMBCCDnRlYW00NjAtc2VydmVyMA0GCSqGSIb3
DQEBCwUAA4IBAQA6A0lzDuheBQBa3m8H766xiA9lTsPqSPMizlBexEGIXUs4eZG0
KWRMiHyaVzjgkSXjoEYTcdBjdAS/JTCuZktw5pGsaj5yYWCE4kA6Q2BFac5NDy+Q
8H0veXImkTt8mdf7LM7YhkvZb9jvMFv8+JuawNQQKxnOuP3Ke74yKFnAtIhmv8/G
P7qECpVHDIW3lH4i9+bGttl6nDpAAbMxr0AEiaanzofF4umWxuBDNmME2EnKHXyn
jE2FNmXfmWR8ySVdK+YrkZkrp7RkCCEtlEhJFs74r1B0Rodyv7EwJ5rOQXfyjujS
FjwR1k+ybU1sr2rRSfWGsShZ127XmKJQn7pB
-----END CERTIFICATE-----
