Certificate:
    Data:
        Version: 3 (0x2)
        Serial Number:
            31:4e:e1:4c:65:27:bd:05:34:5f:ee:4b:2f:35:bc:c5
        Signature Algorithm: sha256WithRSAEncryption
        Issuer: CN=team432-net
        Validity
            Not Before: Sep 13 02:41:44 2021 GMT
            Not After : Aug 28 02:41:44 2024 GMT
        Subject: CN=team432-client
        Subject Public Key Info:
            Public Key Algorithm: rsaEncryption
                RSA Public-Key: (2048 bit)
                Modulus:
                    00:c3:f4:6f:c4:61:eb:a0:46:aa:61:2e:8f:c5:51:
                    8c:27:58:a0:1e:7a:5f:b4:e4:27:fc:40:a3:7c:a0:
                    bc:8e:15:11:99:12:f8:53:81:62:22:fd:bf:7a:2b:
                    e5:4d:7d:e9:2c:70:3b:14:ca:08:80:37:87:5b:4b:
                    b3:87:86:b8:7e:56:a4:65:07:d9:1b:85:98:03:3b:
                    8a:79:b8:b8:70:44:77:7a:03:82:e3:c6:f7:39:27:
                    90:48:35:4f:7b:2a:9c:4e:d0:6b:14:75:7d:85:4d:
                    2f:1d:77:4c:67:bb:2a:19:c6:65:55:b6:02:40:56:
                    de:9f:eb:57:e6:81:4f:90:ff:35:52:69:16:43:d8:
                    e1:10:dd:8e:6c:21:72:55:57:2e:db:05:5c:9c:82:
                    38:48:77:b8:27:c4:b2:2b:f8:04:eb:a4:36:17:09:
                    18:8f:40:9d:f3:2b:86:0b:fd:ad:fc:ad:03:dd:91:
                    9f:9b:50:7f:e2:98:0c:4e:20:9e:c8:66:69:8b:6a:
                    9e:82:b7:30:0a:e3:f1:36:52:e2:67:e4:2c:00:39:
                    ae:24:d1:e8:8d:6b:c6:8d:91:8a:4e:0e:00:35:ff:
                    30:0a:9b:86:f4:03:bc:67:a5:36:be:62:58:0f:20:
                    09:ef:07:39:5f:c3:57:4b:0e:bc:cd:eb:cf:03:74:
                    32:a5
                Exponent: 65537 (0x10001)
        X509v3 extensions:
            X509v3 Basic Constraints: 
                CA:FALSE
            X509v3 Subject Key Identifier: 
                B9:AC:DF:BC:83:60:60:E6:BC:73:50:85:CA:8C:4F:6B:D7:53:F2:61
            X509v3 Authority Key Identifier: 
                keyid:9B:2F:57:72:02:74:F5:A8:BF:57:7D:A8:52:AB:C7:63:A5:30:D1:12
                DirName:/CN=team432-net
                serial:3F:49:F0:09:D3:DF:4A:C3:B7:90:74:28:C8:2A:A1:1E:6D:71:5E:D7

            X509v3 Extended Key Usage: 
                TLS Web Client Authentication
            X509v3 Key Usage: 
                Digital Signature
    Signature Algorithm: sha256WithRSAEncryption
         16:18:67:57:05:02:68:58:f8:e8:73:05:c8:52:42:63:ba:c2:
         98:ed:40:44:d8:0d:47:90:01:84:66:2f:34:2c:3a:d5:81:cc:
         91:47:d0:1b:8e:96:7d:8a:b5:89:f6:ea:06:b6:1e:3e:fb:c1:
         b0:f5:30:9a:8a:6b:19:ac:06:54:c3:d2:29:1d:2f:98:e8:d4:
         89:fc:89:17:54:b3:40:11:4e:67:07:55:4e:56:0c:5d:52:fa:
         fe:c9:d8:c0:07:9c:6b:4a:67:13:74:ea:cc:8c:ab:1e:8a:4f:
         b8:04:d0:e3:a7:d6:59:b6:8f:9f:e4:d8:32:62:ca:83:d4:a0:
         d0:84:65:a6:be:c8:fb:53:fb:6b:3b:46:fc:34:21:90:97:d9:
         fd:54:b7:bd:1f:86:25:1e:51:8e:a2:ab:f0:c4:83:42:5d:75:
         d0:4f:f4:dc:73:9e:88:65:9d:b3:10:06:cd:09:ab:a7:2d:d0:
         11:57:1e:9a:df:dd:44:a9:89:fd:aa:b1:c0:a8:cb:44:7b:32:
         e2:67:f7:75:4c:38:50:93:80:91:1d:8c:cf:4d:0e:6c:69:97:
         6d:88:c1:60:73:a3:f3:e6:d8:7d:3f:14:d2:c5:09:b4:3b:5e:
         9e:f1:a4:be:e8:d9:62:17:43:25:be:4b:d7:85:53:98:c8:bb:
         2f:22:87:96
-----BEGIN CERTIFICATE-----
MIIDXDCCAkSgAwIBAgIQMU7hTGUnvQU0X+5LLzW8xTANBgkqhkiG9w0BAQsFADAW
MRQwEgYDVQQDDAt0ZWFtNDMyLW5ldDAeFw0yMTA5MTMwMjQxNDRaFw0yNDA4Mjgw
MjQxNDRaMBkxFzAVBgNVBAMMDnRlYW00MzItY2xpZW50MIIBIjANBgkqhkiG9w0B
AQEFAAOCAQ8AMIIBCgKCAQEAw/RvxGHroEaqYS6PxVGMJ1igHnpftOQn/ECjfKC8
jhURmRL4U4FiIv2/eivlTX3pLHA7FMoIgDeHW0uzh4a4flakZQfZG4WYAzuKebi4
cER3egOC48b3OSeQSDVPeyqcTtBrFHV9hU0vHXdMZ7sqGcZlVbYCQFben+tX5oFP
kP81UmkWQ9jhEN2ObCFyVVcu2wVcnII4SHe4J8SyK/gE66Q2FwkYj0Cd8yuGC/2t
/K0D3ZGfm1B/4pgMTiCeyGZpi2qegrcwCuPxNlLiZ+QsADmuJNHojWvGjZGKTg4A
Nf8wCpuG9AO8Z6U2vmJYDyAJ7wc5X8NXSw68zevPA3QypQIDAQABo4GiMIGfMAkG
A1UdEwQCMAAwHQYDVR0OBBYEFLms37yDYGDmvHNQhcqMT2vXU/JhMFEGA1UdIwRK
MEiAFJsvV3ICdPWov1d9qFKrx2OlMNESoRqkGDAWMRQwEgYDVQQDDAt0ZWFtNDMy
LW5ldIIUP0nwCdPfSsO3kHQoyCqhHm1xXtcwEwYDVR0lBAwwCgYIKwYBBQUHAwIw
CwYDVR0PBAQDAgeAMA0GCSqGSIb3DQEBCwUAA4IBAQAWGGdXBQJoWPjocwXIUkJj
usKY7UBE2A1HkAGEZi80LDrVgcyRR9AbjpZ9irWJ9uoGth4++8Gw9TCaimsZrAZU
w9IpHS+Y6NSJ/IkXVLNAEU5nB1VOVgxdUvr+ydjAB5xrSmcTdOrMjKseik+4BNDj
p9ZZto+f5NgyYsqD1KDQhGWmvsj7U/trO0b8NCGQl9n9VLe9H4YlHlGOoqvwxINC
XXXQT/Tcc56IZZ2zEAbNCaunLdARVx6a391EqYn9qrHAqMtEezLiZ/d1TDhQk4CR
HYzPTQ5saZdtiMFgc6Pz5th9PxTSxQm0O16e8aS+6NliF0MlvkvXhVOYyLsvIoeW
-----END CERTIFICATE-----
