Certificate:
    Data:
        Version: 3 (0x2)
        Serial Number:
            f4:24:99:80:ac:01:62:6b:a0:42:23:f6:7d:43:63:b7
        Signature Algorithm: sha256WithRSAEncryption
        Issuer: CN=team635-net
        Validity
            Not Before: Sep 13 04:41:22 2021 GMT
            Not After : Aug 28 04:41:22 2024 GMT
        Subject: CN=team635-server
        Subject Public Key Info:
            Public Key Algorithm: rsaEncryption
                RSA Public-Key: (2048 bit)
                Modulus:
                    00:da:c4:88:fc:ae:5e:d4:28:5e:a1:d4:3c:6a:2e:
                    13:83:d9:90:cb:75:99:fa:40:1c:83:60:1d:d6:84:
                    a8:f1:f4:08:9e:8c:5b:31:de:cf:39:f3:55:54:e7:
                    20:3f:b7:e0:d0:c8:d3:7a:66:69:6b:68:3f:b4:23:
                    23:0d:3a:22:32:52:da:2e:f9:58:5b:ac:14:93:69:
                    7c:06:af:49:fe:5f:cd:f9:d9:1f:dd:ea:9d:68:a8:
                    22:12:29:24:af:3a:45:96:1a:92:e0:e0:03:c1:2a:
                    d3:00:6e:e3:7c:8b:b8:19:81:e9:82:e7:33:a8:6b:
                    9a:1b:f6:4c:24:bd:cb:c3:b5:dd:64:00:79:74:4f:
                    d7:64:fc:b2:23:ce:28:89:81:04:e5:72:dc:03:b9:
                    fb:29:47:13:5f:16:21:c9:86:8f:84:a7:3f:f0:57:
                    15:71:91:d1:7c:e3:9e:00:d7:91:16:a5:a8:02:38:
                    cd:ae:5f:e1:de:d3:a5:d0:51:55:2c:e3:15:93:0e:
                    26:4f:b1:25:ff:97:af:c5:92:e8:7a:83:7d:2b:0a:
                    6f:38:f9:06:0e:9c:ed:a1:07:23:18:8f:a4:34:e7:
                    4a:a7:da:e3:c7:7b:38:7d:84:3c:00:1d:69:23:9b:
                    27:dc:83:84:cc:b8:e9:b5:02:ee:c1:c8:78:fe:af:
                    5b:4d
                Exponent: 65537 (0x10001)
        X509v3 extensions:
            X509v3 Basic Constraints: 
                CA:FALSE
            X509v3 Subject Key Identifier: 
                A6:DF:E1:E9:77:BD:35:62:99:CD:5F:73:58:CD:C9:89:99:01:D1:84
            X509v3 Authority Key Identifier: 
                keyid:A2:F9:C5:FC:43:A3:8C:D2:56:E0:81:FA:D7:01:73:7C:9F:B0:6F:A3
                DirName:/CN=team635-net
                serial:10:AE:7E:11:99:D6:A5:05:90:14:7B:0F:9E:6F:1A:E5:DC:74:FB:76

            X509v3 Extended Key Usage: 
                TLS Web Server Authentication
            X509v3 Key Usage: 
                Digital Signature, Key Encipherment
            X509v3 Subject Alternative Name: 
                DNS:team635-server
    Signature Algorithm: sha256WithRSAEncryption
         54:1f:5a:87:c1:e5:a7:13:54:57:73:94:b3:ad:68:52:82:9f:
         ed:c8:3e:5c:ee:53:4c:94:3f:f5:35:7f:f8:fb:e1:cc:4e:05:
         dd:ee:b1:5f:df:f4:17:c7:72:bd:58:f7:87:a7:83:cc:55:88:
         c8:44:8e:55:ea:bb:4c:43:f8:ec:ee:d3:17:6f:40:23:e6:4a:
         d2:04:b5:26:ad:2c:ee:d9:5d:44:57:31:d5:5b:f8:37:a2:85:
         7b:ae:7a:fb:0f:96:6a:55:02:64:30:23:72:8d:90:00:b3:e0:
         c7:3c:78:c4:fe:09:14:da:1a:64:ba:04:c9:80:5d:d4:fc:9a:
         e6:60:77:e2:d9:eb:92:c0:ab:27:96:17:ce:f5:a1:9a:2b:c1:
         80:75:e4:ce:d5:35:47:e8:29:6b:34:76:9d:20:02:dc:cd:97:
         6f:ec:f4:0c:d8:b0:59:5c:a6:f6:30:9b:8a:5e:26:75:a4:4e:
         a9:ff:bd:2a:5d:96:01:f5:b7:f4:da:1b:00:26:5d:af:90:e3:
         5f:e2:e7:c1:b7:e9:00:b3:69:bb:aa:74:57:9b:ab:3b:11:a3:
         ab:32:52:04:f1:c8:e9:f2:55:90:76:23:fb:f0:37:3d:5b:59:
         e7:61:72:fe:9c:8f:6e:3b:ff:5e:4a:64:04:1b:7b:1c:70:bb:
         80:b2:c4:07
-----BEGIN CERTIFICATE-----
MIIDeDCCAmCgAwIBAgIRAPQkmYCsAWJroEIj9n1DY7cwDQYJKoZIhvcNAQELBQAw
FjEUMBIGA1UEAwwLdGVhbTYzNS1uZXQwHhcNMjEwOTEzMDQ0MTIyWhcNMjQwODI4
MDQ0MTIyWjAZMRcwFQYDVQQDDA50ZWFtNjM1LXNlcnZlcjCCASIwDQYJKoZIhvcN
AQEBBQADggEPADCCAQoCggEBANrEiPyuXtQoXqHUPGouE4PZkMt1mfpAHINgHdaE
qPH0CJ6MWzHezznzVVTnID+34NDI03pmaWtoP7QjIw06IjJS2i75WFusFJNpfAav
Sf5fzfnZH93qnWioIhIpJK86RZYakuDgA8Eq0wBu43yLuBmB6YLnM6hrmhv2TCS9
y8O13WQAeXRP12T8siPOKImBBOVy3AO5+ylHE18WIcmGj4SnP/BXFXGR0XzjngDX
kRalqAI4za5f4d7TpdBRVSzjFZMOJk+xJf+Xr8WS6HqDfSsKbzj5Bg6c7aEHIxiP
pDTnSqfa48d7OH2EPAAdaSObJ9yDhMy46bUC7sHIeP6vW00CAwEAAaOBvTCBujAJ
BgNVHRMEAjAAMB0GA1UdDgQWBBSm3+Hpd701YpnNX3NYzcmJmQHRhDBRBgNVHSME
SjBIgBSi+cX8Q6OM0lbggfrXAXN8n7Bvo6EapBgwFjEUMBIGA1UEAwwLdGVhbTYz
NS1uZXSCFBCufhGZ1qUFkBR7D55vGuXcdPt2MBMGA1UdJQQMMAoGCCsGAQUFBwMB
MAsGA1UdDwQEAwIFoDAZBgNVHREEEjAQgg50ZWFtNjM1LXNlcnZlcjANBgkqhkiG
9w0BAQsFAAOCAQEAVB9ah8HlpxNUV3OUs61oUoKf7cg+XO5TTJQ/9TV/+PvhzE4F
3e6xX9/0F8dyvVj3h6eDzFWIyESOVeq7TEP47O7TF29AI+ZK0gS1Jq0s7tldRFcx
1Vv4N6KFe656+w+WalUCZDAjco2QALPgxzx4xP4JFNoaZLoEyYBd1Pya5mB34tnr
ksCrJ5YXzvWhmivBgHXkztU1R+gpazR2nSAC3M2Xb+z0DNiwWVym9jCbil4mdaRO
qf+9Kl2WAfW39NobACZdr5DjX+LnwbfpALNpu6p0V5urOxGjqzJSBPHI6fJVkHYj
+/A3PVtZ52Fy/pyPbjv/XkpkBBt7HHC7gLLEBw==
-----END CERTIFICATE-----
