Certificate:
    Data:
        Version: 3 (0x2)
        Serial Number:
            1b:08:48:32:95:c5:81:80:33:68:1b:ea:1d:73:27:4e
        Signature Algorithm: sha256WithRSAEncryption
        Issuer: CN=team382-net
        Validity
            Not Before: Sep 13 02:11:19 2021 GMT
            Not After : Aug 28 02:11:19 2024 GMT
        Subject: CN=team382-server
        Subject Public Key Info:
            Public Key Algorithm: rsaEncryption
                RSA Public-Key: (2048 bit)
                Modulus:
                    00:e6:2f:fe:d5:ba:58:36:a4:f1:72:f1:90:04:b5:
                    a0:7f:b1:31:57:ad:fc:00:f0:f7:1b:61:9c:d9:37:
                    b7:f5:f4:82:d7:60:da:cf:99:e7:87:9d:9f:f5:5a:
                    c7:69:99:c3:ab:bc:64:78:7b:b1:e8:55:24:4f:04:
                    aa:fc:94:e5:5d:a0:33:d1:e2:e4:5e:30:cf:15:6c:
                    16:f3:20:1b:2b:0f:5c:88:9b:ae:e3:71:e1:3a:59:
                    77:3c:ff:81:d3:88:ce:c8:fe:d8:70:16:e6:e4:67:
                    eb:eb:01:7d:18:2e:80:cc:0d:a4:66:3d:21:df:44:
                    44:da:a8:87:fe:ee:fd:7e:1f:e2:12:23:75:cc:ae:
                    b3:92:c8:27:e6:ca:3e:6c:2a:9d:42:e9:ff:a5:92:
                    f3:20:04:8c:15:06:80:bc:aa:42:54:30:fa:0d:40:
                    18:f8:26:4d:38:8b:cc:84:2b:0d:75:1a:c8:87:5b:
                    fd:c2:d0:7f:d1:ab:6f:2d:59:f3:c8:cd:f0:6d:0f:
                    05:ee:12:1f:15:0f:30:3d:1a:33:a7:bf:ee:6a:bd:
                    1b:b1:1d:b7:88:c4:cf:63:dd:4f:6f:eb:78:9f:ad:
                    c3:59:90:1a:21:a9:83:c9:bb:e8:9b:98:7c:36:2e:
                    e9:4e:29:5f:59:6d:c8:68:90:e6:f8:06:ec:4b:cc:
                    5c:21
                Exponent: 65537 (0x10001)
        X509v3 extensions:
            X509v3 Basic Constraints: 
                CA:FALSE
            X509v3 Subject Key Identifier: 
                3E:E8:F5:3A:07:71:3A:65:8F:48:C4:59:BB:10:49:13:EE:A9:1C:C4
            X509v3 Authority Key Identifier: 
                keyid:57:B8:45:57:93:E0:5B:D5:8D:22:64:6B:8C:7F:2A:F8:23:83:C5:BF
                DirName:/CN=team382-net
                serial:5C:8F:83:C2:5E:A5:8C:DD:86:A4:64:8A:F5:9E:CF:05:48:04:6C:5B

            X509v3 Extended Key Usage: 
                TLS Web Server Authentication
            X509v3 Key Usage: 
                Digital Signature, Key Encipherment
            X509v3 Subject Alternative Name: 
                DNS:team382-server
    Signature Algorithm: sha256WithRSAEncryption
         c5:c0:02:9f:a3:5f:16:f2:98:c2:a2:32:28:f7:e7:5c:a8:29:
         2d:65:80:e3:db:cf:5d:de:7b:8d:b0:aa:97:45:82:1b:1d:c2:
         9b:d8:af:5a:1b:ca:ec:03:a2:7a:99:75:05:77:aa:ff:71:3c:
         02:eb:b7:e9:da:14:48:cd:64:b8:a9:3f:13:48:08:3e:be:0c:
         c7:68:86:71:e6:0e:6e:50:c8:a3:cd:18:fc:73:1a:f3:b9:11:
         53:32:4a:71:e6:7b:d9:7b:f2:06:9c:17:b9:b6:cb:b1:8e:40:
         28:f2:79:a0:43:86:21:8c:f4:d8:e6:f8:b6:3e:60:d7:d7:8c:
         05:31:bd:6a:b5:90:d4:e0:69:ec:ae:1f:b0:5e:1b:99:1d:2d:
         f5:9a:fc:82:61:30:5d:56:4d:17:d8:99:c7:ce:c1:43:70:ab:
         87:65:dc:88:2e:1a:f1:54:a5:4c:7e:4e:1b:60:0b:3f:36:63:
         dc:4f:f8:31:c6:ab:f2:b3:04:c1:bb:4b:ec:d9:5c:29:27:28:
         39:21:86:e5:5b:b4:7e:04:8c:9d:eb:f8:07:03:dd:92:37:57:
         a5:3f:36:3c:3a:dd:58:89:53:93:31:6d:81:94:6b:16:a7:46:
         41:29:46:d9:5f:43:93:9d:3d:83:b0:f3:98:a3:98:e1:3c:62:
         5e:5e:a4:08
-----BEGIN CERTIFICATE-----
MIIDdzCCAl+gAwIBAgIQGwhIMpXFgYAzaBvqHXMnTjANBgkqhkiG9w0BAQsFADAW
MRQwEgYDVQQDDAt0ZWFtMzgyLW5ldDAeFw0yMTA5MTMwMjExMTlaFw0yNDA4Mjgw
MjExMTlaMBkxFzAVBgNVBAMMDnRlYW0zODItc2VydmVyMIIBIjANBgkqhkiG9w0B
AQEFAAOCAQ8AMIIBCgKCAQEA5i/+1bpYNqTxcvGQBLWgf7ExV638APD3G2Gc2Te3
9fSC12Daz5nnh52f9VrHaZnDq7xkeHux6FUkTwSq/JTlXaAz0eLkXjDPFWwW8yAb
Kw9ciJuu43HhOll3PP+B04jOyP7YcBbm5Gfr6wF9GC6AzA2kZj0h30RE2qiH/u79
fh/iEiN1zK6zksgn5so+bCqdQun/pZLzIASMFQaAvKpCVDD6DUAY+CZNOIvMhCsN
dRrIh1v9wtB/0atvLVnzyM3wbQ8F7hIfFQ8wPRozp7/uar0bsR23iMTPY91Pb+t4
n63DWZAaIamDybvom5h8Ni7pTilfWW3IaJDm+AbsS8xcIQIDAQABo4G9MIG6MAkG
A1UdEwQCMAAwHQYDVR0OBBYEFD7o9ToHcTplj0jEWbsQSRPuqRzEMFEGA1UdIwRK
MEiAFFe4RVeT4FvVjSJka4x/Kvgjg8W/oRqkGDAWMRQwEgYDVQQDDAt0ZWFtMzgy
LW5ldIIUXI+Dwl6ljN2GpGSK9Z7PBUgEbFswEwYDVR0lBAwwCgYIKwYBBQUHAwEw
CwYDVR0PBAQDAgWgMBkGA1UdEQQSMBCCDnRlYW0zODItc2VydmVyMA0GCSqGSIb3
DQEBCwUAA4IBAQDFwAKfo18W8pjCojIo9+dcqCktZYDj289d3nuNsKqXRYIbHcKb
2K9aG8rsA6J6mXUFd6r/cTwC67fp2hRIzWS4qT8TSAg+vgzHaIZx5g5uUMijzRj8
cxrzuRFTMkpx5nvZe/IGnBe5tsuxjkAo8nmgQ4YhjPTY5vi2PmDX14wFMb1qtZDU
4Gnsrh+wXhuZHS31mvyCYTBdVk0X2JnHzsFDcKuHZdyILhrxVKVMfk4bYAs/NmPc
T/gxxqvyswTBu0vs2VwpJyg5IYblW7R+BIyd6/gHA92SN1elPzY8Ot1YiVOTMW2B
lGsWp0ZBKUbZX0OTnT2DsPOYo5jhPGJeXqQI
-----END CERTIFICATE-----
