Certificate:
    Data:
        Version: 3 (0x2)
        Serial Number:
            88:62:94:5a:43:41:79:e3:20:18:b0:59:6e:d6:16:d4
        Signature Algorithm: sha256WithRSAEncryption
        Issuer: CN=team176-net
        Validity
            Not Before: Sep 13 00:26:18 2021 GMT
            Not After : Aug 28 00:26:18 2024 GMT
        Subject: CN=team176-server
        Subject Public Key Info:
            Public Key Algorithm: rsaEncryption
                RSA Public-Key: (2048 bit)
                Modulus:
                    00:f0:ca:e2:54:88:cc:7d:ba:3c:f6:df:09:2b:c4:
                    cb:2f:a8:9a:5c:2b:8a:0f:20:bc:83:b4:1a:c8:9e:
                    e5:61:d6:89:fb:1c:b9:fb:33:f0:83:ca:e7:c3:11:
                    60:44:c1:72:a1:fd:70:8a:e0:a4:8a:b9:37:e1:fd:
                    82:26:f4:24:83:be:58:56:56:32:03:dd:08:68:f3:
                    76:bb:fa:5f:68:39:e7:ca:08:98:91:0a:9f:bd:c0:
                    77:1e:dc:f4:fc:fd:9d:29:8e:07:02:bb:a4:1a:b0:
                    a2:c6:3c:18:48:cf:19:36:a3:d7:a9:09:cb:77:bf:
                    aa:7e:11:76:3e:a6:c9:bc:04:30:1d:86:9e:5f:a8:
                    b6:45:36:df:fb:e5:fa:23:0a:c9:1d:69:e9:8f:81:
                    30:f4:da:15:d5:1f:43:c3:e8:83:25:81:0b:f6:6f:
                    b7:05:19:0a:8f:5b:50:a2:b7:5b:66:75:ed:39:40:
                    89:ac:7d:e6:a9:eb:f0:91:89:74:45:58:a7:41:71:
                    42:9e:c4:42:23:bb:c6:c9:6a:5d:65:a0:0b:74:57:
                    36:09:03:6a:e0:75:0b:fb:7c:d3:57:12:52:df:bf:
                    18:9a:c3:a2:8d:01:df:e3:c5:c9:da:ff:b7:cb:bb:
                    6b:ea:93:9c:14:00:01:58:0b:c9:3f:92:20:13:e1:
                    a2:59
                Exponent: 65537 (0x10001)
        X509v3 extensions:
            X509v3 Basic Constraints: 
                CA:FALSE
            X509v3 Subject Key Identifier: 
                CC:72:6B:EF:33:2E:48:98:72:A9:D3:D5:F8:06:81:ED:A8:0E:6A:65
            X509v3 Authority Key Identifier: 
                keyid:E5:72:9A:E3:A1:19:3D:CF:F6:3D:DB:68:22:16:0C:EC:9E:73:FB:9C
                DirName:/CN=team176-net
                serial:6B:EE:EA:FE:7E:46:BD:9B:64:32:22:94:10:48:B8:C6:43:09:53:CA

            X509v3 Extended Key Usage: 
                TLS Web Server Authentication
            X509v3 Key Usage: 
                Digital Signature, Key Encipherment
            X509v3 Subject Alternative Name: 
                DNS:team176-server
    Signature Algorithm: sha256WithRSAEncryption
         51:4d:81:dc:20:37:f6:e7:0f:f9:98:72:45:8b:51:44:40:d3:
         6e:1e:fd:ad:f2:27:b2:a0:7c:c1:2a:ac:58:17:7b:ef:f3:50:
         8a:96:ce:dc:58:5f:00:e6:21:5c:6f:9c:ee:c2:c2:6f:da:a8:
         59:b2:d5:3b:e7:28:8e:77:fd:7d:1d:aa:27:c8:4d:8e:bf:3a:
         7f:88:d1:6b:fc:67:42:e6:a1:0d:9b:ef:63:30:71:3d:93:0c:
         50:12:95:f6:bf:ce:19:3d:8e:87:72:27:cb:57:09:46:7e:d2:
         ac:3a:f4:57:5e:67:05:04:95:e6:fa:d0:f9:5e:73:fc:b8:1a:
         94:6f:53:29:b5:5f:60:36:5d:b7:73:ba:20:02:b3:92:d8:29:
         8b:0c:cc:54:e4:ee:aa:b2:fa:74:7d:72:00:8d:75:dd:7c:01:
         7f:a2:a7:4e:26:1b:58:fb:16:db:c5:66:34:e6:21:90:df:5a:
         fb:20:a3:0c:2e:26:62:98:db:97:ab:7f:2f:23:6d:b9:f3:e7:
         e5:fd:c5:7b:d5:23:36:d2:ed:fd:de:07:a9:d8:1a:78:96:73:
         82:48:43:97:37:62:ef:d2:c6:9d:72:2a:f3:b7:96:0a:5e:4e:
         33:20:01:3f:32:ad:6b:44:29:83:fb:b1:9f:22:52:a7:af:e0:
         36:c3:f7:af
-----BEGIN CERTIFICATE-----
MIIDeDCCAmCgAwIBAgIRAIhilFpDQXnjIBiwWW7WFtQwDQYJKoZIhvcNAQELBQAw
FjEUMBIGA1UEAwwLdGVhbTE3Ni1uZXQwHhcNMjEwOTEzMDAyNjE4WhcNMjQwODI4
MDAyNjE4WjAZMRcwFQYDVQQDDA50ZWFtMTc2LXNlcnZlcjCCASIwDQYJKoZIhvcN
AQEBBQADggEPADCCAQoCggEBAPDK4lSIzH26PPbfCSvEyy+omlwrig8gvIO0Gsie
5WHWifscufsz8IPK58MRYETBcqH9cIrgpIq5N+H9gib0JIO+WFZWMgPdCGjzdrv6
X2g558oImJEKn73Adx7c9Pz9nSmOBwK7pBqwosY8GEjPGTaj16kJy3e/qn4Rdj6m
ybwEMB2Gnl+otkU23/vl+iMKyR1p6Y+BMPTaFdUfQ8PogyWBC/ZvtwUZCo9bUKK3
W2Z17TlAiax95qnr8JGJdEVYp0FxQp7EQiO7xslqXWWgC3RXNgkDauB1C/t801cS
Ut+/GJrDoo0B3+PFydr/t8u7a+qTnBQAAVgLyT+SIBPholkCAwEAAaOBvTCBujAJ
BgNVHRMEAjAAMB0GA1UdDgQWBBTMcmvvMy5ImHKp09X4BoHtqA5qZTBRBgNVHSME
SjBIgBTlcprjoRk9z/Y922giFgzsnnP7nKEapBgwFjEUMBIGA1UEAwwLdGVhbTE3
Ni1uZXSCFGvu6v5+Rr2bZDIilBBIuMZDCVPKMBMGA1UdJQQMMAoGCCsGAQUFBwMB
MAsGA1UdDwQEAwIFoDAZBgNVHREEEjAQgg50ZWFtMTc2LXNlcnZlcjANBgkqhkiG
9w0BAQsFAAOCAQEAUU2B3CA39ucP+ZhyRYtRREDTbh79rfInsqB8wSqsWBd77/NQ
ipbO3FhfAOYhXG+c7sLCb9qoWbLVO+cojnf9fR2qJ8hNjr86f4jRa/xnQuahDZvv
YzBxPZMMUBKV9r/OGT2Oh3Iny1cJRn7SrDr0V15nBQSV5vrQ+V5z/LgalG9TKbVf
YDZdt3O6IAKzktgpiwzMVOTuqrL6dH1yAI113XwBf6KnTiYbWPsW28VmNOYhkN9a
+yCjDC4mYpjbl6t/LyNtufPn5f3Fe9UjNtLt/d4HqdgaeJZzgkhDlzdi79LGnXIq
87eWCl5OMyABPzKta0Qpg/uxnyJSp6/gNsP3rw==
-----END CERTIFICATE-----
