Certificate:
    Data:
        Version: 3 (0x2)
        Serial Number:
            c1:6c:de:59:8f:49:c4:b3:35:69:68:1a:36:5b:42:38
        Signature Algorithm: sha256WithRSAEncryption
        Issuer: CN=team323-net
        Validity
            Not Before: Sep 13 01:39:49 2021 GMT
            Not After : Aug 28 01:39:49 2024 GMT
        Subject: CN=team323-server
        Subject Public Key Info:
            Public Key Algorithm: rsaEncryption
                RSA Public-Key: (2048 bit)
                Modulus:
                    00:d0:96:2a:d7:5a:55:76:4d:a4:17:db:6b:16:71:
                    40:19:d1:10:69:d2:7c:b2:b0:46:c9:f4:6b:c0:94:
                    2d:1d:9b:d0:e8:0f:89:0a:8a:4d:08:3d:32:70:c9:
                    22:da:5f:8d:48:ad:62:4a:9e:43:75:8c:77:75:49:
                    c6:68:31:8b:67:84:6e:20:d3:8d:80:94:bb:9c:e1:
                    6a:e3:da:84:2c:c6:ba:aa:db:17:85:79:db:2d:6c:
                    71:7b:86:81:19:f2:db:26:c8:05:99:13:32:e0:d1:
                    48:ad:b9:f4:a5:61:cf:94:32:69:e9:35:e8:62:ac:
                    67:a0:69:58:c9:10:a0:29:9c:8e:7e:6c:ef:9c:21:
                    d1:39:b6:e6:8a:4b:0d:8b:72:81:35:c6:89:40:b7:
                    98:ef:8c:42:b4:51:0b:c5:3e:93:c4:eb:f6:e4:6e:
                    30:13:3f:ad:8b:aa:32:c2:34:e6:63:00:5b:a6:62:
                    86:4f:31:21:15:67:8c:96:bf:b3:b0:13:60:79:73:
                    e6:25:21:f4:3d:f8:13:c7:5a:d4:65:b7:09:51:70:
                    d4:6e:ad:6e:9c:39:fa:2c:b1:cf:46:3d:a9:27:8c:
                    72:14:22:ec:72:3c:5a:8d:84:49:2c:a9:20:58:78:
                    aa:67:bb:c6:fd:9d:4f:00:af:47:93:3f:1d:29:f0:
                    51:3d
                Exponent: 65537 (0x10001)
        X509v3 extensions:
            X509v3 Basic Constraints: 
                CA:FALSE
            X509v3 Subject Key Identifier: 
                08:C2:0C:45:C2:E6:DF:B7:BA:22:CF:04:8D:25:CB:88:73:24:ED:AF
            X509v3 Authority Key Identifier: 
                keyid:0A:C3:D7:A7:C0:43:A6:AF:11:03:D1:0E:E3:CD:91:88:1F:C6:63:00
                DirName:/CN=team323-net
                serial:45:FF:07:46:62:8C:1D:DB:C1:E1:CF:AA:AF:53:34:B4:F5:04:F1:DC

            X509v3 Extended Key Usage: 
                TLS Web Server Authentication
            X509v3 Key Usage: 
                Digital Signature, Key Encipherment
            X509v3 Subject Alternative Name: 
                DNS:team323-server
    Signature Algorithm: sha256WithRSAEncryption
         b4:87:c6:5b:64:25:4a:e2:a0:c8:b6:8e:41:74:55:40:b8:ff:
         9a:44:04:39:88:90:c2:ba:fa:2b:47:e0:c8:29:e9:26:df:75:
         00:ad:f6:17:82:84:eb:1b:c9:04:46:26:2c:87:d8:3c:18:94:
         49:03:ab:e8:f7:82:f1:1d:80:3d:25:20:87:2a:3e:b9:20:1a:
         c5:a8:de:42:a1:56:d7:9a:24:13:1d:4f:68:a0:21:db:bd:90:
         04:21:05:1d:95:10:f4:59:3f:9a:d7:49:5d:a8:cf:d7:09:f9:
         eb:49:d8:2e:27:cd:20:36:5c:11:2a:c2:3a:d5:32:76:1c:b6:
         f4:97:9d:8e:4c:4c:f1:64:2c:97:5b:16:8b:f1:87:e4:91:8f:
         e5:06:e7:15:56:50:2a:48:68:e5:d2:0e:62:2c:44:dd:a3:37:
         26:b7:0f:7c:4c:95:82:6f:22:a4:ec:1b:b6:e3:3f:4a:1f:ac:
         5d:05:f3:5a:d8:4c:bf:29:41:32:35:c0:25:42:48:1d:06:56:
         20:c0:99:83:b2:ec:4b:35:3d:00:dd:88:f0:27:14:8e:15:4a:
         52:8f:bf:fd:2a:49:87:ad:54:8a:46:7a:58:a9:2e:a3:e0:d6:
         c0:69:8a:74:42:e8:17:ee:2d:89:4e:1a:d3:87:e3:04:ed:89:
         95:f6:7e:0a
-----BEGIN CERTIFICATE-----
MIIDeDCCAmCgAwIBAgIRAMFs3lmPScSzNWloGjZbQjgwDQYJKoZIhvcNAQELBQAw
FjEUMBIGA1UEAwwLdGVhbTMyMy1uZXQwHhcNMjEwOTEzMDEzOTQ5WhcNMjQwODI4
MDEzOTQ5WjAZMRcwFQYDVQQDDA50ZWFtMzIzLXNlcnZlcjCCASIwDQYJKoZIhvcN
AQEBBQADggEPADCCAQoCggEBANCWKtdaVXZNpBfbaxZxQBnREGnSfLKwRsn0a8CU
LR2b0OgPiQqKTQg9MnDJItpfjUitYkqeQ3WMd3VJxmgxi2eEbiDTjYCUu5zhauPa
hCzGuqrbF4V52y1scXuGgRny2ybIBZkTMuDRSK259KVhz5Qyaek16GKsZ6BpWMkQ
oCmcjn5s75wh0Tm25opLDYtygTXGiUC3mO+MQrRRC8U+k8Tr9uRuMBM/rYuqMsI0
5mMAW6Zihk8xIRVnjJa/s7ATYHlz5iUh9D34E8da1GW3CVFw1G6tbpw5+iyxz0Y9
qSeMchQi7HI8Wo2ESSypIFh4qme7xv2dTwCvR5M/HSnwUT0CAwEAAaOBvTCBujAJ
BgNVHRMEAjAAMB0GA1UdDgQWBBQIwgxFwubft7oizwSNJcuIcyTtrzBRBgNVHSME
SjBIgBQKw9enwEOmrxED0Q7jzZGIH8ZjAKEapBgwFjEUMBIGA1UEAwwLdGVhbTMy
My1uZXSCFEX/B0ZijB3bweHPqq9TNLT1BPHcMBMGA1UdJQQMMAoGCCsGAQUFBwMB
MAsGA1UdDwQEAwIFoDAZBgNVHREEEjAQgg50ZWFtMzIzLXNlcnZlcjANBgkqhkiG
9w0BAQsFAAOCAQEAtIfGW2QlSuKgyLaOQXRVQLj/mkQEOYiQwrr6K0fgyCnpJt91
AK32F4KE6xvJBEYmLIfYPBiUSQOr6PeC8R2APSUghyo+uSAaxajeQqFW15okEx1P
aKAh272QBCEFHZUQ9Fk/mtdJXajP1wn560nYLifNIDZcESrCOtUydhy29JedjkxM
8WQsl1sWi/GH5JGP5QbnFVZQKkho5dIOYixE3aM3JrcPfEyVgm8ipOwbtuM/Sh+s
XQXzWthMvylBMjXAJUJIHQZWIMCZg7LsSzU9AN2I8CcUjhVKUo+//SpJh61UikZ6
WKkuo+DWwGmKdELoF+4tiU4a04fjBO2JlfZ+Cg==
-----END CERTIFICATE-----
