Certificate:
    Data:
        Version: 3 (0x2)
        Serial Number:
            6b:d0:a4:e1:43:0d:12:86:00:db:66:a1:7c:76:ae:38
        Signature Algorithm: sha256WithRSAEncryption
        Issuer: CN=team721-net
        Validity
            Not Before: Sep 13 04:59:01 2021 GMT
            Not After : Aug 28 04:59:01 2024 GMT
        Subject: CN=team721-client
        Subject Public Key Info:
            Public Key Algorithm: rsaEncryption
                RSA Public-Key: (2048 bit)
                Modulus:
                    00:d6:d8:eb:30:f7:7c:6b:8b:84:49:09:2b:f4:17:
                    48:87:27:5b:1c:20:ce:ad:90:98:a4:b4:79:ed:cc:
                    53:21:ed:38:d9:37:c5:24:42:86:28:dd:20:4b:58:
                    e1:cb:a5:6a:db:b9:12:b5:68:c9:1e:5e:52:30:a8:
                    af:fe:1f:1a:a6:57:54:3c:a8:58:a9:6c:c7:24:1e:
                    a0:ba:43:4f:9f:14:75:a5:5c:e8:05:d3:13:6b:b8:
                    59:f7:00:a3:3b:93:e4:e6:e4:e9:ad:28:ef:8d:0f:
                    83:b0:7b:27:e7:4f:78:99:62:04:c3:ac:35:08:b2:
                    49:dd:e8:f6:17:bb:8b:33:3a:d6:de:31:42:c4:ac:
                    84:85:c3:4b:ba:e4:25:a9:ce:cd:25:31:8e:b6:11:
                    1f:e5:a5:61:37:0f:bd:ba:99:70:1e:43:50:6c:cd:
                    1c:59:c8:f1:a4:af:f7:32:e8:9b:d9:2a:5e:7b:98:
                    13:9a:62:df:1b:fa:00:6d:74:61:4a:ee:c1:31:5f:
                    5e:17:70:1c:5a:29:96:82:de:bb:eb:04:28:ef:ed:
                    5b:49:23:9e:e6:49:55:cb:a5:bf:9f:53:d7:5a:65:
                    5b:fa:db:1f:85:7c:aa:34:4c:98:66:b7:d2:bc:cc:
                    75:19:c4:ca:7c:57:74:50:a1:86:92:4a:a5:9d:cb:
                    10:0d
                Exponent: 65537 (0x10001)
        X509v3 extensions:
            X509v3 Basic Constraints: 
                CA:FALSE
            X509v3 Subject Key Identifier: 
                C9:5C:69:9F:A8:1C:49:31:68:C8:73:9B:96:ED:D0:D2:5C:39:D2:D3
            X509v3 Authority Key Identifier: 
                keyid:6F:40:24:8D:DA:AD:6B:13:44:A1:DF:1F:74:A2:BA:95:76:4D:CE:B5
                DirName:/CN=team721-net
                serial:06:29:CD:2A:3A:1E:12:EA:98:F4:B3:8E:A8:76:1E:D5:90:17:03:00

            X509v3 Extended Key Usage: 
                TLS Web Client Authentication
            X509v3 Key Usage: 
                Digital Signature
    Signature Algorithm: sha256WithRSAEncryption
         74:20:a5:53:6c:0e:cf:38:5e:dd:e5:84:a6:ef:12:ff:eb:9e:
         ed:ae:9c:83:d8:2c:79:71:fd:f6:5b:f1:bc:15:be:18:59:0f:
         35:3f:0d:7e:0a:e5:42:fe:41:9e:95:2a:45:18:45:e3:7c:6d:
         45:f0:ed:42:15:02:40:37:78:f6:ed:4c:0f:b3:71:f1:94:2c:
         eb:77:a5:ab:90:dc:d1:77:5c:dd:5b:9f:db:cf:da:7c:5a:e1:
         ca:1b:53:33:a5:77:b1:87:9c:5e:87:28:5c:fd:2b:ef:fd:d7:
         86:48:b5:81:d9:8a:00:41:5c:05:1a:73:93:79:ba:5c:83:29:
         ed:34:7d:ee:72:c0:94:5a:15:b6:ba:8a:5a:02:e1:17:0d:42:
         22:46:b4:83:6d:50:24:77:ce:a2:f1:99:82:1f:81:60:e7:e8:
         34:1c:80:da:0b:46:ef:fd:74:b2:0a:9a:4b:6f:70:06:98:f7:
         6f:74:57:ff:91:9c:9c:31:df:ef:6c:25:1c:3f:bc:43:c6:f0:
         bd:91:f1:38:15:ae:80:f3:17:e8:1b:6f:55:44:2a:3f:5f:cb:
         a6:bb:2c:49:be:2e:78:c0:55:59:06:65:22:59:01:5d:ec:76:
         19:9b:a3:12:aa:e2:b4:85:ef:c5:cc:06:9d:2f:fd:f3:d0:91:
         51:3e:07:7b
-----BEGIN CERTIFICATE-----
MIIDXDCCAkSgAwIBAgIQa9Ck4UMNEoYA22ahfHauODANBgkqhkiG9w0BAQsFADAW
MRQwEgYDVQQDDAt0ZWFtNzIxLW5ldDAeFw0yMTA5MTMwNDU5MDFaFw0yNDA4Mjgw
NDU5MDFaMBkxFzAVBgNVBAMMDnRlYW03MjEtY2xpZW50MIIBIjANBgkqhkiG9w0B
AQEFAAOCAQ8AMIIBCgKCAQEA1tjrMPd8a4uESQkr9BdIhydbHCDOrZCYpLR57cxT
Ie042TfFJEKGKN0gS1jhy6Vq27kStWjJHl5SMKiv/h8apldUPKhYqWzHJB6gukNP
nxR1pVzoBdMTa7hZ9wCjO5Pk5uTprSjvjQ+DsHsn5094mWIEw6w1CLJJ3ej2F7uL
MzrW3jFCxKyEhcNLuuQlqc7NJTGOthEf5aVhNw+9uplwHkNQbM0cWcjxpK/3Muib
2Spee5gTmmLfG/oAbXRhSu7BMV9eF3AcWimWgt676wQo7+1bSSOe5klVy6W/n1PX
WmVb+tsfhXyqNEyYZrfSvMx1GcTKfFd0UKGGkkqlncsQDQIDAQABo4GiMIGfMAkG
A1UdEwQCMAAwHQYDVR0OBBYEFMlcaZ+oHEkxaMhzm5bt0NJcOdLTMFEGA1UdIwRK
MEiAFG9AJI3arWsTRKHfH3SiupV2Tc61oRqkGDAWMRQwEgYDVQQDDAt0ZWFtNzIx
LW5ldIIUBinNKjoeEuqY9LOOqHYe1ZAXAwAwEwYDVR0lBAwwCgYIKwYBBQUHAwIw
CwYDVR0PBAQDAgeAMA0GCSqGSIb3DQEBCwUAA4IBAQB0IKVTbA7POF7d5YSm7xL/
657trpyD2Cx5cf32W/G8Fb4YWQ81Pw1+CuVC/kGelSpFGEXjfG1F8O1CFQJAN3j2
7UwPs3HxlCzrd6WrkNzRd1zdW5/bz9p8WuHKG1MzpXexh5xehyhc/Svv/deGSLWB
2YoAQVwFGnOTebpcgyntNH3ucsCUWhW2uopaAuEXDUIiRrSDbVAkd86i8ZmCH4Fg
5+g0HIDaC0bv/XSyCppLb3AGmPdvdFf/kZycMd/vbCUcP7xDxvC9kfE4Fa6A8xfo
G29VRCo/X8umuyxJvi54wFVZBmUiWQFd7HYZm6MSquK0he/FzAadL/3z0JFRPgd7
-----END CERTIFICATE-----
