Certificate:
    Data:
        Version: 3 (0x2)
        Serial Number:
            c8:f1:17:1e:8c:86:a5:8e:c2:2d:b3:11:6b:23:43
        Signature Algorithm: sha256WithRSAEncryption
        Issuer: CN=team403-net
        Validity
            Not Before: Sep 13 02:20:04 2021 GMT
            Not After : Aug 28 02:20:04 2024 GMT
        Subject: CN=team403-client
        Subject Public Key Info:
            Public Key Algorithm: rsaEncryption
                RSA Public-Key: (2048 bit)
                Modulus:
                    00:b5:ff:95:21:e7:3b:88:44:aa:0b:4d:da:3d:48:
                    d8:0d:0b:51:da:75:76:fe:5c:07:0a:67:a7:85:96:
                    7e:61:03:e6:33:db:17:84:39:59:00:00:cb:1b:fe:
                    cd:3c:06:97:db:b5:65:98:c5:1a:7f:fc:12:e3:b8:
                    f2:ae:f6:80:90:5e:3b:49:3a:3a:33:38:fc:3e:60:
                    75:38:c9:95:ad:89:b2:71:eb:da:8d:8e:f4:22:11:
                    0f:61:6a:0e:31:e2:1d:20:4d:13:9b:17:50:68:4e:
                    07:b4:e4:b2:72:e0:7e:46:35:f8:81:79:e4:9d:e2:
                    2a:a7:77:b0:d4:02:7e:f8:8f:06:cd:8c:d4:5c:b8:
                    f4:65:c5:c9:73:a2:0a:3b:d3:20:83:c1:c8:28:8a:
                    b7:2f:4f:fd:75:46:c2:6e:71:56:5a:60:03:ad:a3:
                    ec:d2:c1:cf:a3:43:42:7c:1f:a8:ee:df:2f:41:2d:
                    4f:ff:15:32:76:36:e1:ac:19:b0:a6:ac:0a:60:ac:
                    5c:ed:46:07:22:a0:24:55:87:f0:30:96:5d:95:1d:
                    aa:5a:66:7f:4b:68:e9:c3:ed:cf:e5:62:d9:ce:bf:
                    b6:fc:91:f7:f9:69:7b:cc:f7:3d:fe:f5:e3:c7:0c:
                    62:55:fc:10:28:c4:41:68:d2:9a:6a:c3:fb:8f:69:
                    4e:e3
                Exponent: 65537 (0x10001)
        X509v3 extensions:
            X509v3 Basic Constraints: 
                CA:FALSE
            X509v3 Subject Key Identifier: 
                E8:CA:9E:59:6C:9E:56:5F:F4:48:BF:FD:AC:BC:72:90:9D:81:5D:F6
            X509v3 Authority Key Identifier: 
                keyid:0A:51:85:3B:57:66:86:FE:34:E4:5D:16:9D:F4:6A:46:30:13:D2:03
                DirName:/CN=team403-net
                serial:4D:3C:7F:83:F9:B5:E9:AC:A1:EA:EB:C6:AD:91:38:2A:09:30:A3:A2

            X509v3 Extended Key Usage: 
                TLS Web Client Authentication
            X509v3 Key Usage: 
                Digital Signature
    Signature Algorithm: sha256WithRSAEncryption
         46:3a:e7:a8:c5:2b:e9:09:20:17:ef:b9:6f:07:a5:a8:59:ba:
         69:0d:6d:8d:9a:ff:e9:52:c9:25:51:96:be:fc:45:71:6c:4b:
         41:b4:a3:b8:d6:a5:9c:3a:a2:5a:a0:5e:bc:a6:35:a5:8a:ad:
         33:62:89:eb:9c:56:b0:9c:6d:5b:77:41:65:58:d7:ee:5f:8d:
         00:3c:48:26:a8:8f:29:20:43:82:5b:04:08:7d:01:89:9e:98:
         ae:83:ee:8f:1b:55:5f:ba:c5:29:62:de:d5:d2:38:f4:1b:5f:
         60:08:05:b5:45:79:26:9a:36:9e:e0:70:15:50:67:ed:9a:d9:
         a7:59:c9:1f:db:2d:9b:5a:18:fa:c7:f3:d3:03:d1:8a:f9:f0:
         32:ff:73:f4:82:b5:03:77:c3:62:51:70:4b:11:40:9a:94:fe:
         9c:e2:ea:cc:b1:b0:62:0a:0c:ee:c1:3b:3d:2e:62:32:84:f5:
         3e:01:c4:67:e9:17:81:3d:bb:cc:71:58:ed:e3:85:d7:c3:e7:
         b4:5d:08:f6:c5:7a:31:f8:0c:ec:d6:28:ab:4b:9a:e1:4c:33:
         39:35:48:5b:3f:e0:a1:d9:87:24:26:84:fb:3d:4b:a2:81:eb:
         ad:cb:2a:8b:ca:f6:21:a6:62:55:1b:2f:7f:7f:2a:ba:b5:db:
         23:49:79:dd
-----BEGIN CERTIFICATE-----
MIIDXDCCAkSgAwIBAgIQAMjxFx6MhqWOwi2zEWsjQzANBgkqhkiG9w0BAQsFADAW
MRQwEgYDVQQDDAt0ZWFtNDAzLW5ldDAeFw0yMTA5MTMwMjIwMDRaFw0yNDA4Mjgw
MjIwMDRaMBkxFzAVBgNVBAMMDnRlYW00MDMtY2xpZW50MIIBIjANBgkqhkiG9w0B
AQEFAAOCAQ8AMIIBCgKCAQEAtf+VIec7iESqC03aPUjYDQtR2nV2/lwHCmenhZZ+
YQPmM9sXhDlZAADLG/7NPAaX27VlmMUaf/wS47jyrvaAkF47STo6Mzj8PmB1OMmV
rYmycevajY70IhEPYWoOMeIdIE0TmxdQaE4HtOSycuB+RjX4gXnkneIqp3ew1AJ+
+I8GzYzUXLj0ZcXJc6IKO9Mgg8HIKIq3L0/9dUbCbnFWWmADraPs0sHPo0NCfB+o
7t8vQS1P/xUydjbhrBmwpqwKYKxc7UYHIqAkVYfwMJZdlR2qWmZ/S2jpw+3P5WLZ
zr+2/JH3+Wl7zPc9/vXjxwxiVfwQKMRBaNKaasP7j2lO4wIDAQABo4GiMIGfMAkG
A1UdEwQCMAAwHQYDVR0OBBYEFOjKnllsnlZf9Ei//ay8cpCdgV32MFEGA1UdIwRK
MEiAFApRhTtXZob+NORdFp30akYwE9IDoRqkGDAWMRQwEgYDVQQDDAt0ZWFtNDAz
LW5ldIIUTTx/g/m16ayh6uvGrZE4Kgkwo6IwEwYDVR0lBAwwCgYIKwYBBQUHAwIw
CwYDVR0PBAQDAgeAMA0GCSqGSIb3DQEBCwUAA4IBAQBGOueoxSvpCSAX77lvB6Wo
WbppDW2Nmv/pUsklUZa+/EVxbEtBtKO41qWcOqJaoF68pjWliq0zYonrnFawnG1b
d0FlWNfuX40APEgmqI8pIEOCWwQIfQGJnpiug+6PG1VfusUpYt7V0jj0G19gCAW1
RXkmmjae4HAVUGftmtmnWckf2y2bWhj6x/PTA9GK+fAy/3P0grUDd8NiUXBLEUCa
lP6c4urMsbBiCgzuwTs9LmIyhPU+AcRn6ReBPbvMcVjt44XXw+e0XQj2xXox+Azs
1iirS5rhTDM5NUhbP+Ch2YckJoT7PUuigeutyyqLyvYhpmJVGy9/fyq6tdsjSXnd
-----END CERTIFICATE-----
