Certificate:
    Data:
        Version: 3 (0x2)
        Serial Number:
            ef:36:03:c6:4e:f6:19:a7:b2:3c:ef:de:48:d2:ad:59
        Signature Algorithm: sha256WithRSAEncryption
        Issuer: CN=team529-net
        Validity
            Not Before: Sep 13 03:35:13 2021 GMT
            Not After : Aug 28 03:35:13 2024 GMT
        Subject: CN=team529-server
        Subject Public Key Info:
            Public Key Algorithm: rsaEncryption
                RSA Public-Key: (2048 bit)
                Modulus:
                    00:ae:17:90:78:f1:a6:d0:6e:fc:99:40:fe:36:7e:
                    a8:ee:af:6a:24:36:2a:06:34:5a:bb:d8:13:e8:f7:
                    40:8b:a5:f9:81:1f:1d:43:f9:85:c9:b1:71:59:8e:
                    4f:d2:8f:b7:76:e8:69:af:5b:04:f3:06:f1:da:5d:
                    44:1c:4a:bc:60:95:21:7b:4a:18:a0:1f:06:97:80:
                    a8:f0:a2:96:c9:ce:68:b5:7e:4c:0c:21:e7:f7:3b:
                    be:d9:e8:be:8d:a7:df:16:1b:2c:0d:c0:5a:48:48:
                    d5:f2:c7:92:64:d9:cd:34:30:84:e6:39:71:8c:5f:
                    fb:79:8c:b6:20:8b:6a:8c:04:a4:88:f4:d1:e1:01:
                    eb:fd:cf:fe:b4:bd:a8:b8:99:fc:b5:aa:67:17:81:
                    94:6a:44:ef:41:2a:99:d9:aa:b9:98:72:aa:7a:90:
                    36:9a:3a:91:a3:c6:78:38:88:81:a4:5a:fe:06:18:
                    d4:fd:e8:33:02:50:60:51:eb:03:f6:50:ec:64:3e:
                    42:c4:c8:dc:7c:5b:a8:c4:98:e0:09:31:d2:11:cd:
                    f9:21:94:88:bf:fc:9e:40:eb:8c:9b:1e:55:19:e3:
                    a5:fd:54:6f:62:98:c3:de:22:24:e3:59:00:8c:4d:
                    9c:51:d9:cb:5b:32:aa:00:df:f2:f8:dd:ad:0b:c8:
                    78:67
                Exponent: 65537 (0x10001)
        X509v3 extensions:
            X509v3 Basic Constraints: 
                CA:FALSE
            X509v3 Subject Key Identifier: 
                D6:08:83:8E:36:B2:D4:BA:8D:80:0D:E6:79:94:C8:D2:2F:53:42:1E
            X509v3 Authority Key Identifier: 
                keyid:7F:2C:E8:C2:DA:9D:F9:A3:9D:6F:BE:D3:15:1C:83:38:6B:92:B0:30
                DirName:/CN=team529-net
                serial:48:C8:DF:BC:3A:7F:F0:48:77:19:4B:9F:0F:41:33:E8:77:12:91:7A

            X509v3 Extended Key Usage: 
                TLS Web Server Authentication
            X509v3 Key Usage: 
                Digital Signature, Key Encipherment
            X509v3 Subject Alternative Name: 
                DNS:team529-server
    Signature Algorithm: sha256WithRSAEncryption
         a1:6b:ea:42:57:e8:7a:e8:6a:65:da:4a:cc:70:e7:7f:08:97:
         4d:da:7f:1a:18:36:fd:e8:5d:33:2b:ea:05:79:95:a4:b0:22:
         ee:ce:53:3b:11:71:e5:b4:4a:3d:5e:73:3b:87:c2:11:be:2e:
         fb:bb:79:a9:14:50:90:85:a4:a7:04:c2:c5:e0:dc:83:ac:c6:
         ea:bc:73:c0:ba:5f:bc:b6:6d:dc:74:46:1d:74:94:65:e1:99:
         74:df:b6:0b:9c:57:85:91:70:37:9b:bc:43:59:f7:b8:91:38:
         2d:74:96:7a:59:cf:4a:c8:43:be:12:af:2a:4a:a2:69:9b:88:
         c1:9d:be:54:cf:1e:4a:8c:54:c2:9b:da:ee:3b:c2:01:88:72:
         93:76:ee:5e:c1:7d:b9:9a:ee:74:49:ba:49:1c:ad:e8:32:32:
         f9:09:20:cc:f9:bb:de:67:43:54:de:24:44:2d:d0:99:ce:4f:
         70:a3:8c:9b:a3:09:9d:a6:83:99:8c:10:4e:56:28:d9:99:f1:
         75:9c:97:41:d3:cb:eb:2f:4c:9b:46:eb:67:33:d2:c9:56:e2:
         1b:19:f9:d3:3d:30:51:09:f5:9d:ea:c1:13:3d:5e:68:fa:07:
         21:79:5e:d8:0e:4b:5b:1c:99:1a:18:7f:99:2a:9a:fb:3b:fe:
         3c:61:6e:c1
-----BEGIN CERTIFICATE-----
MIIDeDCCAmCgAwIBAgIRAO82A8ZO9hmnsjzv3kjSrVkwDQYJKoZIhvcNAQELBQAw
FjEUMBIGA1UEAwwLdGVhbTUyOS1uZXQwHhcNMjEwOTEzMDMzNTEzWhcNMjQwODI4
MDMzNTEzWjAZMRcwFQYDVQQDDA50ZWFtNTI5LXNlcnZlcjCCASIwDQYJKoZIhvcN
AQEBBQADggEPADCCAQoCggEBAK4XkHjxptBu/JlA/jZ+qO6vaiQ2KgY0WrvYE+j3
QIul+YEfHUP5hcmxcVmOT9KPt3boaa9bBPMG8dpdRBxKvGCVIXtKGKAfBpeAqPCi
lsnOaLV+TAwh5/c7vtnovo2n3xYbLA3AWkhI1fLHkmTZzTQwhOY5cYxf+3mMtiCL
aowEpIj00eEB6/3P/rS9qLiZ/LWqZxeBlGpE70EqmdmquZhyqnqQNpo6kaPGeDiI
gaRa/gYY1P3oMwJQYFHrA/ZQ7GQ+QsTI3HxbqMSY4Akx0hHN+SGUiL/8nkDrjJse
VRnjpf1Ub2KYw94iJONZAIxNnFHZy1syqgDf8vjdrQvIeGcCAwEAAaOBvTCBujAJ
BgNVHRMEAjAAMB0GA1UdDgQWBBTWCIOONrLUuo2ADeZ5lMjSL1NCHjBRBgNVHSME
SjBIgBR/LOjC2p35o51vvtMVHIM4a5KwMKEapBgwFjEUMBIGA1UEAwwLdGVhbTUy
OS1uZXSCFEjI37w6f/BIdxlLnw9BM+h3EpF6MBMGA1UdJQQMMAoGCCsGAQUFBwMB
MAsGA1UdDwQEAwIFoDAZBgNVHREEEjAQgg50ZWFtNTI5LXNlcnZlcjANBgkqhkiG
9w0BAQsFAAOCAQEAoWvqQlfoeuhqZdpKzHDnfwiXTdp/Ghg2/ehdMyvqBXmVpLAi
7s5TOxFx5bRKPV5zO4fCEb4u+7t5qRRQkIWkpwTCxeDcg6zG6rxzwLpfvLZt3HRG
HXSUZeGZdN+2C5xXhZFwN5u8Q1n3uJE4LXSWelnPSshDvhKvKkqiaZuIwZ2+VM8e
SoxUwpva7jvCAYhyk3buXsF9uZrudEm6SRyt6DIy+QkgzPm73mdDVN4kRC3Qmc5P
cKOMm6MJnaaDmYwQTlYo2ZnxdZyXQdPL6y9Mm0brZzPSyVbiGxn50z0wUQn1nerB
Ez1eaPoHIXle2A5LWxyZGhh/mSqa+zv+PGFuwQ==
-----END CERTIFICATE-----
