Certificate:
    Data:
        Version: 3 (0x2)
        Serial Number:
            f6:38:01:0e:60:24:d2:ab:a3:42:24:e4:14:5e:6a:a7
        Signature Algorithm: sha256WithRSAEncryption
        Issuer: CN=team275-net
        Validity
            Not Before: Sep 13 01:10:04 2021 GMT
            Not After : Aug 28 01:10:04 2024 GMT
        Subject: CN=team275-server
        Subject Public Key Info:
            Public Key Algorithm: rsaEncryption
                RSA Public-Key: (2048 bit)
                Modulus:
                    00:dc:bc:69:a8:15:98:70:5d:c4:77:2a:ec:2c:64:
                    93:45:0f:55:b2:9d:4f:a1:b3:f6:7d:56:f5:29:2e:
                    a6:88:68:fb:94:bd:e2:8c:7c:b9:e8:ab:e3:3f:e0:
                    85:ce:50:b1:c7:b1:c9:fa:ee:de:80:a5:bd:61:6c:
                    e1:f5:f0:a3:67:d5:aa:a1:56:68:e0:41:99:ee:00:
                    93:e9:9b:0a:68:04:cd:86:12:80:a7:03:8d:92:11:
                    28:87:03:d8:6b:3b:13:e9:96:f8:44:73:ff:47:95:
                    a4:a7:49:87:dc:2d:d1:9d:28:7a:63:89:80:53:68:
                    5c:7a:30:96:3d:12:c9:ff:62:dc:92:22:b2:85:0d:
                    3d:3d:98:3c:cc:db:99:d8:ae:6a:28:7a:9f:97:0e:
                    22:1e:a4:73:50:f3:7a:ff:eb:cd:bd:07:f2:2d:d8:
                    3d:3f:81:bf:6f:35:a8:e7:d0:f7:e9:49:fe:7f:c9:
                    a0:cc:62:1a:81:12:f6:ba:e4:e2:2d:bb:b4:5b:ce:
                    2d:e8:92:17:18:f4:e1:14:73:bf:41:3a:75:d2:20:
                    95:63:c9:ae:97:7b:22:97:db:72:b1:db:3d:e2:49:
                    77:fd:24:a7:1c:f7:3e:17:c5:f8:56:98:a3:63:d6:
                    d1:a6:3e:8b:6a:59:a3:ae:05:a7:e6:0a:38:8d:97:
                    4a:5f
                Exponent: 65537 (0x10001)
        X509v3 extensions:
            X509v3 Basic Constraints: 
                CA:FALSE
            X509v3 Subject Key Identifier: 
                25:E5:B8:D2:28:33:87:A7:55:B9:F0:F5:7E:01:26:0B:88:D5:5B:AA
            X509v3 Authority Key Identifier: 
                keyid:2E:0D:FD:89:01:CA:2D:93:8B:9D:B4:DE:20:14:C7:81:48:CE:5E:5B
                DirName:/CN=team275-net
                serial:5A:E1:9E:AA:72:5A:86:B8:9A:53:8A:4B:C4:70:14:36:5D:08:7A:E4

            X509v3 Extended Key Usage: 
                TLS Web Server Authentication
            X509v3 Key Usage: 
                Digital Signature, Key Encipherment
            X509v3 Subject Alternative Name: 
                DNS:team275-server
    Signature Algorithm: sha256WithRSAEncryption
         6e:1e:4c:6e:c4:d6:6d:f4:77:8e:95:e6:43:96:a9:77:dd:5e:
         b2:42:99:75:01:71:0b:d7:f1:e1:02:0b:98:7f:ba:35:c1:17:
         e8:7d:c7:b3:3b:33:75:ac:9f:8c:6f:15:49:34:ad:01:4c:89:
         af:60:09:ae:f4:87:d9:60:88:1b:d8:2a:00:c5:59:78:b6:b3:
         93:70:21:d9:11:21:56:e2:d0:e2:2b:e3:a6:dd:c6:f3:a9:9a:
         1a:67:90:c5:fb:15:57:a0:98:fd:1b:12:35:97:d2:dc:fd:80:
         52:f5:e2:c1:56:85:ea:7c:72:ab:bd:45:2e:2c:60:13:fe:d5:
         83:00:32:6b:ca:90:ee:74:dd:5c:fb:f5:24:d9:22:5c:8d:51:
         0c:74:9e:d6:19:fd:42:9f:7d:93:c7:cf:b7:a0:e8:b7:b8:ac:
         bb:f1:5d:02:b9:40:37:25:0f:76:a7:39:3a:f3:4d:7c:bf:15:
         95:0c:10:9a:25:73:43:59:8a:77:b0:c5:85:fa:77:f9:63:b0:
         75:53:01:45:61:ee:81:98:fc:7c:a8:e6:fd:02:39:03:62:8d:
         b3:3d:06:b8:44:2a:de:ee:75:73:ce:8b:cd:ee:0c:6c:23:42:
         3d:d2:ee:fd:17:2e:7b:c3:a4:62:8e:5e:61:a8:27:b3:ca:ad:
         f7:cb:73:24
-----BEGIN CERTIFICATE-----
MIIDeDCCAmCgAwIBAgIRAPY4AQ5gJNKro0Ik5BReaqcwDQYJKoZIhvcNAQELBQAw
FjEUMBIGA1UEAwwLdGVhbTI3NS1uZXQwHhcNMjEwOTEzMDExMDA0WhcNMjQwODI4
MDExMDA0WjAZMRcwFQYDVQQDDA50ZWFtMjc1LXNlcnZlcjCCASIwDQYJKoZIhvcN
AQEBBQADggEPADCCAQoCggEBANy8aagVmHBdxHcq7Cxkk0UPVbKdT6Gz9n1W9Sku
poho+5S94ox8ueir4z/ghc5Qscexyfru3oClvWFs4fXwo2fVqqFWaOBBme4Ak+mb
CmgEzYYSgKcDjZIRKIcD2Gs7E+mW+ERz/0eVpKdJh9wt0Z0oemOJgFNoXHowlj0S
yf9i3JIisoUNPT2YPMzbmdiuaih6n5cOIh6kc1Dzev/rzb0H8i3YPT+Bv281qOfQ
9+lJ/n/JoMxiGoES9rrk4i27tFvOLeiSFxj04RRzv0E6ddIglWPJrpd7IpfbcrHb
PeJJd/0kpxz3PhfF+FaYo2PW0aY+i2pZo64Fp+YKOI2XSl8CAwEAAaOBvTCBujAJ
BgNVHRMEAjAAMB0GA1UdDgQWBBQl5bjSKDOHp1W58PV+ASYLiNVbqjBRBgNVHSME
SjBIgBQuDf2JAcotk4udtN4gFMeBSM5eW6EapBgwFjEUMBIGA1UEAwwLdGVhbTI3
NS1uZXSCFFrhnqpyWoa4mlOKS8RwFDZdCHrkMBMGA1UdJQQMMAoGCCsGAQUFBwMB
MAsGA1UdDwQEAwIFoDAZBgNVHREEEjAQgg50ZWFtMjc1LXNlcnZlcjANBgkqhkiG
9w0BAQsFAAOCAQEAbh5MbsTWbfR3jpXmQ5apd91eskKZdQFxC9fx4QILmH+6NcEX
6H3HszszdayfjG8VSTStAUyJr2AJrvSH2WCIG9gqAMVZeLazk3Ah2REhVuLQ4ivj
pt3G86maGmeQxfsVV6CY/RsSNZfS3P2AUvXiwVaF6nxyq71FLixgE/7VgwAya8qQ
7nTdXPv1JNkiXI1RDHSe1hn9Qp99k8fPt6Dot7isu/FdArlANyUPdqc5OvNNfL8V
lQwQmiVzQ1mKd7DFhfp3+WOwdVMBRWHugZj8fKjm/QI5A2KNsz0GuEQq3u51c86L
ze4MbCNCPdLu/Rcue8OkYo5eYagns8qt98tzJA==
-----END CERTIFICATE-----
