Certificate:
    Data:
        Version: 3 (0x2)
        Serial Number:
            22:cf:c3:5f:2d:9f:77:53:2f:14:0b:1a:f2:15:ee:40
        Signature Algorithm: sha256WithRSAEncryption
        Issuer: CN=team510-net
        Validity
            Not Before: Sep 13 03:22:52 2021 GMT
            Not After : Aug 28 03:22:52 2024 GMT
        Subject: CN=team510-server
        Subject Public Key Info:
            Public Key Algorithm: rsaEncryption
                RSA Public-Key: (2048 bit)
                Modulus:
                    00:b8:d4:9a:f5:7f:7e:c5:75:86:ef:f8:7b:be:99:
                    89:59:bf:75:e2:f9:6d:87:c6:f5:10:e0:47:18:d2:
                    c9:d5:f3:15:83:1a:ea:a7:f3:20:36:2e:e8:69:8f:
                    5b:17:4b:9f:64:ad:d2:74:5c:91:66:6d:4c:d5:ff:
                    72:2b:da:4c:c5:f2:6a:a1:19:23:b4:38:7c:82:3c:
                    4e:36:6f:c1:a5:74:84:f9:f1:f3:52:18:c9:a8:58:
                    ee:7a:27:8d:db:a1:b5:d5:7d:b0:fc:8b:00:64:79:
                    42:54:15:7b:27:d4:38:cb:1f:93:2b:8a:93:85:1c:
                    2a:1b:54:53:a1:87:5e:30:59:95:76:bd:c0:38:5e:
                    07:a9:24:27:ff:91:53:3c:ce:e0:af:a8:47:a5:b8:
                    86:64:42:9e:af:68:d6:33:e9:9d:ff:65:86:46:49:
                    6b:ca:e9:90:70:3e:2f:7f:af:3c:1d:39:d6:6a:ac:
                    9e:b9:76:d8:e6:23:2f:cf:59:2d:ec:d1:3d:63:60:
                    4f:60:50:9e:ce:9a:86:93:4f:52:74:94:ec:fe:42:
                    a5:85:c6:4e:50:13:94:4b:85:95:fe:59:d5:0a:bc:
                    4b:8d:ff:bf:29:48:ca:34:94:72:c1:24:2d:df:fa:
                    15:e1:45:0a:ee:4a:ea:39:ae:58:e5:86:35:61:19:
                    aa:af
                Exponent: 65537 (0x10001)
        X509v3 extensions:
            X509v3 Basic Constraints: 
                CA:FALSE
            X509v3 Subject Key Identifier: 
                1C:FF:DC:72:BC:32:D8:8B:A5:EC:BD:86:C9:E9:D9:03:D3:68:0E:63
            X509v3 Authority Key Identifier: 
                keyid:2E:AE:13:01:C1:D6:8C:E7:CB:21:4C:4B:57:9E:3C:00:1A:0A:CD:D3
                DirName:/CN=team510-net
                serial:5A:0C:06:34:8F:62:0D:04:EE:7A:28:71:E0:ED:31:AF:67:A7:AA:4C

            X509v3 Extended Key Usage: 
                TLS Web Server Authentication
            X509v3 Key Usage: 
                Digital Signature, Key Encipherment
            X509v3 Subject Alternative Name: 
                DNS:team510-server
    Signature Algorithm: sha256WithRSAEncryption
         63:b8:ff:a6:30:db:71:80:88:05:3f:49:e2:62:bb:83:71:08:
         07:23:cf:de:45:a4:f6:df:a2:e3:4d:81:62:67:60:ce:5a:63:
         b1:e2:32:5e:67:ba:41:ba:3e:69:00:bc:53:a9:5b:6a:91:8a:
         80:43:7d:77:aa:b2:39:79:86:5f:81:ba:0f:b4:ef:82:66:b1:
         b9:75:63:30:5a:45:14:c3:a6:84:1c:12:bd:f0:5b:84:b9:c7:
         72:e4:da:64:35:12:f9:71:62:82:e0:60:d2:d3:4a:c4:08:09:
         d6:63:4d:92:dc:a7:c3:1c:dd:25:da:0d:d0:0d:4d:8b:5c:d0:
         2f:ba:24:b9:0e:ff:20:83:cd:cc:c8:54:cb:cc:6d:cb:ab:7d:
         20:dd:f9:9d:74:c0:96:2c:a0:ca:2e:ad:9b:f1:9d:84:22:bf:
         58:06:83:ff:7a:ab:c2:52:97:e4:d2:86:c4:b1:df:c7:ac:75:
         53:23:7e:58:46:46:64:fa:23:4c:0f:53:7c:54:24:0e:1c:bb:
         77:81:f0:1b:f1:ff:a7:bb:df:af:42:ff:4d:43:08:73:96:cb:
         de:cb:c2:45:d5:83:95:db:11:93:99:51:f0:bc:92:e0:97:ea:
         c6:89:a2:b4:2a:78:b7:1b:7d:ac:a9:2d:8d:f9:77:e5:9a:65:
         76:4c:65:01
-----BEGIN CERTIFICATE-----
MIIDdzCCAl+gAwIBAgIQIs/DXy2fd1MvFAsa8hXuQDANBgkqhkiG9w0BAQsFADAW
MRQwEgYDVQQDDAt0ZWFtNTEwLW5ldDAeFw0yMTA5MTMwMzIyNTJaFw0yNDA4Mjgw
MzIyNTJaMBkxFzAVBgNVBAMMDnRlYW01MTAtc2VydmVyMIIBIjANBgkqhkiG9w0B
AQEFAAOCAQ8AMIIBCgKCAQEAuNSa9X9+xXWG7/h7vpmJWb914vlth8b1EOBHGNLJ
1fMVgxrqp/MgNi7oaY9bF0ufZK3SdFyRZm1M1f9yK9pMxfJqoRkjtDh8gjxONm/B
pXSE+fHzUhjJqFjueieN26G11X2w/IsAZHlCVBV7J9Q4yx+TK4qThRwqG1RToYde
MFmVdr3AOF4HqSQn/5FTPM7gr6hHpbiGZEKer2jWM+md/2WGRklryumQcD4vf688
HTnWaqyeuXbY5iMvz1kt7NE9Y2BPYFCezpqGk09SdJTs/kKlhcZOUBOUS4WV/lnV
CrxLjf+/KUjKNJRywSQt3/oV4UUK7krqOa5Y5YY1YRmqrwIDAQABo4G9MIG6MAkG
A1UdEwQCMAAwHQYDVR0OBBYEFBz/3HK8MtiLpey9hsnp2QPTaA5jMFEGA1UdIwRK
MEiAFC6uEwHB1oznyyFMS1eePAAaCs3ToRqkGDAWMRQwEgYDVQQDDAt0ZWFtNTEw
LW5ldIIUWgwGNI9iDQTueihx4O0xr2enqkwwEwYDVR0lBAwwCgYIKwYBBQUHAwEw
CwYDVR0PBAQDAgWgMBkGA1UdEQQSMBCCDnRlYW01MTAtc2VydmVyMA0GCSqGSIb3
DQEBCwUAA4IBAQBjuP+mMNtxgIgFP0niYruDcQgHI8/eRaT236LjTYFiZ2DOWmOx
4jJeZ7pBuj5pALxTqVtqkYqAQ313qrI5eYZfgboPtO+CZrG5dWMwWkUUw6aEHBK9
8FuEucdy5NpkNRL5cWKC4GDS00rECAnWY02S3KfDHN0l2g3QDU2LXNAvuiS5Dv8g
g83MyFTLzG3Lq30g3fmddMCWLKDKLq2b8Z2EIr9YBoP/eqvCUpfk0obEsd/HrHVT
I35YRkZk+iNMD1N8VCQOHLt3gfAb8f+nu9+vQv9NQwhzlsvey8JF1YOV2xGTmVHw
vJLgl+rGiaK0Kni3G32sqS2N+XflmmV2TGUB
-----END CERTIFICATE-----
