Certificate:
    Data:
        Version: 3 (0x2)
        Serial Number:
            e3:35:61:3e:b6:15:6b:3b:70:4a:01:33:83:e1:f2:0a
        Signature Algorithm: sha256WithRSAEncryption
        Issuer: CN=team402-net
        Validity
            Not Before: Sep 13 02:24:59 2021 GMT
            Not After : Aug 28 02:24:59 2024 GMT
        Subject: CN=team402-server
        Subject Public Key Info:
            Public Key Algorithm: rsaEncryption
                RSA Public-Key: (2048 bit)
                Modulus:
                    00:ac:75:3e:77:f0:5f:a9:8c:5d:df:67:ee:a8:e3:
                    ab:d0:fe:0b:7b:e1:46:b9:75:ec:d4:5a:9b:4b:d1:
                    9b:bf:3d:2d:22:58:fb:7d:f0:ba:c5:fa:17:59:b8:
                    cd:f4:ac:c8:3d:00:97:dd:82:d8:60:d4:47:a7:d1:
                    6d:db:f1:82:ea:01:92:da:73:f5:21:57:dd:c1:2e:
                    2c:b1:3e:7c:c9:24:f8:cf:4e:b4:25:b6:e5:1c:47:
                    4d:d2:b0:21:65:c3:c7:cc:98:f8:ec:fc:de:13:9e:
                    6e:92:38:b2:79:56:7c:74:be:76:9c:10:a9:a3:77:
                    20:8a:59:83:94:b3:2f:53:01:9d:21:25:a3:26:21:
                    5f:96:b8:91:61:4e:ce:74:b7:d9:4b:be:66:3e:bd:
                    58:6e:44:1d:8d:0c:31:0c:ad:e1:dd:08:c6:69:f7:
                    83:cd:82:ca:71:18:7d:6f:57:be:99:d6:b8:d2:10:
                    15:f4:2f:df:79:dc:75:c2:50:5b:9c:09:2c:97:b4:
                    e8:e9:22:27:b8:de:8e:ab:5d:1b:89:7b:2f:74:dd:
                    27:3f:99:eb:12:95:ca:d5:2b:eb:cd:17:5a:df:5d:
                    d1:72:6b:5f:b4:cd:95:2b:89:bd:99:cf:ad:75:89:
                    3b:64:10:9e:6d:22:6e:09:cb:15:42:4c:b5:37:ce:
                    ea:dd
                Exponent: 65537 (0x10001)
        X509v3 extensions:
            X509v3 Basic Constraints: 
                CA:FALSE
            X509v3 Subject Key Identifier: 
                BC:DC:F5:D0:57:33:C0:25:70:53:B1:33:EE:03:6A:EF:70:71:FA:A2
            X509v3 Authority Key Identifier: 
                keyid:A0:F1:E7:78:2E:72:EC:43:69:8B:AB:35:63:AF:B6:FF:49:15:B2:7D
                DirName:/CN=team402-net
                serial:48:D8:E3:D6:30:83:40:8A:D9:4F:B0:58:9C:CA:75:E6:2D:16:90:D7

            X509v3 Extended Key Usage: 
                TLS Web Server Authentication
            X509v3 Key Usage: 
                Digital Signature, Key Encipherment
            X509v3 Subject Alternative Name: 
                DNS:team402-server
    Signature Algorithm: sha256WithRSAEncryption
         17:ca:45:59:33:b1:88:77:b3:c8:dc:19:d5:51:30:8c:73:b5:
         e9:4a:c8:dd:0b:ae:ac:29:98:4f:ad:87:c2:f2:7b:6d:68:21:
         ab:c1:1d:94:33:53:0e:c8:b0:25:2d:4c:77:07:32:41:70:d7:
         0c:55:76:a5:76:f1:80:bd:45:b8:6a:cb:4e:2d:fb:c9:5b:31:
         1b:67:d4:4c:5b:48:c0:e4:6f:1e:48:d9:0b:95:fd:09:c6:14:
         41:ba:8e:d1:3c:e4:32:a6:e4:ec:60:c9:d7:49:54:8c:62:82:
         14:6a:50:75:8f:09:b4:1a:40:53:a7:dd:25:fa:ea:58:e4:b6:
         a0:11:3e:d2:85:67:36:7f:01:2f:73:53:1c:4a:3c:ed:21:e3:
         95:a8:33:81:4d:b9:34:39:2f:26:c3:a2:10:8e:5c:52:12:1c:
         92:6c:0d:49:93:b2:4a:0e:5f:29:e5:c1:2d:56:3f:54:87:3e:
         1e:5d:7c:ff:66:cf:77:0c:36:fd:ed:db:04:db:65:55:6f:77:
         69:58:24:00:63:c6:df:c4:12:18:8c:70:e5:38:83:a2:0d:d0:
         cb:04:19:e4:9f:e8:46:45:ff:32:65:e1:d0:b6:c7:94:a6:73:
         d9:c9:7e:60:3c:ff:80:fb:0d:6a:43:e1:64:c3:57:22:a6:5d:
         d2:8b:5c:f0
-----BEGIN CERTIFICATE-----
MIIDeDCCAmCgAwIBAgIRAOM1YT62FWs7cEoBM4Ph8gowDQYJKoZIhvcNAQELBQAw
FjEUMBIGA1UEAwwLdGVhbTQwMi1uZXQwHhcNMjEwOTEzMDIyNDU5WhcNMjQwODI4
MDIyNDU5WjAZMRcwFQYDVQQDDA50ZWFtNDAyLXNlcnZlcjCCASIwDQYJKoZIhvcN
AQEBBQADggEPADCCAQoCggEBAKx1PnfwX6mMXd9n7qjjq9D+C3vhRrl17NRam0vR
m789LSJY+33wusX6F1m4zfSsyD0Al92C2GDUR6fRbdvxguoBktpz9SFX3cEuLLE+
fMkk+M9OtCW25RxHTdKwIWXDx8yY+Oz83hOebpI4snlWfHS+dpwQqaN3IIpZg5Sz
L1MBnSEloyYhX5a4kWFOznS32Uu+Zj69WG5EHY0MMQyt4d0Ixmn3g82CynEYfW9X
vpnWuNIQFfQv33ncdcJQW5wJLJe06OkiJ7jejqtdG4l7L3TdJz+Z6xKVytUr680X
Wt9d0XJrX7TNlSuJvZnPrXWJO2QQnm0ibgnLFUJMtTfO6t0CAwEAAaOBvTCBujAJ
BgNVHRMEAjAAMB0GA1UdDgQWBBS83PXQVzPAJXBTsTPuA2rvcHH6ojBRBgNVHSME
SjBIgBSg8ed4LnLsQ2mLqzVjr7b/SRWyfaEapBgwFjEUMBIGA1UEAwwLdGVhbTQw
Mi1uZXSCFEjY49Ywg0CK2U+wWJzKdeYtFpDXMBMGA1UdJQQMMAoGCCsGAQUFBwMB
MAsGA1UdDwQEAwIFoDAZBgNVHREEEjAQgg50ZWFtNDAyLXNlcnZlcjANBgkqhkiG
9w0BAQsFAAOCAQEAF8pFWTOxiHezyNwZ1VEwjHO16UrI3QuurCmYT62HwvJ7bWgh
q8EdlDNTDsiwJS1MdwcyQXDXDFV2pXbxgL1FuGrLTi37yVsxG2fUTFtIwORvHkjZ
C5X9CcYUQbqO0TzkMqbk7GDJ10lUjGKCFGpQdY8JtBpAU6fdJfrqWOS2oBE+0oVn
Nn8BL3NTHEo87SHjlagzgU25NDkvJsOiEI5cUhIckmwNSZOySg5fKeXBLVY/VIc+
Hl18/2bPdww2/e3bBNtlVW93aVgkAGPG38QSGIxw5TiDog3QywQZ5J/oRkX/MmXh
0LbHlKZz2cl+YDz/gPsNakPhZMNXIqZd0otc8A==
-----END CERTIFICATE-----
