Certificate:
    Data:
        Version: 3 (0x2)
        Serial Number:
            1f:e5:1c:5a:95:41:52:96:3a:77:6d:b2:84:74:50:6c
        Signature Algorithm: sha256WithRSAEncryption
        Issuer: CN=team696-net
        Validity
            Not Before: Sep 13 04:45:49 2021 GMT
            Not After : Aug 28 04:45:49 2024 GMT
        Subject: CN=team696-client
        Subject Public Key Info:
            Public Key Algorithm: rsaEncryption
                RSA Public-Key: (2048 bit)
                Modulus:
                    00:a9:37:a8:1b:32:c4:ce:a9:60:ed:70:88:c6:d2:
                    f1:24:f5:17:14:c9:cd:3a:31:01:89:4f:e8:77:32:
                    b6:e3:4d:15:74:fd:4a:31:c6:51:73:e5:18:37:ff:
                    24:d8:72:b6:34:fc:bb:64:58:34:ee:28:e9:81:a1:
                    b8:bb:89:14:0d:be:92:f7:50:f2:2c:74:de:b8:55:
                    df:c3:03:a7:5d:24:6c:c9:75:e6:a8:91:b0:6a:38:
                    8f:7e:d6:ea:9c:69:55:04:87:eb:c8:c8:9b:1e:a1:
                    bd:d4:f4:81:65:c6:0f:c2:6f:59:47:52:a1:ff:9f:
                    b5:72:cf:56:e3:e5:61:63:f3:1f:a5:46:0f:ed:4e:
                    e2:b2:e1:50:fa:b8:6a:ea:dd:15:a3:dc:c8:cf:9a:
                    00:37:a5:68:e9:3d:17:4f:9d:6b:d4:27:7e:ec:8a:
                    ce:3e:a7:03:c0:f8:89:9b:aa:5c:8c:76:08:11:d5:
                    c2:0a:3e:d3:3f:fa:70:f8:c7:49:96:31:88:0c:90:
                    14:19:c1:97:5c:10:53:72:98:03:df:92:82:92:7b:
                    8e:62:05:2a:85:3d:6e:2b:e9:4d:b7:a2:94:42:53:
                    26:78:c0:5a:91:5b:ba:f5:e2:59:16:b8:6a:03:91:
                    0e:45:c2:32:ba:52:ee:81:c1:3c:32:7a:0d:38:81:
                    34:35
                Exponent: 65537 (0x10001)
        X509v3 extensions:
            X509v3 Basic Constraints: 
                CA:FALSE
            X509v3 Subject Key Identifier: 
                C3:25:44:85:D1:41:A9:EA:C0:B9:60:86:31:D9:58:49:57:A7:C8:D7
            X509v3 Authority Key Identifier: 
                keyid:0E:BB:61:EA:7D:77:A2:05:43:32:1D:ED:11:39:82:11:D7:67:32:45
                DirName:/CN=team696-net
                serial:0E:F1:9C:37:BD:8B:92:10:87:E8:6A:F9:74:E0:45:99:00:FA:33:EB

            X509v3 Extended Key Usage: 
                TLS Web Client Authentication
            X509v3 Key Usage: 
                Digital Signature
    Signature Algorithm: sha256WithRSAEncryption
         39:3b:11:fd:c0:5b:fc:a9:98:cc:11:ad:a3:a5:5b:51:98:3e:
         6a:ec:78:6d:57:e1:75:82:a8:05:e1:fd:06:19:1b:93:52:8a:
         a3:17:8b:1c:c6:b0:59:40:65:16:c2:27:25:4d:75:32:6c:1f:
         f8:cc:45:9c:7a:40:1c:aa:d4:9a:e4:eb:55:f9:f6:93:25:d4:
         fd:f5:ad:20:60:9e:0e:7f:fc:42:fa:94:a8:b9:76:11:66:66:
         fe:c2:ed:d0:72:ed:65:da:97:03:ed:5a:05:5e:65:06:ef:fe:
         b4:fd:10:c0:1e:93:9c:e5:0a:9a:7c:79:5d:ef:c2:11:03:97:
         7a:23:d7:69:5a:e4:18:fa:b4:b8:e8:10:63:3f:f3:da:e6:53:
         e5:c3:53:e3:9b:80:1e:52:2c:eb:0d:74:0f:04:f4:04:d8:8c:
         a4:bb:62:11:5c:af:ab:fe:d4:95:8f:5e:08:fb:bc:55:fb:63:
         77:c3:fe:58:b3:e1:a1:78:51:dd:80:33:f6:1a:e5:eb:50:89:
         f2:d2:4b:eb:a6:07:c5:47:67:ba:f8:5c:c8:39:a8:30:51:4f:
         7c:8d:dc:63:fa:8c:52:32:ae:c5:25:35:43:9f:0d:75:70:34:
         fc:e5:5c:b4:0f:7b:91:37:f3:53:5e:3f:50:d2:ed:32:4f:47:
         40:bf:9e:1b
-----BEGIN CERTIFICATE-----
MIIDXDCCAkSgAwIBAgIQH+UcWpVBUpY6d22yhHRQbDANBgkqhkiG9w0BAQsFADAW
MRQwEgYDVQQDDAt0ZWFtNjk2LW5ldDAeFw0yMTA5MTMwNDQ1NDlaFw0yNDA4Mjgw
NDQ1NDlaMBkxFzAVBgNVBAMMDnRlYW02OTYtY2xpZW50MIIBIjANBgkqhkiG9w0B
AQEFAAOCAQ8AMIIBCgKCAQEAqTeoGzLEzqlg7XCIxtLxJPUXFMnNOjEBiU/odzK2
400VdP1KMcZRc+UYN/8k2HK2NPy7ZFg07ijpgaG4u4kUDb6S91DyLHTeuFXfwwOn
XSRsyXXmqJGwajiPftbqnGlVBIfryMibHqG91PSBZcYPwm9ZR1Kh/5+1cs9W4+Vh
Y/MfpUYP7U7isuFQ+rhq6t0Vo9zIz5oAN6Vo6T0XT51r1Cd+7IrOPqcDwPiJm6pc
jHYIEdXCCj7TP/pw+MdJljGIDJAUGcGXXBBTcpgD35KCknuOYgUqhT1uK+lNt6KU
QlMmeMBakVu69eJZFrhqA5EORcIyulLugcE8MnoNOIE0NQIDAQABo4GiMIGfMAkG
A1UdEwQCMAAwHQYDVR0OBBYEFMMlRIXRQanqwLlghjHZWElXp8jXMFEGA1UdIwRK
MEiAFA67Yep9d6IFQzId7RE5ghHXZzJFoRqkGDAWMRQwEgYDVQQDDAt0ZWFtNjk2
LW5ldIIUDvGcN72LkhCH6Gr5dOBFmQD6M+swEwYDVR0lBAwwCgYIKwYBBQUHAwIw
CwYDVR0PBAQDAgeAMA0GCSqGSIb3DQEBCwUAA4IBAQA5OxH9wFv8qZjMEa2jpVtR
mD5q7HhtV+F1gqgF4f0GGRuTUoqjF4scxrBZQGUWwiclTXUybB/4zEWcekAcqtSa
5OtV+faTJdT99a0gYJ4Of/xC+pSouXYRZmb+wu3Qcu1l2pcD7VoFXmUG7/60/RDA
HpOc5QqafHld78IRA5d6I9dpWuQY+rS46BBjP/Pa5lPlw1Pjm4AeUizrDXQPBPQE
2Iyku2IRXK+r/tSVj14I+7xV+2N3w/5Ys+GheFHdgDP2GuXrUIny0kvrpgfFR2e6
+FzIOagwUU98jdxj+oxSMq7FJTVDnw11cDT85Vy0D3uRN/NTXj9Q0u0yT0dAv54b
-----END CERTIFICATE-----
