Certificate:
    Data:
        Version: 3 (0x2)
        Serial Number:
            db:e1:63:19:f3:3a:d7:74:d9:3a:f5:fb:ba:c0:31:20
        Signature Algorithm: sha256WithRSAEncryption
        Issuer: CN=team696-net
        Validity
            Not Before: Sep 13 04:45:50 2021 GMT
            Not After : Aug 28 04:45:50 2024 GMT
        Subject: CN=team696-server
        Subject Public Key Info:
            Public Key Algorithm: rsaEncryption
                RSA Public-Key: (2048 bit)
                Modulus:
                    00:ed:12:d2:a8:6c:95:7e:96:26:2f:60:be:89:b1:
                    1f:73:4d:fd:1a:f0:19:f3:c6:14:b6:7e:8f:da:6f:
                    f9:b6:78:ac:76:94:39:6c:97:65:36:da:82:ed:8d:
                    14:ab:66:56:1d:5e:e6:f1:e3:40:b8:ad:69:d8:12:
                    10:e1:8a:bf:d3:59:ad:b9:41:96:07:81:18:1c:04:
                    f7:12:5d:a8:c3:55:5b:5e:47:89:9a:fb:29:6e:79:
                    99:cc:88:07:4f:bb:45:fe:ea:cb:cc:ee:99:8f:ee:
                    c4:f1:7f:11:19:03:cf:d8:00:96:fe:a0:bf:b2:57:
                    a0:95:ba:15:f8:0e:57:9f:04:fe:84:28:16:c7:bb:
                    e7:25:d8:92:25:b4:42:f4:5f:20:dd:56:d1:3b:31:
                    15:15:24:f7:33:41:53:1a:e0:75:d4:30:e9:b9:d6:
                    16:47:40:1d:2d:27:76:8a:ed:0f:f7:34:97:a0:15:
                    55:ac:a3:6f:23:5d:3c:f4:85:8d:22:fd:4c:18:00:
                    44:0b:93:05:c3:b0:e8:4e:a4:11:65:21:7c:66:3e:
                    36:bf:eb:aa:51:ea:7c:58:bd:e1:83:64:10:8b:43:
                    9e:4c:2e:a2:2f:63:5b:8c:8d:ba:14:50:16:40:79:
                    1a:91:3e:0f:66:09:fe:6a:1e:2b:ba:fd:04:ca:75:
                    95:f7
                Exponent: 65537 (0x10001)
        X509v3 extensions:
            X509v3 Basic Constraints: 
                CA:FALSE
            X509v3 Subject Key Identifier: 
                0E:0E:FD:3F:92:95:3F:12:C3:4F:B9:C6:A7:16:19:16:CA:34:CF:D8
            X509v3 Authority Key Identifier: 
                keyid:0E:BB:61:EA:7D:77:A2:05:43:32:1D:ED:11:39:82:11:D7:67:32:45
                DirName:/CN=team696-net
                serial:0E:F1:9C:37:BD:8B:92:10:87:E8:6A:F9:74:E0:45:99:00:FA:33:EB

            X509v3 Extended Key Usage: 
                TLS Web Server Authentication
            X509v3 Key Usage: 
                Digital Signature, Key Encipherment
            X509v3 Subject Alternative Name: 
                DNS:team696-server
    Signature Algorithm: sha256WithRSAEncryption
         42:f3:b8:3c:e8:58:a7:1b:fe:b2:23:71:15:20:c6:d1:41:47:
         5c:9e:19:5b:ca:bb:ec:e8:8e:93:e6:46:3c:bf:48:a1:c6:94:
         34:51:f1:c0:de:11:2f:07:ff:56:6b:8d:bd:ad:9f:c2:b8:3f:
         be:97:bc:83:d9:ec:24:a2:f4:62:bc:03:3d:18:74:15:37:9d:
         62:8f:a5:b9:05:ea:86:c4:08:71:94:6b:5b:5d:c8:67:81:62:
         ef:a2:24:81:ed:ec:6b:8f:a2:be:78:a7:f4:8f:8c:06:89:f8:
         fb:3e:bc:09:b7:70:28:5a:4f:6f:35:a4:99:0e:2e:dc:19:ab:
         b5:08:78:bd:09:bd:f5:6a:76:01:79:d1:17:0d:c5:46:d1:f7:
         a3:ae:1f:34:b4:cd:e6:75:61:3f:62:d7:89:ca:70:8c:00:02:
         85:a4:14:f0:86:cc:59:9a:c7:93:ae:f9:c6:ef:42:0c:0e:3e:
         bc:35:b6:3f:ae:4e:d3:51:6f:e8:78:1e:3f:2b:ba:5c:a4:0b:
         bf:2b:cb:dd:26:fb:1a:3f:1f:a9:c2:44:1d:e6:a0:51:1e:03:
         ff:1f:3c:ec:97:7c:88:4e:20:cb:4a:42:2a:33:d0:5f:b0:fe:
         ed:41:bf:82:c4:bf:24:34:38:f5:46:8f:55:e5:2a:41:25:66:
         da:18:77:6a
-----BEGIN CERTIFICATE-----
MIIDeDCCAmCgAwIBAgIRANvhYxnzOtd02Tr1+7rAMSAwDQYJKoZIhvcNAQELBQAw
FjEUMBIGA1UEAwwLdGVhbTY5Ni1uZXQwHhcNMjEwOTEzMDQ0NTUwWhcNMjQwODI4
MDQ0NTUwWjAZMRcwFQYDVQQDDA50ZWFtNjk2LXNlcnZlcjCCASIwDQYJKoZIhvcN
AQEBBQADggEPADCCAQoCggEBAO0S0qhslX6WJi9gvomxH3NN/RrwGfPGFLZ+j9pv
+bZ4rHaUOWyXZTbagu2NFKtmVh1e5vHjQLitadgSEOGKv9NZrblBlgeBGBwE9xJd
qMNVW15HiZr7KW55mcyIB0+7Rf7qy8zumY/uxPF/ERkDz9gAlv6gv7JXoJW6FfgO
V58E/oQoFse75yXYkiW0QvRfIN1W0TsxFRUk9zNBUxrgddQw6bnWFkdAHS0ndort
D/c0l6AVVayjbyNdPPSFjSL9TBgARAuTBcOw6E6kEWUhfGY+Nr/rqlHqfFi94YNk
EItDnkwuoi9jW4yNuhRQFkB5GpE+D2YJ/moeK7r9BMp1lfcCAwEAAaOBvTCBujAJ
BgNVHRMEAjAAMB0GA1UdDgQWBBQODv0/kpU/EsNPucanFhkWyjTP2DBRBgNVHSME
SjBIgBQOu2HqfXeiBUMyHe0ROYIR12cyRaEapBgwFjEUMBIGA1UEAwwLdGVhbTY5
Ni1uZXSCFA7xnDe9i5IQh+hq+XTgRZkA+jPrMBMGA1UdJQQMMAoGCCsGAQUFBwMB
MAsGA1UdDwQEAwIFoDAZBgNVHREEEjAQgg50ZWFtNjk2LXNlcnZlcjANBgkqhkiG
9w0BAQsFAAOCAQEAQvO4POhYpxv+siNxFSDG0UFHXJ4ZW8q77OiOk+ZGPL9IocaU
NFHxwN4RLwf/VmuNva2fwrg/vpe8g9nsJKL0YrwDPRh0FTedYo+luQXqhsQIcZRr
W13IZ4Fi76Ikge3sa4+ivnin9I+MBon4+z68CbdwKFpPbzWkmQ4u3BmrtQh4vQm9
9Wp2AXnRFw3FRtH3o64fNLTN5nVhP2LXicpwjAAChaQU8IbMWZrHk675xu9CDA4+
vDW2P65O01Fv6HgePyu6XKQLvyvL3Sb7Gj8fqcJEHeagUR4D/x887Jd8iE4gy0pC
KjPQX7D+7UG/gsS/JDQ49UaPVeUqQSVm2hh3ag==
-----END CERTIFICATE-----
