Certificate:
    Data:
        Version: 3 (0x2)
        Serial Number:
            af:2e:1f:86:8d:9c:59:27:c4:0d:2b:3a:28:26:98:df
        Signature Algorithm: sha256WithRSAEncryption
        Issuer: CN=team708-net
        Validity
            Not Before: Sep 13 04:53:45 2021 GMT
            Not After : Aug 28 04:53:45 2024 GMT
        Subject: CN=team708-server
        Subject Public Key Info:
            Public Key Algorithm: rsaEncryption
                RSA Public-Key: (2048 bit)
                Modulus:
                    00:b2:e8:3b:c5:ad:2f:e6:41:4c:ab:4d:4f:5f:73:
                    3a:7e:e1:89:48:d7:22:e1:2f:ea:83:12:8b:98:e0:
                    e4:8b:b1:f9:d7:2b:c8:3f:9c:90:e0:6f:cd:f6:c5:
                    3a:2d:12:94:c7:86:8c:67:a1:bc:af:f2:05:ff:95:
                    56:eb:01:03:36:1e:9f:ba:f2:0d:fb:47:4e:b3:19:
                    1d:8a:2f:f3:e8:1d:47:df:3a:c2:58:84:54:47:76:
                    02:2f:aa:8d:c8:3e:d7:c0:c6:53:e7:b5:8c:02:f6:
                    d7:a3:87:f2:f4:b2:1a:40:1e:91:b0:d9:5c:22:ff:
                    51:5c:80:f5:66:4f:26:31:27:ad:5c:97:c5:65:82:
                    b8:58:06:3b:44:e8:4e:09:53:6c:44:66:1f:a2:2c:
                    76:9d:80:ed:fe:ee:4e:a6:67:7f:33:0c:c8:5b:d5:
                    76:45:99:d4:5f:e8:e8:64:69:cd:b7:75:18:77:82:
                    9b:0e:a1:1a:0d:81:af:13:3a:41:a8:20:c7:07:16:
                    17:b9:84:43:8e:c9:81:46:68:d0:49:e8:cd:51:0f:
                    7d:a4:0d:93:06:70:a5:32:f4:b3:a8:ff:57:f1:19:
                    2d:82:37:60:27:4f:30:af:bc:3d:a9:27:ac:5f:c9:
                    a2:d9:09:2d:d0:77:b9:f1:62:96:49:38:48:3b:74:
                    7d:bd
                Exponent: 65537 (0x10001)
        X509v3 extensions:
            X509v3 Basic Constraints: 
                CA:FALSE
            X509v3 Subject Key Identifier: 
                4F:09:9C:76:9B:C9:2A:4C:5B:AF:C8:0B:EC:E7:C9:A8:5C:FB:6E:34
            X509v3 Authority Key Identifier: 
                keyid:E0:F6:78:00:51:B8:F4:55:38:65:05:DF:A7:87:69:A3:EC:75:42:2F
                DirName:/CN=team708-net
                serial:2D:90:09:28:70:93:83:DC:5B:F0:75:65:79:FC:24:66:6C:95:90:93

            X509v3 Extended Key Usage: 
                TLS Web Server Authentication
            X509v3 Key Usage: 
                Digital Signature, Key Encipherment
            X509v3 Subject Alternative Name: 
                DNS:team708-server
    Signature Algorithm: sha256WithRSAEncryption
         30:54:f7:75:0e:7d:aa:c7:4b:93:36:33:3d:1b:ca:ee:9a:ad:
         0f:5f:59:81:f3:b1:7b:cc:ba:26:28:e5:eb:e2:25:29:6a:4b:
         05:87:4f:c8:d4:b3:c4:fc:24:f7:cb:44:84:2c:c4:84:80:f0:
         5a:92:06:53:ca:91:17:f4:94:46:74:f5:c8:fa:70:66:c9:94:
         fb:0b:07:31:c1:1d:ee:46:60:55:92:5a:1c:a5:c0:49:1d:98:
         f2:47:89:91:d9:99:ac:c7:9f:12:0b:09:25:82:ba:13:49:e1:
         dc:93:64:31:07:b1:e1:45:5f:fe:8d:c1:36:18:1d:3a:a5:3d:
         23:57:99:b0:03:91:06:33:1d:b5:dd:ba:4f:df:db:92:34:64:
         55:b9:6a:a6:86:a9:5b:59:fb:46:0f:69:3d:94:e2:c6:30:cc:
         bb:67:b0:73:c4:c9:9a:ff:9b:1a:66:db:af:a4:e7:83:8c:07:
         d7:2f:4b:5c:81:ae:b7:b2:7a:0b:11:21:0e:31:69:db:18:40:
         c7:d0:8c:1c:99:c7:39:e7:94:25:61:74:2c:f4:ff:be:7b:46:
         02:17:c9:c2:47:6c:28:fb:6c:ad:cb:b5:9a:78:05:df:5d:44:
         84:f0:90:8f:4a:65:2c:a8:46:41:f0:9a:06:86:63:9a:a3:55:
         98:f6:59:22
-----BEGIN CERTIFICATE-----
MIIDeDCCAmCgAwIBAgIRAK8uH4aNnFknxA0rOigmmN8wDQYJKoZIhvcNAQELBQAw
FjEUMBIGA1UEAwwLdGVhbTcwOC1uZXQwHhcNMjEwOTEzMDQ1MzQ1WhcNMjQwODI4
MDQ1MzQ1WjAZMRcwFQYDVQQDDA50ZWFtNzA4LXNlcnZlcjCCASIwDQYJKoZIhvcN
AQEBBQADggEPADCCAQoCggEBALLoO8WtL+ZBTKtNT19zOn7hiUjXIuEv6oMSi5jg
5Iux+dcryD+ckOBvzfbFOi0SlMeGjGehvK/yBf+VVusBAzYen7ryDftHTrMZHYov
8+gdR986wliEVEd2Ai+qjcg+18DGU+e1jAL216OH8vSyGkAekbDZXCL/UVyA9WZP
JjEnrVyXxWWCuFgGO0ToTglTbERmH6Isdp2A7f7uTqZnfzMMyFvVdkWZ1F/o6GRp
zbd1GHeCmw6hGg2BrxM6QaggxwcWF7mEQ47JgUZo0EnozVEPfaQNkwZwpTL0s6j/
V/EZLYI3YCdPMK+8PaknrF/JotkJLdB3ufFilkk4SDt0fb0CAwEAAaOBvTCBujAJ
BgNVHRMEAjAAMB0GA1UdDgQWBBRPCZx2m8kqTFuvyAvs58moXPtuNDBRBgNVHSME
SjBIgBTg9ngAUbj0VThlBd+nh2mj7HVCL6EapBgwFjEUMBIGA1UEAwwLdGVhbTcw
OC1uZXSCFC2QCShwk4PcW/B1ZXn8JGZslZCTMBMGA1UdJQQMMAoGCCsGAQUFBwMB
MAsGA1UdDwQEAwIFoDAZBgNVHREEEjAQgg50ZWFtNzA4LXNlcnZlcjANBgkqhkiG
9w0BAQsFAAOCAQEAMFT3dQ59qsdLkzYzPRvK7pqtD19ZgfOxe8y6Jijl6+IlKWpL
BYdPyNSzxPwk98tEhCzEhIDwWpIGU8qRF/SURnT1yPpwZsmU+wsHMcEd7kZgVZJa
HKXASR2Y8keJkdmZrMefEgsJJYK6E0nh3JNkMQex4UVf/o3BNhgdOqU9I1eZsAOR
BjMdtd26T9/bkjRkVblqpoapW1n7Rg9pPZTixjDMu2ewc8TJmv+bGmbbr6Tng4wH
1y9LXIGut7J6CxEhDjFp2xhAx9CMHJnHOeeUJWF0LPT/vntGAhfJwkdsKPtsrcu1
mngF311EhPCQj0plLKhGQfCaBoZjmqNVmPZZIg==
-----END CERTIFICATE-----
