Certificate:
    Data:
        Version: 3 (0x2)
        Serial Number:
            1d:33:a1:24:80:15:18:11:1f:43:40:3e:86:c7:f8:32
        Signature Algorithm: sha256WithRSAEncryption
        Issuer: CN=team34-net
        Validity
            Not Before: Sep 12 23:02:09 2021 GMT
            Not After : Aug 27 23:02:09 2024 GMT
        Subject: CN=team34-client
        Subject Public Key Info:
            Public Key Algorithm: rsaEncryption
                RSA Public-Key: (2048 bit)
                Modulus:
                    00:d0:15:aa:7f:a9:37:43:6d:a4:d7:25:18:8e:e6:
                    39:ef:5e:17:fc:00:81:db:58:90:af:00:a1:2b:67:
                    de:f2:8e:6c:02:4a:28:f0:04:6e:d2:f5:3e:94:ee:
                    b6:12:30:a6:5d:89:c7:37:6b:b0:b5:2a:49:29:84:
                    83:1d:35:34:a5:cd:46:b0:78:4c:1f:51:f7:ad:e3:
                    63:53:49:59:22:a9:b6:ba:8d:e6:e6:3a:4e:4c:e4:
                    9c:6c:ab:9f:87:ab:5f:99:56:35:91:09:9c:0f:7d:
                    be:1c:ef:be:eb:cc:a7:df:ab:37:bc:fb:03:a8:90:
                    93:fc:ea:6a:12:af:c0:72:30:bf:68:82:41:4d:ac:
                    73:31:22:0e:74:10:e8:6b:40:b9:e3:25:af:2b:ac:
                    01:18:62:97:46:cc:58:ca:c6:cf:0e:f8:54:94:23:
                    81:18:50:65:f4:e9:86:0b:3d:6d:c2:8f:03:e4:c0:
                    6a:ba:ff:c7:8e:70:18:87:9f:25:0c:5e:67:31:67:
                    d3:41:c9:25:1f:47:2b:40:7f:58:21:42:9c:73:87:
                    83:1b:fa:88:7e:74:1a:c7:6f:af:19:94:92:81:53:
                    c1:e2:6f:b4:83:8f:79:47:40:a0:f4:5f:69:3f:f4:
                    6a:bf:08:59:06:5c:6b:03:97:bc:8d:fa:96:a3:e0:
                    4a:27
                Exponent: 65537 (0x10001)
        X509v3 extensions:
            X509v3 Basic Constraints: 
                CA:FALSE
            X509v3 Subject Key Identifier: 
                1D:C5:3A:34:AA:86:8D:96:CF:4A:55:BD:9C:E0:59:5F:5D:31:A0:85
            X509v3 Authority Key Identifier: 
                keyid:8F:7B:88:D1:0E:E4:CB:9E:05:9E:4D:94:44:B0:95:AA:72:E8:7A:C5
                DirName:/CN=team34-net
                serial:55:12:AA:9B:95:38:1F:84:9C:B1:23:49:E9:2E:06:5F:64:0F:CE:D3

            X509v3 Extended Key Usage: 
                TLS Web Client Authentication
            X509v3 Key Usage: 
                Digital Signature
    Signature Algorithm: sha256WithRSAEncryption
         54:c7:ea:ab:eb:36:9d:14:23:8c:65:b2:23:f2:d6:ea:91:b1:
         13:f7:e5:fc:ba:de:bd:5b:60:cb:66:ac:72:93:0c:18:42:61:
         4d:2a:3c:bf:ac:12:e6:88:ce:e9:d3:ed:d9:c0:22:77:d8:96:
         04:b3:0f:7b:2b:42:58:fb:9b:45:a8:d9:29:3d:24:b5:46:15:
         4f:c3:ba:8d:4a:0e:2d:79:66:e4:68:c7:77:01:82:ae:29:d6:
         ee:ad:85:ea:a4:13:a2:80:d1:a6:76:63:d5:72:99:fe:df:0d:
         49:65:31:1a:9c:bc:62:f4:59:ee:ae:c9:ef:5b:dc:03:a0:8b:
         7a:1e:e1:fe:b7:e6:69:db:19:b7:fc:50:2e:38:4c:93:10:a5:
         95:46:3b:cc:7f:d8:24:ba:e8:1e:ac:1d:db:1b:19:87:79:2d:
         c8:f6:aa:c8:94:44:61:97:e0:a7:e2:14:3d:fe:7d:a9:39:a1:
         54:d1:e7:a3:26:20:91:a9:53:10:4d:bd:b7:47:75:cc:6f:0c:
         6f:28:9d:88:68:2e:1b:d2:ad:79:19:2f:78:84:34:1d:79:cb:
         1b:8f:c1:e0:34:bd:8b:e7:34:10:05:11:86:ca:90:04:aa:6f:
         58:f2:e5:02:54:95:14:04:0e:e4:29:36:cd:1a:74:bd:29:03:
         86:3c:46:9f
-----BEGIN CERTIFICATE-----
MIIDWTCCAkGgAwIBAgIQHTOhJIAVGBEfQ0A+hsf4MjANBgkqhkiG9w0BAQsFADAV
MRMwEQYDVQQDDAp0ZWFtMzQtbmV0MB4XDTIxMDkxMjIzMDIwOVoXDTI0MDgyNzIz
MDIwOVowGDEWMBQGA1UEAwwNdGVhbTM0LWNsaWVudDCCASIwDQYJKoZIhvcNAQEB
BQADggEPADCCAQoCggEBANAVqn+pN0NtpNclGI7mOe9eF/wAgdtYkK8AoStn3vKO
bAJKKPAEbtL1PpTuthIwpl2JxzdrsLUqSSmEgx01NKXNRrB4TB9R963jY1NJWSKp
trqN5uY6TkzknGyrn4erX5lWNZEJnA99vhzvvuvMp9+rN7z7A6iQk/zqahKvwHIw
v2iCQU2sczEiDnQQ6GtAueMlryusARhil0bMWMrGzw74VJQjgRhQZfTphgs9bcKP
A+TAarr/x45wGIefJQxeZzFn00HJJR9HK0B/WCFCnHOHgxv6iH50GsdvrxmUkoFT
weJvtIOPeUdAoPRfaT/0ar8IWQZcawOXvI36lqPgSicCAwEAAaOBoTCBnjAJBgNV
HRMEAjAAMB0GA1UdDgQWBBQdxTo0qoaNls9KVb2c4FlfXTGghTBQBgNVHSMESTBH
gBSPe4jRDuTLngWeTZREsJWqcuh6xaEZpBcwFTETMBEGA1UEAwwKdGVhbTM0LW5l
dIIUVRKqm5U4H4ScsSNJ6S4GX2QPztMwEwYDVR0lBAwwCgYIKwYBBQUHAwIwCwYD
VR0PBAQDAgeAMA0GCSqGSIb3DQEBCwUAA4IBAQBUx+qr6zadFCOMZbIj8tbqkbET
9+X8ut69W2DLZqxykwwYQmFNKjy/rBLmiM7p0+3ZwCJ32JYEsw97K0JY+5tFqNkp
PSS1RhVPw7qNSg4teWbkaMd3AYKuKdburYXqpBOigNGmdmPVcpn+3w1JZTEanLxi
9FnursnvW9wDoIt6HuH+t+Zp2xm3/FAuOEyTEKWVRjvMf9gkuugerB3bGxmHeS3I
9qrIlERhl+Cn4hQ9/n2pOaFU0eejJiCRqVMQTb23R3XMbwxvKJ2IaC4b0q15GS94
hDQdecsbj8HgNL2L5zQQBRGGypAEqm9Y8uUCVJUUBA7kKTbNGnS9KQOGPEaf
-----END CERTIFICATE-----
