Certificate:
    Data:
        Version: 3 (0x2)
        Serial Number:
            6e:45:b0:3d:d1:bd:68:b8:65:2a:a1:74:6e:84:e9:2a
        Signature Algorithm: sha256WithRSAEncryption
        Issuer: CN=team42-net
        Validity
            Not Before: Sep 12 23:05:31 2021 GMT
            Not After : Aug 27 23:05:31 2024 GMT
        Subject: CN=team42-client
        Subject Public Key Info:
            Public Key Algorithm: rsaEncryption
                RSA Public-Key: (2048 bit)
                Modulus:
                    00:ac:e8:7d:c4:34:4f:d2:fa:0c:4c:58:75:0c:43:
                    8e:3d:55:50:41:e3:39:ad:1f:d3:cd:e5:3a:ef:ad:
                    36:50:37:02:5d:1a:f9:ac:3b:82:42:4b:51:ae:2f:
                    47:2f:5b:07:fe:1e:45:b0:22:b1:dc:13:3f:b4:f0:
                    05:b2:5f:85:9a:40:d1:e2:2b:97:92:62:13:d0:c9:
                    0e:35:c1:0b:59:3b:46:5e:3f:dd:5d:77:93:ff:10:
                    9b:d5:ac:97:61:a1:78:12:7d:48:ca:82:f5:70:b4:
                    0a:0a:a7:85:78:c1:5f:9b:20:99:e6:67:2b:bc:e2:
                    26:36:a3:65:81:b8:70:b6:9a:ab:30:b7:dc:40:f0:
                    cb:a4:95:6a:cc:b6:6f:80:9f:39:89:ed:b6:8b:58:
                    92:d8:88:8f:b0:27:ab:52:dc:cb:f0:9c:1f:04:ca:
                    10:0b:7b:5f:69:2e:d6:bf:31:9b:02:c8:fc:03:a2:
                    eb:ad:d0:44:a9:f0:63:62:4c:a2:71:dd:06:15:03:
                    b4:3d:f1:01:7a:25:87:52:cf:c9:95:36:e1:85:53:
                    7a:73:4d:e9:ef:58:6c:42:b0:85:4e:32:bf:a2:16:
                    08:91:2f:17:11:8c:59:fa:86:2c:b6:57:fc:e2:54:
                    bd:25:0a:bd:08:aa:d3:ee:09:ab:54:46:1f:a3:e7:
                    4f:69
                Exponent: 65537 (0x10001)
        X509v3 extensions:
            X509v3 Basic Constraints: 
                CA:FALSE
            X509v3 Subject Key Identifier: 
                C5:24:00:14:16:D1:C3:34:EB:04:75:67:B7:ED:3B:19:CB:BA:86:E3
            X509v3 Authority Key Identifier: 
                keyid:33:8B:E7:BD:41:71:04:79:40:B5:8F:12:B3:E7:F3:34:C1:A7:41:3E
                DirName:/CN=team42-net
                serial:26:86:25:B1:C9:9F:BA:9E:42:B4:8A:99:46:CD:86:B0:A1:53:63:46

            X509v3 Extended Key Usage: 
                TLS Web Client Authentication
            X509v3 Key Usage: 
                Digital Signature
    Signature Algorithm: sha256WithRSAEncryption
         4c:70:41:36:32:b7:fb:1b:83:e7:d6:86:7d:2b:fc:91:68:c3:
         bd:ef:45:12:b7:f5:be:64:7e:9a:8f:34:c0:63:65:a3:f6:11:
         15:e0:c3:f8:d2:39:de:b6:69:c6:cd:93:b5:a0:5e:f1:32:6b:
         a2:f2:2c:d7:21:ed:36:8a:3b:39:f0:2f:7d:40:08:a8:1b:79:
         f0:dc:12:1c:9c:6a:0b:be:b9:00:0d:4b:70:1a:12:b2:7a:bc:
         00:2e:65:c4:96:24:a4:9b:2c:5c:48:a0:c0:59:81:b9:9e:fc:
         7b:e5:a7:0b:62:8e:f4:e7:86:02:82:37:f5:24:db:c1:6c:c7:
         44:4e:62:0c:c9:b2:76:95:b8:c7:1c:a0:01:57:04:14:b4:91:
         5b:f4:38:8f:d4:a4:33:72:4f:5d:87:ad:88:8f:a8:87:39:81:
         bf:a5:bb:45:31:83:6b:1b:ec:f6:e9:57:b1:88:43:74:4c:05:
         d9:50:73:1d:b1:c2:d6:12:ca:54:9c:90:ba:3b:e3:0d:4a:c0:
         47:39:63:5a:f8:14:b5:c2:61:fd:09:6e:61:50:d0:1b:61:44:
         6a:25:42:69:25:27:da:a1:c3:18:d2:38:68:c3:27:d4:60:e4:
         69:a6:be:c2:da:88:bb:cc:ce:dc:7e:1d:9c:23:14:1f:69:d1:
         8a:68:c6:16
-----BEGIN CERTIFICATE-----
MIIDWTCCAkGgAwIBAgIQbkWwPdG9aLhlKqF0boTpKjANBgkqhkiG9w0BAQsFADAV
MRMwEQYDVQQDDAp0ZWFtNDItbmV0MB4XDTIxMDkxMjIzMDUzMVoXDTI0MDgyNzIz
MDUzMVowGDEWMBQGA1UEAwwNdGVhbTQyLWNsaWVudDCCASIwDQYJKoZIhvcNAQEB
BQADggEPADCCAQoCggEBAKzofcQ0T9L6DExYdQxDjj1VUEHjOa0f083lOu+tNlA3
Al0a+aw7gkJLUa4vRy9bB/4eRbAisdwTP7TwBbJfhZpA0eIrl5JiE9DJDjXBC1k7
Rl4/3V13k/8Qm9Wsl2GheBJ9SMqC9XC0CgqnhXjBX5sgmeZnK7ziJjajZYG4cLaa
qzC33EDwy6SVasy2b4CfOYnttotYktiIj7Anq1Lcy/CcHwTKEAt7X2ku1r8xmwLI
/AOi663QRKnwY2JMonHdBhUDtD3xAXolh1LPyZU24YVTenNN6e9YbEKwhU4yv6IW
CJEvFxGMWfqGLLZX/OJUvSUKvQiq0+4Jq1RGH6PnT2kCAwEAAaOBoTCBnjAJBgNV
HRMEAjAAMB0GA1UdDgQWBBTFJAAUFtHDNOsEdWe37TsZy7qG4zBQBgNVHSMESTBH
gBQzi+e9QXEEeUC1jxKz5/M0wadBPqEZpBcwFTETMBEGA1UEAwwKdGVhbTQyLW5l
dIIUJoYlscmfup5CtIqZRs2GsKFTY0YwEwYDVR0lBAwwCgYIKwYBBQUHAwIwCwYD
VR0PBAQDAgeAMA0GCSqGSIb3DQEBCwUAA4IBAQBMcEE2Mrf7G4Pn1oZ9K/yRaMO9
70USt/W+ZH6ajzTAY2Wj9hEV4MP40jnetmnGzZO1oF7xMmui8izXIe02ijs58C99
QAioG3nw3BIcnGoLvrkADUtwGhKyerwALmXEliSkmyxcSKDAWYG5nvx75acLYo70
54YCgjf1JNvBbMdETmIMybJ2lbjHHKABVwQUtJFb9DiP1KQzck9dh62Ij6iHOYG/
pbtFMYNrG+z26VexiEN0TAXZUHMdscLWEspUnJC6O+MNSsBHOWNa+BS1wmH9CW5h
UNAbYURqJUJpJSfaocMY0jhowyfUYORppr7C2oi7zM7cfh2cIxQfadGKaMYW
-----END CERTIFICATE-----
