Certificate:
    Data:
        Version: 3 (0x2)
        Serial Number:
            6d:ae:53:c3:e4:38:b6:10:cc:93:17:e6:3a:c8:27:fa
        Signature Algorithm: sha256WithRSAEncryption
        Issuer: CN=team173-net
        Validity
            Not Before: Sep 13 00:24:20 2021 GMT
            Not After : Aug 28 00:24:20 2024 GMT
        Subject: CN=team173-server
        Subject Public Key Info:
            Public Key Algorithm: rsaEncryption
                RSA Public-Key: (2048 bit)
                Modulus:
                    00:b6:8d:20:1c:a6:ab:86:6d:61:60:a7:06:47:12:
                    c1:5d:cf:41:a4:4d:34:11:35:dc:4e:84:3c:62:66:
                    c3:d3:00:8e:1c:30:b1:cf:5b:56:b7:26:f3:2d:1b:
                    8f:c1:fd:54:2b:0e:51:bc:ac:4b:5c:34:cf:41:ce:
                    7d:d1:1d:ec:d7:35:5b:c5:ae:7a:33:68:82:8f:d2:
                    94:ad:a8:2a:d4:61:ac:73:02:d3:4a:b2:91:79:37:
                    e6:13:e0:32:00:23:9b:2b:01:34:78:a3:04:8d:0e:
                    ce:5e:8d:44:cd:69:90:ad:28:39:7c:b2:00:a1:c5:
                    70:af:f7:35:d4:d9:b1:26:a0:54:f3:1d:dc:08:bc:
                    4c:ba:35:1f:66:60:3a:9f:75:6c:6f:88:0b:c0:c0:
                    ad:71:eb:e5:7d:bc:8c:ff:83:2b:b9:46:6a:c4:a4:
                    4e:ae:85:a6:48:fd:0c:41:58:c9:74:40:94:0f:92:
                    7d:16:2e:d5:db:5d:46:1a:fc:79:d4:24:3c:95:45:
                    87:c5:53:1e:b8:72:ef:8b:6c:fe:3f:58:6a:c8:56:
                    5f:b8:72:08:bd:42:80:c8:77:81:d1:b6:c8:a9:a7:
                    85:82:bb:36:10:e8:0f:e3:03:04:bb:99:de:4f:9a:
                    eb:e1:92:34:61:e6:71:2c:91:46:1f:40:bc:f0:71:
                    30:6d
                Exponent: 65537 (0x10001)
        X509v3 extensions:
            X509v3 Basic Constraints: 
                CA:FALSE
            X509v3 Subject Key Identifier: 
                2A:37:E8:60:4C:12:E4:D2:99:27:F4:89:41:09:AD:5D:95:9F:39:62
            X509v3 Authority Key Identifier: 
                keyid:CF:92:D6:BC:87:90:7F:45:76:56:BF:84:BF:B1:72:EC:E6:22:76:22
                DirName:/CN=team173-net
                serial:6B:91:B2:E0:A9:D6:97:C9:32:F4:7F:59:8C:EF:F9:94:B6:A7:54:3F

            X509v3 Extended Key Usage: 
                TLS Web Server Authentication
            X509v3 Key Usage: 
                Digital Signature, Key Encipherment
            X509v3 Subject Alternative Name: 
                DNS:team173-server
    Signature Algorithm: sha256WithRSAEncryption
         2a:34:b3:84:27:45:ef:d2:aa:31:bc:7d:bb:ce:6c:97:9f:7d:
         4b:67:0d:ba:98:b7:9c:b1:38:28:22:aa:70:8b:0e:9d:bd:74:
         97:37:5a:e6:dc:73:9e:80:da:72:9d:44:81:46:c8:cd:00:18:
         ec:e4:e6:5c:df:e4:73:57:76:70:11:11:71:29:9b:ce:93:fb:
         71:77:98:85:f6:ad:b9:50:9e:65:f2:f2:3f:35:a8:b5:0f:bc:
         81:2c:d8:25:0b:5f:f1:f7:77:b4:24:8e:ed:7e:45:76:cb:f3:
         85:7e:a9:51:11:d1:2f:3a:70:52:14:2e:eb:37:fc:4b:f8:d3:
         66:b8:ab:66:83:c9:10:f6:af:53:9a:d9:b3:5e:61:74:4a:37:
         32:57:17:6b:8e:31:df:e7:bd:c7:90:7d:04:73:74:26:59:2a:
         b8:dc:a2:57:a7:9e:f6:53:aa:92:5c:7f:57:1b:40:cb:0a:75:
         ee:ae:9c:3b:aa:3b:a6:07:9d:99:a4:ab:7e:82:2a:fb:7d:1d:
         e9:56:d6:e6:82:bd:5b:6b:89:88:f1:5b:fe:39:95:85:5f:c4:
         f7:81:89:5b:0a:85:2c:eb:e9:a7:2a:73:77:69:39:17:9e:83:
         7c:23:4c:95:4b:ff:bf:7a:2b:4d:cd:ff:38:08:2a:eb:ea:60:
         a0:f3:ca:02
-----BEGIN CERTIFICATE-----
MIIDdzCCAl+gAwIBAgIQba5Tw+Q4thDMkxfmOsgn+jANBgkqhkiG9w0BAQsFADAW
MRQwEgYDVQQDDAt0ZWFtMTczLW5ldDAeFw0yMTA5MTMwMDI0MjBaFw0yNDA4Mjgw
MDI0MjBaMBkxFzAVBgNVBAMMDnRlYW0xNzMtc2VydmVyMIIBIjANBgkqhkiG9w0B
AQEFAAOCAQ8AMIIBCgKCAQEAto0gHKarhm1hYKcGRxLBXc9BpE00ETXcToQ8YmbD
0wCOHDCxz1tWtybzLRuPwf1UKw5RvKxLXDTPQc590R3s1zVbxa56M2iCj9KUragq
1GGscwLTSrKReTfmE+AyACObKwE0eKMEjQ7OXo1EzWmQrSg5fLIAocVwr/c11Nmx
JqBU8x3cCLxMujUfZmA6n3Vsb4gLwMCtcevlfbyM/4MruUZqxKROroWmSP0MQVjJ
dECUD5J9Fi7V211GGvx51CQ8lUWHxVMeuHLvi2z+P1hqyFZfuHIIvUKAyHeB0bbI
qaeFgrs2EOgP4wMEu5neT5rr4ZI0YeZxLJFGH0C88HEwbQIDAQABo4G9MIG6MAkG
A1UdEwQCMAAwHQYDVR0OBBYEFCo36GBMEuTSmSf0iUEJrV2VnzliMFEGA1UdIwRK
MEiAFM+S1ryHkH9Fdla/hL+xcuzmInYioRqkGDAWMRQwEgYDVQQDDAt0ZWFtMTcz
LW5ldIIUa5Gy4KnWl8ky9H9ZjO/5lLanVD8wEwYDVR0lBAwwCgYIKwYBBQUHAwEw
CwYDVR0PBAQDAgWgMBkGA1UdEQQSMBCCDnRlYW0xNzMtc2VydmVyMA0GCSqGSIb3
DQEBCwUAA4IBAQAqNLOEJ0Xv0qoxvH27zmyXn31LZw26mLecsTgoIqpwiw6dvXSX
N1rm3HOegNpynUSBRsjNABjs5OZc3+RzV3ZwERFxKZvOk/txd5iF9q25UJ5l8vI/
Nai1D7yBLNglC1/x93e0JI7tfkV2y/OFfqlREdEvOnBSFC7rN/xL+NNmuKtmg8kQ
9q9TmtmzXmF0SjcyVxdrjjHf573HkH0Ec3QmWSq43KJXp572U6qSXH9XG0DLCnXu
rpw7qjumB52ZpKt+gir7fR3pVtbmgr1ba4mI8Vv+OZWFX8T3gYlbCoUs6+mnKnN3
aTkXnoN8I0yVS/+/eitNzf84CCrr6mCg88oC
-----END CERTIFICATE-----
