Certificate:
    Data:
        Version: 3 (0x2)
        Serial Number:
            a6:37:e0:c3:cb:03:27:38:5d:e8:db:ec:24:e1:40:cd
        Signature Algorithm: sha256WithRSAEncryption
        Issuer: CN=team192-net
        Validity
            Not Before: Sep 13 00:25:52 2021 GMT
            Not After : Aug 28 00:25:52 2024 GMT
        Subject: CN=team192-server
        Subject Public Key Info:
            Public Key Algorithm: rsaEncryption
                RSA Public-Key: (2048 bit)
                Modulus:
                    00:c7:2b:a3:73:43:0f:3e:9a:3e:2e:ff:d4:1b:33:
                    77:8d:11:40:08:3e:09:af:04:d3:e2:5a:99:69:06:
                    49:62:b6:d9:f0:8f:ed:9d:8f:b3:6f:68:73:c8:00:
                    18:d1:41:aa:6d:ee:41:71:6d:68:14:91:c0:ce:2f:
                    6d:2b:12:38:e6:54:fa:53:4d:78:c4:92:8e:b4:14:
                    0d:01:b8:62:1f:f0:44:49:5b:81:89:7a:ba:a3:c7:
                    fb:44:b5:5a:de:a2:cd:ce:ff:08:c4:71:76:30:df:
                    ca:5d:b6:c4:bf:c6:0f:bc:13:6e:68:3b:a1:08:d6:
                    12:e5:dd:db:6b:ab:61:62:47:27:40:ea:7f:b0:09:
                    80:f7:0a:46:23:d8:f4:f5:53:55:da:a8:25:c7:ff:
                    97:20:f3:ce:46:8b:0c:88:b5:4a:91:d3:a2:8c:1c:
                    7a:65:ce:24:5c:9f:12:6b:bd:f0:4c:bc:3f:b8:1a:
                    11:ca:a6:c6:fc:35:07:4a:1f:2d:e7:dc:11:47:8f:
                    de:0b:ab:1f:34:72:f3:70:97:58:a9:c9:c7:74:4d:
                    b7:74:b4:10:73:fa:9c:f5:cc:84:0a:10:7e:66:04:
                    b3:82:55:e7:14:a4:04:f2:fb:70:33:c1:ff:a8:49:
                    a7:f7:ec:36:30:8c:f9:f0:2e:b2:93:ac:7f:83:0d:
                    89:a7
                Exponent: 65537 (0x10001)
        X509v3 extensions:
            X509v3 Basic Constraints: 
                CA:FALSE
            X509v3 Subject Key Identifier: 
                5D:FD:FF:EA:D2:8B:30:3F:98:3D:C5:CE:57:60:54:B1:00:0C:C1:F1
            X509v3 Authority Key Identifier: 
                keyid:92:04:F4:CC:51:A7:1D:3F:A0:2F:6B:AC:53:59:0C:C4:5A:06:74:9D
                DirName:/CN=team192-net
                serial:38:D4:4E:47:88:1F:81:95:4E:17:8D:17:1B:C1:CA:C8:C1:8C:34:8F

            X509v3 Extended Key Usage: 
                TLS Web Server Authentication
            X509v3 Key Usage: 
                Digital Signature, Key Encipherment
            X509v3 Subject Alternative Name: 
                DNS:team192-server
    Signature Algorithm: sha256WithRSAEncryption
         ba:29:fc:e3:b1:c4:ed:33:75:34:52:9a:6d:0d:8e:1d:b6:22:
         60:d4:57:c0:b6:b4:54:73:f5:86:ca:b2:fc:43:64:69:3f:c5:
         78:33:cd:16:4f:25:22:06:71:79:6b:2b:16:96:2d:56:ac:9f:
         73:6d:e1:5d:66:22:6a:7b:61:97:13:ff:50:a9:35:e3:02:d7:
         9a:2c:73:62:fa:20:ab:b1:a3:de:17:0b:42:21:3a:0a:5c:4b:
         bc:20:cd:87:12:48:91:4c:79:c9:23:ed:d2:19:a3:07:6c:38:
         29:c8:e2:9e:7c:07:31:f9:8e:5a:60:4c:d3:c0:e8:af:44:3b:
         c5:0a:2e:63:2f:b5:4a:34:74:e6:00:cf:6c:74:15:9b:77:29:
         16:a7:04:c6:52:f5:ff:f7:f9:df:fc:ac:28:b7:d6:69:2a:73:
         ea:89:45:2f:3a:27:84:60:36:1a:65:0b:67:d9:1b:12:ca:3a:
         e5:ae:02:c4:96:3b:06:4c:c5:d2:9e:73:08:a8:dc:dd:81:13:
         f6:41:87:d1:4f:f7:90:b4:8e:29:82:56:9a:99:87:8b:fd:94:
         58:e3:20:cc:0f:08:07:d4:b2:09:23:9b:f7:59:5d:9c:29:a9:
         4c:22:f1:5f:90:d4:d3:37:c3:39:96:0e:71:f3:8f:da:8a:eb:
         00:46:4b:81
-----BEGIN CERTIFICATE-----
MIIDeDCCAmCgAwIBAgIRAKY34MPLAyc4Xejb7CThQM0wDQYJKoZIhvcNAQELBQAw
FjEUMBIGA1UEAwwLdGVhbTE5Mi1uZXQwHhcNMjEwOTEzMDAyNTUyWhcNMjQwODI4
MDAyNTUyWjAZMRcwFQYDVQQDDA50ZWFtMTkyLXNlcnZlcjCCASIwDQYJKoZIhvcN
AQEBBQADggEPADCCAQoCggEBAMcro3NDDz6aPi7/1Bszd40RQAg+Ca8E0+JamWkG
SWK22fCP7Z2Ps29oc8gAGNFBqm3uQXFtaBSRwM4vbSsSOOZU+lNNeMSSjrQUDQG4
Yh/wRElbgYl6uqPH+0S1Wt6izc7/CMRxdjDfyl22xL/GD7wTbmg7oQjWEuXd22ur
YWJHJ0Dqf7AJgPcKRiPY9PVTVdqoJcf/lyDzzkaLDIi1SpHToowcemXOJFyfEmu9
8Ey8P7gaEcqmxvw1B0ofLefcEUeP3gurHzRy83CXWKnJx3RNt3S0EHP6nPXMhAoQ
fmYEs4JV5xSkBPL7cDPB/6hJp/fsNjCM+fAuspOsf4MNiacCAwEAAaOBvTCBujAJ
BgNVHRMEAjAAMB0GA1UdDgQWBBRd/f/q0oswP5g9xc5XYFSxAAzB8TBRBgNVHSME
SjBIgBSSBPTMUacdP6Ava6xTWQzEWgZ0naEapBgwFjEUMBIGA1UEAwwLdGVhbTE5
Mi1uZXSCFDjUTkeIH4GVTheNFxvBysjBjDSPMBMGA1UdJQQMMAoGCCsGAQUFBwMB
MAsGA1UdDwQEAwIFoDAZBgNVHREEEjAQgg50ZWFtMTkyLXNlcnZlcjANBgkqhkiG
9w0BAQsFAAOCAQEAuin847HE7TN1NFKabQ2OHbYiYNRXwLa0VHP1hsqy/ENkaT/F
eDPNFk8lIgZxeWsrFpYtVqyfc23hXWYianthlxP/UKk14wLXmixzYvogq7Gj3hcL
QiE6ClxLvCDNhxJIkUx5ySPt0hmjB2w4KcjinnwHMfmOWmBM08Dor0Q7xQouYy+1
SjR05gDPbHQVm3cpFqcExlL1//f53/ysKLfWaSpz6olFLzonhGA2GmULZ9kbEso6
5a4CxJY7BkzF0p5zCKjc3YET9kGH0U/3kLSOKYJWmpmHi/2UWOMgzA8IB9SyCSOb
91ldnCmpTCLxX5DU0zfDOZYOcfOP2orrAEZLgQ==
-----END CERTIFICATE-----
