Certificate:
    Data:
        Version: 3 (0x2)
        Serial Number:
            56:3b:e8:4a:e5:ab:92:e4:b0:de:3c:e9:a9:42:e7:2e
        Signature Algorithm: sha256WithRSAEncryption
        Issuer: CN=team724-net
        Validity
            Not Before: Sep 13 04:59:58 2021 GMT
            Not After : Aug 28 04:59:58 2024 GMT
        Subject: CN=team724-server
        Subject Public Key Info:
            Public Key Algorithm: rsaEncryption
                RSA Public-Key: (2048 bit)
                Modulus:
                    00:c0:a2:45:64:2b:7d:52:37:b0:eb:92:ff:b5:65:
                    4f:0e:69:56:e1:17:0f:a3:95:e3:c2:d3:85:44:e7:
                    83:cd:4f:c1:15:3a:b0:bc:d7:45:15:07:50:98:0c:
                    e8:62:ef:ac:02:43:7f:ae:dd:54:c0:2e:48:89:f3:
                    1f:47:a0:c9:19:3e:43:7b:af:0d:b3:23:a6:bf:76:
                    7a:86:89:ae:dd:55:50:52:ca:77:ec:5b:ad:84:d0:
                    37:f0:82:e9:c3:a6:79:d3:a3:1d:aa:3c:b4:aa:7f:
                    b1:5f:e9:4d:79:56:e5:46:6d:0e:e0:f5:f8:87:2f:
                    f1:af:da:0f:fc:76:02:b4:a9:cc:60:a3:bf:cb:76:
                    08:b0:de:10:e7:24:c3:7f:fb:ff:8f:e1:f9:6d:e5:
                    ef:fe:4a:fa:10:9c:ca:3a:33:e0:52:54:04:4c:c1:
                    fd:50:03:1e:00:00:fa:5a:c6:a8:3a:d3:27:ca:3b:
                    ce:c0:0d:94:f9:a1:1d:61:86:34:01:77:aa:f7:d5:
                    c2:03:99:c7:21:4d:da:69:c7:96:fa:a5:44:c8:e3:
                    59:e6:17:a5:89:0c:0a:6e:3e:33:d3:3a:1a:9f:c2:
                    3d:68:72:db:a1:be:e1:9f:72:5a:5a:9d:99:c1:ef:
                    e5:f0:ed:94:80:11:74:4e:e3:c1:ec:40:83:eb:c1:
                    a1:7d
                Exponent: 65537 (0x10001)
        X509v3 extensions:
            X509v3 Basic Constraints: 
                CA:FALSE
            X509v3 Subject Key Identifier: 
                3B:BB:56:AB:D8:08:AC:7B:3D:BF:32:3B:5E:F0:41:43:63:5F:CB:FC
            X509v3 Authority Key Identifier: 
                keyid:C0:DE:7E:1C:D7:0B:33:2A:8C:7C:62:A6:AB:DE:F3:7D:31:79:2F:0C
                DirName:/CN=team724-net
                serial:0F:46:78:EC:2B:D5:3A:1A:76:14:32:38:2F:23:80:23:55:47:11:6F

            X509v3 Extended Key Usage: 
                TLS Web Server Authentication
            X509v3 Key Usage: 
                Digital Signature, Key Encipherment
            X509v3 Subject Alternative Name: 
                DNS:team724-server
    Signature Algorithm: sha256WithRSAEncryption
         31:53:e8:df:d1:36:e7:9c:8d:67:4c:92:ce:65:44:2f:4c:c4:
         49:6e:03:cd:98:05:88:8b:a2:6c:04:ff:18:f7:62:f1:8b:af:
         dc:3b:36:c4:a7:1d:d9:d2:41:3a:86:7b:79:5d:09:fb:e4:82:
         74:f2:e7:45:d1:9a:92:9b:ee:e5:63:d9:7d:ce:69:e2:31:ff:
         32:d8:1c:b3:aa:d9:9b:8b:28:45:87:87:6b:02:ea:7a:77:eb:
         58:ef:78:57:04:1c:e2:4a:e4:36:2d:c7:75:2b:1c:3b:f7:75:
         d4:b0:80:8a:9a:7e:92:6a:62:4e:05:58:1a:84:71:64:66:99:
         6f:8b:28:6b:ea:bb:9a:c4:84:77:5a:c3:74:e8:36:b9:c7:2c:
         0e:54:87:8b:fc:17:b6:c4:cb:c6:18:1b:6c:2a:15:80:6f:ef:
         f1:10:3e:78:a3:cf:a0:90:89:fb:da:69:6a:af:4f:34:71:1e:
         a1:05:bc:15:09:4c:79:91:8c:fd:ee:4d:8c:5d:f5:25:50:7d:
         ae:b8:3d:97:dd:f6:d7:17:54:af:a8:94:61:23:d6:cf:2c:08:
         bd:37:8f:e6:c1:c7:74:28:62:4b:e5:47:97:3d:e7:d4:91:1e:
         43:c0:a3:8d:33:d9:ff:f4:b8:b3:6a:bc:d0:7e:3a:4d:d4:74:
         09:9c:4a:ff
-----BEGIN CERTIFICATE-----
MIIDdzCCAl+gAwIBAgIQVjvoSuWrkuSw3jzpqULnLjANBgkqhkiG9w0BAQsFADAW
MRQwEgYDVQQDDAt0ZWFtNzI0LW5ldDAeFw0yMTA5MTMwNDU5NThaFw0yNDA4Mjgw
NDU5NThaMBkxFzAVBgNVBAMMDnRlYW03MjQtc2VydmVyMIIBIjANBgkqhkiG9w0B
AQEFAAOCAQ8AMIIBCgKCAQEAwKJFZCt9Ujew65L/tWVPDmlW4RcPo5XjwtOFROeD
zU/BFTqwvNdFFQdQmAzoYu+sAkN/rt1UwC5IifMfR6DJGT5De68NsyOmv3Z6homu
3VVQUsp37FuthNA38ILpw6Z506Mdqjy0qn+xX+lNeVblRm0O4PX4hy/xr9oP/HYC
tKnMYKO/y3YIsN4Q5yTDf/v/j+H5beXv/kr6EJzKOjPgUlQETMH9UAMeAAD6Wsao
OtMnyjvOwA2U+aEdYYY0AXeq99XCA5nHIU3aaceW+qVEyONZ5heliQwKbj4z0zoa
n8I9aHLbob7hn3JaWp2Zwe/l8O2UgBF0TuPB7ECD68GhfQIDAQABo4G9MIG6MAkG
A1UdEwQCMAAwHQYDVR0OBBYEFDu7VqvYCKx7Pb8yO17wQUNjX8v8MFEGA1UdIwRK
MEiAFMDefhzXCzMqjHxipqve830xeS8MoRqkGDAWMRQwEgYDVQQDDAt0ZWFtNzI0
LW5ldIIUD0Z47CvVOhp2FDI4LyOAI1VHEW8wEwYDVR0lBAwwCgYIKwYBBQUHAwEw
CwYDVR0PBAQDAgWgMBkGA1UdEQQSMBCCDnRlYW03MjQtc2VydmVyMA0GCSqGSIb3
DQEBCwUAA4IBAQAxU+jf0TbnnI1nTJLOZUQvTMRJbgPNmAWIi6JsBP8Y92Lxi6/c
OzbEpx3Z0kE6hnt5XQn75IJ08udF0ZqSm+7lY9l9zmniMf8y2ByzqtmbiyhFh4dr
Aup6d+tY73hXBBziSuQ2Lcd1Kxw793XUsICKmn6SamJOBVgahHFkZplviyhr6rua
xIR3WsN06Da5xywOVIeL/Be2xMvGGBtsKhWAb+/xED54o8+gkIn72mlqr080cR6h
BbwVCUx5kYz97k2MXfUlUH2uuD2X3fbXF1SvqJRhI9bPLAi9N4/mwcd0KGJL5UeX
PefUkR5DwKONM9n/9LizarzQfjpN1HQJnEr/
-----END CERTIFICATE-----
