Certificate:
    Data:
        Version: 3 (0x2)
        Serial Number:
            eb:37:5a:e7:12:49:d8:67:29:92:c8:f4:81:94:15:a5
        Signature Algorithm: sha256WithRSAEncryption
        Issuer: CN=team570-net
        Validity
            Not Before: Sep 13 03:40:18 2021 GMT
            Not After : Aug 28 03:40:18 2024 GMT
        Subject: CN=team570-client
        Subject Public Key Info:
            Public Key Algorithm: rsaEncryption
                RSA Public-Key: (2048 bit)
                Modulus:
                    00:b6:08:15:b8:0c:fb:e5:fb:c9:56:bc:c3:06:50:
                    e4:15:d7:d7:8a:c9:dd:84:2c:05:88:2d:e1:ba:b5:
                    a9:7c:be:79:1c:bd:a9:85:2e:44:f1:24:7c:c8:9c:
                    bd:a5:bf:35:0c:ce:c7:35:b9:b6:96:0d:76:a8:6c:
                    9d:5c:b5:fa:fa:ff:9d:6f:5b:26:28:38:24:f4:58:
                    fd:e3:bd:af:5e:0e:5f:1a:ad:e0:af:b3:b6:ea:4c:
                    54:49:41:30:1c:1c:e6:cf:73:53:e8:ac:b6:a0:71:
                    18:44:94:a4:26:98:b5:26:75:a6:e0:c2:64:06:fe:
                    4d:7f:4b:c2:56:62:92:f2:50:ee:8d:ce:81:b1:48:
                    ed:77:6f:cc:07:d1:95:db:c8:69:4d:27:85:e2:60:
                    46:cc:6e:c9:5b:f9:5e:9c:22:b6:d1:51:06:49:81:
                    af:a8:93:91:a8:39:66:28:31:87:e3:f9:bc:f3:8b:
                    97:67:1a:b0:42:2d:06:c8:14:34:a2:18:a1:91:ea:
                    5a:4e:e1:22:2d:e8:86:c3:c0:05:0b:b9:52:fb:3b:
                    45:8f:87:78:1f:d8:6c:b1:3f:6a:3e:78:30:9e:34:
                    94:d6:cd:5f:50:87:34:a2:86:8b:c4:da:e3:fa:92:
                    42:59:d4:9e:66:17:d7:4c:8e:54:ea:de:94:60:e9:
                    9d:f3
                Exponent: 65537 (0x10001)
        X509v3 extensions:
            X509v3 Basic Constraints: 
                CA:FALSE
            X509v3 Subject Key Identifier: 
                6D:68:B3:7E:57:26:25:1C:20:DC:DA:6E:AF:B2:69:32:04:2B:63:CD
            X509v3 Authority Key Identifier: 
                keyid:75:8C:F6:DA:62:DA:8D:88:0E:7C:6C:AF:4B:08:53:99:64:C7:5A:9D
                DirName:/CN=team570-net
                serial:78:81:BC:E0:89:7C:7A:92:B1:ED:80:36:04:DD:A5:66:39:85:79:6C

            X509v3 Extended Key Usage: 
                TLS Web Client Authentication
            X509v3 Key Usage: 
                Digital Signature
    Signature Algorithm: sha256WithRSAEncryption
         45:53:2b:40:61:f2:14:08:75:40:88:90:de:dd:e5:63:aa:88:
         12:b8:d3:cd:81:88:7a:14:4b:aa:bf:77:80:be:18:c3:79:8b:
         a4:c7:4a:f8:44:5e:f3:dd:71:17:71:38:62:e2:0f:24:64:b6:
         37:61:50:43:a9:08:cd:f3:03:d5:51:59:ac:33:22:d2:f7:81:
         1e:04:c9:da:c4:04:8c:67:4e:33:a5:90:e1:47:42:e3:cd:59:
         c0:eb:fe:d1:06:e5:77:28:de:36:0c:87:b0:27:36:56:6f:8c:
         26:e7:e3:1e:0b:29:33:a1:ef:d9:56:ce:08:58:c9:a7:75:6b:
         01:1f:7b:8a:60:7d:c8:8b:cb:52:24:5a:be:5d:6e:52:02:b8:
         e0:f8:e8:55:6d:fe:5b:9d:9e:f3:7a:f1:a7:bc:14:89:f8:74:
         6e:48:2c:b2:95:de:6f:6b:ea:a7:88:0b:e5:0f:50:a1:74:e9:
         9b:fb:33:71:c2:57:2e:2d:b1:67:46:a6:9e:33:f9:cf:f8:55:
         00:62:e0:6a:7e:fb:5f:8c:b4:8e:04:38:ca:68:ed:43:c2:84:
         7d:04:9c:a5:a1:40:ad:cf:83:b8:29:9e:4b:b0:c7:e5:fd:17:
         db:fd:30:73:87:85:e6:63:cd:71:d0:c6:35:91:eb:85:91:1a:
         a4:26:b2:60
-----BEGIN CERTIFICATE-----
MIIDXTCCAkWgAwIBAgIRAOs3WucSSdhnKZLI9IGUFaUwDQYJKoZIhvcNAQELBQAw
FjEUMBIGA1UEAwwLdGVhbTU3MC1uZXQwHhcNMjEwOTEzMDM0MDE4WhcNMjQwODI4
MDM0MDE4WjAZMRcwFQYDVQQDDA50ZWFtNTcwLWNsaWVudDCCASIwDQYJKoZIhvcN
AQEBBQADggEPADCCAQoCggEBALYIFbgM++X7yVa8wwZQ5BXX14rJ3YQsBYgt4bq1
qXy+eRy9qYUuRPEkfMicvaW/NQzOxzW5tpYNdqhsnVy1+vr/nW9bJig4JPRY/eO9
r14OXxqt4K+ztupMVElBMBwc5s9zU+istqBxGESUpCaYtSZ1puDCZAb+TX9LwlZi
kvJQ7o3OgbFI7XdvzAfRldvIaU0nheJgRsxuyVv5XpwittFRBkmBr6iTkag5Zigx
h+P5vPOLl2casEItBsgUNKIYoZHqWk7hIi3ohsPABQu5Uvs7RY+HeB/YbLE/aj54
MJ40lNbNX1CHNKKGi8Ta4/qSQlnUnmYX10yOVOrelGDpnfMCAwEAAaOBojCBnzAJ
BgNVHRMEAjAAMB0GA1UdDgQWBBRtaLN+VyYlHCDc2m6vsmkyBCtjzTBRBgNVHSME
SjBIgBR1jPbaYtqNiA58bK9LCFOZZMdanaEapBgwFjEUMBIGA1UEAwwLdGVhbTU3
MC1uZXSCFHiBvOCJfHqSse2ANgTdpWY5hXlsMBMGA1UdJQQMMAoGCCsGAQUFBwMC
MAsGA1UdDwQEAwIHgDANBgkqhkiG9w0BAQsFAAOCAQEARVMrQGHyFAh1QIiQ3t3l
Y6qIErjTzYGIehRLqr93gL4Yw3mLpMdK+ERe891xF3E4YuIPJGS2N2FQQ6kIzfMD
1VFZrDMi0veBHgTJ2sQEjGdOM6WQ4UdC481ZwOv+0QbldyjeNgyHsCc2Vm+MJufj
HgspM6Hv2VbOCFjJp3VrAR97imB9yIvLUiRavl1uUgK44PjoVW3+W52e83rxp7wU
ifh0bkgsspXeb2vqp4gL5Q9QoXTpm/szccJXLi2xZ0amnjP5z/hVAGLgan77X4y0
jgQ4ymjtQ8KEfQScpaFArc+DuCmeS7DH5f0X2/0wc4eF5mPNcdDGNZHrhZEapCay
YA==
-----END CERTIFICATE-----
