Certificate:
    Data:
        Version: 3 (0x2)
        Serial Number:
            07:dd:5d:d0:b7:da:1f:17:b4:18:5a:71:37:97:c4:06
        Signature Algorithm: sha256WithRSAEncryption
        Issuer: CN=team570-net
        Validity
            Not Before: Sep 13 03:40:18 2021 GMT
            Not After : Aug 28 03:40:18 2024 GMT
        Subject: CN=team570-server
        Subject Public Key Info:
            Public Key Algorithm: rsaEncryption
                RSA Public-Key: (2048 bit)
                Modulus:
                    00:97:ed:d9:80:17:18:a8:33:de:e8:bb:60:22:24:
                    c4:8b:cd:43:7b:bd:56:c4:5d:8b:d0:64:f0:40:91:
                    b2:ed:33:81:15:06:70:e5:8f:8c:56:32:a2:de:79:
                    2c:40:7b:d6:c2:4a:9d:b8:d7:ed:99:db:9f:3b:ad:
                    99:08:86:16:20:c0:ae:d8:9a:d0:af:0b:4a:6d:2d:
                    b8:dc:90:bf:e3:a9:1b:3b:97:8a:87:20:99:15:f2:
                    fd:5c:7b:87:bc:93:21:c5:96:c8:5f:0c:21:ae:39:
                    db:ad:11:f1:bf:e7:55:9e:18:ba:59:bc:2c:cc:e8:
                    9f:65:ab:08:dd:74:cd:6b:b1:e7:56:ef:5d:cf:f0:
                    ee:2d:56:18:7d:3f:c2:ee:c1:04:74:6a:63:c6:38:
                    70:f7:e8:71:5a:05:62:c1:05:c2:9c:f6:08:c6:50:
                    95:5d:8e:17:aa:f4:8d:62:40:56:4c:e2:08:19:7a:
                    4d:d4:0a:b2:66:7c:94:44:83:f8:5d:32:e6:9d:86:
                    00:49:c3:3d:08:52:58:1a:87:b8:0f:95:04:f7:b3:
                    cc:32:a5:41:88:bc:18:06:f6:7c:51:8f:2c:42:0d:
                    8e:08:45:53:9e:ad:2d:a0:01:37:1c:2d:8b:43:26:
                    35:be:84:14:80:d8:05:09:77:bc:6a:1c:aa:8f:e4:
                    40:dd
                Exponent: 65537 (0x10001)
        X509v3 extensions:
            X509v3 Basic Constraints: 
                CA:FALSE
            X509v3 Subject Key Identifier: 
                53:70:03:B5:EB:30:9E:FC:D5:85:F5:6B:9B:9C:C8:3C:1C:1B:57:5E
            X509v3 Authority Key Identifier: 
                keyid:75:8C:F6:DA:62:DA:8D:88:0E:7C:6C:AF:4B:08:53:99:64:C7:5A:9D
                DirName:/CN=team570-net
                serial:78:81:BC:E0:89:7C:7A:92:B1:ED:80:36:04:DD:A5:66:39:85:79:6C

            X509v3 Extended Key Usage: 
                TLS Web Server Authentication
            X509v3 Key Usage: 
                Digital Signature, Key Encipherment
            X509v3 Subject Alternative Name: 
                DNS:team570-server
    Signature Algorithm: sha256WithRSAEncryption
         93:ae:60:74:c9:21:e0:66:8c:93:30:c0:b1:86:16:23:88:d3:
         28:e4:ff:8c:79:9b:d9:33:1b:b9:59:2a:45:7c:92:10:03:e1:
         38:af:c8:b2:99:c4:7b:2a:d4:7b:86:17:60:78:fe:2a:80:d9:
         93:22:19:ed:81:02:7c:43:6d:94:f2:37:c7:f6:75:26:c8:3c:
         4e:31:a8:2c:30:cb:88:72:71:53:b0:5e:9d:10:d8:b5:f8:14:
         f8:75:f6:8e:2a:68:c9:8a:a4:0e:7d:d7:a5:ff:aa:60:79:47:
         3d:90:f0:80:2a:4a:e8:9d:8e:af:5a:2d:26:c4:26:15:04:09:
         bd:9e:80:ee:64:51:1e:69:08:49:1e:04:72:a3:23:c3:b0:51:
         d2:ea:7e:3d:d5:3f:cc:1d:e7:dd:22:1e:21:4c:65:dc:85:cb:
         f7:e2:ec:6e:25:2f:87:b0:90:90:b0:db:60:0f:b3:d6:30:3c:
         11:72:c0:3e:73:ad:ac:03:a4:e4:00:cb:c1:b6:fb:a3:f1:3f:
         20:09:a3:4c:6c:1b:b7:16:36:be:c0:c1:f4:e3:42:27:e1:28:
         48:95:5c:56:c0:07:39:1f:39:dd:fb:b3:86:20:63:8f:d9:1f:
         b6:79:c8:7c:39:5e:b8:bc:cb:2a:ab:3d:56:81:14:ee:39:ae:
         1d:f6:33:e2
-----BEGIN CERTIFICATE-----
MIIDdzCCAl+gAwIBAgIQB91d0LfaHxe0GFpxN5fEBjANBgkqhkiG9w0BAQsFADAW
MRQwEgYDVQQDDAt0ZWFtNTcwLW5ldDAeFw0yMTA5MTMwMzQwMThaFw0yNDA4Mjgw
MzQwMThaMBkxFzAVBgNVBAMMDnRlYW01NzAtc2VydmVyMIIBIjANBgkqhkiG9w0B
AQEFAAOCAQ8AMIIBCgKCAQEAl+3ZgBcYqDPe6LtgIiTEi81De71WxF2L0GTwQJGy
7TOBFQZw5Y+MVjKi3nksQHvWwkqduNftmdufO62ZCIYWIMCu2JrQrwtKbS243JC/
46kbO5eKhyCZFfL9XHuHvJMhxZbIXwwhrjnbrRHxv+dVnhi6WbwszOifZasI3XTN
a7HnVu9dz/DuLVYYfT/C7sEEdGpjxjhw9+hxWgViwQXCnPYIxlCVXY4XqvSNYkBW
TOIIGXpN1AqyZnyURIP4XTLmnYYAScM9CFJYGoe4D5UE97PMMqVBiLwYBvZ8UY8s
Qg2OCEVTnq0toAE3HC2LQyY1voQUgNgFCXe8ahyqj+RA3QIDAQABo4G9MIG6MAkG
A1UdEwQCMAAwHQYDVR0OBBYEFFNwA7XrMJ781YX1a5ucyDwcG1deMFEGA1UdIwRK
MEiAFHWM9tpi2o2IDnxsr0sIU5lkx1qdoRqkGDAWMRQwEgYDVQQDDAt0ZWFtNTcw
LW5ldIIUeIG84Il8epKx7YA2BN2lZjmFeWwwEwYDVR0lBAwwCgYIKwYBBQUHAwEw
CwYDVR0PBAQDAgWgMBkGA1UdEQQSMBCCDnRlYW01NzAtc2VydmVyMA0GCSqGSIb3
DQEBCwUAA4IBAQCTrmB0ySHgZoyTMMCxhhYjiNMo5P+MeZvZMxu5WSpFfJIQA+E4
r8iymcR7KtR7hhdgeP4qgNmTIhntgQJ8Q22U8jfH9nUmyDxOMagsMMuIcnFTsF6d
ENi1+BT4dfaOKmjJiqQOfdel/6pgeUc9kPCAKkronY6vWi0mxCYVBAm9noDuZFEe
aQhJHgRyoyPDsFHS6n491T/MHefdIh4hTGXchcv34uxuJS+HsJCQsNtgD7PWMDwR
csA+c62sA6TkAMvBtvuj8T8gCaNMbBu3Fja+wMH040In4ShIlVxWwAc5Hznd+7OG
IGOP2R+2ech8OV64vMsqqz1WgRTuOa4d9jPi
-----END CERTIFICATE-----
