Certificate:
    Data:
        Version: 3 (0x2)
        Serial Number:
            a4:8a:51:2e:47:d3:02:7e:b8:7d:ac:76:99:2f:e0:53
        Signature Algorithm: sha256WithRSAEncryption
        Issuer: CN=team407-net
        Validity
            Not Before: Sep 13 02:22:14 2021 GMT
            Not After : Aug 28 02:22:14 2024 GMT
        Subject: CN=team407-server
        Subject Public Key Info:
            Public Key Algorithm: rsaEncryption
                RSA Public-Key: (2048 bit)
                Modulus:
                    00:9c:76:da:6d:30:21:5d:cf:cb:4b:84:80:52:1f:
                    bd:3f:e3:01:71:bc:9c:ab:95:b6:60:04:e7:22:20:
                    65:32:46:2d:f1:bd:c2:a7:78:67:f3:63:a9:14:7e:
                    73:16:e3:81:7d:b4:35:1d:84:59:d7:9e:89:7f:ac:
                    03:31:67:c5:a1:fc:21:d0:f2:46:0a:de:58:d7:1c:
                    b6:a3:ed:6d:f7:d0:d3:59:85:93:d9:49:49:15:fc:
                    1f:2e:38:0a:a5:b2:78:22:55:25:7a:9a:be:9e:bc:
                    80:7e:59:23:b2:f4:0c:fe:39:e9:b9:8e:f3:b4:93:
                    d5:83:8c:f1:32:ae:8e:fb:d1:23:4c:14:bd:25:53:
                    7b:3c:f0:4f:74:93:7e:08:36:24:96:f6:dc:fc:2b:
                    07:61:cd:97:45:fd:d8:75:93:3e:8d:68:34:54:32:
                    17:b9:e1:27:37:a0:b5:ac:da:e5:e7:06:75:85:28:
                    6e:8a:1f:5d:9f:e5:08:b9:f1:69:19:63:f6:64:2a:
                    0a:32:3c:17:86:33:ea:15:07:22:48:4b:dd:ee:12:
                    00:74:a4:75:cc:45:de:04:1e:09:1a:35:3d:e2:06:
                    1f:70:a6:34:80:0f:a8:b8:60:84:56:50:13:38:a9:
                    58:00:c2:85:1a:6d:67:84:c5:3e:59:1c:66:8a:04:
                    5a:41
                Exponent: 65537 (0x10001)
        X509v3 extensions:
            X509v3 Basic Constraints: 
                CA:FALSE
            X509v3 Subject Key Identifier: 
                4C:38:C9:DC:E4:86:5E:09:16:BC:CB:2B:28:A0:FB:58:41:40:86:5E
            X509v3 Authority Key Identifier: 
                keyid:21:4D:A1:78:AF:B4:26:A8:82:CC:89:1D:ED:52:8C:3D:70:C7:5C:32
                DirName:/CN=team407-net
                serial:3B:58:1E:F2:6C:F3:04:44:32:3D:C6:79:15:7D:B8:34:02:83:65:E2

            X509v3 Extended Key Usage: 
                TLS Web Server Authentication
            X509v3 Key Usage: 
                Digital Signature, Key Encipherment
            X509v3 Subject Alternative Name: 
                DNS:team407-server
    Signature Algorithm: sha256WithRSAEncryption
         7e:9b:6e:54:ab:35:b1:35:24:48:cf:4a:df:33:67:d8:51:36:
         28:ac:1e:2b:02:28:00:39:3b:64:17:a7:7e:1c:86:4a:92:38:
         6d:25:10:c5:94:d8:b5:f7:28:92:0a:4b:a8:3f:fc:f4:ba:91:
         cc:b9:b0:4b:07:b1:21:73:2c:84:88:68:01:81:51:5f:f1:25:
         5e:8f:cd:ba:2f:08:64:25:b3:44:50:5a:6f:7a:54:ec:84:1c:
         d9:c1:3e:96:96:84:71:c4:6c:7f:10:6b:48:d5:44:78:31:6b:
         11:ac:5a:3f:11:e5:ba:41:f0:4e:1a:98:73:1d:d1:62:13:3a:
         77:23:f5:0a:fa:42:a8:12:65:c9:50:95:e0:ee:b3:7b:60:26:
         ee:b5:0a:18:c6:b7:47:cd:f2:ad:8c:29:d4:44:16:96:ae:d9:
         0f:d3:c5:9a:d1:37:3f:0d:53:7a:c3:5d:b5:a6:9a:57:a5:19:
         d8:ff:b4:f3:37:bf:c4:47:fd:9d:07:f1:f4:dd:a1:52:5c:2c:
         c7:41:0a:07:d9:2b:55:95:d1:46:21:8b:69:1a:50:f5:93:b6:
         2f:31:1b:7f:59:25:2b:15:7d:09:9e:17:77:9f:b3:dc:1c:7f:
         de:0b:03:fb:15:69:7e:09:f0:a6:44:eb:fb:f9:9b:2b:c6:41:
         0e:ee:b0:e2
-----BEGIN CERTIFICATE-----
MIIDeDCCAmCgAwIBAgIRAKSKUS5H0wJ+uH2sdpkv4FMwDQYJKoZIhvcNAQELBQAw
FjEUMBIGA1UEAwwLdGVhbTQwNy1uZXQwHhcNMjEwOTEzMDIyMjE0WhcNMjQwODI4
MDIyMjE0WjAZMRcwFQYDVQQDDA50ZWFtNDA3LXNlcnZlcjCCASIwDQYJKoZIhvcN
AQEBBQADggEPADCCAQoCggEBAJx22m0wIV3Py0uEgFIfvT/jAXG8nKuVtmAE5yIg
ZTJGLfG9wqd4Z/NjqRR+cxbjgX20NR2EWdeeiX+sAzFnxaH8IdDyRgreWNcctqPt
bffQ01mFk9lJSRX8Hy44CqWyeCJVJXqavp68gH5ZI7L0DP456bmO87ST1YOM8TKu
jvvRI0wUvSVTezzwT3STfgg2JJb23PwrB2HNl0X92HWTPo1oNFQyF7nhJzegtaza
5ecGdYUoboofXZ/lCLnxaRlj9mQqCjI8F4Yz6hUHIkhL3e4SAHSkdcxF3gQeCRo1
PeIGH3CmNIAPqLhghFZQEzipWADChRptZ4TFPlkcZooEWkECAwEAAaOBvTCBujAJ
BgNVHRMEAjAAMB0GA1UdDgQWBBRMOMnc5IZeCRa8yysooPtYQUCGXjBRBgNVHSME
SjBIgBQhTaF4r7QmqILMiR3tUow9cMdcMqEapBgwFjEUMBIGA1UEAwwLdGVhbTQw
Ny1uZXSCFDtYHvJs8wREMj3GeRV9uDQCg2XiMBMGA1UdJQQMMAoGCCsGAQUFBwMB
MAsGA1UdDwQEAwIFoDAZBgNVHREEEjAQgg50ZWFtNDA3LXNlcnZlcjANBgkqhkiG
9w0BAQsFAAOCAQEAfptuVKs1sTUkSM9K3zNn2FE2KKweKwIoADk7ZBenfhyGSpI4
bSUQxZTYtfcokgpLqD/89LqRzLmwSwexIXMshIhoAYFRX/ElXo/Nui8IZCWzRFBa
b3pU7IQc2cE+lpaEccRsfxBrSNVEeDFrEaxaPxHlukHwThqYcx3RYhM6dyP1CvpC
qBJlyVCV4O6ze2Am7rUKGMa3R83yrYwp1EQWlq7ZD9PFmtE3Pw1TesNdtaaaV6UZ
2P+08ze/xEf9nQfx9N2hUlwsx0EKB9krVZXRRiGLaRpQ9ZO2LzEbf1klKxV9CZ4X
d5+z3Bx/3gsD+xVpfgnwpkTr+/mbK8ZBDu6w4g==
-----END CERTIFICATE-----
