Certificate:
    Data:
        Version: 3 (0x2)
        Serial Number:
            2a:28:07:0c:bf:01:46:cd:28:0a:f7:2f:d2:56:1e:d8
        Signature Algorithm: sha256WithRSAEncryption
        Issuer: CN=team284-net
        Validity
            Not Before: Sep 13 01:20:49 2021 GMT
            Not After : Aug 28 01:20:49 2024 GMT
        Subject: CN=team284-client
        Subject Public Key Info:
            Public Key Algorithm: rsaEncryption
                RSA Public-Key: (2048 bit)
                Modulus:
                    00:df:9f:42:4b:09:8a:41:91:4f:d5:38:49:86:8a:
                    fa:21:14:3f:03:2c:34:49:a2:2c:3c:4a:1e:48:0a:
                    2d:0d:6d:5b:2d:8e:4e:65:1f:bf:e5:2e:5e:97:cc:
                    24:6f:4a:89:28:3e:f1:e2:38:1e:99:a4:c9:68:cd:
                    10:12:9d:0f:91:51:1e:b6:40:7a:82:fc:68:53:e4:
                    73:bd:d0:3c:55:e4:e3:fc:7e:c1:c3:a9:10:cc:a1:
                    e1:3a:97:30:f0:b3:b8:77:26:07:49:11:35:07:9a:
                    9e:c8:ba:49:7a:7e:a3:21:45:9d:56:a6:c7:da:05:
                    46:58:b8:da:90:11:ca:a8:f5:c9:27:3f:a4:51:3b:
                    6f:c3:64:72:29:cd:93:c5:29:45:5f:b8:1c:c1:f5:
                    ff:79:35:c0:26:00:70:76:f1:8b:df:e2:dc:95:06:
                    19:ed:6d:4d:93:43:f6:b1:67:af:4b:78:ed:49:bd:
                    86:e9:cc:93:5d:1e:88:80:28:52:be:c8:04:f0:bd:
                    86:52:a3:74:db:f6:2c:0b:2f:da:3f:28:61:9c:3b:
                    52:b8:ba:d1:80:45:78:42:6a:a5:d3:9a:44:80:3e:
                    3a:06:f1:c6:5f:43:d7:b1:f4:5b:03:07:2d:55:c4:
                    22:0b:87:2d:fd:bd:a9:66:85:c4:dc:8f:fb:c7:94:
                    ca:9d
                Exponent: 65537 (0x10001)
        X509v3 extensions:
            X509v3 Basic Constraints: 
                CA:FALSE
            X509v3 Subject Key Identifier: 
                F2:4C:E3:7D:8C:88:4E:6C:78:23:F0:49:BA:79:59:90:F2:24:55:65
            X509v3 Authority Key Identifier: 
                keyid:B5:3D:A4:52:41:D2:D8:4F:E6:B5:72:9D:82:21:E3:B0:8F:31:0F:BD
                DirName:/CN=team284-net
                serial:11:D8:C9:AE:37:E1:B3:75:F4:88:E8:F3:58:92:4D:15:41:E4:15:47

            X509v3 Extended Key Usage: 
                TLS Web Client Authentication
            X509v3 Key Usage: 
                Digital Signature
    Signature Algorithm: sha256WithRSAEncryption
         63:ca:8d:6c:b1:4a:bb:e6:51:a7:e5:29:53:fe:4f:f3:b8:fb:
         fc:87:c8:3c:36:28:96:8d:95:68:70:53:b4:bc:f6:87:d5:7f:
         21:ef:2e:2b:7e:7b:33:ae:e2:a8:85:38:bc:c6:81:53:65:e9:
         38:a5:33:c0:87:55:30:83:e3:ee:0c:06:a3:62:3d:d9:54:22:
         f7:e2:fc:fb:dc:c0:ec:5a:99:63:63:eb:ad:cb:ed:47:82:66:
         f0:4c:99:c8:28:4a:e7:43:6b:63:a5:95:24:b3:1b:b9:2c:19:
         f5:d3:4c:20:e7:0f:fe:99:5a:4f:8e:2b:4c:7c:10:2a:d5:c6:
         2c:ac:47:0d:4e:f5:73:82:0e:c4:14:85:bd:17:ea:af:40:9e:
         a4:bf:a3:10:69:a6:5a:e9:c2:08:ab:d2:3e:84:84:ae:2e:e5:
         6c:69:65:19:3a:3c:d8:7a:38:ea:8a:27:cd:aa:e5:9c:ef:5a:
         15:4a:84:3c:78:86:e0:2f:83:d8:97:d8:d6:e5:11:77:c8:c1:
         3d:79:95:01:e2:ea:70:c3:48:3d:64:9a:7b:d7:47:ae:43:7a:
         39:e9:e5:b2:40:19:78:f9:7c:3c:b7:0a:bd:b0:57:94:4c:3f:
         3b:46:c2:e5:01:42:62:0c:10:42:77:f4:ff:8a:da:ff:7f:f5:
         58:5a:18:e3
-----BEGIN CERTIFICATE-----
MIIDXDCCAkSgAwIBAgIQKigHDL8BRs0oCvcv0lYe2DANBgkqhkiG9w0BAQsFADAW
MRQwEgYDVQQDDAt0ZWFtMjg0LW5ldDAeFw0yMTA5MTMwMTIwNDlaFw0yNDA4Mjgw
MTIwNDlaMBkxFzAVBgNVBAMMDnRlYW0yODQtY2xpZW50MIIBIjANBgkqhkiG9w0B
AQEFAAOCAQ8AMIIBCgKCAQEA359CSwmKQZFP1ThJhor6IRQ/Ayw0SaIsPEoeSAot
DW1bLY5OZR+/5S5el8wkb0qJKD7x4jgemaTJaM0QEp0PkVEetkB6gvxoU+RzvdA8
VeTj/H7Bw6kQzKHhOpcw8LO4dyYHSRE1B5qeyLpJen6jIUWdVqbH2gVGWLjakBHK
qPXJJz+kUTtvw2RyKc2TxSlFX7gcwfX/eTXAJgBwdvGL3+LclQYZ7W1Nk0P2sWev
S3jtSb2G6cyTXR6IgChSvsgE8L2GUqN02/YsCy/aPyhhnDtSuLrRgEV4Qmql05pE
gD46BvHGX0PXsfRbAwctVcQiC4ct/b2pZoXE3I/7x5TKnQIDAQABo4GiMIGfMAkG
A1UdEwQCMAAwHQYDVR0OBBYEFPJM432MiE5seCPwSbp5WZDyJFVlMFEGA1UdIwRK
MEiAFLU9pFJB0thP5rVynYIh47CPMQ+9oRqkGDAWMRQwEgYDVQQDDAt0ZWFtMjg0
LW5ldIIUEdjJrjfhs3X0iOjzWJJNFUHkFUcwEwYDVR0lBAwwCgYIKwYBBQUHAwIw
CwYDVR0PBAQDAgeAMA0GCSqGSIb3DQEBCwUAA4IBAQBjyo1ssUq75lGn5SlT/k/z
uPv8h8g8NiiWjZVocFO0vPaH1X8h7y4rfnszruKohTi8xoFTZek4pTPAh1Uwg+Pu
DAajYj3ZVCL34vz73MDsWpljY+uty+1HgmbwTJnIKErnQ2tjpZUksxu5LBn100wg
5w/+mVpPjitMfBAq1cYsrEcNTvVzgg7EFIW9F+qvQJ6kv6MQaaZa6cIIq9I+hISu
LuVsaWUZOjzYejjqiifNquWc71oVSoQ8eIbgL4PYl9jW5RF3yME9eZUB4upww0g9
ZJp710euQ3o56eWyQBl4+Xw8twq9sFeUTD87RsLlAUJiDBBCd/T/itr/f/VYWhjj
-----END CERTIFICATE-----
