Certificate:
    Data:
        Version: 3 (0x2)
        Serial Number:
            81:73:98:df:e5:fd:c7:d9:6e:ac:ed:36:41:fe:59:d9
        Signature Algorithm: sha256WithRSAEncryption
        Issuer: CN=team621-net
        Validity
            Not Before: Sep 13 04:34:41 2021 GMT
            Not After : Aug 28 04:34:41 2024 GMT
        Subject: CN=team621-server
        Subject Public Key Info:
            Public Key Algorithm: rsaEncryption
                RSA Public-Key: (2048 bit)
                Modulus:
                    00:c7:67:b7:2a:51:84:8f:a7:cc:06:07:a4:2d:e3:
                    c2:02:ed:03:b9:87:0e:e1:2b:39:1f:14:47:17:1c:
                    70:c5:f7:d0:26:b4:b2:b8:cf:fc:fa:29:bd:e1:cb:
                    ae:8e:0c:2d:01:22:22:57:47:08:d2:b4:6f:69:ed:
                    11:bc:8d:9d:f4:f7:74:2f:97:3b:2f:62:d3:2c:cb:
                    91:4f:8b:e4:c2:2c:74:b5:7c:d8:69:11:09:eb:60:
                    7a:17:f5:5f:4d:18:f9:e9:3e:92:2e:91:a7:20:27:
                    cd:af:af:94:06:99:fa:c6:87:4b:17:4b:c5:59:0c:
                    1a:77:3b:9a:d8:75:70:68:a2:33:92:db:13:7f:b0:
                    69:c2:55:6f:0d:1d:45:ba:44:28:a8:63:fb:60:a9:
                    7c:84:6d:74:08:13:11:d9:28:33:8c:fb:70:1a:fb:
                    de:78:a2:6c:f7:60:af:f6:0c:e1:d8:d9:d9:b4:b5:
                    55:cd:4c:bd:a0:f6:40:df:44:a9:bd:c0:d6:03:a8:
                    cf:42:6b:53:07:69:45:e7:84:3a:92:48:fe:ca:9a:
                    f9:35:7c:38:08:7f:05:0d:f0:77:53:ba:95:9e:88:
                    73:f7:d3:0b:33:90:7c:ad:49:e9:a6:42:72:d9:b5:
                    94:87:5a:30:7e:c6:a6:10:ba:b8:2f:61:d8:48:a0:
                    3c:6d
                Exponent: 65537 (0x10001)
        X509v3 extensions:
            X509v3 Basic Constraints: 
                CA:FALSE
            X509v3 Subject Key Identifier: 
                AA:3C:EE:B1:B1:4B:54:38:F1:D3:44:47:5A:2B:4C:74:EC:FB:3A:9F
            X509v3 Authority Key Identifier: 
                keyid:86:AF:04:D3:1D:47:98:9D:2A:E5:98:C0:C9:71:BA:F9:A5:B9:2B:95
                DirName:/CN=team621-net
                serial:6F:FF:8B:59:BD:80:D2:1F:83:6B:BD:E5:9C:99:FA:9E:61:DE:F4:6E

            X509v3 Extended Key Usage: 
                TLS Web Server Authentication
            X509v3 Key Usage: 
                Digital Signature, Key Encipherment
            X509v3 Subject Alternative Name: 
                DNS:team621-server
    Signature Algorithm: sha256WithRSAEncryption
         ab:aa:21:f6:bb:ee:e9:59:07:90:e1:dc:6a:e6:d9:21:33:c1:
         49:88:0d:80:84:0e:e1:85:a5:57:74:36:1d:c8:eb:6f:c5:e8:
         2d:a4:f4:fe:41:33:6d:9f:dc:b6:c5:c3:6b:8f:70:c7:8e:0b:
         4b:97:c6:2c:be:40:b5:ab:04:c5:72:74:aa:ef:27:4a:f3:eb:
         97:50:3c:07:fe:0f:f9:05:8f:d4:25:ab:38:9e:58:2c:bd:14:
         1d:21:33:43:2c:8e:3a:51:2d:81:bc:49:73:b1:ba:44:4a:5e:
         a5:bc:60:1a:82:d5:ad:a1:7d:e1:32:ce:af:49:fa:75:bf:71:
         f5:91:f1:bd:e7:2d:ce:3e:b1:af:fe:67:8e:77:8d:a1:0c:9e:
         72:98:cc:ce:00:22:7c:de:fe:0f:d5:fe:11:4c:1c:a1:06:64:
         3d:78:c5:6d:75:ea:f8:9a:93:93:89:cd:c6:0c:82:f6:6a:bc:
         54:20:fc:53:92:68:08:ff:ac:69:95:2a:64:0a:43:6d:44:2f:
         39:68:45:53:a7:29:5f:12:05:54:7f:19:94:5f:9e:2e:e1:7e:
         89:e5:2d:ca:ad:62:a2:01:51:24:06:65:ab:c3:b7:07:af:30:
         9b:d2:43:86:0a:8e:9d:16:04:7e:70:c7:2f:1c:71:02:64:8c:
         59:1c:31:49
-----BEGIN CERTIFICATE-----
MIIDeDCCAmCgAwIBAgIRAIFzmN/l/cfZbqztNkH+WdkwDQYJKoZIhvcNAQELBQAw
FjEUMBIGA1UEAwwLdGVhbTYyMS1uZXQwHhcNMjEwOTEzMDQzNDQxWhcNMjQwODI4
MDQzNDQxWjAZMRcwFQYDVQQDDA50ZWFtNjIxLXNlcnZlcjCCASIwDQYJKoZIhvcN
AQEBBQADggEPADCCAQoCggEBAMdntypRhI+nzAYHpC3jwgLtA7mHDuErOR8URxcc
cMX30Ca0srjP/PopveHLro4MLQEiIldHCNK0b2ntEbyNnfT3dC+XOy9i0yzLkU+L
5MIsdLV82GkRCetgehf1X00Y+ek+ki6RpyAnza+vlAaZ+saHSxdLxVkMGnc7mth1
cGiiM5LbE3+wacJVbw0dRbpEKKhj+2CpfIRtdAgTEdkoM4z7cBr73niibPdgr/YM
4djZ2bS1Vc1MvaD2QN9Eqb3A1gOoz0JrUwdpReeEOpJI/sqa+TV8OAh/BQ3wd1O6
lZ6Ic/fTCzOQfK1J6aZCctm1lIdaMH7GphC6uC9h2EigPG0CAwEAAaOBvTCBujAJ
BgNVHRMEAjAAMB0GA1UdDgQWBBSqPO6xsUtUOPHTREdaK0x07Ps6nzBRBgNVHSME
SjBIgBSGrwTTHUeYnSrlmMDJcbr5pbkrlaEapBgwFjEUMBIGA1UEAwwLdGVhbTYy
MS1uZXSCFG//i1m9gNIfg2u95ZyZ+p5h3vRuMBMGA1UdJQQMMAoGCCsGAQUFBwMB
MAsGA1UdDwQEAwIFoDAZBgNVHREEEjAQgg50ZWFtNjIxLXNlcnZlcjANBgkqhkiG
9w0BAQsFAAOCAQEAq6oh9rvu6VkHkOHcaubZITPBSYgNgIQO4YWlV3Q2Hcjrb8Xo
LaT0/kEzbZ/ctsXDa49wx44LS5fGLL5AtasExXJ0qu8nSvPrl1A8B/4P+QWP1CWr
OJ5YLL0UHSEzQyyOOlEtgbxJc7G6REpepbxgGoLVraF94TLOr0n6db9x9ZHxvect
zj6xr/5njneNoQyecpjMzgAifN7+D9X+EUwcoQZkPXjFbXXq+JqTk4nNxgyC9mq8
VCD8U5JoCP+saZUqZApDbUQvOWhFU6cpXxIFVH8ZlF+eLuF+ieUtyq1iogFRJAZl
q8O3B68wm9JDhgqOnRYEfnDHLxxxAmSMWRwxSQ==
-----END CERTIFICATE-----
