Certificate:
    Data:
        Version: 3 (0x2)
        Serial Number:
            4e:de:1e:9b:5e:8e:91:0a:da:56:94:87:a2:50:b4:e9
        Signature Algorithm: sha256WithRSAEncryption
        Issuer: CN=team298-net
        Validity
            Not Before: Sep 13 01:26:34 2021 GMT
            Not After : Aug 28 01:26:34 2024 GMT
        Subject: CN=team298-server
        Subject Public Key Info:
            Public Key Algorithm: rsaEncryption
                RSA Public-Key: (2048 bit)
                Modulus:
                    00:ae:8c:39:62:5c:b8:3f:02:bb:ae:c6:9e:d9:00:
                    ba:a4:18:ad:f4:0a:fe:59:f6:cb:b3:1e:4c:96:87:
                    5b:00:fa:e6:88:fb:12:bb:b6:1e:8c:87:f3:60:27:
                    e6:b6:ed:7a:fe:4a:44:cb:ed:b1:59:59:e4:08:7e:
                    c9:0d:7e:35:ea:ae:ba:dc:51:cc:6e:36:00:47:0a:
                    7a:b3:8f:7a:69:3e:8c:0f:3b:da:89:89:79:67:db:
                    0b:08:1a:36:fe:94:6b:d3:30:01:b6:36:98:55:16:
                    fa:38:05:4e:d7:fe:1a:c0:9e:33:6c:c2:94:a5:b7:
                    51:c2:83:27:e0:ee:5b:67:89:77:cc:58:1f:86:c3:
                    65:d9:94:92:a0:7c:06:2e:e0:c1:c3:46:e9:22:a5:
                    68:b0:22:55:3f:6c:32:df:2a:6a:20:d7:d9:f4:f3:
                    e0:0f:82:2b:e6:e9:e7:ec:4a:86:18:52:ae:ec:80:
                    9f:df:b1:03:c0:25:1e:04:50:b4:4f:ba:a7:01:e0:
                    7c:a5:7d:78:53:b0:a7:b8:6f:0e:d0:97:b0:67:70:
                    6f:68:73:55:32:d8:36:0e:36:7e:3b:6a:9d:4f:64:
                    b2:4c:26:d5:3d:81:e8:50:b5:57:dd:4c:c6:a8:d3:
                    47:e4:70:0d:fb:f5:8b:ef:5c:21:57:f7:f8:d6:4d:
                    18:ab
                Exponent: 65537 (0x10001)
        X509v3 extensions:
            X509v3 Basic Constraints: 
                CA:FALSE
            X509v3 Subject Key Identifier: 
                5B:3B:94:1A:F3:7D:56:E0:4D:73:6C:02:72:4F:B4:2E:F1:8B:0A:FB
            X509v3 Authority Key Identifier: 
                keyid:5A:D5:DB:E1:29:D2:5E:BA:90:7C:B3:10:DB:45:53:72:D2:86:B2:0A
                DirName:/CN=team298-net
                serial:2B:86:9F:CD:FF:67:39:2C:D2:F6:5E:6B:11:6D:21:47:4F:13:BD:6C

            X509v3 Extended Key Usage: 
                TLS Web Server Authentication
            X509v3 Key Usage: 
                Digital Signature, Key Encipherment
            X509v3 Subject Alternative Name: 
                DNS:team298-server
    Signature Algorithm: sha256WithRSAEncryption
         c4:60:83:50:a2:94:db:3f:e3:bb:82:b6:55:28:5c:4f:dc:99:
         47:36:3d:74:24:8d:c9:b4:d5:cd:ba:69:16:3a:20:1f:8c:d7:
         97:1a:cc:73:52:7d:d2:fd:68:0a:6e:fd:c8:ce:6f:85:18:72:
         0e:3d:f9:83:dc:04:f5:07:75:32:f2:4b:77:13:bd:6c:73:ff:
         0a:fc:66:10:99:9b:79:1d:14:da:ce:03:b6:d9:ec:b6:a4:fd:
         78:2b:41:a9:a1:5f:57:bd:82:f6:9b:22:9f:1f:02:e0:4e:d6:
         b8:0f:0d:b3:72:e7:b1:97:5e:58:c3:ad:af:4e:e5:9c:62:45:
         67:8d:b4:54:9f:41:a3:d9:3d:38:aa:89:6f:8d:e7:e1:30:dc:
         33:f9:02:e0:30:ae:97:8b:58:24:d0:69:e1:75:01:72:22:63:
         f3:85:db:17:b4:68:01:06:71:fa:c2:6f:82:1c:d6:88:a1:1f:
         25:45:e1:37:a1:d4:01:13:40:f5:9a:69:d7:82:f0:5f:60:3f:
         00:a5:d2:8f:dd:b9:7d:b6:0a:cb:78:0b:d9:2e:79:aa:b2:45:
         9d:d8:89:70:5c:8c:11:55:e9:d6:28:f2:4c:14:5c:36:32:26:
         6d:7a:6c:e6:da:c8:39:c2:89:fe:3f:4c:aa:a2:b1:84:aa:56:
         ec:09:2d:c7
-----BEGIN CERTIFICATE-----
MIIDdzCCAl+gAwIBAgIQTt4em16OkQraVpSHolC06TANBgkqhkiG9w0BAQsFADAW
MRQwEgYDVQQDDAt0ZWFtMjk4LW5ldDAeFw0yMTA5MTMwMTI2MzRaFw0yNDA4Mjgw
MTI2MzRaMBkxFzAVBgNVBAMMDnRlYW0yOTgtc2VydmVyMIIBIjANBgkqhkiG9w0B
AQEFAAOCAQ8AMIIBCgKCAQEArow5Yly4PwK7rsae2QC6pBit9Ar+WfbLsx5Mlodb
APrmiPsSu7YejIfzYCfmtu16/kpEy+2xWVnkCH7JDX416q663FHMbjYARwp6s496
aT6MDzvaiYl5Z9sLCBo2/pRr0zABtjaYVRb6OAVO1/4awJ4zbMKUpbdRwoMn4O5b
Z4l3zFgfhsNl2ZSSoHwGLuDBw0bpIqVosCJVP2wy3ypqINfZ9PPgD4Ir5unn7EqG
GFKu7ICf37EDwCUeBFC0T7qnAeB8pX14U7CnuG8O0JewZ3BvaHNVMtg2DjZ+O2qd
T2SyTCbVPYHoULVX3UzGqNNH5HAN+/WL71whV/f41k0YqwIDAQABo4G9MIG6MAkG
A1UdEwQCMAAwHQYDVR0OBBYEFFs7lBrzfVbgTXNsAnJPtC7xiwr7MFEGA1UdIwRK
MEiAFFrV2+Ep0l66kHyzENtFU3LShrIKoRqkGDAWMRQwEgYDVQQDDAt0ZWFtMjk4
LW5ldIIUK4afzf9nOSzS9l5rEW0hR08TvWwwEwYDVR0lBAwwCgYIKwYBBQUHAwEw
CwYDVR0PBAQDAgWgMBkGA1UdEQQSMBCCDnRlYW0yOTgtc2VydmVyMA0GCSqGSIb3
DQEBCwUAA4IBAQDEYINQopTbP+O7grZVKFxP3JlHNj10JI3JtNXNumkWOiAfjNeX
GsxzUn3S/WgKbv3Izm+FGHIOPfmD3AT1B3Uy8kt3E71sc/8K/GYQmZt5HRTazgO2
2ey2pP14K0GpoV9XvYL2myKfHwLgTta4Dw2zcuexl15Yw62vTuWcYkVnjbRUn0Gj
2T04qolvjefhMNwz+QLgMK6Xi1gk0GnhdQFyImPzhdsXtGgBBnH6wm+CHNaIoR8l
ReE3odQBE0D1mmnXgvBfYD8ApdKP3bl9tgrLeAvZLnmqskWd2IlwXIwRVenWKPJM
FFw2MiZtemzm2sg5won+P0yqorGEqlbsCS3H
-----END CERTIFICATE-----
