Certificate:
    Data:
        Version: 3 (0x2)
        Serial Number:
            54:db:46:ea:c6:c6:47:c4:e5:52:04:a5:bd:8f:56:cf
        Signature Algorithm: sha256WithRSAEncryption
        Issuer: CN=team688-net
        Validity
            Not Before: Sep 13 04:41:27 2021 GMT
            Not After : Aug 28 04:41:27 2024 GMT
        Subject: CN=team688-server
        Subject Public Key Info:
            Public Key Algorithm: rsaEncryption
                RSA Public-Key: (2048 bit)
                Modulus:
                    00:c0:51:ec:a6:55:72:82:a1:69:b8:ec:ff:37:fa:
                    19:7e:7b:9d:91:93:50:ce:c1:40:4f:d8:69:6e:bb:
                    ef:bd:2f:d8:8b:a3:e0:cf:7d:02:8d:8a:5f:e2:c7:
                    00:ef:2a:27:1f:da:57:68:a7:9f:33:cf:1e:4d:97:
                    c0:57:6b:9c:83:88:aa:4f:12:fc:e9:a1:0c:9f:6b:
                    a2:7e:08:2b:62:ad:a5:81:d4:0c:b0:c1:8d:53:65:
                    3e:d2:c7:d2:70:56:47:fb:bc:85:6d:f2:08:46:d0:
                    91:c9:38:4d:0e:2a:bf:e6:39:af:78:01:10:e4:50:
                    5b:55:dc:ff:0a:9c:94:24:a0:d6:03:3d:a3:b3:09:
                    aa:44:e8:67:e2:fc:db:83:db:ed:f6:85:85:ff:f5:
                    bc:da:df:c2:07:0d:b2:14:b5:63:39:cb:bf:6d:4b:
                    2d:db:90:ff:20:c9:06:c8:b4:71:04:a5:00:52:8f:
                    3c:21:61:d2:f2:51:5d:56:0f:59:9c:37:ad:9d:0e:
                    c2:e5:55:18:ee:2f:2e:2d:96:8e:06:da:fb:4b:bf:
                    cf:0f:65:61:d9:2c:e8:e5:5a:4f:ad:5b:da:a6:97:
                    15:aa:26:d9:46:16:fe:c1:78:a3:aa:c0:95:82:b0:
                    7d:80:67:ea:11:af:a9:01:7e:37:9d:43:bc:a3:72:
                    05:fb
                Exponent: 65537 (0x10001)
        X509v3 extensions:
            X509v3 Basic Constraints: 
                CA:FALSE
            X509v3 Subject Key Identifier: 
                C4:4B:2F:3D:DD:63:5F:83:25:DF:89:A3:1D:E9:86:E5:3E:88:EC:0E
            X509v3 Authority Key Identifier: 
                keyid:83:D6:D8:D2:B9:FD:AB:D5:E7:2A:05:19:E6:79:8A:05:D8:17:97:7A
                DirName:/CN=team688-net
                serial:5F:36:89:86:BA:80:B3:26:F6:D2:90:54:54:01:7D:39:2F:21:23:A8

            X509v3 Extended Key Usage: 
                TLS Web Server Authentication
            X509v3 Key Usage: 
                Digital Signature, Key Encipherment
            X509v3 Subject Alternative Name: 
                DNS:team688-server
    Signature Algorithm: sha256WithRSAEncryption
         70:77:a1:67:2b:83:81:d1:63:40:65:c1:b0:a8:ee:45:c1:96:
         0b:58:fb:47:b2:ed:99:02:af:cc:50:ef:94:a2:55:b8:39:2a:
         0d:db:7e:fc:d1:03:49:4f:e4:43:22:bd:79:ad:4c:fc:f8:70:
         78:1a:41:1e:94:0f:fb:96:b4:e8:8b:95:81:0c:98:de:56:28:
         b8:47:4c:d1:7e:64:07:f7:1e:d4:af:59:3c:e4:4a:d5:ee:2d:
         42:db:18:76:55:50:6a:5a:09:0b:a9:09:90:3a:94:48:b7:a3:
         33:11:b4:36:97:d1:3b:50:ec:3e:35:6b:3d:57:c4:d5:c6:90:
         cd:73:bb:1b:b7:f8:8b:c1:9c:75:78:3f:36:ab:d7:c6:e9:f1:
         4c:b3:dd:81:7a:7c:a5:3a:7e:fa:ad:fc:c2:8d:0b:f1:73:a3:
         52:1b:69:6a:da:a9:9a:ba:f0:d0:c2:84:48:47:2d:51:60:7d:
         4a:30:e6:e3:d9:68:ee:a3:e5:a3:e6:8e:d1:e1:27:33:73:e4:
         8c:64:6a:21:ae:79:50:5c:15:4c:5c:38:48:77:eb:47:31:3a:
         97:f9:10:b9:04:b7:f0:58:d6:12:3e:74:91:f3:ce:16:a6:a1:
         fc:27:60:57:32:28:e9:d3:83:a2:46:1d:db:58:97:79:2f:ce:
         c1:b2:aa:df
-----BEGIN CERTIFICATE-----
MIIDdzCCAl+gAwIBAgIQVNtG6sbGR8TlUgSlvY9WzzANBgkqhkiG9w0BAQsFADAW
MRQwEgYDVQQDDAt0ZWFtNjg4LW5ldDAeFw0yMTA5MTMwNDQxMjdaFw0yNDA4Mjgw
NDQxMjdaMBkxFzAVBgNVBAMMDnRlYW02ODgtc2VydmVyMIIBIjANBgkqhkiG9w0B
AQEFAAOCAQ8AMIIBCgKCAQEAwFHsplVygqFpuOz/N/oZfnudkZNQzsFAT9hpbrvv
vS/Yi6Pgz30CjYpf4scA7yonH9pXaKefM88eTZfAV2ucg4iqTxL86aEMn2uifggr
Yq2lgdQMsMGNU2U+0sfScFZH+7yFbfIIRtCRyThNDiq/5jmveAEQ5FBbVdz/CpyU
JKDWAz2jswmqROhn4vzbg9vt9oWF//W82t/CBw2yFLVjOcu/bUst25D/IMkGyLRx
BKUAUo88IWHS8lFdVg9ZnDetnQ7C5VUY7i8uLZaOBtr7S7/PD2Vh2Szo5VpPrVva
ppcVqibZRhb+wXijqsCVgrB9gGfqEa+pAX43nUO8o3IF+wIDAQABo4G9MIG6MAkG
A1UdEwQCMAAwHQYDVR0OBBYEFMRLLz3dY1+DJd+Jox3phuU+iOwOMFEGA1UdIwRK
MEiAFIPW2NK5/avV5yoFGeZ5igXYF5d6oRqkGDAWMRQwEgYDVQQDDAt0ZWFtNjg4
LW5ldIIUXzaJhrqAsyb20pBUVAF9OS8hI6gwEwYDVR0lBAwwCgYIKwYBBQUHAwEw
CwYDVR0PBAQDAgWgMBkGA1UdEQQSMBCCDnRlYW02ODgtc2VydmVyMA0GCSqGSIb3
DQEBCwUAA4IBAQBwd6FnK4OB0WNAZcGwqO5FwZYLWPtHsu2ZAq/MUO+UolW4OSoN
23780QNJT+RDIr15rUz8+HB4GkEelA/7lrToi5WBDJjeVii4R0zRfmQH9x7Ur1k8
5ErV7i1C2xh2VVBqWgkLqQmQOpRIt6MzEbQ2l9E7UOw+NWs9V8TVxpDNc7sbt/iL
wZx1eD82q9fG6fFMs92BenylOn76rfzCjQvxc6NSG2lq2qmauvDQwoRIRy1RYH1K
MObj2Wjuo+Wj5o7R4Sczc+SMZGohrnlQXBVMXDhId+tHMTqX+RC5BLfwWNYSPnSR
884WpqH8J2BXMijp04OiRh3bWJd5L87Bsqrf
-----END CERTIFICATE-----
