Certificate:
    Data:
        Version: 3 (0x2)
        Serial Number:
            bd:23:ad:18:a4:fd:95:55:32:5d:2f:c3:4f:7a:da:ad
        Signature Algorithm: sha256WithRSAEncryption
        Issuer: CN=team409-net
        Validity
            Not Before: Sep 13 02:29:10 2021 GMT
            Not After : Aug 28 02:29:10 2024 GMT
        Subject: CN=team409-server
        Subject Public Key Info:
            Public Key Algorithm: rsaEncryption
                RSA Public-Key: (2048 bit)
                Modulus:
                    00:f1:a6:5c:5e:94:69:6a:bb:71:5f:b0:e6:c0:d0:
                    43:40:b9:d8:35:c5:fa:e8:5c:c8:df:e0:2c:db:0e:
                    86:13:07:54:51:08:4e:ec:72:af:ff:65:c4:15:ae:
                    9c:33:68:c0:ea:33:ee:da:65:ff:6f:75:e0:37:2a:
                    f2:6a:af:9d:8d:83:a4:fc:61:6e:9e:cf:bb:cf:d4:
                    54:b1:a5:bd:51:0e:7e:f9:b3:47:26:e2:8a:48:fd:
                    73:85:c9:7d:0e:6d:f5:3a:44:25:dd:00:63:34:d2:
                    e7:1a:51:16:69:52:5e:87:d6:38:21:70:99:1e:d6:
                    d6:79:7a:cb:3b:14:e4:85:d2:a0:7f:9f:6f:af:cb:
                    7a:bd:4c:a5:05:b7:c9:27:99:96:71:f4:9b:4a:3a:
                    fd:ac:eb:d1:bf:d5:1d:e6:c9:15:8c:f1:66:1c:76:
                    c8:0f:c3:e2:8a:23:9a:4f:17:71:a1:80:15:ae:61:
                    6e:ce:62:c9:f6:7f:93:6a:3a:25:09:1f:a2:f0:20:
                    33:ed:3b:67:4d:51:11:8c:f4:13:47:ee:a0:47:af:
                    73:a8:dd:89:f3:fa:a6:9e:e8:cc:85:0f:85:13:3d:
                    d8:09:64:62:2e:82:f9:e0:d5:43:70:75:24:25:63:
                    fc:d4:8a:4b:f1:93:62:2f:4b:b7:94:68:78:4a:14:
                    55:57
                Exponent: 65537 (0x10001)
        X509v3 extensions:
            X509v3 Basic Constraints: 
                CA:FALSE
            X509v3 Subject Key Identifier: 
                81:62:64:4B:F3:97:F1:0F:DA:DA:7A:25:57:65:CA:BD:37:8B:A8:A5
            X509v3 Authority Key Identifier: 
                keyid:73:E5:A1:52:C8:D9:EA:79:4F:70:08:5D:9B:4E:FC:AA:1C:20:59:5B
                DirName:/CN=team409-net
                serial:7E:1E:7C:A8:F8:96:36:4A:2E:0C:9B:47:EB:FD:2D:B5:00:49:C3:E8

            X509v3 Extended Key Usage: 
                TLS Web Server Authentication
            X509v3 Key Usage: 
                Digital Signature, Key Encipherment
            X509v3 Subject Alternative Name: 
                DNS:team409-server
    Signature Algorithm: sha256WithRSAEncryption
         5a:ef:47:c2:5f:b7:83:03:a9:e0:0a:e8:f8:36:8c:76:2c:97:
         b8:fe:c0:f4:f5:3a:96:a6:9d:01:78:90:dc:3f:12:98:5f:8f:
         08:54:0d:e1:c0:5f:9a:73:4e:6b:28:eb:b2:cd:db:74:5f:06:
         4b:e6:06:11:ac:54:19:9a:7c:ef:96:74:66:2f:34:e5:de:3e:
         2e:92:4c:45:a4:e9:cc:9c:29:90:e2:63:7e:92:cf:2f:f8:50:
         89:f4:bd:b4:2b:68:fc:13:c1:98:7e:9b:8a:f5:fa:ae:d5:c7:
         63:27:5c:35:f8:b5:69:d1:bc:7c:4c:32:07:df:d1:ec:58:a3:
         55:7b:5d:2a:f7:c2:e0:c3:fe:0e:d2:2a:de:d0:f5:51:d6:dc:
         d5:68:31:5a:e2:45:8f:0b:f9:3f:57:22:88:b9:7c:a7:15:a1:
         b9:76:69:9d:c4:42:ff:05:28:67:9a:4f:75:fc:48:f1:71:e6:
         96:71:c6:a7:37:93:50:f6:9f:c8:ac:e3:3d:74:d4:c0:3f:16:
         ae:2c:ec:0c:99:4c:cf:92:2e:83:ff:3c:a6:62:eb:bc:81:24:
         66:16:c5:cb:99:e6:8f:8d:62:8c:b5:e6:65:1c:2d:db:a3:53:
         d9:5b:48:3c:1e:2e:9e:39:f6:9d:a4:e2:40:5b:82:20:f2:c5:
         e5:9d:cf:87
-----BEGIN CERTIFICATE-----
MIIDeDCCAmCgAwIBAgIRAL0jrRik/ZVVMl0vw0962q0wDQYJKoZIhvcNAQELBQAw
FjEUMBIGA1UEAwwLdGVhbTQwOS1uZXQwHhcNMjEwOTEzMDIyOTEwWhcNMjQwODI4
MDIyOTEwWjAZMRcwFQYDVQQDDA50ZWFtNDA5LXNlcnZlcjCCASIwDQYJKoZIhvcN
AQEBBQADggEPADCCAQoCggEBAPGmXF6UaWq7cV+w5sDQQ0C52DXF+uhcyN/gLNsO
hhMHVFEITuxyr/9lxBWunDNowOoz7tpl/2914Dcq8mqvnY2DpPxhbp7Pu8/UVLGl
vVEOfvmzRybiikj9c4XJfQ5t9TpEJd0AYzTS5xpRFmlSXofWOCFwmR7W1nl6yzsU
5IXSoH+fb6/Ler1MpQW3ySeZlnH0m0o6/azr0b/VHebJFYzxZhx2yA/D4oojmk8X
caGAFa5hbs5iyfZ/k2o6JQkfovAgM+07Z01REYz0E0fuoEevc6jdifP6pp7ozIUP
hRM92AlkYi6C+eDVQ3B1JCVj/NSKS/GTYi9Lt5RoeEoUVVcCAwEAAaOBvTCBujAJ
BgNVHRMEAjAAMB0GA1UdDgQWBBSBYmRL85fxD9raeiVXZcq9N4uopTBRBgNVHSME
SjBIgBRz5aFSyNnqeU9wCF2bTvyqHCBZW6EapBgwFjEUMBIGA1UEAwwLdGVhbTQw
OS1uZXSCFH4efKj4ljZKLgybR+v9LbUAScPoMBMGA1UdJQQMMAoGCCsGAQUFBwMB
MAsGA1UdDwQEAwIFoDAZBgNVHREEEjAQgg50ZWFtNDA5LXNlcnZlcjANBgkqhkiG
9w0BAQsFAAOCAQEAWu9Hwl+3gwOp4Aro+DaMdiyXuP7A9PU6lqadAXiQ3D8SmF+P
CFQN4cBfmnNOayjrss3bdF8GS+YGEaxUGZp875Z0Zi805d4+LpJMRaTpzJwpkOJj
fpLPL/hQifS9tCto/BPBmH6bivX6rtXHYydcNfi1adG8fEwyB9/R7FijVXtdKvfC
4MP+DtIq3tD1Udbc1WgxWuJFjwv5P1ciiLl8pxWhuXZpncRC/wUoZ5pPdfxI8XHm
lnHGpzeTUPafyKzjPXTUwD8WrizsDJlMz5Iug/88pmLrvIEkZhbFy5nmj41ijLXm
ZRwt26NT2VtIPB4unjn2naTiQFuCIPLF5Z3Phw==
-----END CERTIFICATE-----
