Certificate:
    Data:
        Version: 3 (0x2)
        Serial Number:
            87:85:cd:ae:b9:b8:9e:f7:5e:71:66:a3:b8:46:50:fc
        Signature Algorithm: sha256WithRSAEncryption
        Issuer: CN=team20-net
        Validity
            Not Before: Sep 12 22:50:24 2021 GMT
            Not After : Aug 27 22:50:24 2024 GMT
        Subject: CN=team20-client
        Subject Public Key Info:
            Public Key Algorithm: rsaEncryption
                RSA Public-Key: (2048 bit)
                Modulus:
                    00:d1:7d:0a:b4:a2:31:97:91:d4:f1:4f:1c:cf:60:
                    08:85:de:01:d2:fa:30:59:4a:ba:94:15:b5:7d:0f:
                    9d:14:18:d1:7e:03:52:ec:b3:8d:de:18:7a:13:56:
                    ef:b6:fb:4d:28:46:97:cd:54:a6:ac:c7:1c:b6:0a:
                    2b:d3:f4:19:fb:92:d4:1a:54:70:90:0a:be:3b:2f:
                    05:42:0a:da:f9:5d:a9:19:c2:a6:e1:06:50:b8:5a:
                    8f:52:fb:0d:f0:79:1b:d5:0b:83:49:e7:e5:05:41:
                    68:91:81:3c:81:42:60:59:8a:d2:db:7a:20:02:22:
                    15:d3:c7:f4:b8:47:1b:8e:4e:37:ea:cb:2d:dc:b0:
                    ac:d4:96:e1:24:a3:05:de:dd:1e:1e:48:08:5d:3e:
                    24:78:6c:4b:ee:25:da:d1:79:af:f2:65:97:9f:40:
                    3c:c1:c9:13:4f:95:b7:1e:84:54:c6:68:d2:2e:be:
                    be:8e:08:a8:12:1c:11:9b:83:bf:80:df:ad:08:16:
                    d0:27:ef:e2:d4:b1:f7:66:a5:9f:42:33:75:96:20:
                    4a:fa:98:36:3f:cf:d9:a2:19:e3:53:0d:4c:77:87:
                    35:39:6e:2d:fd:0f:43:10:4b:d8:70:cd:94:60:d8:
                    68:99:6c:56:14:ba:e9:bf:e6:4c:db:5d:51:0f:fd:
                    66:d3
                Exponent: 65537 (0x10001)
        X509v3 extensions:
            X509v3 Basic Constraints: 
                CA:FALSE
            X509v3 Subject Key Identifier: 
                29:14:15:DB:22:69:FC:7E:A5:D1:F8:6D:D6:A5:E8:80:FA:DA:FC:B9
            X509v3 Authority Key Identifier: 
                keyid:5F:94:F1:52:CD:59:AD:9E:50:CE:E4:CE:97:1E:87:72:73:DE:1C:D1
                DirName:/CN=team20-net
                serial:4B:0F:BE:BB:90:E0:97:43:43:DD:85:92:E2:F3:E9:5F:A6:1C:C4:85

            X509v3 Extended Key Usage: 
                TLS Web Client Authentication
            X509v3 Key Usage: 
                Digital Signature
    Signature Algorithm: sha256WithRSAEncryption
         4e:73:8b:0b:fa:e5:86:e0:c3:18:88:6a:35:fc:f9:ba:d9:52:
         27:53:62:d5:d7:af:1f:57:b7:05:01:7f:f2:10:5d:75:e0:71:
         b7:22:a1:1b:80:e3:ea:33:f2:4b:1a:b1:f9:cd:0c:27:9d:80:
         c1:ff:47:ef:38:99:d8:c2:85:53:c7:2a:44:88:b7:94:cd:43:
         77:4f:c8:92:d8:0a:51:ca:c4:9c:be:40:9f:3c:7b:aa:6d:09:
         3e:74:28:3e:35:7c:6a:35:73:1e:49:d6:52:1d:00:e3:0b:72:
         87:c6:7d:49:db:e5:13:e0:35:53:8d:87:38:6b:48:48:84:3c:
         eb:2f:51:80:5c:64:50:3a:1d:3b:a0:67:c5:f2:59:b0:29:02:
         bf:27:e9:31:2c:e0:fb:e3:28:85:57:d9:e5:d8:ca:85:c1:5b:
         f3:f0:de:17:87:8b:04:dc:62:cb:c4:f7:fe:6a:6c:90:a7:9b:
         01:b5:c7:97:2a:9f:f4:0f:6e:c8:91:0e:eb:aa:58:e6:6d:e6:
         e3:03:d3:b2:cf:a9:f4:28:b2:38:45:8a:4a:70:37:a8:66:bc:
         b1:03:bd:4e:5c:bf:e7:bc:7d:28:bb:2f:e8:11:7a:28:cf:30:
         32:40:30:4e:31:9c:f0:bf:af:d9:57:df:8d:21:95:c9:ec:67:
         65:9b:6e:6a
-----BEGIN CERTIFICATE-----
MIIDWjCCAkKgAwIBAgIRAIeFza65uJ73XnFmo7hGUPwwDQYJKoZIhvcNAQELBQAw
FTETMBEGA1UEAwwKdGVhbTIwLW5ldDAeFw0yMTA5MTIyMjUwMjRaFw0yNDA4Mjcy
MjUwMjRaMBgxFjAUBgNVBAMMDXRlYW0yMC1jbGllbnQwggEiMA0GCSqGSIb3DQEB
AQUAA4IBDwAwggEKAoIBAQDRfQq0ojGXkdTxTxzPYAiF3gHS+jBZSrqUFbV9D50U
GNF+A1Lss43eGHoTVu+2+00oRpfNVKasxxy2CivT9Bn7ktQaVHCQCr47LwVCCtr5
XakZwqbhBlC4Wo9S+w3weRvVC4NJ5+UFQWiRgTyBQmBZitLbeiACIhXTx/S4RxuO
Tjfqyy3csKzUluEkowXe3R4eSAhdPiR4bEvuJdrRea/yZZefQDzByRNPlbcehFTG
aNIuvr6OCKgSHBGbg7+A360IFtAn7+LUsfdmpZ9CM3WWIEr6mDY/z9miGeNTDUx3
hzU5bi39D0MQS9hwzZRg2GiZbFYUuum/5kzbXVEP/WbTAgMBAAGjgaEwgZ4wCQYD
VR0TBAIwADAdBgNVHQ4EFgQUKRQV2yJp/H6l0fht1qXogPra/LkwUAYDVR0jBEkw
R4AUX5TxUs1ZrZ5QzuTOlx6HcnPeHNGhGaQXMBUxEzARBgNVBAMMCnRlYW0yMC1u
ZXSCFEsPvruQ4JdDQ92FkuLz6V+mHMSFMBMGA1UdJQQMMAoGCCsGAQUFBwMCMAsG
A1UdDwQEAwIHgDANBgkqhkiG9w0BAQsFAAOCAQEATnOLC/rlhuDDGIhqNfz5utlS
J1Ni1devH1e3BQF/8hBddeBxtyKhG4Dj6jPySxqx+c0MJ52Awf9H7ziZ2MKFU8cq
RIi3lM1Dd0/IktgKUcrEnL5Anzx7qm0JPnQoPjV8ajVzHknWUh0A4wtyh8Z9Sdvl
E+A1U42HOGtISIQ86y9RgFxkUDodO6BnxfJZsCkCvyfpMSzg++MohVfZ5djKhcFb
8/DeF4eLBNxiy8T3/mpskKebAbXHlyqf9A9uyJEO66pY5m3m4wPTss+p9CiyOEWK
SnA3qGa8sQO9Tly/57x9KLsv6BF6KM8wMkAwTjGc8L+v2VffjSGVyexnZZtuag==
-----END CERTIFICATE-----
