Certificate:
    Data:
        Version: 3 (0x2)
        Serial Number:
            c7:79:7f:ab:61:33:b3:b3:fa:b2:7b:08:4e:93:a4:6f
        Signature Algorithm: sha256WithRSAEncryption
        Issuer: CN=team438-net
        Validity
            Not Before: Sep 13 02:45:33 2021 GMT
            Not After : Aug 28 02:45:33 2024 GMT
        Subject: CN=team438-client
        Subject Public Key Info:
            Public Key Algorithm: rsaEncryption
                RSA Public-Key: (2048 bit)
                Modulus:
                    00:b5:31:ef:e7:4e:cb:d5:d7:9e:23:f5:ac:ee:37:
                    29:93:5b:07:45:65:88:8c:e3:62:99:0e:c4:90:5b:
                    df:45:ce:b2:9b:9a:ae:06:d2:53:3d:1d:dc:f8:5b:
                    61:d2:62:10:4d:e2:ac:2d:fa:2c:40:16:40:a3:7d:
                    c2:86:df:fb:21:46:04:b3:4e:3d:53:6c:ce:15:f1:
                    d4:c5:1a:e9:f0:10:9a:dc:da:c3:3c:18:ce:3d:de:
                    1a:f2:51:ab:ab:31:f2:44:8d:bb:b8:e0:b4:a1:d8:
                    fa:dd:c0:79:34:72:e2:19:13:f5:b6:f6:62:d0:40:
                    0d:50:58:1e:ae:94:f1:ff:eb:00:1c:5a:78:4d:6f:
                    4c:45:fe:79:33:3b:b0:82:62:6f:9b:16:bf:11:8c:
                    58:e9:a4:8b:1b:47:01:e5:f6:21:a2:d5:13:bf:b3:
                    35:68:89:14:8c:c9:e4:05:f2:c3:00:26:17:0a:29:
                    7f:00:2a:c2:fa:86:21:9f:a1:6f:4b:2d:bd:92:77:
                    93:b0:26:2e:03:bb:55:ac:6d:ad:5a:eb:1d:0b:66:
                    d3:8d:0a:47:8f:fa:40:59:d2:ff:07:01:bb:92:a2:
                    c4:04:35:86:60:89:c0:9c:a4:0b:54:d0:e1:61:3d:
                    74:04:e0:c1:57:25:e6:57:fe:98:ca:48:db:29:cf:
                    bf:73
                Exponent: 65537 (0x10001)
        X509v3 extensions:
            X509v3 Basic Constraints: 
                CA:FALSE
            X509v3 Subject Key Identifier: 
                AA:0A:E9:33:E3:05:11:7B:EB:5A:07:3E:E2:26:62:7E:D3:7E:B2:07
            X509v3 Authority Key Identifier: 
                keyid:04:BF:BA:29:94:2A:26:18:CC:5E:DA:84:D8:95:27:83:D6:22:01:0E
                DirName:/CN=team438-net
                serial:4A:CC:43:1E:CA:6C:98:0E:5C:7E:BB:03:15:5E:4A:A2:44:95:8B:AA

            X509v3 Extended Key Usage: 
                TLS Web Client Authentication
            X509v3 Key Usage: 
                Digital Signature
    Signature Algorithm: sha256WithRSAEncryption
         2b:ef:c4:36:e6:5c:80:15:3f:e4:55:9f:f9:86:2c:77:b0:7c:
         d7:c0:79:6c:6d:4e:a5:23:a4:71:5a:6f:ab:e6:9a:1f:dd:4f:
         0a:8e:00:49:60:4c:f8:c8:2f:94:30:73:30:df:3f:f1:03:47:
         db:48:3b:59:de:7d:29:25:4c:4e:44:dd:99:3b:f5:5c:5b:5f:
         01:9f:27:8a:9e:bb:40:52:28:55:18:f9:9e:fe:6e:8d:d9:e4:
         88:67:90:bd:8d:be:88:94:e8:da:56:4c:9e:fe:3f:45:cb:04:
         7b:7f:a4:4c:3b:92:7c:ad:97:ce:27:21:99:ed:d4:b1:9e:ea:
         0b:79:18:2d:05:9e:9f:68:a3:4e:77:94:fd:63:fa:c1:ee:3a:
         4a:a7:c4:31:bc:0d:9d:3f:36:1d:ef:5e:15:87:e2:82:53:86:
         1a:a5:88:63:bc:29:bb:bc:56:85:2d:a2:8a:f2:fb:0c:73:53:
         f3:4b:2c:5c:1c:b3:9a:4e:57:41:09:b7:c7:41:a6:c9:b9:93:
         1e:ec:e7:99:74:92:1b:e0:7e:81:29:be:e0:15:13:82:a9:9f:
         2d:c0:e5:fa:02:ed:f7:55:6b:ec:7d:d7:1a:f4:98:22:6f:be:
         f6:3a:e4:de:3f:54:3a:4d:0d:f4:36:3d:53:b9:4b:f4:7b:cf:
         0c:e7:4a:2d
-----BEGIN CERTIFICATE-----
MIIDXTCCAkWgAwIBAgIRAMd5f6thM7Oz+rJ7CE6TpG8wDQYJKoZIhvcNAQELBQAw
FjEUMBIGA1UEAwwLdGVhbTQzOC1uZXQwHhcNMjEwOTEzMDI0NTMzWhcNMjQwODI4
MDI0NTMzWjAZMRcwFQYDVQQDDA50ZWFtNDM4LWNsaWVudDCCASIwDQYJKoZIhvcN
AQEBBQADggEPADCCAQoCggEBALUx7+dOy9XXniP1rO43KZNbB0VliIzjYpkOxJBb
30XOspuargbSUz0d3PhbYdJiEE3irC36LEAWQKN9wobf+yFGBLNOPVNszhXx1MUa
6fAQmtzawzwYzj3eGvJRq6sx8kSNu7jgtKHY+t3AeTRy4hkT9bb2YtBADVBYHq6U
8f/rABxaeE1vTEX+eTM7sIJib5sWvxGMWOmkixtHAeX2IaLVE7+zNWiJFIzJ5AXy
wwAmFwopfwAqwvqGIZ+hb0stvZJ3k7AmLgO7VaxtrVrrHQtm040KR4/6QFnS/wcB
u5KixAQ1hmCJwJykC1TQ4WE9dATgwVcl5lf+mMpI2ynPv3MCAwEAAaOBojCBnzAJ
BgNVHRMEAjAAMB0GA1UdDgQWBBSqCukz4wURe+taBz7iJmJ+036yBzBRBgNVHSME
SjBIgBQEv7oplComGMxe2oTYlSeD1iIBDqEapBgwFjEUMBIGA1UEAwwLdGVhbTQz
OC1uZXSCFErMQx7KbJgOXH67AxVeSqJElYuqMBMGA1UdJQQMMAoGCCsGAQUFBwMC
MAsGA1UdDwQEAwIHgDANBgkqhkiG9w0BAQsFAAOCAQEAK+/ENuZcgBU/5FWf+YYs
d7B818B5bG1OpSOkcVpvq+aaH91PCo4ASWBM+MgvlDBzMN8/8QNH20g7Wd59KSVM
TkTdmTv1XFtfAZ8nip67QFIoVRj5nv5ujdnkiGeQvY2+iJTo2lZMnv4/RcsEe3+k
TDuSfK2Xzichme3UsZ7qC3kYLQWen2ijTneU/WP6we46SqfEMbwNnT82He9eFYfi
glOGGqWIY7wpu7xWhS2iivL7DHNT80ssXByzmk5XQQm3x0GmybmTHuznmXSSG+B+
gSm+4BUTgqmfLcDl+gLt91Vr7H3XGvSYIm++9jrk3j9UOk0N9DY9U7lL9HvPDOdK
LQ==
-----END CERTIFICATE-----
