Certificate:
    Data:
        Version: 3 (0x2)
        Serial Number:
            27:07:02:81:33:37:fb:14:a4:45:93:14:57:a0:81:d8
        Signature Algorithm: sha256WithRSAEncryption
        Issuer: CN=team644-net
        Validity
            Not Before: Sep 13 04:46:13 2021 GMT
            Not After : Aug 28 04:46:13 2024 GMT
        Subject: CN=team644-server
        Subject Public Key Info:
            Public Key Algorithm: rsaEncryption
                RSA Public-Key: (2048 bit)
                Modulus:
                    00:ee:36:06:6e:06:88:3d:f1:09:99:46:7e:33:34:
                    60:49:c8:31:f7:70:82:0f:7c:5f:6b:a9:69:27:85:
                    d2:a4:47:f5:b4:1f:5e:c8:b0:f4:d5:6c:31:6e:10:
                    30:b5:38:8e:7c:66:2a:b5:40:bc:30:94:c0:a9:4c:
                    8a:ac:d6:88:5c:2e:cd:77:ad:06:4b:b3:8d:ea:d9:
                    47:b4:77:8f:69:d3:5e:e4:1e:58:c9:5e:fd:55:02:
                    c1:4d:3a:b0:b2:d4:98:80:b9:57:e4:24:be:2b:c4:
                    b9:9f:03:7e:ee:7e:02:cb:3b:7d:a4:cb:e2:2d:e1:
                    7c:38:18:45:81:a0:37:74:c1:fe:0b:b1:29:63:75:
                    7b:2b:f2:94:96:b0:e0:6c:08:49:ab:b0:9e:d8:da:
                    f5:bf:2a:db:0b:31:5b:97:2c:ee:f7:1c:4b:00:bb:
                    89:a3:51:75:67:33:99:b1:d6:ed:f4:70:12:c4:ee:
                    92:63:ab:fc:6e:d9:91:d5:61:0c:38:82:b5:69:dd:
                    7e:55:29:c1:eb:a6:59:eb:c3:f7:f5:27:36:77:4c:
                    3b:ca:a0:b2:a3:0a:43:45:76:4e:a6:9d:80:8a:c4:
                    df:e3:c2:b3:0a:28:d9:e2:d0:a4:5f:57:ed:5c:44:
                    fa:8c:2a:8f:f4:7e:60:fa:0f:7f:80:fa:b9:5c:69:
                    14:b5
                Exponent: 65537 (0x10001)
        X509v3 extensions:
            X509v3 Basic Constraints: 
                CA:FALSE
            X509v3 Subject Key Identifier: 
                34:21:99:1C:9C:A5:84:47:49:44:13:D8:B5:43:79:89:AA:A4:E8:6F
            X509v3 Authority Key Identifier: 
                keyid:B9:3F:0F:1C:F4:27:AA:F1:13:9B:98:43:2F:4E:72:29:7C:31:5B:DF
                DirName:/CN=team644-net
                serial:50:EF:E1:DB:FE:03:5B:99:E3:38:CA:B1:21:E3:48:E3:FE:FA:02:8C

            X509v3 Extended Key Usage: 
                TLS Web Server Authentication
            X509v3 Key Usage: 
                Digital Signature, Key Encipherment
            X509v3 Subject Alternative Name: 
                DNS:team644-server
    Signature Algorithm: sha256WithRSAEncryption
         39:63:bf:49:b7:62:2b:68:cb:a3:31:da:34:3d:6e:6a:62:05:
         2a:2d:7e:07:ac:df:a0:10:18:6a:65:d5:7e:af:c3:2e:e2:ae:
         fb:2c:8f:55:ba:67:f0:09:ad:c2:45:8c:07:01:44:7d:f4:e3:
         9d:e6:a5:c8:fd:a4:d5:d1:72:0a:05:8a:7f:11:36:4c:a5:39:
         89:9f:f5:91:59:45:74:c3:7e:e8:89:81:f5:51:da:15:b2:a6:
         99:ec:20:29:c6:e3:a3:38:65:a5:8a:b8:d2:6e:58:8e:7b:e2:
         77:1a:a5:fa:66:0d:69:5f:b3:c8:1e:f0:3b:1a:a6:f7:94:50:
         49:e4:3f:2a:f4:6d:d2:cf:04:ab:27:05:52:e2:07:73:b3:c7:
         90:2e:98:ee:d6:dc:2e:e1:da:a0:dd:bc:24:79:02:54:38:b0:
         e3:56:65:b4:f0:db:d7:41:c2:c1:c6:ee:5e:89:01:1a:24:71:
         f5:bf:45:d3:c7:83:11:ec:8a:28:ab:f5:94:7c:02:d8:6b:ec:
         36:85:e4:71:41:cc:84:89:7f:df:9b:98:80:69:31:81:76:15:
         80:46:ea:0c:57:46:55:b1:04:7d:2f:08:c9:74:0b:13:5f:10:
         6e:c8:88:e1:89:ae:e5:a7:6d:ea:c7:0a:30:c8:ba:73:3f:4e:
         3f:c5:b4:ee
-----BEGIN CERTIFICATE-----
MIIDdzCCAl+gAwIBAgIQJwcCgTM3+xSkRZMUV6CB2DANBgkqhkiG9w0BAQsFADAW
MRQwEgYDVQQDDAt0ZWFtNjQ0LW5ldDAeFw0yMTA5MTMwNDQ2MTNaFw0yNDA4Mjgw
NDQ2MTNaMBkxFzAVBgNVBAMMDnRlYW02NDQtc2VydmVyMIIBIjANBgkqhkiG9w0B
AQEFAAOCAQ8AMIIBCgKCAQEA7jYGbgaIPfEJmUZ+MzRgScgx93CCD3xfa6lpJ4XS
pEf1tB9eyLD01WwxbhAwtTiOfGYqtUC8MJTAqUyKrNaIXC7Nd60GS7ON6tlHtHeP
adNe5B5YyV79VQLBTTqwstSYgLlX5CS+K8S5nwN+7n4Cyzt9pMviLeF8OBhFgaA3
dMH+C7EpY3V7K/KUlrDgbAhJq7Ce2Nr1vyrbCzFblyzu9xxLALuJo1F1ZzOZsdbt
9HASxO6SY6v8btmR1WEMOIK1ad1+VSnB66ZZ68P39Sc2d0w7yqCyowpDRXZOpp2A
isTf48KzCijZ4tCkX1ftXET6jCqP9H5g+g9/gPq5XGkUtQIDAQABo4G9MIG6MAkG
A1UdEwQCMAAwHQYDVR0OBBYEFDQhmRycpYRHSUQT2LVDeYmqpOhvMFEGA1UdIwRK
MEiAFLk/Dxz0J6rxE5uYQy9Ocil8MVvfoRqkGDAWMRQwEgYDVQQDDAt0ZWFtNjQ0
LW5ldIIUUO/h2/4DW5njOMqxIeNI4/76AowwEwYDVR0lBAwwCgYIKwYBBQUHAwEw
CwYDVR0PBAQDAgWgMBkGA1UdEQQSMBCCDnRlYW02NDQtc2VydmVyMA0GCSqGSIb3
DQEBCwUAA4IBAQA5Y79Jt2IraMujMdo0PW5qYgUqLX4HrN+gEBhqZdV+r8Mu4q77
LI9VumfwCa3CRYwHAUR99OOd5qXI/aTV0XIKBYp/ETZMpTmJn/WRWUV0w37oiYH1
UdoVsqaZ7CApxuOjOGWlirjSbliOe+J3GqX6Zg1pX7PIHvA7Gqb3lFBJ5D8q9G3S
zwSrJwVS4gdzs8eQLpju1twu4dqg3bwkeQJUOLDjVmW08NvXQcLBxu5eiQEaJHH1
v0XTx4MR7Iooq/WUfALYa+w2heRxQcyEiX/fm5iAaTGBdhWARuoMV0ZVsQR9LwjJ
dAsTXxBuyIjhia7lp23qxwowyLpzP04/xbTu
-----END CERTIFICATE-----
