Certificate:
    Data:
        Version: 3 (0x2)
        Serial Number:
            71:a2:8c:73:73:09:8e:61:fd:f8:28:a4:f6:60:52:d5
        Signature Algorithm: sha256WithRSAEncryption
        Issuer: CN=team643-net
        Validity
            Not Before: Sep 13 04:20:11 2021 GMT
            Not After : Aug 28 04:20:11 2024 GMT
        Subject: CN=team643-client
        Subject Public Key Info:
            Public Key Algorithm: rsaEncryption
                RSA Public-Key: (2048 bit)
                Modulus:
                    00:9a:4e:fa:51:ff:c3:e6:97:3b:34:6d:45:4f:d5:
                    08:fa:0a:cd:fe:9c:d2:2c:3b:67:51:6e:a8:05:22:
                    ee:87:e7:ff:f1:83:13:72:c9:bd:df:6c:8c:58:24:
                    61:fb:85:48:d4:cc:88:8e:d3:5e:55:24:e6:e4:ea:
                    00:19:64:59:2f:f2:b4:7a:90:dc:e2:7f:de:38:cd:
                    a3:37:89:17:66:1a:80:39:24:bb:e2:8c:73:32:50:
                    32:19:b6:42:b9:0e:be:e9:54:6e:1b:3e:0d:a4:86:
                    d6:2a:a6:bd:e6:01:09:47:8b:1f:67:71:ce:b9:58:
                    03:90:18:ac:c1:0c:72:39:d8:69:f2:d8:26:0a:cb:
                    50:85:0b:6d:22:5d:86:95:72:ca:e6:f0:3d:51:54:
                    e8:08:c2:51:f5:51:86:20:5d:23:c6:e8:65:46:0a:
                    4b:25:c4:95:03:95:e1:0a:4b:95:80:ce:42:1a:41:
                    57:0c:95:6b:7c:bd:ab:4f:c9:8f:19:47:ac:13:80:
                    e3:49:64:20:22:8a:68:64:72:70:8e:1a:ea:5c:db:
                    a8:03:df:40:9b:11:8e:68:e1:07:c6:68:ee:cb:ad:
                    2e:68:90:cd:97:c0:af:3e:dd:37:e4:7d:c5:8b:12:
                    e8:5c:d2:42:6b:68:16:fb:e0:48:5f:b1:a9:69:67:
                    b6:69
                Exponent: 65537 (0x10001)
        X509v3 extensions:
            X509v3 Basic Constraints: 
                CA:FALSE
            X509v3 Subject Key Identifier: 
                D8:CA:15:EC:80:95:E8:2B:66:E9:8F:19:A6:41:E0:2C:49:3D:3F:9B
            X509v3 Authority Key Identifier: 
                keyid:8D:8C:A3:91:DD:27:F0:0E:11:F1:4D:4A:C5:80:63:56:73:D7:A2:A2
                DirName:/CN=team643-net
                serial:01:B6:A4:3F:04:D8:29:29:56:54:FC:AB:1A:FB:B7:78:57:5E:90:7D

            X509v3 Extended Key Usage: 
                TLS Web Client Authentication
            X509v3 Key Usage: 
                Digital Signature
    Signature Algorithm: sha256WithRSAEncryption
         07:55:cc:42:72:a6:30:94:c1:77:63:3e:93:f5:e4:c4:a7:2e:
         0d:e6:52:cb:18:93:c4:ff:c6:9e:4d:92:02:0d:42:c8:1f:88:
         b9:7a:7f:44:42:0c:13:6d:ac:b1:f6:06:cb:d7:32:58:fd:84:
         99:e3:38:5a:ad:26:88:98:58:43:2f:da:21:09:d6:18:7e:5c:
         07:94:4d:6a:9c:ce:66:5d:f6:42:59:45:41:91:70:af:01:21:
         6c:75:fa:47:52:a6:6d:42:0f:ca:47:b0:32:4d:ea:16:94:d1:
         cd:a7:90:a3:c8:31:81:fe:95:cc:32:2a:72:97:da:c0:99:81:
         8b:b3:d4:c6:99:10:8a:41:a9:83:95:3c:e4:90:5a:c0:fc:0c:
         e6:09:b3:b8:99:b9:82:6e:66:e7:bc:83:70:9a:97:76:80:68:
         67:58:de:f0:83:76:76:64:9f:8f:58:10:b3:3d:3b:4d:06:08:
         f0:e8:32:1d:c7:5a:88:4b:d5:ae:98:e8:ae:0a:f0:10:87:06:
         7f:d0:27:04:05:e5:e0:26:00:0f:bf:bc:dd:c8:61:22:8e:ae:
         8d:33:6c:99:47:39:cf:d4:de:b9:a7:54:64:86:c0:ed:c1:35:
         dc:0a:dd:59:2f:02:41:2f:f2:89:c6:e2:78:63:6a:d2:d1:89:
         1b:a1:74:d3
-----BEGIN CERTIFICATE-----
MIIDXDCCAkSgAwIBAgIQcaKMc3MJjmH9+Cik9mBS1TANBgkqhkiG9w0BAQsFADAW
MRQwEgYDVQQDDAt0ZWFtNjQzLW5ldDAeFw0yMTA5MTMwNDIwMTFaFw0yNDA4Mjgw
NDIwMTFaMBkxFzAVBgNVBAMMDnRlYW02NDMtY2xpZW50MIIBIjANBgkqhkiG9w0B
AQEFAAOCAQ8AMIIBCgKCAQEAmk76Uf/D5pc7NG1FT9UI+grN/pzSLDtnUW6oBSLu
h+f/8YMTcsm932yMWCRh+4VI1MyIjtNeVSTm5OoAGWRZL/K0epDc4n/eOM2jN4kX
ZhqAOSS74oxzMlAyGbZCuQ6+6VRuGz4NpIbWKqa95gEJR4sfZ3HOuVgDkBiswQxy
Odhp8tgmCstQhQttIl2GlXLK5vA9UVToCMJR9VGGIF0jxuhlRgpLJcSVA5XhCkuV
gM5CGkFXDJVrfL2rT8mPGUesE4DjSWQgIopoZHJwjhrqXNuoA99AmxGOaOEHxmju
y60uaJDNl8CvPt035H3FixLoXNJCa2gW++BIX7GpaWe2aQIDAQABo4GiMIGfMAkG
A1UdEwQCMAAwHQYDVR0OBBYEFNjKFeyAlegrZumPGaZB4CxJPT+bMFEGA1UdIwRK
MEiAFI2Mo5HdJ/AOEfFNSsWAY1Zz16KioRqkGDAWMRQwEgYDVQQDDAt0ZWFtNjQz
LW5ldIIUAbakPwTYKSlWVPyrGvu3eFdekH0wEwYDVR0lBAwwCgYIKwYBBQUHAwIw
CwYDVR0PBAQDAgeAMA0GCSqGSIb3DQEBCwUAA4IBAQAHVcxCcqYwlMF3Yz6T9eTE
py4N5lLLGJPE/8aeTZICDULIH4i5en9EQgwTbayx9gbL1zJY/YSZ4zharSaImFhD
L9ohCdYYflwHlE1qnM5mXfZCWUVBkXCvASFsdfpHUqZtQg/KR7AyTeoWlNHNp5Cj
yDGB/pXMMipyl9rAmYGLs9TGmRCKQamDlTzkkFrA/AzmCbO4mbmCbmbnvINwmpd2
gGhnWN7wg3Z2ZJ+PWBCzPTtNBgjw6DIdx1qIS9WumOiuCvAQhwZ/0CcEBeXgJgAP
v7zdyGEijq6NM2yZRznP1N65p1RkhsDtwTXcCt1ZLwJBL/KJxuJ4Y2rS0YkboXTT
-----END CERTIFICATE-----
