Certificate:
    Data:
        Version: 3 (0x2)
        Serial Number:
            c1:d8:be:17:5d:4e:29:ea:3a:aa:cd:5b:c1:8d:e0:02
        Signature Algorithm: sha256WithRSAEncryption
        Issuer: CN=team19-net
        Validity
            Not Before: Sep 12 22:53:18 2021 GMT
            Not After : Aug 27 22:53:18 2024 GMT
        Subject: CN=team19-client
        Subject Public Key Info:
            Public Key Algorithm: rsaEncryption
                RSA Public-Key: (2048 bit)
                Modulus:
                    00:ea:69:02:60:c6:d4:48:4b:4f:9c:b9:7e:00:d9:
                    16:bc:7d:27:50:d9:f1:be:e1:f6:ea:c0:48:fc:8b:
                    15:3b:a5:ec:cd:65:4f:c1:3b:19:9f:f1:db:27:19:
                    5c:9a:6f:a9:9d:64:a8:f4:cb:19:78:0c:0e:1d:a9:
                    ce:46:ca:1c:12:8c:3d:a4:bf:cb:76:8e:c6:37:c4:
                    04:5b:01:9c:dd:d9:3e:0f:4a:e3:4b:30:7b:32:d4:
                    e2:13:63:bd:cd:31:c8:12:34:a3:0f:06:36:4a:0e:
                    43:44:d4:2d:17:0c:72:1b:f3:ee:da:7f:e2:74:3b:
                    ed:8a:08:6a:7d:77:b9:ac:a4:8a:44:6d:1e:57:0e:
                    29:3d:c9:a0:cc:7f:fc:f0:67:08:ba:c8:50:eb:77:
                    69:94:5e:fe:95:d3:fd:2b:cf:9a:41:ff:88:a4:91:
                    77:fa:9f:00:f7:02:78:a5:a3:4f:d4:33:df:c7:a7:
                    84:f1:bd:63:e3:27:28:30:26:1a:e8:b2:df:d1:c8:
                    22:52:49:52:27:26:02:a1:f1:58:62:97:09:0a:8d:
                    f0:c5:3b:40:65:53:9a:4f:9a:84:fd:52:e6:70:dc:
                    c6:40:b3:1d:08:38:88:cf:3c:8a:e7:5f:b5:bb:b2:
                    a1:68:a6:71:9d:a8:ee:77:c9:f7:c1:03:34:17:45:
                    b5:33
                Exponent: 65537 (0x10001)
        X509v3 extensions:
            X509v3 Basic Constraints: 
                CA:FALSE
            X509v3 Subject Key Identifier: 
                2C:39:38:57:8B:9C:37:17:34:EF:06:EC:CA:21:E7:AF:64:83:56:02
            X509v3 Authority Key Identifier: 
                keyid:38:3F:62:C2:95:4A:23:EF:A8:45:31:0D:AD:A7:71:D7:07:BC:39:D8
                DirName:/CN=team19-net
                serial:5F:84:CB:52:4D:5E:48:1F:21:14:73:6F:7E:ED:09:E5:80:BA:94:30

            X509v3 Extended Key Usage: 
                TLS Web Client Authentication
            X509v3 Key Usage: 
                Digital Signature
    Signature Algorithm: sha256WithRSAEncryption
         42:42:ea:c9:eb:8d:95:b9:22:3f:06:8a:95:43:22:9c:14:dc:
         8c:2a:76:15:f3:65:03:14:6b:a9:9d:7a:d2:d0:63:8f:8e:03:
         23:2f:5e:3b:c6:8d:81:43:ab:66:6f:d2:af:48:09:dd:47:b1:
         37:0c:95:e6:ad:06:f9:24:2a:ac:2f:4a:95:38:22:9a:c1:fb:
         fa:de:df:f4:07:d9:a7:6f:7d:7e:92:c9:14:fe:21:6c:2d:ae:
         ee:d0:13:aa:ce:6c:b5:78:ae:15:f2:b0:3d:03:fb:ea:8c:cf:
         cd:c4:0e:e2:0f:88:5e:23:42:23:02:77:c7:33:b3:b7:1f:cd:
         9c:fd:f5:18:a7:bf:12:21:84:71:8d:91:35:b4:2f:26:8f:f7:
         97:60:71:ea:46:05:db:c3:c0:9c:b4:0c:bf:0f:fd:cf:30:20:
         fc:7f:e6:68:6f:60:a8:1f:61:86:18:b8:db:5e:e1:54:2d:d6:
         5a:9c:3e:52:21:0f:e9:b2:11:26:4c:28:dd:29:f1:39:55:ae:
         36:b5:0c:bc:fa:75:bb:dd:72:94:c4:d6:7b:d1:35:f1:19:b1:
         33:dc:7a:06:84:b7:d1:aa:2d:fa:de:d6:92:53:12:0a:2b:1c:
         95:b8:3e:43:cc:54:e6:e8:6a:fd:53:5e:53:ed:78:66:ad:30:
         ad:99:14:91
-----BEGIN CERTIFICATE-----
MIIDWjCCAkKgAwIBAgIRAMHYvhddTinqOqrNW8GN4AIwDQYJKoZIhvcNAQELBQAw
FTETMBEGA1UEAwwKdGVhbTE5LW5ldDAeFw0yMTA5MTIyMjUzMThaFw0yNDA4Mjcy
MjUzMThaMBgxFjAUBgNVBAMMDXRlYW0xOS1jbGllbnQwggEiMA0GCSqGSIb3DQEB
AQUAA4IBDwAwggEKAoIBAQDqaQJgxtRIS0+cuX4A2Ra8fSdQ2fG+4fbqwEj8ixU7
pezNZU/BOxmf8dsnGVyab6mdZKj0yxl4DA4dqc5GyhwSjD2kv8t2jsY3xARbAZzd
2T4PSuNLMHsy1OITY73NMcgSNKMPBjZKDkNE1C0XDHIb8+7af+J0O+2KCGp9d7ms
pIpEbR5XDik9yaDMf/zwZwi6yFDrd2mUXv6V0/0rz5pB/4ikkXf6nwD3Anilo0/U
M9/Hp4TxvWPjJygwJhrost/RyCJSSVInJgKh8VhilwkKjfDFO0BlU5pPmoT9UuZw
3MZAsx0IOIjPPIrnX7W7sqFopnGdqO53yffBAzQXRbUzAgMBAAGjgaEwgZ4wCQYD
VR0TBAIwADAdBgNVHQ4EFgQULDk4V4ucNxc07wbsyiHnr2SDVgIwUAYDVR0jBEkw
R4AUOD9iwpVKI++oRTENradx1we8OdihGaQXMBUxEzARBgNVBAMMCnRlYW0xOS1u
ZXSCFF+Ey1JNXkgfIRRzb37tCeWAupQwMBMGA1UdJQQMMAoGCCsGAQUFBwMCMAsG
A1UdDwQEAwIHgDANBgkqhkiG9w0BAQsFAAOCAQEAQkLqyeuNlbkiPwaKlUMinBTc
jCp2FfNlAxRrqZ160tBjj44DIy9eO8aNgUOrZm/Sr0gJ3UexNwyV5q0G+SQqrC9K
lTgimsH7+t7f9AfZp299fpLJFP4hbC2u7tATqs5stXiuFfKwPQP76ozPzcQO4g+I
XiNCIwJ3xzOztx/NnP31GKe/EiGEcY2RNbQvJo/3l2Bx6kYF28PAnLQMvw/9zzAg
/H/maG9gqB9hhhi4217hVC3WWpw+UiEP6bIRJkwo3SnxOVWuNrUMvPp1u91ylMTW
e9E18RmxM9x6BoS30aot+t7WklMSCisclbg+Q8xU5uhq/VNeU+14Zq0wrZkUkQ==
-----END CERTIFICATE-----
