Certificate:
    Data:
        Version: 3 (0x2)
        Serial Number:
            64:91:de:b4:63:0b:30:5a:15:c3:b1:fe:37:ad:09:ea
        Signature Algorithm: sha256WithRSAEncryption
        Issuer: CN=team56-net
        Validity
            Not Before: Sep 12 23:10:49 2021 GMT
            Not After : Aug 27 23:10:49 2024 GMT
        Subject: CN=team56-client
        Subject Public Key Info:
            Public Key Algorithm: rsaEncryption
                RSA Public-Key: (2048 bit)
                Modulus:
                    00:b8:cb:01:f6:a2:41:b5:90:dc:f3:f4:83:b9:35:
                    69:2a:4b:7d:cb:b0:36:45:ad:95:83:c4:97:11:24:
                    b8:07:fd:2d:5b:d5:93:83:18:88:5e:1a:5b:7d:a4:
                    ce:92:23:57:fc:52:4d:27:02:90:50:ec:65:e3:5e:
                    14:58:4c:91:e4:75:73:8d:f9:88:40:03:8e:05:52:
                    13:e7:02:77:da:15:fb:ac:c8:03:91:4b:1d:70:ae:
                    c2:e1:1d:c9:eb:fc:f8:05:f7:bb:db:ef:41:00:0e:
                    45:43:51:3d:1e:43:65:02:ab:28:b7:94:54:86:8f:
                    13:7f:93:3f:6a:b4:e9:65:d4:d4:12:07:2d:58:37:
                    d4:f5:0f:69:fb:be:62:48:f7:21:58:97:00:dd:a7:
                    28:b0:31:e8:26:c4:76:cb:4f:2d:86:80:7b:85:94:
                    23:e9:8d:c2:ad:19:83:51:85:d6:f5:53:27:98:9a:
                    34:b9:e7:8c:6d:49:98:e6:16:52:9a:47:bd:63:24:
                    75:33:d6:22:c9:77:3f:39:9c:21:66:18:a8:53:8e:
                    60:91:8c:26:6f:40:c4:08:da:24:ad:16:bc:63:ed:
                    6c:2b:01:4e:4f:8e:7f:a6:10:58:31:e4:ba:84:21:
                    a0:84:ba:3a:ea:6f:68:92:83:74:f0:d5:d7:2e:93:
                    b6:23
                Exponent: 65537 (0x10001)
        X509v3 extensions:
            X509v3 Basic Constraints: 
                CA:FALSE
            X509v3 Subject Key Identifier: 
                4A:9C:22:87:77:7B:50:4C:D5:E0:47:23:00:51:E8:EB:F7:E4:9A:C6
            X509v3 Authority Key Identifier: 
                keyid:E2:B6:60:BA:82:F2:5B:4A:F3:F5:8C:13:BC:CA:F2:4A:8B:33:C0:C5
                DirName:/CN=team56-net
                serial:31:98:58:2B:D8:09:B5:DC:44:B5:71:9F:DB:B5:C2:8F:FB:11:42:73

            X509v3 Extended Key Usage: 
                TLS Web Client Authentication
            X509v3 Key Usage: 
                Digital Signature
    Signature Algorithm: sha256WithRSAEncryption
         9c:d4:b4:59:86:db:99:fb:8a:8e:f6:70:aa:a3:df:50:60:c4:
         ba:dd:a2:a5:6f:a0:9c:83:84:64:05:9a:dc:54:3b:d8:1e:8a:
         d8:a8:6a:9c:57:cf:9f:dd:2e:0f:44:bb:0c:4f:a9:aa:df:bd:
         80:59:f8:e6:64:3d:59:f5:17:ff:be:2c:16:38:66:3c:46:d0:
         5f:25:a0:71:dc:d6:f9:8f:2f:fe:c3:60:4e:b0:0d:76:51:ec:
         15:d0:ad:47:28:34:75:0b:a0:d1:a0:94:cd:47:0b:ad:87:43:
         37:5f:88:25:14:13:53:61:6f:35:56:a9:d6:6c:a9:43:e7:68:
         da:99:2d:27:74:08:6f:00:e4:88:55:8f:7e:e0:3e:70:b6:08:
         64:e4:51:7f:5f:df:7a:de:db:8e:70:8e:97:46:11:83:9f:f0:
         3b:e2:a3:bf:ad:da:40:2c:42:48:e8:eb:d1:0b:0d:28:15:84:
         20:0f:e0:70:db:19:3c:9a:d4:3d:3e:ad:1e:32:33:f2:ab:c8:
         0b:5b:ed:18:cb:0e:cc:c0:2c:0a:c1:86:96:a2:38:e3:f6:7f:
         f8:cf:2e:b8:9d:e6:5a:22:6d:10:87:94:be:ba:ee:86:fd:60:
         57:bf:35:85:e5:f1:0b:ae:71:95:3b:96:17:f4:fe:45:96:fa:
         9c:3f:8d:de
-----BEGIN CERTIFICATE-----
MIIDWTCCAkGgAwIBAgIQZJHetGMLMFoVw7H+N60J6jANBgkqhkiG9w0BAQsFADAV
MRMwEQYDVQQDDAp0ZWFtNTYtbmV0MB4XDTIxMDkxMjIzMTA0OVoXDTI0MDgyNzIz
MTA0OVowGDEWMBQGA1UEAwwNdGVhbTU2LWNsaWVudDCCASIwDQYJKoZIhvcNAQEB
BQADggEPADCCAQoCggEBALjLAfaiQbWQ3PP0g7k1aSpLfcuwNkWtlYPElxEkuAf9
LVvVk4MYiF4aW32kzpIjV/xSTScCkFDsZeNeFFhMkeR1c435iEADjgVSE+cCd9oV
+6zIA5FLHXCuwuEdyev8+AX3u9vvQQAORUNRPR5DZQKrKLeUVIaPE3+TP2q06WXU
1BIHLVg31PUPafu+Ykj3IViXAN2nKLAx6CbEdstPLYaAe4WUI+mNwq0Zg1GF1vVT
J5iaNLnnjG1JmOYWUppHvWMkdTPWIsl3PzmcIWYYqFOOYJGMJm9AxAjaJK0WvGPt
bCsBTk+Of6YQWDHkuoQhoIS6OupvaJKDdPDV1y6TtiMCAwEAAaOBoTCBnjAJBgNV
HRMEAjAAMB0GA1UdDgQWBBRKnCKHd3tQTNXgRyMAUejr9+SaxjBQBgNVHSMESTBH
gBTitmC6gvJbSvP1jBO8yvJKizPAxaEZpBcwFTETMBEGA1UEAwwKdGVhbTU2LW5l
dIIUMZhYK9gJtdxEtXGf27XCj/sRQnMwEwYDVR0lBAwwCgYIKwYBBQUHAwIwCwYD
VR0PBAQDAgeAMA0GCSqGSIb3DQEBCwUAA4IBAQCc1LRZhtuZ+4qO9nCqo99QYMS6
3aKlb6Ccg4RkBZrcVDvYHorYqGqcV8+f3S4PRLsMT6mq372AWfjmZD1Z9Rf/viwW
OGY8RtBfJaBx3Nb5jy/+w2BOsA12UewV0K1HKDR1C6DRoJTNRwuth0M3X4glFBNT
YW81VqnWbKlD52jamS0ndAhvAOSIVY9+4D5wtghk5FF/X9963tuOcI6XRhGDn/A7
4qO/rdpALEJI6OvRCw0oFYQgD+Bw2xk8mtQ9Pq0eMjPyq8gLW+0Yyw7MwCwKwYaW
ojjj9n/4zy64neZaIm0Qh5S+uu6G/WBXvzWF5fELrnGVO5YX9P5FlvqcP43e
-----END CERTIFICATE-----
