Certificate:
    Data:
        Version: 3 (0x2)
        Serial Number:
            42:f9:a4:66:38:18:78:8c:b3:93:c6:d3:9c:e3:d7:e1
        Signature Algorithm: sha256WithRSAEncryption
        Issuer: CN=team417-net
        Validity
            Not Before: Sep 13 02:26:49 2021 GMT
            Not After : Aug 28 02:26:49 2024 GMT
        Subject: CN=team417-server
        Subject Public Key Info:
            Public Key Algorithm: rsaEncryption
                RSA Public-Key: (2048 bit)
                Modulus:
                    00:bd:1e:7d:47:c2:31:da:7c:bf:c3:26:1f:51:0a:
                    df:0c:4b:2c:9e:d0:10:00:fd:9a:a5:9e:31:f4:c3:
                    7f:68:94:a4:f6:69:0c:68:15:23:3d:ea:b7:6a:e0:
                    a7:dd:90:b4:aa:c0:d7:f7:e4:a5:ff:b3:7f:a2:95:
                    4c:48:c9:94:7b:ac:40:20:98:05:4e:e5:42:79:49:
                    ea:79:db:2e:36:1c:65:41:d2:c5:21:90:6c:b7:21:
                    da:3d:ac:ea:6e:8b:d9:84:80:73:da:66:51:45:d5:
                    56:15:77:ef:81:3a:e8:b2:e6:5e:8b:f8:38:01:07:
                    a7:db:03:b2:1f:97:d2:d9:a7:b8:d3:05:d5:5b:17:
                    fb:7e:a8:87:71:b0:7c:81:e6:7a:76:e8:36:a5:85:
                    92:0e:25:67:f2:86:05:56:20:54:7b:74:14:34:a9:
                    11:60:af:01:f5:61:7a:d5:7e:e8:3a:8f:7e:6b:10:
                    ff:04:a9:40:d5:be:c7:c4:b3:7b:b9:f0:c3:bc:71:
                    4b:9e:dc:33:de:a8:b1:a9:77:66:0e:af:c4:92:49:
                    34:18:b3:53:e0:d2:80:96:da:f2:c3:ee:4d:cc:38:
                    d6:dc:02:f8:fe:2a:8a:ab:af:47:a4:23:7a:c7:45:
                    59:a0:f7:b4:19:2b:22:50:d2:9c:b2:dc:a6:61:2a:
                    5f:cd
                Exponent: 65537 (0x10001)
        X509v3 extensions:
            X509v3 Basic Constraints: 
                CA:FALSE
            X509v3 Subject Key Identifier: 
                57:19:9B:B3:75:6B:8B:99:7B:D5:C6:9E:6E:63:F1:92:4B:49:E4:6E
            X509v3 Authority Key Identifier: 
                keyid:9D:A9:33:C3:82:92:A2:71:63:46:58:DE:A8:D8:EB:09:4A:D4:C8:EE
                DirName:/CN=team417-net
                serial:44:10:9E:6D:4B:20:29:3C:56:31:B5:C6:A5:61:21:8C:DA:5D:7B:2F

            X509v3 Extended Key Usage: 
                TLS Web Server Authentication
            X509v3 Key Usage: 
                Digital Signature, Key Encipherment
            X509v3 Subject Alternative Name: 
                DNS:team417-server
    Signature Algorithm: sha256WithRSAEncryption
         45:6f:04:61:45:10:ee:7b:d9:da:fd:74:91:66:0d:44:29:80:
         0c:77:bf:15:d6:ff:4c:ad:33:ed:81:32:3d:52:a3:9b:4c:d6:
         ad:5d:7f:ff:9e:e2:10:3a:7d:7c:c2:cf:56:98:03:38:19:f9:
         ce:ab:b5:66:1c:63:1f:3a:d9:b5:97:7a:b2:56:35:4c:49:6f:
         98:ff:68:72:e2:7c:c2:fc:0b:37:86:9d:be:bf:61:a1:97:e6:
         0d:cb:4f:59:c3:f5:3b:9a:de:75:f4:6c:1d:e0:a0:40:b7:72:
         5c:b3:03:03:66:25:2f:68:ae:43:ea:59:fd:df:99:ce:22:a8:
         41:67:35:a7:7f:03:d9:93:3f:36:9e:a9:f2:03:79:2c:67:1a:
         ee:ec:59:e2:3c:21:db:bf:c0:63:68:bc:3d:76:c2:87:34:62:
         87:b7:a6:bc:94:e4:84:2b:21:45:25:00:df:63:12:64:d0:f7:
         35:88:10:fe:a9:41:2a:48:12:17:9b:da:47:6e:80:fe:02:1d:
         21:71:18:92:f2:9b:52:12:bd:13:4e:bb:ae:9c:84:1e:fa:51:
         79:53:88:b9:a9:c2:df:c7:79:dc:10:09:6e:ee:7b:32:72:b9:
         9d:c1:12:59:26:a9:a4:51:c6:f6:20:6e:d1:27:3f:20:f1:bd:
         cf:84:93:43
-----BEGIN CERTIFICATE-----
MIIDdzCCAl+gAwIBAgIQQvmkZjgYeIyzk8bTnOPX4TANBgkqhkiG9w0BAQsFADAW
MRQwEgYDVQQDDAt0ZWFtNDE3LW5ldDAeFw0yMTA5MTMwMjI2NDlaFw0yNDA4Mjgw
MjI2NDlaMBkxFzAVBgNVBAMMDnRlYW00MTctc2VydmVyMIIBIjANBgkqhkiG9w0B
AQEFAAOCAQ8AMIIBCgKCAQEAvR59R8Ix2ny/wyYfUQrfDEssntAQAP2apZ4x9MN/
aJSk9mkMaBUjPeq3auCn3ZC0qsDX9+Sl/7N/opVMSMmUe6xAIJgFTuVCeUnqedsu
NhxlQdLFIZBstyHaPazqbovZhIBz2mZRRdVWFXfvgTrosuZei/g4AQen2wOyH5fS
2ae40wXVWxf7fqiHcbB8geZ6dug2pYWSDiVn8oYFViBUe3QUNKkRYK8B9WF61X7o
Oo9+axD/BKlA1b7HxLN7ufDDvHFLntwz3qixqXdmDq/Ekkk0GLNT4NKAltryw+5N
zDjW3AL4/iqKq69HpCN6x0VZoPe0GSsiUNKcstymYSpfzQIDAQABo4G9MIG6MAkG
A1UdEwQCMAAwHQYDVR0OBBYEFFcZm7N1a4uZe9XGnm5j8ZJLSeRuMFEGA1UdIwRK
MEiAFJ2pM8OCkqJxY0ZY3qjY6wlK1MjuoRqkGDAWMRQwEgYDVQQDDAt0ZWFtNDE3
LW5ldIIURBCebUsgKTxWMbXGpWEhjNpdey8wEwYDVR0lBAwwCgYIKwYBBQUHAwEw
CwYDVR0PBAQDAgWgMBkGA1UdEQQSMBCCDnRlYW00MTctc2VydmVyMA0GCSqGSIb3
DQEBCwUAA4IBAQBFbwRhRRDue9na/XSRZg1EKYAMd78V1v9MrTPtgTI9UqObTNat
XX//nuIQOn18ws9WmAM4GfnOq7VmHGMfOtm1l3qyVjVMSW+Y/2hy4nzC/As3hp2+
v2Ghl+YNy09Zw/U7mt519Gwd4KBAt3JcswMDZiUvaK5D6ln935nOIqhBZzWnfwPZ
kz82nqnyA3ksZxru7FniPCHbv8BjaLw9dsKHNGKHt6a8lOSEKyFFJQDfYxJk0Pc1
iBD+qUEqSBIXm9pHboD+Ah0hcRiS8ptSEr0TTruunIQe+lF5U4i5qcLfx3ncEAlu
7nsycrmdwRJZJqmkUcb2IG7RJz8g8b3PhJND
-----END CERTIFICATE-----
