Certificate:
    Data:
        Version: 3 (0x2)
        Serial Number:
            bb:53:c9:e6:02:8a:a7:df:4c:16:cb:29:13:03:8b:4e
        Signature Algorithm: sha256WithRSAEncryption
        Issuer: CN=team417-net
        Validity
            Not Before: Sep 13 02:26:49 2021 GMT
            Not After : Aug 28 02:26:49 2024 GMT
        Subject: CN=team417-client
        Subject Public Key Info:
            Public Key Algorithm: rsaEncryption
                RSA Public-Key: (2048 bit)
                Modulus:
                    00:b7:aa:9e:be:1b:42:d8:89:fa:3b:cf:8f:02:df:
                    6e:28:21:17:89:7f:ed:b3:12:97:a5:ec:46:e2:44:
                    f9:a7:7c:d6:66:42:4b:af:61:5c:5c:1c:f8:fa:d8:
                    73:02:97:ff:7f:14:fe:4d:ff:d4:f0:34:48:66:22:
                    cc:9e:dc:9a:c5:f3:af:1c:4f:30:7b:05:91:cd:4f:
                    c1:36:81:04:36:95:5f:97:4d:c8:09:4f:fc:a4:3f:
                    0e:96:2b:d6:d7:ea:ba:db:98:31:9a:0c:c3:b5:cc:
                    54:57:d6:25:21:29:f3:89:8f:2a:29:aa:77:14:a8:
                    f4:6f:5c:a3:39:cf:ff:6e:b5:f1:80:aa:8d:bd:94:
                    1e:05:4d:0f:0e:78:ea:5a:e0:57:ec:a3:89:d9:ad:
                    84:c5:1d:94:c6:61:a0:ee:7f:f1:2e:f0:bb:dc:c8:
                    45:68:5d:79:3d:32:db:96:43:c8:2b:87:8d:37:53:
                    7f:fd:62:0b:3d:8d:7c:2a:25:ee:af:69:cb:b6:fb:
                    eb:8b:14:15:e9:cd:f4:fa:15:e4:c6:01:2d:53:62:
                    94:d4:c8:c0:4a:99:38:52:10:bc:0d:5c:46:dc:3c:
                    cd:c2:61:62:3a:4c:a7:fc:9c:de:5e:08:45:2e:2a:
                    a6:e5:e2:f7:ad:3e:cb:c0:6e:83:f0:17:83:ad:fa:
                    6e:3f
                Exponent: 65537 (0x10001)
        X509v3 extensions:
            X509v3 Basic Constraints: 
                CA:FALSE
            X509v3 Subject Key Identifier: 
                D7:17:B4:E7:AF:DC:40:3B:85:8B:E9:49:72:E1:B8:27:A0:DB:9F:54
            X509v3 Authority Key Identifier: 
                keyid:9D:A9:33:C3:82:92:A2:71:63:46:58:DE:A8:D8:EB:09:4A:D4:C8:EE
                DirName:/CN=team417-net
                serial:44:10:9E:6D:4B:20:29:3C:56:31:B5:C6:A5:61:21:8C:DA:5D:7B:2F

            X509v3 Extended Key Usage: 
                TLS Web Client Authentication
            X509v3 Key Usage: 
                Digital Signature
    Signature Algorithm: sha256WithRSAEncryption
         1f:e6:ba:8d:75:90:41:d1:71:f2:27:80:d1:16:52:42:d4:cb:
         23:81:da:b8:12:0b:56:d7:24:7a:5d:97:ed:f0:cb:9d:c6:9a:
         a6:fd:58:e3:ed:7e:b8:5c:d0:06:84:97:5d:c1:23:db:e5:5f:
         75:63:f2:e7:7d:d2:cf:84:25:7c:64:b1:fb:76:b6:57:7e:36:
         d0:e3:79:25:1f:64:a4:3d:e2:a6:4c:a9:6b:f7:20:7d:c6:a7:
         2f:7b:3a:83:3d:2c:36:79:3d:ab:b4:0b:f9:5a:71:21:d1:1a:
         bf:bb:89:e3:b4:e9:b3:d8:da:1a:5f:9d:28:71:b4:38:5d:81:
         b1:1e:70:ae:5f:ba:93:90:1f:41:bb:ec:0e:05:24:1a:9c:d9:
         13:8a:b1:db:da:21:2a:74:6a:30:15:95:c1:36:25:10:33:ec:
         6f:13:48:f2:7c:ff:03:03:cc:7f:c1:b0:2b:b9:c9:fc:7c:74:
         ed:a4:35:f6:b7:fa:eb:81:d8:44:43:64:91:28:1a:52:c8:4b:
         ee:0b:1d:23:bc:a7:42:aa:31:84:b6:3e:22:e5:d7:70:c4:14:
         ad:d0:d9:f1:b6:17:82:e7:2a:47:3a:6f:21:6e:a1:3a:c1:68:
         6e:ee:7a:63:f2:09:b4:4f:fa:6e:86:77:7e:d6:61:7e:ff:05:
         8d:11:26:03
-----BEGIN CERTIFICATE-----
MIIDXTCCAkWgAwIBAgIRALtTyeYCiqffTBbLKRMDi04wDQYJKoZIhvcNAQELBQAw
FjEUMBIGA1UEAwwLdGVhbTQxNy1uZXQwHhcNMjEwOTEzMDIyNjQ5WhcNMjQwODI4
MDIyNjQ5WjAZMRcwFQYDVQQDDA50ZWFtNDE3LWNsaWVudDCCASIwDQYJKoZIhvcN
AQEBBQADggEPADCCAQoCggEBALeqnr4bQtiJ+jvPjwLfbighF4l/7bMSl6XsRuJE
+ad81mZCS69hXFwc+PrYcwKX/38U/k3/1PA0SGYizJ7cmsXzrxxPMHsFkc1PwTaB
BDaVX5dNyAlP/KQ/DpYr1tfqutuYMZoMw7XMVFfWJSEp84mPKimqdxSo9G9coznP
/2618YCqjb2UHgVNDw546lrgV+yjidmthMUdlMZhoO5/8S7wu9zIRWhdeT0y25ZD
yCuHjTdTf/1iCz2NfCol7q9py7b764sUFenN9PoV5MYBLVNilNTIwEqZOFIQvA1c
Rtw8zcJhYjpMp/yc3l4IRS4qpuXi960+y8Bug/AXg636bj8CAwEAAaOBojCBnzAJ
BgNVHRMEAjAAMB0GA1UdDgQWBBTXF7Tnr9xAO4WL6Uly4bgnoNufVDBRBgNVHSME
SjBIgBSdqTPDgpKicWNGWN6o2OsJStTI7qEapBgwFjEUMBIGA1UEAwwLdGVhbTQx
Ny1uZXSCFEQQnm1LICk8VjG1xqVhIYzaXXsvMBMGA1UdJQQMMAoGCCsGAQUFBwMC
MAsGA1UdDwQEAwIHgDANBgkqhkiG9w0BAQsFAAOCAQEAH+a6jXWQQdFx8ieA0RZS
QtTLI4HauBILVtckel2X7fDLncaapv1Y4+1+uFzQBoSXXcEj2+VfdWPy533Sz4Ql
fGSx+3a2V3420ON5JR9kpD3ipkypa/cgfcanL3s6gz0sNnk9q7QL+VpxIdEav7uJ
47Tps9jaGl+dKHG0OF2BsR5wrl+6k5AfQbvsDgUkGpzZE4qx29ohKnRqMBWVwTYl
EDPsbxNI8nz/AwPMf8GwK7nJ/Hx07aQ19rf664HYRENkkSgaUshL7gsdI7ynQqox
hLY+IuXXcMQUrdDZ8bYXgucqRzpvIW6hOsFobu56Y/IJtE/6boZ3ftZhfv8FjREm
Aw==
-----END CERTIFICATE-----
