Certificate:
    Data:
        Version: 3 (0x2)
        Serial Number:
            56:37:29:1e:4e:55:d5:40:21:0d:1a:40:12:e2:2f:c7
        Signature Algorithm: sha256WithRSAEncryption
        Issuer: CN=team15-net
        Validity
            Not Before: Sep 12 22:47:00 2021 GMT
            Not After : Aug 27 22:47:00 2024 GMT
        Subject: CN=team15-client
        Subject Public Key Info:
            Public Key Algorithm: rsaEncryption
                RSA Public-Key: (2048 bit)
                Modulus:
                    00:e4:85:3d:f4:ee:f3:80:1a:f1:87:0a:9f:f3:bc:
                    e5:ef:f2:07:11:52:e6:16:c2:03:ef:63:5a:61:f0:
                    fe:96:be:6d:42:43:bc:d3:0e:ce:d0:c6:63:1c:b6:
                    46:b1:c5:06:f3:d4:ee:4c:47:b4:16:a6:d3:ba:ce:
                    d8:41:fa:38:eb:5e:63:7f:bd:d7:03:2b:4d:e5:70:
                    39:d4:d4:53:23:3c:c6:f9:99:91:e2:f5:9c:2d:e5:
                    22:56:76:30:f1:c4:f5:41:4e:05:39:2f:02:16:63:
                    06:4d:5f:a7:2b:05:cc:3c:55:b3:8a:10:3f:cf:fb:
                    a5:b6:e1:13:6b:af:ea:fd:bd:02:d1:95:ce:68:21:
                    0f:98:be:06:e7:a9:0c:f9:6f:79:0b:b0:e2:21:a0:
                    4d:ec:f9:d9:5d:89:46:ae:96:1f:4a:01:e5:a6:99:
                    7f:52:ac:c8:30:55:fe:51:08:08:34:a2:5b:99:72:
                    7f:5d:28:40:51:db:c0:8a:1e:73:0b:c9:ca:3c:74:
                    bd:48:6c:66:fd:f3:82:07:48:86:5a:33:e0:59:33:
                    3e:ee:b8:fd:5c:05:b5:84:59:d8:8e:7d:fd:b2:db:
                    97:45:b6:c6:2b:fb:28:bb:cf:0d:9a:45:68:57:37:
                    29:52:e6:fc:26:66:12:85:2a:68:dd:7a:00:7b:b3:
                    b6:1b
                Exponent: 65537 (0x10001)
        X509v3 extensions:
            X509v3 Basic Constraints: 
                CA:FALSE
            X509v3 Subject Key Identifier: 
                55:12:91:57:4D:5E:F1:3A:32:D8:39:3A:68:9F:BD:5F:DC:F8:79:9B
            X509v3 Authority Key Identifier: 
                keyid:72:87:55:2E:E3:59:F8:F8:9A:1A:39:2C:82:8C:16:7F:30:43:80:59
                DirName:/CN=team15-net
                serial:71:87:B0:34:34:95:80:95:96:1E:FD:99:77:FB:12:D6:A8:02:B3:33

            X509v3 Extended Key Usage: 
                TLS Web Client Authentication
            X509v3 Key Usage: 
                Digital Signature
    Signature Algorithm: sha256WithRSAEncryption
         52:dc:77:e0:d2:e0:33:89:83:8e:e6:96:af:40:07:4c:5d:17:
         af:84:6b:a4:67:69:3a:97:9b:2b:5f:09:a9:c3:d8:b0:30:fe:
         e0:f6:35:54:14:39:61:f8:bf:26:1f:af:c5:ba:6f:d8:53:80:
         e7:3c:2f:aa:46:38:68:07:0d:d0:c3:e3:74:a9:d8:f7:7e:a9:
         8e:dc:42:2c:48:ab:77:68:53:23:b9:2e:91:65:33:98:2a:0b:
         11:78:0c:cb:b5:66:5a:3f:d1:b4:3a:21:fb:a3:f3:78:37:2a:
         93:2d:2e:cb:a5:6f:5a:bc:d5:6c:a4:11:0c:b3:6e:96:50:4a:
         4f:c9:1d:e4:9c:3b:3e:db:7a:0e:4c:41:b2:f8:76:59:21:bf:
         1f:1d:04:cc:45:c2:7b:84:5d:25:ed:2e:99:40:91:67:31:16:
         1c:27:97:c8:75:64:78:ff:67:9f:99:e6:9f:55:81:fa:23:a2:
         0f:94:f0:10:71:2e:e6:18:be:0b:cc:ba:a5:91:7e:da:64:1b:
         3c:60:e1:21:8a:6d:47:96:af:b6:0a:ae:96:6d:b5:e1:6c:45:
         88:3a:3f:e9:11:a5:39:fb:a7:d7:7e:0c:23:de:fc:7f:e1:01:
         ea:dc:56:11:d3:bb:6c:c3:f7:9a:78:be:0e:d8:3b:2b:e9:1d:
         02:65:6d:50
-----BEGIN CERTIFICATE-----
MIIDWTCCAkGgAwIBAgIQVjcpHk5V1UAhDRpAEuIvxzANBgkqhkiG9w0BAQsFADAV
MRMwEQYDVQQDDAp0ZWFtMTUtbmV0MB4XDTIxMDkxMjIyNDcwMFoXDTI0MDgyNzIy
NDcwMFowGDEWMBQGA1UEAwwNdGVhbTE1LWNsaWVudDCCASIwDQYJKoZIhvcNAQEB
BQADggEPADCCAQoCggEBAOSFPfTu84Aa8YcKn/O85e/yBxFS5hbCA+9jWmHw/pa+
bUJDvNMOztDGYxy2RrHFBvPU7kxHtBam07rO2EH6OOteY3+91wMrTeVwOdTUUyM8
xvmZkeL1nC3lIlZ2MPHE9UFOBTkvAhZjBk1fpysFzDxVs4oQP8/7pbbhE2uv6v29
AtGVzmghD5i+BuepDPlveQuw4iGgTez52V2JRq6WH0oB5aaZf1KsyDBV/lEICDSi
W5lyf10oQFHbwIoecwvJyjx0vUhsZv3zggdIhloz4FkzPu64/VwFtYRZ2I59/bLb
l0W2xiv7KLvPDZpFaFc3KVLm/CZmEoUqaN16AHuzthsCAwEAAaOBoTCBnjAJBgNV
HRMEAjAAMB0GA1UdDgQWBBRVEpFXTV7xOjLYOTpon71f3Ph5mzBQBgNVHSMESTBH
gBRyh1Uu41n4+JoaOSyCjBZ/MEOAWaEZpBcwFTETMBEGA1UEAwwKdGVhbTE1LW5l
dIIUcYewNDSVgJWWHv2Zd/sS1qgCszMwEwYDVR0lBAwwCgYIKwYBBQUHAwIwCwYD
VR0PBAQDAgeAMA0GCSqGSIb3DQEBCwUAA4IBAQBS3Hfg0uAziYOO5pavQAdMXRev
hGukZ2k6l5srXwmpw9iwMP7g9jVUFDlh+L8mH6/Fum/YU4DnPC+qRjhoBw3Qw+N0
qdj3fqmO3EIsSKt3aFMjuS6RZTOYKgsReAzLtWZaP9G0OiH7o/N4NyqTLS7LpW9a
vNVspBEMs26WUEpPyR3knDs+23oOTEGy+HZZIb8fHQTMRcJ7hF0l7S6ZQJFnMRYc
J5fIdWR4/2efmeafVYH6I6IPlPAQcS7mGL4LzLqlkX7aZBs8YOEhim1Hlq+2Cq6W
bbXhbEWIOj/pEaU5+6fXfgwj3vx/4QHq3FYR07tsw/eaeL4O2Dsr6R0CZW1Q
-----END CERTIFICATE-----
