Certificate:
    Data:
        Version: 3 (0x2)
        Serial Number:
            58:ab:de:68:80:b8:0d:4a:4b:de:03:e5:5f:cf:2d:14
        Signature Algorithm: sha256WithRSAEncryption
        Issuer: CN=team15-net
        Validity
            Not Before: Sep 12 22:47:00 2021 GMT
            Not After : Aug 27 22:47:00 2024 GMT
        Subject: CN=team15-server
        Subject Public Key Info:
            Public Key Algorithm: rsaEncryption
                RSA Public-Key: (2048 bit)
                Modulus:
                    00:d2:fb:83:ea:43:3a:ac:bd:f8:06:c2:5c:56:78:
                    7b:5a:dd:11:20:64:33:ca:f0:0a:21:5b:6e:c5:48:
                    83:21:b3:88:2f:0b:90:1f:65:b7:f4:04:c7:78:6f:
                    a1:92:8e:91:f1:fd:37:b0:5a:3d:4d:aa:ec:c4:59:
                    22:bf:4b:38:dd:72:04:04:19:17:b9:a4:6b:7b:41:
                    d5:db:bf:18:26:b0:3a:3a:78:64:47:79:65:5b:1a:
                    ec:3b:6a:c6:c9:c5:28:1e:1f:24:de:68:f6:c4:ca:
                    01:aa:3d:5d:63:3f:a2:d1:63:78:21:93:d7:a2:6e:
                    62:92:01:01:4a:c9:28:db:8d:59:96:4d:60:62:9d:
                    3e:df:57:db:73:c9:cb:03:3b:f8:d9:ac:ee:b7:38:
                    02:11:a0:b8:9c:7b:9f:e2:b7:95:b9:25:2e:23:b4:
                    93:46:4d:42:04:e5:10:d1:7a:23:f2:e0:af:92:c7:
                    47:c8:a5:15:c4:f2:fb:b8:b8:7b:15:f6:b6:b2:61:
                    c7:1f:08:fa:cd:b2:32:58:ab:b4:b3:e2:56:ae:b5:
                    7f:5e:eb:26:d1:8f:51:47:31:07:cc:7a:96:b9:5b:
                    60:fb:f9:7e:f0:f5:d0:fe:6a:28:78:28:48:6a:b8:
                    55:d8:7b:23:39:50:10:bd:50:70:5d:1f:7d:2f:f0:
                    e9:31
                Exponent: 65537 (0x10001)
        X509v3 extensions:
            X509v3 Basic Constraints: 
                CA:FALSE
            X509v3 Subject Key Identifier: 
                8D:49:E2:34:13:24:86:23:05:69:29:6C:C5:34:42:FD:24:4C:47:79
            X509v3 Authority Key Identifier: 
                keyid:72:87:55:2E:E3:59:F8:F8:9A:1A:39:2C:82:8C:16:7F:30:43:80:59
                DirName:/CN=team15-net
                serial:71:87:B0:34:34:95:80:95:96:1E:FD:99:77:FB:12:D6:A8:02:B3:33

            X509v3 Extended Key Usage: 
                TLS Web Server Authentication
            X509v3 Key Usage: 
                Digital Signature, Key Encipherment
            X509v3 Subject Alternative Name: 
                DNS:team15-server
    Signature Algorithm: sha256WithRSAEncryption
         13:c2:3a:5f:25:4b:3d:5a:2e:5d:e4:87:60:95:dd:21:33:91:
         a8:29:52:25:b4:17:3f:d9:d1:41:ac:1c:c2:0d:0a:cc:82:b2:
         17:fc:3b:f5:8a:e3:2b:f5:95:3e:fb:8b:7a:f5:c3:a4:e6:f0:
         c6:fc:68:d3:14:8f:02:b1:e4:0e:ea:30:eb:b7:d7:50:a9:70:
         e2:a1:3f:40:1e:ff:28:57:df:7f:46:09:2e:1e:e6:7b:15:23:
         74:e4:f1:97:64:21:87:35:cb:2e:05:a0:a6:6c:fe:dc:1c:53:
         de:b3:9f:a4:fe:66:8f:80:9c:ad:6a:99:f3:48:02:fc:66:62:
         94:2d:8c:00:71:66:48:13:75:d0:42:92:5c:fc:ae:94:9b:a0:
         db:3c:42:d6:a7:14:77:bf:4d:fd:2c:0c:2b:9f:d0:bc:fb:04:
         69:f5:05:fc:43:2e:41:29:c2:09:fc:18:56:e6:6b:bb:3b:57:
         8c:b2:88:82:61:89:e8:24:b4:13:dd:a7:86:af:68:4c:d9:79:
         6d:d9:4e:00:e7:9a:a1:cf:cf:c6:fe:7d:b4:5d:fb:f3:af:cf:
         ee:3a:4e:3f:ec:c0:64:a0:76:a1:c3:ae:41:f3:41:5b:53:86:
         41:92:13:fa:1c:8c:8b:76:85:e2:b1:6d:0d:bf:44:02:48:25:
         aa:29:15:06
-----BEGIN CERTIFICATE-----
MIIDczCCAlugAwIBAgIQWKveaIC4DUpL3gPlX88tFDANBgkqhkiG9w0BAQsFADAV
MRMwEQYDVQQDDAp0ZWFtMTUtbmV0MB4XDTIxMDkxMjIyNDcwMFoXDTI0MDgyNzIy
NDcwMFowGDEWMBQGA1UEAwwNdGVhbTE1LXNlcnZlcjCCASIwDQYJKoZIhvcNAQEB
BQADggEPADCCAQoCggEBANL7g+pDOqy9+AbCXFZ4e1rdESBkM8rwCiFbbsVIgyGz
iC8LkB9lt/QEx3hvoZKOkfH9N7BaPU2q7MRZIr9LON1yBAQZF7mka3tB1du/GCaw
Ojp4ZEd5ZVsa7DtqxsnFKB4fJN5o9sTKAao9XWM/otFjeCGT16JuYpIBAUrJKNuN
WZZNYGKdPt9X23PJywM7+Nms7rc4AhGguJx7n+K3lbklLiO0k0ZNQgTlENF6I/Lg
r5LHR8ilFcTy+7i4exX2trJhxx8I+s2yMlirtLPiVq61f17rJtGPUUcxB8x6lrlb
YPv5fvD10P5qKHgoSGq4Vdh7IzlQEL1QcF0ffS/w6TECAwEAAaOBuzCBuDAJBgNV
HRMEAjAAMB0GA1UdDgQWBBSNSeI0EySGIwVpKWzFNEL9JExHeTBQBgNVHSMESTBH
gBRyh1Uu41n4+JoaOSyCjBZ/MEOAWaEZpBcwFTETMBEGA1UEAwwKdGVhbTE1LW5l
dIIUcYewNDSVgJWWHv2Zd/sS1qgCszMwEwYDVR0lBAwwCgYIKwYBBQUHAwEwCwYD
VR0PBAQDAgWgMBgGA1UdEQQRMA+CDXRlYW0xNS1zZXJ2ZXIwDQYJKoZIhvcNAQEL
BQADggEBABPCOl8lSz1aLl3kh2CV3SEzkagpUiW0Fz/Z0UGsHMINCsyCshf8O/WK
4yv1lT77i3r1w6Tm8Mb8aNMUjwKx5A7qMOu311CpcOKhP0Ae/yhX339GCS4e5nsV
I3Tk8ZdkIYc1yy4FoKZs/twcU96zn6T+Zo+AnK1qmfNIAvxmYpQtjABxZkgTddBC
klz8rpSboNs8QtanFHe/Tf0sDCuf0Lz7BGn1BfxDLkEpwgn8GFbma7s7V4yyiIJh
iegktBPdp4avaEzZeW3ZTgDnmqHPz8b+fbRd+/Ovz+46Tj/swGSgdqHDrkHzQVtT
hkGSE/ocjIt2heKxbQ2/RAJIJaopFQY=
-----END CERTIFICATE-----
