Certificate:
    Data:
        Version: 3 (0x2)
        Serial Number:
            62:0e:79:b9:91:e5:75:9b:ef:cc:16:aa:40:22:f6:ac
        Signature Algorithm: sha256WithRSAEncryption
        Issuer: CN=team492-net
        Validity
            Not Before: Sep 13 03:11:18 2021 GMT
            Not After : Aug 28 03:11:18 2024 GMT
        Subject: CN=team492-server
        Subject Public Key Info:
            Public Key Algorithm: rsaEncryption
                RSA Public-Key: (2048 bit)
                Modulus:
                    00:cc:2b:9b:de:cb:69:0c:19:d2:c3:74:09:20:9f:
                    ac:8e:cd:c1:d9:b0:8c:e5:74:5c:1d:03:0c:e2:d4:
                    c5:12:71:40:94:18:8f:88:39:e9:cb:3c:b8:95:e6:
                    f8:0e:9c:c0:19:59:e7:a0:57:8e:97:19:69:8a:a2:
                    08:4b:84:ef:a3:86:d0:00:5d:60:b3:be:86:9d:25:
                    82:d0:1a:a8:ca:e4:50:67:1f:7b:5e:83:c2:da:91:
                    b0:f1:7e:65:38:57:42:20:1f:a2:22:51:9d:34:6d:
                    2e:b5:96:cb:12:29:04:d5:75:3e:b3:8e:f9:31:d1:
                    5a:48:bd:cc:f2:eb:c9:8d:56:7b:fe:c2:33:b0:50:
                    22:b0:89:5b:5c:65:51:be:e9:cf:ea:ed:16:36:c8:
                    ec:1c:74:79:a8:9d:50:e1:04:e1:7c:f7:56:80:ec:
                    ca:74:2c:47:98:f1:05:90:e7:b1:d2:df:f6:8f:f5:
                    ea:05:5d:e8:65:5b:3c:3c:8d:5a:4d:2d:6d:97:ca:
                    a9:a1:3c:42:b0:4c:64:91:aa:80:48:d9:a2:03:c2:
                    44:90:00:6b:1c:4d:48:e2:5c:ec:70:09:61:1a:2f:
                    9e:ee:35:9e:dc:4d:a5:fc:11:a7:92:df:35:00:b0:
                    14:63:1c:99:08:4e:b4:60:f2:1b:9b:cc:0e:46:b0:
                    81:85
                Exponent: 65537 (0x10001)
        X509v3 extensions:
            X509v3 Basic Constraints: 
                CA:FALSE
            X509v3 Subject Key Identifier: 
                6C:19:10:BA:E4:87:18:DA:9D:BE:20:22:40:6A:17:EA:80:42:58:6D
            X509v3 Authority Key Identifier: 
                keyid:68:BB:68:06:44:8F:07:7A:E5:52:30:65:8D:E8:58:C0:BA:39:32:AA
                DirName:/CN=team492-net
                serial:2F:03:2B:85:55:AD:5B:D3:31:2E:77:56:8D:65:CB:98:3B:FD:7B:1F

            X509v3 Extended Key Usage: 
                TLS Web Server Authentication
            X509v3 Key Usage: 
                Digital Signature, Key Encipherment
            X509v3 Subject Alternative Name: 
                DNS:team492-server
    Signature Algorithm: sha256WithRSAEncryption
         8d:e7:68:50:b1:06:0a:fb:0a:ec:17:6c:fa:ad:c0:cc:f5:a3:
         22:ff:76:4a:de:6a:69:7b:a6:4a:c2:36:40:85:59:4c:c8:02:
         00:4b:23:08:8b:65:77:13:e4:26:d1:f2:ee:bb:7d:ba:5d:08:
         c1:5c:d4:0c:9d:84:18:af:1c:f0:f0:0c:df:37:51:4a:d9:8c:
         48:af:fb:da:97:79:ff:8f:f0:5e:5b:6f:e5:a4:27:32:ca:0f:
         d9:1c:83:e7:da:0f:b9:d5:d8:e1:65:cb:8f:6d:99:ab:15:c2:
         84:b6:f8:d1:5a:b3:f3:3f:b7:e3:15:6a:b5:13:44:bc:d1:05:
         81:4e:c1:af:e0:41:9a:71:87:d5:d4:e3:d7:6d:8f:b3:af:6b:
         00:fe:5c:a5:1e:e6:a8:2a:4c:f3:66:d5:13:85:ca:c4:c4:2a:
         26:a8:1b:7f:a8:d5:a1:c6:5e:cb:ca:bf:71:0f:5d:3c:37:68:
         9e:d5:00:f9:12:b9:9f:7e:05:d0:b4:4d:6e:51:71:0d:fb:a8:
         e2:e2:01:e1:d3:fa:e0:cb:d7:1f:e9:fc:ff:cb:2a:2f:72:36:
         d3:1c:93:52:81:e2:51:77:61:3d:93:a5:0b:b7:4d:12:01:5b:
         4e:45:03:c5:39:8c:7c:b0:2c:72:6c:0e:5c:66:19:42:4e:2b:
         be:0e:11:8b
-----BEGIN CERTIFICATE-----
MIIDdzCCAl+gAwIBAgIQYg55uZHldZvvzBaqQCL2rDANBgkqhkiG9w0BAQsFADAW
MRQwEgYDVQQDDAt0ZWFtNDkyLW5ldDAeFw0yMTA5MTMwMzExMThaFw0yNDA4Mjgw
MzExMThaMBkxFzAVBgNVBAMMDnRlYW00OTItc2VydmVyMIIBIjANBgkqhkiG9w0B
AQEFAAOCAQ8AMIIBCgKCAQEAzCub3stpDBnSw3QJIJ+sjs3B2bCM5XRcHQMM4tTF
EnFAlBiPiDnpyzy4leb4DpzAGVnnoFeOlxlpiqIIS4Tvo4bQAF1gs76GnSWC0Bqo
yuRQZx97XoPC2pGw8X5lOFdCIB+iIlGdNG0utZbLEikE1XU+s475MdFaSL3M8uvJ
jVZ7/sIzsFAisIlbXGVRvunP6u0WNsjsHHR5qJ1Q4QThfPdWgOzKdCxHmPEFkOex
0t/2j/XqBV3oZVs8PI1aTS1tl8qpoTxCsExkkaqASNmiA8JEkABrHE1I4lzscAlh
Gi+e7jWe3E2l/BGnkt81ALAUYxyZCE60YPIbm8wORrCBhQIDAQABo4G9MIG6MAkG
A1UdEwQCMAAwHQYDVR0OBBYEFGwZELrkhxjanb4gIkBqF+qAQlhtMFEGA1UdIwRK
MEiAFGi7aAZEjwd65VIwZY3oWMC6OTKqoRqkGDAWMRQwEgYDVQQDDAt0ZWFtNDky
LW5ldIIULwMrhVWtW9MxLndWjWXLmDv9ex8wEwYDVR0lBAwwCgYIKwYBBQUHAwEw
CwYDVR0PBAQDAgWgMBkGA1UdEQQSMBCCDnRlYW00OTItc2VydmVyMA0GCSqGSIb3
DQEBCwUAA4IBAQCN52hQsQYK+wrsF2z6rcDM9aMi/3ZK3mppe6ZKwjZAhVlMyAIA
SyMIi2V3E+Qm0fLuu326XQjBXNQMnYQYrxzw8AzfN1FK2YxIr/val3n/j/BeW2/l
pCcyyg/ZHIPn2g+51djhZcuPbZmrFcKEtvjRWrPzP7fjFWq1E0S80QWBTsGv4EGa
cYfV1OPXbY+zr2sA/lylHuaoKkzzZtUThcrExComqBt/qNWhxl7Lyr9xD108N2ie
1QD5ErmffgXQtE1uUXEN+6ji4gHh0/rgy9cf6fz/yyovcjbTHJNSgeJRd2E9k6UL
t00SAVtORQPFOYx8sCxybA5cZhlCTiu+DhGL
-----END CERTIFICATE-----
