Certificate:
    Data:
        Version: 3 (0x2)
        Serial Number:
            74:65:85:f5:91:ed:86:b9:20:88:0b:ae:d4:74:f1:ac
        Signature Algorithm: sha256WithRSAEncryption
        Issuer: CN=team43-net
        Validity
            Not Before: Sep 12 23:06:18 2021 GMT
            Not After : Aug 27 23:06:18 2024 GMT
        Subject: CN=team43-client
        Subject Public Key Info:
            Public Key Algorithm: rsaEncryption
                RSA Public-Key: (2048 bit)
                Modulus:
                    00:9c:6a:57:c2:69:e2:10:43:15:c1:92:1e:83:65:
                    6e:c9:45:d0:4a:aa:c2:0e:04:e9:19:a5:ad:ca:9f:
                    7b:bd:9c:38:50:77:ff:bd:66:e9:fd:7e:42:3e:c6:
                    ef:1e:86:79:a1:83:1b:73:88:65:e2:06:37:7d:63:
                    bb:9c:bd:19:12:35:99:48:51:c8:d0:d1:b3:da:ae:
                    19:e7:4f:cc:00:07:3e:ed:13:8a:e7:a9:e4:87:be:
                    6b:fe:48:b1:7a:5c:d4:ff:ee:e0:cd:c8:9d:c7:13:
                    69:77:e9:2a:b4:28:a1:6f:0d:62:1a:e9:71:de:62:
                    31:05:06:f1:3f:3d:2a:65:e8:68:cd:87:46:ff:e4:
                    0b:6d:43:01:f6:4d:a3:68:10:a5:aa:d9:13:d9:09:
                    a0:df:3c:ab:06:d0:e1:79:4b:b1:34:30:af:a1:c1:
                    ec:b5:34:0a:47:03:ae:16:eb:b5:6c:a1:62:b5:74:
                    d2:15:8a:cd:5e:36:dd:99:6e:9d:2f:8c:18:63:09:
                    f0:7d:24:70:cf:63:e3:ac:3c:b8:40:c6:3c:3d:bc:
                    6f:eb:bd:eb:9d:82:9a:2f:ef:e8:53:0b:91:9c:6f:
                    48:39:22:18:18:67:83:64:44:3d:8d:07:04:aa:5a:
                    91:06:23:fc:23:90:0d:05:f4:e9:d7:16:e8:66:e0:
                    e7:77
                Exponent: 65537 (0x10001)
        X509v3 extensions:
            X509v3 Basic Constraints: 
                CA:FALSE
            X509v3 Subject Key Identifier: 
                5B:76:E2:C4:27:3B:8B:BE:70:E8:94:CC:A8:C9:21:C8:A0:80:3C:B3
            X509v3 Authority Key Identifier: 
                keyid:91:E9:0D:89:35:2B:A9:E7:8C:E8:22:3E:1A:D3:31:C8:70:6E:1E:42
                DirName:/CN=team43-net
                serial:4A:5D:E1:D7:E5:6B:C4:76:CE:4E:E5:59:72:2E:D7:74:0A:CB:08:C9

            X509v3 Extended Key Usage: 
                TLS Web Client Authentication
            X509v3 Key Usage: 
                Digital Signature
    Signature Algorithm: sha256WithRSAEncryption
         42:d2:df:0b:94:a5:26:b0:e9:d3:ee:43:db:d2:dc:1f:be:cb:
         ee:cb:0b:1a:75:dc:60:e1:85:f3:c3:2f:b8:f7:88:3c:6c:78:
         95:2a:0c:75:d4:ef:0b:57:b0:9c:c8:75:84:af:c7:5a:aa:6c:
         44:aa:49:ac:72:cf:ba:d4:e9:2c:7a:d9:2b:ee:9f:9d:48:c3:
         2a:db:51:bf:f8:69:6c:90:5d:ed:be:d0:20:37:94:05:aa:77:
         62:a7:9c:5d:c8:a0:43:67:90:5f:62:3f:c7:2f:92:b5:77:d5:
         64:7d:91:37:ee:4a:40:87:0d:e8:69:91:0a:5c:88:f9:9c:19:
         8a:47:c8:4c:49:bd:37:5b:1d:d8:1b:d9:62:6c:98:cb:a2:30:
         c5:bc:04:d9:e2:71:54:d1:53:c3:de:ca:0a:cb:77:de:e8:83:
         b5:db:2a:27:d6:09:84:b8:ef:b0:d1:fd:1a:4e:84:09:41:96:
         47:46:81:38:6d:ca:be:8e:7c:31:51:f8:89:cc:c7:56:e8:c4:
         1b:43:a0:5b:c5:cc:10:5d:f3:db:ea:1f:9e:03:d5:2b:f5:c2:
         c4:a2:7d:bd:f5:78:bb:cc:03:0d:a1:a8:90:99:e9:4a:11:83:
         42:55:e4:44:6f:26:88:37:49:b0:ae:86:4f:ca:f8:53:38:36:
         18:99:c0:44
-----BEGIN CERTIFICATE-----
MIIDWTCCAkGgAwIBAgIQdGWF9ZHthrkgiAuu1HTxrDANBgkqhkiG9w0BAQsFADAV
MRMwEQYDVQQDDAp0ZWFtNDMtbmV0MB4XDTIxMDkxMjIzMDYxOFoXDTI0MDgyNzIz
MDYxOFowGDEWMBQGA1UEAwwNdGVhbTQzLWNsaWVudDCCASIwDQYJKoZIhvcNAQEB
BQADggEPADCCAQoCggEBAJxqV8Jp4hBDFcGSHoNlbslF0Eqqwg4E6Rmlrcqfe72c
OFB3/71m6f1+Qj7G7x6GeaGDG3OIZeIGN31ju5y9GRI1mUhRyNDRs9quGedPzAAH
Pu0Tiuep5Ie+a/5IsXpc1P/u4M3InccTaXfpKrQooW8NYhrpcd5iMQUG8T89KmXo
aM2HRv/kC21DAfZNo2gQparZE9kJoN88qwbQ4XlLsTQwr6HB7LU0CkcDrhbrtWyh
YrV00hWKzV423ZlunS+MGGMJ8H0kcM9j46w8uEDGPD28b+u9652Cmi/v6FMLkZxv
SDkiGBhng2REPY0HBKpakQYj/COQDQX06dcW6Gbg53cCAwEAAaOBoTCBnjAJBgNV
HRMEAjAAMB0GA1UdDgQWBBRbduLEJzuLvnDolMyoySHIoIA8szBQBgNVHSMESTBH
gBSR6Q2JNSup54zoIj4a0zHIcG4eQqEZpBcwFTETMBEGA1UEAwwKdGVhbTQzLW5l
dIIUSl3h1+VrxHbOTuVZci7XdArLCMkwEwYDVR0lBAwwCgYIKwYBBQUHAwIwCwYD
VR0PBAQDAgeAMA0GCSqGSIb3DQEBCwUAA4IBAQBC0t8LlKUmsOnT7kPb0twfvsvu
ywsaddxg4YXzwy+494g8bHiVKgx11O8LV7CcyHWEr8daqmxEqkmscs+61Oksetkr
7p+dSMMq21G/+GlskF3tvtAgN5QFqndip5xdyKBDZ5BfYj/HL5K1d9VkfZE37kpA
hw3oaZEKXIj5nBmKR8hMSb03Wx3YG9libJjLojDFvATZ4nFU0VPD3soKy3fe6IO1
2yon1gmEuO+w0f0aToQJQZZHRoE4bcq+jnwxUfiJzMdW6MQbQ6BbxcwQXfPb6h+e
A9Ur9cLEon299Xi7zAMNoaiQmelKEYNCVeREbyaIN0mwroZPyvhTODYYmcBE
-----END CERTIFICATE-----
