Certificate:
    Data:
        Version: 3 (0x2)
        Serial Number:
            13:6b:dd:d1:3e:83:60:96:b1:7e:01:fe:c0:5f:a1:5b
        Signature Algorithm: sha256WithRSAEncryption
        Issuer: CN=team260-net
        Validity
            Not Before: Sep 13 01:08:32 2021 GMT
            Not After : Aug 28 01:08:32 2024 GMT
        Subject: CN=team260-client
        Subject Public Key Info:
            Public Key Algorithm: rsaEncryption
                RSA Public-Key: (2048 bit)
                Modulus:
                    00:d6:60:57:5a:15:49:a7:48:93:f0:c7:df:24:88:
                    8e:f3:79:21:98:ff:42:52:b5:2c:d5:48:5d:ee:96:
                    8d:41:19:26:80:c3:95:13:c8:d1:40:22:5b:46:6c:
                    aa:f3:72:c8:5f:a3:6f:e1:1c:e7:d1:60:c0:db:76:
                    ee:7e:ba:e1:9e:bd:c0:ce:74:66:b5:bc:d1:6f:38:
                    42:0a:e9:27:cf:bc:32:12:34:1d:d9:b8:95:0f:d6:
                    03:fa:07:f1:e1:ff:1a:cb:6c:24:df:38:c5:10:34:
                    33:a1:36:b3:52:50:c3:b0:72:83:18:27:79:21:f4:
                    ce:81:91:82:b9:24:17:27:0a:5e:de:15:bf:2b:e5:
                    31:aa:bc:26:a3:e2:86:65:e6:f5:2e:9d:8d:03:d5:
                    59:15:69:5a:b5:ba:00:8a:36:5d:a1:0b:81:d6:75:
                    e0:a8:29:b1:8c:c5:18:19:27:5c:39:e7:a4:69:f9:
                    86:58:a6:9c:cf:07:75:6d:27:f3:5f:11:4b:ed:05:
                    b2:33:b8:77:89:19:8b:85:d8:a4:5b:3d:be:a7:10:
                    f7:e8:c9:ab:d9:34:a0:3e:a8:6a:33:7a:fa:96:5c:
                    45:51:c6:4b:9d:de:ee:a6:60:8b:4f:7d:ee:94:c5:
                    93:c8:44:17:19:26:15:de:99:4d:96:d8:16:73:0d:
                    d6:ab
                Exponent: 65537 (0x10001)
        X509v3 extensions:
            X509v3 Basic Constraints: 
                CA:FALSE
            X509v3 Subject Key Identifier: 
                51:E1:5E:64:FC:3D:81:DF:C7:1A:73:33:04:63:5F:04:FA:05:6E:5A
            X509v3 Authority Key Identifier: 
                keyid:55:06:A2:83:26:3A:EE:13:D3:97:91:86:20:3E:E9:EA:B5:A1:00:14
                DirName:/CN=team260-net
                serial:18:B2:96:80:7F:8B:91:46:2D:BA:9F:BC:FD:DF:A3:28:5D:29:63:3D

            X509v3 Extended Key Usage: 
                TLS Web Client Authentication
            X509v3 Key Usage: 
                Digital Signature
    Signature Algorithm: sha256WithRSAEncryption
         6b:b1:a2:67:39:f0:6d:c0:c5:fc:dd:21:1c:f8:e4:ad:59:9c:
         d4:42:2f:28:97:dd:25:62:27:86:80:7e:22:ba:7a:62:03:99:
         21:1b:50:29:b2:dd:4e:e1:b3:f5:5a:65:35:69:a4:2f:ef:64:
         3f:4a:a9:b7:38:f2:81:30:76:83:e0:2f:c6:07:de:3a:c8:f4:
         16:2f:58:80:cf:2b:8f:e3:4b:72:26:9e:1b:46:91:9b:f2:96:
         71:34:8b:d3:f2:3f:18:20:14:7b:42:64:88:80:77:31:9b:6a:
         c3:0b:62:b1:c8:5e:ee:c9:ba:8d:e9:0c:12:77:d2:90:fe:88:
         df:62:f0:a8:b9:c6:3a:b1:c3:ef:27:80:0e:93:7a:5d:b8:da:
         b9:96:53:66:c2:a1:a1:c7:80:dd:ce:e0:a2:d5:8b:d3:c9:40:
         3b:9b:38:bf:1f:0a:6b:75:da:28:f3:ee:2a:7a:19:3c:c2:c1:
         51:2a:83:b4:ad:32:3b:e3:7f:be:71:cd:74:b4:76:06:7d:8a:
         c6:37:7f:a3:dc:f4:0b:bd:9e:ef:57:b3:9d:f6:d7:49:42:c4:
         98:fc:ca:7e:3b:27:2e:47:48:9a:4f:92:a6:28:66:9b:a5:dd:
         e0:7f:6a:2f:dd:a8:5e:1b:12:a2:04:7f:3f:7d:40:47:52:f7:
         a4:26:1d:db
-----BEGIN CERTIFICATE-----
MIIDXDCCAkSgAwIBAgIQE2vd0T6DYJaxfgH+wF+hWzANBgkqhkiG9w0BAQsFADAW
MRQwEgYDVQQDDAt0ZWFtMjYwLW5ldDAeFw0yMTA5MTMwMTA4MzJaFw0yNDA4Mjgw
MTA4MzJaMBkxFzAVBgNVBAMMDnRlYW0yNjAtY2xpZW50MIIBIjANBgkqhkiG9w0B
AQEFAAOCAQ8AMIIBCgKCAQEA1mBXWhVJp0iT8MffJIiO83khmP9CUrUs1Uhd7paN
QRkmgMOVE8jRQCJbRmyq83LIX6Nv4Rzn0WDA23bufrrhnr3AznRmtbzRbzhCCukn
z7wyEjQd2biVD9YD+gfx4f8ay2wk3zjFEDQzoTazUlDDsHKDGCd5IfTOgZGCuSQX
Jwpe3hW/K+Uxqrwmo+KGZeb1Lp2NA9VZFWlatboAijZdoQuB1nXgqCmxjMUYGSdc
OeekafmGWKaczwd1bSfzXxFL7QWyM7h3iRmLhdikWz2+pxD36Mmr2TSgPqhqM3r6
llxFUcZLnd7upmCLT33ulMWTyEQXGSYV3plNltgWcw3WqwIDAQABo4GiMIGfMAkG
A1UdEwQCMAAwHQYDVR0OBBYEFFHhXmT8PYHfxxpzMwRjXwT6BW5aMFEGA1UdIwRK
MEiAFFUGooMmOu4T05eRhiA+6eq1oQAUoRqkGDAWMRQwEgYDVQQDDAt0ZWFtMjYw
LW5ldIIUGLKWgH+LkUYtup+8/d+jKF0pYz0wEwYDVR0lBAwwCgYIKwYBBQUHAwIw
CwYDVR0PBAQDAgeAMA0GCSqGSIb3DQEBCwUAA4IBAQBrsaJnOfBtwMX83SEc+OSt
WZzUQi8ol90lYieGgH4iunpiA5khG1Apst1O4bP1WmU1aaQv72Q/Sqm3OPKBMHaD
4C/GB946yPQWL1iAzyuP40tyJp4bRpGb8pZxNIvT8j8YIBR7QmSIgHcxm2rDC2Kx
yF7uybqN6QwSd9KQ/ojfYvCoucY6scPvJ4AOk3pduNq5llNmwqGhx4DdzuCi1YvT
yUA7mzi/Hwprddoo8+4qehk8wsFRKoO0rTI743++cc10tHYGfYrGN3+j3PQLvZ7v
V7Od9tdJQsSY/Mp+OycuR0iaT5KmKGabpd3gf2ov3aheGxKiBH8/fUBHUvekJh3b
-----END CERTIFICATE-----
