Certificate:
    Data:
        Version: 3 (0x2)
        Serial Number:
            6b:d1:ae:6f:6e:03:0b:74:f1:60:7d:fc:f9:cc:58:55
        Signature Algorithm: sha256WithRSAEncryption
        Issuer: CN=team260-net
        Validity
            Not Before: Sep 13 01:08:32 2021 GMT
            Not After : Aug 28 01:08:32 2024 GMT
        Subject: CN=team260-server
        Subject Public Key Info:
            Public Key Algorithm: rsaEncryption
                RSA Public-Key: (2048 bit)
                Modulus:
                    00:d6:74:40:8a:62:a8:a9:d9:46:7e:b9:36:e7:a9:
                    73:ed:d7:78:4a:46:31:3e:b5:30:1f:e5:5c:34:29:
                    79:1b:c5:72:1d:e3:c8:65:10:02:47:09:6f:2c:6f:
                    6e:c7:fb:9c:50:67:12:51:db:27:ca:85:65:b8:62:
                    1c:63:e0:7c:84:00:7f:f7:fe:5e:c9:78:1b:9d:80:
                    b0:72:f1:20:28:34:af:0c:a1:63:82:39:be:4c:da:
                    75:90:87:3b:82:96:3c:3c:58:53:38:05:fb:97:b3:
                    34:86:c8:95:6b:5d:e8:24:a0:96:d6:39:a8:6e:6b:
                    4b:62:45:7e:93:ac:d2:54:0b:f2:1b:d2:9b:08:28:
                    1a:cc:e4:36:80:24:ec:22:a7:f2:48:36:24:df:04:
                    25:d5:44:1c:85:98:e9:02:80:53:52:57:ad:13:ab:
                    a5:9b:55:dd:fe:f1:a7:08:ac:ce:b9:05:3f:1e:22:
                    c9:f8:06:85:fd:bf:02:77:65:77:48:7b:ce:ab:0c:
                    e0:dd:53:e7:ca:95:7c:58:b3:c6:a3:a4:bf:fe:0b:
                    72:ec:fa:89:9a:45:5c:3d:da:1a:c9:7a:cc:b9:1e:
                    b6:94:62:f8:a3:d1:66:72:b3:df:ff:a9:93:47:d5:
                    71:c0:01:68:44:72:0e:9e:02:5b:5e:fe:24:62:9e:
                    79:3f
                Exponent: 65537 (0x10001)
        X509v3 extensions:
            X509v3 Basic Constraints: 
                CA:FALSE
            X509v3 Subject Key Identifier: 
                DA:D1:79:CA:F8:73:12:FC:2A:12:B6:3C:AB:AA:90:1A:C5:9F:C0:22
            X509v3 Authority Key Identifier: 
                keyid:55:06:A2:83:26:3A:EE:13:D3:97:91:86:20:3E:E9:EA:B5:A1:00:14
                DirName:/CN=team260-net
                serial:18:B2:96:80:7F:8B:91:46:2D:BA:9F:BC:FD:DF:A3:28:5D:29:63:3D

            X509v3 Extended Key Usage: 
                TLS Web Server Authentication
            X509v3 Key Usage: 
                Digital Signature, Key Encipherment
            X509v3 Subject Alternative Name: 
                DNS:team260-server
    Signature Algorithm: sha256WithRSAEncryption
         37:30:0c:71:2c:83:20:83:38:35:f8:ff:f7:b7:c0:3a:97:94:
         14:99:76:3e:14:8e:80:1c:fd:7b:b2:48:61:e1:d3:ff:47:56:
         b0:20:a6:87:ba:e8:0c:97:93:33:c8:92:8c:ad:e7:8c:d8:aa:
         27:ef:36:74:c7:3d:75:a0:f5:6a:60:8e:ce:d0:30:37:81:f4:
         75:d9:f1:b8:74:1e:b7:2c:e4:cf:da:8d:65:d1:3b:31:47:12:
         b7:e5:97:f9:92:90:35:1f:82:4d:5b:08:7d:74:98:79:3f:3a:
         65:0e:24:25:b7:2f:dc:ec:0a:7f:4d:45:11:07:ba:08:10:60:
         61:a7:30:71:a4:ae:12:73:c9:e2:4d:21:0f:8a:53:36:4d:af:
         0c:fa:6b:bf:c5:3a:22:a8:58:2c:3e:7f:4c:ee:06:ce:01:6c:
         36:23:8e:89:81:fd:54:5f:d4:4d:c9:6a:b7:38:ea:4f:c8:5a:
         42:23:42:0a:5b:90:90:41:a8:ce:c6:b5:a0:2e:aa:8d:2f:db:
         7d:3f:25:6d:4d:62:22:70:9c:32:ff:de:7e:ec:7a:3c:8d:08:
         3d:78:ea:e5:d7:f4:aa:87:75:c3:1e:7d:c2:ee:bf:e2:3d:0a:
         95:57:6c:48:94:c5:96:fc:f1:cc:c3:41:97:48:89:93:6d:6a:
         35:49:e6:2d
-----BEGIN CERTIFICATE-----
MIIDdzCCAl+gAwIBAgIQa9Gub24DC3TxYH38+cxYVTANBgkqhkiG9w0BAQsFADAW
MRQwEgYDVQQDDAt0ZWFtMjYwLW5ldDAeFw0yMTA5MTMwMTA4MzJaFw0yNDA4Mjgw
MTA4MzJaMBkxFzAVBgNVBAMMDnRlYW0yNjAtc2VydmVyMIIBIjANBgkqhkiG9w0B
AQEFAAOCAQ8AMIIBCgKCAQEA1nRAimKoqdlGfrk256lz7dd4SkYxPrUwH+VcNCl5
G8VyHePIZRACRwlvLG9ux/ucUGcSUdsnyoVluGIcY+B8hAB/9/5eyXgbnYCwcvEg
KDSvDKFjgjm+TNp1kIc7gpY8PFhTOAX7l7M0hsiVa13oJKCW1jmobmtLYkV+k6zS
VAvyG9KbCCgazOQ2gCTsIqfySDYk3wQl1UQchZjpAoBTUletE6ulm1Xd/vGnCKzO
uQU/HiLJ+AaF/b8Cd2V3SHvOqwzg3VPnypV8WLPGo6S//gty7PqJmkVcPdoayXrM
uR62lGL4o9FmcrPf/6mTR9VxwAFoRHIOngJbXv4kYp55PwIDAQABo4G9MIG6MAkG
A1UdEwQCMAAwHQYDVR0OBBYEFNrRecr4cxL8KhK2PKuqkBrFn8AiMFEGA1UdIwRK
MEiAFFUGooMmOu4T05eRhiA+6eq1oQAUoRqkGDAWMRQwEgYDVQQDDAt0ZWFtMjYw
LW5ldIIUGLKWgH+LkUYtup+8/d+jKF0pYz0wEwYDVR0lBAwwCgYIKwYBBQUHAwEw
CwYDVR0PBAQDAgWgMBkGA1UdEQQSMBCCDnRlYW0yNjAtc2VydmVyMA0GCSqGSIb3
DQEBCwUAA4IBAQA3MAxxLIMggzg1+P/3t8A6l5QUmXY+FI6AHP17skhh4dP/R1aw
IKaHuugMl5MzyJKMreeM2Kon7zZ0xz11oPVqYI7O0DA3gfR12fG4dB63LOTP2o1l
0TsxRxK35Zf5kpA1H4JNWwh9dJh5PzplDiQlty/c7Ap/TUURB7oIEGBhpzBxpK4S
c8niTSEPilM2Ta8M+mu/xToiqFgsPn9M7gbOAWw2I46Jgf1UX9RNyWq3OOpPyFpC
I0IKW5CQQajOxrWgLqqNL9t9PyVtTWIicJwy/95+7Ho8jQg9eOrl1/Sqh3XDHn3C
7r/iPQqVV2xIlMWW/PHMw0GXSImTbWo1SeYt
-----END CERTIFICATE-----
