Certificate:
    Data:
        Version: 3 (0x2)
        Serial Number:
            2f:4a:5d:91:0e:a8:86:c3:d7:52:e3:4a:ab:d0:30:d1
        Signature Algorithm: sha256WithRSAEncryption
        Issuer: CN=team693-net
        Validity
            Not Before: Sep 13 04:44:45 2021 GMT
            Not After : Aug 28 04:44:45 2024 GMT
        Subject: CN=team693-server
        Subject Public Key Info:
            Public Key Algorithm: rsaEncryption
                RSA Public-Key: (2048 bit)
                Modulus:
                    00:d4:05:3f:09:c1:3f:d9:96:cf:2f:89:25:b2:4b:
                    70:a6:d3:7f:d3:87:69:a1:7b:1c:e4:10:f1:35:b2:
                    43:7e:8b:17:29:70:bf:7c:33:0c:b7:31:bf:33:62:
                    36:d0:a1:02:16:7d:da:21:82:be:10:56:64:44:c3:
                    3c:af:0a:c8:60:a9:6e:97:40:0e:a4:50:78:4e:17:
                    af:2a:44:e4:47:5a:a0:07:4a:0a:df:ad:65:c1:f6:
                    0f:4f:1a:5a:c6:50:bf:ad:e2:e7:a2:72:b5:cc:ad:
                    82:02:8c:ed:f3:c7:af:fe:30:08:4f:00:e4:4e:b9:
                    29:c1:39:3f:5f:da:07:b3:58:18:62:50:31:9b:cd:
                    90:9d:46:26:89:f1:95:ea:de:5f:5a:aa:e8:b2:95:
                    ce:fb:f2:c0:cb:5a:a4:f8:41:00:56:7f:13:7a:34:
                    4c:65:f1:09:58:86:9f:dc:bc:4a:bd:37:c3:97:c7:
                    6b:69:6c:82:2f:a9:41:2f:33:c6:ec:e2:97:c3:bd:
                    32:e8:a1:5b:3f:a5:12:69:93:d3:b3:0c:8c:d6:1c:
                    eb:21:ce:36:30:2f:11:a4:8d:4d:28:3c:08:48:ce:
                    56:15:68:8d:ba:76:e6:ca:a6:b4:ce:9d:f3:10:e1:
                    b9:18:e6:34:da:5a:09:b3:31:a6:0f:78:01:cf:93:
                    74:8f
                Exponent: 65537 (0x10001)
        X509v3 extensions:
            X509v3 Basic Constraints: 
                CA:FALSE
            X509v3 Subject Key Identifier: 
                7D:76:1A:9D:DD:EA:3A:68:8A:0F:22:F0:77:91:DB:18:A8:28:54:2F
            X509v3 Authority Key Identifier: 
                keyid:5B:D3:C8:5B:BA:12:5D:6E:3A:04:7A:D5:9A:BA:EE:4F:37:9B:3E:96
                DirName:/CN=team693-net
                serial:78:16:FA:08:1E:54:45:E7:84:62:47:B8:7D:02:3E:6B:CD:23:67:41

            X509v3 Extended Key Usage: 
                TLS Web Server Authentication
            X509v3 Key Usage: 
                Digital Signature, Key Encipherment
            X509v3 Subject Alternative Name: 
                DNS:team693-server
    Signature Algorithm: sha256WithRSAEncryption
         62:e4:17:d1:91:59:63:58:b5:0f:21:5f:a7:43:bb:6c:c0:1f:
         2b:f3:21:34:9b:1c:53:17:2a:a6:17:80:4d:c2:23:f5:ab:a0:
         32:2a:96:5b:99:76:9f:f7:a3:19:f1:86:ad:7a:98:c2:90:f8:
         d6:97:8a:6e:ff:7d:8a:f1:68:33:33:88:91:cd:83:88:4b:2a:
         6c:88:bb:45:28:93:3c:0d:a7:62:fe:8d:e7:76:0d:d7:d6:9c:
         18:b5:6e:68:bf:87:04:1d:be:43:1f:bf:1c:3c:fd:e4:83:43:
         10:9b:0d:48:bc:e4:dd:5d:a8:a3:d1:0b:95:48:4b:23:df:d2:
         e3:96:35:c5:de:ff:b5:e6:a1:ac:bb:a1:a3:60:59:21:b0:c2:
         05:de:fc:5f:9e:38:df:40:40:99:50:8b:be:42:cf:2e:fd:ea:
         90:2d:69:45:c0:62:47:b6:fc:e0:7c:70:c0:24:37:e1:43:f1:
         c0:65:10:16:34:e1:36:e3:93:63:a4:5b:83:cf:e6:00:90:6f:
         d2:1d:16:8d:2d:b1:9e:1f:ee:8b:be:75:7b:db:e7:1a:dd:c8:
         c5:b0:b4:10:4c:b7:1f:cb:d1:6b:b5:a0:46:aa:b5:a9:3a:a9:
         10:e8:ce:8c:b0:ef:1a:86:a9:8a:35:b1:70:22:48:a8:f9:23:
         21:62:36:93
-----BEGIN CERTIFICATE-----
MIIDdzCCAl+gAwIBAgIQL0pdkQ6ohsPXUuNKq9Aw0TANBgkqhkiG9w0BAQsFADAW
MRQwEgYDVQQDDAt0ZWFtNjkzLW5ldDAeFw0yMTA5MTMwNDQ0NDVaFw0yNDA4Mjgw
NDQ0NDVaMBkxFzAVBgNVBAMMDnRlYW02OTMtc2VydmVyMIIBIjANBgkqhkiG9w0B
AQEFAAOCAQ8AMIIBCgKCAQEA1AU/CcE/2ZbPL4klsktwptN/04dpoXsc5BDxNbJD
fosXKXC/fDMMtzG/M2I20KECFn3aIYK+EFZkRMM8rwrIYKlul0AOpFB4ThevKkTk
R1qgB0oK361lwfYPTxpaxlC/reLnonK1zK2CAozt88ev/jAITwDkTrkpwTk/X9oH
s1gYYlAxm82QnUYmifGV6t5fWqrospXO+/LAy1qk+EEAVn8TejRMZfEJWIaf3LxK
vTfDl8draWyCL6lBLzPG7OKXw70y6KFbP6USaZPTswyM1hzrIc42MC8RpI1NKDwI
SM5WFWiNunbmyqa0zp3zEOG5GOY02loJszGmD3gBz5N0jwIDAQABo4G9MIG6MAkG
A1UdEwQCMAAwHQYDVR0OBBYEFH12Gp3d6jpoig8i8HeR2xioKFQvMFEGA1UdIwRK
MEiAFFvTyFu6El1uOgR61Zq67k83mz6WoRqkGDAWMRQwEgYDVQQDDAt0ZWFtNjkz
LW5ldIIUeBb6CB5UReeEYke4fQI+a80jZ0EwEwYDVR0lBAwwCgYIKwYBBQUHAwEw
CwYDVR0PBAQDAgWgMBkGA1UdEQQSMBCCDnRlYW02OTMtc2VydmVyMA0GCSqGSIb3
DQEBCwUAA4IBAQBi5BfRkVljWLUPIV+nQ7tswB8r8yE0mxxTFyqmF4BNwiP1q6Ay
KpZbmXaf96MZ8YatepjCkPjWl4pu/32K8WgzM4iRzYOISypsiLtFKJM8Dadi/o3n
dg3X1pwYtW5ov4cEHb5DH78cPP3kg0MQmw1IvOTdXaij0QuVSEsj39LjljXF3v+1
5qGsu6GjYFkhsMIF3vxfnjjfQECZUIu+Qs8u/eqQLWlFwGJHtvzgfHDAJDfhQ/HA
ZRAWNOE245NjpFuDz+YAkG/SHRaNLbGeH+6LvnV72+ca3cjFsLQQTLcfy9FrtaBG
qrWpOqkQ6M6MsO8ahqmKNbFwIkio+SMhYjaT
-----END CERTIFICATE-----
