Certificate:
    Data:
        Version: 3 (0x2)
        Serial Number:
            e4:4b:8d:71:bc:8e:b2:c3:a1:c0:75:80:58:30:f2:73
        Signature Algorithm: sha256WithRSAEncryption
        Issuer: CN=team159-net
        Validity
            Not Before: Sep 13 00:19:59 2021 GMT
            Not After : Aug 28 00:19:59 2024 GMT
        Subject: CN=team159-server
        Subject Public Key Info:
            Public Key Algorithm: rsaEncryption
                RSA Public-Key: (2048 bit)
                Modulus:
                    00:a3:5d:3c:64:46:e1:1d:37:ee:d1:ff:50:f4:03:
                    db:60:bb:99:a8:29:b8:27:36:ff:94:b8:42:97:98:
                    2c:87:a5:1c:6e:a7:e1:cd:0b:3c:83:ca:1d:64:e8:
                    db:47:f5:ee:3d:c8:8c:84:9a:bf:bf:ef:79:49:80:
                    ca:e3:b0:d8:ae:75:10:ee:8e:c8:04:f7:63:94:a1:
                    e3:4a:4a:f8:5f:f3:c3:69:0c:5a:93:71:55:95:09:
                    d3:e6:cd:7d:48:72:f9:84:3c:ee:f4:70:d5:97:bb:
                    a6:b4:72:2c:8a:7c:1f:0c:99:3e:98:ae:99:9e:ab:
                    5c:e7:9f:35:4b:d6:ee:80:6e:3b:20:c0:db:8d:af:
                    c2:10:01:f0:26:ee:1e:72:59:a4:ff:6d:48:65:b1:
                    2a:ff:36:b1:44:21:92:c7:e3:68:9e:28:da:7c:3f:
                    97:02:df:f6:2a:7e:9d:68:01:a8:ca:e7:e1:47:6b:
                    c1:df:6d:57:89:64:8b:bd:0f:e6:c6:4b:e7:dd:f3:
                    19:11:cc:07:53:c1:c0:e6:53:c4:07:e1:93:b8:b2:
                    b9:8d:51:d8:dc:7b:41:fa:f2:23:6b:76:11:4a:51:
                    70:bc:6e:78:c3:a2:65:2f:21:f9:66:26:67:b0:bb:
                    51:a9:4c:1e:d0:b6:0c:af:42:23:ec:3b:85:0f:70:
                    20:e9
                Exponent: 65537 (0x10001)
        X509v3 extensions:
            X509v3 Basic Constraints: 
                CA:FALSE
            X509v3 Subject Key Identifier: 
                2E:18:31:B3:6D:22:AB:0C:27:D4:85:EF:62:B2:3B:A3:B3:1D:AB:35
            X509v3 Authority Key Identifier: 
                keyid:46:89:01:29:2C:0B:C6:FD:53:FE:AA:88:D4:88:0D:D3:4E:E5:A4:63
                DirName:/CN=team159-net
                serial:78:C8:5E:0E:64:E7:1C:CA:CA:12:B2:77:9A:5F:86:07:00:72:4A:D6

            X509v3 Extended Key Usage: 
                TLS Web Server Authentication
            X509v3 Key Usage: 
                Digital Signature, Key Encipherment
            X509v3 Subject Alternative Name: 
                DNS:team159-server
    Signature Algorithm: sha256WithRSAEncryption
         46:a9:d0:ac:1d:18:7a:09:2e:bd:2f:45:09:7d:0f:af:42:6b:
         d8:82:63:26:d2:49:7c:65:93:ff:cd:94:c5:a1:5f:65:0b:be:
         03:92:35:c1:38:f6:7a:46:b2:1a:33:ae:e0:c1:a1:02:73:d2:
         2c:0a:78:ff:2b:84:1a:49:d6:40:db:5a:85:4f:5c:6b:a4:78:
         0e:96:da:5b:7d:78:fe:b6:43:e7:de:eb:f0:1d:b6:78:95:ee:
         11:d6:fc:ab:cf:f6:d0:7e:76:e5:e7:16:96:8a:5c:80:0a:83:
         ea:c5:b6:12:e1:1c:06:0b:5c:26:73:4d:76:b0:45:5f:88:90:
         8d:9d:73:c0:6b:16:60:58:58:8b:39:c3:b2:45:6f:2e:e9:d1:
         d7:d0:0a:29:3d:f9:f5:3b:d9:15:88:c9:15:53:b0:47:b6:0d:
         d3:5e:d4:7a:30:2f:7e:2b:49:17:bd:64:8a:a6:9a:18:db:ea:
         48:11:f9:81:7b:5a:90:18:46:78:59:bf:45:e1:da:bb:dd:b7:
         c6:32:6a:7a:8f:d2:2b:98:f3:17:bb:f1:32:7b:17:53:e7:04:
         d6:e5:47:96:4a:c7:92:51:b9:aa:7e:31:d4:78:05:2f:8f:27:
         0a:66:55:f6:d3:e6:5a:f2:49:1f:1c:d6:a1:82:35:83:9c:4c:
         a4:f3:55:bc
-----BEGIN CERTIFICATE-----
MIIDeDCCAmCgAwIBAgIRAORLjXG8jrLDocB1gFgw8nMwDQYJKoZIhvcNAQELBQAw
FjEUMBIGA1UEAwwLdGVhbTE1OS1uZXQwHhcNMjEwOTEzMDAxOTU5WhcNMjQwODI4
MDAxOTU5WjAZMRcwFQYDVQQDDA50ZWFtMTU5LXNlcnZlcjCCASIwDQYJKoZIhvcN
AQEBBQADggEPADCCAQoCggEBAKNdPGRG4R037tH/UPQD22C7magpuCc2/5S4QpeY
LIelHG6n4c0LPIPKHWTo20f17j3IjISav7/veUmAyuOw2K51EO6OyAT3Y5Sh40pK
+F/zw2kMWpNxVZUJ0+bNfUhy+YQ87vRw1Ze7prRyLIp8HwyZPpiumZ6rXOefNUvW
7oBuOyDA242vwhAB8CbuHnJZpP9tSGWxKv82sUQhksfjaJ4o2nw/lwLf9ip+nWgB
qMrn4Udrwd9tV4lki70P5sZL593zGRHMB1PBwOZTxAfhk7iyuY1R2Nx7QfryI2t2
EUpRcLxueMOiZS8h+WYmZ7C7UalMHtC2DK9CI+w7hQ9wIOkCAwEAAaOBvTCBujAJ
BgNVHRMEAjAAMB0GA1UdDgQWBBQuGDGzbSKrDCfUhe9isjujsx2rNTBRBgNVHSME
SjBIgBRGiQEpLAvG/VP+qojUiA3TTuWkY6EapBgwFjEUMBIGA1UEAwwLdGVhbTE1
OS1uZXSCFHjIXg5k5xzKyhKyd5pfhgcAckrWMBMGA1UdJQQMMAoGCCsGAQUFBwMB
MAsGA1UdDwQEAwIFoDAZBgNVHREEEjAQgg50ZWFtMTU5LXNlcnZlcjANBgkqhkiG
9w0BAQsFAAOCAQEARqnQrB0YegkuvS9FCX0Pr0Jr2IJjJtJJfGWT/82UxaFfZQu+
A5I1wTj2ekayGjOu4MGhAnPSLAp4/yuEGknWQNtahU9ca6R4DpbaW314/rZD597r
8B22eJXuEdb8q8/20H525ecWlopcgAqD6sW2EuEcBgtcJnNNdrBFX4iQjZ1zwGsW
YFhYiznDskVvLunR19AKKT359TvZFYjJFVOwR7YN017UejAvfitJF71kiqaaGNvq
SBH5gXtakBhGeFm/ReHau923xjJqeo/SK5jzF7vxMnsXU+cE1uVHlkrHklG5qn4x
1HgFL48nCmZV9tPmWvJJHxzWoYI1g5xMpPNVvA==
-----END CERTIFICATE-----
