Certificate:
    Data:
        Version: 3 (0x2)
        Serial Number:
            a7:ce:a7:1f:ee:dd:31:a8:e8:b7:ae:ec:a8:df:db:45
        Signature Algorithm: sha256WithRSAEncryption
        Issuer: CN=team704-net
        Validity
            Not Before: Sep 13 05:24:34 2021 GMT
            Not After : Aug 28 05:24:34 2024 GMT
        Subject: CN=team704-client
        Subject Public Key Info:
            Public Key Algorithm: rsaEncryption
                RSA Public-Key: (2048 bit)
                Modulus:
                    00:9f:f7:5f:ea:7f:8a:d1:79:6c:1b:04:19:57:42:
                    8f:59:23:80:d2:67:0f:04:30:35:db:d0:22:9e:af:
                    a8:b2:21:e3:a3:40:bd:b8:27:38:e5:0c:68:06:3b:
                    81:a7:c2:64:59:90:9f:b7:f1:fe:70:65:f3:97:22:
                    48:30:54:65:49:de:9d:fa:a6:78:c7:a4:ee:c2:99:
                    49:29:fd:97:16:9d:e5:82:39:79:4d:af:b3:74:64:
                    f0:a9:c1:1b:e5:b3:74:59:2a:66:45:f3:1f:e4:c1:
                    45:30:4c:95:d2:36:cd:4a:ed:57:68:4c:80:43:b6:
                    cb:07:39:8b:f0:6b:f9:90:53:25:92:00:4d:ee:85:
                    e8:09:2c:7b:44:2d:20:de:cb:07:f3:e8:e8:1a:63:
                    81:22:f8:fd:6e:fe:63:6b:36:7c:bd:af:3a:3b:d5:
                    21:94:54:8b:af:2b:7d:3c:ee:67:d0:f5:41:38:0d:
                    22:16:a6:f5:19:a5:5e:01:4b:8d:c3:28:b3:33:85:
                    eb:33:3c:63:7f:b3:af:5c:d6:36:8e:97:59:c4:b0:
                    36:d2:5e:a3:4c:5f:b4:9f:71:65:cc:21:9f:d1:15:
                    35:00:8d:63:9e:77:be:68:5b:33:8a:2e:44:12:03:
                    54:d6:91:bb:fb:22:3f:9d:53:f4:33:1d:31:4a:1a:
                    b2:c3
                Exponent: 65537 (0x10001)
        X509v3 extensions:
            X509v3 Basic Constraints: 
                CA:FALSE
            X509v3 Subject Key Identifier: 
                77:AB:CA:D2:56:7D:5B:82:24:07:B6:12:D9:BA:EA:5A:D8:54:E9:A7
            X509v3 Authority Key Identifier: 
                keyid:95:BA:AA:0D:B7:97:7A:7A:38:9A:48:28:39:14:42:0C:8D:CB:12:44
                DirName:/CN=team704-net
                serial:61:40:BA:60:7F:9B:15:46:CB:8D:8A:6A:BD:32:67:A5:51:51:96:72

            X509v3 Extended Key Usage: 
                TLS Web Client Authentication
            X509v3 Key Usage: 
                Digital Signature
    Signature Algorithm: sha256WithRSAEncryption
         29:15:e0:8c:99:36:c7:9b:0b:fe:f7:2b:d2:07:14:c5:ee:c7:
         9d:a9:63:62:84:55:a0:18:48:38:a2:58:bd:d4:81:7e:a0:7f:
         ea:61:05:3a:67:6b:2d:59:51:7a:96:66:e2:83:89:ab:b5:f9:
         49:7d:3f:1d:66:fd:c7:ee:8b:d7:ac:dd:f7:1e:35:f5:2e:31:
         9d:fe:22:4e:78:a6:02:eb:12:5b:2e:de:36:52:9a:aa:ee:1d:
         fb:3d:83:64:ca:bb:64:73:03:ff:23:3a:62:8a:e7:23:e9:dc:
         a0:6c:c0:3a:26:38:46:06:8e:da:27:00:c9:d7:9f:8b:68:9c:
         b9:fd:8b:ab:22:d7:16:25:fa:78:75:26:7d:9b:74:5b:3f:9b:
         19:cc:11:7f:11:27:6a:90:5c:13:b9:05:89:50:9c:47:a9:ed:
         7b:6b:13:6b:f1:47:13:a0:d0:24:ff:1f:c7:74:bb:91:62:a3:
         af:d5:5d:5a:db:28:4d:92:2b:8a:bf:68:6f:58:c1:c7:a5:3c:
         98:77:9b:c1:23:5e:22:a7:13:9b:0e:cb:e6:1a:e8:af:39:56:
         84:2a:79:a9:e0:05:d7:a1:f8:9c:59:c7:bb:fa:9a:41:1f:40:
         b6:76:36:c1:51:af:f9:cb:84:b4:f2:f6:48:ee:6d:bc:fe:c1:
         12:76:75:0b
-----BEGIN CERTIFICATE-----
MIIDXTCCAkWgAwIBAgIRAKfOpx/u3TGo6Leu7Kjf20UwDQYJKoZIhvcNAQELBQAw
FjEUMBIGA1UEAwwLdGVhbTcwNC1uZXQwHhcNMjEwOTEzMDUyNDM0WhcNMjQwODI4
MDUyNDM0WjAZMRcwFQYDVQQDDA50ZWFtNzA0LWNsaWVudDCCASIwDQYJKoZIhvcN
AQEBBQADggEPADCCAQoCggEBAJ/3X+p/itF5bBsEGVdCj1kjgNJnDwQwNdvQIp6v
qLIh46NAvbgnOOUMaAY7gafCZFmQn7fx/nBl85ciSDBUZUnenfqmeMek7sKZSSn9
lxad5YI5eU2vs3Rk8KnBG+WzdFkqZkXzH+TBRTBMldI2zUrtV2hMgEO2ywc5i/Br
+ZBTJZIATe6F6Akse0QtIN7LB/Po6BpjgSL4/W7+Y2s2fL2vOjvVIZRUi68rfTzu
Z9D1QTgNIham9RmlXgFLjcMoszOF6zM8Y3+zr1zWNo6XWcSwNtJeo0xftJ9xZcwh
n9EVNQCNY553vmhbM4ouRBIDVNaRu/siP51T9DMdMUoassMCAwEAAaOBojCBnzAJ
BgNVHRMEAjAAMB0GA1UdDgQWBBR3q8rSVn1bgiQHthLZuupa2FTppzBRBgNVHSME
SjBIgBSVuqoNt5d6ejiaSCg5FEIMjcsSRKEapBgwFjEUMBIGA1UEAwwLdGVhbTcw
NC1uZXSCFGFAumB/mxVGy42Kar0yZ6VRUZZyMBMGA1UdJQQMMAoGCCsGAQUFBwMC
MAsGA1UdDwQEAwIHgDANBgkqhkiG9w0BAQsFAAOCAQEAKRXgjJk2x5sL/vcr0gcU
xe7HnaljYoRVoBhIOKJYvdSBfqB/6mEFOmdrLVlRepZm4oOJq7X5SX0/HWb9x+6L
16zd9x419S4xnf4iTnimAusSWy7eNlKaqu4d+z2DZMq7ZHMD/yM6YornI+ncoGzA
OiY4RgaO2icAydefi2icuf2LqyLXFiX6eHUmfZt0Wz+bGcwRfxEnapBcE7kFiVCc
R6nte2sTa/FHE6DQJP8fx3S7kWKjr9VdWtsoTZIrir9ob1jBx6U8mHebwSNeIqcT
mw7L5hrorzlWhCp5qeAF16H4nFnHu/qaQR9AtnY2wVGv+cuEtPL2SO5tvP7BEnZ1
Cw==
-----END CERTIFICATE-----
