Certificate:
    Data:
        Version: 3 (0x2)
        Serial Number:
            47:b7:16:49:61:1d:6c:2c:d1:7d:ea:9e:65:3b:56:9b
        Signature Algorithm: sha256WithRSAEncryption
        Issuer: CN=team181-net
        Validity
            Not Before: Sep 13 00:30:08 2021 GMT
            Not After : Aug 28 00:30:08 2024 GMT
        Subject: CN=team181-server
        Subject Public Key Info:
            Public Key Algorithm: rsaEncryption
                RSA Public-Key: (2048 bit)
                Modulus:
                    00:af:b0:5e:20:af:eb:6f:f7:c0:39:73:b3:a7:9d:
                    14:fe:38:56:f2:5f:ad:61:6f:0f:ea:b6:55:fe:10:
                    39:11:85:92:d3:19:09:7a:4f:c1:7e:ce:94:da:6f:
                    f4:62:7c:63:34:ff:49:a5:88:1d:01:2a:fc:91:22:
                    96:d5:6e:8d:01:f4:8f:3d:3a:7c:32:7b:08:34:bc:
                    78:77:28:a8:82:97:de:11:03:d3:d6:5b:5a:02:0b:
                    ee:88:90:8a:54:a6:94:19:27:76:35:68:38:d7:cd:
                    2c:e2:6c:65:56:44:c4:9e:08:e6:ba:41:7d:2e:23:
                    43:45:ac:95:fc:13:9e:f8:78:c7:e8:34:6c:cc:d4:
                    b6:6a:e6:a8:b2:e9:b1:7a:95:66:fa:9a:48:29:b0:
                    08:f8:cc:b8:38:6f:a8:d1:7a:d5:95:60:fc:34:bf:
                    11:2c:c2:bc:e1:0f:f6:6e:02:72:d5:7d:54:5f:2d:
                    d5:b1:11:fb:dc:22:69:22:0e:2e:e9:55:88:b3:2c:
                    5e:b5:d3:b1:83:30:78:67:69:3e:b9:6f:e7:f2:41:
                    8e:b5:10:7b:a8:0e:95:e0:fa:c0:79:e5:07:8f:0e:
                    a2:31:bd:66:6d:fc:d7:d0:1a:68:3f:20:90:40:81:
                    ec:c9:ec:47:7a:b1:e8:87:b0:8d:b6:83:3e:84:9c:
                    35:3b
                Exponent: 65537 (0x10001)
        X509v3 extensions:
            X509v3 Basic Constraints: 
                CA:FALSE
            X509v3 Subject Key Identifier: 
                7D:67:1F:BB:8C:3D:BB:D3:90:F9:6F:EF:E2:B5:E9:A3:2F:C1:2B:9B
            X509v3 Authority Key Identifier: 
                keyid:09:6B:6D:32:2D:29:68:16:CB:27:FA:46:25:42:A3:82:56:ED:31:D9
                DirName:/CN=team181-net
                serial:72:23:A5:4B:1B:1B:7A:FC:7C:15:C5:C1:02:7F:1A:B2:CD:B5:57:5F

            X509v3 Extended Key Usage: 
                TLS Web Server Authentication
            X509v3 Key Usage: 
                Digital Signature, Key Encipherment
            X509v3 Subject Alternative Name: 
                DNS:team181-server
    Signature Algorithm: sha256WithRSAEncryption
         6b:c0:11:09:0d:a1:12:54:53:8c:50:d5:73:36:b3:ad:1c:18:
         9a:80:73:1e:ab:11:51:f7:ea:47:7b:05:d6:e4:91:55:4e:04:
         cd:25:a4:af:a2:e5:10:93:a7:fb:7d:b0:b4:fc:69:52:93:99:
         e2:25:bb:2b:fc:fd:9d:be:7b:ea:67:c5:1d:d7:c4:b1:3a:51:
         cd:8d:29:5e:3e:42:18:d5:48:87:d1:27:39:f3:4f:90:60:bc:
         b4:9a:9a:36:a7:05:e9:2b:d7:82:f3:0b:ee:b8:9d:89:54:e4:
         4e:cc:6e:67:37:c8:33:1c:84:c6:6e:d0:bb:b8:a3:4e:f4:6a:
         38:a3:0f:c9:cf:75:ff:ea:9d:d7:eb:f0:97:0f:e5:ec:db:4f:
         2c:b6:df:65:08:13:da:9e:56:ad:2f:4e:3d:e0:22:1d:e8:5c:
         52:65:e3:bd:f2:aa:ec:93:ba:9c:6d:31:9b:27:a1:5d:f9:b5:
         a7:5d:cb:d2:62:8a:54:ed:3b:5c:88:83:4e:b2:28:81:80:31:
         70:6a:49:cc:9f:99:d3:a5:a5:9b:b4:63:e6:5a:34:f7:d5:8d:
         f5:ea:f3:7b:40:58:17:b3:d8:2a:57:2a:bd:7f:45:c9:9f:4d:
         ae:b9:a7:3b:6c:f3:78:79:be:a2:20:bd:34:0c:58:97:3c:e8:
         f4:92:18:77
-----BEGIN CERTIFICATE-----
MIIDdzCCAl+gAwIBAgIQR7cWSWEdbCzRfeqeZTtWmzANBgkqhkiG9w0BAQsFADAW
MRQwEgYDVQQDDAt0ZWFtMTgxLW5ldDAeFw0yMTA5MTMwMDMwMDhaFw0yNDA4Mjgw
MDMwMDhaMBkxFzAVBgNVBAMMDnRlYW0xODEtc2VydmVyMIIBIjANBgkqhkiG9w0B
AQEFAAOCAQ8AMIIBCgKCAQEAr7BeIK/rb/fAOXOzp50U/jhW8l+tYW8P6rZV/hA5
EYWS0xkJek/Bfs6U2m/0YnxjNP9JpYgdASr8kSKW1W6NAfSPPTp8MnsINLx4dyio
gpfeEQPT1ltaAgvuiJCKVKaUGSd2NWg4180s4mxlVkTEngjmukF9LiNDRayV/BOe
+HjH6DRszNS2auaosumxepVm+ppIKbAI+My4OG+o0XrVlWD8NL8RLMK84Q/2bgJy
1X1UXy3VsRH73CJpIg4u6VWIsyxetdOxgzB4Z2k+uW/n8kGOtRB7qA6V4PrAeeUH
jw6iMb1mbfzX0BpoPyCQQIHsyexHerHoh7CNtoM+hJw1OwIDAQABo4G9MIG6MAkG
A1UdEwQCMAAwHQYDVR0OBBYEFH1nH7uMPbvTkPlv7+K16aMvwSubMFEGA1UdIwRK
MEiAFAlrbTItKWgWyyf6RiVCo4JW7THZoRqkGDAWMRQwEgYDVQQDDAt0ZWFtMTgx
LW5ldIIUciOlSxsbevx8FcXBAn8ass21V18wEwYDVR0lBAwwCgYIKwYBBQUHAwEw
CwYDVR0PBAQDAgWgMBkGA1UdEQQSMBCCDnRlYW0xODEtc2VydmVyMA0GCSqGSIb3
DQEBCwUAA4IBAQBrwBEJDaESVFOMUNVzNrOtHBiagHMeqxFR9+pHewXW5JFVTgTN
JaSvouUQk6f7fbC0/GlSk5niJbsr/P2dvnvqZ8Ud18SxOlHNjSlePkIY1UiH0Sc5
80+QYLy0mpo2pwXpK9eC8wvuuJ2JVOROzG5nN8gzHITGbtC7uKNO9Go4ow/Jz3X/
6p3X6/CXD+Xs208stt9lCBPanlatL0494CId6FxSZeO98qrsk7qcbTGbJ6Fd+bWn
XcvSYopU7TtciINOsiiBgDFwaknMn5nTpaWbtGPmWjT31Y316vN7QFgXs9gqVyq9
f0XJn02uuac7bPN4eb6iIL00DFiXPOj0khh3
-----END CERTIFICATE-----
