Certificate:
    Data:
        Version: 3 (0x2)
        Serial Number:
            38:98:a0:15:b9:b1:98:b4:f3:e9:b9:35:35:fe:ff:43
        Signature Algorithm: sha256WithRSAEncryption
        Issuer: CN=team351-net
        Validity
            Not Before: Sep 13 01:59:45 2021 GMT
            Not After : Aug 28 01:59:45 2024 GMT
        Subject: CN=team351-server
        Subject Public Key Info:
            Public Key Algorithm: rsaEncryption
                RSA Public-Key: (2048 bit)
                Modulus:
                    00:b4:87:20:93:b8:94:88:14:0b:1c:58:68:64:c8:
                    c8:48:16:d3:8e:03:05:72:8f:bd:eb:a0:14:c2:a2:
                    8f:1a:2e:e8:f4:ad:d4:41:1f:66:d8:de:3b:e7:e0:
                    82:15:58:99:56:52:80:5e:7e:df:53:7a:73:d8:7d:
                    3b:fd:21:91:86:58:47:72:49:84:a3:d8:ba:0b:bc:
                    69:a9:9d:17:56:1e:cc:b9:74:3a:a0:e2:d2:e6:fe:
                    5a:5f:49:db:86:5a:b2:4a:f8:68:73:15:8b:93:cd:
                    cc:a5:c0:65:51:26:f8:c0:e9:f6:79:71:fb:1f:0e:
                    a9:89:08:17:1e:78:cd:9e:58:60:1e:26:73:68:a3:
                    c7:d7:38:73:0d:0b:7d:fd:b4:f6:a8:84:4f:85:2c:
                    df:fe:89:d7:3b:10:97:a4:4e:bd:09:b7:a6:a9:52:
                    16:6d:23:87:fd:7c:19:c4:4d:44:c2:dd:ca:de:fb:
                    74:ef:cb:70:94:ed:99:a2:57:95:25:29:2d:93:cf:
                    ab:b6:af:cd:b8:78:7f:ed:78:28:f7:5a:ca:f2:53:
                    d3:d2:f5:d5:7b:41:30:b7:fc:1d:59:42:d5:35:2f:
                    c7:8f:60:ea:2f:b5:6d:bc:ee:40:0a:bf:76:ef:5e:
                    80:71:d2:09:7a:b3:2a:ea:d6:0a:25:32:f0:a1:6a:
                    2c:b7
                Exponent: 65537 (0x10001)
        X509v3 extensions:
            X509v3 Basic Constraints: 
                CA:FALSE
            X509v3 Subject Key Identifier: 
                E5:C7:F7:EA:8D:52:BC:99:E0:F8:24:D5:F9:28:1A:D5:80:03:9D:88
            X509v3 Authority Key Identifier: 
                keyid:6B:FA:8B:19:45:1E:52:5D:63:6B:AC:27:DD:F6:1F:FF:2C:D4:B7:58
                DirName:/CN=team351-net
                serial:62:CC:13:EB:DE:48:11:C7:44:85:5F:D3:FB:54:35:4C:D3:76:84:AC

            X509v3 Extended Key Usage: 
                TLS Web Server Authentication
            X509v3 Key Usage: 
                Digital Signature, Key Encipherment
            X509v3 Subject Alternative Name: 
                DNS:team351-server
    Signature Algorithm: sha256WithRSAEncryption
         7a:b0:c2:e7:bf:09:e7:11:85:a7:54:16:72:50:9b:14:c8:7d:
         7e:8b:4d:82:09:48:4e:5d:38:21:73:37:c6:89:a7:0a:dd:53:
         ea:7f:df:5e:c4:5a:3f:61:7b:e3:25:3e:6b:70:8a:68:7b:19:
         1a:39:dc:2f:5f:4c:6c:23:c9:f2:89:a1:95:92:86:d8:37:8a:
         b2:a6:c3:2b:3a:20:a8:c0:c1:88:43:82:95:78:79:7a:26:b3:
         38:d6:61:99:8a:08:6a:9e:c6:72:69:ef:e3:c7:ad:44:6c:63:
         ba:c1:e6:63:43:62:92:84:a4:df:bc:e9:28:75:c9:14:22:a6:
         10:3c:17:64:41:30:93:6d:63:6e:71:1a:41:d1:af:ee:ff:7b:
         48:21:65:96:70:54:e9:29:cb:c8:ab:1e:8a:f5:30:69:86:c7:
         d7:8f:92:5a:8a:b8:d6:cb:e7:c6:ee:63:25:54:c7:47:49:cd:
         e5:fd:27:37:8c:26:5d:09:97:de:58:0d:85:cf:c2:68:6b:f8:
         4a:18:f5:d9:e7:d9:54:94:4f:ed:84:fb:c6:ee:7e:0a:e6:2e:
         16:24:75:a4:45:ba:98:db:df:b3:f8:47:86:b5:77:e2:f0:77:
         70:bd:eb:a6:4b:a6:c3:b8:48:c1:3c:4e:6a:53:bf:60:66:df:
         b2:d2:73:0a
-----BEGIN CERTIFICATE-----
MIIDdzCCAl+gAwIBAgIQOJigFbmxmLTz6bk1Nf7/QzANBgkqhkiG9w0BAQsFADAW
MRQwEgYDVQQDDAt0ZWFtMzUxLW5ldDAeFw0yMTA5MTMwMTU5NDVaFw0yNDA4Mjgw
MTU5NDVaMBkxFzAVBgNVBAMMDnRlYW0zNTEtc2VydmVyMIIBIjANBgkqhkiG9w0B
AQEFAAOCAQ8AMIIBCgKCAQEAtIcgk7iUiBQLHFhoZMjISBbTjgMFco+966AUwqKP
Gi7o9K3UQR9m2N475+CCFViZVlKAXn7fU3pz2H07/SGRhlhHckmEo9i6C7xpqZ0X
Vh7MuXQ6oOLS5v5aX0nbhlqySvhocxWLk83MpcBlUSb4wOn2eXH7Hw6piQgXHnjN
nlhgHiZzaKPH1zhzDQt9/bT2qIRPhSzf/onXOxCXpE69CbemqVIWbSOH/XwZxE1E
wt3K3vt078twlO2ZoleVJSktk8+rtq/NuHh/7Xgo91rK8lPT0vXVe0Ewt/wdWULV
NS/Hj2DqL7VtvO5ACr92716AcdIJerMq6tYKJTLwoWostwIDAQABo4G9MIG6MAkG
A1UdEwQCMAAwHQYDVR0OBBYEFOXH9+qNUryZ4Pgk1fkoGtWAA52IMFEGA1UdIwRK
MEiAFGv6ixlFHlJdY2usJ932H/8s1LdYoRqkGDAWMRQwEgYDVQQDDAt0ZWFtMzUx
LW5ldIIUYswT695IEcdEhV/T+1Q1TNN2hKwwEwYDVR0lBAwwCgYIKwYBBQUHAwEw
CwYDVR0PBAQDAgWgMBkGA1UdEQQSMBCCDnRlYW0zNTEtc2VydmVyMA0GCSqGSIb3
DQEBCwUAA4IBAQB6sMLnvwnnEYWnVBZyUJsUyH1+i02CCUhOXTghczfGiacK3VPq
f99exFo/YXvjJT5rcIpoexkaOdwvX0xsI8nyiaGVkobYN4qypsMrOiCowMGIQ4KV
eHl6JrM41mGZighqnsZyae/jx61EbGO6weZjQ2KShKTfvOkodckUIqYQPBdkQTCT
bWNucRpB0a/u/3tIIWWWcFTpKcvIqx6K9TBphsfXj5JairjWy+fG7mMlVMdHSc3l
/Sc3jCZdCZfeWA2Fz8Joa/hKGPXZ59lUlE/thPvG7n4K5i4WJHWkRbqY29+z+EeG
tXfi8HdwveumS6bDuEjBPE5qU79gZt+y0nMK
-----END CERTIFICATE-----
