Certificate:
    Data:
        Version: 3 (0x2)
        Serial Number:
            c9:d9:ad:47:3e:d5:3a:19:be:31:2c:f3:ee:92:81:30
        Signature Algorithm: sha256WithRSAEncryption
        Issuer: CN=team513-net
        Validity
            Not Before: Sep 13 03:12:33 2021 GMT
            Not After : Aug 28 03:12:33 2024 GMT
        Subject: CN=team513-client
        Subject Public Key Info:
            Public Key Algorithm: rsaEncryption
                RSA Public-Key: (2048 bit)
                Modulus:
                    00:a6:78:45:4c:60:87:fc:a5:89:54:07:80:dd:28:
                    8b:67:2e:ee:b0:c6:55:c5:53:f1:a9:b2:28:fe:e8:
                    24:53:b2:17:56:97:5b:db:ff:7f:29:ed:66:ea:44:
                    7c:4e:4c:c4:9f:3b:06:6b:65:0b:54:ef:ee:26:b4:
                    dd:0a:ee:1e:e2:30:b3:7b:50:71:41:06:38:42:40:
                    86:45:16:18:30:67:1d:01:c6:3f:e8:45:a8:8e:c2:
                    ed:48:96:a7:a0:16:33:38:98:f4:81:a2:75:0e:2c:
                    e7:e3:ef:02:d2:2e:68:38:33:e4:59:46:36:f3:92:
                    74:c4:24:b0:c9:45:01:f1:f8:0d:dd:1c:e2:53:f1:
                    07:25:c8:1a:fe:8d:9b:8b:25:47:58:48:62:9f:4e:
                    ce:73:b5:b0:10:a7:33:27:2c:25:c2:75:cc:ad:58:
                    ff:e1:c2:af:61:21:e5:f8:bd:ae:92:96:37:07:81:
                    ac:18:15:69:b8:07:b1:e0:b5:43:93:51:3d:eb:ae:
                    73:46:9b:37:d7:80:dd:85:d3:57:7f:44:01:9e:59:
                    5f:32:21:c3:2b:90:48:c4:42:0d:b1:34:c4:4d:63:
                    5c:4a:83:0d:d1:3c:79:90:df:72:52:35:ed:a8:1a:
                    89:00:be:74:87:db:0d:50:c9:a8:82:15:5a:fb:bd:
                    c4:1d
                Exponent: 65537 (0x10001)
        X509v3 extensions:
            X509v3 Basic Constraints: 
                CA:FALSE
            X509v3 Subject Key Identifier: 
                B6:FE:81:72:69:05:CE:BA:BE:DB:B0:ED:9C:0D:65:B3:AA:0C:6A:67
            X509v3 Authority Key Identifier: 
                keyid:3B:A6:75:FC:F0:5C:C5:86:5B:33:7F:2F:3B:23:14:84:91:EA:A0:64
                DirName:/CN=team513-net
                serial:7E:C7:6C:28:55:57:8C:62:F4:4E:BF:57:FB:88:85:CF:3F:0E:6E:83

            X509v3 Extended Key Usage: 
                TLS Web Client Authentication
            X509v3 Key Usage: 
                Digital Signature
    Signature Algorithm: sha256WithRSAEncryption
         5e:21:1b:b5:12:9f:b9:33:a0:df:4e:26:f2:65:9e:12:0d:bb:
         33:39:53:10:fb:86:e9:5f:59:8f:19:b1:65:15:8a:f6:15:6f:
         35:1d:4f:f2:ce:94:22:cc:b2:9f:bf:28:bb:1f:82:e7:30:f0:
         f6:ad:d4:1a:ff:9a:b9:a9:4a:a3:42:ea:d1:9e:1c:fa:1c:88:
         91:b3:2d:97:c1:ad:fe:6e:25:1a:5a:f4:c7:e9:f2:b0:8e:10:
         20:14:14:71:62:3d:ab:28:d0:50:62:ad:8b:0d:ea:1e:e6:8f:
         a7:02:80:b9:c1:74:87:c2:b1:a7:9f:60:44:3f:c7:1c:87:4c:
         89:cd:0d:43:61:43:a6:74:29:f6:b3:f0:77:61:ad:36:51:0e:
         cf:ff:c8:8f:c8:15:24:98:f8:3f:f3:d4:2b:1f:e9:14:17:30:
         73:1a:a8:72:45:94:a5:00:10:84:93:00:f1:47:40:0b:47:ae:
         26:a8:48:da:b8:db:82:8b:e5:9e:1d:d0:a5:de:4b:a2:3b:6a:
         4a:a7:50:3c:11:b8:07:45:23:a3:7d:87:b8:5f:08:e9:99:0b:
         17:4d:e9:9a:c3:b5:d1:e0:c5:03:0d:53:b1:a8:1b:43:65:25:
         5b:54:93:cb:c4:fd:d8:6c:0a:b2:33:00:7c:b9:f3:df:b7:e0:
         66:4b:6b:a6
-----BEGIN CERTIFICATE-----
MIIDXTCCAkWgAwIBAgIRAMnZrUc+1ToZvjEs8+6SgTAwDQYJKoZIhvcNAQELBQAw
FjEUMBIGA1UEAwwLdGVhbTUxMy1uZXQwHhcNMjEwOTEzMDMxMjMzWhcNMjQwODI4
MDMxMjMzWjAZMRcwFQYDVQQDDA50ZWFtNTEzLWNsaWVudDCCASIwDQYJKoZIhvcN
AQEBBQADggEPADCCAQoCggEBAKZ4RUxgh/yliVQHgN0oi2cu7rDGVcVT8amyKP7o
JFOyF1aXW9v/fyntZupEfE5MxJ87BmtlC1Tv7ia03QruHuIws3tQcUEGOEJAhkUW
GDBnHQHGP+hFqI7C7UiWp6AWMziY9IGidQ4s5+PvAtIuaDgz5FlGNvOSdMQksMlF
AfH4Dd0c4lPxByXIGv6Nm4slR1hIYp9OznO1sBCnMycsJcJ1zK1Y/+HCr2Eh5fi9
rpKWNweBrBgVabgHseC1Q5NRPeuuc0abN9eA3YXTV39EAZ5ZXzIhwyuQSMRCDbE0
xE1jXEqDDdE8eZDfclI17agaiQC+dIfbDVDJqIIVWvu9xB0CAwEAAaOBojCBnzAJ
BgNVHRMEAjAAMB0GA1UdDgQWBBS2/oFyaQXOur7bsO2cDWWzqgxqZzBRBgNVHSME
SjBIgBQ7pnX88FzFhlszfy87IxSEkeqgZKEapBgwFjEUMBIGA1UEAwwLdGVhbTUx
My1uZXSCFH7HbChVV4xi9E6/V/uIhc8/Dm6DMBMGA1UdJQQMMAoGCCsGAQUFBwMC
MAsGA1UdDwQEAwIHgDANBgkqhkiG9w0BAQsFAAOCAQEAXiEbtRKfuTOg304m8mWe
Eg27MzlTEPuG6V9ZjxmxZRWK9hVvNR1P8s6UIsyyn78oux+C5zDw9q3UGv+aualK
o0Lq0Z4c+hyIkbMtl8Gt/m4lGlr0x+nysI4QIBQUcWI9qyjQUGKtiw3qHuaPpwKA
ucF0h8Kxp59gRD/HHIdMic0NQ2FDpnQp9rPwd2GtNlEOz//Ij8gVJJj4P/PUKx/p
FBcwcxqockWUpQAQhJMA8UdAC0euJqhI2rjbgovlnh3Qpd5LojtqSqdQPBG4B0Uj
o32HuF8I6ZkLF03pmsO10eDFAw1TsagbQ2UlW1STy8T92GwKsjMAfLnz37fgZktr
pg==
-----END CERTIFICATE-----
