Certificate:
    Data:
        Version: 3 (0x2)
        Serial Number:
            cd:76:8c:b0:a0:0f:54:bd:ad:41:eb:c6:a9:d6:de:13
        Signature Algorithm: sha256WithRSAEncryption
        Issuer: CN=team322-net
        Validity
            Not Before: Sep 13 01:38:48 2021 GMT
            Not After : Aug 28 01:38:48 2024 GMT
        Subject: CN=team322-server
        Subject Public Key Info:
            Public Key Algorithm: rsaEncryption
                RSA Public-Key: (2048 bit)
                Modulus:
                    00:b7:64:c7:12:e6:d3:dd:8f:14:66:9f:d0:4e:0a:
                    a3:2e:79:1f:4b:44:c1:91:d3:21:02:53:99:93:b0:
                    a9:c6:c0:31:4f:aa:50:8e:ea:23:32:85:5e:fb:84:
                    75:44:a0:ff:4e:63:b7:e0:28:cf:a6:17:d4:68:83:
                    87:2b:6b:db:ad:32:80:4d:9d:e6:dd:56:ae:f3:68:
                    2e:03:f4:1e:01:73:ec:34:38:51:bf:84:d0:41:85:
                    f5:ac:36:48:01:5d:e7:16:88:70:10:00:c5:3b:fe:
                    11:98:d6:ea:8a:f2:9d:9c:cb:38:ce:95:5a:3f:93:
                    1f:95:40:03:a2:93:d7:76:6b:4f:e0:fb:51:2f:3e:
                    cc:63:43:50:d1:da:b8:9a:2a:2f:41:b8:09:bb:cc:
                    21:2d:03:26:f7:e7:9b:a9:b5:4e:f2:37:02:c5:79:
                    6d:c6:04:93:e0:5a:b0:b9:f7:c3:ea:f3:6f:86:83:
                    a7:55:e6:65:6d:43:43:b3:e4:ef:09:92:51:b5:79:
                    bf:57:f5:f1:92:7a:d8:23:a8:9f:f0:86:34:ae:e9:
                    36:96:a2:71:b5:f7:c2:05:d5:31:ac:d6:65:27:06:
                    68:98:04:7d:c7:3c:fd:8d:2c:27:f3:b9:f0:71:05:
                    95:41:16:9e:b9:f0:3b:cf:f0:e7:ac:76:71:67:cf:
                    0d:6b
                Exponent: 65537 (0x10001)
        X509v3 extensions:
            X509v3 Basic Constraints: 
                CA:FALSE
            X509v3 Subject Key Identifier: 
                3B:3B:A3:17:7A:1A:93:DC:A4:04:55:33:B1:88:9A:C7:0E:DD:DD:F3
            X509v3 Authority Key Identifier: 
                keyid:0E:79:4A:2F:2C:70:01:4F:29:E1:EC:71:54:59:FE:C3:1B:B5:81:74
                DirName:/CN=team322-net
                serial:29:F3:65:54:2D:2B:D8:2D:82:9A:D3:46:BA:47:87:E0:81:6B:9C:16

            X509v3 Extended Key Usage: 
                TLS Web Server Authentication
            X509v3 Key Usage: 
                Digital Signature, Key Encipherment
            X509v3 Subject Alternative Name: 
                DNS:team322-server
    Signature Algorithm: sha256WithRSAEncryption
         3d:cc:bb:2f:66:68:5a:65:1f:85:e9:1c:32:83:83:2a:6a:f0:
         8a:d9:c0:bb:2f:be:d3:90:37:29:40:dd:56:57:de:f6:bc:79:
         bc:e1:fb:d3:92:41:4e:a7:c4:5c:c8:a2:be:fc:91:ca:37:ad:
         75:8d:43:5a:c8:5c:3f:bf:fb:bf:91:20:d8:44:79:d6:76:38:
         70:69:cb:88:ea:83:5b:b7:11:ba:f5:98:2e:0b:83:50:7e:42:
         f8:fe:0a:5e:12:a3:29:4e:25:b6:cc:b8:e1:4f:28:f1:04:bd:
         f1:b1:0f:38:3f:6f:9c:64:5d:7b:91:5e:7b:3c:df:32:89:9b:
         2f:f1:45:05:03:35:18:47:e7:9c:1d:88:26:64:e7:3d:d2:3b:
         43:d7:0f:e1:bf:f0:0d:f8:80:b9:a4:c1:6f:2b:17:b5:4f:9c:
         0f:f2:d0:df:e8:be:58:20:d9:36:3b:48:e2:22:de:c3:18:76:
         62:56:32:05:9a:35:6b:f1:2a:e0:8d:d9:29:f5:d8:6f:a2:d6:
         5a:72:83:ae:d2:d4:e3:08:76:25:76:03:32:a9:24:12:e7:af:
         a1:27:08:94:94:81:0a:d7:6b:7f:6f:c5:a9:ef:67:49:2f:05:
         cd:b5:ef:bd:09:26:3a:ff:8f:64:05:cc:8f:35:7e:2a:24:5f:
         d9:82:97:e4
-----BEGIN CERTIFICATE-----
MIIDeDCCAmCgAwIBAgIRAM12jLCgD1S9rUHrxqnW3hMwDQYJKoZIhvcNAQELBQAw
FjEUMBIGA1UEAwwLdGVhbTMyMi1uZXQwHhcNMjEwOTEzMDEzODQ4WhcNMjQwODI4
MDEzODQ4WjAZMRcwFQYDVQQDDA50ZWFtMzIyLXNlcnZlcjCCASIwDQYJKoZIhvcN
AQEBBQADggEPADCCAQoCggEBALdkxxLm092PFGaf0E4Koy55H0tEwZHTIQJTmZOw
qcbAMU+qUI7qIzKFXvuEdUSg/05jt+Aoz6YX1GiDhytr260ygE2d5t1WrvNoLgP0
HgFz7DQ4Ub+E0EGF9aw2SAFd5xaIcBAAxTv+EZjW6orynZzLOM6VWj+TH5VAA6KT
13ZrT+D7US8+zGNDUNHauJoqL0G4CbvMIS0DJvfnm6m1TvI3AsV5bcYEk+BasLn3
w+rzb4aDp1XmZW1DQ7Pk7wmSUbV5v1f18ZJ62COon/CGNK7pNpaicbX3wgXVMazW
ZScGaJgEfcc8/Y0sJ/O58HEFlUEWnrnwO8/w56x2cWfPDWsCAwEAAaOBvTCBujAJ
BgNVHRMEAjAAMB0GA1UdDgQWBBQ7O6MXehqT3KQEVTOxiJrHDt3d8zBRBgNVHSME
SjBIgBQOeUovLHABTynh7HFUWf7DG7WBdKEapBgwFjEUMBIGA1UEAwwLdGVhbTMy
Mi1uZXSCFCnzZVQtK9gtgprTRrpHh+CBa5wWMBMGA1UdJQQMMAoGCCsGAQUFBwMB
MAsGA1UdDwQEAwIFoDAZBgNVHREEEjAQgg50ZWFtMzIyLXNlcnZlcjANBgkqhkiG
9w0BAQsFAAOCAQEAPcy7L2ZoWmUfhekcMoODKmrwitnAuy++05A3KUDdVlfe9rx5
vOH705JBTqfEXMiivvyRyjetdY1DWshcP7/7v5Eg2ER51nY4cGnLiOqDW7cRuvWY
LguDUH5C+P4KXhKjKU4ltsy44U8o8QS98bEPOD9vnGRde5FeezzfMombL/FFBQM1
GEfnnB2IJmTnPdI7Q9cP4b/wDfiAuaTBbysXtU+cD/LQ3+i+WCDZNjtI4iLewxh2
YlYyBZo1a/Eq4I3ZKfXYb6LWWnKDrtLU4wh2JXYDMqkkEuevoScIlJSBCtdrf2/F
qe9nSS8FzbXvvQkmOv+PZAXMjzV+KiRf2YKX5A==
-----END CERTIFICATE-----
