Certificate:
    Data:
        Version: 3 (0x2)
        Serial Number:
            ba:16:e0:d8:8f:2f:68:ba:93:ef:27:7c:fe:15:d0:54
        Signature Algorithm: sha256WithRSAEncryption
        Issuer: CN=team418-net
        Validity
            Not Before: Sep 13 02:34:17 2021 GMT
            Not After : Aug 28 02:34:17 2024 GMT
        Subject: CN=team418-server
        Subject Public Key Info:
            Public Key Algorithm: rsaEncryption
                RSA Public-Key: (2048 bit)
                Modulus:
                    00:c9:cc:63:a3:90:ed:6e:80:43:fb:87:34:4e:88:
                    03:62:71:4d:a2:d3:99:33:4c:df:87:5d:65:9c:f2:
                    93:27:0b:9a:20:f5:86:07:74:7b:12:75:55:3e:fb:
                    9e:d8:d2:47:3b:b6:de:0a:46:93:93:a0:05:26:13:
                    2d:14:9b:a5:25:4a:db:1a:1f:b7:51:c8:4f:c7:8d:
                    90:d3:76:33:eb:45:fa:fc:37:59:fe:dc:98:ff:ae:
                    e5:01:3b:66:a8:f5:04:24:8f:20:c7:a0:44:b9:f4:
                    a4:ca:6e:5c:ca:25:b8:3d:ca:72:d1:6c:30:f7:62:
                    62:68:24:dd:8b:fe:bb:34:76:8d:39:38:15:6d:00:
                    ad:08:38:5b:26:22:2c:d3:15:93:9d:6c:9d:d1:95:
                    b2:59:36:3f:e5:1f:26:3a:3b:ab:8d:67:00:88:cd:
                    27:ad:62:6d:be:51:c0:ad:fb:75:74:20:fe:4d:62:
                    00:bd:fa:43:61:00:32:63:f7:a3:b8:33:7a:7d:44:
                    73:bc:ec:0c:d7:3f:f1:2a:c2:09:c8:a5:f9:53:4b:
                    b5:6b:27:ff:6d:06:01:b6:c6:a5:bc:6b:19:43:25:
                    35:42:c1:01:a0:38:f4:68:b8:5f:35:3f:3c:82:e3:
                    4e:26:65:ad:10:c2:f3:05:54:76:53:c9:3a:8b:10:
                    1f:15
                Exponent: 65537 (0x10001)
        X509v3 extensions:
            X509v3 Basic Constraints: 
                CA:FALSE
            X509v3 Subject Key Identifier: 
                8A:C7:03:5B:2E:5C:EC:13:D1:38:2E:7F:47:BC:E5:88:2E:AA:58:19
            X509v3 Authority Key Identifier: 
                keyid:44:83:07:84:8B:B9:C9:94:9A:5F:EF:4C:B0:37:B2:C4:AD:CD:2B:0B
                DirName:/CN=team418-net
                serial:1B:F9:78:73:B7:20:60:73:0E:0F:58:C2:D4:C5:69:06:E5:64:04:94

            X509v3 Extended Key Usage: 
                TLS Web Server Authentication
            X509v3 Key Usage: 
                Digital Signature, Key Encipherment
            X509v3 Subject Alternative Name: 
                DNS:team418-server
    Signature Algorithm: sha256WithRSAEncryption
         4c:15:e8:b6:53:58:c8:e8:7f:d3:fa:d7:38:2d:13:ee:d8:7e:
         ae:b6:23:34:2f:3d:4a:8f:12:60:79:c8:23:6b:aa:b9:90:b6:
         5c:a7:ab:f7:79:29:ae:37:89:96:f0:33:55:d7:71:d6:90:82:
         5c:ef:a1:ad:78:87:d5:f8:25:f2:cc:e3:d1:8e:6e:1f:76:e3:
         c6:c8:f7:61:06:da:09:f3:b1:87:b1:14:f4:72:2a:28:36:27:
         db:27:ec:d8:51:a6:38:fc:a0:6b:6b:02:85:6f:92:18:2d:dd:
         f7:bb:8a:2a:29:55:bc:c6:14:eb:a8:ff:93:d3:29:e7:7d:34:
         5b:06:51:8b:b4:b0:44:5d:b0:bf:79:24:56:65:37:d5:36:b7:
         ae:ec:18:f1:ed:9f:47:42:2d:46:50:b5:46:3c:91:4f:4f:19:
         dc:03:fb:f9:a9:93:07:29:af:22:c9:7e:20:a9:02:cd:f0:e6:
         1f:4b:1e:8a:02:b5:f5:ba:fc:bf:eb:37:ae:fe:d1:d7:28:6e:
         fd:fa:be:bb:f8:d2:aa:3a:7b:fb:e7:1f:4e:9b:3c:da:dd:e0:
         37:84:4d:c6:12:58:ca:c2:a7:c9:d7:58:ec:3a:a0:a2:21:2f:
         e2:f0:da:8f:56:13:08:60:c8:15:bf:4b:b9:eb:08:89:37:ca:
         f7:51:e6:81
-----BEGIN CERTIFICATE-----
MIIDeDCCAmCgAwIBAgIRALoW4NiPL2i6k+8nfP4V0FQwDQYJKoZIhvcNAQELBQAw
FjEUMBIGA1UEAwwLdGVhbTQxOC1uZXQwHhcNMjEwOTEzMDIzNDE3WhcNMjQwODI4
MDIzNDE3WjAZMRcwFQYDVQQDDA50ZWFtNDE4LXNlcnZlcjCCASIwDQYJKoZIhvcN
AQEBBQADggEPADCCAQoCggEBAMnMY6OQ7W6AQ/uHNE6IA2JxTaLTmTNM34ddZZzy
kycLmiD1hgd0exJ1VT77ntjSRzu23gpGk5OgBSYTLRSbpSVK2xoft1HIT8eNkNN2
M+tF+vw3Wf7cmP+u5QE7Zqj1BCSPIMegRLn0pMpuXMoluD3KctFsMPdiYmgk3Yv+
uzR2jTk4FW0ArQg4WyYiLNMVk51sndGVslk2P+UfJjo7q41nAIjNJ61ibb5RwK37
dXQg/k1iAL36Q2EAMmP3o7gzen1Ec7zsDNc/8SrCCcil+VNLtWsn/20GAbbGpbxr
GUMlNULBAaA49Gi4XzU/PILjTiZlrRDC8wVUdlPJOosQHxUCAwEAAaOBvTCBujAJ
BgNVHRMEAjAAMB0GA1UdDgQWBBSKxwNbLlzsE9E4Ln9HvOWILqpYGTBRBgNVHSME
SjBIgBREgweEi7nJlJpf70ywN7LErc0rC6EapBgwFjEUMBIGA1UEAwwLdGVhbTQx
OC1uZXSCFBv5eHO3IGBzDg9YwtTFaQblZASUMBMGA1UdJQQMMAoGCCsGAQUFBwMB
MAsGA1UdDwQEAwIFoDAZBgNVHREEEjAQgg50ZWFtNDE4LXNlcnZlcjANBgkqhkiG
9w0BAQsFAAOCAQEATBXotlNYyOh/0/rXOC0T7th+rrYjNC89So8SYHnII2uquZC2
XKer93kprjeJlvAzVddx1pCCXO+hrXiH1fgl8szj0Y5uH3bjxsj3YQbaCfOxh7EU
9HIqKDYn2yfs2FGmOPyga2sChW+SGC3d97uKKilVvMYU66j/k9Mp5300WwZRi7Sw
RF2wv3kkVmU31Ta3ruwY8e2fR0ItRlC1RjyRT08Z3AP7+amTBymvIsl+IKkCzfDm
H0seigK19br8v+s3rv7R1yhu/fq+u/jSqjp7++cfTps82t3gN4RNxhJYysKnyddY
7DqgoiEv4vDaj1YTCGDIFb9LuesIiTfK91HmgQ==
-----END CERTIFICATE-----
