Certificate:
    Data:
        Version: 3 (0x2)
        Serial Number:
            ab:e6:be:fc:3c:fb:67:c1:d2:f4:58:20:9a:0b:d3:90
        Signature Algorithm: sha256WithRSAEncryption
        Issuer: CN=team576-net
        Validity
            Not Before: Sep 13 03:42:52 2021 GMT
            Not After : Aug 28 03:42:52 2024 GMT
        Subject: CN=team576-client
        Subject Public Key Info:
            Public Key Algorithm: rsaEncryption
                RSA Public-Key: (2048 bit)
                Modulus:
                    00:b6:bb:43:4b:5b:4d:83:b8:48:da:dc:59:fd:af:
                    22:37:4b:39:77:41:4b:93:8d:4a:e2:af:ef:29:47:
                    5d:d1:bf:34:e3:e3:35:b9:3c:10:ce:13:b6:62:a1:
                    f0:4f:8e:56:53:bf:43:18:e7:9d:bf:c1:05:48:9f:
                    54:1e:0c:97:26:18:87:69:d4:eb:49:09:f0:d4:a7:
                    d0:03:af:0a:9d:87:7d:d8:57:85:cc:96:20:7a:c5:
                    19:62:17:80:8e:1b:85:b3:57:62:b5:c1:73:d0:26:
                    b7:05:16:23:a7:e0:b7:f6:c7:65:90:be:b4:33:d6:
                    9c:06:34:7a:bc:ab:d9:94:89:eb:43:2f:6e:07:46:
                    e3:0f:0e:5a:f8:f5:6b:b9:0f:91:70:ad:1c:62:04:
                    ff:33:63:4b:f9:e3:ae:10:16:63:81:f9:27:44:1f:
                    d0:b3:53:e5:fd:c8:98:b1:fe:1f:b3:54:f4:a0:b0:
                    51:a2:90:e0:cb:8e:c5:94:81:9f:00:37:9e:ce:5c:
                    a5:3e:59:99:bb:07:16:09:e0:bf:29:b8:96:fe:bc:
                    7c:af:71:e3:f9:c7:95:54:3d:3e:d5:91:ab:8b:f6:
                    03:af:fc:dc:de:fd:ad:27:a3:ec:7b:ae:d4:ef:12:
                    8e:e0:e9:e1:81:29:b2:e7:87:25:31:c6:57:2a:5c:
                    4d:21
                Exponent: 65537 (0x10001)
        X509v3 extensions:
            X509v3 Basic Constraints: 
                CA:FALSE
            X509v3 Subject Key Identifier: 
                90:F4:B6:89:BE:FE:0A:27:07:76:70:EC:A8:B1:8E:6D:F1:3A:FC:C7
            X509v3 Authority Key Identifier: 
                keyid:CE:37:EA:96:5D:44:92:FC:60:5F:E4:03:70:67:98:9D:40:67:49:10
                DirName:/CN=team576-net
                serial:55:89:92:C6:7B:60:35:66:EF:2B:25:5F:3C:F5:F7:A6:C4:84:BD:9B

            X509v3 Extended Key Usage: 
                TLS Web Client Authentication
            X509v3 Key Usage: 
                Digital Signature
    Signature Algorithm: sha256WithRSAEncryption
         32:5c:de:47:1f:1a:18:e4:d4:2c:72:28:ee:97:bb:4e:9a:48:
         a8:aa:5c:0e:4b:85:4c:6f:d2:9f:af:f6:73:05:00:10:22:b4:
         71:ef:9e:b8:9f:ce:32:55:57:8d:f7:54:8d:11:0d:ab:a4:82:
         55:f4:58:f6:67:45:92:7c:b4:d6:49:a1:d6:87:bf:3a:b3:de:
         69:26:a9:15:42:ff:7e:1a:3e:3b:a2:db:2f:87:5a:e4:6e:c3:
         8d:cb:c2:b8:cc:30:36:81:ec:02:ad:fc:a7:a8:b7:1c:a0:2a:
         76:20:5f:3a:ac:65:57:56:e4:65:47:51:1b:dc:3d:1f:54:28:
         26:20:92:60:0a:3b:e4:07:7e:f0:5d:ba:18:15:2c:18:b2:c2:
         2f:5d:79:b6:66:52:2e:be:79:da:36:b8:9e:42:d9:d5:d7:6a:
         40:f0:70:b6:9c:69:a4:70:78:9f:75:dd:fe:dc:1a:5a:83:b2:
         00:6c:ba:86:6b:76:90:35:8c:87:a5:70:28:d0:55:ea:7f:dc:
         6a:53:5e:57:32:d3:29:14:11:4f:c4:7a:42:dd:04:24:5e:7a:
         64:13:a5:95:0c:a6:10:89:39:af:66:d6:7c:13:fb:0b:ca:3e:
         42:97:48:b2:8a:45:35:7b:7d:fc:a3:04:1c:b5:f9:2e:5d:27:
         8d:12:02:7f
-----BEGIN CERTIFICATE-----
MIIDXTCCAkWgAwIBAgIRAKvmvvw8+2fB0vRYIJoL05AwDQYJKoZIhvcNAQELBQAw
FjEUMBIGA1UEAwwLdGVhbTU3Ni1uZXQwHhcNMjEwOTEzMDM0MjUyWhcNMjQwODI4
MDM0MjUyWjAZMRcwFQYDVQQDDA50ZWFtNTc2LWNsaWVudDCCASIwDQYJKoZIhvcN
AQEBBQADggEPADCCAQoCggEBALa7Q0tbTYO4SNrcWf2vIjdLOXdBS5ONSuKv7ylH
XdG/NOPjNbk8EM4TtmKh8E+OVlO/Qxjnnb/BBUifVB4MlyYYh2nU60kJ8NSn0AOv
Cp2HfdhXhcyWIHrFGWIXgI4bhbNXYrXBc9AmtwUWI6fgt/bHZZC+tDPWnAY0eryr
2ZSJ60MvbgdG4w8OWvj1a7kPkXCtHGIE/zNjS/njrhAWY4H5J0Qf0LNT5f3ImLH+
H7NU9KCwUaKQ4MuOxZSBnwA3ns5cpT5ZmbsHFgngvym4lv68fK9x4/nHlVQ9PtWR
q4v2A6/83N79rSej7Huu1O8SjuDp4YEpsueHJTHGVypcTSECAwEAAaOBojCBnzAJ
BgNVHRMEAjAAMB0GA1UdDgQWBBSQ9LaJvv4KJwd2cOyosY5t8Tr8xzBRBgNVHSME
SjBIgBTON+qWXUSS/GBf5ANwZ5idQGdJEKEapBgwFjEUMBIGA1UEAwwLdGVhbTU3
Ni1uZXSCFFWJksZ7YDVm7yslXzz196bEhL2bMBMGA1UdJQQMMAoGCCsGAQUFBwMC
MAsGA1UdDwQEAwIHgDANBgkqhkiG9w0BAQsFAAOCAQEAMlzeRx8aGOTULHIo7pe7
TppIqKpcDkuFTG/Sn6/2cwUAECK0ce+euJ/OMlVXjfdUjRENq6SCVfRY9mdFkny0
1kmh1oe/OrPeaSapFUL/fho+O6LbL4da5G7DjcvCuMwwNoHsAq38p6i3HKAqdiBf
OqxlV1bkZUdRG9w9H1QoJiCSYAo75Ad+8F26GBUsGLLCL115tmZSLr552ja4nkLZ
1ddqQPBwtpxppHB4n3Xd/twaWoOyAGy6hmt2kDWMh6VwKNBV6n/calNeVzLTKRQR
T8R6Qt0EJF56ZBOllQymEIk5r2bWfBP7C8o+QpdIsopFNXt9/KMEHLX5Ll0njRIC
fw==
-----END CERTIFICATE-----
