Certificate:
    Data:
        Version: 3 (0x2)
        Serial Number:
            c0:3c:6d:72:93:c2:b0:73:4f:53:02:3e:e8:72:3f
        Signature Algorithm: sha256WithRSAEncryption
        Issuer: CN=team576-net
        Validity
            Not Before: Sep 13 03:42:52 2021 GMT
            Not After : Aug 28 03:42:52 2024 GMT
        Subject: CN=team576-server
        Subject Public Key Info:
            Public Key Algorithm: rsaEncryption
                RSA Public-Key: (2048 bit)
                Modulus:
                    00:a8:f0:9e:c1:85:b8:59:46:7d:48:42:64:11:e1:
                    11:ce:04:0d:46:c1:61:81:60:ef:f8:ac:33:2d:99:
                    eb:2d:09:e9:94:41:17:b6:d0:18:b1:55:dc:d1:80:
                    25:a2:13:7d:c9:5a:18:38:74:82:38:94:28:90:22:
                    91:de:6a:b1:7f:21:fa:23:dd:8c:b6:0e:6a:1d:79:
                    38:73:2e:e5:3a:d9:42:ad:a6:32:40:44:ca:73:5e:
                    46:27:f2:99:6b:c7:fc:44:f2:31:90:3e:4b:f8:db:
                    70:3c:4c:9a:cf:4a:21:4f:6a:4c:39:87:56:1b:fe:
                    73:24:a4:35:01:b5:0a:be:3e:70:f9:5a:13:c6:bb:
                    af:4a:59:91:06:54:fc:b1:13:4d:84:82:89:56:be:
                    9b:9e:98:4b:9e:eb:a1:72:88:b9:5a:19:a2:0a:c8:
                    e8:ac:c8:af:78:1f:62:6f:aa:38:ec:70:f3:03:a2:
                    27:3f:f9:6d:17:0c:fe:98:4e:b4:52:0f:1a:cd:62:
                    b4:de:70:12:1a:84:ec:82:9f:5c:a8:17:54:00:f1:
                    7d:88:0b:1d:ed:37:26:ac:51:3a:6e:d8:16:2e:f2:
                    f8:8f:81:a2:25:80:d3:6a:be:1c:7c:f2:fb:94:2c:
                    b4:82:46:92:50:8b:84:2d:9e:8d:71:3b:98:9d:81:
                    d1:bd
                Exponent: 65537 (0x10001)
        X509v3 extensions:
            X509v3 Basic Constraints: 
                CA:FALSE
            X509v3 Subject Key Identifier: 
                99:D3:C6:C7:DB:FC:70:57:18:AC:99:0C:E3:85:CF:2D:10:0F:0A:6C
            X509v3 Authority Key Identifier: 
                keyid:CE:37:EA:96:5D:44:92:FC:60:5F:E4:03:70:67:98:9D:40:67:49:10
                DirName:/CN=team576-net
                serial:55:89:92:C6:7B:60:35:66:EF:2B:25:5F:3C:F5:F7:A6:C4:84:BD:9B

            X509v3 Extended Key Usage: 
                TLS Web Server Authentication
            X509v3 Key Usage: 
                Digital Signature, Key Encipherment
            X509v3 Subject Alternative Name: 
                DNS:team576-server
    Signature Algorithm: sha256WithRSAEncryption
         21:b0:94:7f:52:69:b8:bb:b5:19:5d:84:8b:73:34:a6:00:b0:
         9e:c9:69:af:b5:e2:08:a7:9a:92:78:b7:dd:3e:75:55:b3:00:
         8b:81:14:e4:7c:20:50:4c:22:00:b8:19:67:df:91:c7:dc:23:
         bf:17:30:49:43:f5:51:07:aa:3e:b6:48:7c:ae:86:22:9d:11:
         38:d8:9c:7f:f1:20:29:40:36:02:27:51:44:0e:cf:2d:5b:b0:
         03:13:b2:bb:4e:04:bd:6c:8c:cd:cf:91:a7:29:3b:c2:67:83:
         76:4f:6a:50:b4:21:b2:64:64:b9:29:d8:96:42:b1:2c:b9:06:
         c9:ed:bf:2c:fc:c6:a2:8d:1e:ac:e0:96:f0:27:42:82:90:12:
         98:64:3e:57:17:c1:ba:ba:49:13:3f:6d:e9:95:c5:49:92:de:
         51:05:02:8e:03:07:84:3f:ce:e3:9e:af:3d:90:f1:88:90:d7:
         c8:e7:72:3a:e6:94:1c:8a:e6:6d:01:06:9f:6d:a7:78:a0:83:
         18:a3:78:d5:c1:61:70:03:ef:22:68:d6:e6:69:b3:0d:17:f5:
         83:4e:d4:d8:77:34:2b:09:d5:55:cc:5a:16:8a:0a:99:cf:33:
         82:34:a1:45:de:e2:50:83:c9:9e:59:7b:6f:52:00:1f:2e:d5:
         4b:d8:f6:93
-----BEGIN CERTIFICATE-----
MIIDdzCCAl+gAwIBAgIQAMA8bXKTwrBzT1MCPuhyPzANBgkqhkiG9w0BAQsFADAW
MRQwEgYDVQQDDAt0ZWFtNTc2LW5ldDAeFw0yMTA5MTMwMzQyNTJaFw0yNDA4Mjgw
MzQyNTJaMBkxFzAVBgNVBAMMDnRlYW01NzYtc2VydmVyMIIBIjANBgkqhkiG9w0B
AQEFAAOCAQ8AMIIBCgKCAQEAqPCewYW4WUZ9SEJkEeERzgQNRsFhgWDv+KwzLZnr
LQnplEEXttAYsVXc0YAlohN9yVoYOHSCOJQokCKR3mqxfyH6I92Mtg5qHXk4cy7l
OtlCraYyQETKc15GJ/KZa8f8RPIxkD5L+NtwPEyaz0ohT2pMOYdWG/5zJKQ1AbUK
vj5w+VoTxruvSlmRBlT8sRNNhIKJVr6bnphLnuuhcoi5WhmiCsjorMiveB9ib6o4
7HDzA6InP/ltFwz+mE60Ug8azWK03nASGoTsgp9cqBdUAPF9iAsd7TcmrFE6btgW
LvL4j4GiJYDTar4cfPL7lCy0gkaSUIuELZ6NcTuYnYHRvQIDAQABo4G9MIG6MAkG
A1UdEwQCMAAwHQYDVR0OBBYEFJnTxsfb/HBXGKyZDOOFzy0QDwpsMFEGA1UdIwRK
MEiAFM436pZdRJL8YF/kA3BnmJ1AZ0kQoRqkGDAWMRQwEgYDVQQDDAt0ZWFtNTc2
LW5ldIIUVYmSxntgNWbvKyVfPPX3psSEvZswEwYDVR0lBAwwCgYIKwYBBQUHAwEw
CwYDVR0PBAQDAgWgMBkGA1UdEQQSMBCCDnRlYW01NzYtc2VydmVyMA0GCSqGSIb3
DQEBCwUAA4IBAQAhsJR/Umm4u7UZXYSLczSmALCeyWmvteIIp5qSeLfdPnVVswCL
gRTkfCBQTCIAuBln35HH3CO/FzBJQ/VRB6o+tkh8roYinRE42Jx/8SApQDYCJ1FE
Ds8tW7ADE7K7TgS9bIzNz5GnKTvCZ4N2T2pQtCGyZGS5KdiWQrEsuQbJ7b8s/Mai
jR6s4JbwJ0KCkBKYZD5XF8G6ukkTP23plcVJkt5RBQKOAweEP87jnq89kPGIkNfI
53I65pQciuZtAQafbad4oIMYo3jVwWFwA+8iaNbmabMNF/WDTtTYdzQrCdVVzFoW
igqZzzOCNKFF3uJQg8meWXtvUgAfLtVL2PaT
-----END CERTIFICATE-----
