Certificate:
    Data:
        Version: 3 (0x2)
        Serial Number:
            13:c4:11:02:34:52:78:f4:2f:ee:fd:98:10:84:33:cc
        Signature Algorithm: sha256WithRSAEncryption
        Issuer: CN=team557-net
        Validity
            Not Before: Sep 13 03:35:21 2021 GMT
            Not After : Aug 28 03:35:21 2024 GMT
        Subject: CN=team557-client
        Subject Public Key Info:
            Public Key Algorithm: rsaEncryption
                RSA Public-Key: (2048 bit)
                Modulus:
                    00:a7:c6:06:e6:87:c3:a9:e0:a2:81:12:10:54:2a:
                    9b:52:25:ee:27:f9:30:97:87:db:d2:e8:3c:3a:2a:
                    a8:1e:de:7b:76:dd:b3:e6:60:f8:c0:74:f7:e5:49:
                    ca:25:21:df:05:44:95:bb:62:2f:5b:30:38:e2:be:
                    d9:f9:17:f6:6e:90:ad:29:fa:c4:df:e0:3a:ee:2f:
                    3a:4d:36:fe:65:cb:2d:85:c7:fa:4a:b0:e3:af:52:
                    2d:9b:87:65:b1:07:6d:34:eb:27:9e:cb:57:3f:1b:
                    e3:f5:2f:f8:e3:ec:8f:7c:f2:9a:14:28:21:6c:0b:
                    88:15:86:ef:bb:62:fa:7e:99:ac:eb:f5:61:8c:ee:
                    c2:a5:28:a5:20:5c:86:65:c3:f8:a7:11:45:87:ec:
                    33:e6:69:b1:9c:ae:c2:a7:89:21:8a:f1:00:8b:ea:
                    f7:04:f5:35:7a:ba:39:d3:da:e1:87:04:ea:8a:c4:
                    b1:cc:1f:21:83:57:ad:96:a1:a7:27:21:72:2e:ef:
                    af:00:7b:ec:81:89:cf:4b:e7:0a:48:cd:2f:d7:6f:
                    09:a0:bd:ee:fe:83:52:28:89:84:0a:f1:e8:9e:c3:
                    7d:65:90:0c:09:66:02:02:ed:5b:3d:e2:17:fc:17:
                    dc:d3:9d:9f:19:c6:86:fc:70:71:c7:37:84:1a:7e:
                    34:39
                Exponent: 65537 (0x10001)
        X509v3 extensions:
            X509v3 Basic Constraints: 
                CA:FALSE
            X509v3 Subject Key Identifier: 
                DD:65:C6:93:08:24:84:11:EB:13:F5:DA:88:5A:F8:76:81:CE:F7:31
            X509v3 Authority Key Identifier: 
                keyid:38:00:3B:3C:27:40:E7:A7:68:9B:68:52:EA:7E:74:26:27:1E:7D:D3
                DirName:/CN=team557-net
                serial:78:3A:2B:34:F4:65:EB:F2:B2:99:D5:F6:15:F2:E9:CC:16:4C:7F:A5

            X509v3 Extended Key Usage: 
                TLS Web Client Authentication
            X509v3 Key Usage: 
                Digital Signature
    Signature Algorithm: sha256WithRSAEncryption
         21:ec:88:92:5c:11:5b:b1:6a:3a:7c:80:69:cf:b9:76:ec:57:
         87:f2:3f:61:2a:8d:26:df:a2:2d:71:13:0d:f3:f8:4b:64:a0:
         f0:ec:9a:20:af:bd:f1:e5:85:68:89:4b:77:dd:a0:04:73:64:
         62:e0:ee:39:65:07:80:94:68:20:a3:23:f1:b6:82:93:1e:b0:
         eb:0c:13:c8:c4:8a:e9:c6:e8:b4:8c:16:b0:5c:fa:39:b7:e8:
         87:02:95:fd:ba:8a:1a:85:a9:80:23:c9:b4:45:22:48:5a:eb:
         4c:b9:e4:c2:45:66:92:5c:c5:32:b7:a2:aa:af:9c:d1:cc:b9:
         24:c2:ca:d9:aa:d7:2b:fe:0a:0e:95:20:86:69:70:e0:30:81:
         7e:64:f6:91:78:56:03:0f:83:96:73:d6:24:a0:d8:33:c0:f9:
         eb:45:8a:4e:c8:ef:15:21:ce:27:03:b8:56:ac:54:94:5b:8e:
         38:1a:11:c1:da:eb:91:af:a1:6a:e2:08:29:e8:86:e0:0b:10:
         48:e9:55:c0:41:6d:78:9f:5c:c1:12:d0:03:89:9c:01:e4:fe:
         40:09:37:4a:b3:5b:00:eb:0b:4f:fb:ac:0c:1f:56:e2:4c:b7:
         b1:82:89:cf:15:f2:1f:4c:b6:a4:86:2d:79:88:d7:c4:44:4b:
         8f:29:d1:2d
-----BEGIN CERTIFICATE-----
MIIDXDCCAkSgAwIBAgIQE8QRAjRSePQv7v2YEIQzzDANBgkqhkiG9w0BAQsFADAW
MRQwEgYDVQQDDAt0ZWFtNTU3LW5ldDAeFw0yMTA5MTMwMzM1MjFaFw0yNDA4Mjgw
MzM1MjFaMBkxFzAVBgNVBAMMDnRlYW01NTctY2xpZW50MIIBIjANBgkqhkiG9w0B
AQEFAAOCAQ8AMIIBCgKCAQEAp8YG5ofDqeCigRIQVCqbUiXuJ/kwl4fb0ug8Oiqo
Ht57dt2z5mD4wHT35UnKJSHfBUSVu2IvWzA44r7Z+Rf2bpCtKfrE3+A67i86TTb+
Zcsthcf6SrDjr1Itm4dlsQdtNOsnnstXPxvj9S/44+yPfPKaFCghbAuIFYbvu2L6
fpms6/VhjO7CpSilIFyGZcP4pxFFh+wz5mmxnK7Cp4khivEAi+r3BPU1ero509rh
hwTqisSxzB8hg1etlqGnJyFyLu+vAHvsgYnPS+cKSM0v128JoL3u/oNSKImECvHo
nsN9ZZAMCWYCAu1bPeIX/Bfc052fGcaG/HBxxzeEGn40OQIDAQABo4GiMIGfMAkG
A1UdEwQCMAAwHQYDVR0OBBYEFN1lxpMIJIQR6xP12oha+HaBzvcxMFEGA1UdIwRK
MEiAFDgAOzwnQOenaJtoUup+dCYnHn3ToRqkGDAWMRQwEgYDVQQDDAt0ZWFtNTU3
LW5ldIIUeDorNPRl6/KymdX2FfLpzBZMf6UwEwYDVR0lBAwwCgYIKwYBBQUHAwIw
CwYDVR0PBAQDAgeAMA0GCSqGSIb3DQEBCwUAA4IBAQAh7IiSXBFbsWo6fIBpz7l2
7FeH8j9hKo0m36ItcRMN8/hLZKDw7Jogr73x5YVoiUt33aAEc2Ri4O45ZQeAlGgg
oyPxtoKTHrDrDBPIxIrpxui0jBawXPo5t+iHApX9uooahamAI8m0RSJIWutMueTC
RWaSXMUyt6Kqr5zRzLkkwsrZqtcr/goOlSCGaXDgMIF+ZPaReFYDD4OWc9YkoNgz
wPnrRYpOyO8VIc4nA7hWrFSUW444GhHB2uuRr6Fq4ggp6IbgCxBI6VXAQW14n1zB
EtADiZwB5P5ACTdKs1sA6wtP+6wMH1biTLexgonPFfIfTLakhi15iNfEREuPKdEt
-----END CERTIFICATE-----
