Certificate:
    Data:
        Version: 3 (0x2)
        Serial Number:
            05:58:ee:e9:8c:9c:cd:95:17:ef:c6:c3:68:3b:8a:ff
        Signature Algorithm: sha256WithRSAEncryption
        Issuer: CN=team188-net
        Validity
            Not Before: Sep 13 00:24:42 2021 GMT
            Not After : Aug 28 00:24:42 2024 GMT
        Subject: CN=team188-server
        Subject Public Key Info:
            Public Key Algorithm: rsaEncryption
                RSA Public-Key: (2048 bit)
                Modulus:
                    00:cd:a2:e4:a5:e5:8d:d8:ef:53:1b:22:ba:0c:b4:
                    2b:fd:fa:3d:7d:97:4c:93:f9:5e:a1:7c:b8:23:e9:
                    a4:b5:95:75:58:9f:9b:c8:fd:a6:d6:26:36:43:df:
                    86:c2:27:b3:d1:0b:f3:9e:ef:b5:1c:6e:3c:8b:bb:
                    3b:8d:c5:2f:38:45:84:d7:af:19:32:80:4d:f9:76:
                    e9:b0:84:67:76:16:02:da:77:d9:52:47:f1:36:75:
                    01:33:c6:23:91:1b:e1:22:35:c9:9d:31:3f:ea:77:
                    6d:7a:cd:76:fa:d1:d0:8f:d0:3a:19:6f:e3:fc:ed:
                    35:4d:64:b6:f3:07:1b:23:ba:d7:2b:08:38:65:52:
                    a3:13:dc:fb:e7:44:34:a1:b8:15:1d:a6:66:ae:30:
                    22:02:e0:e2:66:26:4a:c3:b5:fd:2f:56:f3:69:82:
                    54:e8:92:c4:ac:3c:99:f3:33:f4:f8:d8:d9:9d:d2:
                    70:1f:41:29:e2:1e:c2:96:90:25:b8:50:27:5d:89:
                    7a:ac:bd:0c:71:30:26:82:08:4f:db:7d:46:4c:e9:
                    91:41:7f:d5:38:26:8a:1b:2e:27:2a:13:16:e2:8c:
                    ca:bc:2f:00:7a:b5:36:24:d9:93:a6:b9:a4:52:f0:
                    78:ca:9d:59:6d:6c:31:f8:0a:a5:58:df:e1:f3:06:
                    84:eb
                Exponent: 65537 (0x10001)
        X509v3 extensions:
            X509v3 Basic Constraints: 
                CA:FALSE
            X509v3 Subject Key Identifier: 
                3C:18:05:81:42:A4:6B:8B:96:B5:1A:92:0F:22:0F:EF:47:62:79:F3
            X509v3 Authority Key Identifier: 
                keyid:3F:F8:E7:29:35:33:8C:AF:9C:FC:D1:FA:88:A8:91:95:BA:78:BC:99
                DirName:/CN=team188-net
                serial:08:D8:78:00:87:37:42:4C:A2:D6:7B:3E:A7:FC:19:F3:5E:D5:EB:ED

            X509v3 Extended Key Usage: 
                TLS Web Server Authentication
            X509v3 Key Usage: 
                Digital Signature, Key Encipherment
            X509v3 Subject Alternative Name: 
                DNS:team188-server
    Signature Algorithm: sha256WithRSAEncryption
         21:45:f5:a6:a6:14:2e:6b:11:dc:2f:8e:d2:93:16:23:a2:47:
         a9:71:6c:cd:ad:1c:82:13:b7:ae:4d:a3:40:35:b2:3a:71:d2:
         2d:70:a7:29:81:5e:d9:30:7e:f2:52:2a:21:b0:d8:6e:2f:b7:
         e9:6a:02:ea:3f:74:f8:e2:ba:16:6a:b2:cf:cf:f6:de:8a:04:
         3e:42:9e:6a:71:f4:28:52:55:d9:e1:7d:89:36:6f:c5:0c:69:
         12:ae:ab:fa:34:a0:cf:aa:04:14:e7:7a:80:af:35:af:eb:f1:
         d4:66:1d:a5:fb:23:76:b7:d8:aa:e4:07:bd:7d:39:cc:a3:87:
         2f:f8:76:99:ca:eb:04:c7:ab:7e:ed:75:a1:e7:77:e1:bb:8b:
         64:55:06:21:a4:f7:c5:a6:37:c3:ed:a3:7a:df:36:12:37:f9:
         d9:1b:9b:c8:fd:ed:3f:cf:c8:52:26:89:45:38:ed:ce:11:42:
         05:f0:91:23:e5:f4:74:88:c3:99:e3:60:62:25:87:39:42:1a:
         40:8f:fe:31:9f:93:d5:95:73:00:b6:a9:5f:ec:a3:f5:a0:72:
         76:e1:eb:e4:7c:8a:85:15:5e:29:8c:70:6b:e5:38:d2:bf:5e:
         27:b4:73:70:56:9d:45:23:c9:51:2e:af:01:af:70:11:4b:28:
         80:ac:a8:1e
-----BEGIN CERTIFICATE-----
MIIDdzCCAl+gAwIBAgIQBVju6YyczZUX78bDaDuK/zANBgkqhkiG9w0BAQsFADAW
MRQwEgYDVQQDDAt0ZWFtMTg4LW5ldDAeFw0yMTA5MTMwMDI0NDJaFw0yNDA4Mjgw
MDI0NDJaMBkxFzAVBgNVBAMMDnRlYW0xODgtc2VydmVyMIIBIjANBgkqhkiG9w0B
AQEFAAOCAQ8AMIIBCgKCAQEAzaLkpeWN2O9TGyK6DLQr/fo9fZdMk/leoXy4I+mk
tZV1WJ+byP2m1iY2Q9+Gwiez0Qvznu+1HG48i7s7jcUvOEWE168ZMoBN+XbpsIRn
dhYC2nfZUkfxNnUBM8YjkRvhIjXJnTE/6ndtes12+tHQj9A6GW/j/O01TWS28wcb
I7rXKwg4ZVKjE9z750Q0obgVHaZmrjAiAuDiZiZKw7X9L1bzaYJU6JLErDyZ8zP0
+NjZndJwH0Ep4h7ClpAluFAnXYl6rL0McTAmgghP231GTOmRQX/VOCaKGy4nKhMW
4ozKvC8AerU2JNmTprmkUvB4yp1ZbWwx+AqlWN/h8waE6wIDAQABo4G9MIG6MAkG
A1UdEwQCMAAwHQYDVR0OBBYEFDwYBYFCpGuLlrUakg8iD+9HYnnzMFEGA1UdIwRK
MEiAFD/45yk1M4yvnPzR+oiokZW6eLyZoRqkGDAWMRQwEgYDVQQDDAt0ZWFtMTg4
LW5ldIIUCNh4AIc3Qkyi1ns+p/wZ817V6+0wEwYDVR0lBAwwCgYIKwYBBQUHAwEw
CwYDVR0PBAQDAgWgMBkGA1UdEQQSMBCCDnRlYW0xODgtc2VydmVyMA0GCSqGSIb3
DQEBCwUAA4IBAQAhRfWmphQuaxHcL47SkxYjokepcWzNrRyCE7euTaNANbI6cdIt
cKcpgV7ZMH7yUiohsNhuL7fpagLqP3T44roWarLPz/beigQ+Qp5qcfQoUlXZ4X2J
Nm/FDGkSrqv6NKDPqgQU53qArzWv6/HUZh2l+yN2t9iq5Ae9fTnMo4cv+HaZyusE
x6t+7XWh53fhu4tkVQYhpPfFpjfD7aN63zYSN/nZG5vI/e0/z8hSJolFOO3OEUIF
8JEj5fR0iMOZ42BiJYc5QhpAj/4xn5PVlXMAtqlf7KP1oHJ24evkfIqFFV4pjHBr
5TjSv14ntHNwVp1FI8lRLq8Br3ARSyiArKge
-----END CERTIFICATE-----
