Certificate:
    Data:
        Version: 3 (0x2)
        Serial Number:
            11:19:55:20:df:bb:ef:98:0f:2b:ac:23:9c:7c:52:7a
        Signature Algorithm: sha256WithRSAEncryption
        Issuer: CN=team646-net
        Validity
            Not Before: Sep 13 04:47:37 2021 GMT
            Not After : Aug 28 04:47:37 2024 GMT
        Subject: CN=team646-client
        Subject Public Key Info:
            Public Key Algorithm: rsaEncryption
                RSA Public-Key: (2048 bit)
                Modulus:
                    00:d0:35:4c:74:62:9a:f8:51:8f:08:8d:fc:ca:fd:
                    06:ff:96:fc:b4:27:8f:40:d3:39:4a:8e:11:28:66:
                    6b:e6:fe:55:12:17:8d:6f:8e:b3:56:9f:d9:59:f0:
                    96:c3:ce:da:8e:96:fd:03:83:3f:61:84:0d:99:43:
                    a7:8d:f0:7b:25:18:ed:df:bf:69:5f:ca:e2:f2:d9:
                    ab:a6:bd:63:b7:65:a0:7e:a6:da:96:1e:87:b4:15:
                    29:03:c6:b4:64:56:47:0d:18:76:9e:14:d3:51:96:
                    c6:f6:89:a1:5c:92:11:1f:80:4f:2b:5c:43:e3:f0:
                    94:9b:8e:18:f5:7b:f7:86:98:b2:fc:5d:73:4f:2b:
                    6c:0c:c0:37:18:3b:ca:c8:04:0d:d9:99:d2:ea:72:
                    5a:88:36:63:1f:16:28:85:49:fd:11:c5:3f:27:bb:
                    d3:b2:13:db:8d:49:01:98:6c:39:46:59:e8:ed:90:
                    bc:d4:18:8c:18:55:d1:12:33:51:29:d8:ff:9a:ef:
                    03:d1:bd:8e:a9:ba:e3:3f:bb:81:19:cf:66:9c:e0:
                    8b:bb:45:ef:a3:8d:c2:df:8b:61:52:19:83:85:c2:
                    3a:74:7c:31:a7:1b:2f:7d:34:61:bd:e2:23:5a:f5:
                    96:b8:94:39:03:2a:77:4a:db:26:47:b5:70:04:f6:
                    6e:0b
                Exponent: 65537 (0x10001)
        X509v3 extensions:
            X509v3 Basic Constraints: 
                CA:FALSE
            X509v3 Subject Key Identifier: 
                90:DD:8A:CD:1B:FB:2E:2F:31:9A:F5:6E:95:4A:C3:D4:9F:DA:B4:9A
            X509v3 Authority Key Identifier: 
                keyid:ED:94:0E:BF:0C:C6:4B:9F:9D:69:46:EB:5B:C7:90:3F:6F:D1:A2:3A
                DirName:/CN=team646-net
                serial:26:88:05:2D:5C:A8:2B:4C:81:32:56:BE:BB:A2:FA:AA:9E:C4:76:05

            X509v3 Extended Key Usage: 
                TLS Web Client Authentication
            X509v3 Key Usage: 
                Digital Signature
    Signature Algorithm: sha256WithRSAEncryption
         68:49:01:63:7a:4d:84:55:2b:74:50:68:43:b6:50:68:07:d9:
         12:1a:74:91:bb:7c:3c:88:b9:a0:fd:f5:72:32:30:f2:88:b4:
         4c:7d:5a:1c:49:2c:9e:01:b4:33:22:eb:57:77:43:a4:c7:73:
         95:8d:d5:ee:e4:34:41:40:af:67:f6:7a:d8:f9:3f:2f:72:76:
         a7:01:23:58:61:7c:27:48:21:56:92:49:c6:c4:ef:4a:55:36:
         14:e5:8c:85:e0:90:3b:b4:e8:52:0a:9f:3b:3a:46:d7:c3:65:
         d7:81:81:cc:78:cd:3f:1e:9a:96:14:bb:85:82:65:a2:63:2f:
         d0:73:57:0e:0a:b3:81:4f:2b:30:56:45:9f:df:27:55:43:d2:
         9f:f9:13:e6:d6:00:72:ed:94:51:ca:93:0c:8f:1e:8e:63:05:
         3c:63:03:76:46:e2:66:69:9e:62:4b:38:34:54:7a:1c:4e:fa:
         ac:85:13:a6:a4:95:8e:d6:81:6c:93:82:56:0e:92:93:fe:00:
         03:8a:68:2c:88:93:e4:90:5e:41:ca:38:48:7a:3a:cd:35:55:
         53:1e:16:1f:57:16:ce:4f:d8:f6:90:ce:0d:ef:74:1f:a8:e4:
         98:7f:f6:af:95:58:e9:6b:67:07:4c:fb:5a:cb:b1:61:cf:4f:
         12:36:9c:b5
-----BEGIN CERTIFICATE-----
MIIDXDCCAkSgAwIBAgIQERlVIN+775gPK6wjnHxSejANBgkqhkiG9w0BAQsFADAW
MRQwEgYDVQQDDAt0ZWFtNjQ2LW5ldDAeFw0yMTA5MTMwNDQ3MzdaFw0yNDA4Mjgw
NDQ3MzdaMBkxFzAVBgNVBAMMDnRlYW02NDYtY2xpZW50MIIBIjANBgkqhkiG9w0B
AQEFAAOCAQ8AMIIBCgKCAQEA0DVMdGKa+FGPCI38yv0G/5b8tCePQNM5So4RKGZr
5v5VEheNb46zVp/ZWfCWw87ajpb9A4M/YYQNmUOnjfB7JRjt379pX8ri8tmrpr1j
t2Wgfqbalh6HtBUpA8a0ZFZHDRh2nhTTUZbG9omhXJIRH4BPK1xD4/CUm44Y9Xv3
hpiy/F1zTytsDMA3GDvKyAQN2ZnS6nJaiDZjHxYohUn9EcU/J7vTshPbjUkBmGw5
Rlno7ZC81BiMGFXREjNRKdj/mu8D0b2OqbrjP7uBGc9mnOCLu0Xvo43C34thUhmD
hcI6dHwxpxsvfTRhveIjWvWWuJQ5Ayp3StsmR7VwBPZuCwIDAQABo4GiMIGfMAkG
A1UdEwQCMAAwHQYDVR0OBBYEFJDdis0b+y4vMZr1bpVKw9Sf2rSaMFEGA1UdIwRK
MEiAFO2UDr8MxkufnWlG61vHkD9v0aI6oRqkGDAWMRQwEgYDVQQDDAt0ZWFtNjQ2
LW5ldIIUJogFLVyoK0yBMla+u6L6qp7EdgUwEwYDVR0lBAwwCgYIKwYBBQUHAwIw
CwYDVR0PBAQDAgeAMA0GCSqGSIb3DQEBCwUAA4IBAQBoSQFjek2EVSt0UGhDtlBo
B9kSGnSRu3w8iLmg/fVyMjDyiLRMfVocSSyeAbQzIutXd0Okx3OVjdXu5DRBQK9n
9nrY+T8vcnanASNYYXwnSCFWkknGxO9KVTYU5YyF4JA7tOhSCp87OkbXw2XXgYHM
eM0/HpqWFLuFgmWiYy/Qc1cOCrOBTyswVkWf3ydVQ9Kf+RPm1gBy7ZRRypMMjx6O
YwU8YwN2RuJmaZ5iSzg0VHocTvqshROmpJWO1oFsk4JWDpKT/gADimgsiJPkkF5B
yjhIejrNNVVTHhYfVxbOT9j2kM4N73QfqOSYf/avlVjpa2cHTPtay7Fhz08SNpy1
-----END CERTIFICATE-----
