Certificate:
    Data:
        Version: 3 (0x2)
        Serial Number:
            63:68:c2:44:fe:bc:0d:a4:46:8a:64:aa:c1:4c:a6:10
        Signature Algorithm: sha256WithRSAEncryption
        Issuer: CN=team161-net
        Validity
            Not Before: Sep 13 00:09:53 2021 GMT
            Not After : Aug 28 00:09:53 2024 GMT
        Subject: CN=team161-client
        Subject Public Key Info:
            Public Key Algorithm: rsaEncryption
                RSA Public-Key: (2048 bit)
                Modulus:
                    00:a4:8b:99:2d:e1:f4:05:2b:7d:b1:2d:26:4a:0d:
                    30:85:67:fd:18:d3:76:1f:be:21:a5:bf:1a:67:50:
                    35:8e:94:02:38:2d:2a:29:a7:42:1b:a7:3f:0a:26:
                    d6:51:27:56:f4:2c:45:a6:e9:4c:27:fb:27:44:9e:
                    0f:5b:6d:51:b4:0b:46:d8:56:12:64:70:8d:80:8b:
                    b4:0c:27:6c:a7:ed:c2:ad:1c:cb:e6:57:66:6b:fb:
                    98:41:66:fc:1c:72:46:44:dc:50:ff:1a:3a:13:9f:
                    9f:c9:6f:41:4c:e6:62:fc:ee:12:8a:b6:ce:02:ee:
                    f1:94:d1:e9:e3:6b:61:aa:f1:7f:b6:5e:11:36:13:
                    9c:43:26:eb:00:d8:aa:8f:eb:4c:f5:f6:2a:fb:9d:
                    f7:d8:8d:28:13:33:b1:4a:47:ec:48:8c:70:32:a3:
                    f7:9b:20:a7:8e:e8:bc:7e:d1:f5:00:ba:c8:a8:df:
                    5b:c7:d9:65:1e:7d:8f:2c:d1:ca:ee:b6:b9:41:76:
                    21:2b:22:29:6a:19:4c:ff:68:b8:51:4f:04:4d:05:
                    e6:1b:10:cd:95:63:be:cc:94:99:f8:45:57:dc:7a:
                    b6:9c:68:0d:59:69:38:01:3d:0f:8d:72:9b:13:a1:
                    b7:e1:9c:df:c1:12:5b:0b:3e:6e:5a:e4:86:12:f2:
                    e0:6f
                Exponent: 65537 (0x10001)
        X509v3 extensions:
            X509v3 Basic Constraints: 
                CA:FALSE
            X509v3 Subject Key Identifier: 
                15:79:F2:4B:16:0C:31:58:49:61:D7:C1:60:20:87:01:A6:8F:DF:B3
            X509v3 Authority Key Identifier: 
                keyid:E4:0E:5A:A5:9C:6D:9F:0C:06:26:7A:58:33:CF:C3:7E:08:6A:3C:B9
                DirName:/CN=team161-net
                serial:5A:10:1B:70:89:5C:7B:01:B5:E5:97:37:3C:7A:FB:51:1D:C9:7E:F4

            X509v3 Extended Key Usage: 
                TLS Web Client Authentication
            X509v3 Key Usage: 
                Digital Signature
    Signature Algorithm: sha256WithRSAEncryption
         70:ad:79:f0:4b:27:10:4d:27:4b:4a:09:da:8f:53:49:7b:39:
         ef:87:ba:5a:bc:f7:b5:4f:3f:6a:87:32:b2:35:2e:5c:1d:ba:
         ee:3c:de:cf:4b:13:8a:1d:f3:4c:d6:a8:2c:ae:a6:93:e8:94:
         9b:93:67:00:c8:a2:e7:d3:b2:54:83:f8:30:f0:7f:3d:7f:6b:
         d8:5e:a5:3e:e5:b2:63:04:a2:16:ec:f6:05:b3:53:c2:58:3b:
         a7:5e:b5:7d:ef:2b:cd:99:88:d6:1a:c8:47:68:dd:d3:93:06:
         33:bc:b3:25:86:e5:f3:21:20:59:54:59:c7:dd:35:37:b2:a3:
         ad:b1:48:b7:19:47:59:ad:bb:3a:7a:2e:f4:6b:1e:16:13:fa:
         cb:53:02:34:cb:bf:05:04:d8:61:ff:72:83:66:40:0b:28:2a:
         44:2a:0a:40:f8:97:c9:ad:27:4c:75:ac:49:bd:27:88:b3:c6:
         a0:a9:d8:1b:27:7a:64:54:89:12:94:44:f3:e5:0f:54:9a:15:
         f7:48:14:d2:4f:bd:13:32:51:63:65:25:01:5d:01:2a:13:86:
         8a:0e:1d:fa:7d:fc:96:89:7a:30:b5:19:fa:b2:50:ed:e5:80:
         b5:64:48:2b:be:4b:23:32:3c:21:20:86:38:f1:3c:ae:be:35:
         53:33:85:b6
-----BEGIN CERTIFICATE-----
MIIDXDCCAkSgAwIBAgIQY2jCRP68DaRGimSqwUymEDANBgkqhkiG9w0BAQsFADAW
MRQwEgYDVQQDDAt0ZWFtMTYxLW5ldDAeFw0yMTA5MTMwMDA5NTNaFw0yNDA4Mjgw
MDA5NTNaMBkxFzAVBgNVBAMMDnRlYW0xNjEtY2xpZW50MIIBIjANBgkqhkiG9w0B
AQEFAAOCAQ8AMIIBCgKCAQEApIuZLeH0BSt9sS0mSg0whWf9GNN2H74hpb8aZ1A1
jpQCOC0qKadCG6c/CibWUSdW9CxFpulMJ/snRJ4PW21RtAtG2FYSZHCNgIu0DCds
p+3CrRzL5ldma/uYQWb8HHJGRNxQ/xo6E5+fyW9BTOZi/O4SirbOAu7xlNHp42th
qvF/tl4RNhOcQybrANiqj+tM9fYq+5332I0oEzOxSkfsSIxwMqP3myCnjui8ftH1
ALrIqN9bx9llHn2PLNHK7ra5QXYhKyIpahlM/2i4UU8ETQXmGxDNlWO+zJSZ+EVX
3Hq2nGgNWWk4AT0PjXKbE6G34ZzfwRJbCz5uWuSGEvLgbwIDAQABo4GiMIGfMAkG
A1UdEwQCMAAwHQYDVR0OBBYEFBV58ksWDDFYSWHXwWAghwGmj9+zMFEGA1UdIwRK
MEiAFOQOWqWcbZ8MBiZ6WDPPw34Iajy5oRqkGDAWMRQwEgYDVQQDDAt0ZWFtMTYx
LW5ldIIUWhAbcIlcewG15Zc3PHr7UR3JfvQwEwYDVR0lBAwwCgYIKwYBBQUHAwIw
CwYDVR0PBAQDAgeAMA0GCSqGSIb3DQEBCwUAA4IBAQBwrXnwSycQTSdLSgnaj1NJ
eznvh7pavPe1Tz9qhzKyNS5cHbruPN7PSxOKHfNM1qgsrqaT6JSbk2cAyKLn07JU
g/gw8H89f2vYXqU+5bJjBKIW7PYFs1PCWDunXrV97yvNmYjWGshHaN3TkwYzvLMl
huXzISBZVFnH3TU3sqOtsUi3GUdZrbs6ei70ax4WE/rLUwI0y78FBNhh/3KDZkAL
KCpEKgpA+JfJrSdMdaxJvSeIs8agqdgbJ3pkVIkSlETz5Q9UmhX3SBTST70TMlFj
ZSUBXQEqE4aKDh36ffyWiXowtRn6slDt5YC1ZEgrvksjMjwhIIY48TyuvjVTM4W2
-----END CERTIFICATE-----
