Certificate:
    Data:
        Version: 3 (0x2)
        Serial Number:
            6d:27:6f:7d:bf:1e:3a:bd:22:58:e9:2b:be:18:96:d2
        Signature Algorithm: sha256WithRSAEncryption
        Issuer: CN=team540-net
        Validity
            Not Before: Sep 13 03:25:59 2021 GMT
            Not After : Aug 28 03:25:59 2024 GMT
        Subject: CN=team540-client
        Subject Public Key Info:
            Public Key Algorithm: rsaEncryption
                RSA Public-Key: (2048 bit)
                Modulus:
                    00:c8:99:21:57:f0:24:08:d5:7c:62:51:55:e0:90:
                    fa:54:87:98:92:71:6e:d4:78:b4:2a:76:48:1f:fa:
                    e9:13:c7:0b:47:01:c2:90:f1:e5:e9:7d:12:05:ef:
                    dc:68:15:6c:65:b5:f2:a9:a5:c0:c6:53:64:d9:f7:
                    c4:a1:5d:d1:7f:76:38:39:5b:e5:1b:96:e3:50:e0:
                    41:46:13:99:5d:b7:bc:27:15:95:50:a1:a9:b5:6b:
                    dd:46:f3:5b:3a:ac:a6:fb:79:9f:c0:af:ee:81:c6:
                    e1:62:67:d0:90:9c:00:38:ff:e6:eb:99:77:69:2d:
                    03:57:00:a3:70:c0:f4:53:34:6e:bc:d4:08:8c:5c:
                    27:77:70:bc:9c:85:b0:a6:0f:1e:dd:04:4f:bc:9d:
                    66:9a:0d:db:2a:81:6f:5f:e6:bc:14:7a:17:35:97:
                    3e:0e:d9:d0:db:52:b2:5f:d7:a9:a5:00:bc:88:78:
                    cd:75:63:74:3c:6a:da:21:d8:cf:ed:58:1a:9d:ad:
                    71:ba:92:70:c7:58:95:9b:f8:8e:21:62:f2:c4:7e:
                    3a:f9:c1:fe:fa:29:93:e4:2a:93:5f:5d:56:7c:cf:
                    ff:f3:51:ac:1a:e1:db:85:fc:49:83:72:f3:dc:42:
                    24:74:11:30:b9:ae:e5:69:06:19:78:5d:6b:13:1f:
                    da:d5
                Exponent: 65537 (0x10001)
        X509v3 extensions:
            X509v3 Basic Constraints: 
                CA:FALSE
            X509v3 Subject Key Identifier: 
                12:63:8F:A5:8C:8A:79:49:17:60:AC:F1:EF:8D:8D:C3:89:D2:CA:00
            X509v3 Authority Key Identifier: 
                keyid:46:EC:74:B2:F2:F5:AC:78:C4:2C:D6:6C:DB:24:03:2B:ED:FA:F6:7D
                DirName:/CN=team540-net
                serial:45:AA:2E:77:AF:D8:AC:EC:AD:44:4E:21:E6:D9:1E:B7:36:57:60:39

            X509v3 Extended Key Usage: 
                TLS Web Client Authentication
            X509v3 Key Usage: 
                Digital Signature
    Signature Algorithm: sha256WithRSAEncryption
         7d:0a:ae:57:ea:ac:6e:df:d6:34:6d:49:71:1b:5b:7c:87:5c:
         f4:05:9b:29:cd:e0:ea:a7:cf:60:f6:b4:39:37:bf:3b:20:a8:
         7b:bc:c1:94:be:20:89:aa:52:e7:24:91:ea:be:25:90:69:89:
         0d:f4:9d:df:84:08:bd:07:87:fc:f9:a8:58:55:b7:83:95:59:
         4a:db:71:94:80:c5:c0:9f:d2:37:c6:b9:2b:f6:08:20:67:25:
         de:b8:80:c8:54:84:10:bb:37:fa:95:30:30:c2:c6:9e:60:46:
         1b:68:4a:a9:f3:d7:9b:c3:8f:12:ff:be:fa:e2:17:bf:44:01:
         56:c4:d1:9c:82:10:9d:a1:36:f3:8e:41:6e:8f:4c:dd:50:db:
         0d:6c:01:bd:bc:3e:bd:64:e1:ae:c4:f0:93:56:b4:e3:99:91:
         e5:f8:e3:6c:88:86:f3:bd:f2:15:98:8a:ad:2c:b2:cc:b8:7d:
         c1:11:ea:98:6c:12:3d:62:e7:ab:eb:ca:99:30:12:e7:f0:09:
         52:d3:06:c8:f6:a8:fb:87:94:07:b4:e5:fe:70:90:32:b7:43:
         5c:d5:f6:de:8c:4b:21:23:a3:48:fe:d3:46:a6:39:98:2f:4a:
         15:c0:0a:2c:68:c9:8c:22:45:51:30:94:c5:11:25:a5:8a:5c:
         16:8d:d7:fd
-----BEGIN CERTIFICATE-----
MIIDXDCCAkSgAwIBAgIQbSdvfb8eOr0iWOkrvhiW0jANBgkqhkiG9w0BAQsFADAW
MRQwEgYDVQQDDAt0ZWFtNTQwLW5ldDAeFw0yMTA5MTMwMzI1NTlaFw0yNDA4Mjgw
MzI1NTlaMBkxFzAVBgNVBAMMDnRlYW01NDAtY2xpZW50MIIBIjANBgkqhkiG9w0B
AQEFAAOCAQ8AMIIBCgKCAQEAyJkhV/AkCNV8YlFV4JD6VIeYknFu1Hi0KnZIH/rp
E8cLRwHCkPHl6X0SBe/caBVsZbXyqaXAxlNk2ffEoV3Rf3Y4OVvlG5bjUOBBRhOZ
Xbe8JxWVUKGptWvdRvNbOqym+3mfwK/ugcbhYmfQkJwAOP/m65l3aS0DVwCjcMD0
UzRuvNQIjFwnd3C8nIWwpg8e3QRPvJ1mmg3bKoFvX+a8FHoXNZc+DtnQ21KyX9ep
pQC8iHjNdWN0PGraIdjP7Vgana1xupJwx1iVm/iOIWLyxH46+cH++imT5CqTX11W
fM//81GsGuHbhfxJg3Lz3EIkdBEwua7laQYZeF1rEx/a1QIDAQABo4GiMIGfMAkG
A1UdEwQCMAAwHQYDVR0OBBYEFBJjj6WMinlJF2Cs8e+NjcOJ0soAMFEGA1UdIwRK
MEiAFEbsdLLy9ax4xCzWbNskAyvt+vZ9oRqkGDAWMRQwEgYDVQQDDAt0ZWFtNTQw
LW5ldIIURaoud6/YrOytRE4h5tketzZXYDkwEwYDVR0lBAwwCgYIKwYBBQUHAwIw
CwYDVR0PBAQDAgeAMA0GCSqGSIb3DQEBCwUAA4IBAQB9Cq5X6qxu39Y0bUlxG1t8
h1z0BZspzeDqp89g9rQ5N787IKh7vMGUviCJqlLnJJHqviWQaYkN9J3fhAi9B4f8
+ahYVbeDlVlK23GUgMXAn9I3xrkr9gggZyXeuIDIVIQQuzf6lTAwwsaeYEYbaEqp
89ebw48S/7764he/RAFWxNGcghCdoTbzjkFuj0zdUNsNbAG9vD69ZOGuxPCTVrTj
mZHl+ONsiIbzvfIVmIqtLLLMuH3BEeqYbBI9Yuer68qZMBLn8AlS0wbI9qj7h5QH
tOX+cJAyt0Nc1fbejEshI6NI/tNGpjmYL0oVwAosaMmMIkVRMJTFESWlilwWjdf9
-----END CERTIFICATE-----
