Certificate:
    Data:
        Version: 3 (0x2)
        Serial Number:
            c6:95:0f:8b:bb:d2:aa:d3:35:7a:0f:bd:dc:3a:60:cc
        Signature Algorithm: sha256WithRSAEncryption
        Issuer: CN=team540-net
        Validity
            Not Before: Sep 13 03:26:00 2021 GMT
            Not After : Aug 28 03:26:00 2024 GMT
        Subject: CN=team540-server
        Subject Public Key Info:
            Public Key Algorithm: rsaEncryption
                RSA Public-Key: (2048 bit)
                Modulus:
                    00:a7:f9:41:8b:b3:33:70:f7:b3:f1:d5:04:0e:9f:
                    7e:7e:16:c7:89:d5:92:23:14:a7:1a:94:40:2f:4b:
                    57:6e:78:6d:23:80:c2:6a:92:81:4d:07:0e:40:37:
                    66:59:00:77:0d:68:9e:0b:56:15:71:ec:7f:20:09:
                    5c:35:fa:10:5d:df:7e:98:18:0a:17:07:f2:32:cb:
                    36:5a:18:b4:4e:ad:43:99:dc:27:b3:17:a0:80:fd:
                    1c:aa:06:4c:64:5e:eb:25:c9:b7:6e:46:b6:e6:e8:
                    fc:8b:a1:85:a0:f3:97:45:f0:5b:81:20:2c:5b:03:
                    28:1d:1a:f1:c7:e1:77:68:05:c0:6b:ab:b5:43:f5:
                    cf:9e:62:b0:a8:25:8b:ba:d9:3b:8c:5d:7d:7e:fc:
                    93:f4:c1:63:e7:56:82:81:cd:86:29:09:b8:e9:bf:
                    6d:f5:cc:fd:05:1c:a7:81:3f:89:9c:31:9d:be:35:
                    78:7a:aa:33:d1:db:53:5b:fb:06:9c:cd:fa:f0:c0:
                    63:89:ff:40:3b:2f:78:2d:71:29:d0:ed:e8:09:a2:
                    91:af:5e:f1:58:e4:49:a6:e4:50:af:47:90:a1:e8:
                    7e:c1:7c:2a:7a:d3:67:92:c5:87:87:69:b6:dd:dd:
                    56:94:60:a2:0c:e2:d7:24:38:36:10:8d:a2:1f:5c:
                    aa:79
                Exponent: 65537 (0x10001)
        X509v3 extensions:
            X509v3 Basic Constraints: 
                CA:FALSE
            X509v3 Subject Key Identifier: 
                FE:C7:EE:49:6B:E1:A0:70:50:78:B2:90:DB:7D:28:7B:4C:07:52:32
            X509v3 Authority Key Identifier: 
                keyid:46:EC:74:B2:F2:F5:AC:78:C4:2C:D6:6C:DB:24:03:2B:ED:FA:F6:7D
                DirName:/CN=team540-net
                serial:45:AA:2E:77:AF:D8:AC:EC:AD:44:4E:21:E6:D9:1E:B7:36:57:60:39

            X509v3 Extended Key Usage: 
                TLS Web Server Authentication
            X509v3 Key Usage: 
                Digital Signature, Key Encipherment
            X509v3 Subject Alternative Name: 
                DNS:team540-server
    Signature Algorithm: sha256WithRSAEncryption
         3d:c0:19:f8:6f:90:c2:2b:0f:13:c0:d7:64:bc:4e:d0:8e:d4:
         cd:fa:ae:cc:c6:71:4e:4c:9d:36:42:74:75:97:ad:f6:13:e4:
         6b:93:13:80:9e:47:93:34:6b:d8:55:2f:91:96:22:14:bb:f2:
         14:67:d0:4f:40:b7:7d:47:33:7f:74:da:e8:2b:b6:63:be:55:
         5a:74:08:3f:33:bf:5e:97:76:86:1f:c5:3d:c3:e9:db:04:08:
         90:0d:13:2d:42:66:b3:aa:e4:75:62:7c:4c:87:3d:5d:ea:21:
         31:1f:d5:f1:aa:9d:c8:d1:a9:c7:f3:29:87:54:5e:12:b6:78:
         b3:49:36:25:f1:0f:d4:f2:43:5c:2d:8a:fb:1a:d2:a4:01:3b:
         72:52:e8:e5:87:e8:78:68:c4:3d:22:81:70:c0:bf:8a:7e:f0:
         c6:61:11:0b:d0:92:9d:17:47:18:5b:15:e1:6c:a1:9c:2c:ef:
         2b:6c:53:64:91:42:cb:fd:95:73:bc:17:48:48:78:30:15:0c:
         d7:2d:d7:5a:95:c9:6a:2b:1b:72:9f:18:6d:35:02:ef:39:66:
         7c:80:09:e6:de:4f:02:0d:1f:79:77:8a:6e:fe:b1:be:a1:dd:
         b9:20:9d:ca:3d:f8:88:e1:e8:a8:26:f5:e2:2d:aa:2c:f7:d2:
         d6:6f:86:b6
-----BEGIN CERTIFICATE-----
MIIDeDCCAmCgAwIBAgIRAMaVD4u70qrTNXoPvdw6YMwwDQYJKoZIhvcNAQELBQAw
FjEUMBIGA1UEAwwLdGVhbTU0MC1uZXQwHhcNMjEwOTEzMDMyNjAwWhcNMjQwODI4
MDMyNjAwWjAZMRcwFQYDVQQDDA50ZWFtNTQwLXNlcnZlcjCCASIwDQYJKoZIhvcN
AQEBBQADggEPADCCAQoCggEBAKf5QYuzM3D3s/HVBA6ffn4Wx4nVkiMUpxqUQC9L
V254bSOAwmqSgU0HDkA3ZlkAdw1ongtWFXHsfyAJXDX6EF3ffpgYChcH8jLLNloY
tE6tQ5ncJ7MXoID9HKoGTGRe6yXJt25Gtubo/IuhhaDzl0XwW4EgLFsDKB0a8cfh
d2gFwGurtUP1z55isKgli7rZO4xdfX78k/TBY+dWgoHNhikJuOm/bfXM/QUcp4E/
iZwxnb41eHqqM9HbU1v7BpzN+vDAY4n/QDsveC1xKdDt6Amika9e8VjkSabkUK9H
kKHofsF8KnrTZ5LFh4dptt3dVpRgogzi1yQ4NhCNoh9cqnkCAwEAAaOBvTCBujAJ
BgNVHRMEAjAAMB0GA1UdDgQWBBT+x+5Ja+GgcFB4spDbfSh7TAdSMjBRBgNVHSME
SjBIgBRG7HSy8vWseMQs1mzbJAMr7fr2faEapBgwFjEUMBIGA1UEAwwLdGVhbTU0
MC1uZXSCFEWqLnev2KzsrUROIebZHrc2V2A5MBMGA1UdJQQMMAoGCCsGAQUFBwMB
MAsGA1UdDwQEAwIFoDAZBgNVHREEEjAQgg50ZWFtNTQwLXNlcnZlcjANBgkqhkiG
9w0BAQsFAAOCAQEAPcAZ+G+QwisPE8DXZLxO0I7UzfquzMZxTkydNkJ0dZet9hPk
a5MTgJ5HkzRr2FUvkZYiFLvyFGfQT0C3fUczf3Ta6Cu2Y75VWnQIPzO/Xpd2hh/F
PcPp2wQIkA0TLUJms6rkdWJ8TIc9XeohMR/V8aqdyNGpx/Mph1ReErZ4s0k2JfEP
1PJDXC2K+xrSpAE7clLo5YfoeGjEPSKBcMC/in7wxmERC9CSnRdHGFsV4WyhnCzv
K2xTZJFCy/2Vc7wXSEh4MBUM1y3XWpXJaisbcp8YbTUC7zlmfIAJ5t5PAg0feXeK
bv6xvqHduSCdyj34iOHoqCb14i2qLPfS1m+Gtg==
-----END CERTIFICATE-----
