Certificate:
    Data:
        Version: 3 (0x2)
        Serial Number:
            cd:a7:a4:eb:b7:8e:87:d3:f2:f4:93:3e:4c:7c:38:48
        Signature Algorithm: sha256WithRSAEncryption
        Issuer: CN=team484-net
        Validity
            Not Before: Sep 13 03:08:15 2021 GMT
            Not After : Aug 28 03:08:15 2024 GMT
        Subject: CN=team484-client
        Subject Public Key Info:
            Public Key Algorithm: rsaEncryption
                RSA Public-Key: (2048 bit)
                Modulus:
                    00:be:c4:6a:d5:fc:17:90:3a:ef:f7:40:d2:0c:8b:
                    c9:a4:db:e6:56:cc:c5:e9:c5:4f:16:8d:0f:d8:a4:
                    96:71:cd:ba:ba:99:52:38:60:24:a1:5a:ce:e1:6e:
                    ba:ad:ad:09:5f:e6:30:99:08:74:66:e5:72:6f:ca:
                    1b:60:3a:08:99:da:22:68:a0:5c:b1:50:18:d0:53:
                    bb:34:9e:59:4c:99:d7:fe:c1:40:04:3a:a2:bc:57:
                    2c:41:dc:31:d6:da:02:20:70:78:7a:4e:be:0c:4f:
                    10:9d:db:4b:59:99:74:d7:2c:cb:9d:ae:4a:dd:88:
                    48:26:37:2e:b1:02:3a:d2:30:78:77:bb:c0:72:f9:
                    ea:a4:a3:20:5f:0c:b1:1c:c9:0b:b4:aa:16:14:87:
                    d6:60:c3:71:3a:59:1d:36:9a:8c:c4:3c:5d:b7:17:
                    bf:66:bb:d5:52:e0:42:0d:bb:48:bc:b8:9a:15:a7:
                    0c:74:61:2e:78:44:17:62:7c:11:17:f3:07:b0:c4:
                    d1:09:78:ae:07:b0:14:65:ff:4a:7c:13:c1:fa:a0:
                    71:af:b9:dc:34:a1:2e:b2:ae:65:5a:0a:4f:6e:10:
                    1a:73:eb:f3:1a:f4:28:f2:bd:3d:df:45:23:3f:21:
                    65:1e:98:5d:8b:c9:67:0b:58:e7:e8:9f:bd:83:cc:
                    bd:65
                Exponent: 65537 (0x10001)
        X509v3 extensions:
            X509v3 Basic Constraints: 
                CA:FALSE
            X509v3 Subject Key Identifier: 
                D9:3E:4A:34:F4:9E:C8:32:38:73:4A:A1:A1:12:7E:62:49:25:1C:FC
            X509v3 Authority Key Identifier: 
                keyid:76:95:4B:79:BE:3D:02:12:8C:C5:A4:13:91:97:CD:B1:3F:2D:AB:19
                DirName:/CN=team484-net
                serial:59:72:66:B0:48:72:05:65:A5:0F:8B:07:62:81:92:2E:92:5B:37:47

            X509v3 Extended Key Usage: 
                TLS Web Client Authentication
            X509v3 Key Usage: 
                Digital Signature
    Signature Algorithm: sha256WithRSAEncryption
         55:a8:37:e9:4f:e2:34:31:7a:5f:65:5f:d8:9a:c6:f5:6d:f1:
         93:38:13:85:c7:b5:93:a9:ca:c3:a3:2a:a2:9f:a6:df:de:e9:
         c3:b9:74:f7:46:5b:73:57:f0:99:39:8c:91:e9:a8:4d:d9:58:
         a3:c5:11:02:7a:fd:96:84:ad:81:61:b6:94:20:67:2b:4e:ad:
         1c:78:46:01:7b:cb:23:af:65:66:68:e8:93:95:99:ff:ae:b1:
         02:20:bc:53:c3:7b:5e:e5:a9:b7:94:0c:27:06:93:10:0c:f2:
         26:d7:77:d7:0d:c9:0f:1f:47:e5:91:9c:b6:4d:95:b9:a5:5e:
         76:26:4a:22:c0:2a:c6:13:94:a0:e4:da:e5:8d:1a:8b:ad:b7:
         22:20:db:06:95:d4:0d:e9:46:bc:5e:90:ef:59:72:3e:c4:7c:
         53:f6:c8:20:ce:64:27:02:75:a1:7a:e9:8d:69:e2:70:ec:cc:
         51:62:fc:29:f4:95:21:c5:d4:ae:78:ef:81:7f:cf:d9:c1:dd:
         87:a5:e0:17:36:37:cb:c3:58:e8:1e:36:2a:6d:48:b2:64:15:
         4a:76:af:ab:7f:3f:6e:9a:ab:10:43:02:e5:60:da:a0:a7:97:
         4e:33:7a:8c:97:97:dc:d2:8e:3f:d5:46:0b:4a:45:79:85:99:
         0c:bf:d4:00
-----BEGIN CERTIFICATE-----
MIIDXTCCAkWgAwIBAgIRAM2npOu3jofT8vSTPkx8OEgwDQYJKoZIhvcNAQELBQAw
FjEUMBIGA1UEAwwLdGVhbTQ4NC1uZXQwHhcNMjEwOTEzMDMwODE1WhcNMjQwODI4
MDMwODE1WjAZMRcwFQYDVQQDDA50ZWFtNDg0LWNsaWVudDCCASIwDQYJKoZIhvcN
AQEBBQADggEPADCCAQoCggEBAL7EatX8F5A67/dA0gyLyaTb5lbMxenFTxaND9ik
lnHNurqZUjhgJKFazuFuuq2tCV/mMJkIdGblcm/KG2A6CJnaImigXLFQGNBTuzSe
WUyZ1/7BQAQ6orxXLEHcMdbaAiBweHpOvgxPEJ3bS1mZdNcsy52uSt2ISCY3LrEC
OtIweHe7wHL56qSjIF8MsRzJC7SqFhSH1mDDcTpZHTaajMQ8XbcXv2a71VLgQg27
SLy4mhWnDHRhLnhEF2J8ERfzB7DE0Ql4rgewFGX/SnwTwfqgca+53DShLrKuZVoK
T24QGnPr8xr0KPK9Pd9FIz8hZR6YXYvJZwtY5+ifvYPMvWUCAwEAAaOBojCBnzAJ
BgNVHRMEAjAAMB0GA1UdDgQWBBTZPko09J7IMjhzSqGhEn5iSSUc/DBRBgNVHSME
SjBIgBR2lUt5vj0CEozFpBORl82xPy2rGaEapBgwFjEUMBIGA1UEAwwLdGVhbTQ4
NC1uZXSCFFlyZrBIcgVlpQ+LB2KBki6SWzdHMBMGA1UdJQQMMAoGCCsGAQUFBwMC
MAsGA1UdDwQEAwIHgDANBgkqhkiG9w0BAQsFAAOCAQEAVag36U/iNDF6X2Vf2JrG
9W3xkzgThce1k6nKw6Mqop+m397pw7l090Zbc1fwmTmMkemoTdlYo8URAnr9loSt
gWG2lCBnK06tHHhGAXvLI69lZmjok5WZ/66xAiC8U8N7XuWpt5QMJwaTEAzyJtd3
1w3JDx9H5ZGctk2VuaVediZKIsAqxhOUoOTa5Y0ai623IiDbBpXUDelGvF6Q71ly
PsR8U/bIIM5kJwJ1oXrpjWnicOzMUWL8KfSVIcXUrnjvgX/P2cHdh6XgFzY3y8NY
6B42Km1IsmQVSnavq38/bpqrEEMC5WDaoKeXTjN6jJeX3NKOP9VGC0pFeYWZDL/U
AA==
-----END CERTIFICATE-----
