Certificate:
    Data:
        Version: 3 (0x2)
        Serial Number:
            48:c5:4e:c0:58:c2:04:b1:19:3f:ff:b7:00:6b:ec:5e
        Signature Algorithm: sha256WithRSAEncryption
        Issuer: CN=team120-net
        Validity
            Not Before: Sep 12 23:48:00 2021 GMT
            Not After : Aug 27 23:48:00 2024 GMT
        Subject: CN=team120-server
        Subject Public Key Info:
            Public Key Algorithm: rsaEncryption
                RSA Public-Key: (2048 bit)
                Modulus:
                    00:c6:31:f4:cb:70:84:33:18:2b:13:c8:71:b4:42:
                    9c:92:b8:fb:38:d2:97:63:2d:1c:4e:3f:b6:81:9b:
                    f0:ba:f9:6f:8f:8d:b9:cd:3a:45:0c:7b:4d:9f:f5:
                    de:a7:2a:30:e5:84:a0:99:e6:f3:d6:2e:2a:72:39:
                    5c:96:60:ee:84:ec:6a:8a:20:9a:36:9d:29:ac:55:
                    4c:13:c2:c6:78:d6:ae:67:a8:07:91:c2:86:8a:fc:
                    df:4e:56:26:55:12:0a:bf:84:90:b3:7c:d3:81:95:
                    e8:ec:10:56:ca:34:5e:31:7c:e0:9a:2f:ea:8c:1f:
                    37:c2:5b:b8:e9:18:7b:7e:54:83:e8:1f:93:9b:ab:
                    28:02:5d:a1:2d:cb:05:09:ca:4d:a9:57:92:2f:19:
                    2b:53:2d:cb:e4:36:4d:59:5a:62:d2:ba:9e:4d:51:
                    6e:7d:0a:62:70:0e:cb:72:20:be:5e:8f:c5:d6:9e:
                    cc:55:c6:a8:41:77:ef:a2:7a:5e:18:d5:8c:94:9a:
                    6e:16:9b:4b:5d:b5:2a:26:af:45:28:2d:1a:70:61:
                    2c:dc:ce:7a:a7:8e:21:16:17:ec:ac:43:f4:7a:b2:
                    c0:ed:a9:24:b4:3c:86:5b:a5:7e:09:78:77:61:73:
                    86:61:72:1c:cd:1c:0d:3e:b8:1f:87:01:2f:e6:3d:
                    53:07
                Exponent: 65537 (0x10001)
        X509v3 extensions:
            X509v3 Basic Constraints: 
                CA:FALSE
            X509v3 Subject Key Identifier: 
                EF:E8:8C:DB:7A:51:C6:09:55:C8:F2:88:FE:01:D3:00:DE:37:14:6C
            X509v3 Authority Key Identifier: 
                keyid:49:61:4B:0F:7B:ED:51:9D:10:3C:2C:62:CF:C3:D5:1F:E7:EE:22:A6
                DirName:/CN=team120-net
                serial:5C:B5:7A:EA:FA:3A:CF:06:94:D7:30:54:4A:56:7F:4E:17:05:D8:B2

            X509v3 Extended Key Usage: 
                TLS Web Server Authentication
            X509v3 Key Usage: 
                Digital Signature, Key Encipherment
            X509v3 Subject Alternative Name: 
                DNS:team120-server
    Signature Algorithm: sha256WithRSAEncryption
         6c:aa:38:02:05:93:ae:37:d5:f9:f0:94:2a:fb:ad:65:ad:02:
         76:f7:88:00:6f:a8:26:2c:24:d4:87:2b:b1:c2:3e:0b:7a:7e:
         ef:24:6e:b3:a6:ed:f6:5c:97:9c:81:e5:fd:44:4a:37:39:c7:
         4c:95:a6:3d:dc:fb:6a:8a:f1:65:81:83:50:e7:c7:b5:66:57:
         08:34:45:33:5d:c9:f0:1e:8f:35:d2:e4:64:84:9c:b4:f8:03:
         9d:7e:37:28:13:69:db:64:c1:66:33:1a:43:90:63:43:40:e8:
         94:af:25:26:c4:c6:bc:24:d2:06:15:00:0f:89:47:a9:ec:ff:
         13:07:1c:20:9e:70:17:60:63:1d:31:b2:2d:fe:67:e5:61:44:
         30:bf:52:a7:92:8d:97:16:22:05:26:12:f7:67:b7:f5:21:9a:
         77:d6:3d:6b:21:97:83:6d:1e:9d:40:19:8e:4f:26:ba:be:5a:
         23:0b:26:86:8f:47:b7:eb:a7:76:08:e7:0b:95:7e:5e:19:78:
         3c:c7:2b:f1:7a:6c:fc:e4:1b:3d:83:13:fb:5c:ed:09:60:85:
         9c:f3:43:d1:62:be:fa:a9:83:ea:e6:e6:e8:7e:1b:4f:8c:bd:
         e5:44:bc:9e:9f:95:96:22:f0:15:1d:13:c0:56:f3:b8:06:25:
         c7:16:c6:3f
-----BEGIN CERTIFICATE-----
MIIDdzCCAl+gAwIBAgIQSMVOwFjCBLEZP/+3AGvsXjANBgkqhkiG9w0BAQsFADAW
MRQwEgYDVQQDDAt0ZWFtMTIwLW5ldDAeFw0yMTA5MTIyMzQ4MDBaFw0yNDA4Mjcy
MzQ4MDBaMBkxFzAVBgNVBAMMDnRlYW0xMjAtc2VydmVyMIIBIjANBgkqhkiG9w0B
AQEFAAOCAQ8AMIIBCgKCAQEAxjH0y3CEMxgrE8hxtEKckrj7ONKXYy0cTj+2gZvw
uvlvj425zTpFDHtNn/Xepyow5YSgmebz1i4qcjlclmDuhOxqiiCaNp0prFVME8LG
eNauZ6gHkcKGivzfTlYmVRIKv4SQs3zTgZXo7BBWyjReMXzgmi/qjB83wlu46Rh7
flSD6B+Tm6soAl2hLcsFCcpNqVeSLxkrUy3L5DZNWVpi0rqeTVFufQpicA7LciC+
Xo/F1p7MVcaoQXfvonpeGNWMlJpuFptLXbUqJq9FKC0acGEs3M56p44hFhfsrEP0
erLA7akktDyGW6V+CXh3YXOGYXIczRwNPrgfhwEv5j1TBwIDAQABo4G9MIG6MAkG
A1UdEwQCMAAwHQYDVR0OBBYEFO/ojNt6UcYJVcjyiP4B0wDeNxRsMFEGA1UdIwRK
MEiAFElhSw977VGdEDwsYs/D1R/n7iKmoRqkGDAWMRQwEgYDVQQDDAt0ZWFtMTIw
LW5ldIIUXLV66vo6zwaU1zBUSlZ/ThcF2LIwEwYDVR0lBAwwCgYIKwYBBQUHAwEw
CwYDVR0PBAQDAgWgMBkGA1UdEQQSMBCCDnRlYW0xMjAtc2VydmVyMA0GCSqGSIb3
DQEBCwUAA4IBAQBsqjgCBZOuN9X58JQq+61lrQJ294gAb6gmLCTUhyuxwj4Len7v
JG6zpu32XJecgeX9REo3OcdMlaY93PtqivFlgYNQ58e1ZlcINEUzXcnwHo810uRk
hJy0+AOdfjcoE2nbZMFmMxpDkGNDQOiUryUmxMa8JNIGFQAPiUep7P8TBxwgnnAX
YGMdMbIt/mflYUQwv1Knko2XFiIFJhL3Z7f1IZp31j1rIZeDbR6dQBmOTya6vloj
CyaGj0e366d2COcLlX5eGXg8xyvxemz85Bs9gxP7XO0JYIWc80PRYr76qYPq5ubo
fhtPjL3lRLyen5WWIvAVHRPAVvO4BiXHFsY/
-----END CERTIFICATE-----
