Certificate:
    Data:
        Version: 3 (0x2)
        Serial Number:
            f2:9f:88:38:67:16:bd:35:a6:c6:cb:ac:ff:c9:62:3d
        Signature Algorithm: sha256WithRSAEncryption
        Issuer: CN=team370-net
        Validity
            Not Before: Sep 13 02:08:09 2021 GMT
            Not After : Aug 28 02:08:09 2024 GMT
        Subject: CN=team370-server
        Subject Public Key Info:
            Public Key Algorithm: rsaEncryption
                RSA Public-Key: (2048 bit)
                Modulus:
                    00:bb:fa:39:d8:2e:34:88:ae:94:b3:ed:56:80:2e:
                    57:60:8a:29:22:2e:8d:61:f6:18:00:e7:a4:2b:a5:
                    78:a0:0d:e2:b6:f9:09:cc:0e:fe:b4:63:7b:ee:5d:
                    cc:82:df:ee:68:07:ea:26:38:72:3b:2e:7d:06:82:
                    63:34:b0:02:04:7c:bb:45:66:75:0e:cb:28:1a:e2:
                    e6:13:cd:44:ba:21:f6:ca:88:a0:89:5f:16:aa:3a:
                    85:90:28:42:27:cc:0b:be:b3:c9:a8:4b:17:af:8b:
                    09:d3:2e:93:ba:28:06:2c:25:27:a1:aa:72:f8:e2:
                    c0:ad:67:04:4a:4f:59:48:51:38:b2:59:56:1a:c3:
                    a3:70:8b:64:c2:14:07:94:b1:71:84:1b:3a:96:13:
                    44:cd:cf:51:fa:1b:c6:c9:f3:af:43:2c:3e:b8:2c:
                    cb:a1:02:0e:16:59:9d:d8:8b:cc:f3:a1:cb:02:85:
                    7b:f7:03:26:cf:26:99:0b:21:ce:3f:28:04:1e:ae:
                    69:36:ab:74:6b:15:87:5d:2f:01:52:bb:2b:4c:2d:
                    8a:9a:cf:2f:9c:89:e6:4f:2c:84:27:72:77:b5:83:
                    b4:de:3d:7f:cc:c4:1d:79:46:c4:b7:6b:36:ba:64:
                    16:72:8e:0b:ae:25:fd:e9:fe:eb:f7:88:25:8d:65:
                    ee:47
                Exponent: 65537 (0x10001)
        X509v3 extensions:
            X509v3 Basic Constraints: 
                CA:FALSE
            X509v3 Subject Key Identifier: 
                A9:DF:AD:38:8C:A3:59:33:01:F3:A0:E6:36:9D:99:8C:9F:D2:2B:35
            X509v3 Authority Key Identifier: 
                keyid:2B:47:FA:64:BA:AF:05:1F:1C:4F:49:12:CD:E3:AF:DC:81:8A:B1:19
                DirName:/CN=team370-net
                serial:3D:51:CF:B9:A0:D4:79:20:59:2C:3B:45:83:E1:26:78:82:AE:53:8F

            X509v3 Extended Key Usage: 
                TLS Web Server Authentication
            X509v3 Key Usage: 
                Digital Signature, Key Encipherment
            X509v3 Subject Alternative Name: 
                DNS:team370-server
    Signature Algorithm: sha256WithRSAEncryption
         37:26:83:00:41:f1:bb:ec:8d:13:6b:2e:c1:0e:31:03:24:52:
         30:86:15:40:ed:5c:fc:ff:44:65:a2:0f:99:02:66:e4:e9:e9:
         93:57:22:c7:2a:57:f5:1b:54:34:9d:07:8b:fb:ef:14:2e:ad:
         93:fe:7d:19:d9:f2:0f:b8:86:6c:98:76:3b:4c:72:2e:12:42:
         bd:e1:c2:3a:e1:d7:ad:aa:fd:dd:a1:92:a4:80:ef:3b:97:45:
         90:a0:ca:d0:cd:2f:3e:de:ca:15:1b:e1:e2:37:56:91:56:bc:
         f5:63:c3:88:8f:bc:04:7d:d8:b1:89:77:6a:4b:78:ad:94:eb:
         c5:4c:38:8c:03:63:5b:c9:79:ee:d3:99:87:8d:cf:9b:3b:44:
         4f:77:8e:d9:00:fc:9a:52:ef:cc:09:be:f0:a8:61:58:8b:55:
         7d:08:95:b4:3f:dd:67:34:56:8c:66:7a:ea:12:42:9d:2f:9e:
         96:d1:e7:33:78:d7:0b:a1:80:70:ae:a8:a9:7c:01:cd:ee:bc:
         ca:e0:9a:2f:bc:5d:8b:17:b3:26:64:c7:58:fb:80:74:44:85:
         3e:9e:a1:88:a4:90:c5:b8:66:a5:2c:0e:8d:84:44:0a:61:c8:
         d0:41:31:50:af:68:f0:f8:cf:da:ae:36:d3:48:28:86:5e:b2:
         8f:91:ac:3a
-----BEGIN CERTIFICATE-----
MIIDeDCCAmCgAwIBAgIRAPKfiDhnFr01psbLrP/JYj0wDQYJKoZIhvcNAQELBQAw
FjEUMBIGA1UEAwwLdGVhbTM3MC1uZXQwHhcNMjEwOTEzMDIwODA5WhcNMjQwODI4
MDIwODA5WjAZMRcwFQYDVQQDDA50ZWFtMzcwLXNlcnZlcjCCASIwDQYJKoZIhvcN
AQEBBQADggEPADCCAQoCggEBALv6OdguNIiulLPtVoAuV2CKKSIujWH2GADnpCul
eKAN4rb5CcwO/rRje+5dzILf7mgH6iY4cjsufQaCYzSwAgR8u0VmdQ7LKBri5hPN
RLoh9sqIoIlfFqo6hZAoQifMC76zyahLF6+LCdMuk7ooBiwlJ6GqcvjiwK1nBEpP
WUhROLJZVhrDo3CLZMIUB5SxcYQbOpYTRM3PUfobxsnzr0MsPrgsy6ECDhZZndiL
zPOhywKFe/cDJs8mmQshzj8oBB6uaTardGsVh10vAVK7K0wtiprPL5yJ5k8shCdy
d7WDtN49f8zEHXlGxLdrNrpkFnKOC64l/en+6/eIJY1l7kcCAwEAAaOBvTCBujAJ
BgNVHRMEAjAAMB0GA1UdDgQWBBSp3604jKNZMwHzoOY2nZmMn9IrNTBRBgNVHSME
SjBIgBQrR/pkuq8FHxxPSRLN46/cgYqxGaEapBgwFjEUMBIGA1UEAwwLdGVhbTM3
MC1uZXSCFD1Rz7mg1HkgWSw7RYPhJniCrlOPMBMGA1UdJQQMMAoGCCsGAQUFBwMB
MAsGA1UdDwQEAwIFoDAZBgNVHREEEjAQgg50ZWFtMzcwLXNlcnZlcjANBgkqhkiG
9w0BAQsFAAOCAQEANyaDAEHxu+yNE2suwQ4xAyRSMIYVQO1c/P9EZaIPmQJm5Onp
k1cixypX9RtUNJ0Hi/vvFC6tk/59GdnyD7iGbJh2O0xyLhJCveHCOuHXrar93aGS
pIDvO5dFkKDK0M0vPt7KFRvh4jdWkVa89WPDiI+8BH3YsYl3akt4rZTrxUw4jANj
W8l57tOZh43PmztET3eO2QD8mlLvzAm+8KhhWItVfQiVtD/dZzRWjGZ66hJCnS+e
ltHnM3jXC6GAcK6oqXwBze68yuCaL7xdixezJmTHWPuAdESFPp6hiKSQxbhmpSwO
jYRECmHI0EExUK9o8PjP2q4200gohl6yj5GsOg==
-----END CERTIFICATE-----
