Certificate:
    Data:
        Version: 3 (0x2)
        Serial Number:
            67:8a:5b:d9:ca:10:3b:4e:8f:98:49:d6:a6:9e:45:c9
        Signature Algorithm: sha256WithRSAEncryption
        Issuer: CN=team29-net
        Validity
            Not Before: Sep 12 22:57:34 2021 GMT
            Not After : Aug 27 22:57:34 2024 GMT
        Subject: CN=team29-client
        Subject Public Key Info:
            Public Key Algorithm: rsaEncryption
                RSA Public-Key: (2048 bit)
                Modulus:
                    00:c6:2c:0a:da:90:85:9f:3c:94:bc:89:bb:3f:bd:
                    d5:27:82:76:88:3a:c1:a2:8e:71:11:e2:d6:5a:1f:
                    89:74:7a:20:f4:c7:96:73:42:0c:bc:a3:ff:7e:46:
                    a5:3c:51:90:16:18:c2:33:ae:16:15:06:19:d0:1d:
                    8b:c1:07:4e:3b:91:21:1e:ff:eb:7e:3e:e1:db:96:
                    ab:04:03:e7:56:4f:2b:5e:64:97:88:3b:de:76:6c:
                    ff:2d:0c:30:9a:be:90:4b:dc:b8:9c:fe:77:35:12:
                    59:7b:e9:1c:11:73:bd:ad:a7:36:2e:b1:b7:90:d3:
                    75:54:ce:c5:c0:a8:61:39:24:fa:c8:a2:5e:6b:72:
                    32:a0:8f:33:6a:52:10:d7:4b:c0:db:73:1c:65:dd:
                    2c:96:e8:6f:00:7f:a1:13:29:4d:0e:7a:90:73:3f:
                    d5:81:b0:3f:b7:68:23:7d:19:5b:b7:e2:fc:5e:01:
                    5f:b2:bc:12:96:be:6f:61:72:7a:a0:80:51:16:a5:
                    47:f6:35:df:65:d7:27:d3:8c:14:4e:41:0d:8d:0e:
                    1b:71:15:87:af:63:71:fa:61:e0:d2:7c:75:2c:50:
                    9c:6b:9c:0a:06:2a:9a:13:a6:7d:16:ca:f4:d4:19:
                    3b:53:c5:99:97:d5:67:bc:ca:5a:c0:fb:68:be:9b:
                    9b:6f
                Exponent: 65537 (0x10001)
        X509v3 extensions:
            X509v3 Basic Constraints: 
                CA:FALSE
            X509v3 Subject Key Identifier: 
                87:FE:5B:53:80:5F:9E:32:72:5D:D3:3C:45:3B:CB:98:91:83:34:38
            X509v3 Authority Key Identifier: 
                keyid:1E:44:70:40:84:32:70:F9:0B:63:5C:FE:59:EF:DF:B3:AB:16:F1:18
                DirName:/CN=team29-net
                serial:21:52:A0:E0:14:89:8F:F1:1A:CB:DC:83:89:CE:8C:EC:69:1E:52:FF

            X509v3 Extended Key Usage: 
                TLS Web Client Authentication
            X509v3 Key Usage: 
                Digital Signature
    Signature Algorithm: sha256WithRSAEncryption
         7f:8f:ab:0b:0e:7a:e3:34:04:6a:98:1f:f9:b7:35:d8:11:50:
         df:05:c1:43:a3:b9:71:a4:4e:ae:eb:d7:a8:1d:c4:58:01:31:
         a1:50:89:a9:eb:6e:00:9e:66:14:f2:bb:f9:e1:de:fa:ac:b0:
         53:1b:0c:93:85:5c:4e:2e:8a:d9:d6:b0:d8:ca:37:c4:03:24:
         ed:5e:d9:20:95:5b:73:20:d1:94:f5:f3:a3:1d:4a:14:ef:e1:
         bb:de:fe:8d:e9:f9:8b:99:75:a3:cf:e8:4b:79:43:ae:e3:bc:
         2f:6c:c2:06:22:21:2d:2e:ef:42:10:ba:45:1f:92:f6:2e:f6:
         fd:b1:f4:97:b6:63:80:ba:f7:45:09:24:e2:4b:0c:b0:86:52:
         67:86:30:00:de:1b:5c:a1:51:4a:b8:12:a5:66:10:c9:46:d5:
         1c:5f:bd:d9:6b:87:14:4b:46:70:5c:bc:33:db:1b:ab:54:15:
         46:e3:f9:30:7e:a7:1e:98:ac:00:6e:10:5a:54:e7:76:37:0c:
         9c:b0:03:45:47:91:31:fc:74:6b:f7:9f:74:10:b5:cf:ca:c5:
         a6:5f:84:50:c6:b1:cc:4e:27:37:78:7b:db:06:04:0c:27:b3:
         89:48:3c:9e:ba:07:ce:dd:5e:a6:b1:81:7f:22:9a:3b:43:ff:
         be:fa:27:ed
-----BEGIN CERTIFICATE-----
MIIDWTCCAkGgAwIBAgIQZ4pb2coQO06PmEnWpp5FyTANBgkqhkiG9w0BAQsFADAV
MRMwEQYDVQQDDAp0ZWFtMjktbmV0MB4XDTIxMDkxMjIyNTczNFoXDTI0MDgyNzIy
NTczNFowGDEWMBQGA1UEAwwNdGVhbTI5LWNsaWVudDCCASIwDQYJKoZIhvcNAQEB
BQADggEPADCCAQoCggEBAMYsCtqQhZ88lLyJuz+91SeCdog6waKOcRHi1lofiXR6
IPTHlnNCDLyj/35GpTxRkBYYwjOuFhUGGdAdi8EHTjuRIR7/634+4duWqwQD51ZP
K15kl4g73nZs/y0MMJq+kEvcuJz+dzUSWXvpHBFzva2nNi6xt5DTdVTOxcCoYTkk
+siiXmtyMqCPM2pSENdLwNtzHGXdLJbobwB/oRMpTQ56kHM/1YGwP7doI30ZW7fi
/F4BX7K8Epa+b2FyeqCAURalR/Y132XXJ9OMFE5BDY0OG3EVh69jcfph4NJ8dSxQ
nGucCgYqmhOmfRbK9NQZO1PFmZfVZ7zKWsD7aL6bm28CAwEAAaOBoTCBnjAJBgNV
HRMEAjAAMB0GA1UdDgQWBBSH/ltTgF+eMnJd0zxFO8uYkYM0ODBQBgNVHSMESTBH
gBQeRHBAhDJw+QtjXP5Z79+zqxbxGKEZpBcwFTETMBEGA1UEAwwKdGVhbTI5LW5l
dIIUIVKg4BSJj/Eay9yDic6M7GkeUv8wEwYDVR0lBAwwCgYIKwYBBQUHAwIwCwYD
VR0PBAQDAgeAMA0GCSqGSIb3DQEBCwUAA4IBAQB/j6sLDnrjNARqmB/5tzXYEVDf
BcFDo7lxpE6u69eoHcRYATGhUImp624AnmYU8rv54d76rLBTGwyThVxOLorZ1rDY
yjfEAyTtXtkglVtzINGU9fOjHUoU7+G73v6N6fmLmXWjz+hLeUOu47wvbMIGIiEt
Lu9CELpFH5L2Lvb9sfSXtmOAuvdFCSTiSwywhlJnhjAA3htcoVFKuBKlZhDJRtUc
X73Za4cUS0ZwXLwz2xurVBVG4/kwfqcemKwAbhBaVOd2NwycsANFR5Ex/HRr9590
ELXPysWmX4RQxrHMTic3eHvbBgQMJ7OJSDyeugfO3V6msYF/Ipo7Q/+++ift
-----END CERTIFICATE-----
