Certificate:
    Data:
        Version: 3 (0x2)
        Serial Number:
            c0:e5:4a:e3:d7:4b:6a:70:c8:c0:6b:c3:ee:73:74:75
        Signature Algorithm: sha256WithRSAEncryption
        Issuer: CN=team29-net
        Validity
            Not Before: Sep 12 22:57:35 2021 GMT
            Not After : Aug 27 22:57:35 2024 GMT
        Subject: CN=team29-server
        Subject Public Key Info:
            Public Key Algorithm: rsaEncryption
                RSA Public-Key: (2048 bit)
                Modulus:
                    00:c0:9f:08:10:dd:a7:ef:1d:cc:c6:d8:7b:83:ed:
                    6d:f6:b1:d2:8b:ce:53:01:e6:9a:4b:a6:93:77:2c:
                    95:4a:05:45:f8:7e:85:3c:dd:f9:0b:83:92:30:d1:
                    8f:df:2e:94:c9:85:6d:96:ab:0c:c6:59:fb:f4:03:
                    f9:21:67:83:cb:b6:e0:ee:f8:93:7e:aa:9d:bc:20:
                    08:a4:ff:48:16:40:30:e8:6b:0b:64:67:9a:7b:b5:
                    02:7f:14:1f:37:db:11:d6:2f:2a:83:1e:70:95:9e:
                    37:61:8c:99:96:3a:1d:c9:b4:6c:e5:5c:8c:1c:6b:
                    bc:2c:2d:92:ec:bc:4c:4e:21:7b:10:1f:f6:32:e7:
                    c8:b3:1e:eb:a6:3d:ca:a0:00:a4:62:11:db:1b:b9:
                    ee:26:ea:3f:09:67:24:48:62:95:5b:94:fb:be:37:
                    3f:5c:ff:86:74:30:0e:f2:99:92:a8:2a:8e:b4:3c:
                    a9:89:14:89:32:3e:49:d0:cf:8e:14:aa:22:7e:de:
                    8c:99:d4:1d:4e:cf:d6:39:4b:6f:8d:8c:2e:aa:98:
                    a6:e3:e4:d8:07:e8:88:6e:d5:f2:21:01:5f:81:e9:
                    4a:db:77:c4:6a:2f:5a:ca:14:e3:62:e3:54:1f:23:
                    e7:20:00:78:0a:81:d8:3f:d4:17:3c:4f:28:95:06:
                    29:a1
                Exponent: 65537 (0x10001)
        X509v3 extensions:
            X509v3 Basic Constraints: 
                CA:FALSE
            X509v3 Subject Key Identifier: 
                E3:75:A9:0C:9B:09:33:3E:00:C9:FF:F9:27:07:1D:8C:3F:89:3C:06
            X509v3 Authority Key Identifier: 
                keyid:1E:44:70:40:84:32:70:F9:0B:63:5C:FE:59:EF:DF:B3:AB:16:F1:18
                DirName:/CN=team29-net
                serial:21:52:A0:E0:14:89:8F:F1:1A:CB:DC:83:89:CE:8C:EC:69:1E:52:FF

            X509v3 Extended Key Usage: 
                TLS Web Server Authentication
            X509v3 Key Usage: 
                Digital Signature, Key Encipherment
            X509v3 Subject Alternative Name: 
                DNS:team29-server
    Signature Algorithm: sha256WithRSAEncryption
         07:cd:66:6c:cd:3b:16:2c:99:71:2f:63:14:1d:43:7b:0c:13:
         6f:18:eb:a8:aa:54:4e:e7:f1:36:57:e1:9c:8f:3c:7f:bc:8f:
         eb:32:13:d8:30:a6:8a:5c:05:ce:f8:97:4d:da:a2:93:ec:b8:
         0c:a1:98:58:43:ec:96:cd:3f:46:7a:84:48:d9:30:dc:1f:6c:
         88:35:41:9d:f2:b8:72:87:90:e4:7c:ff:ab:1b:91:f0:80:1d:
         29:c2:7c:01:d5:57:cc:84:32:e7:22:fe:41:78:e2:68:8e:b9:
         5e:79:28:b2:3d:e4:23:c9:79:3a:6a:2b:2f:dd:ea:43:4f:c4:
         b9:ca:7f:63:6f:76:a2:2d:34:b9:48:22:64:6b:c6:47:db:69:
         16:1d:a9:f2:dd:38:42:88:1b:03:db:67:5e:6f:14:4d:ff:92:
         35:08:d6:b3:d7:ab:51:4d:0a:12:f8:f9:b0:7a:48:1b:65:0c:
         7c:de:a9:1a:e2:ce:7b:ed:24:64:f0:10:c2:9f:a2:98:86:d4:
         db:b9:9f:e9:0d:52:2d:7d:67:ce:f2:2d:04:1c:4a:a2:fe:ca:
         75:2c:20:85:d0:3d:f6:e0:f7:1c:7d:0b:69:6b:41:bd:2c:de:
         93:8a:0a:d4:f3:1d:d6:75:6b:d5:a4:79:3a:5a:34:bb:e8:ee:
         fa:3e:3c:4f
-----BEGIN CERTIFICATE-----
MIIDdDCCAlygAwIBAgIRAMDlSuPXS2pwyMBrw+5zdHUwDQYJKoZIhvcNAQELBQAw
FTETMBEGA1UEAwwKdGVhbTI5LW5ldDAeFw0yMTA5MTIyMjU3MzVaFw0yNDA4Mjcy
MjU3MzVaMBgxFjAUBgNVBAMMDXRlYW0yOS1zZXJ2ZXIwggEiMA0GCSqGSIb3DQEB
AQUAA4IBDwAwggEKAoIBAQDAnwgQ3afvHczG2HuD7W32sdKLzlMB5ppLppN3LJVK
BUX4foU83fkLg5Iw0Y/fLpTJhW2WqwzGWfv0A/khZ4PLtuDu+JN+qp28IAik/0gW
QDDoawtkZ5p7tQJ/FB832xHWLyqDHnCVnjdhjJmWOh3JtGzlXIwca7wsLZLsvExO
IXsQH/Yy58izHuumPcqgAKRiEdsbue4m6j8JZyRIYpVblPu+Nz9c/4Z0MA7ymZKo
Ko60PKmJFIkyPknQz44UqiJ+3oyZ1B1Oz9Y5S2+NjC6qmKbj5NgH6Ihu1fIhAV+B
6Urbd8RqL1rKFONi41QfI+cgAHgKgdg/1Bc8TyiVBimhAgMBAAGjgbswgbgwCQYD
VR0TBAIwADAdBgNVHQ4EFgQU43WpDJsJMz4Ayf/5JwcdjD+JPAYwUAYDVR0jBEkw
R4AUHkRwQIQycPkLY1z+We/fs6sW8RihGaQXMBUxEzARBgNVBAMMCnRlYW0yOS1u
ZXSCFCFSoOAUiY/xGsvcg4nOjOxpHlL/MBMGA1UdJQQMMAoGCCsGAQUFBwMBMAsG
A1UdDwQEAwIFoDAYBgNVHREEETAPgg10ZWFtMjktc2VydmVyMA0GCSqGSIb3DQEB
CwUAA4IBAQAHzWZszTsWLJlxL2MUHUN7DBNvGOuoqlRO5/E2V+Gcjzx/vI/rMhPY
MKaKXAXO+JdN2qKT7LgMoZhYQ+yWzT9GeoRI2TDcH2yINUGd8rhyh5DkfP+rG5Hw
gB0pwnwB1VfMhDLnIv5BeOJojrleeSiyPeQjyXk6aisv3epDT8S5yn9jb3aiLTS5
SCJka8ZH22kWHany3ThCiBsD22debxRN/5I1CNaz16tRTQoS+PmwekgbZQx83qka
4s577SRk8BDCn6KYhtTbuZ/pDVItfWfO8i0EHEqi/sp1LCCF0D324PccfQtpa0G9
LN6TigrU8x3WdWvVpHk6WjS76O76PjxP
-----END CERTIFICATE-----
