Certificate:
    Data:
        Version: 3 (0x2)
        Serial Number:
            52:88:f2:81:68:be:61:dd:1b:3c:e5:32:8f:b3:2d:c0
        Signature Algorithm: sha256WithRSAEncryption
        Issuer: CN=team81-net
        Validity
            Not Before: Sep 12 23:24:41 2021 GMT
            Not After : Aug 27 23:24:41 2024 GMT
        Subject: CN=team81-server
        Subject Public Key Info:
            Public Key Algorithm: rsaEncryption
                RSA Public-Key: (2048 bit)
                Modulus:
                    00:c4:af:0d:3c:a5:40:76:58:f0:c6:81:d3:ad:8f:
                    06:20:03:15:d5:33:66:bf:aa:dd:b9:79:04:f4:29:
                    74:70:84:b4:d6:b8:ac:fc:df:41:46:45:db:26:4d:
                    91:86:6f:b4:3e:fe:df:f5:b8:32:87:78:82:74:bc:
                    f8:89:07:72:50:df:32:1a:2b:9d:a3:d2:c5:49:e5:
                    2c:35:0b:ae:19:3d:67:d5:65:f4:44:94:9a:50:6d:
                    4c:d2:5b:aa:28:96:0c:3b:20:b8:5e:4a:2f:9c:8d:
                    0d:b3:d9:d7:f1:6c:97:23:a3:6a:63:11:9b:64:61:
                    a3:ee:7b:cb:0f:82:1f:48:11:2f:37:35:aa:17:ab:
                    7d:08:3d:5c:9d:3c:85:ee:6c:90:df:44:4b:28:08:
                    c8:5a:e7:9b:28:c9:63:52:e3:a7:77:dd:f5:00:1d:
                    e6:4c:e7:91:0b:aa:97:21:19:9e:4f:1c:49:d0:ec:
                    85:f6:64:cb:71:b4:ca:ac:2d:4d:10:d9:56:09:0a:
                    ac:e8:32:88:0a:4f:24:65:1b:7d:87:3e:c8:e7:f2:
                    fe:70:8e:73:f6:c4:f2:80:d6:99:36:63:e5:91:ca:
                    f3:b8:4a:48:c5:f8:a8:58:c4:d5:d3:4d:4e:aa:31:
                    cb:a1:78:fa:dc:3a:2b:38:f5:2d:65:c2:1b:24:0f:
                    95:81
                Exponent: 65537 (0x10001)
        X509v3 extensions:
            X509v3 Basic Constraints: 
                CA:FALSE
            X509v3 Subject Key Identifier: 
                3A:DF:9D:96:E8:AD:03:E7:AD:D2:54:2F:5E:20:93:C9:D7:02:29:7C
            X509v3 Authority Key Identifier: 
                keyid:63:86:2C:BA:BA:68:38:40:45:2F:F2:1A:4F:7D:3C:F8:E9:62:FE:08
                DirName:/CN=team81-net
                serial:35:76:57:4F:74:4E:8D:C2:84:0A:22:DE:05:45:70:3A:3C:1F:E5:F4

            X509v3 Extended Key Usage: 
                TLS Web Server Authentication
            X509v3 Key Usage: 
                Digital Signature, Key Encipherment
            X509v3 Subject Alternative Name: 
                DNS:team81-server
    Signature Algorithm: sha256WithRSAEncryption
         41:5a:6f:31:7d:4b:e6:ec:37:32:59:97:45:fc:c8:4d:15:3f:
         24:21:18:1f:3a:d0:99:cb:94:32:50:ad:dd:9c:46:61:4e:d3:
         24:21:6b:aa:eb:3b:20:3b:5e:47:9b:ab:69:96:7b:2d:5b:04:
         d7:f9:c7:c6:62:7e:2d:eb:aa:a6:f0:df:ac:fe:c6:77:5a:7f:
         05:c1:e3:43:e3:6c:1d:68:30:06:43:e3:93:09:03:be:a2:56:
         40:70:73:db:c7:55:df:56:d3:2a:83:c6:ce:e0:75:78:9a:9e:
         eb:bb:53:3f:ab:92:12:85:1c:9c:e0:41:81:38:9e:53:c5:19:
         ec:b1:6f:7f:e9:18:5e:57:ec:24:93:dd:20:ea:e6:5d:b4:16:
         a0:b5:47:49:c7:fc:66:66:1c:7a:09:83:57:4e:d7:4a:73:17:
         fa:46:9d:7f:18:ef:c2:89:6b:0f:bd:4b:3b:27:a2:62:d4:11:
         32:d6:e3:13:90:b4:69:98:a0:b2:f5:18:08:99:c9:e9:cd:a9:
         e4:8e:e7:22:2c:fa:95:f3:b2:91:0e:49:14:73:19:91:58:e9:
         17:43:ed:5d:7e:c5:ac:88:a4:db:41:f9:52:0b:07:bb:73:b3:
         c3:e7:ff:ef:e9:94:71:bd:76:f4:3c:4d:7d:64:4d:d4:f4:38:
         b7:25:9c:29
-----BEGIN CERTIFICATE-----
MIIDczCCAlugAwIBAgIQUojygWi+Yd0bPOUyj7MtwDANBgkqhkiG9w0BAQsFADAV
MRMwEQYDVQQDDAp0ZWFtODEtbmV0MB4XDTIxMDkxMjIzMjQ0MVoXDTI0MDgyNzIz
MjQ0MVowGDEWMBQGA1UEAwwNdGVhbTgxLXNlcnZlcjCCASIwDQYJKoZIhvcNAQEB
BQADggEPADCCAQoCggEBAMSvDTylQHZY8MaB062PBiADFdUzZr+q3bl5BPQpdHCE
tNa4rPzfQUZF2yZNkYZvtD7+3/W4Mod4gnS8+IkHclDfMhornaPSxUnlLDULrhk9
Z9Vl9ESUmlBtTNJbqiiWDDsguF5KL5yNDbPZ1/FslyOjamMRm2Rho+57yw+CH0gR
Lzc1qherfQg9XJ08he5skN9ESygIyFrnmyjJY1Ljp3fd9QAd5kznkQuqlyEZnk8c
SdDshfZky3G0yqwtTRDZVgkKrOgyiApPJGUbfYc+yOfy/nCOc/bE8oDWmTZj5ZHK
87hKSMX4qFjE1dNNTqoxy6F4+tw6Kzj1LWXCGyQPlYECAwEAAaOBuzCBuDAJBgNV
HRMEAjAAMB0GA1UdDgQWBBQ6352W6K0D563SVC9eIJPJ1wIpfDBQBgNVHSMESTBH
gBRjhiy6umg4QEUv8hpPfTz46WL+CKEZpBcwFTETMBEGA1UEAwwKdGVhbTgxLW5l
dIIUNXZXT3ROjcKECiLeBUVwOjwf5fQwEwYDVR0lBAwwCgYIKwYBBQUHAwEwCwYD
VR0PBAQDAgWgMBgGA1UdEQQRMA+CDXRlYW04MS1zZXJ2ZXIwDQYJKoZIhvcNAQEL
BQADggEBAEFabzF9S+bsNzJZl0X8yE0VPyQhGB860JnLlDJQrd2cRmFO0yQha6rr
OyA7Xkebq2mWey1bBNf5x8Zifi3rqqbw36z+xndafwXB40PjbB1oMAZD45MJA76i
VkBwc9vHVd9W0yqDxs7gdXianuu7Uz+rkhKFHJzgQYE4nlPFGeyxb3/pGF5X7CST
3SDq5l20FqC1R0nH/GZmHHoJg1dO10pzF/pGnX8Y78KJaw+9SzsnomLUETLW4xOQ
tGmYoLL1GAiZyenNqeSO5yIs+pXzspEOSRRzGZFY6RdD7V1+xayIpNtB+VILB7tz
s8Pn/+/plHG9dvQ8TX1kTdT0OLclnCk=
-----END CERTIFICATE-----
