Certificate:
    Data:
        Version: 3 (0x2)
        Serial Number:
            55:ee:d8:38:43:b4:9a:11:89:dd:83:58:d2:25:b0:97
        Signature Algorithm: sha256WithRSAEncryption
        Issuer: CN=team490-net
        Validity
            Not Before: Sep 13 03:03:59 2021 GMT
            Not After : Aug 28 03:03:59 2024 GMT
        Subject: CN=team490-server
        Subject Public Key Info:
            Public Key Algorithm: rsaEncryption
                RSA Public-Key: (2048 bit)
                Modulus:
                    00:b6:3c:89:32:5e:7b:3a:94:f1:ee:45:9f:c9:f9:
                    91:56:d0:1c:47:8b:44:d0:d5:b2:5b:5d:1b:f4:c8:
                    c3:4f:a7:41:d4:a5:e4:42:fa:cf:4e:e7:20:81:93:
                    d0:4b:f9:fe:01:0c:47:d7:49:9c:fb:50:5a:55:e2:
                    64:73:d7:ea:e6:a5:5d:10:98:28:6c:92:6d:50:25:
                    12:eb:96:1b:77:8c:8b:39:ac:18:6d:47:35:da:da:
                    a3:f0:3c:95:0e:6d:c3:91:04:96:7c:8c:42:69:83:
                    56:12:99:75:95:e0:f3:91:3e:7f:b9:8d:5b:59:28:
                    80:ef:0a:f8:2a:9e:fb:66:84:d8:46:e2:dd:4a:49:
                    ad:57:84:91:a0:a2:27:35:b7:e8:61:d3:47:7a:ff:
                    a0:32:59:8c:16:5f:6b:81:f7:90:bd:50:a3:7e:3a:
                    69:c7:19:f7:dd:00:2a:55:9f:c8:6b:c1:d6:a1:70:
                    5a:91:de:b4:18:30:d9:2c:6b:62:24:33:41:f4:45:
                    2d:52:5c:74:a9:bd:0d:ac:da:3d:0d:1c:fe:c5:10:
                    9f:b1:78:a2:95:db:c9:b7:69:4c:ba:12:db:50:30:
                    cb:05:d3:30:29:97:7e:7c:d4:bc:01:20:1e:9c:b8:
                    47:7b:ef:f6:18:d6:82:c4:bb:e0:a0:e7:1a:83:14:
                    a8:75
                Exponent: 65537 (0x10001)
        X509v3 extensions:
            X509v3 Basic Constraints: 
                CA:FALSE
            X509v3 Subject Key Identifier: 
                36:98:00:3D:A4:0D:EF:9C:D1:AD:C7:08:E0:7F:38:E0:08:4E:0A:98
            X509v3 Authority Key Identifier: 
                keyid:2E:49:9E:DF:63:CE:F3:1D:17:9A:5F:85:D3:89:8B:68:F7:53:6A:D5
                DirName:/CN=team490-net
                serial:2C:5F:06:44:C9:63:33:4B:3D:F0:D2:60:79:CB:E1:D9:3D:22:C1:43

            X509v3 Extended Key Usage: 
                TLS Web Server Authentication
            X509v3 Key Usage: 
                Digital Signature, Key Encipherment
            X509v3 Subject Alternative Name: 
                DNS:team490-server
    Signature Algorithm: sha256WithRSAEncryption
         0c:46:28:4a:34:12:3d:da:14:8e:11:8f:f8:03:9d:a7:d1:cf:
         6a:f2:eb:d6:a6:ad:73:e2:75:e0:f6:84:6e:f7:10:e5:ed:15:
         cb:a9:ad:5f:a3:23:1f:ea:7e:9e:96:70:b1:8d:68:4e:8b:90:
         62:b2:31:1f:68:33:0a:6f:a5:54:6d:27:b2:a3:de:f8:3f:68:
         47:2d:ab:7f:07:40:50:63:8c:95:ca:cc:8d:a1:57:4e:3d:dd:
         ca:4a:04:69:df:8f:b9:c0:23:8c:36:09:3a:2e:e0:76:64:48:
         06:e2:8d:7d:11:bb:6e:44:cf:17:0d:07:5d:c1:71:63:7f:fe:
         dc:11:8a:23:d1:ae:9f:1a:26:e7:95:9a:38:7d:d0:49:64:95:
         32:5c:6e:e0:2d:3a:22:88:cd:21:77:86:24:63:6e:a5:da:ad:
         94:61:ad:54:c0:0a:c4:ba:d1:68:78:03:e2:88:27:f0:e0:6d:
         65:78:b8:96:51:a0:68:0f:61:21:00:b0:8b:7a:ad:7a:b2:7a:
         5f:c5:51:6d:e8:d2:5e:85:b7:d3:4b:0a:d2:c7:0a:7f:18:fd:
         43:ca:5d:7d:2a:8c:0f:c7:bf:d9:b3:95:7e:4a:10:7a:bd:a6:
         20:82:c7:1f:bc:65:50:a9:a8:9e:f3:5a:37:19:83:4f:3f:f7:
         54:3a:9f:03
-----BEGIN CERTIFICATE-----
MIIDdzCCAl+gAwIBAgIQVe7YOEO0mhGJ3YNY0iWwlzANBgkqhkiG9w0BAQsFADAW
MRQwEgYDVQQDDAt0ZWFtNDkwLW5ldDAeFw0yMTA5MTMwMzAzNTlaFw0yNDA4Mjgw
MzAzNTlaMBkxFzAVBgNVBAMMDnRlYW00OTAtc2VydmVyMIIBIjANBgkqhkiG9w0B
AQEFAAOCAQ8AMIIBCgKCAQEAtjyJMl57OpTx7kWfyfmRVtAcR4tE0NWyW10b9MjD
T6dB1KXkQvrPTucggZPQS/n+AQxH10mc+1BaVeJkc9fq5qVdEJgobJJtUCUS65Yb
d4yLOawYbUc12tqj8DyVDm3DkQSWfIxCaYNWEpl1leDzkT5/uY1bWSiA7wr4Kp77
ZoTYRuLdSkmtV4SRoKInNbfoYdNHev+gMlmMFl9rgfeQvVCjfjppxxn33QAqVZ/I
a8HWoXBakd60GDDZLGtiJDNB9EUtUlx0qb0NrNo9DRz+xRCfsXiildvJt2lMuhLb
UDDLBdMwKZd+fNS8ASAenLhHe+/2GNaCxLvgoOcagxSodQIDAQABo4G9MIG6MAkG
A1UdEwQCMAAwHQYDVR0OBBYEFDaYAD2kDe+c0a3HCOB/OOAITgqYMFEGA1UdIwRK
MEiAFC5Jnt9jzvMdF5pfhdOJi2j3U2rVoRqkGDAWMRQwEgYDVQQDDAt0ZWFtNDkw
LW5ldIIULF8GRMljM0s98NJgecvh2T0iwUMwEwYDVR0lBAwwCgYIKwYBBQUHAwEw
CwYDVR0PBAQDAgWgMBkGA1UdEQQSMBCCDnRlYW00OTAtc2VydmVyMA0GCSqGSIb3
DQEBCwUAA4IBAQAMRihKNBI92hSOEY/4A52n0c9q8uvWpq1z4nXg9oRu9xDl7RXL
qa1foyMf6n6elnCxjWhOi5BisjEfaDMKb6VUbSeyo974P2hHLat/B0BQY4yVysyN
oVdOPd3KSgRp34+5wCOMNgk6LuB2ZEgG4o19EbtuRM8XDQddwXFjf/7cEYoj0a6f
GibnlZo4fdBJZJUyXG7gLToiiM0hd4YkY26l2q2UYa1UwArEutFoeAPiiCfw4G1l
eLiWUaBoD2EhALCLeq16snpfxVFt6NJehbfTSwrSxwp/GP1Dyl19KowPx7/Zs5V+
ShB6vaYggscfvGVQqaie81o3GYNPP/dUOp8D
-----END CERTIFICATE-----
