Certificate:
    Data:
        Version: 3 (0x2)
        Serial Number:
            ee:bd:9f:49:d4:fc:57:dc:2d:c3:78:4e:b2:ff:49:cb
        Signature Algorithm: sha256WithRSAEncryption
        Issuer: CN=team490-net
        Validity
            Not Before: Sep 13 03:03:58 2021 GMT
            Not After : Aug 28 03:03:58 2024 GMT
        Subject: CN=team490-client
        Subject Public Key Info:
            Public Key Algorithm: rsaEncryption
                RSA Public-Key: (2048 bit)
                Modulus:
                    00:b6:77:19:fc:63:ef:70:3a:74:e3:6f:f8:b2:74:
                    f0:87:72:7a:06:6d:81:03:c5:ba:a8:0d:10:1a:ab:
                    bb:f2:12:d7:17:5c:62:f8:c5:4f:64:16:5e:ec:1b:
                    a4:10:e9:39:7e:22:c3:69:5d:0b:db:95:02:87:37:
                    58:89:83:ed:e3:d3:ad:67:3f:a9:56:30:e1:ac:5e:
                    64:fa:b6:33:b9:21:57:95:67:4e:26:1f:25:51:42:
                    39:ed:c0:ed:9e:c2:b3:6d:46:fd:43:a4:46:b7:77:
                    de:f0:e6:98:cc:b5:2b:9f:af:b6:72:b2:05:5d:e7:
                    cb:f8:97:07:fd:a3:4a:84:e6:1c:36:a3:5a:44:9a:
                    1c:a5:ea:4e:e4:c9:3b:23:ad:74:29:d7:4d:bc:e5:
                    e3:c4:52:24:36:5f:38:9e:1e:48:0a:8c:e2:dd:0f:
                    98:f5:3d:a9:1a:6e:ee:24:7d:da:ec:4b:98:5e:ac:
                    de:a5:2f:82:03:b8:12:72:22:c0:1a:70:06:22:ec:
                    56:11:74:7e:c3:78:53:64:b1:71:d5:8f:f5:ec:d6:
                    05:33:e0:c0:29:cc:f4:f1:b6:4a:f1:f1:2c:d7:e7:
                    75:f5:89:18:6c:da:f0:0f:2e:2b:ad:1c:8f:a6:49:
                    36:c0:9a:77:a8:0b:b5:01:7f:34:57:2e:3b:cf:91:
                    32:0b
                Exponent: 65537 (0x10001)
        X509v3 extensions:
            X509v3 Basic Constraints: 
                CA:FALSE
            X509v3 Subject Key Identifier: 
                39:8D:98:28:71:6D:91:57:F0:A2:1C:9C:FF:F8:0B:AE:A8:59:F5:E1
            X509v3 Authority Key Identifier: 
                keyid:2E:49:9E:DF:63:CE:F3:1D:17:9A:5F:85:D3:89:8B:68:F7:53:6A:D5
                DirName:/CN=team490-net
                serial:2C:5F:06:44:C9:63:33:4B:3D:F0:D2:60:79:CB:E1:D9:3D:22:C1:43

            X509v3 Extended Key Usage: 
                TLS Web Client Authentication
            X509v3 Key Usage: 
                Digital Signature
    Signature Algorithm: sha256WithRSAEncryption
         6d:59:03:76:7d:26:37:6b:6e:47:a5:d7:39:3a:38:d5:df:a1:
         c8:7f:f1:e7:d6:18:fb:8e:b2:8b:78:77:b0:b0:f5:c1:ab:68:
         88:ec:ea:e2:98:42:5b:70:88:3c:1f:1e:b1:4f:a5:70:23:9c:
         ad:26:38:f7:78:c2:49:f6:db:54:ff:5f:05:82:76:0b:5d:96:
         f4:20:21:29:4a:b0:66:94:0d:4e:a3:10:ea:b8:21:54:88:ff:
         66:fe:93:a2:54:24:84:47:c8:c4:ef:f1:62:6a:45:58:ce:93:
         76:a3:6b:b5:7a:dc:66:25:9d:3c:d2:a4:a8:96:b3:fc:1a:28:
         bb:d1:c2:09:cd:67:51:ad:ac:ca:9b:23:b1:26:28:4f:87:62:
         67:43:72:01:ac:70:3a:b3:31:cf:c5:fa:31:e3:ab:3c:4e:55:
         dd:ba:77:0c:77:72:d3:37:7d:1a:86:5f:bb:a7:d6:76:08:b8:
         50:91:46:c7:08:9f:b8:80:96:a2:20:3a:cb:a9:62:06:4e:ed:
         89:e6:83:58:a3:0c:0f:4a:b6:7f:7b:32:3b:e5:43:5b:33:17:
         21:b3:78:33:c3:a5:9c:63:de:c8:81:25:dd:74:4c:71:c9:20:
         3a:d0:7e:40:0f:ef:66:03:04:8d:ab:bc:fc:90:84:ee:4b:8e:
         14:f7:e0:2d
-----BEGIN CERTIFICATE-----
MIIDXTCCAkWgAwIBAgIRAO69n0nU/FfcLcN4TrL/ScswDQYJKoZIhvcNAQELBQAw
FjEUMBIGA1UEAwwLdGVhbTQ5MC1uZXQwHhcNMjEwOTEzMDMwMzU4WhcNMjQwODI4
MDMwMzU4WjAZMRcwFQYDVQQDDA50ZWFtNDkwLWNsaWVudDCCASIwDQYJKoZIhvcN
AQEBBQADggEPADCCAQoCggEBALZ3Gfxj73A6dONv+LJ08IdyegZtgQPFuqgNEBqr
u/IS1xdcYvjFT2QWXuwbpBDpOX4iw2ldC9uVAoc3WImD7ePTrWc/qVYw4axeZPq2
M7khV5VnTiYfJVFCOe3A7Z7Cs21G/UOkRrd33vDmmMy1K5+vtnKyBV3ny/iXB/2j
SoTmHDajWkSaHKXqTuTJOyOtdCnXTbzl48RSJDZfOJ4eSAqM4t0PmPU9qRpu7iR9
2uxLmF6s3qUvggO4EnIiwBpwBiLsVhF0fsN4U2SxcdWP9ezWBTPgwCnM9PG2SvHx
LNfndfWJGGza8A8uK60cj6ZJNsCad6gLtQF/NFcuO8+RMgsCAwEAAaOBojCBnzAJ
BgNVHRMEAjAAMB0GA1UdDgQWBBQ5jZgocW2RV/CiHJz/+AuuqFn14TBRBgNVHSME
SjBIgBQuSZ7fY87zHReaX4XTiYto91Nq1aEapBgwFjEUMBIGA1UEAwwLdGVhbTQ5
MC1uZXSCFCxfBkTJYzNLPfDSYHnL4dk9IsFDMBMGA1UdJQQMMAoGCCsGAQUFBwMC
MAsGA1UdDwQEAwIHgDANBgkqhkiG9w0BAQsFAAOCAQEAbVkDdn0mN2tuR6XXOTo4
1d+hyH/x59YY+46yi3h3sLD1watoiOzq4phCW3CIPB8esU+lcCOcrSY493jCSfbb
VP9fBYJ2C12W9CAhKUqwZpQNTqMQ6rghVIj/Zv6TolQkhEfIxO/xYmpFWM6TdqNr
tXrcZiWdPNKkqJaz/Boou9HCCc1nUa2sypsjsSYoT4diZ0NyAaxwOrMxz8X6MeOr
PE5V3bp3DHdy0zd9GoZfu6fWdgi4UJFGxwifuICWoiA6y6liBk7tieaDWKMMD0q2
f3syO+VDWzMXIbN4M8OlnGPeyIEl3XRMcckgOtB+QA/vZgMEjau8/JCE7kuOFPfg
LQ==
-----END CERTIFICATE-----
