Certificate:
    Data:
        Version: 3 (0x2)
        Serial Number:
            7c:48:ac:2a:1c:f9:d5:2a:91:1d:6f:72:d1:78:b8:73
        Signature Algorithm: sha256WithRSAEncryption
        Issuer: CN=team188-net
        Validity
            Not Before: Sep 13 00:32:15 2021 GMT
            Not After : Aug 28 00:32:15 2024 GMT
        Subject: CN=team188-client
        Subject Public Key Info:
            Public Key Algorithm: rsaEncryption
                RSA Public-Key: (2048 bit)
                Modulus:
                    00:ac:f4:65:ba:b4:fb:aa:8c:05:e1:25:4a:6f:a5:
                    91:05:e8:23:ce:ce:18:13:16:61:ba:aa:4f:f0:8b:
                    42:71:2c:b4:d4:23:4e:ac:13:33:89:0c:eb:60:d7:
                    c5:02:53:a5:f7:46:83:3a:99:a5:13:19:bc:9e:e0:
                    f5:a4:b0:d6:59:3f:aa:69:6b:bb:05:89:90:1a:b6:
                    26:bd:3a:dc:16:a6:b4:9d:36:28:fe:c1:2f:b1:cb:
                    aa:81:d2:83:15:6f:e9:d9:bc:dd:78:cf:ce:69:5c:
                    21:73:79:01:77:98:54:a3:72:60:69:3f:93:bc:0f:
                    e2:47:c1:5e:76:74:d3:58:b7:a7:35:a5:b5:85:b5:
                    fe:dd:3f:23:94:ab:3a:3e:22:c0:73:88:2c:ec:11:
                    e9:aa:49:25:29:06:1f:5a:c7:a2:d2:79:c6:6a:43:
                    7a:07:80:d6:ea:28:f0:0c:c7:87:c3:a6:09:21:22:
                    d7:51:b0:2c:ed:ce:3a:69:45:e5:8a:75:60:40:e6:
                    34:13:5b:bc:d7:09:19:5b:c3:76:2b:da:37:77:e1:
                    9c:c8:bb:ef:78:ee:28:39:50:c0:d4:2a:51:9e:b9:
                    97:54:a3:59:c3:9c:5e:1d:31:32:f9:55:77:05:c8:
                    da:c4:b8:13:cb:10:fe:81:80:05:5e:3e:3d:80:b2:
                    a3:2b
                Exponent: 65537 (0x10001)
        X509v3 extensions:
            X509v3 Basic Constraints: 
                CA:FALSE
            X509v3 Subject Key Identifier: 
                68:F4:77:F5:14:BC:58:FE:D7:40:DB:4A:19:09:81:B8:DE:AA:B0:9E
            X509v3 Authority Key Identifier: 
                keyid:98:C8:24:44:09:F5:2E:18:65:4A:7E:5F:D8:C3:42:9A:78:6B:1B:74
                DirName:/CN=team188-net
                serial:4B:62:08:86:49:F1:7C:34:82:47:18:30:FA:F0:07:7F:76:18:61:45

            X509v3 Extended Key Usage: 
                TLS Web Client Authentication
            X509v3 Key Usage: 
                Digital Signature
    Signature Algorithm: sha256WithRSAEncryption
         96:3f:c0:60:d5:5d:a0:fd:b2:f1:e6:e8:d5:13:08:f3:83:16:
         1e:07:43:3d:37:d6:7d:b5:d0:9d:aa:49:d2:15:bd:14:cd:f2:
         5c:5b:ff:ac:71:07:67:f3:14:a1:cb:88:d3:77:60:ae:c1:ff:
         8c:da:b2:cc:36:16:ee:15:bd:66:a8:b1:aa:c4:1e:58:61:9d:
         27:3c:95:f1:85:48:2f:3c:f1:47:39:d3:88:11:29:82:a6:c6:
         3a:7f:d9:02:46:78:d9:45:be:f9:18:e3:c1:a9:4b:d5:4a:f9:
         cf:8a:6b:2e:a1:22:28:b9:f5:3f:78:9a:03:0d:2e:a2:7d:68:
         b8:06:e8:84:94:bf:7d:e6:f4:51:30:af:54:c3:8a:d0:81:d1:
         24:2d:a1:e1:27:64:c0:e8:75:38:fd:d7:fc:27:89:cc:f2:5c:
         ce:c7:87:27:c0:12:bc:f2:e5:92:5c:8f:8f:0d:73:64:8b:f8:
         f7:5a:19:97:e7:f5:1d:10:aa:07:e2:b1:e9:6d:b1:ba:77:6a:
         1e:87:bb:1a:52:04:a1:ef:1f:f3:45:13:f6:3d:1d:f6:4b:ae:
         af:6f:16:8b:7a:37:26:43:a7:da:ca:09:6c:ef:3a:07:3b:11:
         89:fa:6a:a4:48:9b:c1:39:b0:b6:db:32:17:9b:9f:05:2f:6c:
         76:a5:64:27
-----BEGIN CERTIFICATE-----
MIIDXDCCAkSgAwIBAgIQfEisKhz51SqRHW9y0Xi4czANBgkqhkiG9w0BAQsFADAW
MRQwEgYDVQQDDAt0ZWFtMTg4LW5ldDAeFw0yMTA5MTMwMDMyMTVaFw0yNDA4Mjgw
MDMyMTVaMBkxFzAVBgNVBAMMDnRlYW0xODgtY2xpZW50MIIBIjANBgkqhkiG9w0B
AQEFAAOCAQ8AMIIBCgKCAQEArPRlurT7qowF4SVKb6WRBegjzs4YExZhuqpP8ItC
cSy01CNOrBMziQzrYNfFAlOl90aDOpmlExm8nuD1pLDWWT+qaWu7BYmQGrYmvTrc
Fqa0nTYo/sEvscuqgdKDFW/p2bzdeM/OaVwhc3kBd5hUo3JgaT+TvA/iR8FednTT
WLenNaW1hbX+3T8jlKs6PiLAc4gs7BHpqkklKQYfWsei0nnGakN6B4DW6ijwDMeH
w6YJISLXUbAs7c46aUXlinVgQOY0E1u81wkZW8N2K9o3d+GcyLvveO4oOVDA1CpR
nrmXVKNZw5xeHTEy+VV3BcjaxLgTyxD+gYAFXj49gLKjKwIDAQABo4GiMIGfMAkG
A1UdEwQCMAAwHQYDVR0OBBYEFGj0d/UUvFj+10DbShkJgbjeqrCeMFEGA1UdIwRK
MEiAFJjIJEQJ9S4YZUp+X9jDQpp4axt0oRqkGDAWMRQwEgYDVQQDDAt0ZWFtMTg4
LW5ldIIUS2IIhknxfDSCRxgw+vAHf3YYYUUwEwYDVR0lBAwwCgYIKwYBBQUHAwIw
CwYDVR0PBAQDAgeAMA0GCSqGSIb3DQEBCwUAA4IBAQCWP8Bg1V2g/bLx5ujVEwjz
gxYeB0M9N9Z9tdCdqknSFb0UzfJcW/+scQdn8xShy4jTd2Cuwf+M2rLMNhbuFb1m
qLGqxB5YYZ0nPJXxhUgvPPFHOdOIESmCpsY6f9kCRnjZRb75GOPBqUvVSvnPimsu
oSIoufU/eJoDDS6ifWi4BuiElL995vRRMK9Uw4rQgdEkLaHhJ2TA6HU4/df8J4nM
8lzOx4cnwBK88uWSXI+PDXNki/j3WhmX5/UdEKoH4rHpbbG6d2oeh7saUgSh7x/z
RRP2PR32S66vbxaLejcmQ6faygls7zoHOxGJ+mqkSJvBObC22zIXm58FL2x2pWQn
-----END CERTIFICATE-----
