Certificate:
    Data:
        Version: 3 (0x2)
        Serial Number:
            27:72:31:21:e7:42:73:28:10:d5:45:aa:fd:f7:30:9b
        Signature Algorithm: sha256WithRSAEncryption
        Issuer: CN=team646-net
        Validity
            Not Before: Sep 13 04:47:37 2021 GMT
            Not After : Aug 28 04:47:37 2024 GMT
        Subject: CN=team646-server
        Subject Public Key Info:
            Public Key Algorithm: rsaEncryption
                RSA Public-Key: (2048 bit)
                Modulus:
                    00:db:a7:96:21:27:7a:8b:b0:3a:0e:a8:46:56:14:
                    ad:68:de:b3:6b:d0:cf:fd:1a:78:f7:76:f9:0e:3e:
                    f5:81:19:ff:11:64:e0:3b:b0:4b:9f:ca:7f:17:f0:
                    b9:16:52:11:7f:45:45:77:26:74:90:9b:7b:5d:a2:
                    43:a1:90:67:eb:f9:90:c8:ec:32:bb:1d:fe:ad:3d:
                    e2:40:25:60:51:d7:ce:ae:75:e7:ed:05:32:26:03:
                    6b:0c:d4:82:46:15:f7:2c:25:9e:e3:8d:84:7f:d9:
                    2c:00:30:c1:91:64:03:df:fa:39:3c:f3:89:44:fc:
                    af:11:82:7f:03:37:0e:9b:94:3a:a0:9b:4f:57:85:
                    04:f5:e0:a0:9d:59:9b:69:92:c1:61:a0:4c:94:63:
                    01:d9:ee:cf:25:93:a2:6f:c3:47:1d:57:0d:a0:33:
                    b6:d6:af:8d:17:16:6e:4d:d0:d0:18:f8:01:aa:36:
                    94:ce:49:28:d3:a1:81:e4:59:c7:f4:06:b3:b0:17:
                    1e:8a:c7:1a:d6:0c:a1:13:6b:c5:3e:87:0a:ca:a5:
                    45:fa:60:47:1d:52:ce:fa:d0:8f:29:73:eb:77:6c:
                    65:54:a5:33:ac:b4:95:24:e4:51:4d:5c:ed:b6:60:
                    d6:0c:2b:45:41:72:ed:b1:0b:21:09:77:52:c2:72:
                    db:15
                Exponent: 65537 (0x10001)
        X509v3 extensions:
            X509v3 Basic Constraints: 
                CA:FALSE
            X509v3 Subject Key Identifier: 
                4B:DA:AE:B6:09:21:B7:4F:A6:BA:5F:EE:55:1A:8D:1D:0A:C0:02:2C
            X509v3 Authority Key Identifier: 
                keyid:ED:94:0E:BF:0C:C6:4B:9F:9D:69:46:EB:5B:C7:90:3F:6F:D1:A2:3A
                DirName:/CN=team646-net
                serial:26:88:05:2D:5C:A8:2B:4C:81:32:56:BE:BB:A2:FA:AA:9E:C4:76:05

            X509v3 Extended Key Usage: 
                TLS Web Server Authentication
            X509v3 Key Usage: 
                Digital Signature, Key Encipherment
            X509v3 Subject Alternative Name: 
                DNS:team646-server
    Signature Algorithm: sha256WithRSAEncryption
         8b:73:49:06:18:b0:89:05:b5:51:e4:42:ec:db:09:34:a9:40:
         0f:74:d8:bd:50:01:5e:ed:f8:3d:a4:1a:17:d3:9a:76:da:f2:
         1c:bc:23:bf:dd:cb:71:03:46:32:82:34:d7:fa:7e:ab:1c:a2:
         4c:69:12:a1:47:36:ca:f6:b8:a8:24:7f:1a:72:35:2e:32:be:
         77:12:a7:de:57:7e:bb:82:2a:8e:b2:02:a8:ca:d0:8b:1a:fd:
         aa:2d:e6:82:51:61:7f:e4:c5:aa:1d:9c:4d:d7:dd:28:d8:15:
         cf:15:db:6f:1c:99:4b:5f:e1:00:a7:a5:ec:54:e3:7d:1f:73:
         b8:ad:10:83:08:ff:d3:65:a7:43:29:91:3e:2d:9d:a7:65:f7:
         83:97:30:c9:a1:9e:bc:48:1a:cf:37:12:76:57:3e:0d:66:f9:
         9b:4f:b9:b2:af:67:46:1a:18:be:e7:bf:17:9d:24:29:9d:89:
         79:f3:b6:4d:0c:a8:72:ae:5f:5f:98:24:ad:94:74:41:58:af:
         ea:1d:9d:cb:fe:86:82:7f:57:ad:33:60:c8:d5:2b:28:38:78:
         9a:1e:48:9d:f9:e5:e5:1e:ed:d8:a3:5e:9c:f9:16:e6:65:22:
         8b:b7:a9:87:35:a2:eb:8d:5f:c0:2a:e8:f4:bd:8f:62:52:d0:
         dc:c8:cb:a0
-----BEGIN CERTIFICATE-----
MIIDdzCCAl+gAwIBAgIQJ3IxIedCcygQ1UWq/fcwmzANBgkqhkiG9w0BAQsFADAW
MRQwEgYDVQQDDAt0ZWFtNjQ2LW5ldDAeFw0yMTA5MTMwNDQ3MzdaFw0yNDA4Mjgw
NDQ3MzdaMBkxFzAVBgNVBAMMDnRlYW02NDYtc2VydmVyMIIBIjANBgkqhkiG9w0B
AQEFAAOCAQ8AMIIBCgKCAQEA26eWISd6i7A6DqhGVhStaN6za9DP/Rp493b5Dj71
gRn/EWTgO7BLn8p/F/C5FlIRf0VFdyZ0kJt7XaJDoZBn6/mQyOwyux3+rT3iQCVg
UdfOrnXn7QUyJgNrDNSCRhX3LCWe442Ef9ksADDBkWQD3/o5PPOJRPyvEYJ/AzcO
m5Q6oJtPV4UE9eCgnVmbaZLBYaBMlGMB2e7PJZOib8NHHVcNoDO21q+NFxZuTdDQ
GPgBqjaUzkko06GB5FnH9AazsBceisca1gyhE2vFPocKyqVF+mBHHVLO+tCPKXPr
d2xlVKUzrLSVJORRTVzttmDWDCtFQXLtsQshCXdSwnLbFQIDAQABo4G9MIG6MAkG
A1UdEwQCMAAwHQYDVR0OBBYEFEvarrYJIbdPprpf7lUajR0KwAIsMFEGA1UdIwRK
MEiAFO2UDr8MxkufnWlG61vHkD9v0aI6oRqkGDAWMRQwEgYDVQQDDAt0ZWFtNjQ2
LW5ldIIUJogFLVyoK0yBMla+u6L6qp7EdgUwEwYDVR0lBAwwCgYIKwYBBQUHAwEw
CwYDVR0PBAQDAgWgMBkGA1UdEQQSMBCCDnRlYW02NDYtc2VydmVyMA0GCSqGSIb3
DQEBCwUAA4IBAQCLc0kGGLCJBbVR5ELs2wk0qUAPdNi9UAFe7fg9pBoX05p22vIc
vCO/3ctxA0YygjTX+n6rHKJMaRKhRzbK9rioJH8acjUuMr53EqfeV367giqOsgKo
ytCLGv2qLeaCUWF/5MWqHZxN190o2BXPFdtvHJlLX+EAp6XsVON9H3O4rRCDCP/T
ZadDKZE+LZ2nZfeDlzDJoZ68SBrPNxJ2Vz4NZvmbT7myr2dGGhi+578XnSQpnYl5
87ZNDKhyrl9fmCStlHRBWK/qHZ3L/oaCf1etM2DI1SsoOHiaHkid+eXlHu3Yo16c
+RbmZSKLt6mHNaLrjV/AKuj0vY9iUtDcyMug
-----END CERTIFICATE-----
