Certificate:
    Data:
        Version: 3 (0x2)
        Serial Number:
            ab:86:5e:92:69:bb:1e:ab:bf:9c:34:00:e3:b0:aa:71
        Signature Algorithm: sha256WithRSAEncryption
        Issuer: CN=team509-net
        Validity
            Not Before: Sep 13 03:10:06 2021 GMT
            Not After : Aug 28 03:10:06 2024 GMT
        Subject: CN=team509-server
        Subject Public Key Info:
            Public Key Algorithm: rsaEncryption
                RSA Public-Key: (2048 bit)
                Modulus:
                    00:bc:e5:32:3f:05:78:50:0d:15:66:89:d1:1f:7a:
                    41:24:50:fd:d0:08:1c:ac:16:e8:df:f0:5b:94:11:
                    ec:88:57:74:1e:a0:b1:0a:f1:fc:80:87:51:04:d7:
                    c9:51:4c:ac:76:c3:42:13:e0:8d:66:9b:d3:18:fe:
                    31:9c:ec:1f:d9:9d:22:91:27:27:bf:e5:86:c0:5f:
                    f1:d6:36:32:db:fb:a3:aa:51:c4:c1:88:62:db:a2:
                    d4:33:5b:c2:88:d0:46:61:89:c8:f0:8f:bc:5e:5d:
                    d3:59:d3:59:50:18:79:61:36:7a:24:2f:21:b3:af:
                    0c:c6:82:ff:cb:ea:24:6a:d1:14:0d:ff:85:5d:8a:
                    07:c4:90:d0:dc:5c:91:68:9b:77:11:3e:44:cc:ec:
                    9b:84:c0:89:d7:22:a3:09:0f:2e:76:52:a4:4d:05:
                    54:a1:25:bf:ed:2d:55:51:7b:89:47:24:c7:dd:02:
                    b1:ca:1b:d0:17:2f:5e:70:6b:a1:10:92:29:b4:37:
                    73:80:cb:19:16:fe:46:9c:84:59:89:97:ec:25:3a:
                    85:8b:2d:0f:50:f6:b9:30:df:c8:4d:11:35:2d:32:
                    5d:b0:09:c1:a4:9d:ce:da:b7:8f:e0:09:8d:5d:11:
                    2c:69:bf:98:31:e5:4c:e0:1e:bc:57:24:91:eb:fd:
                    a2:69
                Exponent: 65537 (0x10001)
        X509v3 extensions:
            X509v3 Basic Constraints: 
                CA:FALSE
            X509v3 Subject Key Identifier: 
                5D:AE:6F:63:BA:EA:B3:F6:46:AB:00:C4:07:80:BE:1B:53:7D:E8:DB
            X509v3 Authority Key Identifier: 
                keyid:5C:74:B4:25:A9:E9:6B:60:A4:CC:DA:24:6E:E1:AB:E7:27:F7:B5:EE
                DirName:/CN=team509-net
                serial:29:28:DF:55:1D:D9:45:9A:24:DF:3F:5F:24:1B:62:86:10:5E:A9:B5

            X509v3 Extended Key Usage: 
                TLS Web Server Authentication
            X509v3 Key Usage: 
                Digital Signature, Key Encipherment
            X509v3 Subject Alternative Name: 
                DNS:team509-server
    Signature Algorithm: sha256WithRSAEncryption
         6d:db:54:f8:1f:08:d4:77:76:e7:13:ce:49:33:21:f3:de:58:
         98:b4:cf:c3:ba:7a:07:12:a7:3c:f0:0b:42:ce:0e:69:f8:15:
         c7:aa:c6:49:c1:a3:76:b8:f3:25:62:b2:37:16:da:a4:cc:33:
         a8:68:69:c9:2a:67:25:c7:72:fe:33:44:a5:e8:18:c2:a8:f3:
         a1:b8:fd:82:a9:ca:54:a7:f0:19:44:19:7c:56:76:89:81:5e:
         45:47:8e:71:fe:e4:6a:85:ad:a3:4e:d9:73:c1:60:91:a0:e3:
         a1:6b:57:4c:06:6d:2a:5e:24:5c:be:d2:ae:aa:71:36:c1:8a:
         d3:97:2f:54:34:0c:02:f8:cb:52:e1:f9:ae:e3:8c:b5:c1:5c:
         17:81:3a:05:9c:d5:f7:67:77:2e:fc:0e:08:f5:11:67:c8:6f:
         cd:ca:d3:2b:67:c4:d7:b4:9b:e8:7b:e0:6d:88:09:5c:65:68:
         50:cb:35:06:77:0a:dd:c2:45:fd:14:8c:89:08:c9:07:c2:2a:
         49:75:a5:49:7d:dc:3e:d9:27:fc:1b:bf:86:e4:99:94:cd:ff:
         d3:6a:24:38:0c:3a:f7:ea:9e:93:3f:82:43:7f:43:66:16:5a:
         ba:49:3f:ff:55:b2:13:13:71:85:4c:5a:dc:86:c3:10:b1:32:
         10:97:49:6c
-----BEGIN CERTIFICATE-----
MIIDeDCCAmCgAwIBAgIRAKuGXpJpux6rv5w0AOOwqnEwDQYJKoZIhvcNAQELBQAw
FjEUMBIGA1UEAwwLdGVhbTUwOS1uZXQwHhcNMjEwOTEzMDMxMDA2WhcNMjQwODI4
MDMxMDA2WjAZMRcwFQYDVQQDDA50ZWFtNTA5LXNlcnZlcjCCASIwDQYJKoZIhvcN
AQEBBQADggEPADCCAQoCggEBALzlMj8FeFANFWaJ0R96QSRQ/dAIHKwW6N/wW5QR
7IhXdB6gsQrx/ICHUQTXyVFMrHbDQhPgjWab0xj+MZzsH9mdIpEnJ7/lhsBf8dY2
Mtv7o6pRxMGIYtui1DNbwojQRmGJyPCPvF5d01nTWVAYeWE2eiQvIbOvDMaC/8vq
JGrRFA3/hV2KB8SQ0NxckWibdxE+RMzsm4TAidciowkPLnZSpE0FVKElv+0tVVF7
iUckx90Cscob0BcvXnBroRCSKbQ3c4DLGRb+RpyEWYmX7CU6hYstD1D2uTDfyE0R
NS0yXbAJwaSdztq3j+AJjV0RLGm/mDHlTOAevFckkev9omkCAwEAAaOBvTCBujAJ
BgNVHRMEAjAAMB0GA1UdDgQWBBRdrm9juuqz9karAMQHgL4bU33o2zBRBgNVHSME
SjBIgBRcdLQlqelrYKTM2iRu4avnJ/e17qEapBgwFjEUMBIGA1UEAwwLdGVhbTUw
OS1uZXSCFCko31Ud2UWaJN8/XyQbYoYQXqm1MBMGA1UdJQQMMAoGCCsGAQUFBwMB
MAsGA1UdDwQEAwIFoDAZBgNVHREEEjAQgg50ZWFtNTA5LXNlcnZlcjANBgkqhkiG
9w0BAQsFAAOCAQEAbdtU+B8I1Hd25xPOSTMh895YmLTPw7p6BxKnPPALQs4OafgV
x6rGScGjdrjzJWKyNxbapMwzqGhpySpnJcdy/jNEpegYwqjzobj9gqnKVKfwGUQZ
fFZ2iYFeRUeOcf7kaoWto07Zc8FgkaDjoWtXTAZtKl4kXL7SrqpxNsGK05cvVDQM
AvjLUuH5ruOMtcFcF4E6BZzV92d3LvwOCPURZ8hvzcrTK2fE17Sb6HvgbYgJXGVo
UMs1BncK3cJF/RSMiQjJB8IqSXWlSX3cPtkn/Bu/huSZlM3/02okOAw69+qekz+C
Q39DZhZaukk//1WyExNxhUxa3IbDELEyEJdJbA==
-----END CERTIFICATE-----
