Certificate:
    Data:
        Version: 3 (0x2)
        Serial Number:
            70:57:b5:07:98:e2:7d:ee:40:4c:98:06:50:93:95:5b
        Signature Algorithm: sha256WithRSAEncryption
        Issuer: CN=team753-net
        Validity
            Not Before: Sep 13 05:15:28 2021 GMT
            Not After : Aug 28 05:15:28 2024 GMT
        Subject: CN=team753-server
        Subject Public Key Info:
            Public Key Algorithm: rsaEncryption
                RSA Public-Key: (2048 bit)
                Modulus:
                    00:d1:d5:5a:a1:5b:2a:72:57:68:fd:2b:39:05:c8:
                    5e:73:44:25:c2:1d:92:15:31:eb:76:96:26:ab:2a:
                    16:fc:0e:7e:5d:3b:6e:ac:df:97:56:bf:6a:56:fb:
                    c4:37:2d:2e:44:b2:00:ef:78:9f:e1:3d:75:cf:74:
                    2a:a3:ff:8a:06:8f:2a:55:2c:a7:6e:20:1f:8d:e6:
                    78:5f:4d:0a:2a:25:a0:5c:a5:b2:97:68:4d:0c:c1:
                    b0:84:77:48:b2:19:e4:db:a7:2f:cf:8b:67:42:48:
                    36:4d:a2:c7:04:95:be:da:fe:e6:2a:01:47:8f:0b:
                    88:36:9e:82:d0:74:e9:19:2b:19:5d:71:14:27:cf:
                    84:09:60:2c:92:52:ca:55:35:23:9e:3c:0b:1f:7e:
                    0e:8f:8f:48:56:0e:f0:7b:84:57:56:8b:2a:ff:5b:
                    0e:fa:35:2a:08:10:37:e5:c3:76:fc:76:d0:38:1b:
                    a8:70:da:5e:c9:c4:0e:f5:73:b7:ef:04:f9:c1:4e:
                    e6:47:76:55:5b:a8:b2:a4:b1:0d:f3:5b:91:28:75:
                    85:28:66:db:aa:fd:e4:df:ca:e0:a3:b1:52:40:8b:
                    c2:53:1a:ec:76:a5:63:e6:3d:21:54:6a:43:ad:91:
                    d8:be:57:e3:26:f2:f0:ee:ab:56:44:1d:63:44:23:
                    a3:9b
                Exponent: 65537 (0x10001)
        X509v3 extensions:
            X509v3 Basic Constraints: 
                CA:FALSE
            X509v3 Subject Key Identifier: 
                1F:F6:4F:E8:D7:D4:F8:89:DD:B3:B9:6E:DF:31:EA:CA:73:A0:62:59
            X509v3 Authority Key Identifier: 
                keyid:F2:7A:2A:65:76:FF:02:6A:F2:93:82:53:F7:B6:D0:0F:D0:9B:BF:0D
                DirName:/CN=team753-net
                serial:38:F6:F2:1C:6A:87:95:FB:42:29:88:A6:1B:3F:1B:FF:AD:76:6E:E3

            X509v3 Extended Key Usage: 
                TLS Web Server Authentication
            X509v3 Key Usage: 
                Digital Signature, Key Encipherment
            X509v3 Subject Alternative Name: 
                DNS:team753-server
    Signature Algorithm: sha256WithRSAEncryption
         32:6d:3b:f4:cb:9d:64:f6:93:b8:d1:df:19:80:a1:78:d3:53:
         66:b5:69:71:1e:41:21:1e:a7:bd:1f:30:95:0e:81:4f:06:fd:
         9e:f6:e9:fb:6b:79:86:96:04:e1:72:62:cf:53:fb:c7:1f:22:
         e9:14:2a:1e:c0:07:4c:fe:98:23:e9:4d:71:8f:82:88:38:89:
         fc:b3:3b:d7:3a:8d:ff:64:7b:21:e0:7f:14:97:d0:0d:fd:75:
         0e:7d:ee:e4:73:64:1d:1a:2a:5e:ae:d4:fe:bf:a6:d9:ed:58:
         24:c5:d6:17:0a:84:e5:27:32:37:c6:9f:23:58:c1:05:b7:34:
         3c:20:a7:5b:de:89:d7:11:4e:66:c8:bf:07:50:ea:cb:d2:8b:
         43:bc:48:ab:e2:37:15:68:07:f8:34:70:17:f7:65:ca:ab:e9:
         cd:69:3e:23:ec:d0:c7:1c:d1:bd:24:64:8b:8e:96:ad:8b:7a:
         a6:ef:8c:93:45:de:00:3c:63:5d:b4:05:9a:2c:a4:d7:e9:c1:
         ea:33:4a:5f:e7:ff:86:e4:d0:0c:06:02:e8:2d:e7:84:f4:9d:
         db:14:2f:9a:df:47:d4:41:23:17:b4:54:7b:7f:d6:b2:f1:6b:
         2a:90:ca:af:7e:24:93:3b:70:77:ef:c6:eb:70:b8:f6:02:6e:
         f2:7a:45:9e
-----BEGIN CERTIFICATE-----
MIIDdzCCAl+gAwIBAgIQcFe1B5jife5ATJgGUJOVWzANBgkqhkiG9w0BAQsFADAW
MRQwEgYDVQQDDAt0ZWFtNzUzLW5ldDAeFw0yMTA5MTMwNTE1MjhaFw0yNDA4Mjgw
NTE1MjhaMBkxFzAVBgNVBAMMDnRlYW03NTMtc2VydmVyMIIBIjANBgkqhkiG9w0B
AQEFAAOCAQ8AMIIBCgKCAQEA0dVaoVsqcldo/Ss5Bchec0Qlwh2SFTHrdpYmqyoW
/A5+XTturN+XVr9qVvvENy0uRLIA73if4T11z3Qqo/+KBo8qVSynbiAfjeZ4X00K
KiWgXKWyl2hNDMGwhHdIshnk26cvz4tnQkg2TaLHBJW+2v7mKgFHjwuINp6C0HTp
GSsZXXEUJ8+ECWAsklLKVTUjnjwLH34Oj49IVg7we4RXVosq/1sO+jUqCBA35cN2
/HbQOBuocNpeycQO9XO37wT5wU7mR3ZVW6iypLEN81uRKHWFKGbbqv3k38rgo7FS
QIvCUxrsdqVj5j0hVGpDrZHYvlfjJvLw7qtWRB1jRCOjmwIDAQABo4G9MIG6MAkG
A1UdEwQCMAAwHQYDVR0OBBYEFB/2T+jX1PiJ3bO5bt8x6spzoGJZMFEGA1UdIwRK
MEiAFPJ6KmV2/wJq8pOCU/e20A/Qm78NoRqkGDAWMRQwEgYDVQQDDAt0ZWFtNzUz
LW5ldIIUOPbyHGqHlftCKYimGz8b/612buMwEwYDVR0lBAwwCgYIKwYBBQUHAwEw
CwYDVR0PBAQDAgWgMBkGA1UdEQQSMBCCDnRlYW03NTMtc2VydmVyMA0GCSqGSIb3
DQEBCwUAA4IBAQAybTv0y51k9pO40d8ZgKF401NmtWlxHkEhHqe9HzCVDoFPBv2e
9un7a3mGlgThcmLPU/vHHyLpFCoewAdM/pgj6U1xj4KIOIn8szvXOo3/ZHsh4H8U
l9AN/XUOfe7kc2QdGipertT+v6bZ7VgkxdYXCoTlJzI3xp8jWMEFtzQ8IKdb3onX
EU5myL8HUOrL0otDvEir4jcVaAf4NHAX92XKq+nNaT4j7NDHHNG9JGSLjpati3qm
74yTRd4APGNdtAWaLKTX6cHqM0pf5/+G5NAMBgLoLeeE9J3bFC+a30fUQSMXtFR7
f9ay8WsqkMqvfiSTO3B378brcLj2Am7yekWe
-----END CERTIFICATE-----
