Certificate:
    Data:
        Version: 3 (0x2)
        Serial Number:
            c7:c9:9e:f1:04:6a:1e:99:17:e1:0d:64:bb:19:bf:dc
        Signature Algorithm: sha256WithRSAEncryption
        Issuer: CN=team753-net
        Validity
            Not Before: Sep 13 05:15:28 2021 GMT
            Not After : Aug 28 05:15:28 2024 GMT
        Subject: CN=team753-client
        Subject Public Key Info:
            Public Key Algorithm: rsaEncryption
                RSA Public-Key: (2048 bit)
                Modulus:
                    00:d2:e6:7d:ab:84:45:66:5b:e2:8f:5d:84:8d:b9:
                    b8:1a:74:6f:3d:7d:45:cb:d8:43:1f:b7:82:31:bd:
                    78:ea:dd:f5:94:cd:bf:74:53:09:6b:6f:6d:9c:a0:
                    7d:52:38:bc:d9:5f:88:8d:c0:99:ee:e4:25:38:09:
                    ae:70:ae:b7:6b:16:f0:08:23:c4:0b:c1:21:05:68:
                    bb:e3:23:05:3d:99:30:53:06:37:6b:d0:88:34:6b:
                    c0:12:b8:f3:1f:33:b4:0f:e0:40:da:c2:ea:df:95:
                    b3:6b:39:c5:69:f8:27:e5:15:77:43:01:7f:6e:13:
                    7d:d6:19:66:90:01:eb:f6:0b:f4:09:5c:fe:0b:88:
                    64:35:e5:d1:83:7e:b5:22:57:c2:d4:0f:c9:d3:74:
                    cb:0a:86:2c:c3:eb:78:9f:98:89:3a:08:e7:c9:74:
                    4f:5d:a4:a3:74:5e:67:1a:a6:8c:00:ee:fa:96:34:
                    bc:37:b3:24:e8:59:ca:53:e9:f7:44:f9:85:42:98:
                    97:3f:3d:38:7c:cb:bc:ca:c3:9a:ff:24:98:e9:a6:
                    61:6d:a0:22:87:b8:9e:e0:af:16:34:bd:49:7c:cf:
                    41:84:e8:67:2e:0b:ac:16:25:06:a1:3c:6a:2c:f5:
                    95:f8:61:c9:04:4d:15:49:70:d5:11:72:5e:2e:9e:
                    36:ef
                Exponent: 65537 (0x10001)
        X509v3 extensions:
            X509v3 Basic Constraints: 
                CA:FALSE
            X509v3 Subject Key Identifier: 
                00:62:05:44:30:15:0C:64:AD:3E:24:91:8E:17:77:1E:EB:31:85:C5
            X509v3 Authority Key Identifier: 
                keyid:F2:7A:2A:65:76:FF:02:6A:F2:93:82:53:F7:B6:D0:0F:D0:9B:BF:0D
                DirName:/CN=team753-net
                serial:38:F6:F2:1C:6A:87:95:FB:42:29:88:A6:1B:3F:1B:FF:AD:76:6E:E3

            X509v3 Extended Key Usage: 
                TLS Web Client Authentication
            X509v3 Key Usage: 
                Digital Signature
    Signature Algorithm: sha256WithRSAEncryption
         a2:d0:69:86:32:c8:c6:9f:ac:16:d9:1d:66:34:3a:55:94:d6:
         4d:ac:be:27:25:07:8b:62:8f:f3:dc:1c:a6:af:f8:52:41:bf:
         dc:89:c5:98:d6:53:65:1b:7c:ad:51:ab:15:82:a5:d4:c2:91:
         10:d1:92:41:10:f5:46:cc:7d:92:fa:e0:08:01:9c:c4:75:49:
         8a:71:a1:df:04:3e:2c:94:20:db:9e:bf:df:7c:24:8b:b3:31:
         31:24:f6:12:14:76:b8:29:22:53:46:2a:d2:8c:f3:69:b9:c0:
         60:27:d8:f2:e6:90:62:8e:b1:ca:55:7c:7b:f5:a1:d3:fe:a8:
         cd:d5:8e:ee:ba:e1:fa:78:7f:ea:09:4e:48:10:6f:6d:09:76:
         96:ca:0a:88:f2:c5:8e:f6:b3:5c:02:93:ee:f2:32:82:d3:be:
         8a:83:01:f7:12:3e:e4:97:3d:79:01:95:0e:66:b2:ce:c4:cb:
         4f:16:b3:bc:b0:b7:a9:9c:88:85:27:1d:11:05:ad:70:87:6d:
         a0:da:7f:72:3a:6b:93:8f:ef:fd:17:10:fe:3a:ce:60:38:1f:
         b4:fb:0f:83:d2:73:a5:83:29:83:ab:cc:77:48:6d:a7:90:dc:
         a2:9e:1a:a2:a0:10:89:f7:a6:b4:97:9a:9a:61:82:ed:cf:9f:
         4f:f3:ba:af
-----BEGIN CERTIFICATE-----
MIIDXTCCAkWgAwIBAgIRAMfJnvEEah6ZF+ENZLsZv9wwDQYJKoZIhvcNAQELBQAw
FjEUMBIGA1UEAwwLdGVhbTc1My1uZXQwHhcNMjEwOTEzMDUxNTI4WhcNMjQwODI4
MDUxNTI4WjAZMRcwFQYDVQQDDA50ZWFtNzUzLWNsaWVudDCCASIwDQYJKoZIhvcN
AQEBBQADggEPADCCAQoCggEBANLmfauERWZb4o9dhI25uBp0bz19RcvYQx+3gjG9
eOrd9ZTNv3RTCWtvbZygfVI4vNlfiI3Ame7kJTgJrnCut2sW8AgjxAvBIQVou+Mj
BT2ZMFMGN2vQiDRrwBK48x8ztA/gQNrC6t+Vs2s5xWn4J+UVd0MBf24TfdYZZpAB
6/YL9Alc/guIZDXl0YN+tSJXwtQPydN0ywqGLMPreJ+YiToI58l0T12ko3ReZxqm
jADu+pY0vDezJOhZylPp90T5hUKYlz89OHzLvMrDmv8kmOmmYW2gIoe4nuCvFjS9
SXzPQYToZy4LrBYlBqE8aiz1lfhhyQRNFUlw1RFyXi6eNu8CAwEAAaOBojCBnzAJ
BgNVHRMEAjAAMB0GA1UdDgQWBBQAYgVEMBUMZK0+JJGOF3ce6zGFxTBRBgNVHSME
SjBIgBTyeipldv8CavKTglP3ttAP0Ju/DaEapBgwFjEUMBIGA1UEAwwLdGVhbTc1
My1uZXSCFDj28hxqh5X7QimIphs/G/+tdm7jMBMGA1UdJQQMMAoGCCsGAQUFBwMC
MAsGA1UdDwQEAwIHgDANBgkqhkiG9w0BAQsFAAOCAQEAotBphjLIxp+sFtkdZjQ6
VZTWTay+JyUHi2KP89wcpq/4UkG/3InFmNZTZRt8rVGrFYKl1MKRENGSQRD1Rsx9
kvrgCAGcxHVJinGh3wQ+LJQg256/33wki7MxMST2EhR2uCkiU0Yq0ozzabnAYCfY
8uaQYo6xylV8e/Wh0/6ozdWO7rrh+nh/6glOSBBvbQl2lsoKiPLFjvazXAKT7vIy
gtO+ioMB9xI+5Jc9eQGVDmayzsTLTxazvLC3qZyIhScdEQWtcIdtoNp/cjprk4/v
/RcQ/jrOYDgftPsPg9JzpYMpg6vMd0htp5Dcop4aoqAQifemtJeammGC7c+fT/O6
rw==
-----END CERTIFICATE-----
