Certificate:
    Data:
        Version: 3 (0x2)
        Serial Number:
            43:60:92:80:60:73:93:19:38:d9:69:2f:ad:8a:3f:02
        Signature Algorithm: sha256WithRSAEncryption
        Issuer: CN=team671-net
        Validity
            Not Before: Sep 13 04:32:58 2021 GMT
            Not After : Aug 28 04:32:58 2024 GMT
        Subject: CN=team671-client
        Subject Public Key Info:
            Public Key Algorithm: rsaEncryption
                RSA Public-Key: (2048 bit)
                Modulus:
                    00:ce:8a:2d:ae:29:77:4e:b5:4c:aa:76:5a:f7:3f:
                    18:f6:4d:c1:17:d2:03:e5:37:29:ca:35:e7:5a:74:
                    cb:76:5a:e2:ef:e7:29:d6:b2:70:ab:43:1e:92:6b:
                    b8:bd:95:30:55:14:21:4a:75:b6:69:39:85:ab:92:
                    34:95:73:3f:d1:93:45:50:e0:29:16:a2:ad:50:5b:
                    7d:16:2a:4d:2a:1d:e9:37:8b:2c:ce:59:5e:9f:32:
                    6b:60:1f:61:19:70:17:c3:cf:0c:00:a8:a3:9f:dd:
                    41:f9:38:66:24:a3:12:fd:80:8c:bc:73:ec:47:19:
                    4c:b2:40:e4:79:30:98:cf:a0:66:90:73:b2:10:af:
                    e1:3e:25:4e:27:89:ab:89:42:d6:8d:cc:22:6c:bd:
                    7a:1d:b3:e0:07:aa:05:d7:ce:3e:36:5e:31:05:83:
                    3f:1c:3c:25:66:ef:d3:78:13:64:46:77:11:8b:3b:
                    ef:0c:6c:3f:7f:0b:16:93:4e:e6:11:2d:26:24:c0:
                    2c:63:5f:4e:9b:1d:b6:12:d7:fa:2e:53:3b:f4:bc:
                    e0:ac:ef:6d:20:75:87:66:2e:cf:33:cb:e5:cf:94:
                    ae:e6:a7:34:12:cd:bd:79:53:45:54:58:cc:03:57:
                    73:82:2c:24:37:7e:b0:36:34:03:99:23:c7:c1:1a:
                    0b:99
                Exponent: 65537 (0x10001)
        X509v3 extensions:
            X509v3 Basic Constraints: 
                CA:FALSE
            X509v3 Subject Key Identifier: 
                98:86:2C:E1:46:40:0E:99:7B:78:50:5C:77:2E:F4:5A:CA:82:36:F1
            X509v3 Authority Key Identifier: 
                keyid:54:E7:64:6E:ED:9F:A9:3B:73:9F:0F:15:67:D3:23:46:66:44:01:4F
                DirName:/CN=team671-net
                serial:20:BB:B4:A8:1F:A3:48:79:4D:CC:D0:EC:2C:71:8A:C0:35:87:88:73

            X509v3 Extended Key Usage: 
                TLS Web Client Authentication
            X509v3 Key Usage: 
                Digital Signature
    Signature Algorithm: sha256WithRSAEncryption
         7e:79:ea:4a:7c:d7:ff:12:b7:b9:fa:21:95:c7:35:a1:39:99:
         08:f6:7e:25:85:64:e5:e1:b5:ba:82:94:9a:d6:32:cb:f3:86:
         f7:81:9a:2f:9b:b7:5d:45:8b:69:22:70:59:69:9e:3f:6d:11:
         20:52:72:e5:10:27:2e:c4:59:71:63:a8:b2:57:49:48:f1:4f:
         44:92:ce:43:b9:55:de:bb:9e:56:ec:4b:75:de:36:41:f7:45:
         04:cc:a9:6b:89:82:3e:39:e1:90:05:b6:ea:c7:55:c2:7b:64:
         c5:d8:e8:ee:71:39:4c:2a:9b:0f:8f:27:fd:db:cb:fe:cc:bb:
         d6:2e:e5:81:18:69:51:04:03:01:4e:56:a2:dc:0e:6d:49:77:
         1c:9a:83:ff:42:ac:c5:bd:4e:10:06:01:09:96:33:0d:e1:4d:
         7a:ec:db:dd:3b:18:ed:22:16:79:32:6b:f5:20:45:be:7a:2b:
         bb:1b:a1:64:c1:85:47:0c:4e:b9:ff:67:b6:b5:2c:fd:93:aa:
         07:87:98:a8:9e:27:60:aa:de:3a:6b:01:c1:8a:ba:59:84:c9:
         b4:65:02:33:db:a6:3d:67:4f:5e:49:0b:93:e1:ef:c8:19:e4:
         30:8d:2a:b4:55:6d:07:02:c5:c8:0b:fc:d2:3a:15:cf:34:91:
         67:39:da:64
-----BEGIN CERTIFICATE-----
MIIDXDCCAkSgAwIBAgIQQ2CSgGBzkxk42WkvrYo/AjANBgkqhkiG9w0BAQsFADAW
MRQwEgYDVQQDDAt0ZWFtNjcxLW5ldDAeFw0yMTA5MTMwNDMyNThaFw0yNDA4Mjgw
NDMyNThaMBkxFzAVBgNVBAMMDnRlYW02NzEtY2xpZW50MIIBIjANBgkqhkiG9w0B
AQEFAAOCAQ8AMIIBCgKCAQEAzootril3TrVMqnZa9z8Y9k3BF9ID5TcpyjXnWnTL
dlri7+cp1rJwq0Mekmu4vZUwVRQhSnW2aTmFq5I0lXM/0ZNFUOApFqKtUFt9FipN
Kh3pN4sszllenzJrYB9hGXAXw88MAKijn91B+ThmJKMS/YCMvHPsRxlMskDkeTCY
z6BmkHOyEK/hPiVOJ4mriULWjcwibL16HbPgB6oF184+Nl4xBYM/HDwlZu/TeBNk
RncRizvvDGw/fwsWk07mES0mJMAsY19Omx22Etf6LlM79LzgrO9tIHWHZi7PM8vl
z5Su5qc0Es29eVNFVFjMA1dzgiwkN36wNjQDmSPHwRoLmQIDAQABo4GiMIGfMAkG
A1UdEwQCMAAwHQYDVR0OBBYEFJiGLOFGQA6Ze3hQXHcu9FrKgjbxMFEGA1UdIwRK
MEiAFFTnZG7tn6k7c58PFWfTI0ZmRAFPoRqkGDAWMRQwEgYDVQQDDAt0ZWFtNjcx
LW5ldIIUILu0qB+jSHlNzNDsLHGKwDWHiHMwEwYDVR0lBAwwCgYIKwYBBQUHAwIw
CwYDVR0PBAQDAgeAMA0GCSqGSIb3DQEBCwUAA4IBAQB+eepKfNf/Ere5+iGVxzWh
OZkI9n4lhWTl4bW6gpSa1jLL84b3gZovm7ddRYtpInBZaZ4/bREgUnLlECcuxFlx
Y6iyV0lI8U9Eks5DuVXeu55W7Et13jZB90UEzKlriYI+OeGQBbbqx1XCe2TF2Oju
cTlMKpsPjyf928v+zLvWLuWBGGlRBAMBTlai3A5tSXccmoP/QqzFvU4QBgEJljMN
4U167NvdOxjtIhZ5Mmv1IEW+eiu7G6FkwYVHDE65/2e2tSz9k6oHh5ionidgqt46
awHBirpZhMm0ZQIz26Y9Z09eSQuT4e/IGeQwjSq0VW0HAsXIC/zSOhXPNJFnOdpk
-----END CERTIFICATE-----
