Certificate:
    Data:
        Version: 3 (0x2)
        Serial Number:
            17:4a:29:c3:3f:91:a4:33:55:48:b2:0f:3f:4d:e3:8d
        Signature Algorithm: sha256WithRSAEncryption
        Issuer: CN=team627-net
        Validity
            Not Before: Sep 13 04:12:37 2021 GMT
            Not After : Aug 28 04:12:37 2024 GMT
        Subject: CN=team627-server
        Subject Public Key Info:
            Public Key Algorithm: rsaEncryption
                RSA Public-Key: (2048 bit)
                Modulus:
                    00:bf:cb:f8:c1:f7:48:d6:e8:09:32:22:83:76:ed:
                    c2:77:b0:06:e4:db:85:2a:1c:d0:a7:d9:d2:04:bd:
                    7f:b5:9f:3e:80:9f:ef:38:9b:22:c0:da:1b:a1:8e:
                    0d:4b:d3:af:fa:1e:ba:2f:d5:d0:7b:a6:bf:be:98:
                    5a:14:07:38:81:3e:95:05:cd:84:3d:b2:71:b3:a8:
                    14:bd:a9:11:aa:bc:b3:87:a1:a2:0e:90:dd:8f:ab:
                    ca:01:2e:98:1b:ce:40:86:2d:e5:33:f5:9e:42:b6:
                    b7:87:d8:d8:8a:42:15:3e:18:b3:3f:bd:61:0a:05:
                    11:6c:9b:68:8e:8c:11:ad:5a:60:93:d9:05:a5:72:
                    ed:86:87:45:0b:b5:c5:28:c8:7f:c7:ba:da:9c:cc:
                    78:3d:51:e2:08:02:5c:0d:9a:3e:02:36:f6:3a:66:
                    f5:85:af:ff:d9:c5:09:e3:4b:a7:4a:85:1a:89:f9:
                    7b:46:2e:08:90:70:7a:3c:1d:71:97:3c:de:92:1e:
                    37:27:60:c3:5d:0f:93:fc:e9:73:27:b5:f3:dd:31:
                    0e:5d:22:1a:ee:07:9d:61:6b:f3:6f:e0:f2:b9:c7:
                    a4:a8:d6:d1:7c:a6:19:d5:a9:76:3a:83:ff:ca:f6:
                    5f:48:f3:1f:e0:a4:ff:d5:cf:30:a6:bb:f3:ff:d1:
                    a6:03
                Exponent: 65537 (0x10001)
        X509v3 extensions:
            X509v3 Basic Constraints: 
                CA:FALSE
            X509v3 Subject Key Identifier: 
                CF:2C:B5:21:D3:DE:52:31:4F:7B:02:78:60:06:9E:A2:D3:B4:8A:4D
            X509v3 Authority Key Identifier: 
                keyid:02:08:62:6D:9D:82:77:7C:44:0C:7D:22:19:16:DA:52:DA:9B:B4:13
                DirName:/CN=team627-net
                serial:31:45:D6:5E:E1:C3:FF:E2:6F:2C:96:76:0F:78:33:88:28:33:2B:24

            X509v3 Extended Key Usage: 
                TLS Web Server Authentication
            X509v3 Key Usage: 
                Digital Signature, Key Encipherment
            X509v3 Subject Alternative Name: 
                DNS:team627-server
    Signature Algorithm: sha256WithRSAEncryption
         6e:67:2c:21:b1:c8:4a:3d:87:bb:f3:63:fe:32:77:64:13:f6:
         c9:c4:57:cb:8a:1a:f3:a7:62:ff:d4:e5:ac:7b:29:92:70:46:
         21:63:13:bf:4f:98:31:f6:a4:23:ba:bb:40:67:3e:ae:9f:24:
         cf:3a:be:c1:68:c3:db:7a:49:cd:52:20:08:b1:4b:3b:45:85:
         c2:c8:e3:6c:6e:c0:e0:05:7f:8e:43:04:e0:85:9f:12:32:4c:
         04:c7:4d:73:b2:90:5c:14:e8:9d:dc:98:9f:be:ef:6f:cf:e1:
         7b:58:4d:f6:fb:12:11:9b:8f:3b:b9:4b:f1:4b:3b:dd:5a:76:
         a8:ec:55:59:ab:d2:67:86:ff:f0:d5:9c:17:cf:75:e3:ba:0c:
         0b:50:7f:2d:a3:aa:5b:fb:2a:e9:86:b1:af:7e:20:a5:84:a5:
         33:3e:f3:ca:76:3a:79:d1:42:b3:60:7c:1d:31:75:e8:a7:6d:
         37:3e:13:59:24:51:37:72:43:c0:0d:e5:bc:62:b2:61:dc:c4:
         e9:6d:2d:6e:a3:d6:c1:70:99:16:33:96:1b:8c:24:54:ed:39:
         63:1c:b7:93:11:b0:ec:68:44:62:9c:02:c6:4b:00:be:a4:07:
         b2:12:68:6e:df:34:bd:8c:51:fc:fb:36:ed:c5:14:f4:08:b0:
         17:d0:97:9f
-----BEGIN CERTIFICATE-----
MIIDdzCCAl+gAwIBAgIQF0opwz+RpDNVSLIPP03jjTANBgkqhkiG9w0BAQsFADAW
MRQwEgYDVQQDDAt0ZWFtNjI3LW5ldDAeFw0yMTA5MTMwNDEyMzdaFw0yNDA4Mjgw
NDEyMzdaMBkxFzAVBgNVBAMMDnRlYW02Mjctc2VydmVyMIIBIjANBgkqhkiG9w0B
AQEFAAOCAQ8AMIIBCgKCAQEAv8v4wfdI1ugJMiKDdu3Cd7AG5NuFKhzQp9nSBL1/
tZ8+gJ/vOJsiwNoboY4NS9Ov+h66L9XQe6a/vphaFAc4gT6VBc2EPbJxs6gUvakR
qryzh6GiDpDdj6vKAS6YG85Ahi3lM/WeQra3h9jYikIVPhizP71hCgURbJtojowR
rVpgk9kFpXLthodFC7XFKMh/x7ranMx4PVHiCAJcDZo+Ajb2Omb1ha//2cUJ40un
SoUaifl7Ri4IkHB6PB1xlzzekh43J2DDXQ+T/OlzJ7Xz3TEOXSIa7gedYWvzb+Dy
ucekqNbRfKYZ1al2OoP/yvZfSPMf4KT/1c8wprvz/9GmAwIDAQABo4G9MIG6MAkG
A1UdEwQCMAAwHQYDVR0OBBYEFM8stSHT3lIxT3sCeGAGnqLTtIpNMFEGA1UdIwRK
MEiAFAIIYm2dgnd8RAx9IhkW2lLam7QToRqkGDAWMRQwEgYDVQQDDAt0ZWFtNjI3
LW5ldIIUMUXWXuHD/+JvLJZ2D3gziCgzKyQwEwYDVR0lBAwwCgYIKwYBBQUHAwEw
CwYDVR0PBAQDAgWgMBkGA1UdEQQSMBCCDnRlYW02Mjctc2VydmVyMA0GCSqGSIb3
DQEBCwUAA4IBAQBuZywhschKPYe782P+MndkE/bJxFfLihrzp2L/1OWseymScEYh
YxO/T5gx9qQjurtAZz6unyTPOr7BaMPbeknNUiAIsUs7RYXCyONsbsDgBX+OQwTg
hZ8SMkwEx01zspBcFOid3Jifvu9vz+F7WE32+xIRm487uUvxSzvdWnao7FVZq9Jn
hv/w1ZwXz3XjugwLUH8to6pb+yrphrGvfiClhKUzPvPKdjp50UKzYHwdMXXop203
PhNZJFE3ckPADeW8YrJh3MTpbS1uo9bBcJkWM5YbjCRU7TljHLeTEbDsaERinALG
SwC+pAeyEmhu3zS9jFH8+zbtxRT0CLAX0Jef
-----END CERTIFICATE-----
