Certificate:
    Data:
        Version: 3 (0x2)
        Serial Number:
            d6:dc:16:b9:df:b5:9a:b8:04:d8:02:ac:15:61:0c:cd
        Signature Algorithm: sha256WithRSAEncryption
        Issuer: CN=team309-net
        Validity
            Not Before: Sep 13 01:31:40 2021 GMT
            Not After : Aug 28 01:31:40 2024 GMT
        Subject: CN=team309-server
        Subject Public Key Info:
            Public Key Algorithm: rsaEncryption
                RSA Public-Key: (2048 bit)
                Modulus:
                    00:bb:6e:c3:1d:14:2f:ed:98:84:40:6f:6f:b1:cd:
                    e8:11:ae:0d:c9:6a:02:43:bd:4d:64:4a:71:ff:18:
                    8b:2a:f6:58:e6:fe:1f:c0:52:76:75:25:dc:c6:33:
                    fc:cc:75:f9:c6:e3:a9:7d:65:ff:20:47:c6:cc:e7:
                    d9:06:28:94:6d:c0:23:52:0d:a9:8c:a2:a8:db:6d:
                    bb:55:84:c2:88:b5:a5:4a:fd:55:1d:01:7c:05:3d:
                    80:d2:a0:63:1a:1e:be:c3:b4:76:d5:0f:39:58:32:
                    af:bc:4e:6f:09:8d:47:ea:1e:9f:72:65:48:67:7c:
                    09:ff:c0:a7:b2:08:df:f2:c7:8b:cb:a6:20:d8:ac:
                    b5:6b:f9:71:57:14:2b:25:40:9e:44:11:45:8e:01:
                    0a:38:bc:ab:72:f9:8e:74:94:d3:ef:79:0e:48:9a:
                    ff:7f:97:ec:38:f7:1e:eb:fd:5e:f3:e7:e1:c6:96:
                    d0:16:1c:3e:c0:f3:fd:17:ee:b6:9d:ab:5d:c8:4e:
                    58:54:ed:5a:22:34:59:c0:53:4b:6f:d9:bf:59:b9:
                    42:d1:3f:ea:d8:1d:e2:f7:69:a2:57:48:45:6f:d9:
                    72:02:46:91:82:e1:6f:0e:f7:02:30:5f:ae:38:43:
                    97:62:53:da:0e:9f:eb:04:9f:d7:24:0b:3d:cb:e7:
                    89:3b
                Exponent: 65537 (0x10001)
        X509v3 extensions:
            X509v3 Basic Constraints: 
                CA:FALSE
            X509v3 Subject Key Identifier: 
                A0:E5:BA:DD:6E:47:33:95:AB:5E:B4:86:90:95:A0:A6:C0:DB:39:4A
            X509v3 Authority Key Identifier: 
                keyid:7D:42:3B:80:C1:06:A6:85:68:67:49:6C:17:8F:39:C1:B2:25:C5:04
                DirName:/CN=team309-net
                serial:65:01:0D:D5:7A:6C:89:E9:CB:4B:AF:7C:07:C3:6E:61:B3:B0:D4:4F

            X509v3 Extended Key Usage: 
                TLS Web Server Authentication
            X509v3 Key Usage: 
                Digital Signature, Key Encipherment
            X509v3 Subject Alternative Name: 
                DNS:team309-server
    Signature Algorithm: sha256WithRSAEncryption
         a1:a7:13:10:81:c2:c5:69:39:11:3b:53:81:4a:59:0e:5c:29:
         18:55:b4:32:37:62:a0:11:dd:90:a2:ee:d8:98:7e:3c:95:f0:
         d0:f8:f6:66:56:6f:14:bd:b3:be:33:9f:c5:46:e8:70:9b:0b:
         4b:c6:b8:2c:8e:e4:47:e0:8f:f3:52:a3:57:cc:b5:1b:17:59:
         f5:59:dc:36:c6:4b:cd:cc:f3:ff:af:4f:63:c5:9d:58:a0:96:
         1b:4d:f0:3d:75:ad:8b:2d:c7:aa:91:8b:07:79:4a:54:88:a4:
         8d:dc:14:0b:06:f7:8a:06:6f:18:3f:f5:13:cc:00:82:a2:c6:
         27:fc:22:a2:59:82:33:5f:e3:6e:9c:3e:31:1b:47:e0:fc:a6:
         9e:0c:65:7b:fc:bd:85:0a:42:c8:e6:ac:14:84:8b:9a:94:71:
         b2:ef:aa:64:80:40:4e:68:c5:1f:87:00:be:a9:9a:62:c0:48:
         74:c0:f3:ff:35:5a:ac:8d:ae:97:21:88:db:ea:80:df:93:c1:
         53:2a:5d:7e:53:73:16:05:8c:24:27:52:3e:56:2f:88:4e:29:
         33:ea:68:a8:c3:71:fa:c1:5b:16:db:ae:dc:5b:90:17:93:e4:
         7e:b3:d1:a2:2d:80:b6:e1:df:eb:83:9a:89:79:26:5e:29:09:
         53:d8:a8:cf
-----BEGIN CERTIFICATE-----
MIIDeDCCAmCgAwIBAgIRANbcFrnftZq4BNgCrBVhDM0wDQYJKoZIhvcNAQELBQAw
FjEUMBIGA1UEAwwLdGVhbTMwOS1uZXQwHhcNMjEwOTEzMDEzMTQwWhcNMjQwODI4
MDEzMTQwWjAZMRcwFQYDVQQDDA50ZWFtMzA5LXNlcnZlcjCCASIwDQYJKoZIhvcN
AQEBBQADggEPADCCAQoCggEBALtuwx0UL+2YhEBvb7HN6BGuDclqAkO9TWRKcf8Y
iyr2WOb+H8BSdnUl3MYz/Mx1+cbjqX1l/yBHxszn2QYolG3AI1INqYyiqNttu1WE
woi1pUr9VR0BfAU9gNKgYxoevsO0dtUPOVgyr7xObwmNR+oen3JlSGd8Cf/Ap7II
3/LHi8umINistWv5cVcUKyVAnkQRRY4BCji8q3L5jnSU0+95Dkia/3+X7Dj3Huv9
XvPn4caW0BYcPsDz/Rfutp2rXchOWFTtWiI0WcBTS2/Zv1m5QtE/6tgd4vdpoldI
RW/ZcgJGkYLhbw73AjBfrjhDl2JT2g6f6wSf1yQLPcvniTsCAwEAAaOBvTCBujAJ
BgNVHRMEAjAAMB0GA1UdDgQWBBSg5brdbkczlatetIaQlaCmwNs5SjBRBgNVHSME
SjBIgBR9QjuAwQamhWhnSWwXjznBsiXFBKEapBgwFjEUMBIGA1UEAwwLdGVhbTMw
OS1uZXSCFGUBDdV6bInpy0uvfAfDbmGzsNRPMBMGA1UdJQQMMAoGCCsGAQUFBwMB
MAsGA1UdDwQEAwIFoDAZBgNVHREEEjAQgg50ZWFtMzA5LXNlcnZlcjANBgkqhkiG
9w0BAQsFAAOCAQEAoacTEIHCxWk5ETtTgUpZDlwpGFW0MjdioBHdkKLu2Jh+PJXw
0Pj2ZlZvFL2zvjOfxUbocJsLS8a4LI7kR+CP81KjV8y1GxdZ9VncNsZLzczz/69P
Y8WdWKCWG03wPXWtiy3HqpGLB3lKVIikjdwUCwb3igZvGD/1E8wAgqLGJ/wiolmC
M1/jbpw+MRtH4Pymngxle/y9hQpCyOasFISLmpRxsu+qZIBATmjFH4cAvqmaYsBI
dMDz/zVarI2ulyGI2+qA35PBUypdflNzFgWMJCdSPlYviE4pM+poqMNx+sFbFtuu
3FuQF5PkfrPRoi2AtuHf64OaiXkmXikJU9iozw==
-----END CERTIFICATE-----
