Certificate:
    Data:
        Version: 3 (0x2)
        Serial Number:
            3e:f8:be:01:c1:22:a0:7a:42:0e:38:a5:e8:8e:b0:59
        Signature Algorithm: sha256WithRSAEncryption
        Issuer: CN=team125-net
        Validity
            Not Before: Sep 12 23:50:10 2021 GMT
            Not After : Aug 27 23:50:10 2024 GMT
        Subject: CN=team125-server
        Subject Public Key Info:
            Public Key Algorithm: rsaEncryption
                RSA Public-Key: (2048 bit)
                Modulus:
                    00:be:80:81:4b:4e:cc:e4:59:2d:5d:7f:60:3e:37:
                    fc:98:d7:01:64:66:d4:78:da:7a:0e:e6:8d:ef:4a:
                    d1:7b:1b:13:3e:9f:93:7b:76:84:d4:49:a6:ec:af:
                    78:61:5d:1a:dd:1b:4e:97:21:f7:8e:d9:d2:98:38:
                    c6:16:70:47:c7:25:12:a1:7d:10:af:b9:2d:60:b2:
                    86:7d:a4:d5:a1:c2:e2:9f:ea:2a:ab:4b:45:56:d7:
                    47:e6:3f:d5:f4:c7:9f:54:bd:db:ab:c1:91:d9:cf:
                    1f:d9:ce:f6:a7:1a:d9:5b:56:ff:47:02:5e:01:96:
                    0b:dd:aa:2f:2a:3e:73:72:0d:a0:26:24:d9:82:8e:
                    9b:7f:ab:83:62:df:df:e1:6a:0c:a6:e2:94:2b:38:
                    c9:bd:9a:53:69:47:0c:62:07:3b:24:25:76:e8:9a:
                    a8:0f:11:02:91:01:2f:0c:b7:c2:33:39:b7:38:88:
                    bc:d3:33:d5:4e:80:90:7b:27:50:26:a9:0f:48:70:
                    ef:af:a3:d8:2e:4e:18:3c:6c:1d:fa:0f:91:18:e2:
                    b9:6c:a8:c2:ba:63:5f:71:09:8a:2c:88:f2:35:f0:
                    2d:f3:ff:e3:50:2f:43:6c:1b:f4:33:69:76:20:ea:
                    a5:5a:d9:58:ba:99:71:e7:4f:f1:ad:7d:cb:b2:8c:
                    8f:49
                Exponent: 65537 (0x10001)
        X509v3 extensions:
            X509v3 Basic Constraints: 
                CA:FALSE
            X509v3 Subject Key Identifier: 
                F0:ED:08:61:FB:B3:22:35:50:C1:7F:9D:80:D5:C6:B7:56:30:EE:24
            X509v3 Authority Key Identifier: 
                keyid:2C:CE:E2:82:85:CE:DD:3F:AB:5C:7A:AC:E7:3D:70:D7:7A:92:DB:5F
                DirName:/CN=team125-net
                serial:04:CE:EE:15:E8:4D:EB:66:98:82:E0:A5:5E:9A:C3:CB:6E:B5:8A:76

            X509v3 Extended Key Usage: 
                TLS Web Server Authentication
            X509v3 Key Usage: 
                Digital Signature, Key Encipherment
            X509v3 Subject Alternative Name: 
                DNS:team125-server
    Signature Algorithm: sha256WithRSAEncryption
         76:b5:30:9a:47:62:ce:9c:1d:95:ab:c9:e7:83:ee:13:49:dc:
         03:30:62:10:2d:2f:9a:de:67:7b:0c:2f:4d:7f:1c:e6:b8:70:
         2e:52:46:92:cb:a1:f2:e3:c0:a3:e2:7e:46:cf:93:fb:6c:ba:
         b2:fb:05:2a:48:c0:09:97:36:c6:bd:a9:e8:50:6c:87:8c:d9:
         f4:61:ed:61:b0:cc:ea:92:e0:41:1b:2f:e7:2d:9b:23:f4:43:
         40:b1:93:4b:50:31:9f:ee:3b:51:42:d7:98:c8:7c:86:11:d0:
         f8:3b:11:a8:12:4d:48:5a:91:de:4c:be:46:1c:5b:68:73:1c:
         e4:ec:19:34:d7:cb:56:bd:86:10:49:2f:7d:3a:4c:20:26:73:
         66:f6:4c:56:b9:06:19:11:54:7e:31:70:eb:1a:da:1a:c7:9c:
         e1:80:fc:d8:a5:ba:88:79:16:68:9a:cc:74:b3:c5:3e:e2:82:
         be:4e:ac:40:99:e4:59:9e:39:69:38:db:1d:95:00:81:07:30:
         fe:e6:25:e3:e7:b1:62:a2:0b:bd:67:c2:a5:3d:f5:67:d8:46:
         1d:23:53:dc:73:87:5a:8b:50:f7:ab:9b:86:40:00:a8:28:6a:
         d2:31:1e:a3:3d:da:63:c4:89:1f:5c:aa:89:16:50:4d:3e:d2:
         a5:1d:8e:84
-----BEGIN CERTIFICATE-----
MIIDdzCCAl+gAwIBAgIQPvi+AcEioHpCDjil6I6wWTANBgkqhkiG9w0BAQsFADAW
MRQwEgYDVQQDDAt0ZWFtMTI1LW5ldDAeFw0yMTA5MTIyMzUwMTBaFw0yNDA4Mjcy
MzUwMTBaMBkxFzAVBgNVBAMMDnRlYW0xMjUtc2VydmVyMIIBIjANBgkqhkiG9w0B
AQEFAAOCAQ8AMIIBCgKCAQEAvoCBS07M5FktXX9gPjf8mNcBZGbUeNp6DuaN70rR
exsTPp+Te3aE1Emm7K94YV0a3RtOlyH3jtnSmDjGFnBHxyUSoX0Qr7ktYLKGfaTV
ocLin+oqq0tFVtdH5j/V9MefVL3bq8GR2c8f2c72pxrZW1b/RwJeAZYL3aovKj5z
cg2gJiTZgo6bf6uDYt/f4WoMpuKUKzjJvZpTaUcMYgc7JCV26JqoDxECkQEvDLfC
Mzm3OIi80zPVToCQeydQJqkPSHDvr6PYLk4YPGwd+g+RGOK5bKjCumNfcQmKLIjy
NfAt8//jUC9DbBv0M2l2IOqlWtlYuplx50/xrX3LsoyPSQIDAQABo4G9MIG6MAkG
A1UdEwQCMAAwHQYDVR0OBBYEFPDtCGH7syI1UMF/nYDVxrdWMO4kMFEGA1UdIwRK
MEiAFCzO4oKFzt0/q1x6rOc9cNd6kttfoRqkGDAWMRQwEgYDVQQDDAt0ZWFtMTI1
LW5ldIIUBM7uFehN62aYguClXprDy261inYwEwYDVR0lBAwwCgYIKwYBBQUHAwEw
CwYDVR0PBAQDAgWgMBkGA1UdEQQSMBCCDnRlYW0xMjUtc2VydmVyMA0GCSqGSIb3
DQEBCwUAA4IBAQB2tTCaR2LOnB2Vq8nng+4TSdwDMGIQLS+a3md7DC9NfxzmuHAu
UkaSy6Hy48Cj4n5Gz5P7bLqy+wUqSMAJlzbGvanoUGyHjNn0Ye1hsMzqkuBBGy/n
LZsj9ENAsZNLUDGf7jtRQteYyHyGEdD4OxGoEk1IWpHeTL5GHFtocxzk7Bk018tW
vYYQSS99OkwgJnNm9kxWuQYZEVR+MXDrGtoax5zhgPzYpbqIeRZomsx0s8U+4oK+
TqxAmeRZnjlpONsdlQCBBzD+5iXj57Fiogu9Z8KlPfVn2EYdI1Pcc4dai1D3q5uG
QACoKGrSMR6jPdpjxIkfXKqJFlBNPtKlHY6E
-----END CERTIFICATE-----
