Certificate:
    Data:
        Version: 3 (0x2)
        Serial Number:
            c4:8a:2a:d9:94:db:de:c2:8e:bb:eb:6e:4f:7a:a3:84
        Signature Algorithm: sha256WithRSAEncryption
        Issuer: CN=team125-net
        Validity
            Not Before: Sep 12 23:50:10 2021 GMT
            Not After : Aug 27 23:50:10 2024 GMT
        Subject: CN=team125-client
        Subject Public Key Info:
            Public Key Algorithm: rsaEncryption
                RSA Public-Key: (2048 bit)
                Modulus:
                    00:c7:c4:41:d8:ba:bc:cf:33:76:87:78:85:61:96:
                    31:e3:33:73:31:86:e5:50:26:6b:e1:fe:28:05:ad:
                    37:f0:14:89:3b:18:7a:91:89:f3:44:89:18:9c:72:
                    9f:1d:8f:0d:01:af:54:50:cc:c1:f3:98:b7:9e:3a:
                    96:01:3f:c5:37:96:44:06:e5:70:7e:68:52:a4:71:
                    78:45:d3:c0:7c:82:13:cc:e4:d8:7c:e8:2c:24:cf:
                    62:8f:b9:93:f2:61:8d:e5:cf:c5:ca:e0:82:ca:85:
                    f5:af:aa:b3:b4:b2:69:bb:34:55:2a:97:6a:37:94:
                    7c:a5:9d:d7:f4:2b:87:8b:6a:a7:eb:9b:62:11:57:
                    4d:18:57:1b:71:06:1f:e9:b6:b6:5f:d8:7f:8f:6b:
                    58:c2:a1:bb:19:76:46:1b:a8:ce:c4:74:da:32:49:
                    8c:8e:8b:e2:48:b8:58:ba:d5:9b:d6:c5:3c:ce:de:
                    ff:0d:73:36:09:4f:80:20:d1:06:d0:4c:1b:10:45:
                    09:0e:3b:48:b9:d2:52:9b:f2:13:a3:69:f1:b2:d9:
                    54:c0:47:21:ed:f9:2c:d3:13:a3:fb:07:dd:0f:4e:
                    8f:1a:1d:93:39:fa:27:11:87:18:70:56:bb:d4:94:
                    78:74:f9:9f:c2:82:c3:a9:de:be:93:ee:c0:9a:b1:
                    67:6f
                Exponent: 65537 (0x10001)
        X509v3 extensions:
            X509v3 Basic Constraints: 
                CA:FALSE
            X509v3 Subject Key Identifier: 
                97:D1:48:C2:BE:4F:2E:D7:7F:25:C0:D1:E9:B0:30:7B:55:B6:8B:92
            X509v3 Authority Key Identifier: 
                keyid:2C:CE:E2:82:85:CE:DD:3F:AB:5C:7A:AC:E7:3D:70:D7:7A:92:DB:5F
                DirName:/CN=team125-net
                serial:04:CE:EE:15:E8:4D:EB:66:98:82:E0:A5:5E:9A:C3:CB:6E:B5:8A:76

            X509v3 Extended Key Usage: 
                TLS Web Client Authentication
            X509v3 Key Usage: 
                Digital Signature
    Signature Algorithm: sha256WithRSAEncryption
         83:6c:cd:ab:3e:38:4c:98:0e:63:c8:c0:a3:f1:c3:26:8a:7c:
         24:d9:46:ac:0f:97:49:24:c6:58:90:5a:de:af:a7:06:c4:ac:
         b4:90:66:81:80:bc:18:97:f0:af:31:4a:26:42:8f:95:a6:07:
         96:19:16:0e:5d:3c:83:51:b6:83:6e:af:bb:ab:f0:bb:ed:e9:
         b7:c1:14:5b:dd:59:33:57:43:06:3e:4d:d5:07:cc:1c:38:c2:
         45:41:61:3f:27:fb:5e:29:6d:4d:e7:6c:84:d4:36:62:5d:5a:
         ae:6b:80:ad:8f:bc:01:9e:48:dc:61:e5:c0:5e:81:bc:15:3e:
         92:d2:76:05:7b:e5:77:1b:86:1f:75:56:8d:82:9c:b7:45:54:
         12:be:31:f4:6d:30:2b:98:9c:df:11:ad:4f:85:30:e4:65:aa:
         c5:15:8e:13:09:c9:ef:13:7e:f3:0e:0e:a5:3d:05:58:1a:c5:
         9f:2b:33:06:0d:92:d8:6f:c7:57:f1:45:88:87:a7:96:46:4e:
         cf:cf:85:f6:6f:35:07:59:13:5f:07:4c:d6:61:a9:f8:dd:7b:
         62:9b:b3:3b:63:91:8e:60:72:3f:6f:9d:3b:61:13:da:d9:2e:
         53:13:38:4a:85:19:ee:0b:a7:1f:73:c8:3b:14:e7:69:d3:e7:
         71:eb:94:b3
-----BEGIN CERTIFICATE-----
MIIDXTCCAkWgAwIBAgIRAMSKKtmU297Cjrvrbk96o4QwDQYJKoZIhvcNAQELBQAw
FjEUMBIGA1UEAwwLdGVhbTEyNS1uZXQwHhcNMjEwOTEyMjM1MDEwWhcNMjQwODI3
MjM1MDEwWjAZMRcwFQYDVQQDDA50ZWFtMTI1LWNsaWVudDCCASIwDQYJKoZIhvcN
AQEBBQADggEPADCCAQoCggEBAMfEQdi6vM8zdod4hWGWMeMzczGG5VAma+H+KAWt
N/AUiTsYepGJ80SJGJxynx2PDQGvVFDMwfOYt546lgE/xTeWRAblcH5oUqRxeEXT
wHyCE8zk2HzoLCTPYo+5k/JhjeXPxcrggsqF9a+qs7Syabs0VSqXajeUfKWd1/Qr
h4tqp+ubYhFXTRhXG3EGH+m2tl/Yf49rWMKhuxl2RhuozsR02jJJjI6L4ki4WLrV
m9bFPM7e/w1zNglPgCDRBtBMGxBFCQ47SLnSUpvyE6Np8bLZVMBHIe35LNMTo/sH
3Q9Ojxodkzn6JxGHGHBWu9SUeHT5n8KCw6nevpPuwJqxZ28CAwEAAaOBojCBnzAJ
BgNVHRMEAjAAMB0GA1UdDgQWBBSX0UjCvk8u138lwNHpsDB7VbaLkjBRBgNVHSME
SjBIgBQszuKChc7dP6tceqznPXDXepLbX6EapBgwFjEUMBIGA1UEAwwLdGVhbTEy
NS1uZXSCFATO7hXoTetmmILgpV6aw8tutYp2MBMGA1UdJQQMMAoGCCsGAQUFBwMC
MAsGA1UdDwQEAwIHgDANBgkqhkiG9w0BAQsFAAOCAQEAg2zNqz44TJgOY8jAo/HD
Jop8JNlGrA+XSSTGWJBa3q+nBsSstJBmgYC8GJfwrzFKJkKPlaYHlhkWDl08g1G2
g26vu6vwu+3pt8EUW91ZM1dDBj5N1QfMHDjCRUFhPyf7XiltTedshNQ2Yl1armuA
rY+8AZ5I3GHlwF6BvBU+ktJ2BXvldxuGH3VWjYKct0VUEr4x9G0wK5ic3xGtT4Uw
5GWqxRWOEwnJ7xN+8w4OpT0FWBrFnyszBg2S2G/HV/FFiIenlkZOz8+F9m81B1kT
XwdM1mGp+N17YpuzO2ORjmByP2+dO2ET2tkuUxM4SoUZ7gunH3PIOxTnadPnceuU
sw==
-----END CERTIFICATE-----
