Certificate:
    Data:
        Version: 3 (0x2)
        Serial Number:
            15:98:40:e3:b9:b4:a3:3a:e6:0a:f8:26:a3:64:b6:69
        Signature Algorithm: sha256WithRSAEncryption
        Issuer: CN=team87-net
        Validity
            Not Before: Sep 12 23:28:11 2021 GMT
            Not After : Aug 27 23:28:11 2024 GMT
        Subject: CN=team87-server
        Subject Public Key Info:
            Public Key Algorithm: rsaEncryption
                RSA Public-Key: (2048 bit)
                Modulus:
                    00:b9:a1:04:6e:83:40:12:ae:01:e6:51:b7:31:d9:
                    a0:30:44:b9:82:7f:73:82:22:78:79:7d:e7:2f:a2:
                    19:a2:c0:62:4f:0b:78:dd:51:17:4b:51:2d:41:3c:
                    4a:36:7a:3a:d9:2c:f9:00:29:42:ee:43:0b:d9:a5:
                    89:c7:dd:d8:00:a9:2a:3b:e9:53:8b:c5:a5:f0:96:
                    df:ef:19:c7:b5:47:61:38:2f:ce:04:92:52:0f:10:
                    20:3e:eb:f4:7e:34:b8:29:d4:54:2c:8f:ed:41:5c:
                    3a:96:9b:48:86:ad:07:75:d7:9b:29:d5:f9:99:f3:
                    7d:eb:b5:52:87:68:06:00:3d:58:0a:39:eb:fa:f7:
                    4b:f5:9d:15:95:bf:f0:71:3f:03:34:cb:b4:e2:84:
                    df:16:89:c8:1f:a2:cc:6f:09:c7:43:8e:0c:a5:a6:
                    85:f0:d6:ce:bd:b0:ff:6a:77:71:d3:00:94:f7:3f:
                    16:1d:2c:7c:a2:90:3a:b7:14:4f:94:02:77:af:32:
                    34:ec:7b:5d:47:db:d2:6d:72:c9:a7:c3:e9:f8:c9:
                    52:c6:89:30:da:02:07:03:2b:f9:42:51:6a:12:62:
                    d4:94:b9:f6:b2:b8:50:ff:91:24:92:d6:18:fd:b5:
                    22:35:6c:87:b2:3b:fb:6b:f2:13:ee:dc:4a:44:45:
                    ee:75
                Exponent: 65537 (0x10001)
        X509v3 extensions:
            X509v3 Basic Constraints: 
                CA:FALSE
            X509v3 Subject Key Identifier: 
                2F:C7:BF:0C:2F:8A:77:9B:55:62:FC:05:EF:A0:F6:AD:89:13:06:98
            X509v3 Authority Key Identifier: 
                keyid:84:D7:56:74:BD:75:89:84:AF:56:06:D9:BB:8F:98:3B:89:66:CF:CE
                DirName:/CN=team87-net
                serial:76:E0:BE:E3:66:CC:AC:BC:6F:E6:8C:DC:72:86:04:A5:EA:6A:B3:CD

            X509v3 Extended Key Usage: 
                TLS Web Server Authentication
            X509v3 Key Usage: 
                Digital Signature, Key Encipherment
            X509v3 Subject Alternative Name: 
                DNS:team87-server
    Signature Algorithm: sha256WithRSAEncryption
         76:68:fb:2e:88:b1:ce:d5:5e:b0:3a:72:8a:89:89:3f:d9:b3:
         95:9c:de:9c:c1:1b:99:d4:95:2e:8e:3c:b6:61:21:a7:dd:92:
         81:89:fe:4d:45:38:4b:79:cc:a9:9f:90:5b:20:f3:05:69:09:
         3e:e3:d8:e7:83:a2:c5:d7:53:44:6e:c1:d3:0c:dc:6a:e9:75:
         ca:76:55:3a:0b:84:5b:23:85:82:95:b3:2d:77:46:49:2c:fa:
         9c:8f:ed:24:5d:ec:5a:0a:dd:3f:3d:ad:5b:5b:ce:55:8d:56:
         12:1b:ce:65:5c:64:98:88:92:d6:10:12:60:d8:b2:11:71:22:
         72:19:f6:85:9a:3e:2b:3d:d7:1c:00:3a:79:8c:ff:1b:78:e3:
         60:36:74:1c:37:b4:0e:9d:b6:09:fa:4e:33:71:8c:5b:40:83:
         02:26:a7:63:72:e2:34:23:02:5c:f5:6b:70:87:c0:5d:16:d9:
         76:fc:20:a3:bb:7e:1f:43:a8:69:33:43:bf:b1:59:51:eb:b1:
         7c:84:b2:29:27:7a:51:7e:b3:a4:5a:eb:b5:8e:8a:b7:02:70:
         4a:0b:90:3c:d2:b2:ae:62:bc:91:9e:7b:9e:e0:70:37:ad:59:
         88:d7:84:cc:c9:03:8e:9e:4a:6a:d4:4d:17:05:d1:8c:24:1a:
         41:56:3a:e9
-----BEGIN CERTIFICATE-----
MIIDczCCAlugAwIBAgIQFZhA47m0ozrmCvgmo2S2aTANBgkqhkiG9w0BAQsFADAV
MRMwEQYDVQQDDAp0ZWFtODctbmV0MB4XDTIxMDkxMjIzMjgxMVoXDTI0MDgyNzIz
MjgxMVowGDEWMBQGA1UEAwwNdGVhbTg3LXNlcnZlcjCCASIwDQYJKoZIhvcNAQEB
BQADggEPADCCAQoCggEBALmhBG6DQBKuAeZRtzHZoDBEuYJ/c4IieHl95y+iGaLA
Yk8LeN1RF0tRLUE8SjZ6Otks+QApQu5DC9mlicfd2ACpKjvpU4vFpfCW3+8Zx7VH
YTgvzgSSUg8QID7r9H40uCnUVCyP7UFcOpabSIatB3XXmynV+Znzfeu1UodoBgA9
WAo56/r3S/WdFZW/8HE/AzTLtOKE3xaJyB+izG8Jx0OODKWmhfDWzr2w/2p3cdMA
lPc/Fh0sfKKQOrcUT5QCd68yNOx7XUfb0m1yyafD6fjJUsaJMNoCBwMr+UJRahJi
1JS59rK4UP+RJJLWGP21IjVsh7I7+2vyE+7cSkRF7nUCAwEAAaOBuzCBuDAJBgNV
HRMEAjAAMB0GA1UdDgQWBBQvx78ML4p3m1Vi/AXvoPatiRMGmDBQBgNVHSMESTBH
gBSE11Z0vXWJhK9WBtm7j5g7iWbPzqEZpBcwFTETMBEGA1UEAwwKdGVhbTg3LW5l
dIIUduC+42bMrLxv5ozccoYEpepqs80wEwYDVR0lBAwwCgYIKwYBBQUHAwEwCwYD
VR0PBAQDAgWgMBgGA1UdEQQRMA+CDXRlYW04Ny1zZXJ2ZXIwDQYJKoZIhvcNAQEL
BQADggEBAHZo+y6Isc7VXrA6coqJiT/Zs5Wc3pzBG5nUlS6OPLZhIafdkoGJ/k1F
OEt5zKmfkFsg8wVpCT7j2OeDosXXU0RuwdMM3Grpdcp2VToLhFsjhYKVsy13Rkks
+pyP7SRd7FoK3T89rVtbzlWNVhIbzmVcZJiIktYQEmDYshFxInIZ9oWaPis91xwA
OnmM/xt442A2dBw3tA6dtgn6TjNxjFtAgwImp2Ny4jQjAlz1a3CHwF0W2Xb8IKO7
fh9DqGkzQ7+xWVHrsXyEsiknelF+s6Ra67WOircCcEoLkDzSsq5ivJGee57gcDet
WYjXhMzJA46eSmrUTRcF0YwkGkFWOuk=
-----END CERTIFICATE-----
