Certificate:
    Data:
        Version: 3 (0x2)
        Serial Number:
            b9:fc:15:b9:b4:16:20:04:e7:85:85:6b:9d:bf:76:75
        Signature Algorithm: sha256WithRSAEncryption
        Issuer: CN=team228-net
        Validity
            Not Before: Sep 13 00:51:36 2021 GMT
            Not After : Aug 28 00:51:36 2024 GMT
        Subject: CN=team228-client
        Subject Public Key Info:
            Public Key Algorithm: rsaEncryption
                RSA Public-Key: (2048 bit)
                Modulus:
                    00:c1:e8:26:07:74:1d:61:4f:ab:4e:77:58:b1:69:
                    bc:70:e1:52:eb:29:cc:f4:b8:0d:d2:bb:de:1e:94:
                    3f:0c:6a:be:ab:69:84:ec:39:e8:e6:88:65:b5:88:
                    39:52:f4:b3:c7:8b:60:50:23:2e:9b:28:9e:da:bb:
                    3b:c7:92:35:df:8b:af:c9:c2:0f:47:23:b5:9c:fe:
                    1d:dc:cd:e1:72:5b:38:0f:67:40:cf:94:94:c0:09:
                    8a:a5:41:d4:d6:95:29:1f:ec:5b:9d:23:13:a6:38:
                    c7:9f:68:54:bd:40:c0:3a:7e:94:11:80:6d:52:89:
                    8c:4b:e5:51:3a:fd:48:cd:11:93:b3:85:db:55:c8:
                    e6:88:a8:42:c0:bd:c8:0a:43:c9:92:8f:65:b4:77:
                    f3:46:67:45:3c:25:c8:7c:40:d9:c2:2a:fd:3e:76:
                    d1:1a:f8:0a:3e:2f:17:c0:40:ad:1e:62:ef:a3:de:
                    a4:b0:ea:7f:7e:1e:81:d7:91:fb:d4:b1:0f:8b:72:
                    fe:3d:a8:8f:20:38:11:26:ff:76:76:cb:ce:65:fb:
                    72:ce:ad:be:5c:35:64:72:ea:82:3d:99:78:59:2f:
                    70:67:c1:b5:cd:8c:d8:6e:6e:1f:93:2e:a0:e8:56:
                    c9:04:fa:cc:fb:ec:23:b4:8c:30:e3:85:d1:1c:ef:
                    8a:75
                Exponent: 65537 (0x10001)
        X509v3 extensions:
            X509v3 Basic Constraints: 
                CA:FALSE
            X509v3 Subject Key Identifier: 
                D7:5F:AC:40:57:A2:6D:1E:53:68:CC:E5:35:7D:68:FA:18:B9:76:B4
            X509v3 Authority Key Identifier: 
                keyid:D3:A6:63:9A:05:24:8A:33:27:84:8B:E9:66:0C:79:D1:AE:A5:60:CF
                DirName:/CN=team228-net
                serial:38:1A:F6:2E:7D:99:C4:DE:45:24:18:5F:59:4E:25:A3:C6:71:E2:A3

            X509v3 Extended Key Usage: 
                TLS Web Client Authentication
            X509v3 Key Usage: 
                Digital Signature
    Signature Algorithm: sha256WithRSAEncryption
         df:16:88:09:4e:68:9a:31:8a:51:78:cb:75:77:a6:b8:92:f5:
         5f:f2:b1:9a:97:e4:60:88:d5:18:22:e6:cf:b2:1f:7b:34:a9:
         fb:9e:6f:c4:c5:23:86:23:0d:9e:4d:db:60:7f:a3:5b:43:50:
         1e:85:d6:21:b9:ca:87:bb:8e:7c:8b:39:98:61:0d:9e:b7:cf:
         44:ae:07:50:f8:1d:76:cd:e4:3d:5c:c2:48:e2:9d:66:4b:3d:
         b9:1c:34:53:c4:13:9d:bb:f6:28:02:26:92:30:e1:30:90:46:
         d1:9d:ac:c5:3d:0d:34:90:cf:76:7d:b5:07:a6:8f:74:bd:94:
         31:82:57:65:98:54:fd:46:31:0f:ff:80:17:2f:cc:c7:72:d9:
         f3:e2:a9:5d:a7:ef:1b:41:86:32:e8:e8:83:a6:4d:f1:b0:86:
         de:80:92:fc:dc:88:60:30:23:42:a7:4d:d6:e9:d7:87:49:73:
         51:f9:97:ea:9e:57:47:92:ec:18:a2:7b:a0:eb:8f:02:4c:f7:
         06:f7:fb:77:12:86:b8:1f:f3:5b:7f:3f:9a:35:67:da:62:6b:
         e3:1e:30:06:76:e6:5d:6d:0f:fc:81:b2:ee:b5:c7:77:fb:d0:
         16:4b:d3:0d:7e:73:b5:e9:dd:78:61:7b:d7:26:47:02:ae:ad:
         14:a8:0f:e7
-----BEGIN CERTIFICATE-----
MIIDXTCCAkWgAwIBAgIRALn8Fbm0FiAE54WFa52/dnUwDQYJKoZIhvcNAQELBQAw
FjEUMBIGA1UEAwwLdGVhbTIyOC1uZXQwHhcNMjEwOTEzMDA1MTM2WhcNMjQwODI4
MDA1MTM2WjAZMRcwFQYDVQQDDA50ZWFtMjI4LWNsaWVudDCCASIwDQYJKoZIhvcN
AQEBBQADggEPADCCAQoCggEBAMHoJgd0HWFPq053WLFpvHDhUuspzPS4DdK73h6U
PwxqvqtphOw56OaIZbWIOVL0s8eLYFAjLpsontq7O8eSNd+Lr8nCD0cjtZz+HdzN
4XJbOA9nQM+UlMAJiqVB1NaVKR/sW50jE6Y4x59oVL1AwDp+lBGAbVKJjEvlUTr9
SM0Rk7OF21XI5oioQsC9yApDyZKPZbR380ZnRTwlyHxA2cIq/T520Rr4Cj4vF8BA
rR5i76PepLDqf34egdeR+9SxD4ty/j2ojyA4ESb/dnbLzmX7cs6tvlw1ZHLqgj2Z
eFkvcGfBtc2M2G5uH5MuoOhWyQT6zPvsI7SMMOOF0RzvinUCAwEAAaOBojCBnzAJ
BgNVHRMEAjAAMB0GA1UdDgQWBBTXX6xAV6JtHlNozOU1fWj6GLl2tDBRBgNVHSME
SjBIgBTTpmOaBSSKMyeEi+lmDHnRrqVgz6EapBgwFjEUMBIGA1UEAwwLdGVhbTIy
OC1uZXSCFDga9i59mcTeRSQYX1lOJaPGceKjMBMGA1UdJQQMMAoGCCsGAQUFBwMC
MAsGA1UdDwQEAwIHgDANBgkqhkiG9w0BAQsFAAOCAQEA3xaICU5omjGKUXjLdXem
uJL1X/KxmpfkYIjVGCLmz7IfezSp+55vxMUjhiMNnk3bYH+jW0NQHoXWIbnKh7uO
fIs5mGENnrfPRK4HUPgdds3kPVzCSOKdZks9uRw0U8QTnbv2KAImkjDhMJBG0Z2s
xT0NNJDPdn21B6aPdL2UMYJXZZhU/UYxD/+AFy/Mx3LZ8+KpXafvG0GGMujog6ZN
8bCG3oCS/NyIYDAjQqdN1unXh0lzUfmX6p5XR5LsGKJ7oOuPAkz3Bvf7dxKGuB/z
W38/mjVn2mJr4x4wBnbmXW0P/IGy7rXHd/vQFkvTDX5ztendeGF71yZHAq6tFKgP
5w==
-----END CERTIFICATE-----
