Certificate:
    Data:
        Version: 3 (0x2)
        Serial Number:
            18:98:a6:b9:7f:95:ec:f1:1f:74:f9:1f:44:5b:b0:1a
        Signature Algorithm: sha256WithRSAEncryption
        Issuer: CN=team625-net
        Validity
            Not Before: Sep 13 04:37:07 2021 GMT
            Not After : Aug 28 04:37:07 2024 GMT
        Subject: CN=team625-server
        Subject Public Key Info:
            Public Key Algorithm: rsaEncryption
                RSA Public-Key: (2048 bit)
                Modulus:
                    00:c9:52:99:22:48:44:6f:55:64:0f:06:c5:ac:d3:
                    7f:a6:23:d0:39:4b:de:0e:55:ab:56:34:c4:33:2b:
                    fb:63:94:c9:aa:98:d0:d2:62:80:f0:65:b2:8e:58:
                    44:4a:28:89:65:e1:30:95:f5:6b:ed:c7:b6:d3:c2:
                    4d:f8:ff:dc:07:20:be:e6:d6:96:8b:bc:0f:e6:63:
                    47:45:d1:13:b9:ba:1e:89:56:c1:ed:57:6d:99:60:
                    6f:db:71:c1:e4:c7:05:9f:dd:b9:2d:ed:96:71:da:
                    48:c0:9a:04:85:2e:42:56:f2:83:c1:02:b5:63:40:
                    9c:d6:8c:cc:7f:b6:bd:02:ad:96:d2:1b:10:5d:51:
                    73:2a:99:88:79:e7:61:15:27:14:9d:61:71:af:4b:
                    37:86:86:51:0e:d9:40:e9:22:2f:93:8a:b6:ee:b6:
                    ad:8a:45:23:20:b2:1a:3b:c2:fb:09:aa:38:d9:a1:
                    b0:43:c0:24:c5:ae:3f:8e:9d:bc:03:43:bd:13:9d:
                    62:b1:be:43:2a:d0:e1:db:07:79:a7:49:d6:49:cd:
                    67:ea:5c:f6:60:5b:18:19:a4:08:14:17:72:7d:ab:
                    9f:fb:28:90:1c:72:f9:76:99:5c:be:9c:22:16:b1:
                    63:64:5c:c3:99:ec:a9:30:3b:b0:99:8f:34:f4:0e:
                    b9:e1
                Exponent: 65537 (0x10001)
        X509v3 extensions:
            X509v3 Basic Constraints: 
                CA:FALSE
            X509v3 Subject Key Identifier: 
                97:41:7A:CF:A6:00:20:8C:31:15:4E:D4:8A:13:95:9E:F0:8E:70:0D
            X509v3 Authority Key Identifier: 
                keyid:B0:36:56:93:6B:DF:2F:86:BF:C1:8B:2B:9F:23:CB:74:7F:FC:B8:9F
                DirName:/CN=team625-net
                serial:38:26:59:97:DE:58:EA:B5:E2:FE:86:A9:35:9D:9B:BD:38:A6:09:FC

            X509v3 Extended Key Usage: 
                TLS Web Server Authentication
            X509v3 Key Usage: 
                Digital Signature, Key Encipherment
            X509v3 Subject Alternative Name: 
                DNS:team625-server
    Signature Algorithm: sha256WithRSAEncryption
         b0:f2:8f:b5:72:a3:fe:9c:8b:26:82:a2:dc:f4:3d:46:24:f2:
         55:21:f7:15:59:19:f9:1d:ed:04:71:49:b2:14:ae:a0:f9:9d:
         b1:43:b7:03:93:a6:7c:1d:ac:2e:c5:6f:2d:76:60:7a:b9:72:
         cc:9c:66:57:71:1a:ca:2e:b8:bc:38:93:53:36:20:3d:53:50:
         16:fb:1a:5a:02:37:c8:5d:02:b7:08:e6:ac:82:84:00:29:18:
         b5:5a:e1:20:93:5b:d4:08:cc:4d:22:0b:d6:1b:c3:3a:0d:bd:
         0f:18:d7:19:fc:49:0c:98:a8:f2:ca:72:36:05:7e:ec:f0:f0:
         8d:f6:09:e9:2c:b2:95:d7:e1:f7:42:97:b0:39:8a:fb:a1:fc:
         3d:53:d4:b3:9b:c6:bf:27:f1:2e:3d:f3:c6:8b:f2:9d:73:21:
         eb:78:88:92:a7:6c:a5:65:16:f0:18:e2:76:6b:89:ef:02:71:
         e8:ca:99:7d:93:37:5d:1c:90:5e:42:b1:fe:1a:03:39:7f:a3:
         64:c8:c4:4c:01:30:06:9d:74:57:d5:2f:af:8d:f2:71:be:0b:
         81:33:68:25:08:e7:2c:6a:22:33:79:78:54:d4:38:11:33:e4:
         14:27:89:ee:ff:bb:4e:12:1a:df:c0:24:f0:01:27:9d:14:b6:
         4e:c8:03:32
-----BEGIN CERTIFICATE-----
MIIDdzCCAl+gAwIBAgIQGJimuX+V7PEfdPkfRFuwGjANBgkqhkiG9w0BAQsFADAW
MRQwEgYDVQQDDAt0ZWFtNjI1LW5ldDAeFw0yMTA5MTMwNDM3MDdaFw0yNDA4Mjgw
NDM3MDdaMBkxFzAVBgNVBAMMDnRlYW02MjUtc2VydmVyMIIBIjANBgkqhkiG9w0B
AQEFAAOCAQ8AMIIBCgKCAQEAyVKZIkhEb1VkDwbFrNN/piPQOUveDlWrVjTEMyv7
Y5TJqpjQ0mKA8GWyjlhESiiJZeEwlfVr7ce208JN+P/cByC+5taWi7wP5mNHRdET
uboeiVbB7VdtmWBv23HB5McFn925Le2WcdpIwJoEhS5CVvKDwQK1Y0Cc1ozMf7a9
Aq2W0hsQXVFzKpmIeedhFScUnWFxr0s3hoZRDtlA6SIvk4q27ratikUjILIaO8L7
Cao42aGwQ8Akxa4/jp28A0O9E51isb5DKtDh2wd5p0nWSc1n6lz2YFsYGaQIFBdy
fauf+yiQHHL5dplcvpwiFrFjZFzDmeypMDuwmY809A654QIDAQABo4G9MIG6MAkG
A1UdEwQCMAAwHQYDVR0OBBYEFJdBes+mACCMMRVO1IoTlZ7wjnANMFEGA1UdIwRK
MEiAFLA2VpNr3y+Gv8GLK58jy3R//LifoRqkGDAWMRQwEgYDVQQDDAt0ZWFtNjI1
LW5ldIIUOCZZl95Y6rXi/oapNZ2bvTimCfwwEwYDVR0lBAwwCgYIKwYBBQUHAwEw
CwYDVR0PBAQDAgWgMBkGA1UdEQQSMBCCDnRlYW02MjUtc2VydmVyMA0GCSqGSIb3
DQEBCwUAA4IBAQCw8o+1cqP+nIsmgqLc9D1GJPJVIfcVWRn5He0EcUmyFK6g+Z2x
Q7cDk6Z8HawuxW8tdmB6uXLMnGZXcRrKLri8OJNTNiA9U1AW+xpaAjfIXQK3COas
goQAKRi1WuEgk1vUCMxNIgvWG8M6Db0PGNcZ/EkMmKjyynI2BX7s8PCN9gnpLLKV
1+H3QpewOYr7ofw9U9Szm8a/J/EuPfPGi/KdcyHreIiSp2ylZRbwGOJ2a4nvAnHo
ypl9kzddHJBeQrH+GgM5f6NkyMRMATAGnXRX1S+vjfJxvguBM2glCOcsaiIzeXhU
1DgRM+QUJ4nu/7tOEhrfwCTwASedFLZOyAMy
-----END CERTIFICATE-----
