Certificate:
    Data:
        Version: 3 (0x2)
        Serial Number:
            cc:a0:f7:d3:2d:2f:0f:a8:f7:e8:3e:17:5a:30:3e:9a
        Signature Algorithm: sha256WithRSAEncryption
        Issuer: CN=team383-net
        Validity
            Not Before: Sep 13 02:14:03 2021 GMT
            Not After : Aug 28 02:14:03 2024 GMT
        Subject: CN=team383-server
        Subject Public Key Info:
            Public Key Algorithm: rsaEncryption
                RSA Public-Key: (2048 bit)
                Modulus:
                    00:e5:4b:4e:97:2b:fb:a4:88:59:09:f1:ea:02:c7:
                    cd:82:3f:a0:2b:9f:53:66:ce:f2:ac:17:4a:a8:7b:
                    5d:b7:54:0c:b6:2e:d2:08:47:bb:7c:a0:73:28:a3:
                    96:c0:b0:2c:98:e6:40:7d:43:81:c9:40:dd:95:52:
                    63:3a:76:ef:da:16:51:21:72:07:0d:5e:81:aa:58:
                    3b:47:51:11:d3:56:a3:92:c3:24:62:82:28:7e:49:
                    84:86:0d:cd:a8:d1:64:2f:d9:34:2a:93:c9:e0:ab:
                    0c:c7:2f:b9:49:39:27:62:9b:67:d7:29:2d:98:8d:
                    4a:a4:7a:de:89:22:f2:a5:b2:4b:51:94:28:b2:9b:
                    2e:a7:01:95:4a:41:26:8a:0e:2e:a4:b3:4b:a4:1f:
                    93:9b:ab:49:88:13:a2:b1:cc:cf:a3:9d:81:e6:23:
                    b0:71:fa:ee:96:7b:e5:cc:e1:12:4d:b4:74:3c:cd:
                    ca:fd:28:1f:cf:cc:14:fe:8b:e1:42:72:89:59:db:
                    51:e9:af:48:b1:2b:02:39:38:75:95:18:dd:39:84:
                    9c:4b:6d:f8:c4:0e:0f:ec:ec:df:85:ff:f9:51:2c:
                    5f:21:b6:e8:da:d6:7d:98:0e:e1:5e:dc:9b:b2:b1:
                    2e:38:f1:d1:6c:a5:ea:01:ad:10:22:e6:0e:cb:f9:
                    1f:ef
                Exponent: 65537 (0x10001)
        X509v3 extensions:
            X509v3 Basic Constraints: 
                CA:FALSE
            X509v3 Subject Key Identifier: 
                75:B8:9F:FB:0B:60:B1:B2:E5:A7:BF:76:31:D7:E4:EE:43:DF:D8:44
            X509v3 Authority Key Identifier: 
                keyid:E5:88:1A:9F:20:F6:CC:56:96:04:59:87:01:BA:17:88:D5:36:CE:EE
                DirName:/CN=team383-net
                serial:4B:04:D8:D3:67:41:DA:EB:09:87:25:83:E4:43:89:34:BA:92:6F:CC

            X509v3 Extended Key Usage: 
                TLS Web Server Authentication
            X509v3 Key Usage: 
                Digital Signature, Key Encipherment
            X509v3 Subject Alternative Name: 
                DNS:team383-server
    Signature Algorithm: sha256WithRSAEncryption
         39:64:69:a6:87:30:3b:83:10:c1:a2:72:d9:26:4e:6f:8b:ae:
         1a:ab:dc:cd:72:1b:5b:b7:3b:0e:82:c6:30:3b:24:15:ab:b2:
         8e:a1:6a:05:3b:7f:d1:9d:4b:c5:df:32:04:c0:77:f6:3d:22:
         fe:cf:02:28:ef:6f:97:6a:0d:95:dd:b3:98:96:df:4e:3b:ae:
         b9:57:79:8b:33:b6:34:6c:f6:64:f9:41:85:06:f6:6f:78:80:
         c6:7b:2b:4c:49:df:b6:e2:b8:52:dc:d5:46:75:d5:1e:29:97:
         69:b8:c6:f6:87:93:e5:11:db:f6:84:d3:d7:35:7c:47:69:6e:
         0f:dc:bb:49:9d:5a:5f:8c:70:57:08:eb:0e:5e:71:2e:50:e1:
         dd:64:cd:ac:e7:b8:86:85:55:1d:09:96:57:5d:9a:4e:81:5d:
         76:45:10:52:d8:83:20:12:7b:6a:84:b1:24:ce:d3:03:6e:eb:
         4c:02:a0:10:7e:15:eb:7b:50:03:dc:62:d4:d4:a4:31:4d:7a:
         be:9c:50:a4:c0:50:bc:01:cd:08:7d:96:d9:b0:24:29:3b:5e:
         e3:87:bd:ad:c4:1f:2d:2b:26:1b:08:ea:83:f3:0e:7e:50:0b:
         2d:cf:c0:9f:c2:26:fe:5b:91:0f:af:49:ac:f2:92:cc:ff:73:
         67:89:4e:62
-----BEGIN CERTIFICATE-----
MIIDeDCCAmCgAwIBAgIRAMyg99MtLw+o9+g+F1owPpowDQYJKoZIhvcNAQELBQAw
FjEUMBIGA1UEAwwLdGVhbTM4My1uZXQwHhcNMjEwOTEzMDIxNDAzWhcNMjQwODI4
MDIxNDAzWjAZMRcwFQYDVQQDDA50ZWFtMzgzLXNlcnZlcjCCASIwDQYJKoZIhvcN
AQEBBQADggEPADCCAQoCggEBAOVLTpcr+6SIWQnx6gLHzYI/oCufU2bO8qwXSqh7
XbdUDLYu0ghHu3ygcyijlsCwLJjmQH1DgclA3ZVSYzp279oWUSFyBw1egapYO0dR
EdNWo5LDJGKCKH5JhIYNzajRZC/ZNCqTyeCrDMcvuUk5J2KbZ9cpLZiNSqR63oki
8qWyS1GUKLKbLqcBlUpBJooOLqSzS6Qfk5urSYgTorHMz6OdgeYjsHH67pZ75czh
Ek20dDzNyv0oH8/MFP6L4UJyiVnbUemvSLErAjk4dZUY3TmEnEtt+MQOD+zs34X/
+VEsXyG26NrWfZgO4V7cm7KxLjjx0Wyl6gGtECLmDsv5H+8CAwEAAaOBvTCBujAJ
BgNVHRMEAjAAMB0GA1UdDgQWBBR1uJ/7C2CxsuWnv3Yx1+TuQ9/YRDBRBgNVHSME
SjBIgBTliBqfIPbMVpYEWYcBuheI1TbO7qEapBgwFjEUMBIGA1UEAwwLdGVhbTM4
My1uZXSCFEsE2NNnQdrrCYclg+RDiTS6km/MMBMGA1UdJQQMMAoGCCsGAQUFBwMB
MAsGA1UdDwQEAwIFoDAZBgNVHREEEjAQgg50ZWFtMzgzLXNlcnZlcjANBgkqhkiG
9w0BAQsFAAOCAQEAOWRppocwO4MQwaJy2SZOb4uuGqvczXIbW7c7DoLGMDskFauy
jqFqBTt/0Z1Lxd8yBMB39j0i/s8CKO9vl2oNld2zmJbfTjuuuVd5izO2NGz2ZPlB
hQb2b3iAxnsrTEnftuK4UtzVRnXVHimXabjG9oeT5RHb9oTT1zV8R2luD9y7SZ1a
X4xwVwjrDl5xLlDh3WTNrOe4hoVVHQmWV12aToFddkUQUtiDIBJ7aoSxJM7TA27r
TAKgEH4V63tQA9xi1NSkMU16vpxQpMBQvAHNCH2W2bAkKTte44e9rcQfLSsmGwjq
g/MOflALLc/An8Im/luRD69JrPKSzP9zZ4lOYg==
-----END CERTIFICATE-----
