Certificate:
    Data:
        Version: 3 (0x2)
        Serial Number:
            b1:30:e5:38:c5:13:a5:71:d3:ad:e5:ae:80:fc:26:2c
        Signature Algorithm: sha256WithRSAEncryption
        Issuer: CN=team58-net
        Validity
            Not Before: Sep 12 23:14:55 2021 GMT
            Not After : Aug 27 23:14:55 2024 GMT
        Subject: CN=team58-server
        Subject Public Key Info:
            Public Key Algorithm: rsaEncryption
                RSA Public-Key: (2048 bit)
                Modulus:
                    00:bb:02:1e:54:27:5d:3a:d4:e7:ad:4a:5f:21:30:
                    d0:95:63:5c:d8:a0:54:e2:31:73:41:56:06:ee:b7:
                    34:a9:d7:d9:55:9f:2d:40:d3:0b:21:e5:59:48:94:
                    18:3f:0f:29:f7:82:22:c5:32:8b:31:dd:9d:df:4f:
                    c3:ed:d6:88:fc:c3:28:6f:3c:3a:9a:40:a0:1b:4d:
                    de:b8:3d:04:4a:1d:9e:7a:05:0a:e1:54:ae:ea:90:
                    9b:5e:72:80:60:3b:ed:ab:92:2d:3d:0a:de:22:ef:
                    ed:59:9c:0e:9e:9e:61:06:85:a8:e5:da:d0:be:49:
                    ac:c7:4b:c0:12:03:36:8b:01:df:a8:91:cd:a9:52:
                    dc:89:57:a1:84:d5:4b:91:b0:af:16:3a:f3:41:8b:
                    bf:07:ff:ee:89:89:fd:d3:69:b1:93:dc:53:fe:09:
                    df:9c:60:b9:1f:a5:bd:0e:08:3f:dd:8d:68:fb:f6:
                    1e:c6:f9:f9:8f:16:be:2a:cb:58:6e:4c:56:b7:2b:
                    60:ec:d8:75:54:b3:98:c7:08:4a:e9:0a:57:f5:dd:
                    f9:6e:14:a6:23:09:68:8b:9e:61:dc:b6:d4:43:c2:
                    e2:fd:4f:32:36:85:ea:78:54:8b:6c:73:d6:c4:99:
                    ef:c7:a7:a8:41:1f:ac:5b:1b:8a:0f:54:db:cf:d2:
                    94:c7
                Exponent: 65537 (0x10001)
        X509v3 extensions:
            X509v3 Basic Constraints: 
                CA:FALSE
            X509v3 Subject Key Identifier: 
                A6:64:4F:5E:D1:81:A8:F0:4C:3F:83:B6:F1:24:3F:D7:1B:FA:E5:E1
            X509v3 Authority Key Identifier: 
                keyid:5C:9A:D2:E3:7E:00:DA:1B:78:5A:AC:29:7C:CD:AD:53:DD:3C:E0:87
                DirName:/CN=team58-net
                serial:42:8A:16:C9:42:C7:FB:7E:35:56:E3:E9:A4:66:6D:F3:36:B4:F8:90

            X509v3 Extended Key Usage: 
                TLS Web Server Authentication
            X509v3 Key Usage: 
                Digital Signature, Key Encipherment
            X509v3 Subject Alternative Name: 
                DNS:team58-server
    Signature Algorithm: sha256WithRSAEncryption
         76:e6:5f:7c:5d:50:7e:17:29:8f:6f:38:ed:f3:e1:47:9f:1d:
         c4:9f:f1:9c:8d:dc:02:7b:cb:f6:bb:ab:67:56:98:39:e9:84:
         cc:60:cb:0b:55:c5:3e:64:af:e6:c6:de:7d:6b:47:89:7a:a5:
         eb:3f:2d:dc:0c:2e:c0:8a:a8:12:78:69:d3:b7:33:fb:95:cd:
         b1:18:f5:05:e0:90:63:6f:af:e8:31:18:e6:b3:94:b3:12:97:
         4a:77:20:85:dd:30:e8:bf:af:87:80:d8:9b:60:fb:66:53:88:
         ac:8a:82:c4:ac:f5:dd:4e:b9:05:6d:4b:23:2e:d6:33:17:92:
         32:ff:e0:c6:3f:c1:44:de:2e:ea:7d:7d:ee:5b:1e:c2:99:9f:
         18:64:13:c4:dd:8a:3b:85:3c:85:2a:d8:77:53:06:8e:4e:6c:
         62:af:07:6a:00:34:f0:05:9e:eb:27:69:f0:cb:c2:c0:e6:1b:
         b9:c2:df:54:94:01:cd:27:b5:df:2c:5f:da:a1:de:2b:ff:cb:
         fe:c6:4a:c7:10:2f:49:5f:3c:36:f4:6e:3d:da:f5:86:e4:51:
         65:4f:7e:d7:ee:12:db:f7:da:a2:ed:9a:53:97:dc:6e:58:df:
         c4:46:7c:e7:7f:ab:57:0e:67:28:ed:11:24:cf:0b:1c:0d:d0:
         43:40:67:f5
-----BEGIN CERTIFICATE-----
MIIDdDCCAlygAwIBAgIRALEw5TjFE6Vx063lroD8JiwwDQYJKoZIhvcNAQELBQAw
FTETMBEGA1UEAwwKdGVhbTU4LW5ldDAeFw0yMTA5MTIyMzE0NTVaFw0yNDA4Mjcy
MzE0NTVaMBgxFjAUBgNVBAMMDXRlYW01OC1zZXJ2ZXIwggEiMA0GCSqGSIb3DQEB
AQUAA4IBDwAwggEKAoIBAQC7Ah5UJ1061OetSl8hMNCVY1zYoFTiMXNBVgbutzSp
19lVny1A0wsh5VlIlBg/Dyn3giLFMosx3Z3fT8Pt1oj8wyhvPDqaQKAbTd64PQRK
HZ56BQrhVK7qkJtecoBgO+2rki09Ct4i7+1ZnA6enmEGhajl2tC+SazHS8ASAzaL
Ad+okc2pUtyJV6GE1UuRsK8WOvNBi78H/+6Jif3TabGT3FP+Cd+cYLkfpb0OCD/d
jWj79h7G+fmPFr4qy1huTFa3K2Ds2HVUs5jHCErpClf13fluFKYjCWiLnmHcttRD
wuL9TzI2hep4VItsc9bEme/Hp6hBH6xbG4oPVNvP0pTHAgMBAAGjgbswgbgwCQYD
VR0TBAIwADAdBgNVHQ4EFgQUpmRPXtGBqPBMP4O28SQ/1xv65eEwUAYDVR0jBEkw
R4AUXJrS434A2ht4WqwpfM2tU9084IehGaQXMBUxEzARBgNVBAMMCnRlYW01OC1u
ZXSCFEKKFslCx/t+NVbj6aRmbfM2tPiQMBMGA1UdJQQMMAoGCCsGAQUFBwMBMAsG
A1UdDwQEAwIFoDAYBgNVHREEETAPgg10ZWFtNTgtc2VydmVyMA0GCSqGSIb3DQEB
CwUAA4IBAQB25l98XVB+FymPbzjt8+FHnx3En/GcjdwCe8v2u6tnVpg56YTMYMsL
VcU+ZK/mxt59a0eJeqXrPy3cDC7AiqgSeGnTtzP7lc2xGPUF4JBjb6/oMRjms5Sz
EpdKdyCF3TDov6+HgNibYPtmU4isioLErPXdTrkFbUsjLtYzF5Iy/+DGP8FE3i7q
fX3uWx7CmZ8YZBPE3Yo7hTyFKth3UwaOTmxirwdqADTwBZ7rJ2nwy8LA5hu5wt9U
lAHNJ7XfLF/aod4r/8v+xkrHEC9JXzw29G492vWG5FFlT37X7hLb99qi7ZpTl9xu
WN/ERnznf6tXDmco7REkzwscDdBDQGf1
-----END CERTIFICATE-----
