Certificate:
    Data:
        Version: 3 (0x2)
        Serial Number:
            af:3c:fa:0d:9f:ca:e6:1f:1f:b0:88:eb:44:aa:76:8e
        Signature Algorithm: sha256WithRSAEncryption
        Issuer: CN=team612-net
        Validity
            Not Before: Sep 13 04:28:17 2021 GMT
            Not After : Aug 28 04:28:17 2024 GMT
        Subject: CN=team612-server
        Subject Public Key Info:
            Public Key Algorithm: rsaEncryption
                RSA Public-Key: (2048 bit)
                Modulus:
                    00:cb:88:ea:81:eb:64:34:f7:fc:ac:c8:b2:40:3d:
                    52:ea:ec:da:64:58:2a:9f:6f:41:7a:b2:57:03:6c:
                    b3:e3:5c:a7:f1:f8:02:38:39:bc:82:86:f4:02:7a:
                    09:a1:99:c9:60:ec:15:1c:c0:b7:87:41:35:75:79:
                    9b:a7:1c:92:b4:ee:6f:0f:cb:f1:e9:08:2a:d6:80:
                    c1:c8:18:27:69:18:b3:ff:94:c5:04:7d:9a:c1:2a:
                    a8:91:96:09:a3:62:f6:00:f5:e2:35:f1:ea:31:0c:
                    49:59:ee:f7:24:54:bc:5b:5e:53:a2:fd:f4:86:a4:
                    35:5b:e3:67:46:7f:d8:c0:56:ba:6a:18:5f:ba:e0:
                    4a:02:a0:79:24:c2:a3:5f:ec:15:14:01:ee:7b:60:
                    ec:1d:40:d6:31:4a:39:5e:3b:ab:52:8d:2c:84:18:
                    5a:ef:c2:e2:b5:b0:04:79:2a:4f:bc:dc:1f:ce:6d:
                    ea:5d:c1:1b:ed:76:7d:9f:1b:74:48:7f:f0:3d:21:
                    7e:6e:af:8e:28:14:3d:bc:33:23:36:d5:05:c4:5d:
                    62:cc:2c:02:f5:9e:ad:b2:f7:0b:ac:ef:3c:29:c2:
                    e6:93:a3:d2:1a:6a:bb:ee:42:0f:46:bb:f4:bc:64:
                    c9:86:70:fb:83:1c:f1:33:e0:55:ce:5b:89:9b:96:
                    47:21
                Exponent: 65537 (0x10001)
        X509v3 extensions:
            X509v3 Basic Constraints: 
                CA:FALSE
            X509v3 Subject Key Identifier: 
                88:40:2B:E9:9F:5D:E0:58:05:8B:FD:A5:FA:FD:8F:FC:9E:CD:A7:A1
            X509v3 Authority Key Identifier: 
                keyid:F8:C8:84:B7:3D:BC:4B:8D:EF:EE:B0:04:A4:68:2C:FB:BC:BC:F6:8A
                DirName:/CN=team612-net
                serial:1C:20:DA:46:14:AD:A6:92:6A:7C:A3:C4:26:28:57:2A:50:3D:A5:46

            X509v3 Extended Key Usage: 
                TLS Web Server Authentication
            X509v3 Key Usage: 
                Digital Signature, Key Encipherment
            X509v3 Subject Alternative Name: 
                DNS:team612-server
    Signature Algorithm: sha256WithRSAEncryption
         5c:18:ca:1c:58:8e:a9:8c:8c:77:8f:8d:76:45:08:ce:90:f2:
         29:6b:91:5d:ef:4c:f0:ed:08:9a:22:05:f2:18:4c:c3:e4:06:
         63:6e:32:b5:2b:59:a2:4c:50:9e:cc:1d:0a:4b:ba:db:7c:15:
         1b:21:54:d5:dc:87:b8:17:07:ba:7c:72:33:b9:da:2f:20:30:
         8d:81:1f:32:ac:db:0d:36:24:b9:53:58:89:a9:ea:70:c2:c4:
         e5:de:ca:96:f9:ed:da:46:a8:07:0f:c6:a6:97:e2:63:76:0e:
         1f:38:ec:49:45:bf:a2:7e:cc:03:fd:68:49:e6:04:0d:dd:05:
         57:65:43:b6:5b:f7:18:82:17:22:2d:a7:b1:2e:b4:af:dd:87:
         1c:00:5f:22:11:d9:aa:8b:53:7c:a3:e0:2d:c1:be:16:3c:6d:
         f9:cf:41:95:4d:90:a4:05:e9:f2:77:2d:32:75:0e:18:bb:da:
         2c:44:91:87:d1:a9:80:e1:7f:b6:6e:d2:a5:bf:f5:a2:d2:ee:
         48:e8:7b:a3:ca:e7:8a:f6:b6:70:7f:f8:6a:0e:03:16:ab:77:
         a6:99:7b:1e:cc:50:9d:ff:5b:4f:ae:9e:fb:4a:e9:37:3b:d1:
         e3:fc:d8:5e:ec:27:74:ae:25:30:56:c5:da:0c:70:a1:2b:10:
         34:c3:40:c2
-----BEGIN CERTIFICATE-----
MIIDeDCCAmCgAwIBAgIRAK88+g2fyuYfH7CI60Sqdo4wDQYJKoZIhvcNAQELBQAw
FjEUMBIGA1UEAwwLdGVhbTYxMi1uZXQwHhcNMjEwOTEzMDQyODE3WhcNMjQwODI4
MDQyODE3WjAZMRcwFQYDVQQDDA50ZWFtNjEyLXNlcnZlcjCCASIwDQYJKoZIhvcN
AQEBBQADggEPADCCAQoCggEBAMuI6oHrZDT3/KzIskA9Uurs2mRYKp9vQXqyVwNs
s+Ncp/H4Ajg5vIKG9AJ6CaGZyWDsFRzAt4dBNXV5m6cckrTubw/L8ekIKtaAwcgY
J2kYs/+UxQR9msEqqJGWCaNi9gD14jXx6jEMSVnu9yRUvFteU6L99IakNVvjZ0Z/
2MBWumoYX7rgSgKgeSTCo1/sFRQB7ntg7B1A1jFKOV47q1KNLIQYWu/C4rWwBHkq
T7zcH85t6l3BG+12fZ8bdEh/8D0hfm6vjigUPbwzIzbVBcRdYswsAvWerbL3C6zv
PCnC5pOj0hpqu+5CD0a79LxkyYZw+4Mc8TPgVc5biZuWRyECAwEAAaOBvTCBujAJ
BgNVHRMEAjAAMB0GA1UdDgQWBBSIQCvpn13gWAWL/aX6/Y/8ns2noTBRBgNVHSME
SjBIgBT4yIS3PbxLje/usASkaCz7vLz2iqEapBgwFjEUMBIGA1UEAwwLdGVhbTYx
Mi1uZXSCFBwg2kYUraaSanyjxCYoVypQPaVGMBMGA1UdJQQMMAoGCCsGAQUFBwMB
MAsGA1UdDwQEAwIFoDAZBgNVHREEEjAQgg50ZWFtNjEyLXNlcnZlcjANBgkqhkiG
9w0BAQsFAAOCAQEAXBjKHFiOqYyMd4+NdkUIzpDyKWuRXe9M8O0ImiIF8hhMw+QG
Y24ytStZokxQnswdCku623wVGyFU1dyHuBcHunxyM7naLyAwjYEfMqzbDTYkuVNY
ianqcMLE5d7Klvnt2kaoBw/GppfiY3YOHzjsSUW/on7MA/1oSeYEDd0FV2VDtlv3
GIIXIi2nsS60r92HHABfIhHZqotTfKPgLcG+Fjxt+c9BlU2QpAXp8nctMnUOGLva
LESRh9GpgOF/tm7Spb/1otLuSOh7o8rniva2cH/4ag4DFqt3ppl7HsxQnf9bT66e
+0rpNzvR4/zYXuwndK4lMFbF2gxwoSsQNMNAwg==
-----END CERTIFICATE-----
