Certificate:
    Data:
        Version: 3 (0x2)
        Serial Number:
            dd:58:85:66:1e:0f:49:82:3e:6e:d7:c1:61:f9:bc:be
        Signature Algorithm: sha256WithRSAEncryption
        Issuer: CN=team154-net
        Validity
            Not Before: Sep 13 00:13:38 2021 GMT
            Not After : Aug 28 00:13:38 2024 GMT
        Subject: CN=team154-server
        Subject Public Key Info:
            Public Key Algorithm: rsaEncryption
                RSA Public-Key: (2048 bit)
                Modulus:
                    00:d4:86:a0:a4:56:ae:ad:08:69:b0:c0:51:f7:a2:
                    27:51:52:c2:33:40:78:90:6c:69:3a:5d:7c:fc:89:
                    d2:10:7f:02:85:47:8b:2e:75:3e:2f:9a:05:31:f1:
                    53:fe:8a:8c:6b:58:65:a6:7b:1d:68:d4:c4:ac:f3:
                    d0:2e:ed:fd:f9:51:fb:4b:80:1d:e2:81:df:b5:b6:
                    83:fd:e9:26:08:4d:dd:66:f1:b2:b2:fc:34:f5:38:
                    0c:ad:30:00:a6:6d:55:fe:ae:bd:c2:e1:44:fc:1f:
                    d6:3e:cb:da:db:0f:3b:e6:8d:16:81:e6:6c:68:29:
                    f0:7a:b9:1d:7e:68:65:cb:2e:d6:fc:1f:b9:3d:07:
                    3a:b1:29:3f:03:27:2d:41:dd:7d:03:17:70:11:f3:
                    c1:d6:5d:2a:78:98:80:4d:fd:6f:4c:50:be:39:a7:
                    e5:99:cd:17:e8:79:1c:da:9c:f9:bc:40:be:2e:bc:
                    5f:1b:50:69:c5:7f:d5:89:6e:21:89:7c:58:37:1f:
                    70:d3:82:43:1b:82:73:5a:7e:ad:db:c9:09:a2:c6:
                    3f:d0:e4:f9:91:80:41:2b:ad:28:4f:c8:78:e7:d6:
                    09:6d:99:66:ca:a5:15:6d:52:49:48:55:ed:70:d5:
                    c0:53:fc:b3:5a:32:77:e3:53:50:c6:da:cc:49:e2:
                    03:9d
                Exponent: 65537 (0x10001)
        X509v3 extensions:
            X509v3 Basic Constraints: 
                CA:FALSE
            X509v3 Subject Key Identifier: 
                24:58:CF:53:04:74:96:42:67:1C:5D:F9:E2:F7:30:74:22:5B:A9:FD
            X509v3 Authority Key Identifier: 
                keyid:8A:A7:55:DC:C0:8A:8B:3E:3D:3A:F3:68:B9:30:F6:C9:7A:26:8E:D1
                DirName:/CN=team154-net
                serial:72:5E:B8:CD:04:89:64:45:6B:16:91:AD:36:1D:17:63:9E:E6:4E:47

            X509v3 Extended Key Usage: 
                TLS Web Server Authentication
            X509v3 Key Usage: 
                Digital Signature, Key Encipherment
            X509v3 Subject Alternative Name: 
                DNS:team154-server
    Signature Algorithm: sha256WithRSAEncryption
         61:51:21:f1:fa:3d:f7:e9:65:f5:3c:c1:a0:3c:1a:44:d1:3b:
         5e:93:32:97:7b:ce:cb:8a:8a:f7:d3:5e:b4:08:59:e4:3c:d3:
         2c:5f:45:3f:57:ac:26:48:eb:34:10:f6:f1:eb:55:1b:a8:43:
         d9:9d:1f:5c:88:a8:44:43:97:71:77:85:72:3b:ad:1d:89:2c:
         47:4d:95:06:05:76:bf:78:2e:07:a0:37:d5:37:b5:c5:6e:85:
         30:85:0f:77:d4:52:e4:09:d4:95:d9:c1:57:f1:0d:ca:f6:19:
         46:22:5c:78:3c:60:f0:28:c2:41:7f:61:a1:ca:88:a7:ff:e3:
         64:dd:94:08:d9:d5:03:24:71:1f:f4:08:ea:39:e7:4f:b7:27:
         d6:dd:2e:06:20:81:c1:0e:14:5c:31:48:04:c3:2a:6a:b4:43:
         eb:d6:76:77:6e:39:3c:e8:2d:07:4b:95:22:b8:b3:e5:47:04:
         45:46:d6:33:b6:13:88:7d:01:5d:8a:7e:d3:f0:4d:da:1f:4a:
         3d:2b:2b:bf:ac:9f:d1:61:53:40:bb:23:a0:d7:ee:2e:40:17:
         c3:6c:dc:2a:59:c0:14:0c:b2:70:56:2b:84:67:11:e6:54:33:
         a6:65:d9:6a:51:ef:2a:87:74:67:fe:2e:af:6a:34:bf:64:08:
         95:60:3d:fb
-----BEGIN CERTIFICATE-----
MIIDeDCCAmCgAwIBAgIRAN1YhWYeD0mCPm7XwWH5vL4wDQYJKoZIhvcNAQELBQAw
FjEUMBIGA1UEAwwLdGVhbTE1NC1uZXQwHhcNMjEwOTEzMDAxMzM4WhcNMjQwODI4
MDAxMzM4WjAZMRcwFQYDVQQDDA50ZWFtMTU0LXNlcnZlcjCCASIwDQYJKoZIhvcN
AQEBBQADggEPADCCAQoCggEBANSGoKRWrq0IabDAUfeiJ1FSwjNAeJBsaTpdfPyJ
0hB/AoVHiy51Pi+aBTHxU/6KjGtYZaZ7HWjUxKzz0C7t/flR+0uAHeKB37W2g/3p
JghN3WbxsrL8NPU4DK0wAKZtVf6uvcLhRPwf1j7L2tsPO+aNFoHmbGgp8Hq5HX5o
Zcsu1vwfuT0HOrEpPwMnLUHdfQMXcBHzwdZdKniYgE39b0xQvjmn5ZnNF+h5HNqc
+bxAvi68XxtQacV/1YluIYl8WDcfcNOCQxuCc1p+rdvJCaLGP9Dk+ZGAQSutKE/I
eOfWCW2ZZsqlFW1SSUhV7XDVwFP8s1oyd+NTUMbazEniA50CAwEAAaOBvTCBujAJ
BgNVHRMEAjAAMB0GA1UdDgQWBBQkWM9TBHSWQmccXfni9zB0Ilup/TBRBgNVHSME
SjBIgBSKp1XcwIqLPj0682i5MPbJeiaO0aEapBgwFjEUMBIGA1UEAwwLdGVhbTE1
NC1uZXSCFHJeuM0EiWRFaxaRrTYdF2Oe5k5HMBMGA1UdJQQMMAoGCCsGAQUFBwMB
MAsGA1UdDwQEAwIFoDAZBgNVHREEEjAQgg50ZWFtMTU0LXNlcnZlcjANBgkqhkiG
9w0BAQsFAAOCAQEAYVEh8fo99+ll9TzBoDwaRNE7XpMyl3vOy4qK99NetAhZ5DzT
LF9FP1esJkjrNBD28etVG6hD2Z0fXIioREOXcXeFcjutHYksR02VBgV2v3guB6A3
1Te1xW6FMIUPd9RS5AnUldnBV/ENyvYZRiJceDxg8CjCQX9hocqIp//jZN2UCNnV
AyRxH/QI6jnnT7cn1t0uBiCBwQ4UXDFIBMMqarRD69Z2d245POgtB0uVIriz5UcE
RUbWM7YTiH0BXYp+0/BN2h9KPSsrv6yf0WFTQLsjoNfuLkAXw2zcKlnAFAyycFYr
hGcR5lQzpmXZalHvKod0Z/4ur2o0v2QIlWA9+w==
-----END CERTIFICATE-----
