Certificate:
    Data:
        Version: 3 (0x2)
        Serial Number:
            ea:84:fe:2c:43:01:1a:9c:d4:7f:9b:47:9c:57:21:5b
        Signature Algorithm: sha256WithRSAEncryption
        Issuer: CN=team342-net
        Validity
            Not Before: Sep 13 01:56:07 2021 GMT
            Not After : Aug 28 01:56:07 2024 GMT
        Subject: CN=team342-client
        Subject Public Key Info:
            Public Key Algorithm: rsaEncryption
                RSA Public-Key: (2048 bit)
                Modulus:
                    00:a2:84:59:f8:35:43:f9:d2:de:3b:d6:31:b7:9f:
                    18:d4:d9:71:c1:9d:2c:2f:bb:57:50:3f:22:4b:9f:
                    14:55:07:d9:33:06:3f:a0:46:f3:a2:82:0b:6e:36:
                    a4:74:d3:6c:2e:2e:b0:9d:60:39:54:29:db:be:25:
                    60:7c:80:4e:cf:23:d4:68:df:34:28:86:ab:46:9f:
                    e4:41:15:59:f5:6e:ad:27:b9:a5:b9:cf:da:ca:6d:
                    16:d1:c8:ba:6a:0a:fc:74:9c:2a:6b:d3:b4:ed:ec:
                    1e:99:a0:6e:11:0d:17:8d:e6:a8:d1:02:6a:ad:f5:
                    f1:a1:12:10:1c:1b:7f:f7:ea:64:93:3a:7f:2c:cd:
                    e0:8e:a6:9c:80:77:bd:15:da:78:f7:da:11:b9:d0:
                    e2:52:5f:08:43:53:8f:d6:53:e6:9d:ae:d8:7b:14:
                    0f:a8:7e:f3:3b:0d:ad:8e:ad:aa:c9:e2:8a:1c:32:
                    e7:d9:5f:81:03:31:42:39:0d:d9:b7:27:46:0c:e3:
                    41:61:6f:a0:61:2f:6a:26:d0:f7:c0:f7:68:b5:5c:
                    cd:a8:14:83:84:01:1f:51:b3:b8:4b:87:6b:6b:d9:
                    9d:88:b5:89:1f:5a:b4:39:5c:6b:59:32:fd:0c:2d:
                    fb:64:34:7a:ea:18:66:e3:a9:24:1f:c7:10:ab:cb:
                    3f:81
                Exponent: 65537 (0x10001)
        X509v3 extensions:
            X509v3 Basic Constraints: 
                CA:FALSE
            X509v3 Subject Key Identifier: 
                11:28:D6:BB:D7:FB:60:D8:F8:E2:45:03:B6:F4:49:E3:4A:57:22:C9
            X509v3 Authority Key Identifier: 
                keyid:62:A3:5D:9B:29:CE:BB:8E:60:9B:E6:6A:79:89:15:27:AD:BA:C9:F6
                DirName:/CN=team342-net
                serial:6F:C6:35:62:6F:BE:BD:83:4B:0E:C5:5C:0D:3D:FA:EA:D2:54:BF:E3

            X509v3 Extended Key Usage: 
                TLS Web Client Authentication
            X509v3 Key Usage: 
                Digital Signature
    Signature Algorithm: sha256WithRSAEncryption
         88:f4:0f:e0:43:39:7b:77:ce:c3:dd:0d:b3:62:e3:00:df:ea:
         1c:4d:91:bb:16:5f:e8:a7:08:fb:aa:8a:74:83:b8:56:fb:24:
         60:42:7e:9c:04:04:95:8d:05:d0:d5:00:e5:82:db:6d:61:79:
         2f:fa:66:73:78:b2:13:0a:9c:ca:bb:8d:b0:41:cb:71:f5:2e:
         7c:7a:91:ef:b6:cf:54:19:cf:0a:69:6e:9e:3c:67:b7:ad:32:
         31:5a:6f:34:19:09:53:f3:9b:46:9a:97:37:a1:02:32:dd:bb:
         40:61:a4:3a:44:37:9f:80:22:a5:dc:32:45:b9:76:9c:81:18:
         ad:f6:cc:14:23:49:b2:41:c1:4d:56:99:f4:bd:f7:7a:96:ce:
         a0:76:87:2f:f3:7f:5b:a9:13:fa:98:c0:6c:d0:d3:4e:ec:9f:
         08:aa:be:96:e6:90:5a:72:77:f8:38:67:ce:af:47:71:5e:94:
         73:89:1a:22:c6:ec:af:9b:67:2b:88:7b:32:8e:aa:90:54:f6:
         e3:41:a9:8d:7e:05:c3:55:18:b6:ec:7b:ca:39:fa:9c:1c:c0:
         67:b6:4b:42:03:4d:0c:cc:1f:40:57:fc:07:86:1d:8d:c1:2a:
         20:ce:1b:c0:6f:8c:08:59:12:68:07:a7:67:9f:e1:f0:34:69:
         9e:90:6c:58
-----BEGIN CERTIFICATE-----
MIIDXTCCAkWgAwIBAgIRAOqE/ixDARqc1H+bR5xXIVswDQYJKoZIhvcNAQELBQAw
FjEUMBIGA1UEAwwLdGVhbTM0Mi1uZXQwHhcNMjEwOTEzMDE1NjA3WhcNMjQwODI4
MDE1NjA3WjAZMRcwFQYDVQQDDA50ZWFtMzQyLWNsaWVudDCCASIwDQYJKoZIhvcN
AQEBBQADggEPADCCAQoCggEBAKKEWfg1Q/nS3jvWMbefGNTZccGdLC+7V1A/Ikuf
FFUH2TMGP6BG86KCC242pHTTbC4usJ1gOVQp274lYHyATs8j1GjfNCiGq0af5EEV
WfVurSe5pbnP2sptFtHIumoK/HScKmvTtO3sHpmgbhENF43mqNECaq318aESEBwb
f/fqZJM6fyzN4I6mnIB3vRXaePfaEbnQ4lJfCENTj9ZT5p2u2HsUD6h+8zsNrY6t
qsniihwy59lfgQMxQjkN2bcnRgzjQWFvoGEvaibQ98D3aLVczagUg4QBH1GzuEuH
a2vZnYi1iR9atDlca1ky/Qwt+2Q0euoYZuOpJB/HEKvLP4ECAwEAAaOBojCBnzAJ
BgNVHRMEAjAAMB0GA1UdDgQWBBQRKNa71/tg2PjiRQO29EnjSlciyTBRBgNVHSME
SjBIgBRio12bKc67jmCb5mp5iRUnrbrJ9qEapBgwFjEUMBIGA1UEAwwLdGVhbTM0
Mi1uZXSCFG/GNWJvvr2DSw7FXA09+urSVL/jMBMGA1UdJQQMMAoGCCsGAQUFBwMC
MAsGA1UdDwQEAwIHgDANBgkqhkiG9w0BAQsFAAOCAQEAiPQP4EM5e3fOw90Ns2Lj
AN/qHE2RuxZf6KcI+6qKdIO4VvskYEJ+nAQElY0F0NUA5YLbbWF5L/pmc3iyEwqc
yruNsEHLcfUufHqR77bPVBnPCmlunjxnt60yMVpvNBkJU/ObRpqXN6ECMt27QGGk
OkQ3n4AipdwyRbl2nIEYrfbMFCNJskHBTVaZ9L33epbOoHaHL/N/W6kT+pjAbNDT
TuyfCKq+luaQWnJ3+Dhnzq9HcV6Uc4kaIsbsr5tnK4h7Mo6qkFT240GpjX4Fw1UY
tux7yjn6nBzAZ7ZLQgNNDMwfQFf8B4YdjcEqIM4bwG+MCFkSaAenZ5/h8DRpnpBs
WA==
-----END CERTIFICATE-----
