Certificate:
    Data:
        Version: 3 (0x2)
        Serial Number:
            f8:82:24:13:2d:41:03:6a:18:62:2a:e6:4d:cd:42:66
        Signature Algorithm: sha256WithRSAEncryption
        Issuer: CN=team86-net
        Validity
            Not Before: Sep 12 23:28:48 2021 GMT
            Not After : Aug 27 23:28:48 2024 GMT
        Subject: CN=team86-server
        Subject Public Key Info:
            Public Key Algorithm: rsaEncryption
                RSA Public-Key: (2048 bit)
                Modulus:
                    00:e0:24:c9:71:c7:c0:b4:67:be:80:1d:ee:cc:4a:
                    23:87:ec:0c:41:df:1c:9b:26:8f:8d:c0:e5:5c:ee:
                    42:24:57:af:fb:a8:f7:ef:57:30:5a:f3:36:44:c0:
                    b3:8c:cb:77:cb:4c:d3:75:58:b2:25:45:ac:21:f4:
                    6c:11:bf:09:24:c1:ab:f5:38:f6:d4:04:f3:ae:d6:
                    39:41:5e:7d:98:70:4a:f0:79:55:25:f1:8e:95:ac:
                    b0:95:46:78:c1:6f:86:b6:44:e2:59:30:3b:63:07:
                    e5:11:25:99:25:55:4a:9e:d6:8d:16:cb:37:cb:1a:
                    2c:58:1d:fb:dd:a3:20:61:4c:e4:7a:0f:86:27:58:
                    f8:73:b5:83:97:e8:c2:9b:ef:bf:61:08:4b:71:18:
                    69:14:08:1d:df:fe:80:10:78:0d:d8:04:e2:80:9e:
                    0e:f7:8a:d3:c6:db:f9:66:79:84:d4:46:2b:ca:95:
                    4a:39:e1:45:9f:40:3c:61:d3:87:6e:1f:46:4b:26:
                    b9:5c:51:06:28:95:39:52:b6:e6:4a:85:6f:57:56:
                    c4:43:fe:29:fd:6c:5b:2b:32:a6:e1:f1:bf:82:3b:
                    35:2d:68:82:0a:3a:44:cf:57:69:e5:53:2f:c5:2c:
                    f9:f4:38:f0:d2:f0:cb:66:a6:4d:b8:8e:72:50:cc:
                    8f:13
                Exponent: 65537 (0x10001)
        X509v3 extensions:
            X509v3 Basic Constraints: 
                CA:FALSE
            X509v3 Subject Key Identifier: 
                2A:27:CF:6A:92:C1:B6:A3:34:08:7F:0D:D8:35:95:A5:7C:B3:B8:86
            X509v3 Authority Key Identifier: 
                keyid:DE:29:1F:E1:7B:AB:03:0E:D7:95:FB:B1:87:1A:3C:09:0E:9B:2F:85
                DirName:/CN=team86-net
                serial:0D:58:03:8F:BA:D3:34:22:0F:5C:69:C6:D6:76:94:52:57:6D:A3:E6

            X509v3 Extended Key Usage: 
                TLS Web Server Authentication
            X509v3 Key Usage: 
                Digital Signature, Key Encipherment
            X509v3 Subject Alternative Name: 
                DNS:team86-server
    Signature Algorithm: sha256WithRSAEncryption
         2b:4c:f9:26:f1:38:63:15:42:8e:18:97:c8:f4:9f:2d:d8:09:
         7c:d5:79:98:d8:bd:ac:d2:61:51:2c:84:df:cc:c2:06:87:1e:
         61:bf:97:dd:84:9c:f3:e9:19:af:1e:d6:bb:c6:05:ee:c9:c8:
         dc:93:c9:24:ce:3c:8e:b0:1a:ee:32:bf:6d:7e:b0:59:66:74:
         cf:fe:58:71:78:a3:c5:7f:e8:50:1b:7b:c9:bb:8f:f4:02:20:
         e7:07:22:ad:b7:c0:78:b3:f6:72:f9:9a:b9:09:b1:7a:7d:62:
         d3:8c:19:fe:d9:a1:0d:d7:87:a7:b4:55:8e:51:9f:12:c5:dd:
         6e:9f:57:96:38:8e:b1:b4:84:f5:58:52:5f:c0:66:dd:85:0a:
         ee:e4:fb:47:c0:d9:c8:49:31:35:ea:1e:a4:c4:4f:1e:bd:3d:
         a0:25:b7:09:11:2a:2d:d9:3a:69:52:b8:70:21:9f:71:e2:0e:
         0d:20:03:67:cb:28:85:8d:31:7f:55:b6:87:7b:8d:2e:ed:bd:
         5e:cc:30:2e:3c:f7:48:24:aa:c7:0f:79:15:e5:e7:9c:3e:64:
         45:71:c3:49:f4:58:12:97:03:e6:75:df:c2:5f:a5:78:de:c8:
         77:bc:73:d8:58:2a:19:f0:bc:48:36:ac:51:2e:04:cc:2d:da:
         6d:bb:bb:78
-----BEGIN CERTIFICATE-----
MIIDdDCCAlygAwIBAgIRAPiCJBMtQQNqGGIq5k3NQmYwDQYJKoZIhvcNAQELBQAw
FTETMBEGA1UEAwwKdGVhbTg2LW5ldDAeFw0yMTA5MTIyMzI4NDhaFw0yNDA4Mjcy
MzI4NDhaMBgxFjAUBgNVBAMMDXRlYW04Ni1zZXJ2ZXIwggEiMA0GCSqGSIb3DQEB
AQUAA4IBDwAwggEKAoIBAQDgJMlxx8C0Z76AHe7MSiOH7AxB3xybJo+NwOVc7kIk
V6/7qPfvVzBa8zZEwLOMy3fLTNN1WLIlRawh9GwRvwkkwav1OPbUBPOu1jlBXn2Y
cErweVUl8Y6VrLCVRnjBb4a2ROJZMDtjB+URJZklVUqe1o0WyzfLGixYHfvdoyBh
TOR6D4YnWPhztYOX6MKb779hCEtxGGkUCB3f/oAQeA3YBOKAng73itPG2/lmeYTU
RivKlUo54UWfQDxh04duH0ZLJrlcUQYolTlStuZKhW9XVsRD/in9bFsrMqbh8b+C
OzUtaIIKOkTPV2nlUy/FLPn0OPDS8Mtmpk24jnJQzI8TAgMBAAGjgbswgbgwCQYD
VR0TBAIwADAdBgNVHQ4EFgQUKifPapLBtqM0CH8N2DWVpXyzuIYwUAYDVR0jBEkw
R4AU3ikf4XurAw7Xlfuxhxo8CQ6bL4WhGaQXMBUxEzARBgNVBAMMCnRlYW04Ni1u
ZXSCFA1YA4+60zQiD1xpxtZ2lFJXbaPmMBMGA1UdJQQMMAoGCCsGAQUFBwMBMAsG
A1UdDwQEAwIFoDAYBgNVHREEETAPgg10ZWFtODYtc2VydmVyMA0GCSqGSIb3DQEB
CwUAA4IBAQArTPkm8ThjFUKOGJfI9J8t2Al81XmY2L2s0mFRLITfzMIGhx5hv5fd
hJzz6RmvHta7xgXuycjck8kkzjyOsBruMr9tfrBZZnTP/lhxeKPFf+hQG3vJu4/0
AiDnByKtt8B4s/Zy+Zq5CbF6fWLTjBn+2aEN14entFWOUZ8Sxd1un1eWOI6xtIT1
WFJfwGbdhQru5PtHwNnISTE16h6kxE8evT2gJbcJESot2TppUrhwIZ9x4g4NIANn
yyiFjTF/VbaHe40u7b1ezDAuPPdIJKrHD3kV5eecPmRFccNJ9FgSlwPmdd/CX6V4
3sh3vHPYWCoZ8LxINqxRLgTMLdptu7t4
-----END CERTIFICATE-----
