Certificate:
    Data:
        Version: 3 (0x2)
        Serial Number:
            51:4e:64:5c:19:de:21:52:75:ac:f9:48:f8:09:84:f9
        Signature Algorithm: sha256WithRSAEncryption
        Issuer: CN=team169-net
        Validity
            Not Before: Sep 13 00:13:50 2021 GMT
            Not After : Aug 28 00:13:50 2024 GMT
        Subject: CN=team169-client
        Subject Public Key Info:
            Public Key Algorithm: rsaEncryption
                RSA Public-Key: (2048 bit)
                Modulus:
                    00:c1:ec:87:85:e3:92:82:f5:9b:4c:23:a6:da:6a:
                    5c:d3:cf:06:2f:83:a5:21:fa:96:56:5c:80:4a:4d:
                    f7:53:00:44:fa:d7:4b:8d:91:16:a8:95:04:81:5d:
                    dc:67:ed:6c:75:a3:08:24:7d:8f:ac:7b:98:31:d5:
                    ea:35:27:d1:1f:72:2f:c6:98:c9:05:14:66:cb:b2:
                    45:3d:75:86:36:b6:7e:e3:3a:61:29:6c:57:23:83:
                    cd:60:61:2c:c1:e8:dd:9a:d9:74:c9:48:81:3e:37:
                    c8:9a:f0:6c:10:84:e0:02:20:2b:88:4e:0c:4e:5e:
                    eb:41:37:ad:0f:a5:2f:ec:b2:0c:ef:eb:b0:0a:bf:
                    17:e3:58:a1:1f:56:98:61:03:a8:c0:7c:c0:4d:7f:
                    40:3b:c2:f0:1c:4e:68:c7:1b:f7:c6:f0:5d:f6:76:
                    62:1d:24:10:d1:44:ef:38:e0:7f:f8:83:5d:fb:3d:
                    5f:7e:3a:7a:e3:74:96:f7:5a:ab:c9:dc:07:b8:1a:
                    7d:a3:66:6a:2a:e6:92:2b:95:69:a9:73:b9:db:36:
                    77:ab:14:96:9c:8a:5f:db:7b:eb:aa:e0:9a:28:24:
                    10:d2:c6:af:46:73:65:c2:3f:be:ed:7b:e6:d6:e5:
                    f2:10:7d:51:4e:fc:c4:e7:15:98:94:83:84:b6:22:
                    93:41
                Exponent: 65537 (0x10001)
        X509v3 extensions:
            X509v3 Basic Constraints: 
                CA:FALSE
            X509v3 Subject Key Identifier: 
                89:3D:2A:2F:79:73:8A:D0:BB:22:70:E9:42:C3:4B:AD:A7:29:FF:1E
            X509v3 Authority Key Identifier: 
                keyid:27:22:AD:38:5A:D2:4C:99:C8:89:C2:C1:F4:81:E1:7A:D1:F1:8C:88
                DirName:/CN=team169-net
                serial:8D:B5:FE:9F:46:ED:17:CC:33:15:17:D1:41:80:F5:42:F3:6B:36

            X509v3 Extended Key Usage: 
                TLS Web Client Authentication
            X509v3 Key Usage: 
                Digital Signature
    Signature Algorithm: sha256WithRSAEncryption
         11:01:7d:5f:1a:98:19:a6:d4:93:20:05:75:2b:10:b2:16:f5:
         5c:4c:ff:23:d4:86:12:05:48:c9:d2:cb:bc:24:56:53:1b:9a:
         39:e3:07:1d:49:77:71:22:d1:0a:87:a3:b8:2d:73:97:5f:87:
         2e:0c:2f:88:15:b7:8a:76:9f:73:17:96:7d:3b:d6:5c:fc:46:
         54:a6:b1:bb:b1:68:a3:88:ac:b8:03:64:a8:a2:24:09:91:40:
         a0:0b:3d:8e:71:45:6f:17:3e:3f:ca:b0:c8:e0:fc:8c:d2:5e:
         55:cf:fe:00:05:c7:ec:57:7d:7a:13:80:22:3c:58:d5:a1:6e:
         7b:e6:04:a5:e5:c6:c6:5e:ce:38:eb:02:9e:4c:76:8f:17:1c:
         8b:fe:3f:67:f6:88:d0:ae:43:8e:58:3a:6c:b7:e4:97:33:31:
         ac:04:17:f9:e1:16:cd:70:43:f6:f5:70:03:c0:20:22:bb:3d:
         0e:cd:85:3a:44:95:cd:60:c0:de:69:af:03:34:23:84:a9:66:
         bf:e6:12:56:65:fa:13:26:c9:34:2a:33:6c:27:e7:2e:d8:ab:
         9e:57:53:9e:66:f7:5d:87:a1:f0:a1:91:24:f8:bb:36:c2:a4:
         66:d0:de:44:a8:7e:fb:e4:ae:f7:41:b9:2a:c8:3b:77:c1:1c:
         f7:8e:87:f8
-----BEGIN CERTIFICATE-----
MIIDXDCCAkSgAwIBAgIQUU5kXBneIVJ1rPlI+AmE+TANBgkqhkiG9w0BAQsFADAW
MRQwEgYDVQQDDAt0ZWFtMTY5LW5ldDAeFw0yMTA5MTMwMDEzNTBaFw0yNDA4Mjgw
MDEzNTBaMBkxFzAVBgNVBAMMDnRlYW0xNjktY2xpZW50MIIBIjANBgkqhkiG9w0B
AQEFAAOCAQ8AMIIBCgKCAQEAweyHheOSgvWbTCOm2mpc088GL4OlIfqWVlyASk33
UwBE+tdLjZEWqJUEgV3cZ+1sdaMIJH2PrHuYMdXqNSfRH3IvxpjJBRRmy7JFPXWG
NrZ+4zphKWxXI4PNYGEswejdmtl0yUiBPjfImvBsEITgAiAriE4MTl7rQTetD6Uv
7LIM7+uwCr8X41ihH1aYYQOowHzATX9AO8LwHE5oxxv3xvBd9nZiHSQQ0UTvOOB/
+INd+z1ffjp643SW91qrydwHuBp9o2ZqKuaSK5VpqXO52zZ3qxSWnIpf23vrquCa
KCQQ0savRnNlwj++7Xvm1uXyEH1RTvzE5xWYlIOEtiKTQQIDAQABo4GiMIGfMAkG
A1UdEwQCMAAwHQYDVR0OBBYEFIk9Ki95c4rQuyJw6ULDS62nKf8eMFEGA1UdIwRK
MEiAFCcirTha0kyZyInCwfSB4XrR8YyIoRqkGDAWMRQwEgYDVQQDDAt0ZWFtMTY5
LW5ldIIUAI21/p9G7RfMMxUX0UGA9ULzazYwEwYDVR0lBAwwCgYIKwYBBQUHAwIw
CwYDVR0PBAQDAgeAMA0GCSqGSIb3DQEBCwUAA4IBAQARAX1fGpgZptSTIAV1KxCy
FvVcTP8j1IYSBUjJ0su8JFZTG5o54wcdSXdxItEKh6O4LXOXX4cuDC+IFbeKdp9z
F5Z9O9Zc/EZUprG7sWijiKy4A2SooiQJkUCgCz2OcUVvFz4/yrDI4PyM0l5Vz/4A
BcfsV316E4AiPFjVoW575gSl5cbGXs446wKeTHaPFxyL/j9n9ojQrkOOWDpst+SX
MzGsBBf54RbNcEP29XADwCAiuz0OzYU6RJXNYMDeaa8DNCOEqWa/5hJWZfoTJsk0
KjNsJ+cu2KueV1OeZvddh6HwoZEk+Ls2wqRm0N5EqH775K73QbkqyDt3wRz3jof4
-----END CERTIFICATE-----
