Certificate:
    Data:
        Version: 3 (0x2)
        Serial Number:
            dd:cd:02:4e:77:ca:9b:5c:6f:55:85:a7:cc:d8:17:f9
        Signature Algorithm: sha256WithRSAEncryption
        Issuer: CN=team229-net
        Validity
            Not Before: Sep 13 00:51:47 2021 GMT
            Not After : Aug 28 00:51:47 2024 GMT
        Subject: CN=team229-server
        Subject Public Key Info:
            Public Key Algorithm: rsaEncryption
                RSA Public-Key: (2048 bit)
                Modulus:
                    00:b7:91:3f:6a:f8:31:8a:36:7d:e2:e1:c8:f4:3e:
                    0f:b9:4a:6c:c3:0a:a4:a2:ea:39:e6:7b:c3:0b:a1:
                    b9:cf:93:b8:f5:e2:1f:03:d7:5d:65:cf:f8:20:f8:
                    ae:da:33:78:c8:aa:d5:2a:1c:15:af:1c:16:20:fb:
                    a9:fc:9b:7e:fb:08:56:8a:52:1a:ec:57:79:f5:15:
                    57:b5:b0:42:30:a6:d0:25:1e:58:a8:c7:a1:a6:0c:
                    d5:ad:7c:f2:04:de:97:7a:f6:1c:9d:f6:57:13:26:
                    de:a5:2f:a0:73:f3:f2:1e:7c:00:61:9a:14:6b:b9:
                    af:c0:8a:5a:60:af:61:3b:77:54:66:6d:11:4d:99:
                    78:69:84:af:c6:b7:e8:97:f1:bd:fb:66:0c:bd:05:
                    36:db:8b:aa:0f:d2:5a:86:73:0b:f9:70:b6:91:63:
                    ab:b2:93:fc:d8:46:e5:7f:ea:e8:95:d4:7e:21:30:
                    b4:3a:cd:2f:a0:60:d8:ee:66:d6:ea:e1:65:95:9d:
                    23:53:7a:a0:e2:51:88:a3:a6:88:03:40:ba:33:43:
                    f4:fb:b0:a2:44:9e:f5:cf:b3:fd:50:7f:2c:83:a0:
                    7f:42:78:4a:64:e1:97:f8:0a:56:47:69:fc:67:e8:
                    54:f2:43:13:bf:55:6f:6c:3b:e4:d5:43:2d:5d:86:
                    56:9d
                Exponent: 65537 (0x10001)
        X509v3 extensions:
            X509v3 Basic Constraints: 
                CA:FALSE
            X509v3 Subject Key Identifier: 
                D3:FE:60:48:80:33:2B:2F:CF:CA:73:EC:EC:FE:E9:B1:E0:1D:CE:59
            X509v3 Authority Key Identifier: 
                keyid:54:DE:77:D1:12:45:D0:68:67:E1:8F:DB:0F:B8:38:AA:6F:9A:79:59
                DirName:/CN=team229-net
                serial:25:E7:3E:0A:DB:D0:AB:B9:FE:61:E1:9F:AD:FD:F6:43:B2:05:36:58

            X509v3 Extended Key Usage: 
                TLS Web Server Authentication
            X509v3 Key Usage: 
                Digital Signature, Key Encipherment
            X509v3 Subject Alternative Name: 
                DNS:team229-server
    Signature Algorithm: sha256WithRSAEncryption
         68:b7:69:6b:00:05:03:c3:db:cd:e8:3b:45:1a:85:99:90:c2:
         fa:9a:e6:7e:54:f0:c6:d2:68:ee:26:d0:3d:ca:cd:46:76:1f:
         e1:3b:40:93:72:87:76:fb:ca:30:54:45:f6:30:af:33:03:6f:
         d0:81:7d:1c:4e:17:7d:8e:fa:43:cb:4e:14:c5:3a:87:aa:79:
         b8:cc:e6:2e:93:b5:cc:47:5d:e6:08:bf:f1:56:d7:25:d2:fd:
         43:a2:bf:24:e7:92:d3:b0:dd:cb:ab:e8:a1:b7:2e:9b:45:8a:
         2a:31:5c:af:81:2f:37:31:ec:50:fc:76:01:37:42:7e:af:54:
         80:04:18:ef:d7:c6:87:c7:02:04:e6:0a:97:c8:24:ef:0b:f5:
         33:f6:f6:1f:f4:0c:6a:09:70:a1:15:39:1f:e8:06:09:01:9d:
         ea:2c:93:b8:57:c1:d7:5e:9b:25:90:ee:21:a0:f5:bd:89:d0:
         f2:db:af:30:b0:09:07:b3:2f:f5:0c:d2:3d:d1:29:a0:48:da:
         cd:3a:65:0e:6b:86:cc:34:5c:ed:c8:d0:d7:38:b1:52:16:98:
         02:d8:2e:28:b0:71:7e:b8:48:1e:e0:13:77:ed:9a:3a:85:9f:
         e5:63:56:24:a3:e7:ca:b7:a1:77:38:56:fe:20:72:4c:dd:c6:
         63:01:4e:00
-----BEGIN CERTIFICATE-----
MIIDeDCCAmCgAwIBAgIRAN3NAk53yptcb1WFp8zYF/kwDQYJKoZIhvcNAQELBQAw
FjEUMBIGA1UEAwwLdGVhbTIyOS1uZXQwHhcNMjEwOTEzMDA1MTQ3WhcNMjQwODI4
MDA1MTQ3WjAZMRcwFQYDVQQDDA50ZWFtMjI5LXNlcnZlcjCCASIwDQYJKoZIhvcN
AQEBBQADggEPADCCAQoCggEBALeRP2r4MYo2feLhyPQ+D7lKbMMKpKLqOeZ7wwuh
uc+TuPXiHwPXXWXP+CD4rtozeMiq1SocFa8cFiD7qfybfvsIVopSGuxXefUVV7Ww
QjCm0CUeWKjHoaYM1a188gTel3r2HJ32VxMm3qUvoHPz8h58AGGaFGu5r8CKWmCv
YTt3VGZtEU2ZeGmEr8a36JfxvftmDL0FNtuLqg/SWoZzC/lwtpFjq7KT/NhG5X/q
6JXUfiEwtDrNL6Bg2O5m1urhZZWdI1N6oOJRiKOmiANAujND9PuwokSe9c+z/VB/
LIOgf0J4SmThl/gKVkdp/GfoVPJDE79Vb2w75NVDLV2GVp0CAwEAAaOBvTCBujAJ
BgNVHRMEAjAAMB0GA1UdDgQWBBTT/mBIgDMrL8/Kc+zs/umx4B3OWTBRBgNVHSME
SjBIgBRU3nfREkXQaGfhj9sPuDiqb5p5WaEapBgwFjEUMBIGA1UEAwwLdGVhbTIy
OS1uZXSCFCXnPgrb0Ku5/mHhn6399kOyBTZYMBMGA1UdJQQMMAoGCCsGAQUFBwMB
MAsGA1UdDwQEAwIFoDAZBgNVHREEEjAQgg50ZWFtMjI5LXNlcnZlcjANBgkqhkiG
9w0BAQsFAAOCAQEAaLdpawAFA8Pbzeg7RRqFmZDC+prmflTwxtJo7ibQPcrNRnYf
4TtAk3KHdvvKMFRF9jCvMwNv0IF9HE4XfY76Q8tOFMU6h6p5uMzmLpO1zEdd5gi/
8VbXJdL9Q6K/JOeS07Ddy6voobcum0WKKjFcr4EvNzHsUPx2ATdCfq9UgAQY79fG
h8cCBOYKl8gk7wv1M/b2H/QMaglwoRU5H+gGCQGd6iyTuFfB116bJZDuIaD1vYnQ
8tuvMLAJB7Mv9QzSPdEpoEjazTplDmuGzDRc7cjQ1zixUhaYAtguKLBxfrhIHuAT
d+2aOoWf5WNWJKPnyrehdzhW/iByTN3GYwFOAA==
-----END CERTIFICATE-----
