Certificate:
    Data:
        Version: 3 (0x2)
        Serial Number:
            3b:c6:3c:94:2a:22:b5:c4:18:e6:be:bd:2c:6e:cb:ef
        Signature Algorithm: sha256WithRSAEncryption
        Issuer: CN=team422-net
        Validity
            Not Before: Sep 13 02:35:40 2021 GMT
            Not After : Aug 28 02:35:40 2024 GMT
        Subject: CN=team422-server
        Subject Public Key Info:
            Public Key Algorithm: rsaEncryption
                RSA Public-Key: (2048 bit)
                Modulus:
                    00:d4:51:3c:fa:d2:25:39:38:e9:2e:9c:68:5c:07:
                    f8:3c:3f:a3:ef:98:eb:de:95:38:68:9b:d8:b1:2b:
                    68:97:44:7b:fe:75:f8:f9:d9:a9:8b:4f:d1:b8:b0:
                    6b:53:9c:bf:05:e6:66:7f:31:5a:f0:b5:81:8b:31:
                    31:47:03:b5:5b:e3:d7:f1:36:c7:3c:78:4d:e3:7c:
                    e7:ca:b2:f2:c5:82:87:c7:db:c2:ae:a0:8c:58:21:
                    58:96:36:8d:95:47:3e:d7:c0:62:01:af:27:f8:ea:
                    08:22:2d:e9:e6:79:11:58:e0:44:36:fa:87:15:37:
                    1d:89:aa:45:cb:44:c0:c0:59:65:a4:61:50:cd:87:
                    21:22:2e:15:51:6c:dc:5e:9f:cf:a7:d7:3c:ce:64:
                    01:22:fa:f1:8f:5f:10:30:2c:5a:10:ff:33:b7:6c:
                    82:93:4a:de:30:cf:12:1e:fa:71:9e:db:93:b6:35:
                    c3:79:0b:78:e5:d2:49:86:f6:b9:98:f2:00:8d:fd:
                    74:c7:20:23:9a:02:6c:bd:23:19:50:34:d4:54:2f:
                    43:8a:7e:24:b2:b3:9e:61:9b:79:70:c5:8b:35:ab:
                    a3:9a:36:30:6c:47:4f:c8:6f:1e:39:87:d1:4d:2f:
                    f8:39:30:ed:e8:2e:fa:b1:24:b8:79:a6:dd:4b:a4:
                    ff:a3
                Exponent: 65537 (0x10001)
        X509v3 extensions:
            X509v3 Basic Constraints: 
                CA:FALSE
            X509v3 Subject Key Identifier: 
                84:12:0D:0E:FB:37:CC:78:E8:B4:0E:40:28:78:69:1F:13:A8:7C:EA
            X509v3 Authority Key Identifier: 
                keyid:C0:13:39:4B:9D:13:AE:CE:E8:81:D3:D2:A1:D9:98:24:ED:2F:66:18
                DirName:/CN=team422-net
                serial:36:7E:EB:C4:18:E8:85:C8:F4:E3:38:08:A9:26:E5:99:CA:E9:50:76

            X509v3 Extended Key Usage: 
                TLS Web Server Authentication
            X509v3 Key Usage: 
                Digital Signature, Key Encipherment
            X509v3 Subject Alternative Name: 
                DNS:team422-server
    Signature Algorithm: sha256WithRSAEncryption
         38:c1:1a:bb:52:90:33:42:9d:72:78:a1:db:fd:69:0d:6b:19:
         42:a7:6b:1d:28:ca:96:b0:78:d2:30:05:b6:5e:0f:6b:ca:17:
         18:9e:a7:6d:bd:2d:df:4d:39:36:ec:41:9e:18:cc:6e:38:a5:
         6e:5c:ee:a9:5d:f6:70:ce:d2:ff:9e:7b:2f:b2:2b:f6:b3:cd:
         29:00:2e:22:17:6e:68:4f:a9:50:68:f6:4e:46:34:e2:b8:8d:
         46:92:45:8d:5d:37:9c:ef:f8:27:1a:de:7b:aa:7d:89:ef:d2:
         af:df:fc:e1:70:e8:2e:6f:f9:a6:fb:d3:1d:9a:44:e9:ce:c7:
         a4:79:aa:04:f2:90:2d:98:b4:de:50:b5:e7:52:2d:95:13:55:
         51:9f:06:03:c0:bb:a1:ab:ff:41:5c:a0:f4:ab:7b:b4:89:07:
         8c:73:6f:ed:86:e0:c6:12:5d:f2:4d:a5:69:6d:10:07:3e:ac:
         54:4d:95:b7:68:8b:54:e7:e4:db:09:d9:da:b4:a1:95:c9:76:
         45:84:7b:44:ef:67:55:2d:3b:23:50:f1:4b:d5:fb:5b:25:99:
         ef:48:c1:23:e4:8f:27:4c:e0:6a:6a:92:b6:35:e7:2d:3a:86:
         02:90:79:73:c5:ba:e7:36:8d:34:b9:60:76:2a:49:d8:60:46:
         3d:cf:f8:92
-----BEGIN CERTIFICATE-----
MIIDdzCCAl+gAwIBAgIQO8Y8lCoitcQY5r69LG7L7zANBgkqhkiG9w0BAQsFADAW
MRQwEgYDVQQDDAt0ZWFtNDIyLW5ldDAeFw0yMTA5MTMwMjM1NDBaFw0yNDA4Mjgw
MjM1NDBaMBkxFzAVBgNVBAMMDnRlYW00MjItc2VydmVyMIIBIjANBgkqhkiG9w0B
AQEFAAOCAQ8AMIIBCgKCAQEA1FE8+tIlOTjpLpxoXAf4PD+j75jr3pU4aJvYsSto
l0R7/nX4+dmpi0/RuLBrU5y/BeZmfzFa8LWBizExRwO1W+PX8TbHPHhN43znyrLy
xYKHx9vCrqCMWCFYljaNlUc+18BiAa8n+OoIIi3p5nkRWOBENvqHFTcdiapFy0TA
wFllpGFQzYchIi4VUWzcXp/Pp9c8zmQBIvrxj18QMCxaEP8zt2yCk0reMM8SHvpx
ntuTtjXDeQt45dJJhva5mPIAjf10xyAjmgJsvSMZUDTUVC9Din4ksrOeYZt5cMWL
NaujmjYwbEdPyG8eOYfRTS/4OTDt6C76sSS4eabdS6T/owIDAQABo4G9MIG6MAkG
A1UdEwQCMAAwHQYDVR0OBBYEFIQSDQ77N8x46LQOQCh4aR8TqHzqMFEGA1UdIwRK
MEiAFMATOUudE67O6IHT0qHZmCTtL2YYoRqkGDAWMRQwEgYDVQQDDAt0ZWFtNDIy
LW5ldIIUNn7rxBjohcj04zgIqSblmcrpUHYwEwYDVR0lBAwwCgYIKwYBBQUHAwEw
CwYDVR0PBAQDAgWgMBkGA1UdEQQSMBCCDnRlYW00MjItc2VydmVyMA0GCSqGSIb3
DQEBCwUAA4IBAQA4wRq7UpAzQp1yeKHb/WkNaxlCp2sdKMqWsHjSMAW2Xg9ryhcY
nqdtvS3fTTk27EGeGMxuOKVuXO6pXfZwztL/nnsvsiv2s80pAC4iF25oT6lQaPZO
RjTiuI1GkkWNXTec7/gnGt57qn2J79Kv3/zhcOgub/mm+9MdmkTpzsekeaoE8pAt
mLTeULXnUi2VE1VRnwYDwLuhq/9BXKD0q3u0iQeMc2/thuDGEl3yTaVpbRAHPqxU
TZW3aItU5+TbCdnatKGVyXZFhHtE72dVLTsjUPFL1ftbJZnvSMEj5I8nTOBqapK2
NectOoYCkHlzxbrnNo00uWB2KknYYEY9z/iS
-----END CERTIFICATE-----
