Certificate:
    Data:
        Version: 3 (0x2)
        Serial Number:
            2f:b9:07:48:81:e2:05:9b:6f:4c:62:0f:1f:76:09:a3
        Signature Algorithm: sha256WithRSAEncryption
        Issuer: CN=team607-net
        Validity
            Not Before: Sep 13 04:24:08 2021 GMT
            Not After : Aug 28 04:24:08 2024 GMT
        Subject: CN=team607-server
        Subject Public Key Info:
            Public Key Algorithm: rsaEncryption
                RSA Public-Key: (2048 bit)
                Modulus:
                    00:ad:db:96:ac:80:da:8b:91:a2:a6:2b:53:64:1a:
                    94:4a:71:30:ee:ce:42:32:5f:28:66:91:b5:7c:9d:
                    05:5d:8f:e4:44:3e:2d:a5:bc:f9:b4:cf:4f:ac:74:
                    a2:3d:26:9b:62:57:10:a1:4a:6e:09:26:9c:01:cf:
                    6f:77:01:ca:ac:e6:3c:79:7e:1a:3a:74:ac:07:96:
                    c9:cd:57:70:15:9a:d5:17:a4:e3:44:91:75:bc:69:
                    4d:22:cd:ae:ae:a1:4f:6e:cd:6a:86:3d:34:6b:11:
                    d1:02:b1:15:89:e0:24:39:98:ec:cd:6c:98:53:b7:
                    a6:83:40:0b:05:c6:47:4b:e5:47:97:7d:78:17:01:
                    e9:c9:01:7b:75:55:07:72:a9:79:43:81:f5:9c:95:
                    3b:c7:76:c2:f2:f5:93:ff:fb:d6:ba:cf:ce:31:19:
                    6a:e8:ff:d3:fd:20:87:93:2a:e2:66:9f:d8:21:5a:
                    17:21:fd:09:6e:b0:38:92:c4:92:d6:10:6d:25:c1:
                    4b:ae:2b:b6:0e:64:3c:3a:d5:9e:e4:53:97:48:eb:
                    36:ad:39:ac:35:80:00:45:69:65:cc:67:ab:a2:73:
                    b5:f2:4b:69:e9:84:7c:4e:ee:4b:72:b2:e2:56:31:
                    53:ba:0e:e5:4e:e5:ac:ec:17:d6:36:c3:cf:11:a0:
                    33:9b
                Exponent: 65537 (0x10001)
        X509v3 extensions:
            X509v3 Basic Constraints: 
                CA:FALSE
            X509v3 Subject Key Identifier: 
                A4:9D:9D:D1:E3:8E:DD:E0:0F:26:B0:1B:82:2E:5B:A1:B7:B4:9F:46
            X509v3 Authority Key Identifier: 
                keyid:31:1B:8D:9A:82:5D:42:07:D1:0D:5F:75:C5:B1:90:44:2E:07:F1:2C
                DirName:/CN=team607-net
                serial:20:3F:BA:41:0C:E7:3C:2D:CE:ED:7F:85:5E:43:23:0C:E2:EC:25:B3

            X509v3 Extended Key Usage: 
                TLS Web Server Authentication
            X509v3 Key Usage: 
                Digital Signature, Key Encipherment
            X509v3 Subject Alternative Name: 
                DNS:team607-server
    Signature Algorithm: sha256WithRSAEncryption
         8c:ff:48:04:a0:a3:e8:24:01:4e:52:54:a3:f3:b3:21:51:1b:
         bc:a3:60:7f:1c:d2:3b:5f:cb:39:b1:d4:36:23:33:fa:e9:cb:
         5f:c2:25:a1:5f:46:0a:c6:0c:10:3d:d0:ed:06:1c:e1:d2:69:
         29:f0:69:40:61:49:ea:61:b2:c3:00:0a:a5:b3:8a:c6:e3:7b:
         4a:ea:80:47:57:45:a6:5a:3a:a0:fd:1c:3f:89:75:df:6f:f0:
         fe:25:ed:9c:eb:1f:15:72:37:6b:42:5c:bb:6d:9f:6a:13:a6:
         9c:16:b9:85:7c:6c:41:a9:89:00:53:67:a0:e0:a4:9b:bd:81:
         21:56:e3:1a:a1:5f:c1:ec:11:27:a7:8a:60:6f:01:3e:c3:1e:
         25:ae:30:6a:5f:15:b3:40:b3:55:e8:09:b6:4f:97:ea:2c:2e:
         c3:bc:3d:6b:84:f5:49:5e:24:4b:d2:1e:94:e0:4a:4b:81:17:
         4f:08:02:23:31:30:c7:c3:66:ff:34:d4:1d:05:66:d5:28:48:
         81:9c:92:a7:25:fa:0f:02:d0:12:4a:e7:41:f2:96:39:04:79:
         2b:7e:7b:e3:b3:1d:74:d7:d0:38:ec:3c:55:08:8a:64:57:bf:
         9f:c5:49:fb:8d:a7:f9:90:97:20:eb:73:a6:14:c2:50:d9:33:
         37:1b:6f:06
-----BEGIN CERTIFICATE-----
MIIDdzCCAl+gAwIBAgIQL7kHSIHiBZtvTGIPH3YJozANBgkqhkiG9w0BAQsFADAW
MRQwEgYDVQQDDAt0ZWFtNjA3LW5ldDAeFw0yMTA5MTMwNDI0MDhaFw0yNDA4Mjgw
NDI0MDhaMBkxFzAVBgNVBAMMDnRlYW02MDctc2VydmVyMIIBIjANBgkqhkiG9w0B
AQEFAAOCAQ8AMIIBCgKCAQEArduWrIDai5GipitTZBqUSnEw7s5CMl8oZpG1fJ0F
XY/kRD4tpbz5tM9PrHSiPSabYlcQoUpuCSacAc9vdwHKrOY8eX4aOnSsB5bJzVdw
FZrVF6TjRJF1vGlNIs2urqFPbs1qhj00axHRArEVieAkOZjszWyYU7emg0ALBcZH
S+VHl314FwHpyQF7dVUHcql5Q4H1nJU7x3bC8vWT//vWus/OMRlq6P/T/SCHkyri
Zp/YIVoXIf0JbrA4ksSS1hBtJcFLriu2DmQ8OtWe5FOXSOs2rTmsNYAARWllzGer
onO18ktp6YR8Tu5LcrLiVjFTug7lTuWs7BfWNsPPEaAzmwIDAQABo4G9MIG6MAkG
A1UdEwQCMAAwHQYDVR0OBBYEFKSdndHjjt3gDyawG4IuW6G3tJ9GMFEGA1UdIwRK
MEiAFDEbjZqCXUIH0Q1fdcWxkEQuB/EsoRqkGDAWMRQwEgYDVQQDDAt0ZWFtNjA3
LW5ldIIUID+6QQznPC3O7X+FXkMjDOLsJbMwEwYDVR0lBAwwCgYIKwYBBQUHAwEw
CwYDVR0PBAQDAgWgMBkGA1UdEQQSMBCCDnRlYW02MDctc2VydmVyMA0GCSqGSIb3
DQEBCwUAA4IBAQCM/0gEoKPoJAFOUlSj87MhURu8o2B/HNI7X8s5sdQ2IzP66ctf
wiWhX0YKxgwQPdDtBhzh0mkp8GlAYUnqYbLDAAqls4rG43tK6oBHV0WmWjqg/Rw/
iXXfb/D+Je2c6x8VcjdrQly7bZ9qE6acFrmFfGxBqYkAU2eg4KSbvYEhVuMaoV/B
7BEnp4pgbwE+wx4lrjBqXxWzQLNV6Am2T5fqLC7DvD1rhPVJXiRL0h6U4EpLgRdP
CAIjMTDHw2b/NNQdBWbVKEiBnJKnJfoPAtASSudB8pY5BHkrfnvjsx1019A47DxV
CIpkV7+fxUn7jaf5kJcg63OmFMJQ2TM3G28G
-----END CERTIFICATE-----
