Certificate:
    Data:
        Version: 3 (0x2)
        Serial Number:
            e3:a5:10:36:9f:c3:1d:9a:7c:9f:c3:10:f2:3d:eb:2d
        Signature Algorithm: sha256WithRSAEncryption
        Issuer: CN=team193-net
        Validity
            Not Before: Sep 13 00:33:26 2021 GMT
            Not After : Aug 28 00:33:26 2024 GMT
        Subject: CN=team193-client
        Subject Public Key Info:
            Public Key Algorithm: rsaEncryption
                RSA Public-Key: (2048 bit)
                Modulus:
                    00:e4:4a:16:5a:f4:29:36:38:3d:6f:1d:b9:02:02:
                    b1:51:b6:9d:22:60:19:d1:16:c2:a8:31:bb:cb:be:
                    fe:b0:ed:6e:94:7b:4f:51:60:ef:4d:cc:bd:9d:9f:
                    cb:78:df:f0:cc:d3:e6:1f:7b:22:50:d5:8d:8a:fb:
                    68:20:be:b9:91:7f:02:b0:78:8a:5c:bb:d8:ef:e4:
                    c1:6f:12:0a:d4:54:84:60:bb:d0:55:01:b5:53:05:
                    96:20:fc:47:3d:ad:27:ce:08:25:32:95:c5:b1:a8:
                    ce:83:d1:3f:30:ed:1b:ca:60:d6:49:3a:d8:d7:d3:
                    da:f1:3f:5e:1e:67:3d:ba:04:02:74:91:7b:a9:40:
                    f7:c9:5b:93:79:22:31:a2:71:82:4f:da:4d:66:b3:
                    61:e1:02:0e:52:87:54:f8:eb:65:f6:9a:35:56:20:
                    75:c8:66:da:31:96:19:a0:cf:96:e2:d7:40:44:8d:
                    c1:af:d4:09:0a:39:93:87:2d:bf:bb:2a:a5:94:34:
                    ea:fa:26:74:b3:2b:72:7b:4c:dd:89:47:b8:70:da:
                    5d:0c:ec:16:d6:61:97:ec:57:60:dd:e0:e0:23:0d:
                    64:38:cf:b2:76:0a:71:ee:03:8a:6c:b9:a5:0a:c3:
                    f1:67:36:49:43:88:03:2e:f3:67:6d:1e:d5:ac:e7:
                    b8:3f
                Exponent: 65537 (0x10001)
        X509v3 extensions:
            X509v3 Basic Constraints: 
                CA:FALSE
            X509v3 Subject Key Identifier: 
                C9:5C:65:23:E1:78:81:D6:FF:FB:EA:97:3A:A3:81:6E:4D:5C:21:E3
            X509v3 Authority Key Identifier: 
                keyid:C4:60:67:04:09:7A:3D:29:4D:4E:8B:D0:A3:02:E9:DB:3F:F8:F3:04
                DirName:/CN=team193-net
                serial:63:D0:02:B9:FD:A8:C8:E9:52:C9:97:D7:76:A5:08:DB:FF:20:15:96

            X509v3 Extended Key Usage: 
                TLS Web Client Authentication
            X509v3 Key Usage: 
                Digital Signature
    Signature Algorithm: sha256WithRSAEncryption
         11:69:73:f3:78:7f:54:d5:04:39:4e:34:ae:78:38:61:ed:6a:
         ca:45:fe:6b:ec:3b:28:be:ee:61:67:84:54:f9:af:b5:b6:9e:
         27:16:71:62:79:d4:4d:44:c0:21:ce:6b:d9:b0:b8:5d:57:fe:
         0c:f8:e8:cf:31:ad:2a:21:51:ac:9f:d8:a2:66:f6:83:c4:77:
         aa:9b:6c:24:19:3e:ad:fd:41:6a:ed:54:68:04:87:21:d8:1a:
         3d:55:3c:3d:d7:81:b5:f2:38:a1:93:87:b5:bb:0b:38:35:47:
         33:4a:f0:69:58:aa:f6:cb:20:75:29:00:7e:ed:5f:e4:dd:bd:
         f4:fc:78:66:8e:fe:f6:f4:3f:97:37:fe:8d:59:29:ae:f1:57:
         37:64:c0:6a:53:e2:28:d7:9f:79:6a:4f:24:81:e9:e6:ea:83:
         4b:18:59:62:69:3d:18:f0:96:43:ce:d1:84:b9:89:52:12:89:
         e0:64:0a:f9:29:c7:64:f9:04:04:b5:f0:7d:ff:46:ff:58:61:
         0d:90:7a:e4:d7:f6:65:c8:dc:7c:5a:4d:ba:37:50:82:9b:9a:
         a8:b3:f2:5f:89:b6:0e:40:e8:e3:cf:0d:a4:e4:6c:59:43:ca:
         6c:ea:25:f5:f8:41:97:83:f2:37:9e:79:e5:fa:fd:24:bc:13:
         3b:87:38:b5
-----BEGIN CERTIFICATE-----
MIIDXTCCAkWgAwIBAgIRAOOlEDafwx2afJ/DEPI96y0wDQYJKoZIhvcNAQELBQAw
FjEUMBIGA1UEAwwLdGVhbTE5My1uZXQwHhcNMjEwOTEzMDAzMzI2WhcNMjQwODI4
MDAzMzI2WjAZMRcwFQYDVQQDDA50ZWFtMTkzLWNsaWVudDCCASIwDQYJKoZIhvcN
AQEBBQADggEPADCCAQoCggEBAORKFlr0KTY4PW8duQICsVG2nSJgGdEWwqgxu8u+
/rDtbpR7T1Fg703MvZ2fy3jf8MzT5h97IlDVjYr7aCC+uZF/ArB4ily72O/kwW8S
CtRUhGC70FUBtVMFliD8Rz2tJ84IJTKVxbGozoPRPzDtG8pg1kk62NfT2vE/Xh5n
PboEAnSRe6lA98lbk3kiMaJxgk/aTWazYeECDlKHVPjrZfaaNVYgdchm2jGWGaDP
luLXQESNwa/UCQo5k4ctv7sqpZQ06vomdLMrcntM3YlHuHDaXQzsFtZhl+xXYN3g
4CMNZDjPsnYKce4Dimy5pQrD8Wc2SUOIAy7zZ20e1aznuD8CAwEAAaOBojCBnzAJ
BgNVHRMEAjAAMB0GA1UdDgQWBBTJXGUj4XiB1v/76pc6o4FuTVwh4zBRBgNVHSME
SjBIgBTEYGcECXo9KU1Oi9CjAunbP/jzBKEapBgwFjEUMBIGA1UEAwwLdGVhbTE5
My1uZXSCFGPQArn9qMjpUsmX13alCNv/IBWWMBMGA1UdJQQMMAoGCCsGAQUFBwMC
MAsGA1UdDwQEAwIHgDANBgkqhkiG9w0BAQsFAAOCAQEAEWlz83h/VNUEOU40rng4
Ye1qykX+a+w7KL7uYWeEVPmvtbaeJxZxYnnUTUTAIc5r2bC4XVf+DPjozzGtKiFR
rJ/Yomb2g8R3qptsJBk+rf1Bau1UaASHIdgaPVU8PdeBtfI4oZOHtbsLODVHM0rw
aViq9ssgdSkAfu1f5N299Px4Zo7+9vQ/lzf+jVkprvFXN2TAalPiKNefeWpPJIHp
5uqDSxhZYmk9GPCWQ87RhLmJUhKJ4GQK+SnHZPkEBLXwff9G/1hhDZB65Nf2Zcjc
fFpNujdQgpuaqLPyX4m2DkDo488NpORsWUPKbOol9fhBl4PyN5555fr9JLwTO4c4
tQ==
-----END CERTIFICATE-----
