Certificate:
    Data:
        Version: 3 (0x2)
        Serial Number:
            f8:3b:1c:5f:d0:f9:b2:54:b0:2c:7a:76:c7:5c:83:59
        Signature Algorithm: sha256WithRSAEncryption
        Issuer: CN=team612-net
        Validity
            Not Before: Sep 13 04:06:10 2021 GMT
            Not After : Aug 28 04:06:10 2024 GMT
        Subject: CN=team612-server
        Subject Public Key Info:
            Public Key Algorithm: rsaEncryption
                RSA Public-Key: (2048 bit)
                Modulus:
                    00:ee:8b:24:7a:27:3a:30:bd:4c:31:cd:57:5c:db:
                    da:9f:a0:83:da:ef:49:7e:cf:94:c7:5f:5b:c9:06:
                    66:3b:d6:9c:dd:74:db:df:d1:01:1f:70:41:3f:e0:
                    30:44:c7:80:0e:19:3d:0c:37:51:33:20:1e:86:c8:
                    e4:ea:36:ba:0c:ff:c2:d5:47:db:91:49:00:a8:1b:
                    d5:9f:f1:3b:1c:bf:52:09:23:f2:d4:da:45:53:3d:
                    6b:38:52:42:c5:14:e3:b8:c7:76:d9:df:c2:49:0c:
                    dc:5b:77:a3:e7:46:91:40:ab:6b:79:54:d1:9f:b4:
                    6c:d1:a6:e7:e9:66:02:43:cd:dd:f5:11:a0:ec:28:
                    ac:27:e3:49:a1:b9:9c:c8:44:4f:ee:cd:3d:0b:43:
                    68:ad:90:40:24:37:c0:84:d6:37:a0:3f:e1:93:07:
                    b4:b2:0e:7f:a0:af:ef:0b:df:86:80:cf:e2:9f:ef:
                    7b:e0:c4:6b:a4:f2:2f:5a:95:17:97:e2:d6:bb:7e:
                    d0:6f:31:d5:a0:96:0e:d4:91:d7:51:60:84:5c:cc:
                    04:d6:c4:95:64:71:2d:41:ee:3d:2e:1a:e9:2e:86:
                    03:68:d3:85:03:e4:1d:d7:01:12:ba:98:08:51:a9:
                    88:55:f0:ca:0d:d3:5c:bc:e5:bd:b3:43:9c:21:7c:
                    15:87
                Exponent: 65537 (0x10001)
        X509v3 extensions:
            X509v3 Basic Constraints: 
                CA:FALSE
            X509v3 Subject Key Identifier: 
                1E:8E:C9:59:37:7F:16:F9:1E:D9:02:D3:36:0F:75:17:2A:C4:AD:09
            X509v3 Authority Key Identifier: 
                keyid:50:76:B5:35:25:C7:D6:15:68:15:B4:46:CB:85:00:45:93:AF:AE:EB
                DirName:/CN=team612-net
                serial:06:AD:17:FA:3A:5E:32:4F:13:56:D8:86:C8:3D:C4:6B:C4:28:D6:E9

            X509v3 Extended Key Usage: 
                TLS Web Server Authentication
            X509v3 Key Usage: 
                Digital Signature, Key Encipherment
            X509v3 Subject Alternative Name: 
                DNS:team612-server
    Signature Algorithm: sha256WithRSAEncryption
         a5:65:ee:8c:11:35:dd:b9:b8:fb:90:bb:a9:a8:20:68:be:81:
         72:cf:c5:9b:0c:2f:37:c9:ba:17:d5:1c:7f:9a:fa:46:41:f7:
         f1:c4:d6:22:16:9f:1c:58:e8:aa:88:4d:a5:bf:da:71:8f:dd:
         3c:c2:19:94:5b:34:a4:7f:33:05:05:f1:fe:bc:9d:51:44:1f:
         62:76:91:7a:64:44:5c:41:a0:bf:13:b2:c2:70:1f:41:3f:92:
         ff:ab:38:82:9d:49:57:fa:cb:c2:2c:a8:67:8e:d2:68:cc:98:
         af:01:4a:29:e3:f3:8d:00:8b:95:25:29:2a:52:b2:fb:ea:87:
         3b:f4:89:b5:d3:09:35:97:5d:f1:90:21:b1:f9:6f:5a:46:a3:
         99:b1:91:12:9a:dc:fd:94:08:a1:c1:bb:76:f6:f7:03:e3:4e:
         f1:7b:d6:5f:62:d1:7c:de:7b:a1:6b:bb:5f:00:ec:67:6c:b9:
         09:2c:ce:23:18:f7:31:5d:42:75:58:62:87:2e:03:97:38:50:
         01:dd:83:af:48:78:a3:83:1b:44:59:d8:0c:6a:91:e7:7b:34:
         7d:48:12:cc:f2:a1:34:19:47:9e:a3:4b:53:69:f1:8d:ac:11:
         ff:43:bc:cd:a4:58:c4:0a:2b:9b:93:cd:f7:a7:48:b2:74:11:
         44:d7:6a:b5
-----BEGIN CERTIFICATE-----
MIIDeDCCAmCgAwIBAgIRAPg7HF/Q+bJUsCx6dsdcg1kwDQYJKoZIhvcNAQELBQAw
FjEUMBIGA1UEAwwLdGVhbTYxMi1uZXQwHhcNMjEwOTEzMDQwNjEwWhcNMjQwODI4
MDQwNjEwWjAZMRcwFQYDVQQDDA50ZWFtNjEyLXNlcnZlcjCCASIwDQYJKoZIhvcN
AQEBBQADggEPADCCAQoCggEBAO6LJHonOjC9TDHNV1zb2p+gg9rvSX7PlMdfW8kG
ZjvWnN1029/RAR9wQT/gMETHgA4ZPQw3UTMgHobI5Oo2ugz/wtVH25FJAKgb1Z/x
Oxy/Ugkj8tTaRVM9azhSQsUU47jHdtnfwkkM3Ft3o+dGkUCra3lU0Z+0bNGm5+lm
AkPN3fURoOworCfjSaG5nMhET+7NPQtDaK2QQCQ3wITWN6A/4ZMHtLIOf6Cv7wvf
hoDP4p/ve+DEa6TyL1qVF5fi1rt+0G8x1aCWDtSR11FghFzMBNbElWRxLUHuPS4a
6S6GA2jThQPkHdcBErqYCFGpiFXwyg3TXLzlvbNDnCF8FYcCAwEAAaOBvTCBujAJ
BgNVHRMEAjAAMB0GA1UdDgQWBBQejslZN38W+R7ZAtM2D3UXKsStCTBRBgNVHSME
SjBIgBRQdrU1JcfWFWgVtEbLhQBFk6+u66EapBgwFjEUMBIGA1UEAwwLdGVhbTYx
Mi1uZXSCFAatF/o6XjJPE1bYhsg9xGvEKNbpMBMGA1UdJQQMMAoGCCsGAQUFBwMB
MAsGA1UdDwQEAwIFoDAZBgNVHREEEjAQgg50ZWFtNjEyLXNlcnZlcjANBgkqhkiG
9w0BAQsFAAOCAQEApWXujBE13bm4+5C7qaggaL6Bcs/FmwwvN8m6F9Ucf5r6RkH3
8cTWIhafHFjoqohNpb/acY/dPMIZlFs0pH8zBQXx/rydUUQfYnaRemREXEGgvxOy
wnAfQT+S/6s4gp1JV/rLwiyoZ47SaMyYrwFKKePzjQCLlSUpKlKy++qHO/SJtdMJ
NZdd8ZAhsflvWkajmbGREprc/ZQIocG7dvb3A+NO8XvWX2LRfN57oWu7XwDsZ2y5
CSzOIxj3MV1CdVhihy4DlzhQAd2Dr0h4o4MbRFnYDGqR53s0fUgSzPKhNBlHnqNL
U2nxjawR/0O8zaRYxAorm5PN96dIsnQRRNdqtQ==
-----END CERTIFICATE-----
