Certificate:
    Data:
        Version: 3 (0x2)
        Serial Number:
            10:59:05:8c:38:1c:b4:f3:df:8e:0a:8c:67:8a:46:25
        Signature Algorithm: sha256WithRSAEncryption
        Issuer: CN=team415-net
        Validity
            Not Before: Sep 13 02:32:31 2021 GMT
            Not After : Aug 28 02:32:31 2024 GMT
        Subject: CN=team415-client
        Subject Public Key Info:
            Public Key Algorithm: rsaEncryption
                RSA Public-Key: (2048 bit)
                Modulus:
                    00:a7:c2:e8:c7:f1:7d:b0:39:90:db:ea:13:35:16:
                    2b:42:f3:12:76:c2:a8:38:ba:d5:f2:4a:4a:16:f9:
                    af:bb:18:15:2d:05:58:d6:1d:81:eb:f9:41:27:58:
                    dd:b1:80:5f:2e:f4:20:db:ef:28:84:c8:8d:da:ee:
                    24:bb:55:f2:af:e3:44:54:e5:95:c8:5d:8b:1f:7d:
                    50:3a:dd:9c:0f:b4:5b:bb:25:a0:19:87:89:39:ad:
                    57:41:f6:4a:38:ef:8c:ca:22:48:76:c3:c3:3e:13:
                    8a:b8:8e:36:c1:48:bd:ef:3b:87:e9:16:f1:11:49:
                    2b:60:dc:26:52:0f:2a:3f:83:cc:f4:2c:96:aa:bb:
                    3d:62:b7:06:5f:87:9d:68:29:1c:78:09:92:79:36:
                    70:f9:14:08:30:77:f0:7d:38:4c:c7:4c:8e:10:39:
                    c0:09:3b:8b:fb:b4:5b:d6:40:32:64:19:7f:bb:2e:
                    80:18:a6:41:48:d0:78:16:2e:72:be:04:da:fd:d7:
                    ec:52:2e:ef:72:15:b1:d4:5a:fe:45:fa:b1:f2:d2:
                    c1:92:97:27:ae:e4:9c:29:89:d3:00:89:4c:0f:27:
                    fa:61:ba:4a:c8:b5:db:22:ea:53:9b:1b:cd:90:0e:
                    54:97:58:f7:a5:47:4f:cc:16:c5:14:16:26:86:78:
                    e0:1d
                Exponent: 65537 (0x10001)
        X509v3 extensions:
            X509v3 Basic Constraints: 
                CA:FALSE
            X509v3 Subject Key Identifier: 
                E8:57:A4:EF:7A:0A:F6:1D:68:8E:80:01:BF:9B:AE:A2:55:D7:97:7D
            X509v3 Authority Key Identifier: 
                keyid:28:DA:AC:01:4F:6A:8A:06:DB:CD:14:F0:6D:E1:29:A2:E1:F1:F0:1C
                DirName:/CN=team415-net
                serial:0E:9F:F7:17:3D:15:D9:0C:48:67:12:70:C3:0C:F4:AE:88:20:EB:72

            X509v3 Extended Key Usage: 
                TLS Web Client Authentication
            X509v3 Key Usage: 
                Digital Signature
    Signature Algorithm: sha256WithRSAEncryption
         2a:16:ee:4c:cf:90:fd:bb:4c:94:a2:c8:8b:08:89:85:12:a9:
         d6:23:43:f6:cd:70:bd:d7:74:d6:90:b3:87:bf:bc:de:b8:fc:
         3d:84:5e:c1:e4:cc:93:8d:08:af:df:aa:e4:22:7c:94:cf:6e:
         aa:b6:03:e1:79:d8:d1:54:bd:f9:9f:57:04:64:85:cb:d0:bc:
         0c:a9:38:ec:96:b7:8d:a8:54:f0:5e:79:e2:af:8c:ea:59:c1:
         bb:02:65:96:7a:d3:bf:88:5f:16:05:dc:65:3b:57:b4:6e:6a:
         d1:0f:86:0a:24:d7:bf:d9:41:1f:4d:b2:70:46:11:53:cc:d5:
         64:25:3a:46:93:90:88:d9:90:13:38:d6:ad:77:75:c0:4f:ec:
         48:14:0c:2c:2c:31:b5:6d:f1:9b:94:9b:67:a7:63:c8:41:60:
         72:4d:34:46:84:b9:6e:7e:42:86:f3:a1:b4:20:4b:4f:a7:24:
         5c:11:a0:58:2b:3f:50:f9:dd:9f:74:96:c0:17:99:7b:8a:32:
         89:85:fa:97:11:db:f2:89:54:e1:0d:f4:f6:1e:f2:75:70:98:
         08:33:0f:ee:4b:55:c6:dc:8e:b8:49:fb:64:d5:8f:fe:4b:f5:
         38:6b:6a:cb:b5:50:a8:aa:4e:0b:82:f9:31:54:1c:5f:0d:62:
         06:d7:26:6d
-----BEGIN CERTIFICATE-----
MIIDXDCCAkSgAwIBAgIQEFkFjDgctPPfjgqMZ4pGJTANBgkqhkiG9w0BAQsFADAW
MRQwEgYDVQQDDAt0ZWFtNDE1LW5ldDAeFw0yMTA5MTMwMjMyMzFaFw0yNDA4Mjgw
MjMyMzFaMBkxFzAVBgNVBAMMDnRlYW00MTUtY2xpZW50MIIBIjANBgkqhkiG9w0B
AQEFAAOCAQ8AMIIBCgKCAQEAp8Lox/F9sDmQ2+oTNRYrQvMSdsKoOLrV8kpKFvmv
uxgVLQVY1h2B6/lBJ1jdsYBfLvQg2+8ohMiN2u4ku1Xyr+NEVOWVyF2LH31QOt2c
D7RbuyWgGYeJOa1XQfZKOO+MyiJIdsPDPhOKuI42wUi97zuH6RbxEUkrYNwmUg8q
P4PM9CyWqrs9YrcGX4edaCkceAmSeTZw+RQIMHfwfThMx0yOEDnACTuL+7Rb1kAy
ZBl/uy6AGKZBSNB4Fi5yvgTa/dfsUi7vchWx1Fr+Rfqx8tLBkpcnruScKYnTAIlM
Dyf6YbpKyLXbIupTmxvNkA5Ul1j3pUdPzBbFFBYmhnjgHQIDAQABo4GiMIGfMAkG
A1UdEwQCMAAwHQYDVR0OBBYEFOhXpO96CvYdaI6AAb+brqJV15d9MFEGA1UdIwRK
MEiAFCjarAFPaooG280U8G3hKaLh8fAcoRqkGDAWMRQwEgYDVQQDDAt0ZWFtNDE1
LW5ldIIUDp/3Fz0V2QxIZxJwwwz0rogg63IwEwYDVR0lBAwwCgYIKwYBBQUHAwIw
CwYDVR0PBAQDAgeAMA0GCSqGSIb3DQEBCwUAA4IBAQAqFu5Mz5D9u0yUosiLCImF
EqnWI0P2zXC913TWkLOHv7zeuPw9hF7B5MyTjQiv36rkInyUz26qtgPhedjRVL35
n1cEZIXL0LwMqTjslreNqFTwXnnir4zqWcG7AmWWetO/iF8WBdxlO1e0bmrRD4YK
JNe/2UEfTbJwRhFTzNVkJTpGk5CI2ZATONatd3XAT+xIFAwsLDG1bfGblJtnp2PI
QWByTTRGhLlufkKG86G0IEtPpyRcEaBYKz9Q+d2fdJbAF5l7ijKJhfqXEdvyiVTh
DfT2HvJ1cJgIMw/uS1XG3I64Sftk1Y/+S/U4a2rLtVCoqk4LgvkxVBxfDWIG1yZt
-----END CERTIFICATE-----
