Certificate:
    Data:
        Version: 3 (0x2)
        Serial Number:
            f5:c8:1c:3e:b6:aa:04:0b:af:1c:d0:72:d2:06:5a:8a
        Signature Algorithm: sha256WithRSAEncryption
        Issuer: CN=team415-net
        Validity
            Not Before: Sep 13 02:32:31 2021 GMT
            Not After : Aug 28 02:32:31 2024 GMT
        Subject: CN=team415-server
        Subject Public Key Info:
            Public Key Algorithm: rsaEncryption
                RSA Public-Key: (2048 bit)
                Modulus:
                    00:d0:45:fb:09:b7:59:cb:78:bb:79:f9:84:6c:cd:
                    4e:65:32:33:7b:bf:a6:2b:ec:a8:d1:83:6b:72:c9:
                    47:f0:7e:3e:09:46:d9:b3:38:ef:80:f8:10:ff:78:
                    50:f2:d0:8a:c2:c4:5d:9b:97:f8:17:85:c4:fb:b5:
                    3f:d2:af:07:72:75:95:40:0f:3c:c2:c0:af:e0:85:
                    06:30:be:f9:63:92:67:ce:db:a8:cc:cc:3c:6c:5e:
                    13:9d:2a:2f:a3:36:f8:4b:bf:9a:3e:f9:7f:da:bf:
                    b3:5e:b5:d5:4f:8b:a7:9f:7c:5a:84:b0:ff:bb:4d:
                    49:d9:ad:5f:54:0a:80:d7:1c:91:57:5c:5e:8d:04:
                    c8:ff:f1:a9:96:38:74:71:23:39:a5:fc:22:fc:7f:
                    f3:cf:f2:b5:62:74:6c:0e:4c:0a:2d:ba:d6:e6:2c:
                    89:5f:11:b9:4f:d4:4b:17:40:51:ca:d2:47:e2:79:
                    8c:3b:1c:18:f7:28:9b:f5:48:42:ef:66:f1:3d:e1:
                    bd:a5:2d:a2:a1:6f:4b:10:77:43:9b:3f:0e:8e:1d:
                    21:98:8d:99:8c:a0:74:4c:c8:c0:5f:b7:1e:d7:8b:
                    b3:81:cc:b0:73:5f:9b:6a:de:b0:68:16:22:46:be:
                    e4:e6:82:2f:99:09:5d:76:6f:d2:84:24:f3:a7:bd:
                    0e:dd
                Exponent: 65537 (0x10001)
        X509v3 extensions:
            X509v3 Basic Constraints: 
                CA:FALSE
            X509v3 Subject Key Identifier: 
                50:E9:1E:C5:F3:63:17:0B:C8:E7:85:32:19:F8:AA:F8:51:5A:FA:20
            X509v3 Authority Key Identifier: 
                keyid:28:DA:AC:01:4F:6A:8A:06:DB:CD:14:F0:6D:E1:29:A2:E1:F1:F0:1C
                DirName:/CN=team415-net
                serial:0E:9F:F7:17:3D:15:D9:0C:48:67:12:70:C3:0C:F4:AE:88:20:EB:72

            X509v3 Extended Key Usage: 
                TLS Web Server Authentication
            X509v3 Key Usage: 
                Digital Signature, Key Encipherment
            X509v3 Subject Alternative Name: 
                DNS:team415-server
    Signature Algorithm: sha256WithRSAEncryption
         8e:5b:a3:df:f5:2e:5d:af:df:06:6e:7d:2b:fe:aa:a8:20:2e:
         16:f9:8c:71:61:4d:e6:d2:ee:3e:75:e3:fa:ae:b8:c1:9b:23:
         b7:bd:cd:ae:2b:68:3a:f4:d3:84:8a:fa:15:2a:17:eb:e1:ea:
         c8:0d:d4:a7:90:64:e7:96:43:df:95:ba:c9:d2:70:4e:f6:64:
         54:24:03:c0:38:2a:cc:1b:53:92:c8:dd:18:76:56:c9:2b:32:
         4a:b4:24:e0:e0:a7:65:86:d8:b7:4b:ba:1d:f8:5d:43:d1:08:
         78:aa:90:52:d6:b9:be:d8:da:e2:0e:a5:da:95:a7:e8:fc:12:
         e8:df:80:04:9d:7f:d5:d3:ba:ca:90:a1:f7:31:66:d1:7b:82:
         bf:67:c0:95:78:50:37:b2:20:f9:79:14:ce:e9:29:ed:39:18:
         7c:1c:cb:34:78:89:9f:92:0f:12:ea:f5:0c:f6:e6:3f:57:83:
         89:28:fe:b5:fa:dc:c3:61:5b:23:4c:3f:ef:9b:6c:70:8a:8b:
         30:4a:6d:48:30:5c:dc:77:72:93:d8:bd:f7:99:85:01:50:7a:
         d0:47:13:cf:f3:3e:72:cd:a0:f3:94:78:f8:10:b3:58:d1:d5:
         60:8a:c7:77:84:d7:01:b2:6f:08:54:e8:82:ea:0a:4c:1c:56:
         17:db:36:3f
-----BEGIN CERTIFICATE-----
MIIDeDCCAmCgAwIBAgIRAPXIHD62qgQLrxzQctIGWoowDQYJKoZIhvcNAQELBQAw
FjEUMBIGA1UEAwwLdGVhbTQxNS1uZXQwHhcNMjEwOTEzMDIzMjMxWhcNMjQwODI4
MDIzMjMxWjAZMRcwFQYDVQQDDA50ZWFtNDE1LXNlcnZlcjCCASIwDQYJKoZIhvcN
AQEBBQADggEPADCCAQoCggEBANBF+wm3Wct4u3n5hGzNTmUyM3u/pivsqNGDa3LJ
R/B+PglG2bM474D4EP94UPLQisLEXZuX+BeFxPu1P9KvB3J1lUAPPMLAr+CFBjC+
+WOSZ87bqMzMPGxeE50qL6M2+Eu/mj75f9q/s1611U+Lp598WoSw/7tNSdmtX1QK
gNcckVdcXo0EyP/xqZY4dHEjOaX8Ivx/88/ytWJ0bA5MCi261uYsiV8RuU/USxdA
UcrSR+J5jDscGPcom/VIQu9m8T3hvaUtoqFvSxB3Q5s/Do4dIZiNmYygdEzIwF+3
HteLs4HMsHNfm2resGgWIka+5OaCL5kJXXZv0oQk86e9Dt0CAwEAAaOBvTCBujAJ
BgNVHRMEAjAAMB0GA1UdDgQWBBRQ6R7F82MXC8jnhTIZ+Kr4UVr6IDBRBgNVHSME
SjBIgBQo2qwBT2qKBtvNFPBt4Smi4fHwHKEapBgwFjEUMBIGA1UEAwwLdGVhbTQx
NS1uZXSCFA6f9xc9FdkMSGcScMMM9K6IIOtyMBMGA1UdJQQMMAoGCCsGAQUFBwMB
MAsGA1UdDwQEAwIFoDAZBgNVHREEEjAQgg50ZWFtNDE1LXNlcnZlcjANBgkqhkiG
9w0BAQsFAAOCAQEAjluj3/UuXa/fBm59K/6qqCAuFvmMcWFN5tLuPnXj+q64wZsj
t73NritoOvTThIr6FSoX6+HqyA3Up5Bk55ZD35W6ydJwTvZkVCQDwDgqzBtTksjd
GHZWySsySrQk4OCnZYbYt0u6HfhdQ9EIeKqQUta5vtja4g6l2pWn6PwS6N+ABJ1/
1dO6ypCh9zFm0XuCv2fAlXhQN7Ig+XkUzukp7TkYfBzLNHiJn5IPEur1DPbmP1eD
iSj+tfrcw2FbI0w/75tscIqLMEptSDBc3Hdyk9i995mFAVB60EcTz/M+cs2g85R4
+BCzWNHVYIrHd4TXAbJvCFToguoKTBxWF9s2Pw==
-----END CERTIFICATE-----
