Certificate:
    Data:
        Version: 3 (0x2)
        Serial Number:
            14:f1:6f:2b:1d:61:38:92:38:65:e8:13:59:3a:db:15
        Signature Algorithm: sha256WithRSAEncryption
        Issuer: CN=team194-net
        Validity
            Not Before: Sep 13 00:33:48 2021 GMT
            Not After : Aug 28 00:33:48 2024 GMT
        Subject: CN=team194-client
        Subject Public Key Info:
            Public Key Algorithm: rsaEncryption
                RSA Public-Key: (2048 bit)
                Modulus:
                    00:d8:8c:fd:2c:44:31:e8:f7:65:38:ff:06:13:04:
                    5b:ab:46:36:62:f0:f4:a3:4b:3a:af:8b:c1:a1:fd:
                    b5:c6:d9:72:2b:a5:b0:dd:d0:3a:1d:ad:99:2f:53:
                    09:c4:48:77:ef:5a:2a:55:c3:7f:a4:50:a7:84:41:
                    9b:a8:a3:a8:82:54:25:e2:32:c4:f7:26:2c:05:10:
                    c7:2c:9d:1c:aa:80:3e:5a:c0:d0:bb:4c:c7:24:f0:
                    61:53:fa:33:c7:d0:6b:44:b7:5e:19:9e:34:67:e7:
                    cd:31:d0:23:0f:4d:8e:ca:09:91:3c:dc:e1:06:68:
                    74:3f:34:21:83:69:bd:40:5e:10:b1:df:e3:0e:7a:
                    35:33:3b:80:88:9a:b0:ec:46:9c:78:3c:4a:8d:b7:
                    e5:a6:08:30:82:ef:56:cf:64:86:d8:ac:25:22:c8:
                    b8:36:95:eb:ef:e8:9d:09:e4:2a:ca:f2:dd:4c:70:
                    ee:ed:43:ec:e8:33:7d:5f:e5:77:b5:02:ba:32:88:
                    d0:de:e7:4a:65:a3:a0:e5:66:2e:59:31:bf:8c:d9:
                    a1:46:d6:95:58:51:64:d2:53:f2:ba:6a:a7:ad:5d:
                    2e:6f:66:d9:c9:ff:dd:75:fd:c1:47:18:3f:26:5a:
                    c4:a3:39:85:60:4b:09:3a:d3:60:4a:f5:23:33:91:
                    0d:97
                Exponent: 65537 (0x10001)
        X509v3 extensions:
            X509v3 Basic Constraints: 
                CA:FALSE
            X509v3 Subject Key Identifier: 
                0D:E7:F2:3C:41:48:92:D9:D1:22:A4:95:C5:0C:DD:7C:13:E9:1E:E9
            X509v3 Authority Key Identifier: 
                keyid:4D:DD:97:78:10:C5:12:D3:16:61:12:40:B4:20:C0:20:49:44:76:E4
                DirName:/CN=team194-net
                serial:1D:00:E3:F0:3A:F8:77:0D:42:73:0F:77:98:97:37:2F:E2:EC:54:6A

            X509v3 Extended Key Usage: 
                TLS Web Client Authentication
            X509v3 Key Usage: 
                Digital Signature
    Signature Algorithm: sha256WithRSAEncryption
         4c:c6:1f:91:a7:91:b2:f7:d7:69:2f:a4:98:ba:e7:21:5e:62:
         80:d2:ad:be:cb:f8:e2:59:dc:40:eb:d4:cc:30:16:a1:9a:d6:
         3f:b1:7b:dc:5a:f3:0d:97:4f:67:1c:ba:70:af:df:a1:7b:8d:
         a5:07:9c:88:79:03:9b:d3:10:09:96:bb:38:7d:f4:95:e1:a9:
         05:9c:cb:6a:1e:63:8c:e4:cc:79:c3:52:8f:35:0f:e6:12:c4:
         7e:98:a5:05:a8:80:39:a5:75:fb:2c:2a:ad:ca:82:58:b4:63:
         7f:d5:6f:c7:f1:72:b1:5c:3f:63:c5:1a:a1:1b:cb:87:bb:38:
         dd:a5:a3:85:29:19:af:c2:ec:e6:3b:9d:6f:a4:07:2c:ab:34:
         9f:2c:cd:3c:8f:30:48:1f:83:e0:98:d0:93:2f:2b:9e:0f:31:
         dd:8e:57:7d:9f:a2:36:de:a2:be:69:10:3a:13:40:3b:9a:50:
         9f:4b:13:b3:89:56:50:42:e2:ee:b1:97:b3:5d:66:73:09:e9:
         a8:21:44:25:2b:b3:57:7c:20:9b:38:b0:ed:bc:7b:6d:70:d0:
         2e:50:b1:f9:30:f8:84:9f:6b:03:0f:62:4d:66:29:1c:32:e8:
         b8:74:a9:3f:f2:80:e0:a1:4c:44:de:b1:13:0b:5a:7f:1e:c5:
         d7:fb:ba:d9
-----BEGIN CERTIFICATE-----
MIIDXDCCAkSgAwIBAgIQFPFvKx1hOJI4ZegTWTrbFTANBgkqhkiG9w0BAQsFADAW
MRQwEgYDVQQDDAt0ZWFtMTk0LW5ldDAeFw0yMTA5MTMwMDMzNDhaFw0yNDA4Mjgw
MDMzNDhaMBkxFzAVBgNVBAMMDnRlYW0xOTQtY2xpZW50MIIBIjANBgkqhkiG9w0B
AQEFAAOCAQ8AMIIBCgKCAQEA2Iz9LEQx6PdlOP8GEwRbq0Y2YvD0o0s6r4vBof21
xtlyK6Ww3dA6Ha2ZL1MJxEh371oqVcN/pFCnhEGbqKOoglQl4jLE9yYsBRDHLJ0c
qoA+WsDQu0zHJPBhU/ozx9BrRLdeGZ40Z+fNMdAjD02OygmRPNzhBmh0PzQhg2m9
QF4Qsd/jDno1MzuAiJqw7EaceDxKjbflpggwgu9Wz2SG2KwlIsi4NpXr7+idCeQq
yvLdTHDu7UPs6DN9X+V3tQK6MojQ3udKZaOg5WYuWTG/jNmhRtaVWFFk0lPyumqn
rV0ub2bZyf/ddf3BRxg/JlrEozmFYEsJOtNgSvUjM5ENlwIDAQABo4GiMIGfMAkG
A1UdEwQCMAAwHQYDVR0OBBYEFA3n8jxBSJLZ0SKklcUM3XwT6R7pMFEGA1UdIwRK
MEiAFE3dl3gQxRLTFmESQLQgwCBJRHbkoRqkGDAWMRQwEgYDVQQDDAt0ZWFtMTk0
LW5ldIIUHQDj8Dr4dw1Ccw93mJc3L+LsVGowEwYDVR0lBAwwCgYIKwYBBQUHAwIw
CwYDVR0PBAQDAgeAMA0GCSqGSIb3DQEBCwUAA4IBAQBMxh+Rp5Gy99dpL6SYuuch
XmKA0q2+y/jiWdxA69TMMBahmtY/sXvcWvMNl09nHLpwr9+he42lB5yIeQOb0xAJ
lrs4ffSV4akFnMtqHmOM5Mx5w1KPNQ/mEsR+mKUFqIA5pXX7LCqtyoJYtGN/1W/H
8XKxXD9jxRqhG8uHuzjdpaOFKRmvwuzmO51vpAcsqzSfLM08jzBIH4PgmNCTLyue
DzHdjld9n6I23qK+aRA6E0A7mlCfSxOziVZQQuLusZezXWZzCemoIUQlK7NXfCCb
OLDtvHttcNAuULH5MPiEn2sDD2JNZikcMui4dKk/8oDgoUxE3rETC1p/HsXX+7rZ
-----END CERTIFICATE-----
