Certificate:
    Data:
        Version: 3 (0x2)
        Serial Number:
            4a:44:03:51:cf:49:3b:b5:19:a9:82:91:4a:ce:80:b6
        Signature Algorithm: sha256WithRSAEncryption
        Issuer: CN=team194-net
        Validity
            Not Before: Sep 13 00:33:48 2021 GMT
            Not After : Aug 28 00:33:48 2024 GMT
        Subject: CN=team194-server
        Subject Public Key Info:
            Public Key Algorithm: rsaEncryption
                RSA Public-Key: (2048 bit)
                Modulus:
                    00:cd:b1:09:b1:8e:6e:01:96:4a:ad:b4:fc:bf:48:
                    56:29:c3:de:19:98:ce:d4:7e:5a:f0:eb:f9:0a:a9:
                    f1:19:77:4a:60:56:c8:d5:db:95:97:9d:57:44:e8:
                    bd:37:e5:a2:c1:7c:b3:99:a0:6a:6e:c5:62:11:32:
                    e6:0a:a0:af:9d:6f:8a:f6:69:8f:cc:45:15:e7:78:
                    0d:1d:f9:cb:43:3c:14:99:91:35:2e:0a:00:e7:a6:
                    d1:bf:5c:69:af:3e:f1:d1:9e:54:8b:99:d6:19:ca:
                    3d:ec:c8:7c:84:fb:40:95:83:87:79:8b:e9:e8:91:
                    b6:8c:6a:b8:57:c8:9c:c2:09:15:ad:a6:00:86:1b:
                    d0:59:6b:38:4d:25:35:0a:49:e8:1f:3b:39:7f:cd:
                    3e:37:6f:e1:29:b9:c3:28:13:57:fc:69:4d:34:60:
                    32:53:db:ac:5f:1c:07:5f:4e:b3:49:ee:09:0a:8c:
                    42:c3:cb:de:09:13:5c:c6:d2:0d:a0:b8:59:7b:c3:
                    bf:4b:c4:e0:86:0f:e6:7c:15:16:b8:a6:15:eb:c7:
                    b1:17:0a:6e:9b:de:c0:b3:65:7a:ef:ec:a0:9c:a6:
                    5a:54:d9:bb:47:44:07:7e:ad:a7:f9:9b:09:ae:70:
                    c5:bd:d6:88:c1:1a:2c:86:f2:00:9b:ad:4f:bf:45:
                    09:e1
                Exponent: 65537 (0x10001)
        X509v3 extensions:
            X509v3 Basic Constraints: 
                CA:FALSE
            X509v3 Subject Key Identifier: 
                C2:BE:0D:A4:6D:E4:13:68:E8:57:F9:3D:54:28:F5:35:21:FA:DB:3B
            X509v3 Authority Key Identifier: 
                keyid:4D:DD:97:78:10:C5:12:D3:16:61:12:40:B4:20:C0:20:49:44:76:E4
                DirName:/CN=team194-net
                serial:1D:00:E3:F0:3A:F8:77:0D:42:73:0F:77:98:97:37:2F:E2:EC:54:6A

            X509v3 Extended Key Usage: 
                TLS Web Server Authentication
            X509v3 Key Usage: 
                Digital Signature, Key Encipherment
            X509v3 Subject Alternative Name: 
                DNS:team194-server
    Signature Algorithm: sha256WithRSAEncryption
         5f:71:97:2a:db:71:88:32:07:3f:c2:17:ac:62:cc:e8:26:de:
         27:af:ea:49:82:a2:70:fa:e4:17:db:d7:39:cf:df:73:54:f3:
         f5:5c:09:a2:27:d2:70:86:0f:b2:6d:d4:bf:bc:30:ec:9a:58:
         b2:09:54:25:8f:8a:99:13:5e:3c:89:99:a4:04:46:bc:d4:d3:
         e8:76:89:43:e9:eb:5b:13:c2:90:df:c5:8b:0a:98:0e:fa:39:
         b0:1d:88:53:2d:8a:3f:45:a6:28:36:7c:30:f8:b2:8c:18:8b:
         10:f8:23:e7:37:ae:ac:4b:03:e9:a4:8a:c8:13:d5:65:4c:9d:
         85:1b:49:98:5c:9d:31:bf:bc:f4:e8:61:aa:86:ab:b2:0e:96:
         45:11:42:e5:dc:6e:3d:69:e7:88:c2:59:1e:3c:9f:11:8a:71:
         07:ef:fe:f9:e3:32:70:27:e2:38:a8:05:f7:0f:a8:2f:b2:6f:
         cd:c3:2b:f9:02:f6:b3:60:c7:1e:df:84:f0:4c:33:45:d0:9d:
         e5:a7:18:44:60:d2:00:76:32:aa:d8:cc:af:f9:96:1a:82:9e:
         ad:20:ab:e8:67:15:2f:c7:27:92:df:6b:f6:b1:63:76:e1:ba:
         61:db:37:e7:80:08:97:3f:01:d8:86:c7:54:b3:6b:54:25:f2:
         cc:58:1a:51
-----BEGIN CERTIFICATE-----
MIIDdzCCAl+gAwIBAgIQSkQDUc9JO7UZqYKRSs6AtjANBgkqhkiG9w0BAQsFADAW
MRQwEgYDVQQDDAt0ZWFtMTk0LW5ldDAeFw0yMTA5MTMwMDMzNDhaFw0yNDA4Mjgw
MDMzNDhaMBkxFzAVBgNVBAMMDnRlYW0xOTQtc2VydmVyMIIBIjANBgkqhkiG9w0B
AQEFAAOCAQ8AMIIBCgKCAQEAzbEJsY5uAZZKrbT8v0hWKcPeGZjO1H5a8Ov5Cqnx
GXdKYFbI1duVl51XROi9N+WiwXyzmaBqbsViETLmCqCvnW+K9mmPzEUV53gNHfnL
QzwUmZE1LgoA56bRv1xprz7x0Z5Ui5nWGco97Mh8hPtAlYOHeYvp6JG2jGq4V8ic
wgkVraYAhhvQWWs4TSU1CknoHzs5f80+N2/hKbnDKBNX/GlNNGAyU9usXxwHX06z
Se4JCoxCw8veCRNcxtINoLhZe8O/S8Tghg/mfBUWuKYV68exFwpum97As2V67+yg
nKZaVNm7R0QHfq2n+ZsJrnDFvdaIwRoshvIAm61Pv0UJ4QIDAQABo4G9MIG6MAkG
A1UdEwQCMAAwHQYDVR0OBBYEFMK+DaRt5BNo6Ff5PVQo9TUh+ts7MFEGA1UdIwRK
MEiAFE3dl3gQxRLTFmESQLQgwCBJRHbkoRqkGDAWMRQwEgYDVQQDDAt0ZWFtMTk0
LW5ldIIUHQDj8Dr4dw1Ccw93mJc3L+LsVGowEwYDVR0lBAwwCgYIKwYBBQUHAwEw
CwYDVR0PBAQDAgWgMBkGA1UdEQQSMBCCDnRlYW0xOTQtc2VydmVyMA0GCSqGSIb3
DQEBCwUAA4IBAQBfcZcq23GIMgc/whesYszoJt4nr+pJgqJw+uQX29c5z99zVPP1
XAmiJ9Jwhg+ybdS/vDDsmliyCVQlj4qZE148iZmkBEa81NPodolD6etbE8KQ38WL
CpgO+jmwHYhTLYo/RaYoNnww+LKMGIsQ+CPnN66sSwPppIrIE9VlTJ2FG0mYXJ0x
v7z06GGqhquyDpZFEULl3G49aeeIwlkePJ8RinEH7/754zJwJ+I4qAX3D6gvsm/N
wyv5AvazYMce34TwTDNF0J3lpxhEYNIAdjKq2Myv+ZYagp6tIKvoZxUvxyeS32v2
sWN24bph2zfngAiXPwHYhsdUs2tUJfLMWBpR
-----END CERTIFICATE-----
