Certificate:
    Data:
        Version: 3 (0x2)
        Serial Number:
            33:e4:38:89:3b:da:8e:15:10:e8:00:ea:ed:e2:9b:42
        Signature Algorithm: sha256WithRSAEncryption
        Issuer: CN=team264-net
        Validity
            Not Before: Sep 13 01:09:40 2021 GMT
            Not After : Aug 28 01:09:40 2024 GMT
        Subject: CN=team264-client
        Subject Public Key Info:
            Public Key Algorithm: rsaEncryption
                RSA Public-Key: (2048 bit)
                Modulus:
                    00:c3:f8:84:b9:f0:3c:7b:b2:56:52:c8:36:bc:36:
                    1f:6b:a2:99:bf:38:4b:98:96:61:9f:80:06:67:1d:
                    69:50:a9:ac:f6:70:ee:8f:f5:03:5b:a7:80:ee:aa:
                    c0:1d:15:a4:92:57:7d:d3:56:20:50:6d:04:50:c2:
                    54:2c:dc:a9:83:12:00:d7:4e:43:a6:b4:de:90:13:
                    95:ed:f0:52:33:1f:eb:8f:f9:71:3c:0f:72:bf:c7:
                    df:e9:57:94:77:ef:e4:64:04:3b:e4:bf:c5:54:83:
                    ca:f0:11:99:7d:b7:20:ab:be:81:42:3e:9b:c8:0f:
                    0e:f4:46:91:94:f6:0f:d1:46:82:67:88:66:7c:0b:
                    0b:30:35:ff:6d:3a:ab:2e:23:6f:1a:88:53:19:2b:
                    eb:b3:d8:83:b0:1d:86:44:d1:6b:53:a8:d0:d1:d4:
                    3c:07:66:73:b4:db:49:63:64:c0:0c:95:dd:cc:71:
                    53:9b:b8:b9:b4:98:b6:1a:c3:c7:96:a2:a5:8c:35:
                    f4:6f:4a:a5:4d:b0:0a:99:ea:b7:fa:a2:c1:ba:6c:
                    2e:bd:3a:b8:c8:91:79:2b:44:15:42:7c:8e:79:50:
                    57:3d:96:32:bb:5b:dc:81:85:e3:cd:9b:86:52:94:
                    35:ac:64:21:c6:a3:21:8e:97:7b:69:77:85:84:d7:
                    58:13
                Exponent: 65537 (0x10001)
        X509v3 extensions:
            X509v3 Basic Constraints: 
                CA:FALSE
            X509v3 Subject Key Identifier: 
                D4:3D:CE:52:D7:A3:22:9A:B1:4C:D3:E0:38:23:B8:5C:AF:67:68:8F
            X509v3 Authority Key Identifier: 
                keyid:B7:2B:9C:68:6C:F4:A6:04:2D:15:DB:FD:88:2E:68:C1:95:6C:55:3C
                DirName:/CN=team264-net
                serial:68:A3:2F:5E:81:DD:65:1E:D3:70:16:E7:92:51:C8:6F:56:EC:7F:ED

            X509v3 Extended Key Usage: 
                TLS Web Client Authentication
            X509v3 Key Usage: 
                Digital Signature
    Signature Algorithm: sha256WithRSAEncryption
         5f:84:59:8e:d6:00:94:ea:aa:51:a6:05:6c:17:8e:62:8c:49:
         aa:44:b1:f1:7a:05:f3:aa:45:ab:74:f6:53:c6:3a:10:6e:9c:
         a3:8b:8b:af:0c:d2:60:28:8f:0f:e4:fd:0d:6c:4b:51:a5:39:
         78:1a:5b:b7:7b:57:a6:ff:52:de:cb:ee:83:70:7d:68:3b:71:
         fc:8a:c2:f5:aa:8e:ec:e0:08:1a:c5:52:37:52:86:af:08:76:
         35:f2:ce:47:ab:5a:9c:87:86:c2:73:ae:10:95:9e:32:88:be:
         47:80:bb:ac:a4:90:74:c4:c7:f3:61:c5:48:80:4e:1a:5c:de:
         6e:42:45:75:4d:55:a8:eb:c8:80:f8:8a:9a:40:55:51:4e:16:
         32:21:f9:4d:74:26:79:ff:e6:9f:2d:f8:90:94:58:64:eb:ee:
         ff:5f:c9:6b:7a:d2:3f:18:8f:14:ed:34:c5:00:f7:95:eb:e6:
         ea:d1:23:b3:59:b0:51:7d:33:fd:a0:ce:bd:f5:43:cd:b6:11:
         c7:3d:9a:2a:81:ec:3c:21:30:42:d6:b3:7c:e5:05:8b:b2:cd:
         4f:b4:06:ce:a3:97:31:38:f3:f1:ce:2f:4a:20:da:70:27:fe:
         f5:81:ce:30:87:af:cd:58:f1:81:81:ea:5c:7c:99:96:14:54:
         c9:cf:e0:64
-----BEGIN CERTIFICATE-----
MIIDXDCCAkSgAwIBAgIQM+Q4iTvajhUQ6ADq7eKbQjANBgkqhkiG9w0BAQsFADAW
MRQwEgYDVQQDDAt0ZWFtMjY0LW5ldDAeFw0yMTA5MTMwMTA5NDBaFw0yNDA4Mjgw
MTA5NDBaMBkxFzAVBgNVBAMMDnRlYW0yNjQtY2xpZW50MIIBIjANBgkqhkiG9w0B
AQEFAAOCAQ8AMIIBCgKCAQEAw/iEufA8e7JWUsg2vDYfa6KZvzhLmJZhn4AGZx1p
UKms9nDuj/UDW6eA7qrAHRWkkld901YgUG0EUMJULNypgxIA105DprTekBOV7fBS
Mx/rj/lxPA9yv8ff6VeUd+/kZAQ75L/FVIPK8BGZfbcgq76BQj6byA8O9EaRlPYP
0UaCZ4hmfAsLMDX/bTqrLiNvGohTGSvrs9iDsB2GRNFrU6jQ0dQ8B2ZztNtJY2TA
DJXdzHFTm7i5tJi2GsPHlqKljDX0b0qlTbAKmeq3+qLBumwuvTq4yJF5K0QVQnyO
eVBXPZYyu1vcgYXjzZuGUpQ1rGQhxqMhjpd7aXeFhNdYEwIDAQABo4GiMIGfMAkG
A1UdEwQCMAAwHQYDVR0OBBYEFNQ9zlLXoyKasUzT4DgjuFyvZ2iPMFEGA1UdIwRK
MEiAFLcrnGhs9KYELRXb/YguaMGVbFU8oRqkGDAWMRQwEgYDVQQDDAt0ZWFtMjY0
LW5ldIIUaKMvXoHdZR7TcBbnklHIb1bsf+0wEwYDVR0lBAwwCgYIKwYBBQUHAwIw
CwYDVR0PBAQDAgeAMA0GCSqGSIb3DQEBCwUAA4IBAQBfhFmO1gCU6qpRpgVsF45i
jEmqRLHxegXzqkWrdPZTxjoQbpyji4uvDNJgKI8P5P0NbEtRpTl4Glu3e1em/1Le
y+6DcH1oO3H8isL1qo7s4AgaxVI3UoavCHY18s5Hq1qch4bCc64QlZ4yiL5HgLus
pJB0xMfzYcVIgE4aXN5uQkV1TVWo68iA+IqaQFVRThYyIflNdCZ5/+afLfiQlFhk
6+7/X8lretI/GI8U7TTFAPeV6+bq0SOzWbBRfTP9oM699UPNthHHPZoqgew8ITBC
1rN85QWLss1PtAbOo5cxOPPxzi9KINpwJ/71gc4wh6/NWPGBgepcfJmWFFTJz+Bk
-----END CERTIFICATE-----
