Certificate:
    Data:
        Version: 3 (0x2)
        Serial Number:
            ca:ec:e9:64:33:68:7c:d4:cc:da:63:1a:fd:f0:a9:6d
        Signature Algorithm: sha256WithRSAEncryption
        Issuer: CN=team218-net
        Validity
            Not Before: Sep 13 00:44:59 2021 GMT
            Not After : Aug 28 00:44:59 2024 GMT
        Subject: CN=team218-client
        Subject Public Key Info:
            Public Key Algorithm: rsaEncryption
                RSA Public-Key: (2048 bit)
                Modulus:
                    00:e1:18:5b:b2:f1:5a:28:07:2c:ea:04:34:d3:19:
                    78:e7:83:e0:07:ce:41:10:f3:19:ba:6d:d6:5e:1f:
                    c9:f1:f8:cd:43:ec:40:96:e1:3a:58:23:de:a8:ba:
                    1b:59:b3:97:14:7d:7c:7a:1d:2e:4c:95:2e:bf:b0:
                    8e:5e:ea:06:18:1f:3e:37:8e:f9:a4:d4:4b:c8:46:
                    01:2a:41:d1:a6:24:56:5e:ae:68:ba:67:31:c9:63:
                    a4:76:5a:ed:da:dd:93:33:54:92:70:f6:d1:7d:2c:
                    ae:40:f9:80:54:aa:c7:f3:a4:38:68:9e:c1:0a:ff:
                    27:fa:64:ad:50:20:97:8d:ba:23:61:70:35:75:33:
                    7f:c4:eb:74:52:4b:4e:15:48:93:46:73:48:36:ff:
                    c1:39:57:d8:e0:56:b0:f0:47:87:00:a2:1e:05:1b:
                    d6:7f:0e:f0:e2:0b:f0:0c:c8:4b:f0:d8:f2:0d:1a:
                    4d:ce:e4:15:03:79:d6:0c:4a:f9:5b:a8:66:fd:9b:
                    99:fb:ed:ca:56:c6:a1:72:39:8d:be:60:9f:1a:93:
                    10:d9:e6:48:2a:0d:20:71:02:52:4e:9a:16:28:1c:
                    85:9f:7d:0f:1f:2d:e8:e4:15:3b:97:0e:5a:1c:85:
                    d9:a9:5b:38:21:77:0e:c9:c0:c4:8d:41:8b:aa:ca:
                    bb:df
                Exponent: 65537 (0x10001)
        X509v3 extensions:
            X509v3 Basic Constraints: 
                CA:FALSE
            X509v3 Subject Key Identifier: 
                4F:AF:6E:9D:7C:D5:0E:5F:43:0A:D1:04:E0:72:F5:10:1A:63:BF:12
            X509v3 Authority Key Identifier: 
                keyid:32:AC:A1:16:69:66:AC:E8:20:89:92:CB:43:02:41:89:96:51:D8:08
                DirName:/CN=team218-net
                serial:1A:65:B5:E7:E1:07:8C:F3:8D:00:1F:83:BB:C1:B5:42:F5:52:09:B6

            X509v3 Extended Key Usage: 
                TLS Web Client Authentication
            X509v3 Key Usage: 
                Digital Signature
    Signature Algorithm: sha256WithRSAEncryption
         94:3f:63:88:71:de:7f:42:ad:1d:0b:62:c5:e8:f2:50:31:89:
         6c:15:f6:e7:08:a1:fe:09:9f:d0:cd:dc:9e:b2:d7:c6:ee:91:
         d2:72:8d:a0:a5:a0:96:04:9d:fc:91:31:44:03:75:bc:c5:17:
         39:06:9d:48:7b:75:11:64:d5:f1:6b:1b:48:41:bc:2b:ef:a8:
         53:bf:16:14:1c:7d:f9:f4:1b:45:44:73:d5:7a:45:5c:8a:37:
         69:77:6e:48:39:8a:88:69:1c:3a:bb:79:d1:1d:fe:ca:27:31:
         3e:6b:56:ba:28:8a:a2:11:ff:dc:ab:56:ec:24:bf:71:76:c1:
         23:82:ef:9a:67:d9:a7:41:ba:13:29:6c:6d:0b:ac:31:7d:44:
         bf:ea:a1:1b:c0:6e:20:93:27:4f:56:33:b3:67:43:c4:69:8e:
         56:a0:84:1a:c8:9c:44:24:f5:56:8d:b0:58:0e:ab:f3:bc:47:
         f5:77:57:71:41:75:da:ee:fd:b3:85:6d:fc:85:a4:cd:7c:a7:
         59:5e:9d:fc:c0:7f:e8:13:d4:e3:33:f4:63:bc:5a:08:6b:f0:
         42:83:c3:ca:ff:5d:97:16:d1:6c:7e:e1:11:ec:e8:9e:5b:61:
         d2:f2:85:8c:ba:bc:de:62:99:f7:b8:86:34:4e:ce:6b:8f:87:
         9b:f9:ab:51
-----BEGIN CERTIFICATE-----
MIIDXTCCAkWgAwIBAgIRAMrs6WQzaHzUzNpjGv3wqW0wDQYJKoZIhvcNAQELBQAw
FjEUMBIGA1UEAwwLdGVhbTIxOC1uZXQwHhcNMjEwOTEzMDA0NDU5WhcNMjQwODI4
MDA0NDU5WjAZMRcwFQYDVQQDDA50ZWFtMjE4LWNsaWVudDCCASIwDQYJKoZIhvcN
AQEBBQADggEPADCCAQoCggEBAOEYW7LxWigHLOoENNMZeOeD4AfOQRDzGbpt1l4f
yfH4zUPsQJbhOlgj3qi6G1mzlxR9fHodLkyVLr+wjl7qBhgfPjeO+aTUS8hGASpB
0aYkVl6uaLpnMcljpHZa7drdkzNUknD20X0srkD5gFSqx/OkOGiewQr/J/pkrVAg
l426I2FwNXUzf8TrdFJLThVIk0ZzSDb/wTlX2OBWsPBHhwCiHgUb1n8O8OIL8AzI
S/DY8g0aTc7kFQN51gxK+VuoZv2bmfvtylbGoXI5jb5gnxqTENnmSCoNIHECUk6a
FigchZ99Dx8t6OQVO5cOWhyF2albOCF3DsnAxI1Bi6rKu98CAwEAAaOBojCBnzAJ
BgNVHRMEAjAAMB0GA1UdDgQWBBRPr26dfNUOX0MK0QTgcvUQGmO/EjBRBgNVHSME
SjBIgBQyrKEWaWas6CCJkstDAkGJllHYCKEapBgwFjEUMBIGA1UEAwwLdGVhbTIx
OC1uZXSCFBpltefhB4zzjQAfg7vBtUL1Ugm2MBMGA1UdJQQMMAoGCCsGAQUFBwMC
MAsGA1UdDwQEAwIHgDANBgkqhkiG9w0BAQsFAAOCAQEAlD9jiHHef0KtHQtixejy
UDGJbBX25wih/gmf0M3cnrLXxu6R0nKNoKWglgSd/JExRAN1vMUXOQadSHt1EWTV
8WsbSEG8K++oU78WFBx9+fQbRURz1XpFXIo3aXduSDmKiGkcOrt50R3+yicxPmtW
uiiKohH/3KtW7CS/cXbBI4LvmmfZp0G6EylsbQusMX1Ev+qhG8BuIJMnT1Yzs2dD
xGmOVqCEGsicRCT1Vo2wWA6r87xH9XdXcUF12u79s4Vt/IWkzXynWV6d/MB/6BPU
4zP0Y7xaCGvwQoPDyv9dlxbRbH7hEezonlth0vKFjLq83mKZ97iGNE7Oa4+Hm/mr
UQ==
-----END CERTIFICATE-----
