Certificate:
    Data:
        Version: 3 (0x2)
        Serial Number:
            e2:58:6c:94:6e:6a:d6:34:c7:f7:c0:50:7b:f0:a0:d6
        Signature Algorithm: sha256WithRSAEncryption
        Issuer: CN=team626-net
        Validity
            Not Before: Sep 13 04:12:25 2021 GMT
            Not After : Aug 28 04:12:25 2024 GMT
        Subject: CN=team626-client
        Subject Public Key Info:
            Public Key Algorithm: rsaEncryption
                RSA Public-Key: (2048 bit)
                Modulus:
                    00:c0:61:80:de:72:1d:30:d1:3d:9d:cb:8c:4c:68:
                    bc:43:7a:5e:4c:8e:e6:b3:7a:a4:a5:1e:8a:a6:e5:
                    98:81:17:4b:ff:d6:6c:3d:f2:f0:67:41:ef:93:a7:
                    6c:a6:6f:9a:31:b1:8c:ec:90:a1:aa:07:aa:c3:b8:
                    e8:26:d2:3a:75:cc:d4:b0:2c:3d:af:2b:85:43:51:
                    84:40:ea:dd:20:a9:16:45:0b:ae:94:d1:56:fb:c9:
                    16:88:0f:88:b2:a9:2c:43:f9:b9:9b:cd:9e:a9:dc:
                    3e:3c:4d:93:ee:91:ce:39:ee:0b:f9:d8:e1:e7:77:
                    bc:9f:33:ee:78:dc:7f:3c:68:bf:8b:58:0e:fa:29:
                    8b:3d:53:fb:03:35:ed:c7:2c:f7:51:e5:c8:68:12:
                    82:19:19:aa:88:3b:b5:36:cd:72:27:33:fa:b9:64:
                    f4:7d:1e:9d:0b:ba:84:cc:0f:4c:32:0b:ad:25:14:
                    77:b5:62:fd:fb:f3:f4:96:77:da:c6:90:d2:4d:fa:
                    97:1a:a6:a2:20:0a:7b:03:47:da:33:d6:10:7e:c3:
                    96:22:df:06:11:ea:e7:4f:99:81:ef:a7:07:bc:0c:
                    ea:d1:11:ab:33:28:58:e7:22:41:e3:35:a4:ae:5b:
                    4e:11:19:6d:ee:16:7e:f5:18:9b:9b:92:4d:42:12:
                    a6:97
                Exponent: 65537 (0x10001)
        X509v3 extensions:
            X509v3 Basic Constraints: 
                CA:FALSE
            X509v3 Subject Key Identifier: 
                15:85:0F:1A:E4:D7:82:1B:3E:7E:64:F4:62:23:7F:95:B1:27:84:39
            X509v3 Authority Key Identifier: 
                keyid:AE:FB:1D:1C:00:52:3E:81:66:56:4C:42:91:FB:39:E7:6F:C1:C2:46
                DirName:/CN=team626-net
                serial:28:1A:FC:46:21:EB:4D:FB:95:9C:CF:B2:D2:1E:E3:DC:71:14:F2:96

            X509v3 Extended Key Usage: 
                TLS Web Client Authentication
            X509v3 Key Usage: 
                Digital Signature
    Signature Algorithm: sha256WithRSAEncryption
         2f:fc:3a:95:dd:64:1d:ba:f3:1f:13:d7:d1:bc:22:c1:e2:24:
         d9:fa:2a:40:1b:a9:d7:4d:16:8e:46:e2:e0:1c:b4:c5:05:c5:
         29:e3:7a:5c:ea:f1:ad:20:d8:9a:f5:52:f8:4b:9a:cb:b8:8b:
         71:82:27:20:df:0e:a7:96:d0:5a:df:a5:7a:69:68:72:f3:e0:
         66:c0:28:d9:87:82:41:75:26:b1:49:15:1e:cd:bf:a6:46:08:
         ee:d9:d1:c6:95:67:d3:83:fe:4a:3f:4f:23:f9:26:e7:23:a0:
         11:10:2d:20:a8:5d:e3:c6:b1:5b:f7:22:71:36:01:1c:d1:df:
         3f:fe:30:2d:34:a5:45:65:bf:cd:39:ac:6a:1a:9b:08:cc:82:
         87:2d:a8:c6:6c:fb:fb:b7:45:e5:5f:32:06:20:2c:96:4c:b6:
         38:ff:f3:9e:6f:04:b7:7d:96:0e:dc:64:0b:93:cb:6d:fa:e1:
         03:7d:e0:97:eb:27:9e:ba:98:1f:52:ee:1b:48:f1:ca:ee:b5:
         14:94:7f:10:51:a8:d5:5d:f5:56:5b:b0:09:52:eb:3e:7b:6a:
         0a:0e:7e:7c:c0:a1:46:8f:ce:6b:a0:21:d0:a5:81:f2:ec:fa:
         f0:4a:27:a4:ee:47:6c:be:71:01:9b:87:98:ef:f3:8e:94:3c:
         68:90:32:d4
-----BEGIN CERTIFICATE-----
MIIDXTCCAkWgAwIBAgIRAOJYbJRuatY0x/fAUHvwoNYwDQYJKoZIhvcNAQELBQAw
FjEUMBIGA1UEAwwLdGVhbTYyNi1uZXQwHhcNMjEwOTEzMDQxMjI1WhcNMjQwODI4
MDQxMjI1WjAZMRcwFQYDVQQDDA50ZWFtNjI2LWNsaWVudDCCASIwDQYJKoZIhvcN
AQEBBQADggEPADCCAQoCggEBAMBhgN5yHTDRPZ3LjExovEN6XkyO5rN6pKUeiqbl
mIEXS//WbD3y8GdB75OnbKZvmjGxjOyQoaoHqsO46CbSOnXM1LAsPa8rhUNRhEDq
3SCpFkULrpTRVvvJFogPiLKpLEP5uZvNnqncPjxNk+6RzjnuC/nY4ed3vJ8z7njc
fzxov4tYDvopiz1T+wM17ccs91HlyGgSghkZqog7tTbNcicz+rlk9H0enQu6hMwP
TDILrSUUd7Vi/fvz9JZ32saQ0k36lxqmoiAKewNH2jPWEH7DliLfBhHq50+Zge+n
B7wM6tERqzMoWOciQeM1pK5bThEZbe4WfvUYm5uSTUISppcCAwEAAaOBojCBnzAJ
BgNVHRMEAjAAMB0GA1UdDgQWBBQVhQ8a5NeCGz5+ZPRiI3+VsSeEOTBRBgNVHSME
SjBIgBSu+x0cAFI+gWZWTEKR+znnb8HCRqEapBgwFjEUMBIGA1UEAwwLdGVhbTYy
Ni1uZXSCFCga/EYh6037lZzPstIe49xxFPKWMBMGA1UdJQQMMAoGCCsGAQUFBwMC
MAsGA1UdDwQEAwIHgDANBgkqhkiG9w0BAQsFAAOCAQEAL/w6ld1kHbrzHxPX0bwi
weIk2foqQBup100Wjkbi4By0xQXFKeN6XOrxrSDYmvVS+Euay7iLcYInIN8Op5bQ
Wt+lemlocvPgZsAo2YeCQXUmsUkVHs2/pkYI7tnRxpVn04P+Sj9PI/km5yOgERAt
IKhd48axW/cicTYBHNHfP/4wLTSlRWW/zTmsahqbCMyChy2oxmz7+7dF5V8yBiAs
lky2OP/znm8Et32WDtxkC5PLbfrhA33gl+snnrqYH1LuG0jxyu61FJR/EFGo1V31
VluwCVLrPntqCg5+fMChRo/Oa6Ah0KWB8uz68EonpO5HbL5xAZuHmO/zjpQ8aJAy
1A==
-----END CERTIFICATE-----
