Certificate:
    Data:
        Version: 3 (0x2)
        Serial Number:
            77:92:99:c4:4d:27:1e:f2:97:36:8f:29:a0:52:aa:8d
        Signature Algorithm: sha256WithRSAEncryption
        Issuer: CN=team696-net
        Validity
            Not Before: Sep 13 05:19:04 2021 GMT
            Not After : Aug 28 05:19:04 2024 GMT
        Subject: CN=team696-server
        Subject Public Key Info:
            Public Key Algorithm: rsaEncryption
                RSA Public-Key: (2048 bit)
                Modulus:
                    00:ad:9f:4b:f9:c4:56:d6:d8:4f:4c:13:5b:19:cf:
                    7e:ab:41:7d:94:68:27:8e:2a:d8:d9:75:40:14:c3:
                    b1:81:50:6e:2e:1c:9c:f3:c7:e2:c8:68:df:74:e1:
                    9b:0d:ef:f1:9f:bd:23:86:7f:35:3f:49:43:9e:4f:
                    ce:d0:7e:e6:3f:db:36:a2:01:07:eb:b2:70:43:fa:
                    c4:4c:fa:d7:9e:2b:2f:8d:5d:e6:c4:eb:a3:b5:94:
                    e1:73:43:2a:fe:31:96:90:5f:c9:da:5f:3c:2c:8c:
                    d3:76:4e:3c:95:9d:87:55:c6:cf:e1:9f:77:92:ea:
                    24:37:02:c3:bc:df:b7:7f:02:16:70:aa:d1:b1:2f:
                    d5:d7:79:4e:24:4c:55:db:19:a6:8b:86:86:b6:2f:
                    db:74:72:4f:43:ed:1b:7c:a7:75:62:84:8f:84:3c:
                    33:0e:a0:0a:45:e3:dc:72:49:1b:45:23:9e:49:28:
                    3d:39:47:16:54:30:a5:11:9e:45:c4:97:e1:32:dd:
                    33:29:fe:6e:19:56:f2:1e:1f:ee:b4:16:97:34:23:
                    f2:f0:bb:07:89:08:d7:6b:8b:e7:47:88:ca:20:85:
                    2e:3c:eb:83:f9:21:2d:6e:8e:3a:9c:78:93:9b:f5:
                    12:b7:e3:58:e5:07:9c:98:5d:4e:d6:ab:68:4d:d7:
                    65:e7
                Exponent: 65537 (0x10001)
        X509v3 extensions:
            X509v3 Basic Constraints: 
                CA:FALSE
            X509v3 Subject Key Identifier: 
                CF:19:96:64:57:B8:6A:D4:BC:7B:45:72:38:88:CA:C5:49:5F:4B:64
            X509v3 Authority Key Identifier: 
                keyid:B9:B2:A2:76:BA:29:EA:74:CD:CB:C4:F2:50:C8:3C:1D:D2:00:21:C6
                DirName:/CN=team696-net
                serial:6E:58:45:FA:56:77:0C:26:81:3D:4C:72:B2:5F:03:BC:7B:04:ED:1B

            X509v3 Extended Key Usage: 
                TLS Web Server Authentication
            X509v3 Key Usage: 
                Digital Signature, Key Encipherment
            X509v3 Subject Alternative Name: 
                DNS:team696-server
    Signature Algorithm: sha256WithRSAEncryption
         69:89:f6:34:de:74:09:cc:de:19:7e:2e:6f:c1:38:48:23:a1:
         46:5a:db:f0:ed:b4:04:52:98:f3:2d:89:2b:04:e5:22:59:2d:
         b9:68:46:b7:0f:79:c7:91:15:5a:ce:f8:c3:dc:f5:66:60:54:
         90:3a:7f:cc:00:c7:ca:a5:4c:da:2c:88:e4:5b:1f:e5:7d:ad:
         f9:39:0d:66:01:6e:2b:4b:e3:15:d4:13:df:d3:86:0d:e3:6a:
         28:06:df:9d:8a:8d:3c:01:c5:c4:04:51:1d:85:9a:0b:aa:3f:
         95:46:86:2d:1d:9f:d5:a4:ca:ef:0c:3e:67:86:86:6a:67:3b:
         5b:9b:43:46:21:c2:9b:96:5c:ec:df:e3:8d:89:ad:aa:9c:56:
         b0:6f:44:54:6f:76:ab:2b:bb:dd:9e:bd:bf:c0:49:dc:5b:0d:
         9e:5a:da:00:c6:a4:c8:eb:a0:82:9e:6d:9f:d2:a7:91:f7:e9:
         b7:7a:42:0a:fe:fe:34:7c:b7:2b:79:8f:c0:d1:9f:09:7b:c8:
         c7:49:5d:51:16:fb:bf:5f:a3:5c:48:61:a3:ed:55:2d:b4:f5:
         cc:37:65:d1:71:42:e6:f4:d2:1d:2e:6f:52:12:b2:8c:6f:fe:
         74:5f:d9:d5:17:4a:77:c4:ce:c5:ea:6a:31:bb:0c:9f:2e:14:
         72:a6:64:5a
-----BEGIN CERTIFICATE-----
MIIDdzCCAl+gAwIBAgIQd5KZxE0nHvKXNo8poFKqjTANBgkqhkiG9w0BAQsFADAW
MRQwEgYDVQQDDAt0ZWFtNjk2LW5ldDAeFw0yMTA5MTMwNTE5MDRaFw0yNDA4Mjgw
NTE5MDRaMBkxFzAVBgNVBAMMDnRlYW02OTYtc2VydmVyMIIBIjANBgkqhkiG9w0B
AQEFAAOCAQ8AMIIBCgKCAQEArZ9L+cRW1thPTBNbGc9+q0F9lGgnjirY2XVAFMOx
gVBuLhyc88fiyGjfdOGbDe/xn70jhn81P0lDnk/O0H7mP9s2ogEH67JwQ/rETPrX
nisvjV3mxOujtZThc0Mq/jGWkF/J2l88LIzTdk48lZ2HVcbP4Z93kuokNwLDvN+3
fwIWcKrRsS/V13lOJExV2xmmi4aGti/bdHJPQ+0bfKd1YoSPhDwzDqAKRePcckkb
RSOeSSg9OUcWVDClEZ5FxJfhMt0zKf5uGVbyHh/utBaXNCPy8LsHiQjXa4vnR4jK
IIUuPOuD+SEtbo46nHiTm/USt+NY5QecmF1O1qtoTddl5wIDAQABo4G9MIG6MAkG
A1UdEwQCMAAwHQYDVR0OBBYEFM8ZlmRXuGrUvHtFcjiIysVJX0tkMFEGA1UdIwRK
MEiAFLmyona6Kep0zcvE8lDIPB3SACHGoRqkGDAWMRQwEgYDVQQDDAt0ZWFtNjk2
LW5ldIIUblhF+lZ3DCaBPUxysl8DvHsE7RswEwYDVR0lBAwwCgYIKwYBBQUHAwEw
CwYDVR0PBAQDAgWgMBkGA1UdEQQSMBCCDnRlYW02OTYtc2VydmVyMA0GCSqGSIb3
DQEBCwUAA4IBAQBpifY03nQJzN4Zfi5vwThII6FGWtvw7bQEUpjzLYkrBOUiWS25
aEa3D3nHkRVazvjD3PVmYFSQOn/MAMfKpUzaLIjkWx/lfa35OQ1mAW4rS+MV1BPf
04YN42ooBt+dio08AcXEBFEdhZoLqj+VRoYtHZ/VpMrvDD5nhoZqZztbm0NGIcKb
llzs3+ONia2qnFawb0RUb3arK7vdnr2/wEncWw2eWtoAxqTI66CCnm2f0qeR9+m3
ekIK/v40fLcreY/A0Z8Je8jHSV1RFvu/X6NcSGGj7VUttPXMN2XRcULm9NIdLm9S
ErKMb/50X9nVF0p3xM7F6moxuwyfLhRypmRa
-----END CERTIFICATE-----
