Certificate:
    Data:
        Version: 3 (0x2)
        Serial Number:
            54:15:28:f2:a9:aa:7c:5b:e2:0c:4a:f1:b8:2e:c2:b9
        Signature Algorithm: sha256WithRSAEncryption
        Issuer: CN=team663-net
        Validity
            Not Before: Sep 13 04:28:54 2021 GMT
            Not After : Aug 28 04:28:54 2024 GMT
        Subject: CN=team663-server
        Subject Public Key Info:
            Public Key Algorithm: rsaEncryption
                RSA Public-Key: (2048 bit)
                Modulus:
                    00:f3:08:30:98:6c:72:95:23:a7:f5:da:69:9b:d2:
                    15:a6:34:36:e6:de:30:fe:88:5e:1f:12:e9:c6:9e:
                    28:c8:8c:c7:cb:c9:12:90:4c:07:d4:29:fa:2c:da:
                    fc:e2:0e:35:a9:02:2b:af:19:64:21:ce:10:7f:f5:
                    70:06:ed:04:f0:dd:98:89:4c:1c:52:e1:82:e3:84:
                    18:e0:ec:9c:22:9e:e3:3a:06:97:d6:4b:cd:41:a2:
                    3d:1d:37:37:66:8d:34:f3:38:89:61:87:5f:a5:77:
                    0a:ee:31:2d:3f:2f:5e:ce:99:65:a1:0b:8d:0d:55:
                    6f:dd:2a:57:ec:b3:5d:b6:af:b0:9a:38:85:81:ce:
                    c8:e9:15:a9:29:89:51:f5:fe:1a:d7:87:3c:60:16:
                    e4:c7:d3:a5:af:e6:2d:24:c1:59:80:f8:3a:d2:d4:
                    44:bb:de:dd:ae:4e:59:be:16:92:bb:97:99:01:86:
                    a4:da:2c:91:4d:ef:0e:b5:63:4e:48:2b:ab:34:24:
                    8f:87:18:60:13:11:4c:82:0b:90:50:a3:12:7a:7d:
                    27:1b:2f:d8:c0:b4:fa:e3:91:87:0b:14:53:7e:ea:
                    66:4e:6f:d8:c0:f6:f2:14:43:f0:0f:d1:5d:3c:b6:
                    f5:37:4e:36:65:49:58:dd:a0:87:62:18:ce:15:b2:
                    69:bd
                Exponent: 65537 (0x10001)
        X509v3 extensions:
            X509v3 Basic Constraints: 
                CA:FALSE
            X509v3 Subject Key Identifier: 
                72:E7:E9:54:6E:33:B6:83:40:01:0B:E0:08:CE:5E:16:54:75:93:D5
            X509v3 Authority Key Identifier: 
                keyid:F1:92:F7:25:B5:F9:50:BE:FE:51:20:C4:29:14:D6:68:EB:1D:B9:D1
                DirName:/CN=team663-net
                serial:10:B8:D6:4C:E5:63:3C:BD:68:B0:21:FD:AD:E8:E5:39:A6:FD:CB:EA

            X509v3 Extended Key Usage: 
                TLS Web Server Authentication
            X509v3 Key Usage: 
                Digital Signature, Key Encipherment
            X509v3 Subject Alternative Name: 
                DNS:team663-server
    Signature Algorithm: sha256WithRSAEncryption
         2e:58:4a:dd:a2:13:f6:16:f6:4b:53:79:3e:fd:20:80:ea:d2:
         72:bc:3e:65:54:3f:fd:6b:10:8b:ec:56:a4:42:2e:aa:df:30:
         d2:73:56:b3:9a:47:48:c7:1f:b4:77:2a:1a:86:62:7a:89:dd:
         2f:22:1b:08:91:04:f6:a0:16:17:c9:df:d5:82:bc:93:09:6d:
         55:5d:21:31:4d:7b:f8:1b:aa:18:c2:6e:e1:7c:b6:c5:77:99:
         99:da:2c:96:e5:7d:c6:c1:07:95:42:e1:9f:ca:9d:9a:fa:6b:
         3f:04:a5:82:c5:b0:21:21:23:72:40:d0:42:f6:af:43:a9:02:
         16:47:cc:d6:64:35:71:6b:81:08:94:d7:2f:df:a4:b5:f7:77:
         fa:c2:bc:61:f9:47:7d:c8:b6:89:a9:61:6c:8e:51:d0:fb:91:
         7c:bb:cf:e3:f1:06:aa:15:cb:10:08:5e:73:23:39:02:4d:fe:
         aa:0b:dc:b5:2e:3f:36:09:2e:6f:45:7c:05:82:1e:b0:18:fc:
         b3:08:38:0d:fd:e6:0f:ac:1f:d8:8e:02:49:53:dc:cc:0d:41:
         18:29:06:1d:2f:0e:36:7b:cc:89:31:c3:72:46:24:fb:78:da:
         56:9a:52:e6:8f:60:10:4c:fc:cb:82:18:52:08:63:9a:1e:21:
         ec:e5:dd:b2
-----BEGIN CERTIFICATE-----
MIIDdzCCAl+gAwIBAgIQVBUo8qmqfFviDErxuC7CuTANBgkqhkiG9w0BAQsFADAW
MRQwEgYDVQQDDAt0ZWFtNjYzLW5ldDAeFw0yMTA5MTMwNDI4NTRaFw0yNDA4Mjgw
NDI4NTRaMBkxFzAVBgNVBAMMDnRlYW02NjMtc2VydmVyMIIBIjANBgkqhkiG9w0B
AQEFAAOCAQ8AMIIBCgKCAQEA8wgwmGxylSOn9dppm9IVpjQ25t4w/oheHxLpxp4o
yIzHy8kSkEwH1Cn6LNr84g41qQIrrxlkIc4Qf/VwBu0E8N2YiUwcUuGC44QY4Oyc
Ip7jOgaX1kvNQaI9HTc3Zo008ziJYYdfpXcK7jEtPy9ezplloQuNDVVv3SpX7LNd
tq+wmjiFgc7I6RWpKYlR9f4a14c8YBbkx9Olr+YtJMFZgPg60tREu97drk5ZvhaS
u5eZAYak2iyRTe8OtWNOSCurNCSPhxhgExFMgguQUKMSen0nGy/YwLT645GHCxRT
fupmTm/YwPbyFEPwD9FdPLb1N042ZUlY3aCHYhjOFbJpvQIDAQABo4G9MIG6MAkG
A1UdEwQCMAAwHQYDVR0OBBYEFHLn6VRuM7aDQAEL4AjOXhZUdZPVMFEGA1UdIwRK
MEiAFPGS9yW1+VC+/lEgxCkU1mjrHbnRoRqkGDAWMRQwEgYDVQQDDAt0ZWFtNjYz
LW5ldIIUELjWTOVjPL1osCH9rejlOab9y+owEwYDVR0lBAwwCgYIKwYBBQUHAwEw
CwYDVR0PBAQDAgWgMBkGA1UdEQQSMBCCDnRlYW02NjMtc2VydmVyMA0GCSqGSIb3
DQEBCwUAA4IBAQAuWErdohP2FvZLU3k+/SCA6tJyvD5lVD/9axCL7FakQi6q3zDS
c1azmkdIxx+0dyoahmJ6id0vIhsIkQT2oBYXyd/VgryTCW1VXSExTXv4G6oYwm7h
fLbFd5mZ2iyW5X3GwQeVQuGfyp2a+ms/BKWCxbAhISNyQNBC9q9DqQIWR8zWZDVx
a4EIlNcv36S193f6wrxh+Ud9yLaJqWFsjlHQ+5F8u8/j8QaqFcsQCF5zIzkCTf6q
C9y1Lj82CS5vRXwFgh6wGPyzCDgN/eYPrB/YjgJJU9zMDUEYKQYdLw42e8yJMcNy
RiT7eNpWmlLmj2AQTPzLghhSCGOaHiHs5d2y
-----END CERTIFICATE-----
