Certificate:
    Data:
        Version: 3 (0x2)
        Serial Number:
            66:ee:28:31:e1:89:c7:19:25:10:c8:74:20:d2:24:c3
        Signature Algorithm: sha256WithRSAEncryption
        Issuer: CN=team747-net
        Validity
            Not Before: Sep 13 05:47:18 2021 GMT
            Not After : Aug 28 05:47:18 2024 GMT
        Subject: CN=team747-client
        Subject Public Key Info:
            Public Key Algorithm: rsaEncryption
                RSA Public-Key: (2048 bit)
                Modulus:
                    00:b0:f0:c6:da:45:d4:04:71:bc:c6:e3:dd:f9:ea:
                    56:e1:ed:60:4f:5e:a4:42:06:ae:76:3f:62:e2:01:
                    d9:1c:ab:a6:e6:3b:50:98:6a:5a:86:26:02:8d:0d:
                    9b:b7:64:b1:cf:f9:f0:d1:89:0e:48:cf:7a:7d:9c:
                    45:98:ef:cf:49:86:d4:5b:3d:85:0d:ee:6c:d0:4e:
                    58:67:d8:3f:7a:a9:51:77:82:b9:cc:62:0c:0b:24:
                    8c:b8:cb:a1:8d:bb:18:b4:dc:0a:8f:8b:d7:58:2a:
                    55:53:67:3d:8e:c5:90:d4:4d:84:09:28:4b:65:5f:
                    cf:57:45:14:29:f2:a9:50:69:9c:f0:3b:31:e4:b2:
                    6d:c0:ce:e9:8b:91:d1:ab:19:09:7f:f0:cf:ce:3a:
                    36:9b:2f:f6:ac:93:61:f9:bc:de:50:82:03:fd:18:
                    2c:6d:e8:05:e2:44:13:eb:d1:81:a9:77:be:b2:14:
                    09:82:25:63:d1:bb:6e:b3:65:e0:bc:36:4f:48:ca:
                    34:2f:30:4c:26:85:51:ab:06:8d:b8:ca:2a:38:31:
                    2a:12:40:a5:8b:a4:13:99:39:ab:7c:fd:91:db:da:
                    8f:49:87:d2:85:ca:09:c2:be:21:1d:81:d0:04:33:
                    52:2a:bf:cc:8b:ad:d8:af:28:23:4f:ed:05:24:5a:
                    3e:ff
                Exponent: 65537 (0x10001)
        X509v3 extensions:
            X509v3 Basic Constraints: 
                CA:FALSE
            X509v3 Subject Key Identifier: 
                4C:C9:4B:1B:A4:0A:B7:D1:01:A7:84:EE:F1:BF:A7:34:30:E0:BE:74
            X509v3 Authority Key Identifier: 
                keyid:96:96:BC:F3:CC:15:1B:70:AA:0A:24:1C:FF:42:24:AC:77:2E:7C:B2
                DirName:/CN=team747-net
                serial:0A:83:1E:A1:D5:4B:F1:BA:11:A6:3A:7A:43:B0:61:0B:1A:6C:9F:C6

            X509v3 Extended Key Usage: 
                TLS Web Client Authentication
            X509v3 Key Usage: 
                Digital Signature
    Signature Algorithm: sha256WithRSAEncryption
         89:10:8e:8a:d7:37:61:42:46:a9:b3:48:a2:33:20:3d:ab:85:
         b7:73:fa:4e:35:1a:b6:4b:d0:be:20:d0:de:58:6b:65:67:13:
         be:c3:06:f1:13:6f:3b:04:bc:bb:d0:9c:21:1f:7b:36:ab:69:
         87:2c:a4:55:26:71:31:8e:f3:61:99:0a:46:2b:54:bf:0d:e9:
         0e:9e:63:90:40:49:06:2d:db:1a:21:e4:3d:ba:3b:fb:43:79:
         56:9c:6d:5f:e1:13:81:9c:68:75:e5:64:45:89:c3:aa:f3:91:
         1a:cb:a7:ce:cf:ab:c9:e9:39:e9:40:e8:26:da:5b:1a:35:e3:
         59:e5:b9:a1:6d:8b:4c:18:93:c4:84:64:6d:44:0a:28:d4:30:
         91:fa:8f:52:20:b5:e7:46:44:0f:84:38:38:c6:68:df:49:ac:
         ae:84:03:0b:69:79:6b:4f:12:4e:83:a7:71:5f:bb:18:46:bf:
         ff:61:09:27:67:91:53:07:d0:c6:f9:1b:5e:63:cb:ae:0c:1c:
         8c:1d:1e:05:2e:e5:56:b9:82:99:67:86:e2:e4:16:7e:d9:d7:
         38:6d:e8:86:20:77:9d:60:5a:a3:0b:45:a0:db:15:4d:9c:21:
         95:b7:e6:54:32:3d:6f:ed:1d:f5:48:6b:d8:96:ea:42:3b:7c:
         a7:85:08:55
-----BEGIN CERTIFICATE-----
MIIDXDCCAkSgAwIBAgIQZu4oMeGJxxklEMh0INIkwzANBgkqhkiG9w0BAQsFADAW
MRQwEgYDVQQDDAt0ZWFtNzQ3LW5ldDAeFw0yMTA5MTMwNTQ3MThaFw0yNDA4Mjgw
NTQ3MThaMBkxFzAVBgNVBAMMDnRlYW03NDctY2xpZW50MIIBIjANBgkqhkiG9w0B
AQEFAAOCAQ8AMIIBCgKCAQEAsPDG2kXUBHG8xuPd+epW4e1gT16kQgaudj9i4gHZ
HKum5jtQmGpahiYCjQ2bt2Sxz/nw0YkOSM96fZxFmO/PSYbUWz2FDe5s0E5YZ9g/
eqlRd4K5zGIMCySMuMuhjbsYtNwKj4vXWCpVU2c9jsWQ1E2ECShLZV/PV0UUKfKp
UGmc8Dsx5LJtwM7pi5HRqxkJf/DPzjo2my/2rJNh+bzeUIID/RgsbegF4kQT69GB
qXe+shQJgiVj0btus2XgvDZPSMo0LzBMJoVRqwaNuMoqODEqEkCli6QTmTmrfP2R
29qPSYfShcoJwr4hHYHQBDNSKr/Mi63YrygjT+0FJFo+/wIDAQABo4GiMIGfMAkG
A1UdEwQCMAAwHQYDVR0OBBYEFEzJSxukCrfRAaeE7vG/pzQw4L50MFEGA1UdIwRK
MEiAFJaWvPPMFRtwqgokHP9CJKx3LnyyoRqkGDAWMRQwEgYDVQQDDAt0ZWFtNzQ3
LW5ldIIUCoMeodVL8boRpjp6Q7BhCxpsn8YwEwYDVR0lBAwwCgYIKwYBBQUHAwIw
CwYDVR0PBAQDAgeAMA0GCSqGSIb3DQEBCwUAA4IBAQCJEI6K1zdhQkaps0iiMyA9
q4W3c/pONRq2S9C+INDeWGtlZxO+wwbxE287BLy70JwhH3s2q2mHLKRVJnExjvNh
mQpGK1S/DekOnmOQQEkGLdsaIeQ9ujv7Q3lWnG1f4ROBnGh15WRFicOq85Eay6fO
z6vJ6TnpQOgm2lsaNeNZ5bmhbYtMGJPEhGRtRAoo1DCR+o9SILXnRkQPhDg4xmjf
SayuhAMLaXlrTxJOg6dxX7sYRr//YQknZ5FTB9DG+RteY8uuDByMHR4FLuVWuYKZ
Z4bi5BZ+2dc4beiGIHedYFqjC0Wg2xVNnCGVt+ZUMj1v7R31SGvYlupCO3ynhQhV
-----END CERTIFICATE-----
