Certificate:
    Data:
        Version: 3 (0x2)
        Serial Number:
            de:bd:8f:64:86:0d:a4:7b:ea:2a:1c:7a:eb:e7:02:9b
        Signature Algorithm: sha256WithRSAEncryption
        Issuer: CN=team455-net
        Validity
            Not Before: Sep 13 02:44:45 2021 GMT
            Not After : Aug 28 02:44:45 2024 GMT
        Subject: CN=team455-server
        Subject Public Key Info:
            Public Key Algorithm: rsaEncryption
                RSA Public-Key: (2048 bit)
                Modulus:
                    00:fd:59:cc:02:66:bb:24:d5:23:d6:79:24:29:cc:
                    e0:b0:61:f4:47:78:d9:fe:37:68:09:b4:af:f0:92:
                    b8:02:62:94:2a:1e:e7:53:03:19:e6:8c:bf:9e:1e:
                    5e:f6:8e:7b:ed:cb:ac:0d:a6:68:7a:15:c6:09:13:
                    db:9f:b9:04:93:d9:6e:c3:4e:6f:ae:6d:9b:0b:db:
                    58:b9:3d:01:75:28:cb:45:44:e3:72:e6:af:31:4c:
                    8a:e6:82:7a:e3:1e:0b:64:73:ff:88:48:7b:dd:f4:
                    42:28:52:37:0a:61:f8:cd:96:bd:1b:40:4e:40:1f:
                    30:13:bd:ef:70:18:a6:5a:84:b9:7d:79:e9:46:d4:
                    56:25:8f:de:95:9c:42:18:fd:a0:00:b3:03:a7:56:
                    5f:d8:fe:84:8c:2b:ab:d4:67:13:bf:66:df:5c:e9:
                    70:fa:dd:77:fd:3b:72:b3:88:55:cb:d2:f7:50:c5:
                    1c:35:75:5d:f3:c5:58:94:da:07:24:c7:b0:95:da:
                    b3:59:6e:c0:fd:8f:2f:d3:40:82:fd:f9:62:6f:5f:
                    7a:17:4f:fe:aa:e3:d2:6c:69:06:50:c0:60:f5:5d:
                    95:60:58:96:84:de:b1:53:56:21:c9:f4:9b:6f:eb:
                    99:7d:4f:57:9a:89:d0:98:20:8f:ee:c0:06:aa:66:
                    df:d5
                Exponent: 65537 (0x10001)
        X509v3 extensions:
            X509v3 Basic Constraints: 
                CA:FALSE
            X509v3 Subject Key Identifier: 
                63:E8:E2:BB:C1:B2:3B:23:FA:61:57:0F:F4:C0:28:44:BC:21:0D:28
            X509v3 Authority Key Identifier: 
                keyid:A1:34:E0:00:3B:87:11:FF:98:FF:27:18:39:91:30:E6:90:BA:9D:07
                DirName:/CN=team455-net
                serial:3A:92:7E:13:8F:95:9B:05:77:34:BA:8D:8C:80:19:22:F8:B5:81:F7

            X509v3 Extended Key Usage: 
                TLS Web Server Authentication
            X509v3 Key Usage: 
                Digital Signature, Key Encipherment
            X509v3 Subject Alternative Name: 
                DNS:team455-server
    Signature Algorithm: sha256WithRSAEncryption
         36:8a:3b:c2:f3:94:6a:57:3d:0c:e3:dd:e8:a1:3d:71:98:0b:
         85:63:52:fa:b8:e2:0f:b2:75:09:58:83:aa:d8:00:b1:8a:94:
         5e:e1:e3:a2:86:17:7a:12:fa:1c:9f:13:c5:a9:1b:32:78:e7:
         91:21:4a:38:95:f3:be:f5:96:8d:40:6d:5d:99:de:71:6f:c7:
         30:65:5e:40:8b:96:cd:c1:6a:5b:6f:3c:11:c8:13:3c:f0:93:
         01:e6:53:0f:a2:94:19:92:79:96:c2:0a:61:76:e6:0a:16:77:
         cb:a8:c5:96:cd:7a:22:98:d1:12:68:ae:7d:49:39:0d:fc:d6:
         51:79:b0:01:5b:2d:f9:71:fb:aa:1c:f5:db:13:3b:89:64:c3:
         da:97:6e:d6:91:72:5f:38:8a:81:5f:84:41:f5:e3:71:9b:e9:
         69:d4:14:50:ad:97:ae:ae:70:63:53:73:ea:f0:41:73:da:35:
         bf:e3:3d:ec:2e:95:1d:b2:c4:1a:58:08:eb:57:9f:35:9c:0c:
         c9:d8:99:fb:61:fa:67:f7:53:9f:27:88:82:31:56:95:8e:94:
         23:3e:f0:09:35:89:f5:01:cc:da:35:4d:e3:60:7b:88:2d:c8:
         0b:3c:da:b8:67:72:ce:3d:b9:c8:39:e7:27:46:68:68:42:2b:
         04:05:18:f3
-----BEGIN CERTIFICATE-----
MIIDeDCCAmCgAwIBAgIRAN69j2SGDaR76ioceuvnApswDQYJKoZIhvcNAQELBQAw
FjEUMBIGA1UEAwwLdGVhbTQ1NS1uZXQwHhcNMjEwOTEzMDI0NDQ1WhcNMjQwODI4
MDI0NDQ1WjAZMRcwFQYDVQQDDA50ZWFtNDU1LXNlcnZlcjCCASIwDQYJKoZIhvcN
AQEBBQADggEPADCCAQoCggEBAP1ZzAJmuyTVI9Z5JCnM4LBh9Ed42f43aAm0r/CS
uAJilCoe51MDGeaMv54eXvaOe+3LrA2maHoVxgkT25+5BJPZbsNOb65tmwvbWLk9
AXUoy0VE43LmrzFMiuaCeuMeC2Rz/4hIe930QihSNwph+M2WvRtATkAfMBO973AY
plqEuX156UbUViWP3pWcQhj9oACzA6dWX9j+hIwrq9RnE79m31zpcPrdd/07crOI
VcvS91DFHDV1XfPFWJTaByTHsJXas1luwP2PL9NAgv35Ym9fehdP/qrj0mxpBlDA
YPVdlWBYloTesVNWIcn0m2/rmX1PV5qJ0Jggj+7ABqpm39UCAwEAAaOBvTCBujAJ
BgNVHRMEAjAAMB0GA1UdDgQWBBRj6OK7wbI7I/phVw/0wChEvCENKDBRBgNVHSME
SjBIgBShNOAAO4cR/5j/Jxg5kTDmkLqdB6EapBgwFjEUMBIGA1UEAwwLdGVhbTQ1
NS1uZXSCFDqSfhOPlZsFdzS6jYyAGSL4tYH3MBMGA1UdJQQMMAoGCCsGAQUFBwMB
MAsGA1UdDwQEAwIFoDAZBgNVHREEEjAQgg50ZWFtNDU1LXNlcnZlcjANBgkqhkiG
9w0BAQsFAAOCAQEANoo7wvOUalc9DOPd6KE9cZgLhWNS+rjiD7J1CViDqtgAsYqU
XuHjooYXehL6HJ8TxakbMnjnkSFKOJXzvvWWjUBtXZnecW/HMGVeQIuWzcFqW288
EcgTPPCTAeZTD6KUGZJ5lsIKYXbmChZ3y6jFls16IpjREmiufUk5DfzWUXmwAVst
+XH7qhz12xM7iWTD2pdu1pFyXziKgV+EQfXjcZvpadQUUK2Xrq5wY1Nz6vBBc9o1
v+M97C6VHbLEGlgI61efNZwMydiZ+2H6Z/dTnyeIgjFWlY6UIz7wCTWJ9QHM2jVN
42B7iC3ICzzauGdyzj25yDnnJ0ZoaEIrBAUY8w==
-----END CERTIFICATE-----
