Certificate:
    Data:
        Version: 3 (0x2)
        Serial Number:
            8e:77:21:46:18:3e:c6:7e:47:9a:8a:fb:dc:e2:47:ca
        Signature Algorithm: sha256WithRSAEncryption
        Issuer: CN=team266-net
        Validity
            Not Before: Sep 13 01:03:23 2021 GMT
            Not After : Aug 28 01:03:23 2024 GMT
        Subject: CN=team266-client
        Subject Public Key Info:
            Public Key Algorithm: rsaEncryption
                RSA Public-Key: (2048 bit)
                Modulus:
                    00:dc:9a:3e:5b:e1:e2:f3:6c:b2:0d:c0:f0:f1:b9:
                    09:5c:5a:55:fa:fa:88:f1:5a:98:e2:f8:63:69:ba:
                    10:1c:9b:d6:b1:0c:3e:cd:6a:25:a3:24:3c:dc:15:
                    66:ba:fb:45:51:5d:2b:a6:e6:b4:e5:19:c6:6b:24:
                    53:4c:8c:02:ff:28:f0:90:0d:91:24:75:37:3b:9d:
                    05:4d:cb:25:60:f8:bb:99:47:25:59:8b:12:98:0e:
                    f4:df:2c:97:7b:6b:bd:02:f5:70:6e:c5:ac:30:4b:
                    23:a6:9a:0f:3d:da:fb:76:22:dd:39:db:c6:03:af:
                    fb:92:1c:4c:e7:84:5f:f4:96:4a:cc:01:97:93:75:
                    da:d5:7b:45:2b:0b:27:91:59:b4:5c:3f:43:7f:e3:
                    d8:5e:41:37:39:39:c4:6e:27:84:bc:73:d0:ee:24:
                    01:c6:25:9f:d2:68:f4:51:01:09:a2:c1:fc:0f:dd:
                    28:ce:fc:49:6b:82:b0:c5:c1:a5:8e:4a:30:18:e2:
                    6c:29:c7:13:66:87:68:3e:f7:5d:e9:fc:ad:67:06:
                    ff:7c:82:17:03:17:16:f8:de:d5:5c:af:59:0f:da:
                    24:b6:dc:35:c8:9f:c3:4f:fa:38:e9:57:f2:5e:e1:
                    02:92:1f:76:7a:cc:95:56:ce:3b:75:c9:73:56:e9:
                    d0:e1
                Exponent: 65537 (0x10001)
        X509v3 extensions:
            X509v3 Basic Constraints: 
                CA:FALSE
            X509v3 Subject Key Identifier: 
                96:9F:FF:35:30:4A:4D:B8:03:2A:40:D7:8A:B1:24:86:D0:21:83:43
            X509v3 Authority Key Identifier: 
                keyid:1E:37:7B:38:48:98:35:CA:48:96:95:9F:A7:E5:3E:2F:CD:3B:86:A8
                DirName:/CN=team266-net
                serial:0B:7B:1B:88:60:10:F4:7D:B7:36:B3:C4:C0:06:4F:07:40:38:2B:8A

            X509v3 Extended Key Usage: 
                TLS Web Client Authentication
            X509v3 Key Usage: 
                Digital Signature
    Signature Algorithm: sha256WithRSAEncryption
         78:df:73:24:07:2a:34:39:fe:9c:0b:9c:91:8d:91:35:73:39:
         f8:82:86:19:63:ad:e2:ab:e7:6d:90:94:6c:d9:2c:89:aa:24:
         da:dd:f5:bd:af:ae:5b:98:02:67:ed:2f:24:e7:54:26:47:6c:
         4f:99:d5:bf:33:3b:f1:94:bc:5b:ca:e8:21:c9:bb:2f:13:ad:
         3a:8e:88:f7:b7:b0:71:10:c7:00:27:b3:e1:7d:fd:63:2d:c1:
         3d:1a:87:83:25:a2:56:11:53:9b:bf:a5:d8:f7:53:a3:3d:76:
         16:63:c1:56:23:e8:02:6a:de:ba:2c:03:33:4b:0a:34:3b:d4:
         e5:bd:75:5b:6e:8c:5f:60:9c:01:ac:4d:47:45:81:b5:84:24:
         f4:50:05:33:ac:99:39:6f:e2:06:fd:48:bc:cc:10:89:b4:66:
         64:18:e7:c9:31:b6:b4:b3:98:db:87:b5:34:28:67:3d:43:ff:
         42:f2:24:75:18:b0:b4:23:1f:c1:ed:08:91:59:e7:d6:80:b0:
         d5:2b:80:28:de:56:2b:4b:39:8d:3a:a5:81:b2:9e:30:0c:b5:
         af:fa:52:89:ec:aa:38:b7:94:d4:7a:43:1c:fd:a4:52:ec:db:
         06:be:83:56:b6:3e:c3:b3:7c:af:db:6a:2b:ce:d8:3a:0d:9f:
         9f:98:13:d5
-----BEGIN CERTIFICATE-----
MIIDXTCCAkWgAwIBAgIRAI53IUYYPsZ+R5qK+9ziR8owDQYJKoZIhvcNAQELBQAw
FjEUMBIGA1UEAwwLdGVhbTI2Ni1uZXQwHhcNMjEwOTEzMDEwMzIzWhcNMjQwODI4
MDEwMzIzWjAZMRcwFQYDVQQDDA50ZWFtMjY2LWNsaWVudDCCASIwDQYJKoZIhvcN
AQEBBQADggEPADCCAQoCggEBANyaPlvh4vNssg3A8PG5CVxaVfr6iPFamOL4Y2m6
EByb1rEMPs1qJaMkPNwVZrr7RVFdK6bmtOUZxmskU0yMAv8o8JANkSR1NzudBU3L
JWD4u5lHJVmLEpgO9N8sl3trvQL1cG7FrDBLI6aaDz3a+3Yi3TnbxgOv+5IcTOeE
X/SWSswBl5N12tV7RSsLJ5FZtFw/Q3/j2F5BNzk5xG4nhLxz0O4kAcYln9Jo9FEB
CaLB/A/dKM78SWuCsMXBpY5KMBjibCnHE2aHaD73Xen8rWcG/3yCFwMXFvje1Vyv
WQ/aJLbcNcifw0/6OOlX8l7hApIfdnrMlVbOO3XJc1bp0OECAwEAAaOBojCBnzAJ
BgNVHRMEAjAAMB0GA1UdDgQWBBSWn/81MEpNuAMqQNeKsSSG0CGDQzBRBgNVHSME
SjBIgBQeN3s4SJg1ykiWlZ+n5T4vzTuGqKEapBgwFjEUMBIGA1UEAwwLdGVhbTI2
Ni1uZXSCFAt7G4hgEPR9tzazxMAGTwdAOCuKMBMGA1UdJQQMMAoGCCsGAQUFBwMC
MAsGA1UdDwQEAwIHgDANBgkqhkiG9w0BAQsFAAOCAQEAeN9zJAcqNDn+nAuckY2R
NXM5+IKGGWOt4qvnbZCUbNksiaok2t31va+uW5gCZ+0vJOdUJkdsT5nVvzM78ZS8
W8roIcm7LxOtOo6I97ewcRDHACez4X39Yy3BPRqHgyWiVhFTm7+l2PdToz12FmPB
ViPoAmreuiwDM0sKNDvU5b11W26MX2CcAaxNR0WBtYQk9FAFM6yZOW/iBv1IvMwQ
ibRmZBjnyTG2tLOY24e1NChnPUP/QvIkdRiwtCMfwe0IkVnn1oCw1SuAKN5WK0s5
jTqlgbKeMAy1r/pSieyqOLeU1HpDHP2kUuzbBr6DVrY+w7N8r9tqK87YOg2fn5gT
1Q==
-----END CERTIFICATE-----
