Certificate:
    Data:
        Version: 3 (0x2)
        Serial Number:
            c4:87:3b:89:39:1d:60:b1:6c:d0:53:e0:ba:22:68:55
        Signature Algorithm: sha256WithRSAEncryption
        Issuer: CN=team266-net
        Validity
            Not Before: Sep 13 01:03:23 2021 GMT
            Not After : Aug 28 01:03:23 2024 GMT
        Subject: CN=team266-server
        Subject Public Key Info:
            Public Key Algorithm: rsaEncryption
                RSA Public-Key: (2048 bit)
                Modulus:
                    00:d2:2e:32:74:b4:2d:f2:95:da:8d:80:c3:72:dd:
                    13:6b:01:9b:cc:02:6d:b8:77:d8:e0:ab:ae:44:22:
                    6f:64:ae:75:37:74:d8:5d:a1:fa:c8:63:7d:ba:27:
                    e7:aa:b9:75:80:46:fa:bf:d4:c5:a5:8c:2b:99:81:
                    0f:f3:74:d0:e9:5d:59:db:1f:f6:1f:cf:86:db:a4:
                    12:13:31:16:e0:bf:f9:ef:62:7b:85:08:09:6a:c8:
                    86:5f:e7:4b:5c:c1:7c:ed:bd:03:13:ab:0c:77:1c:
                    ae:03:81:70:78:fc:6f:08:f9:15:d1:60:70:4f:1b:
                    77:bf:e2:16:86:5b:c3:1f:fc:4e:43:14:2a:f4:ab:
                    97:ae:9d:19:94:be:92:05:a2:b7:b3:de:55:16:95:
                    92:38:da:73:3f:93:40:56:03:37:d1:6b:ca:71:5b:
                    08:14:9c:d9:38:ce:36:08:ed:1a:3f:79:39:e5:0b:
                    8a:aa:45:f7:33:a9:92:00:e4:c7:7a:41:54:2e:5c:
                    43:2b:19:ce:6f:62:40:e2:37:c7:3c:5a:bf:1d:89:
                    06:7c:b7:d3:55:3d:c5:a0:01:c4:59:a0:15:31:5c:
                    37:6a:44:fe:52:4f:8e:85:a4:ce:87:2e:eb:19:3e:
                    7c:dc:92:7e:0c:46:d3:8a:b2:5a:ef:37:66:b6:a0:
                    af:87
                Exponent: 65537 (0x10001)
        X509v3 extensions:
            X509v3 Basic Constraints: 
                CA:FALSE
            X509v3 Subject Key Identifier: 
                91:62:A2:B2:5F:81:A8:39:DA:F4:31:BD:9B:2B:DE:A8:53:22:FD:E5
            X509v3 Authority Key Identifier: 
                keyid:1E:37:7B:38:48:98:35:CA:48:96:95:9F:A7:E5:3E:2F:CD:3B:86:A8
                DirName:/CN=team266-net
                serial:0B:7B:1B:88:60:10:F4:7D:B7:36:B3:C4:C0:06:4F:07:40:38:2B:8A

            X509v3 Extended Key Usage: 
                TLS Web Server Authentication
            X509v3 Key Usage: 
                Digital Signature, Key Encipherment
            X509v3 Subject Alternative Name: 
                DNS:team266-server
    Signature Algorithm: sha256WithRSAEncryption
         7c:c8:c8:ef:3f:d9:f2:2c:fc:b2:27:85:64:cb:e3:d4:3a:3f:
         02:48:87:fb:f0:e6:70:56:05:91:e5:c1:e2:65:3b:5b:b3:2e:
         24:8a:18:96:8a:ba:6f:5c:4f:5e:23:4f:b6:b6:c8:c4:22:e5:
         e3:d0:06:a3:b8:47:1d:fb:23:16:37:ab:c6:f2:90:57:81:03:
         98:74:1e:7c:ed:2c:62:39:7e:06:a1:50:7b:84:9c:ee:cc:c2:
         df:d4:f0:a9:c6:0d:24:8f:8e:ca:22:b1:2b:71:41:71:b6:0c:
         6b:d0:43:7f:75:54:1c:76:97:e4:ac:1c:6b:31:4f:29:db:08:
         4a:73:3a:37:d5:ab:dd:47:a3:b8:62:8f:b3:1a:cc:a9:73:81:
         f9:b8:09:75:f3:80:30:b4:3b:dc:64:96:a2:10:ac:80:ec:69:
         8c:f3:e8:81:03:67:cf:0d:c3:d5:8a:e4:cb:64:85:62:57:ec:
         82:b4:c3:c8:91:a3:fe:61:e6:3f:54:b2:e3:ed:3c:3d:c6:18:
         64:32:a8:b7:c3:97:8f:76:69:30:32:7f:4e:36:22:f1:55:da:
         66:87:d0:c6:26:ea:fc:06:c4:cf:b0:16:b4:b9:a1:56:b2:25:
         a7:dc:98:74:9f:6d:cd:12:92:e3:23:06:65:2f:8e:7e:73:87:
         f6:00:21:2a
-----BEGIN CERTIFICATE-----
MIIDeDCCAmCgAwIBAgIRAMSHO4k5HWCxbNBT4LoiaFUwDQYJKoZIhvcNAQELBQAw
FjEUMBIGA1UEAwwLdGVhbTI2Ni1uZXQwHhcNMjEwOTEzMDEwMzIzWhcNMjQwODI4
MDEwMzIzWjAZMRcwFQYDVQQDDA50ZWFtMjY2LXNlcnZlcjCCASIwDQYJKoZIhvcN
AQEBBQADggEPADCCAQoCggEBANIuMnS0LfKV2o2Aw3LdE2sBm8wCbbh32OCrrkQi
b2SudTd02F2h+shjfbon56q5dYBG+r/UxaWMK5mBD/N00OldWdsf9h/PhtukEhMx
FuC/+e9ie4UICWrIhl/nS1zBfO29AxOrDHccrgOBcHj8bwj5FdFgcE8bd7/iFoZb
wx/8TkMUKvSrl66dGZS+kgWit7PeVRaVkjjacz+TQFYDN9FrynFbCBSc2TjONgjt
Gj95OeULiqpF9zOpkgDkx3pBVC5cQysZzm9iQOI3xzxavx2JBny301U9xaABxFmg
FTFcN2pE/lJPjoWkzocu6xk+fNySfgxG04qyWu83Zragr4cCAwEAAaOBvTCBujAJ
BgNVHRMEAjAAMB0GA1UdDgQWBBSRYqKyX4GoOdr0Mb2bK96oUyL95TBRBgNVHSME
SjBIgBQeN3s4SJg1ykiWlZ+n5T4vzTuGqKEapBgwFjEUMBIGA1UEAwwLdGVhbTI2
Ni1uZXSCFAt7G4hgEPR9tzazxMAGTwdAOCuKMBMGA1UdJQQMMAoGCCsGAQUFBwMB
MAsGA1UdDwQEAwIFoDAZBgNVHREEEjAQgg50ZWFtMjY2LXNlcnZlcjANBgkqhkiG
9w0BAQsFAAOCAQEAfMjI7z/Z8iz8sieFZMvj1Do/AkiH+/DmcFYFkeXB4mU7W7Mu
JIoYloq6b1xPXiNPtrbIxCLl49AGo7hHHfsjFjerxvKQV4EDmHQefO0sYjl+BqFQ
e4Sc7szC39TwqcYNJI+OyiKxK3FBcbYMa9BDf3VUHHaX5KwcazFPKdsISnM6N9Wr
3UejuGKPsxrMqXOB+bgJdfOAMLQ73GSWohCsgOxpjPPogQNnzw3D1Yrky2SFYlfs
grTDyJGj/mHmP1Sy4+08PcYYZDKot8OXj3ZpMDJ/TjYi8VXaZofQxibq/AbEz7AW
tLmhVrIlp9yYdJ9tzRKS4yMGZS+OfnOH9gAhKg==
-----END CERTIFICATE-----
