Certificate:
    Data:
        Version: 3 (0x2)
        Serial Number:
            f0:30:45:62:1e:45:22:a4:e9:cd:ca:a6:18:fc:84:b2
        Signature Algorithm: sha256WithRSAEncryption
        Issuer: CN=team678-net
        Validity
            Not Before: Sep 13 04:36:27 2021 GMT
            Not After : Aug 28 04:36:27 2024 GMT
        Subject: CN=team678-client
        Subject Public Key Info:
            Public Key Algorithm: rsaEncryption
                RSA Public-Key: (2048 bit)
                Modulus:
                    00:f6:93:68:85:30:f4:01:29:94:36:cf:f2:a7:97:
                    a8:6a:15:43:23:8e:5d:9d:36:3b:d3:db:2b:cf:f5:
                    67:59:57:bc:d8:9d:ae:f5:10:66:9e:79:0f:8a:d2:
                    23:c9:f9:3c:83:bd:60:67:80:be:54:cc:c1:fa:77:
                    3e:1c:f7:cc:1e:86:58:a6:c5:7d:72:78:97:46:cf:
                    85:11:96:ff:44:0e:7f:b1:22:16:7d:5d:ef:49:89:
                    ce:73:a8:cf:46:0d:7d:7b:ad:23:27:c4:04:a6:c2:
                    19:2b:58:db:b4:e8:33:59:08:1e:48:50:86:76:f2:
                    18:41:39:45:1e:b4:fd:da:29:6b:1d:7a:3e:ea:90:
                    b0:45:64:8c:74:72:17:a9:56:8f:01:f0:a9:56:75:
                    8a:73:32:22:60:1d:8d:e3:95:f3:a5:ae:88:24:67:
                    7f:4f:b7:a4:eb:09:db:6e:3d:cd:b6:7f:ba:ce:fa:
                    bf:35:0f:61:75:87:1d:88:e6:eb:34:13:f8:69:36:
                    11:f9:b0:30:83:9d:76:5b:78:aa:ce:7d:6d:5f:6c:
                    04:d9:a2:f0:9b:ba:56:15:25:c9:4e:c8:a3:44:71:
                    ad:e0:ea:57:34:7e:f3:16:88:7e:2e:4b:98:76:2e:
                    13:eb:8b:3a:11:0c:54:50:cb:eb:2d:42:16:fd:b2:
                    22:23
                Exponent: 65537 (0x10001)
        X509v3 extensions:
            X509v3 Basic Constraints: 
                CA:FALSE
            X509v3 Subject Key Identifier: 
                83:EE:37:E6:81:FA:AC:E1:A9:DE:BB:6B:10:47:F8:DD:6B:3A:D8:B2
            X509v3 Authority Key Identifier: 
                keyid:EE:88:A5:91:65:76:55:F3:48:87:68:99:18:DC:3A:8B:34:18:32:AE
                DirName:/CN=team678-net
                serial:76:96:70:A0:12:87:FC:A4:23:6D:B8:F9:F1:93:DB:63:B8:93:C5:86

            X509v3 Extended Key Usage: 
                TLS Web Client Authentication
            X509v3 Key Usage: 
                Digital Signature
    Signature Algorithm: sha256WithRSAEncryption
         0e:70:44:3f:a1:a4:98:d6:41:b2:bf:ae:36:a7:f4:e3:6a:e3:
         a0:39:93:b7:b9:0a:ae:f5:be:de:eb:9b:db:ff:14:27:dc:3e:
         f4:90:8c:95:c9:a8:7f:26:71:22:e6:2a:1a:31:ac:a4:4b:a0:
         0f:86:86:b5:95:8b:16:a0:15:d6:d5:a3:8d:26:ee:69:aa:39:
         80:33:a8:b5:b0:c0:fe:b5:a1:d3:2c:80:f6:0f:0d:98:d4:2f:
         6c:76:a8:3d:40:99:5f:30:73:f2:43:98:6f:20:3f:d6:cc:0d:
         93:2b:0b:b8:97:ec:03:c3:64:68:a4:0e:69:09:08:0a:f5:f9:
         a3:c6:80:98:05:c6:67:20:57:ff:a9:2c:2b:96:50:b9:4d:f8:
         76:ad:a3:fc:c9:28:b6:ef:76:cb:9c:9a:42:81:d5:e4:c8:79:
         35:71:c1:6a:14:1c:8c:85:e5:4b:ad:4e:93:28:0a:21:e7:14:
         6a:7d:ae:62:10:92:77:64:7e:1b:81:f0:b0:0c:c1:d4:19:f0:
         d0:45:6b:84:bf:fe:d4:b7:f6:3e:48:f5:6e:2a:b0:5e:e6:c1:
         9b:16:5a:c8:b3:33:ea:a3:25:1c:39:bb:87:09:50:6a:00:02:
         77:b6:5f:d0:eb:aa:55:87:f6:1a:82:5b:6d:b6:83:6e:ca:f7:
         d0:90:0b:89
-----BEGIN CERTIFICATE-----
MIIDXTCCAkWgAwIBAgIRAPAwRWIeRSKk6c3Kphj8hLIwDQYJKoZIhvcNAQELBQAw
FjEUMBIGA1UEAwwLdGVhbTY3OC1uZXQwHhcNMjEwOTEzMDQzNjI3WhcNMjQwODI4
MDQzNjI3WjAZMRcwFQYDVQQDDA50ZWFtNjc4LWNsaWVudDCCASIwDQYJKoZIhvcN
AQEBBQADggEPADCCAQoCggEBAPaTaIUw9AEplDbP8qeXqGoVQyOOXZ02O9PbK8/1
Z1lXvNidrvUQZp55D4rSI8n5PIO9YGeAvlTMwfp3Phz3zB6GWKbFfXJ4l0bPhRGW
/0QOf7EiFn1d70mJznOoz0YNfXutIyfEBKbCGStY27ToM1kIHkhQhnbyGEE5RR60
/dopax16PuqQsEVkjHRyF6lWjwHwqVZ1inMyImAdjeOV86WuiCRnf0+3pOsJ2249
zbZ/us76vzUPYXWHHYjm6zQT+Gk2EfmwMIOddlt4qs59bV9sBNmi8Ju6VhUlyU7I
o0RxreDqVzR+8xaIfi5LmHYuE+uLOhEMVFDL6y1CFv2yIiMCAwEAAaOBojCBnzAJ
BgNVHRMEAjAAMB0GA1UdDgQWBBSD7jfmgfqs4aneu2sQR/jdazrYsjBRBgNVHSME
SjBIgBTuiKWRZXZV80iHaJkY3DqLNBgyrqEapBgwFjEUMBIGA1UEAwwLdGVhbTY3
OC1uZXSCFHaWcKASh/ykI224+fGT22O4k8WGMBMGA1UdJQQMMAoGCCsGAQUFBwMC
MAsGA1UdDwQEAwIHgDANBgkqhkiG9w0BAQsFAAOCAQEADnBEP6GkmNZBsr+uNqf0
42rjoDmTt7kKrvW+3uub2/8UJ9w+9JCMlcmofyZxIuYqGjGspEugD4aGtZWLFqAV
1tWjjSbuaao5gDOotbDA/rWh0yyA9g8NmNQvbHaoPUCZXzBz8kOYbyA/1swNkysL
uJfsA8NkaKQOaQkICvX5o8aAmAXGZyBX/6ksK5ZQuU34dq2j/Mkotu92y5yaQoHV
5Mh5NXHBahQcjIXlS61OkygKIecUan2uYhCSd2R+G4HwsAzB1Bnw0EVrhL/+1Lf2
Pkj1biqwXubBmxZayLMz6qMlHDm7hwlQagACd7Zf0OuqVYf2GoJbbbaDbsr30JAL
iQ==
-----END CERTIFICATE-----
