Certificate:
    Data:
        Version: 3 (0x2)
        Serial Number:
            81:1a:0d:1e:8d:70:e9:2c:56:ce:a1:4a:6e:53:dd:78
        Signature Algorithm: sha256WithRSAEncryption
        Issuer: CN=team231-net
        Validity
            Not Before: Sep 13 00:39:32 2021 GMT
            Not After : Aug 28 00:39:32 2024 GMT
        Subject: CN=team231-server
        Subject Public Key Info:
            Public Key Algorithm: rsaEncryption
                RSA Public-Key: (2048 bit)
                Modulus:
                    00:b9:60:f7:f5:07:d1:55:c7:bf:2d:79:7f:22:03:
                    cd:06:c8:5a:ba:92:b6:03:95:f8:cc:b8:54:8e:64:
                    2c:a7:31:d6:49:5d:f9:a8:7e:4a:31:06:59:2b:eb:
                    37:65:32:05:a0:a3:d5:a9:3a:d4:a0:3b:ff:a1:b5:
                    86:17:d7:58:6f:40:82:38:9b:4f:19:e8:06:e3:16:
                    11:ac:be:28:ff:10:7b:c3:05:59:42:a0:29:57:e0:
                    4d:2e:11:07:df:d6:65:26:99:05:72:f1:08:c2:32:
                    a6:a5:f2:b2:46:02:c8:b0:94:c1:2b:20:06:06:b9:
                    21:b0:7a:bf:7f:5f:8b:b6:6f:09:88:89:20:6c:7a:
                    4c:02:4f:44:48:8e:fd:8c:23:3e:ac:8c:44:7b:2c:
                    08:cd:25:c9:32:ac:9f:e3:b6:c4:e1:96:e6:30:0c:
                    d9:ae:20:c9:d6:de:a5:2a:c3:52:87:44:d1:a8:8e:
                    b6:c3:e6:d3:c9:d6:4a:a9:3b:59:1b:4e:a7:19:79:
                    f9:1c:fa:db:e4:d8:0e:12:f4:1a:72:4c:cf:f2:31:
                    be:cd:18:6e:ad:93:db:cb:1f:72:59:77:52:bc:70:
                    51:3a:f1:49:29:9b:ee:09:ca:d8:4b:53:70:cd:a8:
                    b8:8c:93:b8:c6:1a:36:70:c0:97:69:f1:de:85:d5:
                    b9:4b
                Exponent: 65537 (0x10001)
        X509v3 extensions:
            X509v3 Basic Constraints: 
                CA:FALSE
            X509v3 Subject Key Identifier: 
                39:29:E0:5B:49:D4:D6:7E:8A:AC:7E:CD:16:52:80:E1:F2:DB:57:69
            X509v3 Authority Key Identifier: 
                keyid:48:F7:6F:E9:53:54:51:CE:E2:A3:E8:61:81:B5:80:2F:87:56:63:D1
                DirName:/CN=team231-net
                serial:2D:72:9D:4A:BF:ED:FC:CA:B2:F6:A4:55:11:32:E0:25:2A:0D:79:3E

            X509v3 Extended Key Usage: 
                TLS Web Server Authentication
            X509v3 Key Usage: 
                Digital Signature, Key Encipherment
            X509v3 Subject Alternative Name: 
                DNS:team231-server
    Signature Algorithm: sha256WithRSAEncryption
         01:43:60:ca:a0:01:cd:1d:44:7c:9b:25:a2:85:d0:cb:5a:2d:
         e7:f1:4b:a1:ae:02:b0:a8:64:3d:f3:65:44:bd:af:3c:e2:10:
         b4:65:0e:42:31:fb:bf:09:72:29:1c:7d:73:52:ba:a3:6b:ec:
         cc:30:ea:1e:47:a1:10:18:92:d3:56:5e:8e:c8:ee:61:58:e4:
         dd:e3:7f:92:7c:82:7d:a9:84:26:d6:26:1e:96:1b:70:e6:98:
         c7:d9:b1:31:e6:fa:ff:58:ec:30:e4:5d:69:cd:a4:a7:df:b2:
         97:e8:7f:68:73:66:c4:8d:bf:2c:44:f9:ef:45:cc:0e:cb:7d:
         6d:dc:bc:d3:b2:9a:37:77:61:f9:b6:e3:2c:de:01:ac:5e:44:
         20:7f:82:d6:6b:fa:a4:38:99:88:99:26:e3:a2:eb:9d:ff:04:
         74:f1:af:2a:8f:a0:6b:1b:41:c2:30:01:c6:8e:d2:06:2e:84:
         67:3d:3e:37:a4:e1:25:2f:a5:4e:56:d2:b3:c7:50:56:cf:8d:
         9b:eb:06:81:d5:fe:eb:dd:a3:95:84:8f:e2:ad:c9:f0:c9:49:
         b2:9a:a9:e2:fd:5b:9c:33:6a:0f:82:7a:eb:6f:79:5a:b9:e7:
         15:88:a0:7c:5e:31:4f:50:46:0f:0a:6b:9e:5c:aa:d3:46:b4:
         a0:f2:07:6a
-----BEGIN CERTIFICATE-----
MIIDeDCCAmCgAwIBAgIRAIEaDR6NcOksVs6hSm5T3XgwDQYJKoZIhvcNAQELBQAw
FjEUMBIGA1UEAwwLdGVhbTIzMS1uZXQwHhcNMjEwOTEzMDAzOTMyWhcNMjQwODI4
MDAzOTMyWjAZMRcwFQYDVQQDDA50ZWFtMjMxLXNlcnZlcjCCASIwDQYJKoZIhvcN
AQEBBQADggEPADCCAQoCggEBALlg9/UH0VXHvy15fyIDzQbIWrqStgOV+My4VI5k
LKcx1kld+ah+SjEGWSvrN2UyBaCj1ak61KA7/6G1hhfXWG9AgjibTxnoBuMWEay+
KP8Qe8MFWUKgKVfgTS4RB9/WZSaZBXLxCMIypqXyskYCyLCUwSsgBga5IbB6v39f
i7ZvCYiJIGx6TAJPREiO/YwjPqyMRHssCM0lyTKsn+O2xOGW5jAM2a4gydbepSrD
UodE0aiOtsPm08nWSqk7WRtOpxl5+Rz62+TYDhL0GnJMz/Ixvs0Ybq2T28sfcll3
UrxwUTrxSSmb7gnK2EtTcM2ouIyTuMYaNnDAl2nx3oXVuUsCAwEAAaOBvTCBujAJ
BgNVHRMEAjAAMB0GA1UdDgQWBBQ5KeBbSdTWfoqsfs0WUoDh8ttXaTBRBgNVHSME
SjBIgBRI92/pU1RRzuKj6GGBtYAvh1Zj0aEapBgwFjEUMBIGA1UEAwwLdGVhbTIz
MS1uZXSCFC1ynUq/7fzKsvakVREy4CUqDXk+MBMGA1UdJQQMMAoGCCsGAQUFBwMB
MAsGA1UdDwQEAwIFoDAZBgNVHREEEjAQgg50ZWFtMjMxLXNlcnZlcjANBgkqhkiG
9w0BAQsFAAOCAQEAAUNgyqABzR1EfJslooXQy1ot5/FLoa4CsKhkPfNlRL2vPOIQ
tGUOQjH7vwlyKRx9c1K6o2vszDDqHkehEBiS01ZejsjuYVjk3eN/knyCfamEJtYm
HpYbcOaYx9mxMeb6/1jsMORdac2kp9+yl+h/aHNmxI2/LET570XMDst9bdy807Ka
N3dh+bbjLN4BrF5EIH+C1mv6pDiZiJkm46Lrnf8EdPGvKo+gaxtBwjABxo7SBi6E
Zz0+N6ThJS+lTlbSs8dQVs+Nm+sGgdX+692jlYSP4q3J8MlJspqp4v1bnDNqD4J6
6295WrnnFYigfF4xT1BGDwprnlyq00a0oPIHag==
-----END CERTIFICATE-----
