Certificate:
    Data:
        Version: 3 (0x2)
        Serial Number:
            ae:d7:b3:f2:5e:0f:38:4e:fa:03:40:03:6d:1c:6e:06
        Signature Algorithm: sha256WithRSAEncryption
        Issuer: CN=team587-net
        Validity
            Not Before: Sep 13 04:07:43 2021 GMT
            Not After : Aug 28 04:07:43 2024 GMT
        Subject: CN=team587-server
        Subject Public Key Info:
            Public Key Algorithm: rsaEncryption
                RSA Public-Key: (2048 bit)
                Modulus:
                    00:c7:d2:1d:37:0d:38:d1:a6:54:06:9f:fb:e7:16:
                    82:70:92:8c:df:01:80:c9:fe:de:1f:4d:ee:f1:cb:
                    45:1f:03:78:df:a5:5c:87:34:c9:5f:47:b4:d9:8f:
                    f4:17:92:64:29:50:6f:b1:b0:e9:80:da:94:4a:9d:
                    93:75:c3:0d:f8:f1:4c:93:b7:8f:55:6f:c4:aa:3d:
                    6c:4c:cb:69:73:26:e1:f1:50:6b:b3:40:7b:4a:5a:
                    6f:b3:2b:42:b7:51:38:9f:62:57:cb:ac:6d:ce:30:
                    a0:7b:d4:8b:19:28:53:5e:a8:e5:fc:05:3e:67:0f:
                    3e:3c:ac:02:63:21:05:27:da:f1:14:4e:d8:08:58:
                    37:d9:3c:a4:92:d0:9f:ba:c4:ac:10:05:fd:90:14:
                    f5:0f:e6:dd:1f:0a:8b:ba:e1:0a:df:4c:9a:de:37:
                    c8:39:99:33:77:02:2e:6e:97:16:b1:fa:f7:37:c2:
                    31:bd:dc:97:c4:ac:e3:ed:48:4f:b8:0b:4c:a8:ed:
                    9a:f7:33:ba:5a:f3:9f:ef:28:b9:bd:fc:05:f9:44:
                    d9:cb:d7:ed:f5:d8:0d:ff:1e:e4:b4:0d:2f:90:30:
                    53:a5:07:88:d6:51:d5:9c:c7:71:f1:20:4f:0a:85:
                    19:98:9b:d9:a3:79:3d:13:7b:4b:db:76:6f:f2:98:
                    e8:c1
                Exponent: 65537 (0x10001)
        X509v3 extensions:
            X509v3 Basic Constraints: 
                CA:FALSE
            X509v3 Subject Key Identifier: 
                F2:A4:E5:A4:CB:1A:B7:54:9A:1B:0A:A1:F8:E9:F9:50:D4:0C:AC:70
            X509v3 Authority Key Identifier: 
                keyid:10:55:4E:82:5E:21:DF:9C:40:E9:0B:EE:B3:3A:15:FC:0C:A4:01:49
                DirName:/CN=team587-net
                serial:31:C2:57:50:8C:A4:3F:17:88:8A:A6:33:95:C7:1C:F7:8D:90:E5:9E

            X509v3 Extended Key Usage: 
                TLS Web Server Authentication
            X509v3 Key Usage: 
                Digital Signature, Key Encipherment
            X509v3 Subject Alternative Name: 
                DNS:team587-server
    Signature Algorithm: sha256WithRSAEncryption
         3b:4d:2d:4c:7a:ef:62:3b:9b:f0:4d:a3:0d:15:68:45:e9:91:
         af:c7:2b:93:49:fb:e9:da:8f:f4:88:11:e6:1f:b7:78:b4:2e:
         83:a2:4f:10:8b:52:c0:52:1c:cb:95:1c:c1:57:33:86:0b:0f:
         8b:4e:58:c9:c1:10:68:56:40:16:57:62:96:f8:e9:5b:7f:e0:
         ee:a1:e3:e8:f0:ba:8a:2e:6c:d4:6b:d9:62:51:38:a1:19:9c:
         38:c8:ca:bd:c2:1b:3b:27:cd:08:57:d7:e5:cc:37:03:af:73:
         67:1e:6f:33:b6:03:d4:aa:b5:44:70:18:a3:16:fc:f7:ab:76:
         35:2e:52:a9:86:bb:e6:ec:5a:9f:39:b9:16:72:64:16:81:b8:
         25:19:5a:a6:6f:66:ae:36:22:96:5c:34:d3:b5:7f:ed:45:2f:
         95:86:9d:f6:c6:fd:12:46:d7:f0:e9:1e:80:ec:6f:43:29:29:
         0f:5f:01:d8:ec:e8:55:72:56:18:bc:1e:61:9c:bb:3c:0d:16:
         aa:fc:42:98:30:71:51:67:61:41:a0:68:fc:11:b6:da:35:67:
         09:ef:84:2d:46:8f:32:90:3f:eb:42:07:75:68:8b:d6:d3:e8:
         85:84:7f:bc:f5:92:33:c5:27:1a:cc:d7:87:58:4f:14:e7:20:
         27:9f:57:39
-----BEGIN CERTIFICATE-----
MIIDeDCCAmCgAwIBAgIRAK7Xs/JeDzhO+gNAA20cbgYwDQYJKoZIhvcNAQELBQAw
FjEUMBIGA1UEAwwLdGVhbTU4Ny1uZXQwHhcNMjEwOTEzMDQwNzQzWhcNMjQwODI4
MDQwNzQzWjAZMRcwFQYDVQQDDA50ZWFtNTg3LXNlcnZlcjCCASIwDQYJKoZIhvcN
AQEBBQADggEPADCCAQoCggEBAMfSHTcNONGmVAaf++cWgnCSjN8BgMn+3h9N7vHL
RR8DeN+lXIc0yV9HtNmP9BeSZClQb7Gw6YDalEqdk3XDDfjxTJO3j1VvxKo9bEzL
aXMm4fFQa7NAe0pab7MrQrdROJ9iV8usbc4woHvUixkoU16o5fwFPmcPPjysAmMh
BSfa8RRO2AhYN9k8pJLQn7rErBAF/ZAU9Q/m3R8Ki7rhCt9Mmt43yDmZM3cCLm6X
FrH69zfCMb3cl8Ss4+1IT7gLTKjtmvczulrzn+8oub38BflE2cvX7fXYDf8e5LQN
L5AwU6UHiNZR1ZzHcfEgTwqFGZib2aN5PRN7S9t2b/KY6MECAwEAAaOBvTCBujAJ
BgNVHRMEAjAAMB0GA1UdDgQWBBTypOWkyxq3VJobCqH46flQ1AyscDBRBgNVHSME
SjBIgBQQVU6CXiHfnEDpC+6zOhX8DKQBSaEapBgwFjEUMBIGA1UEAwwLdGVhbTU4
Ny1uZXSCFDHCV1CMpD8XiIqmM5XHHPeNkOWeMBMGA1UdJQQMMAoGCCsGAQUFBwMB
MAsGA1UdDwQEAwIFoDAZBgNVHREEEjAQgg50ZWFtNTg3LXNlcnZlcjANBgkqhkiG
9w0BAQsFAAOCAQEAO00tTHrvYjub8E2jDRVoRemRr8crk0n76dqP9IgR5h+3eLQu
g6JPEItSwFIcy5UcwVczhgsPi05YycEQaFZAFldilvjpW3/g7qHj6PC6ii5s1GvZ
YlE4oRmcOMjKvcIbOyfNCFfX5cw3A69zZx5vM7YD1Kq1RHAYoxb896t2NS5SqYa7
5uxanzm5FnJkFoG4JRlapm9mrjYillw007V/7UUvlYad9sb9EkbX8OkegOxvQykp
D18B2OzoVXJWGLweYZy7PA0WqvxCmDBxUWdhQaBo/BG22jVnCe+ELUaPMpA/60IH
dWiL1tPohYR/vPWSM8UnGszXh1hPFOcgJ59XOQ==
-----END CERTIFICATE-----
