Certificate:
    Data:
        Version: 3 (0x2)
        Serial Number:
            f1:3b:a3:fa:10:66:af:c8:52:aa:c3:86:4a:ea:14:be
        Signature Algorithm: sha256WithRSAEncryption
        Issuer: CN=team438-net
        Validity
            Not Before: Sep 13 02:35:38 2021 GMT
            Not After : Aug 28 02:35:38 2024 GMT
        Subject: CN=team438-server
        Subject Public Key Info:
            Public Key Algorithm: rsaEncryption
                RSA Public-Key: (2048 bit)
                Modulus:
                    00:e1:4d:b8:3a:7b:2f:cb:3a:ed:63:01:9e:34:ae:
                    ba:65:c7:33:dc:7e:69:00:f7:cf:9c:24:82:b5:6f:
                    c6:4c:92:66:ab:cd:41:81:c2:8d:f2:0c:71:66:08:
                    f9:e9:a2:ad:9d:10:24:cf:9b:be:5e:6f:31:f3:54:
                    61:3e:40:b0:f3:f0:3a:86:30:91:33:fe:fd:bf:40:
                    70:cf:78:d3:ea:56:a1:7c:6d:67:a4:93:ea:04:80:
                    b6:35:73:9c:c2:46:d1:f5:7d:11:96:d0:45:c9:89:
                    c9:29:f1:26:a5:c3:ce:dd:44:a3:94:ac:83:0a:4d:
                    3c:00:f9:18:e6:80:f7:ba:0f:8f:d6:66:3d:1e:ed:
                    da:c1:e7:df:b0:71:39:5d:90:ff:13:65:f3:60:94:
                    0d:5c:74:37:5b:f5:35:f3:b9:61:cf:30:61:76:7c:
                    85:d7:47:be:2f:9d:95:6e:25:5b:42:22:8c:4a:af:
                    61:25:8d:b8:23:56:85:b5:4f:07:1d:8e:c5:e3:f5:
                    8f:dd:3d:bd:05:14:85:a3:24:bb:12:44:f0:12:a2:
                    11:47:9c:b7:bd:76:df:a2:39:ce:2c:ab:38:e7:39:
                    3a:2e:de:bc:03:37:12:e6:82:cf:07:cb:e3:c8:ad:
                    57:08:c5:3e:47:fd:ae:f7:04:ab:2c:84:f1:af:5d:
                    6c:f1
                Exponent: 65537 (0x10001)
        X509v3 extensions:
            X509v3 Basic Constraints: 
                CA:FALSE
            X509v3 Subject Key Identifier: 
                00:0A:A7:9D:D8:D7:29:58:3A:E5:9C:D1:B3:08:5E:71:D1:B1:5B:9F
            X509v3 Authority Key Identifier: 
                keyid:B6:33:DD:91:26:D9:32:A4:2A:25:40:84:B2:26:BB:74:39:3A:1A:D9
                DirName:/CN=team438-net
                serial:68:89:D4:B8:6D:4A:C0:10:E7:1C:F1:81:71:B5:64:3C:75:5F:A0:6E

            X509v3 Extended Key Usage: 
                TLS Web Server Authentication
            X509v3 Key Usage: 
                Digital Signature, Key Encipherment
            X509v3 Subject Alternative Name: 
                DNS:team438-server
    Signature Algorithm: sha256WithRSAEncryption
         15:1e:38:f9:4a:2b:f1:8e:27:f9:c8:c6:2c:12:4a:8f:1e:b1:
         44:ce:95:09:30:10:c3:b6:36:f4:a7:ef:49:d8:32:f0:b9:71:
         c2:f6:72:13:81:9e:7e:e8:d7:fd:74:7b:23:df:af:68:7b:5b:
         26:56:91:1d:df:cd:2d:45:bb:53:1d:72:98:4e:45:65:61:eb:
         f3:61:49:e1:9b:2a:9f:7b:aa:a8:35:72:b4:b9:f3:51:83:3e:
         97:a4:dc:62:13:05:87:ff:fb:59:9f:ec:81:b4:66:2d:7a:25:
         18:c7:4b:67:3c:f2:f2:24:67:1b:4b:0c:18:2e:e9:2c:fb:de:
         28:c6:f6:a2:65:64:a8:b6:f2:cd:68:fb:ae:dc:30:a5:2c:b9:
         2b:33:58:77:28:ae:46:5b:06:70:19:18:42:95:4d:35:20:c8:
         2f:ae:1b:27:9a:2e:6a:7f:32:92:60:29:a2:43:b1:71:11:29:
         f7:56:ea:3c:09:a5:b3:12:0f:57:3f:36:54:9a:19:d7:00:81:
         fb:d5:31:0b:01:06:be:b9:49:81:f3:3f:4c:ee:7c:ac:b3:15:
         27:26:35:b6:ad:7a:c2:9c:4c:38:bf:2b:94:77:41:19:0a:3f:
         22:1d:19:01:cd:ec:26:97:0c:2f:1b:07:6b:0a:85:6f:09:56:
         45:f3:91:58
-----BEGIN CERTIFICATE-----
MIIDeDCCAmCgAwIBAgIRAPE7o/oQZq/IUqrDhkrqFL4wDQYJKoZIhvcNAQELBQAw
FjEUMBIGA1UEAwwLdGVhbTQzOC1uZXQwHhcNMjEwOTEzMDIzNTM4WhcNMjQwODI4
MDIzNTM4WjAZMRcwFQYDVQQDDA50ZWFtNDM4LXNlcnZlcjCCASIwDQYJKoZIhvcN
AQEBBQADggEPADCCAQoCggEBAOFNuDp7L8s67WMBnjSuumXHM9x+aQD3z5wkgrVv
xkySZqvNQYHCjfIMcWYI+emirZ0QJM+bvl5vMfNUYT5AsPPwOoYwkTP+/b9AcM94
0+pWoXxtZ6ST6gSAtjVznMJG0fV9EZbQRcmJySnxJqXDzt1Eo5SsgwpNPAD5GOaA
97oPj9ZmPR7t2sHn37BxOV2Q/xNl82CUDVx0N1v1NfO5Yc8wYXZ8hddHvi+dlW4l
W0IijEqvYSWNuCNWhbVPBx2OxeP1j909vQUUhaMkuxJE8BKiEUect71236I5ziyr
OOc5Oi7evAM3EuaCzwfL48itVwjFPkf9rvcEqyyE8a9dbPECAwEAAaOBvTCBujAJ
BgNVHRMEAjAAMB0GA1UdDgQWBBQACqed2NcpWDrlnNGzCF5x0bFbnzBRBgNVHSME
SjBIgBS2M92RJtkypColQISyJrt0OToa2aEapBgwFjEUMBIGA1UEAwwLdGVhbTQz
OC1uZXSCFGiJ1LhtSsAQ5xzxgXG1ZDx1X6BuMBMGA1UdJQQMMAoGCCsGAQUFBwMB
MAsGA1UdDwQEAwIFoDAZBgNVHREEEjAQgg50ZWFtNDM4LXNlcnZlcjANBgkqhkiG
9w0BAQsFAAOCAQEAFR44+Uor8Y4n+cjGLBJKjx6xRM6VCTAQw7Y29KfvSdgy8Llx
wvZyE4GefujX/XR7I9+vaHtbJlaRHd/NLUW7Ux1ymE5FZWHr82FJ4Zsqn3uqqDVy
tLnzUYM+l6TcYhMFh//7WZ/sgbRmLXolGMdLZzzy8iRnG0sMGC7pLPveKMb2omVk
qLbyzWj7rtwwpSy5KzNYdyiuRlsGcBkYQpVNNSDIL64bJ5ouan8ykmApokOxcREp
91bqPAmlsxIPVz82VJoZ1wCB+9UxCwEGvrlJgfM/TO58rLMVJyY1tq16wpxMOL8r
lHdBGQo/Ih0ZAc3sJpcMLxsHawqFbwlWRfORWA==
-----END CERTIFICATE-----
