Certificate:
    Data:
        Version: 3 (0x2)
        Serial Number:
            d1:ab:e2:74:e0:21:bb:03:8b:1b:d7:50:77:b3:48:c9
        Signature Algorithm: sha256WithRSAEncryption
        Issuer: CN=team586-net
        Validity
            Not Before: Sep 13 04:07:31 2021 GMT
            Not After : Aug 28 04:07:31 2024 GMT
        Subject: CN=team586-client
        Subject Public Key Info:
            Public Key Algorithm: rsaEncryption
                RSA Public-Key: (2048 bit)
                Modulus:
                    00:ba:6b:3b:99:fa:0a:97:d5:ad:cd:b7:5b:2c:e2:
                    d4:24:a5:3c:bd:4b:3c:27:cf:df:7b:74:e1:7d:56:
                    60:ef:1f:89:5c:6f:db:38:95:98:43:5c:c6:c7:49:
                    77:80:4d:41:6b:5d:ec:fc:fd:31:60:b5:e9:2f:41:
                    ad:6d:d9:56:57:73:9b:20:e6:6f:33:b0:8b:3e:13:
                    a2:67:94:9d:fb:bf:b3:a4:9c:06:ff:0b:b6:f2:9f:
                    f7:10:6e:51:d0:ba:8c:a6:51:be:52:da:65:c8:09:
                    06:be:b8:d8:52:32:21:59:cb:3b:95:38:1e:52:98:
                    2b:a2:ea:f0:c7:fc:a8:a7:1d:0d:2f:a1:47:9a:5c:
                    3d:d9:5d:ea:ae:b8:2e:32:b9:72:9f:f2:86:d5:22:
                    a4:9e:49:30:0d:e8:50:f7:b4:6e:5a:c5:6d:9c:e2:
                    c1:28:8f:17:74:3b:24:1d:a1:b6:d5:a7:bb:57:59:
                    73:85:2e:6f:e4:d4:15:74:83:e7:d0:03:fd:bc:12:
                    82:36:95:31:7d:3f:9b:d2:c5:e7:f9:96:e8:36:ff:
                    0f:7c:05:af:20:0e:41:50:3d:5d:4c:12:69:e7:67:
                    14:09:5d:a5:60:6a:54:55:e8:60:eb:ae:8a:f9:89:
                    1f:a5:c2:d4:3e:f7:c1:e8:84:b5:6b:cd:d9:28:6e:
                    89:3f
                Exponent: 65537 (0x10001)
        X509v3 extensions:
            X509v3 Basic Constraints: 
                CA:FALSE
            X509v3 Subject Key Identifier: 
                3E:20:08:09:E8:54:88:7E:13:D8:93:7A:38:EA:CD:0E:44:EB:3B:61
            X509v3 Authority Key Identifier: 
                keyid:ED:E4:B8:60:6B:A1:83:07:B4:3F:0F:5A:AB:56:DA:ED:C9:08:98:2E
                DirName:/CN=team586-net
                serial:55:D2:82:36:56:A4:1D:6A:BF:AF:00:8F:5A:BD:51:9E:B8:F1:C2:05

            X509v3 Extended Key Usage: 
                TLS Web Client Authentication
            X509v3 Key Usage: 
                Digital Signature
    Signature Algorithm: sha256WithRSAEncryption
         6f:0a:4e:a0:90:c3:3d:aa:61:94:2f:59:02:49:96:b6:a9:a3:
         c7:a6:19:97:05:59:f5:7c:b1:ce:09:52:ba:96:6e:08:d9:bc:
         35:b2:92:12:e4:af:cd:35:ae:d2:0e:53:a4:a5:77:bc:15:95:
         63:d5:9c:ec:59:4a:af:54:63:56:9d:8c:63:7c:b3:e9:94:e2:
         f1:cc:da:c7:2b:64:da:81:98:24:ea:4f:f4:11:27:0f:26:21:
         e9:7b:b6:40:b7:aa:91:b2:24:76:5d:db:dc:19:54:ee:84:9b:
         3f:b3:77:98:c1:dd:c8:55:38:4d:0f:58:10:d4:3a:43:3c:1e:
         fc:ba:b5:20:ef:01:09:6d:dc:97:87:12:d3:ee:b6:d9:4f:21:
         b6:b8:49:95:cc:82:5c:ab:9e:71:86:fa:f3:2a:55:1a:2a:1e:
         9f:2d:6c:1d:4f:96:62:37:79:6a:68:d0:74:51:7b:98:35:05:
         14:b0:01:f7:00:4b:64:0d:8c:46:ee:ce:ad:40:db:c0:ae:5a:
         32:f1:7f:9c:83:c6:64:d4:f9:9e:fc:5f:df:d9:82:05:13:dc:
         34:1a:2f:ed:43:6b:35:3e:33:6c:bc:ab:63:c8:02:7f:be:33:
         50:22:c6:33:45:07:35:bb:6d:fb:f1:54:73:dd:44:b7:79:bc:
         0e:7b:68:dc
-----BEGIN CERTIFICATE-----
MIIDXTCCAkWgAwIBAgIRANGr4nTgIbsDixvXUHezSMkwDQYJKoZIhvcNAQELBQAw
FjEUMBIGA1UEAwwLdGVhbTU4Ni1uZXQwHhcNMjEwOTEzMDQwNzMxWhcNMjQwODI4
MDQwNzMxWjAZMRcwFQYDVQQDDA50ZWFtNTg2LWNsaWVudDCCASIwDQYJKoZIhvcN
AQEBBQADggEPADCCAQoCggEBALprO5n6CpfVrc23Wyzi1CSlPL1LPCfP33t04X1W
YO8fiVxv2ziVmENcxsdJd4BNQWtd7Pz9MWC16S9BrW3ZVldzmyDmbzOwiz4TomeU
nfu/s6ScBv8LtvKf9xBuUdC6jKZRvlLaZcgJBr642FIyIVnLO5U4HlKYK6Lq8Mf8
qKcdDS+hR5pcPdld6q64LjK5cp/yhtUipJ5JMA3oUPe0blrFbZziwSiPF3Q7JB2h
ttWnu1dZc4Uub+TUFXSD59AD/bwSgjaVMX0/m9LF5/mW6Db/D3wFryAOQVA9XUwS
aednFAldpWBqVFXoYOuuivmJH6XC1D73weiEtWvN2ShuiT8CAwEAAaOBojCBnzAJ
BgNVHRMEAjAAMB0GA1UdDgQWBBQ+IAgJ6FSIfhPYk3o46s0OROs7YTBRBgNVHSME
SjBIgBTt5Lhga6GDB7Q/D1qrVtrtyQiYLqEapBgwFjEUMBIGA1UEAwwLdGVhbTU4
Ni1uZXSCFFXSgjZWpB1qv68Aj1q9UZ648cIFMBMGA1UdJQQMMAoGCCsGAQUFBwMC
MAsGA1UdDwQEAwIHgDANBgkqhkiG9w0BAQsFAAOCAQEAbwpOoJDDPaphlC9ZAkmW
tqmjx6YZlwVZ9XyxzglSupZuCNm8NbKSEuSvzTWu0g5TpKV3vBWVY9Wc7FlKr1Rj
Vp2MY3yz6ZTi8czaxytk2oGYJOpP9BEnDyYh6Xu2QLeqkbIkdl3b3BlU7oSbP7N3
mMHdyFU4TQ9YENQ6Qzwe/Lq1IO8BCW3cl4cS0+622U8htrhJlcyCXKuecYb68ypV
Gioeny1sHU+WYjd5amjQdFF7mDUFFLAB9wBLZA2MRu7OrUDbwK5aMvF/nIPGZNT5
nvxf39mCBRPcNBov7UNrNT4zbLyrY8gCf74zUCLGM0UHNbtt+/FUc91Et3m8Dnto
3A==
-----END CERTIFICATE-----
