Certificate:
    Data:
        Version: 3 (0x2)
        Serial Number:
            87:79:e1:2c:42:0f:27:dd:19:f5:d4:af:d2:ba:48:9d
        Signature Algorithm: sha256WithRSAEncryption
        Issuer: CN=team93-net
        Validity
            Not Before: Sep 12 23:33:15 2021 GMT
            Not After : Aug 27 23:33:15 2024 GMT
        Subject: CN=team93-server
        Subject Public Key Info:
            Public Key Algorithm: rsaEncryption
                RSA Public-Key: (2048 bit)
                Modulus:
                    00:ab:4f:d6:42:68:2c:fc:20:23:26:f3:29:ce:10:
                    bc:97:be:bb:19:b0:a6:c1:7b:50:f8:4a:5f:b8:77:
                    fb:3b:8f:fb:a4:19:5f:fe:5e:2b:f0:31:13:0e:69:
                    77:73:5f:ae:a6:3c:08:b3:9a:b0:e6:ff:84:06:5c:
                    a3:9f:c7:07:25:d6:25:47:2b:a0:cf:6d:bc:fe:ae:
                    0d:ca:57:b1:f1:86:af:d2:33:88:08:b3:1c:58:f5:
                    03:7e:37:7f:0c:fc:a3:8b:0a:1a:a9:cd:6e:4f:ed:
                    3f:89:fb:7a:af:95:11:ea:ae:8d:37:54:11:a4:4c:
                    a4:e9:41:44:21:fd:69:5c:6f:c1:e0:0b:6d:ad:07:
                    ad:89:ed:c0:eb:73:3e:00:6d:72:f4:d4:28:83:17:
                    a7:22:68:44:f0:8d:2d:81:75:7f:a4:ea:91:5d:da:
                    51:4f:ee:91:47:1f:c3:8e:1f:7f:e5:14:c1:69:7a:
                    12:a1:ef:50:21:cd:4c:d2:67:41:fc:02:ce:01:e5:
                    18:5c:5e:ed:93:2f:f9:c9:3e:39:87:d0:32:12:b8:
                    78:75:6c:e2:62:57:cb:82:97:7d:45:c1:56:bb:ec:
                    d7:8d:5c:35:79:86:ad:46:42:5e:d1:f6:61:3a:a5:
                    66:e0:57:f6:96:7e:94:57:87:f2:5a:8b:4a:4a:90:
                    97:c1
                Exponent: 65537 (0x10001)
        X509v3 extensions:
            X509v3 Basic Constraints: 
                CA:FALSE
            X509v3 Subject Key Identifier: 
                55:B2:46:BD:AA:5C:77:DF:8B:3F:18:0A:E2:27:F3:E6:C9:D8:FD:47
            X509v3 Authority Key Identifier: 
                keyid:87:A1:BF:06:B2:21:F5:06:42:27:71:A1:B6:5B:21:2E:E4:38:64:9D
                DirName:/CN=team93-net
                serial:7A:61:56:55:7A:8F:35:7F:44:2A:1C:E7:4C:52:B1:96:06:8D:9F:8A

            X509v3 Extended Key Usage: 
                TLS Web Server Authentication
            X509v3 Key Usage: 
                Digital Signature, Key Encipherment
            X509v3 Subject Alternative Name: 
                DNS:team93-server
    Signature Algorithm: sha256WithRSAEncryption
         53:51:e6:fc:e1:aa:87:f6:ab:99:72:03:3c:fc:3e:4a:46:41:
         73:0f:15:57:47:66:48:e9:fe:b1:13:6a:9a:aa:73:e5:f5:9c:
         8d:3a:3a:74:5f:36:b5:3e:f7:b5:83:9b:b8:82:65:3a:a8:97:
         32:6e:05:b0:41:16:2a:f6:4b:21:56:cc:f1:5c:4a:1d:5d:97:
         1b:97:f9:ea:2c:f8:85:dd:7b:bf:42:4f:f5:2c:f1:98:eb:ed:
         09:a9:4a:1e:bf:4b:e2:59:23:99:41:46:f5:c9:60:cf:73:65:
         c6:d2:91:6a:ad:37:f1:13:93:9f:ac:82:90:f5:f0:90:6d:c4:
         63:b5:81:64:bb:a2:1d:fa:71:2b:9a:eb:38:e8:f9:06:8f:99:
         61:1c:57:0d:cf:04:a4:fb:14:cf:aa:b4:0d:a5:2f:26:b5:32:
         fc:25:1e:9d:96:7a:45:e9:fe:15:b6:21:5d:05:86:38:cb:1f:
         4d:f0:5d:85:3b:f8:bf:a1:d6:c1:c7:d0:d7:ba:08:75:8f:61:
         c3:36:23:bd:a2:a8:ce:e2:c5:77:c8:fe:6f:ce:f4:22:6d:65:
         15:91:57:f8:ae:53:27:b3:8d:eb:90:84:e0:b9:c3:9a:f8:87:
         52:22:fe:e2:45:ee:a5:42:cf:bc:b6:ad:2b:ab:2f:ab:98:52:
         45:4f:9f:10
-----BEGIN CERTIFICATE-----
MIIDdDCCAlygAwIBAgIRAId54SxCDyfdGfXUr9K6SJ0wDQYJKoZIhvcNAQELBQAw
FTETMBEGA1UEAwwKdGVhbTkzLW5ldDAeFw0yMTA5MTIyMzMzMTVaFw0yNDA4Mjcy
MzMzMTVaMBgxFjAUBgNVBAMMDXRlYW05My1zZXJ2ZXIwggEiMA0GCSqGSIb3DQEB
AQUAA4IBDwAwggEKAoIBAQCrT9ZCaCz8ICMm8ynOELyXvrsZsKbBe1D4Sl+4d/s7
j/ukGV/+XivwMRMOaXdzX66mPAizmrDm/4QGXKOfxwcl1iVHK6DPbbz+rg3KV7Hx
hq/SM4gIsxxY9QN+N38M/KOLChqpzW5P7T+J+3qvlRHqro03VBGkTKTpQUQh/Wlc
b8HgC22tB62J7cDrcz4AbXL01CiDF6ciaETwjS2BdX+k6pFd2lFP7pFHH8OOH3/l
FMFpehKh71AhzUzSZ0H8As4B5RhcXu2TL/nJPjmH0DISuHh1bOJiV8uCl31FwVa7
7NeNXDV5hq1GQl7R9mE6pWbgV/aWfpRXh/Jai0pKkJfBAgMBAAGjgbswgbgwCQYD
VR0TBAIwADAdBgNVHQ4EFgQUVbJGvapcd9+LPxgK4ifz5snY/UcwUAYDVR0jBEkw
R4AUh6G/BrIh9QZCJ3GhtlshLuQ4ZJ2hGaQXMBUxEzARBgNVBAMMCnRlYW05My1u
ZXSCFHphVlV6jzV/RCoc50xSsZYGjZ+KMBMGA1UdJQQMMAoGCCsGAQUFBwMBMAsG
A1UdDwQEAwIFoDAYBgNVHREEETAPgg10ZWFtOTMtc2VydmVyMA0GCSqGSIb3DQEB
CwUAA4IBAQBTUeb84aqH9quZcgM8/D5KRkFzDxVXR2ZI6f6xE2qaqnPl9ZyNOjp0
Xza1Pve1g5u4gmU6qJcybgWwQRYq9kshVszxXEodXZcbl/nqLPiF3Xu/Qk/1LPGY
6+0JqUoev0viWSOZQUb1yWDPc2XG0pFqrTfxE5OfrIKQ9fCQbcRjtYFku6Id+nEr
mus46PkGj5lhHFcNzwSk+xTPqrQNpS8mtTL8JR6dlnpF6f4VtiFdBYY4yx9N8F2F
O/i/odbBx9DXugh1j2HDNiO9oqjO4sV3yP5vzvQibWUVkVf4rlMns43rkITgucOa
+IdSIv7iRe6lQs+8tq0rqy+rmFJFT58Q
-----END CERTIFICATE-----
