Certificate:
    Data:
        Version: 3 (0x2)
        Serial Number:
            bf:c0:9c:02:51:4f:12:60:da:e8:27:6e:b3:68:1a:7a
        Signature Algorithm: sha256WithRSAEncryption
        Issuer: CN=team107-net
        Validity
            Not Before: Sep 12 23:43:38 2021 GMT
            Not After : Aug 27 23:43:38 2024 GMT
        Subject: CN=team107-server
        Subject Public Key Info:
            Public Key Algorithm: rsaEncryption
                RSA Public-Key: (2048 bit)
                Modulus:
                    00:df:c5:9c:39:b7:bc:7c:4e:6d:a4:e2:b1:dc:9e:
                    b0:1d:8c:a1:8e:7b:2d:8a:8d:1f:38:bb:3c:62:99:
                    c2:06:80:67:c6:34:3a:76:ff:9e:6d:5f:51:aa:1d:
                    3d:96:05:1e:45:61:de:86:e3:69:35:2d:3c:dc:a4:
                    bf:1f:1c:2f:21:cc:ce:e0:bb:24:c8:ad:49:e3:74:
                    fe:40:ec:76:47:40:ac:e0:79:ef:74:7d:7d:ec:55:
                    51:fb:39:ed:2f:2f:0f:10:2d:ee:f8:3e:c4:a7:d9:
                    15:bd:9c:5a:e3:71:d2:d9:fb:7b:71:a1:98:61:be:
                    ef:0b:37:0e:1f:1b:27:c7:77:3d:8c:2a:74:9e:0c:
                    e2:8c:63:92:86:cf:89:8a:12:5c:50:ae:44:ba:b3:
                    29:6d:30:03:69:46:3d:76:0b:78:45:3b:86:77:20:
                    57:65:a2:e7:66:98:fc:c4:72:c7:dc:9d:cf:fe:61:
                    f3:28:26:62:c1:df:02:7e:ba:5e:7b:57:a4:cc:50:
                    74:39:d2:ec:3c:60:ff:45:d1:dc:95:9f:23:e1:02:
                    47:ad:f4:63:2e:33:f9:0f:3a:85:7a:99:ee:d9:41:
                    a1:e2:07:2a:b5:42:bf:67:ea:38:dc:9d:1b:17:72:
                    85:2c:44:69:fd:fb:08:e2:01:72:66:af:02:2b:29:
                    e4:51
                Exponent: 65537 (0x10001)
        X509v3 extensions:
            X509v3 Basic Constraints: 
                CA:FALSE
            X509v3 Subject Key Identifier: 
                82:6F:24:B3:AA:BF:58:70:80:42:6E:9B:63:42:BE:83:A1:38:7D:15
            X509v3 Authority Key Identifier: 
                keyid:E3:EE:51:83:01:88:84:A3:F8:BA:BE:33:2E:BC:19:F7:0C:3C:31:BC
                DirName:/CN=team107-net
                serial:52:8C:B0:A8:B5:AA:5A:1B:94:C9:44:44:13:0D:DD:98:2F:53:BF:F5

            X509v3 Extended Key Usage: 
                TLS Web Server Authentication
            X509v3 Key Usage: 
                Digital Signature, Key Encipherment
            X509v3 Subject Alternative Name: 
                DNS:team107-server
    Signature Algorithm: sha256WithRSAEncryption
         32:74:f6:93:63:1f:17:d0:ec:f2:8c:fb:8d:82:75:1b:99:39:
         7c:ab:1b:24:91:9c:49:2a:3c:cb:9d:ea:73:6a:7e:72:b7:02:
         2a:c1:47:51:18:35:58:a2:fe:18:b0:6f:71:f4:44:e6:ab:b9:
         e4:c9:b6:96:af:cf:0c:f7:25:f3:34:75:1e:ba:4c:44:5e:37:
         cf:a1:37:5e:e2:38:75:24:bc:a8:35:09:ca:93:2b:0e:d1:a0:
         e5:d8:93:97:83:91:80:ee:b3:12:ee:e7:71:73:2d:e7:19:ee:
         b1:2f:69:c1:3c:55:19:07:2c:34:99:08:0b:98:20:50:5a:72:
         16:c2:46:20:81:90:03:e4:03:87:57:05:96:7d:e3:e4:0a:e4:
         9a:0b:31:86:19:90:59:8d:e6:0c:3c:83:90:69:7b:dd:5e:97:
         53:6d:3d:3b:e5:4b:e1:5d:ee:18:14:cd:0f:9c:52:aa:fb:2e:
         fc:ab:35:52:5b:fd:6e:7b:16:41:03:bd:f3:04:cc:aa:51:db:
         20:db:57:88:cd:44:12:50:28:d6:8e:5d:95:8c:3c:a6:d3:dd:
         b5:90:a0:55:89:7d:f9:e1:f8:68:82:2b:73:9b:57:e3:a7:2b:
         67:0f:d5:11:f7:60:96:68:04:93:b4:0f:00:dd:43:40:48:51:
         1b:ba:62:f0
-----BEGIN CERTIFICATE-----
MIIDeDCCAmCgAwIBAgIRAL/AnAJRTxJg2ugnbrNoGnowDQYJKoZIhvcNAQELBQAw
FjEUMBIGA1UEAwwLdGVhbTEwNy1uZXQwHhcNMjEwOTEyMjM0MzM4WhcNMjQwODI3
MjM0MzM4WjAZMRcwFQYDVQQDDA50ZWFtMTA3LXNlcnZlcjCCASIwDQYJKoZIhvcN
AQEBBQADggEPADCCAQoCggEBAN/FnDm3vHxObaTisdyesB2MoY57LYqNHzi7PGKZ
wgaAZ8Y0Onb/nm1fUaodPZYFHkVh3objaTUtPNykvx8cLyHMzuC7JMitSeN0/kDs
dkdArOB573R9fexVUfs57S8vDxAt7vg+xKfZFb2cWuNx0tn7e3GhmGG+7ws3Dh8b
J8d3PYwqdJ4M4oxjkobPiYoSXFCuRLqzKW0wA2lGPXYLeEU7hncgV2Wi52aY/MRy
x9ydz/5h8ygmYsHfAn66XntXpMxQdDnS7Dxg/0XR3JWfI+ECR630Yy4z+Q86hXqZ
7tlBoeIHKrVCv2fqONydGxdyhSxEaf37COIBcmavAisp5FECAwEAAaOBvTCBujAJ
BgNVHRMEAjAAMB0GA1UdDgQWBBSCbySzqr9YcIBCbptjQr6DoTh9FTBRBgNVHSME
SjBIgBTj7lGDAYiEo/i6vjMuvBn3DDwxvKEapBgwFjEUMBIGA1UEAwwLdGVhbTEw
Ny1uZXSCFFKMsKi1qloblMlERBMN3ZgvU7/1MBMGA1UdJQQMMAoGCCsGAQUFBwMB
MAsGA1UdDwQEAwIFoDAZBgNVHREEEjAQgg50ZWFtMTA3LXNlcnZlcjANBgkqhkiG
9w0BAQsFAAOCAQEAMnT2k2MfF9Ds8oz7jYJ1G5k5fKsbJJGcSSo8y53qc2p+crcC
KsFHURg1WKL+GLBvcfRE5qu55Mm2lq/PDPcl8zR1HrpMRF43z6E3XuI4dSS8qDUJ
ypMrDtGg5diTl4ORgO6zEu7ncXMt5xnusS9pwTxVGQcsNJkIC5ggUFpyFsJGIIGQ
A+QDh1cFln3j5ArkmgsxhhmQWY3mDDyDkGl73V6XU209O+VL4V3uGBTND5xSqvsu
/Ks1Ulv9bnsWQQO98wTMqlHbINtXiM1EElAo1o5dlYw8ptPdtZCgVYl9+eH4aIIr
c5tX46crZw/VEfdglmgEk7QPAN1DQEhRG7pi8A==
-----END CERTIFICATE-----
