Certificate:
    Data:
        Version: 3 (0x2)
        Serial Number:
            a4:9d:82:e2:7f:8f:d2:cb:c8:0d:37:72:cf:1e:cd:13
        Signature Algorithm: sha256WithRSAEncryption
        Issuer: CN=team535-net
        Validity
            Not Before: Sep 13 03:39:39 2021 GMT
            Not After : Aug 28 03:39:39 2024 GMT
        Subject: CN=team535-server
        Subject Public Key Info:
            Public Key Algorithm: rsaEncryption
                RSA Public-Key: (2048 bit)
                Modulus:
                    00:b8:a7:16:78:6b:e3:eb:72:3f:3c:0a:b1:19:98:
                    8a:ad:6c:f9:d1:3e:59:63:5e:1b:44:66:5c:a4:b7:
                    22:fa:cc:1f:10:84:0f:36:97:4d:e4:9c:24:46:4d:
                    b0:48:0e:6f:c8:a0:0c:f6:01:7a:9b:3f:80:58:d6:
                    ce:d6:e0:d1:cc:77:9c:c0:0f:09:7d:f2:c3:36:d8:
                    ac:1f:40:4e:c9:42:02:95:12:9e:c0:e1:38:32:fe:
                    75:56:58:e5:a8:00:a1:3f:66:53:29:de:ae:a0:13:
                    54:d9:61:d6:88:7d:23:69:28:c9:ed:4c:d2:1d:2d:
                    dd:c2:2d:e8:93:ac:01:aa:cb:4f:14:75:84:0f:0e:
                    ee:89:61:ec:50:d7:51:cf:53:59:a3:5d:fd:28:db:
                    77:77:71:ae:53:dc:c9:d2:25:96:c9:b2:7c:45:be:
                    5f:6a:2d:77:0c:8c:de:93:e0:9b:4f:5e:16:e1:04:
                    a9:ca:91:5f:f7:95:6a:7c:ab:64:f1:b5:58:e8:1f:
                    79:a6:22:b3:1f:eb:8d:b8:f8:0c:c2:7a:9f:6b:ac:
                    fa:44:52:b2:6d:16:56:f0:cc:73:d9:65:a6:ad:62:
                    f5:f1:75:de:b4:c3:df:7f:ea:19:e4:93:b7:1a:f8:
                    9e:7a:2e:86:c8:5e:a8:a4:2d:1f:ae:cb:58:8c:3f:
                    76:0f
                Exponent: 65537 (0x10001)
        X509v3 extensions:
            X509v3 Basic Constraints: 
                CA:FALSE
            X509v3 Subject Key Identifier: 
                10:D8:17:54:A3:FE:79:23:04:2D:99:AF:28:A0:C2:62:27:8D:CA:5E
            X509v3 Authority Key Identifier: 
                keyid:63:88:5C:AD:0A:C6:18:93:2F:AB:0B:AF:EF:60:93:1A:22:A9:B5:E0
                DirName:/CN=team535-net
                serial:5B:65:CD:25:8C:B7:D4:A5:42:BA:77:2C:B0:20:11:FE:41:6A:68:8D

            X509v3 Extended Key Usage: 
                TLS Web Server Authentication
            X509v3 Key Usage: 
                Digital Signature, Key Encipherment
            X509v3 Subject Alternative Name: 
                DNS:team535-server
    Signature Algorithm: sha256WithRSAEncryption
         b5:4e:e5:d6:56:52:88:4a:38:47:56:57:3c:54:18:8e:fd:8c:
         68:f1:90:a9:51:97:d3:73:51:a8:c7:39:64:2a:71:29:48:68:
         8d:ce:c1:77:9f:03:29:0a:70:7b:c6:2d:99:9a:4d:02:18:f9:
         9f:d0:3f:7d:33:29:e0:56:8e:14:bb:2a:e7:01:97:3e:75:ad:
         dc:cb:61:28:b1:6f:d2:6f:56:9c:c4:9e:97:03:63:16:10:da:
         3f:d1:94:b7:dd:33:f5:97:d4:52:02:42:38:27:4b:3e:1a:3d:
         72:c5:4f:bf:4c:49:67:c8:aa:cc:81:d6:0a:de:0f:2a:53:22:
         9e:0e:76:60:23:ba:b2:4e:d6:1d:5e:c9:31:b1:49:8b:23:38:
         2b:59:64:c3:0f:8c:7a:6d:11:49:c4:45:38:e3:57:90:14:a6:
         ed:b8:49:4c:44:c2:fe:1b:b6:b7:ce:43:93:ed:04:3f:2a:91:
         9c:6e:72:8f:2c:1a:cf:2d:aa:29:99:5e:17:7b:2f:e2:d5:92:
         2b:f3:0c:3b:4f:ef:93:44:fe:5a:ac:4b:cc:a9:3d:5f:79:48:
         85:d4:f9:17:bf:f0:cd:47:cd:4e:9c:26:a7:84:ed:74:fe:ef:
         e8:89:54:7c:d7:80:3c:99:3b:f1:48:96:72:a2:a7:72:55:45:
         52:10:86:0e
-----BEGIN CERTIFICATE-----
MIIDeDCCAmCgAwIBAgIRAKSdguJ/j9LLyA03cs8ezRMwDQYJKoZIhvcNAQELBQAw
FjEUMBIGA1UEAwwLdGVhbTUzNS1uZXQwHhcNMjEwOTEzMDMzOTM5WhcNMjQwODI4
MDMzOTM5WjAZMRcwFQYDVQQDDA50ZWFtNTM1LXNlcnZlcjCCASIwDQYJKoZIhvcN
AQEBBQADggEPADCCAQoCggEBALinFnhr4+tyPzwKsRmYiq1s+dE+WWNeG0RmXKS3
IvrMHxCEDzaXTeScJEZNsEgOb8igDPYBeps/gFjWztbg0cx3nMAPCX3ywzbYrB9A
TslCApUSnsDhODL+dVZY5agAoT9mUynerqATVNlh1oh9I2koye1M0h0t3cIt6JOs
AarLTxR1hA8O7olh7FDXUc9TWaNd/Sjbd3dxrlPcydIllsmyfEW+X2otdwyM3pPg
m09eFuEEqcqRX/eVanyrZPG1WOgfeaYisx/rjbj4DMJ6n2us+kRSsm0WVvDMc9ll
pq1i9fF13rTD33/qGeSTtxr4nnouhsheqKQtH67LWIw/dg8CAwEAAaOBvTCBujAJ
BgNVHRMEAjAAMB0GA1UdDgQWBBQQ2BdUo/55IwQtma8ooMJiJ43KXjBRBgNVHSME
SjBIgBRjiFytCsYYky+rC6/vYJMaIqm14KEapBgwFjEUMBIGA1UEAwwLdGVhbTUz
NS1uZXSCFFtlzSWMt9SlQrp3LLAgEf5BamiNMBMGA1UdJQQMMAoGCCsGAQUFBwMB
MAsGA1UdDwQEAwIFoDAZBgNVHREEEjAQgg50ZWFtNTM1LXNlcnZlcjANBgkqhkiG
9w0BAQsFAAOCAQEAtU7l1lZSiEo4R1ZXPFQYjv2MaPGQqVGX03NRqMc5ZCpxKUho
jc7Bd58DKQpwe8YtmZpNAhj5n9A/fTMp4FaOFLsq5wGXPnWt3MthKLFv0m9WnMSe
lwNjFhDaP9GUt90z9ZfUUgJCOCdLPho9csVPv0xJZ8iqzIHWCt4PKlMing52YCO6
sk7WHV7JMbFJiyM4K1lkww+Mem0RScRFOONXkBSm7bhJTETC/hu2t85Dk+0EPyqR
nG5yjywazy2qKZleF3sv4tWSK/MMO0/vk0T+WqxLzKk9X3lIhdT5F7/wzUfNTpwm
p4TtdP7v6IlUfNeAPJk78UiWcqKnclVFUhCGDg==
-----END CERTIFICATE-----
