Certificate:
    Data:
        Version: 3 (0x2)
        Serial Number:
            04:b0:ce:4b:16:4a:f4:2b:94:9c:7f:4e:f7:44:e6:19
        Signature Algorithm: sha256WithRSAEncryption
        Issuer: CN=team395-net
        Validity
            Not Before: Sep 13 02:15:36 2021 GMT
            Not After : Aug 28 02:15:36 2024 GMT
        Subject: CN=team395-client
        Subject Public Key Info:
            Public Key Algorithm: rsaEncryption
                RSA Public-Key: (2048 bit)
                Modulus:
                    00:ce:4f:8b:05:1d:d9:5a:3b:0a:a3:bd:d3:af:b4:
                    ca:d1:30:0c:64:c4:ce:b4:c1:51:51:88:bb:92:86:
                    04:27:70:8b:9a:75:5d:44:2b:2e:8a:19:47:38:90:
                    1e:2d:0f:fc:14:0e:a2:a8:1d:9a:3b:cc:2d:dc:ba:
                    da:b6:ba:05:b7:4c:ab:bb:c0:ef:9b:97:5f:1e:99:
                    74:dd:ab:92:4d:b5:fa:d6:11:6f:66:e6:5a:f5:1c:
                    5f:68:03:28:b9:2f:f8:a9:35:b2:26:65:24:3c:78:
                    bc:67:b3:ab:6e:ff:6f:8d:1d:91:07:c7:fc:b2:f8:
                    67:a3:7e:10:45:cf:43:86:9f:3b:bb:e2:a4:4d:97:
                    6f:2d:62:ed:29:b3:1d:14:2c:eb:d3:f8:f8:a9:22:
                    04:7c:ff:cb:11:72:10:23:b9:b7:6a:a1:20:bc:81:
                    c5:33:f4:4c:94:cd:68:da:1c:b7:53:09:36:b9:2f:
                    08:ab:02:92:bc:9b:13:75:d6:b0:40:99:15:6a:33:
                    1d:21:c4:39:ca:4b:14:01:20:0b:28:6a:8e:9d:b0:
                    e2:d1:41:a1:72:26:5a:fb:f5:70:a9:c4:ac:d1:38:
                    30:e8:e0:2d:b7:08:5e:a8:9e:07:06:36:22:f0:a2:
                    dd:e3:a5:35:a7:0c:4e:57:99:51:c3:ae:e6:76:c9:
                    f3:fb
                Exponent: 65537 (0x10001)
        X509v3 extensions:
            X509v3 Basic Constraints: 
                CA:FALSE
            X509v3 Subject Key Identifier: 
                F4:FD:4A:96:2E:21:54:1A:B2:68:15:4F:F9:8C:7E:B8:27:2C:91:35
            X509v3 Authority Key Identifier: 
                keyid:A4:F8:32:59:ED:F4:38:69:2E:23:19:32:4E:FD:99:2C:E8:40:24:BC
                DirName:/CN=team395-net
                serial:57:F1:94:C5:68:3D:F3:1A:E7:FF:5A:9E:7A:55:8E:4E:D7:87:6B:9E

            X509v3 Extended Key Usage: 
                TLS Web Client Authentication
            X509v3 Key Usage: 
                Digital Signature
    Signature Algorithm: sha256WithRSAEncryption
         66:4e:64:51:76:0e:57:79:b8:22:aa:4e:07:da:51:eb:fa:c6:
         79:ff:de:e7:3b:67:51:82:35:46:5b:83:78:ee:de:d6:3b:dc:
         e7:0f:97:42:ec:cd:c8:2e:a6:2d:55:7d:2e:62:9d:79:86:cb:
         d3:03:1b:4a:07:71:8d:92:39:5d:27:82:e4:0b:cd:0b:a7:2f:
         bf:b2:cd:a7:43:e2:c9:fc:a0:1c:7b:7c:ee:52:2e:72:3c:c0:
         a3:e7:2d:ef:73:52:4e:a0:38:78:2f:f8:7b:71:5b:c8:5e:f0:
         db:31:5f:ee:76:58:67:d1:e6:ba:eb:85:69:a7:73:54:d6:24:
         cd:8f:37:ae:62:00:a3:64:93:21:ce:60:ac:b6:ab:47:df:85:
         81:11:09:50:93:6a:df:d0:08:35:5c:44:96:da:67:34:2b:7e:
         fc:47:64:76:3f:05:22:27:b0:6d:26:27:8c:0e:be:04:b4:eb:
         b0:a3:86:8c:e0:0c:c9:c6:68:ec:bf:63:71:c6:f3:08:e0:9c:
         5b:29:8f:9e:71:fe:9f:af:36:47:3d:05:ed:4e:f9:a5:e1:01:
         8c:b6:c0:a7:92:29:fc:06:3a:6c:a6:3d:14:4a:91:ac:5f:20:
         f4:33:90:f7:ca:d0:dd:78:02:57:1f:df:6e:22:30:0e:85:02:
         7d:4f:6d:96
-----BEGIN CERTIFICATE-----
MIIDXDCCAkSgAwIBAgIQBLDOSxZK9CuUnH9O90TmGTANBgkqhkiG9w0BAQsFADAW
MRQwEgYDVQQDDAt0ZWFtMzk1LW5ldDAeFw0yMTA5MTMwMjE1MzZaFw0yNDA4Mjgw
MjE1MzZaMBkxFzAVBgNVBAMMDnRlYW0zOTUtY2xpZW50MIIBIjANBgkqhkiG9w0B
AQEFAAOCAQ8AMIIBCgKCAQEAzk+LBR3ZWjsKo73Tr7TK0TAMZMTOtMFRUYi7koYE
J3CLmnVdRCsuihlHOJAeLQ/8FA6iqB2aO8wt3LratroFt0yru8Dvm5dfHpl03auS
TbX61hFvZuZa9RxfaAMouS/4qTWyJmUkPHi8Z7Orbv9vjR2RB8f8svhno34QRc9D
hp87u+KkTZdvLWLtKbMdFCzr0/j4qSIEfP/LEXIQI7m3aqEgvIHFM/RMlM1o2hy3
Uwk2uS8IqwKSvJsTddawQJkVajMdIcQ5yksUASALKGqOnbDi0UGhciZa+/VwqcSs
0Tgw6OAttwheqJ4HBjYi8KLd46U1pwxOV5lRw67mdsnz+wIDAQABo4GiMIGfMAkG
A1UdEwQCMAAwHQYDVR0OBBYEFPT9SpYuIVQasmgVT/mMfrgnLJE1MFEGA1UdIwRK
MEiAFKT4Mlnt9DhpLiMZMk79mSzoQCS8oRqkGDAWMRQwEgYDVQQDDAt0ZWFtMzk1
LW5ldIIUV/GUxWg98xrn/1qeelWOTteHa54wEwYDVR0lBAwwCgYIKwYBBQUHAwIw
CwYDVR0PBAQDAgeAMA0GCSqGSIb3DQEBCwUAA4IBAQBmTmRRdg5Xebgiqk4H2lHr
+sZ5/97nO2dRgjVGW4N47t7WO9znD5dC7M3ILqYtVX0uYp15hsvTAxtKB3GNkjld
J4LkC80Lpy+/ss2nQ+LJ/KAce3zuUi5yPMCj5y3vc1JOoDh4L/h7cVvIXvDbMV/u
dlhn0ea664Vpp3NU1iTNjzeuYgCjZJMhzmCstqtH34WBEQlQk2rf0Ag1XESW2mc0
K378R2R2PwUiJ7BtJieMDr4EtOuwo4aM4AzJxmjsv2NxxvMI4JxbKY+ecf6frzZH
PQXtTvml4QGMtsCnkin8Bjpspj0USpGsXyD0M5D3ytDdeAJXH99uIjAOhQJ9T22W
-----END CERTIFICATE-----
