Certificate:
    Data:
        Version: 3 (0x2)
        Serial Number:
            7a:b1:0a:4b:82:01:f6:38:98:18:2d:d9:d2:8e:d9:77
        Signature Algorithm: sha256WithRSAEncryption
        Issuer: CN=team247-net
        Validity
            Not Before: Sep 13 01:00:13 2021 GMT
            Not After : Aug 28 01:00:13 2024 GMT
        Subject: CN=team247-server
        Subject Public Key Info:
            Public Key Algorithm: rsaEncryption
                RSA Public-Key: (2048 bit)
                Modulus:
                    00:d6:38:22:b3:70:f1:16:55:c7:0d:fc:fd:59:8d:
                    44:ce:f1:5b:a6:a4:7b:73:5b:44:ef:d2:b2:60:08:
                    1d:c1:bd:32:0b:5a:8d:a2:50:2f:1d:9c:53:c4:0c:
                    c7:ce:f8:49:a0:00:66:de:ec:90:dd:0b:36:ea:e6:
                    d9:99:06:73:ea:ed:a0:f4:bb:5e:94:27:3e:c3:ef:
                    d4:a6:de:a0:f1:20:a6:7a:41:81:f6:76:7b:70:02:
                    2e:56:46:da:b2:5e:99:86:24:09:06:7e:4d:b2:5b:
                    b5:9f:6a:16:89:c5:d6:d8:f4:e5:66:ea:25:e8:db:
                    c1:a8:ad:f5:f9:90:b2:40:ff:76:f5:20:13:32:da:
                    e8:5a:a7:61:ef:34:75:0c:07:40:ce:4b:b5:0e:3f:
                    49:25:61:78:3e:ec:99:66:5c:79:5f:44:c7:c4:83:
                    28:03:0d:3e:1e:09:cd:d3:c7:13:e9:79:ad:14:df:
                    90:d4:02:9e:4a:7d:36:72:a8:4c:80:82:a9:de:82:
                    92:24:3b:3f:4b:0e:ea:20:c7:31:c9:45:20:9e:96:
                    2c:c4:a5:92:84:85:e9:da:78:1b:51:ae:3a:16:a2:
                    c8:37:fd:16:1c:55:fe:98:63:21:c4:01:8e:51:cb:
                    2f:17:ed:55:f9:d6:ee:16:0d:ed:12:10:ac:50:31:
                    95:d9
                Exponent: 65537 (0x10001)
        X509v3 extensions:
            X509v3 Basic Constraints: 
                CA:FALSE
            X509v3 Subject Key Identifier: 
                AB:DF:1C:91:E3:14:A6:D0:86:4B:C6:32:56:52:C0:34:4F:71:B9:F6
            X509v3 Authority Key Identifier: 
                keyid:CE:B5:15:E9:E2:9F:3C:82:08:7F:5F:5D:79:AF:C9:D5:77:00:22:50
                DirName:/CN=team247-net
                serial:31:EE:D4:59:35:86:20:ED:B3:FE:D8:CE:B6:B4:C7:1A:9E:CF:2B:7F

            X509v3 Extended Key Usage: 
                TLS Web Server Authentication
            X509v3 Key Usage: 
                Digital Signature, Key Encipherment
            X509v3 Subject Alternative Name: 
                DNS:team247-server
    Signature Algorithm: sha256WithRSAEncryption
         24:41:54:4b:77:d4:b1:6a:03:13:b9:bb:1c:28:10:36:37:2c:
         71:e5:c7:2c:49:33:18:b7:7b:3c:23:e6:6a:35:fc:d5:52:74:
         8c:3d:46:f7:71:e9:3a:1f:36:3a:24:21:40:40:2e:fc:67:e5:
         30:29:77:00:f6:04:0b:fc:a6:ea:3e:be:a1:1e:79:1c:d1:60:
         dc:1a:5c:f0:51:56:d0:a5:1c:7c:4b:d2:57:1a:ec:de:f5:87:
         29:c3:b0:12:c6:2d:45:37:ed:61:9e:33:cc:a7:8f:dc:da:19:
         07:87:f8:ea:99:26:1c:38:20:84:f2:5a:3a:68:e8:f0:60:e2:
         96:e4:46:c1:40:fd:31:ea:2e:41:3d:22:1e:e9:65:13:00:80:
         98:f2:c5:c6:79:cc:c8:d2:dd:3e:db:4d:cc:fc:37:a4:46:23:
         a4:ff:1d:90:ad:3a:27:ae:a3:30:46:d6:46:d3:b3:81:04:c0:
         be:79:d9:cf:a9:54:91:74:e1:0e:cc:50:e8:65:ad:1b:e1:9f:
         c5:52:6c:e0:b1:ef:ee:b4:b9:a1:65:09:8c:1a:a4:ca:24:af:
         fd:cd:ca:f6:54:54:32:b0:3a:c2:0f:da:c3:30:a8:f7:46:33:
         e1:79:b2:a2:19:f2:45:b3:b3:34:28:b8:b7:b6:8e:08:95:46:
         69:75:23:2a
-----BEGIN CERTIFICATE-----
MIIDdzCCAl+gAwIBAgIQerEKS4IB9jiYGC3Z0o7ZdzANBgkqhkiG9w0BAQsFADAW
MRQwEgYDVQQDDAt0ZWFtMjQ3LW5ldDAeFw0yMTA5MTMwMTAwMTNaFw0yNDA4Mjgw
MTAwMTNaMBkxFzAVBgNVBAMMDnRlYW0yNDctc2VydmVyMIIBIjANBgkqhkiG9w0B
AQEFAAOCAQ8AMIIBCgKCAQEA1jgis3DxFlXHDfz9WY1EzvFbpqR7c1tE79KyYAgd
wb0yC1qNolAvHZxTxAzHzvhJoABm3uyQ3Qs26ubZmQZz6u2g9LtelCc+w+/Upt6g
8SCmekGB9nZ7cAIuVkbasl6ZhiQJBn5Nslu1n2oWicXW2PTlZuol6NvBqK31+ZCy
QP929SATMtroWqdh7zR1DAdAzku1Dj9JJWF4PuyZZlx5X0THxIMoAw0+HgnN08cT
6XmtFN+Q1AKeSn02cqhMgIKp3oKSJDs/Sw7qIMcxyUUgnpYsxKWShIXp2ngbUa46
FqLIN/0WHFX+mGMhxAGOUcsvF+1V+dbuFg3tEhCsUDGV2QIDAQABo4G9MIG6MAkG
A1UdEwQCMAAwHQYDVR0OBBYEFKvfHJHjFKbQhkvGMlZSwDRPcbn2MFEGA1UdIwRK
MEiAFM61FeninzyCCH9fXXmvydV3ACJQoRqkGDAWMRQwEgYDVQQDDAt0ZWFtMjQ3
LW5ldIIUMe7UWTWGIO2z/tjOtrTHGp7PK38wEwYDVR0lBAwwCgYIKwYBBQUHAwEw
CwYDVR0PBAQDAgWgMBkGA1UdEQQSMBCCDnRlYW0yNDctc2VydmVyMA0GCSqGSIb3
DQEBCwUAA4IBAQAkQVRLd9SxagMTubscKBA2Nyxx5ccsSTMYt3s8I+ZqNfzVUnSM
PUb3cek6HzY6JCFAQC78Z+UwKXcA9gQL/KbqPr6hHnkc0WDcGlzwUVbQpRx8S9JX
Guze9Ycpw7ASxi1FN+1hnjPMp4/c2hkHh/jqmSYcOCCE8lo6aOjwYOKW5EbBQP0x
6i5BPSIe6WUTAICY8sXGeczI0t0+203M/DekRiOk/x2QrTonrqMwRtZG07OBBMC+
ednPqVSRdOEOzFDoZa0b4Z/FUmzgse/utLmhZQmMGqTKJK/9zcr2VFQysDrCD9rD
MKj3RjPhebKiGfJFs7M0KLi3to4IlUZpdSMq
-----END CERTIFICATE-----
