Certificate:
    Data:
        Version: 3 (0x2)
        Serial Number:
            62:13:47:a8:16:ae:a0:ee:ba:b7:1c:2c:60:12:20:7f
        Signature Algorithm: sha256WithRSAEncryption
        Issuer: CN=team497-net
        Validity
            Not Before: Sep 13 03:16:46 2021 GMT
            Not After : Aug 28 03:16:46 2024 GMT
        Subject: CN=team497-server
        Subject Public Key Info:
            Public Key Algorithm: rsaEncryption
                RSA Public-Key: (2048 bit)
                Modulus:
                    00:d2:36:10:a0:2f:fa:9a:03:62:ec:1f:8a:1f:e7:
                    94:ff:f1:4c:28:3f:60:f6:4a:d2:1a:17:20:2f:59:
                    00:03:4f:32:04:b7:82:f9:e9:58:38:5a:67:e9:cc:
                    73:19:95:6f:ae:27:70:3f:14:4e:ae:f8:55:4a:ee:
                    6e:a6:f7:84:9c:c6:37:97:ee:6e:03:bb:64:28:a2:
                    f6:5b:40:62:e7:b5:c9:dc:be:34:ff:4c:39:59:91:
                    aa:59:2d:80:cb:ed:b3:a5:49:df:ff:76:d1:2a:c4:
                    98:49:a6:21:ca:93:5c:12:ce:3b:09:fd:fa:6d:86:
                    f7:af:f1:5a:0a:f5:be:2f:87:4e:1f:49:c8:4b:c8:
                    e1:cd:4d:c1:9a:3f:f3:6a:10:42:f0:82:e5:e0:6c:
                    69:80:2c:07:29:74:c3:35:ec:e4:f1:18:c4:87:b3:
                    4d:b1:62:eb:e7:b5:5b:89:0e:1d:64:ec:2e:2e:54:
                    e8:66:73:f2:f7:6e:54:e8:81:31:45:5d:68:85:16:
                    39:20:5c:f6:7d:f7:28:23:9c:5d:5a:8f:c3:e4:90:
                    73:4f:06:7d:b7:51:72:dc:b7:e0:5c:a3:94:b8:be:
                    c2:10:66:71:0c:b9:f5:ae:0b:66:6b:4c:63:51:27:
                    66:09:1b:3f:71:af:55:94:57:ae:a3:03:de:57:d2:
                    e3:67
                Exponent: 65537 (0x10001)
        X509v3 extensions:
            X509v3 Basic Constraints: 
                CA:FALSE
            X509v3 Subject Key Identifier: 
                85:D1:1D:4C:A4:99:01:E8:D5:93:62:02:06:46:7C:FC:9A:1A:6B:FF
            X509v3 Authority Key Identifier: 
                keyid:A4:DE:A7:A8:1C:94:DA:0A:5C:C9:82:49:A6:EA:7D:20:60:CF:8A:0E
                DirName:/CN=team497-net
                serial:5D:C4:E6:19:3D:00:81:D7:2F:3F:C5:4E:A8:0F:9E:1C:46:EA:7B:11

            X509v3 Extended Key Usage: 
                TLS Web Server Authentication
            X509v3 Key Usage: 
                Digital Signature, Key Encipherment
            X509v3 Subject Alternative Name: 
                DNS:team497-server
    Signature Algorithm: sha256WithRSAEncryption
         59:17:b1:7f:ad:3f:91:9f:50:3e:7b:bf:54:1f:fe:f4:be:db:
         cc:59:74:8f:95:55:d7:a2:88:ac:38:68:e5:43:3b:ad:17:04:
         bf:b1:bf:8a:a5:44:b0:b5:d2:a4:4c:87:d7:ba:3a:f0:3b:fb:
         03:71:4c:b3:a4:b8:81:ad:53:6e:01:96:66:b3:2c:09:a7:f8:
         83:f7:b7:b6:6a:0a:1c:c2:e7:7a:0f:29:17:32:8e:00:e6:bf:
         d4:15:e7:09:5a:53:73:52:80:92:2c:01:92:8e:c7:54:9f:27:
         17:2f:f1:9e:ca:97:d8:22:9c:8e:b5:8f:93:92:1b:0d:26:37:
         80:74:f0:0b:41:a8:4c:10:0a:b6:22:45:53:bf:4a:f3:28:60:
         00:01:97:12:15:8b:29:15:b6:c8:42:b4:a9:29:80:7d:0f:ca:
         a9:7b:37:fc:27:fa:56:2a:d1:86:f9:5a:3c:f2:08:58:db:bd:
         1a:b3:b1:84:b1:39:f2:09:dd:4d:a8:5d:c5:7c:ec:d2:5a:0c:
         4d:b4:c2:dc:97:0e:fe:9d:13:00:19:ee:b0:34:7b:20:e8:16:
         83:7a:d0:6b:e6:eb:91:4a:6f:be:25:ba:6f:c4:62:4b:44:67:
         8c:b6:82:48:0c:77:b8:73:90:42:26:16:1f:26:91:62:39:8b:
         dc:00:e9:71
-----BEGIN CERTIFICATE-----
MIIDdzCCAl+gAwIBAgIQYhNHqBauoO66txwsYBIgfzANBgkqhkiG9w0BAQsFADAW
MRQwEgYDVQQDDAt0ZWFtNDk3LW5ldDAeFw0yMTA5MTMwMzE2NDZaFw0yNDA4Mjgw
MzE2NDZaMBkxFzAVBgNVBAMMDnRlYW00OTctc2VydmVyMIIBIjANBgkqhkiG9w0B
AQEFAAOCAQ8AMIIBCgKCAQEA0jYQoC/6mgNi7B+KH+eU//FMKD9g9krSGhcgL1kA
A08yBLeC+elYOFpn6cxzGZVvridwPxROrvhVSu5upveEnMY3l+5uA7tkKKL2W0Bi
57XJ3L40/0w5WZGqWS2Ay+2zpUnf/3bRKsSYSaYhypNcEs47Cf36bYb3r/FaCvW+
L4dOH0nIS8jhzU3Bmj/zahBC8ILl4GxpgCwHKXTDNezk8RjEh7NNsWLr57VbiQ4d
ZOwuLlToZnPy925U6IExRV1ohRY5IFz2ffcoI5xdWo/D5JBzTwZ9t1Fy3LfgXKOU
uL7CEGZxDLn1rgtma0xjUSdmCRs/ca9VlFeuowPeV9LjZwIDAQABo4G9MIG6MAkG
A1UdEwQCMAAwHQYDVR0OBBYEFIXRHUykmQHo1ZNiAgZGfPyaGmv/MFEGA1UdIwRK
MEiAFKTep6gclNoKXMmCSabqfSBgz4oOoRqkGDAWMRQwEgYDVQQDDAt0ZWFtNDk3
LW5ldIIUXcTmGT0AgdcvP8VOqA+eHEbqexEwEwYDVR0lBAwwCgYIKwYBBQUHAwEw
CwYDVR0PBAQDAgWgMBkGA1UdEQQSMBCCDnRlYW00OTctc2VydmVyMA0GCSqGSIb3
DQEBCwUAA4IBAQBZF7F/rT+Rn1A+e79UH/70vtvMWXSPlVXXooisOGjlQzutFwS/
sb+KpUSwtdKkTIfXujrwO/sDcUyzpLiBrVNuAZZmsywJp/iD97e2agocwud6DykX
Mo4A5r/UFecJWlNzUoCSLAGSjsdUnycXL/GeypfYIpyOtY+TkhsNJjeAdPALQahM
EAq2IkVTv0rzKGAAAZcSFYspFbbIQrSpKYB9D8qpezf8J/pWKtGG+Vo88ghY270a
s7GEsTnyCd1NqF3FfOzSWgxNtMLclw7+nRMAGe6wNHsg6BaDetBr5uuRSm++Jbpv
xGJLRGeMtoJIDHe4c5BCJhYfJpFiOYvcAOlx
-----END CERTIFICATE-----
