Certificate:
    Data:
        Version: 3 (0x2)
        Serial Number:
            bf:55:41:cc:ad:6f:4a:25:38:1f:af:bf:e4:e4:9d:54
        Signature Algorithm: sha256WithRSAEncryption
        Issuer: CN=team497-net
        Validity
            Not Before: Sep 13 03:16:46 2021 GMT
            Not After : Aug 28 03:16:46 2024 GMT
        Subject: CN=team497-client
        Subject Public Key Info:
            Public Key Algorithm: rsaEncryption
                RSA Public-Key: (2048 bit)
                Modulus:
                    00:c0:96:68:32:bc:e4:4d:f7:30:1c:20:2f:63:58:
                    27:86:99:bd:3f:f7:fb:b0:b7:f1:ac:15:2a:9b:47:
                    70:24:19:f5:78:d1:5e:89:ea:33:d0:00:01:97:69:
                    98:c8:87:6e:47:98:e5:d3:09:b5:43:1d:a9:03:d6:
                    0e:c3:07:18:1c:da:e7:27:9e:a2:54:cc:2e:bd:f7:
                    3a:b8:3b:bc:87:b5:2b:80:6d:ce:62:06:1e:a8:1f:
                    8b:f2:93:36:8a:8e:53:1b:0f:c0:e5:b3:f5:4c:eb:
                    80:bd:23:00:a9:6d:06:80:9d:53:1b:6e:62:7e:6a:
                    55:39:51:3f:97:af:09:cb:22:8c:e2:69:07:f7:30:
                    27:f3:58:bd:55:13:22:5b:ac:61:ba:a4:40:69:8f:
                    fc:9e:d5:3c:a0:4a:86:30:a5:6b:82:ca:c1:11:14:
                    40:0d:d9:25:4d:5e:23:96:5c:d8:23:32:d8:37:55:
                    b7:18:25:e8:da:4f:1e:45:25:3c:24:4f:ce:3c:13:
                    d3:d6:fc:6f:17:38:89:f0:bb:2f:01:ec:9a:26:71:
                    30:de:d1:c9:66:5f:f5:9a:fe:c8:79:34:60:54:e8:
                    59:87:dd:41:de:14:90:99:c1:07:e2:b2:63:df:2c:
                    96:88:73:69:9a:83:e9:67:50:2c:50:a2:69:b6:ff:
                    a9:03
                Exponent: 65537 (0x10001)
        X509v3 extensions:
            X509v3 Basic Constraints: 
                CA:FALSE
            X509v3 Subject Key Identifier: 
                DE:35:69:CE:82:73:02:B1:FB:70:5A:74:14:20:F5:30:85:23:D3:50
            X509v3 Authority Key Identifier: 
                keyid:A4:DE:A7:A8:1C:94:DA:0A:5C:C9:82:49:A6:EA:7D:20:60:CF:8A:0E
                DirName:/CN=team497-net
                serial:5D:C4:E6:19:3D:00:81:D7:2F:3F:C5:4E:A8:0F:9E:1C:46:EA:7B:11

            X509v3 Extended Key Usage: 
                TLS Web Client Authentication
            X509v3 Key Usage: 
                Digital Signature
    Signature Algorithm: sha256WithRSAEncryption
         38:35:92:42:8c:a0:10:6d:66:5c:c0:d0:c7:37:ec:b9:d5:76:
         9a:09:cf:74:ff:c1:65:65:e0:36:ec:2b:aa:69:b6:6f:6e:e5:
         b8:33:1d:da:45:14:6b:4d:9b:c0:4c:f2:33:98:58:83:26:a6:
         4e:5d:46:63:10:15:14:a2:58:4d:9d:55:3d:84:a2:6c:8c:1f:
         8d:91:ff:ae:4c:6b:3e:6e:ee:58:3b:45:f9:f1:be:63:22:be:
         3a:33:ea:64:1f:b4:05:2f:49:0d:f1:b4:00:32:50:76:4b:5c:
         c9:54:e7:bf:65:77:8c:23:83:44:7d:c2:b1:9c:77:c0:61:32:
         07:ad:12:d0:a9:18:4c:bf:82:c8:9b:f9:53:a0:64:82:d4:4d:
         bd:e9:f9:56:aa:ff:cd:4d:31:2a:4f:73:ab:67:33:68:66:63:
         d4:59:82:40:9b:06:ad:0a:cb:8c:62:6f:09:9f:76:75:aa:ba:
         0c:aa:65:9a:61:fe:cd:93:fe:f5:52:f4:62:8d:0d:b4:5a:62:
         d6:29:d5:13:f5:25:33:e1:33:0a:e3:d7:78:43:60:bf:eb:ff:
         da:d2:2e:d6:36:2e:b2:3d:68:1c:d5:8c:cc:df:f5:05:ee:64:
         3d:06:7c:34:9a:07:22:d3:60:bf:ed:db:93:2a:15:f1:32:0f:
         01:66:81:1e
-----BEGIN CERTIFICATE-----
MIIDXTCCAkWgAwIBAgIRAL9VQcytb0olOB+vv+TknVQwDQYJKoZIhvcNAQELBQAw
FjEUMBIGA1UEAwwLdGVhbTQ5Ny1uZXQwHhcNMjEwOTEzMDMxNjQ2WhcNMjQwODI4
MDMxNjQ2WjAZMRcwFQYDVQQDDA50ZWFtNDk3LWNsaWVudDCCASIwDQYJKoZIhvcN
AQEBBQADggEPADCCAQoCggEBAMCWaDK85E33MBwgL2NYJ4aZvT/3+7C38awVKptH
cCQZ9XjRXonqM9AAAZdpmMiHbkeY5dMJtUMdqQPWDsMHGBza5yeeolTMLr33Org7
vIe1K4BtzmIGHqgfi/KTNoqOUxsPwOWz9UzrgL0jAKltBoCdUxtuYn5qVTlRP5ev
CcsijOJpB/cwJ/NYvVUTIlusYbqkQGmP/J7VPKBKhjCla4LKwREUQA3ZJU1eI5Zc
2CMy2DdVtxgl6NpPHkUlPCRPzjwT09b8bxc4ifC7LwHsmiZxMN7RyWZf9Zr+yHk0
YFToWYfdQd4UkJnBB+KyY98slohzaZqD6WdQLFCiabb/qQMCAwEAAaOBojCBnzAJ
BgNVHRMEAjAAMB0GA1UdDgQWBBTeNWnOgnMCsftwWnQUIPUwhSPTUDBRBgNVHSME
SjBIgBSk3qeoHJTaClzJgkmm6n0gYM+KDqEapBgwFjEUMBIGA1UEAwwLdGVhbTQ5
Ny1uZXSCFF3E5hk9AIHXLz/FTqgPnhxG6nsRMBMGA1UdJQQMMAoGCCsGAQUFBwMC
MAsGA1UdDwQEAwIHgDANBgkqhkiG9w0BAQsFAAOCAQEAODWSQoygEG1mXMDQxzfs
udV2mgnPdP/BZWXgNuwrqmm2b27luDMd2kUUa02bwEzyM5hYgyamTl1GYxAVFKJY
TZ1VPYSibIwfjZH/rkxrPm7uWDtF+fG+YyK+OjPqZB+0BS9JDfG0ADJQdktcyVTn
v2V3jCODRH3CsZx3wGEyB60S0KkYTL+CyJv5U6BkgtRNven5Vqr/zU0xKk9zq2cz
aGZj1FmCQJsGrQrLjGJvCZ92daq6DKplmmH+zZP+9VL0Yo0NtFpi1inVE/UlM+Ez
CuPXeENgv+v/2tIu1jYusj1oHNWMzN/1Be5kPQZ8NJoHItNgv+3bkyoV8TIPAWaB
Hg==
-----END CERTIFICATE-----
