Certificate:
    Data:
        Version: 3 (0x2)
        Serial Number:
            38:2d:25:b8:4c:21:15:8a:b4:c6:f4:f1:af:b0:2a:71
        Signature Algorithm: sha256WithRSAEncryption
        Issuer: CN=team260-net
        Validity
            Not Before: Sep 13 00:56:22 2021 GMT
            Not After : Aug 28 00:56:22 2024 GMT
        Subject: CN=team260-client
        Subject Public Key Info:
            Public Key Algorithm: rsaEncryption
                RSA Public-Key: (2048 bit)
                Modulus:
                    00:c2:ec:d6:50:ff:c9:6c:f5:d7:bd:dd:86:b8:1b:
                    7d:29:a1:29:81:00:41:ce:33:f7:dd:55:00:24:40:
                    7e:fa:de:be:9c:c8:64:38:89:7b:f1:3d:2f:51:6f:
                    1c:29:67:f8:0f:52:6c:6a:c6:d5:83:3e:85:83:70:
                    24:60:9b:3b:75:17:b1:62:6c:e5:19:26:ed:20:80:
                    ca:67:d3:e0:44:45:20:3c:62:e1:6f:ec:d6:e5:00:
                    f9:5f:eb:80:0c:af:47:59:e5:8b:7e:6a:4d:47:fc:
                    cd:82:fb:d1:0d:ff:52:da:94:d1:dd:ab:4a:45:4d:
                    cc:f3:35:b7:d1:ff:72:68:de:c2:32:ed:16:1c:71:
                    fa:85:f3:58:33:b9:fc:5a:85:e7:d0:dd:71:0b:16:
                    bc:fd:ad:05:4b:00:d2:e7:60:b2:b4:58:a1:55:f9:
                    d3:67:d9:2f:ca:52:4c:37:08:c5:61:eb:5a:07:f6:
                    0a:9a:8d:11:ec:fb:c0:f1:10:2d:da:e0:7f:aa:36:
                    2f:a0:48:90:0c:0f:99:5b:27:95:3e:85:d5:e0:63:
                    cb:6a:ee:8f:c4:51:85:9d:15:2d:ef:eb:7a:9e:a3:
                    97:5b:4b:8f:69:84:d9:f2:3f:2f:22:9a:b1:ce:32:
                    e9:e9:eb:e9:d8:2c:86:90:87:66:bf:20:e3:fd:cf:
                    a2:57
                Exponent: 65537 (0x10001)
        X509v3 extensions:
            X509v3 Basic Constraints: 
                CA:FALSE
            X509v3 Subject Key Identifier: 
                08:2D:21:8C:13:AC:B0:26:E9:F3:C1:7B:BB:97:A8:6D:ED:8E:9D:3A
            X509v3 Authority Key Identifier: 
                keyid:35:C6:BA:11:9D:63:AE:57:4A:46:EC:51:F6:0B:73:33:B0:79:D9:2B
                DirName:/CN=team260-net
                serial:4A:0F:CB:84:38:0C:9D:23:3F:77:20:2F:2D:66:3D:79:C9:8A:90:23

            X509v3 Extended Key Usage: 
                TLS Web Client Authentication
            X509v3 Key Usage: 
                Digital Signature
    Signature Algorithm: sha256WithRSAEncryption
         1f:05:6d:a7:0e:f6:e9:6d:d2:b3:ac:97:2c:eb:e4:d7:d5:21:
         19:a5:5c:1b:fb:95:57:16:47:2d:33:67:94:e1:4b:0f:ab:3c:
         4e:a6:12:fe:c6:d2:d3:cc:21:95:51:45:2b:65:33:b0:05:f0:
         ee:82:42:42:28:08:b2:34:6f:09:7d:32:e1:6c:25:e0:5e:de:
         9a:fb:f9:7d:ac:64:f2:22:63:f0:ca:34:c7:04:49:bb:19:ba:
         a8:56:eb:a5:ad:1f:01:7a:ec:ed:57:be:e0:08:11:54:c3:38:
         5c:53:aa:18:de:d9:0a:b6:ab:6b:19:d7:41:31:24:2a:16:b4:
         e9:eb:4e:c2:e9:6a:d6:e1:14:c2:b2:36:7f:6d:07:e6:b2:60:
         b2:8e:3a:6a:77:66:24:74:2d:0b:eb:4f:5b:42:92:d1:38:db:
         68:75:6c:15:0f:17:f7:a0:72:e4:75:2c:8a:a6:87:35:a8:af:
         d4:19:44:4d:06:24:0b:1e:d7:08:05:30:d1:0c:ef:47:19:df:
         eb:93:3e:8c:47:68:c2:37:b8:38:94:d1:1c:7e:e0:77:89:98:
         ac:ad:6e:95:74:e0:f0:d7:48:56:70:ce:89:5e:70:94:5d:f2:
         a4:a6:f7:7e:4c:37:a1:f9:cf:af:a6:1e:53:99:d0:25:a3:cb:
         92:6b:65:20
-----BEGIN CERTIFICATE-----
MIIDXDCCAkSgAwIBAgIQOC0luEwhFYq0xvTxr7AqcTANBgkqhkiG9w0BAQsFADAW
MRQwEgYDVQQDDAt0ZWFtMjYwLW5ldDAeFw0yMTA5MTMwMDU2MjJaFw0yNDA4Mjgw
MDU2MjJaMBkxFzAVBgNVBAMMDnRlYW0yNjAtY2xpZW50MIIBIjANBgkqhkiG9w0B
AQEFAAOCAQ8AMIIBCgKCAQEAwuzWUP/JbPXXvd2GuBt9KaEpgQBBzjP33VUAJEB+
+t6+nMhkOIl78T0vUW8cKWf4D1JsasbVgz6Fg3AkYJs7dRexYmzlGSbtIIDKZ9Pg
REUgPGLhb+zW5QD5X+uADK9HWeWLfmpNR/zNgvvRDf9S2pTR3atKRU3M8zW30f9y
aN7CMu0WHHH6hfNYM7n8WoXn0N1xCxa8/a0FSwDS52CytFihVfnTZ9kvylJMNwjF
YetaB/YKmo0R7PvA8RAt2uB/qjYvoEiQDA+ZWyeVPoXV4GPLau6PxFGFnRUt7+t6
nqOXW0uPaYTZ8j8vIpqxzjLp6evp2CyGkIdmvyDj/c+iVwIDAQABo4GiMIGfMAkG
A1UdEwQCMAAwHQYDVR0OBBYEFAgtIYwTrLAm6fPBe7uXqG3tjp06MFEGA1UdIwRK
MEiAFDXGuhGdY65XSkbsUfYLczOwedkroRqkGDAWMRQwEgYDVQQDDAt0ZWFtMjYw
LW5ldIIUSg/LhDgMnSM/dyAvLWY9ecmKkCMwEwYDVR0lBAwwCgYIKwYBBQUHAwIw
CwYDVR0PBAQDAgeAMA0GCSqGSIb3DQEBCwUAA4IBAQAfBW2nDvbpbdKzrJcs6+TX
1SEZpVwb+5VXFkctM2eU4UsPqzxOphL+xtLTzCGVUUUrZTOwBfDugkJCKAiyNG8J
fTLhbCXgXt6a+/l9rGTyImPwyjTHBEm7GbqoVuulrR8BeuztV77gCBFUwzhcU6oY
3tkKtqtrGddBMSQqFrTp607C6WrW4RTCsjZ/bQfmsmCyjjpqd2YkdC0L609bQpLR
ONtodWwVDxf3oHLkdSyKpoc1qK/UGURNBiQLHtcIBTDRDO9HGd/rkz6MR2jCN7g4
lNEcfuB3iZisrW6VdODw10hWcM6JXnCUXfKkpvd+TDeh+c+vph5TmdAlo8uSa2Ug
-----END CERTIFICATE-----
