Certificate:
    Data:
        Version: 3 (0x2)
        Serial Number:
            f6:9a:9c:61:22:99:7c:4f:43:3b:d7:ba:76:d5:31:d6
        Signature Algorithm: sha256WithRSAEncryption
        Issuer: CN=team315-net
        Validity
            Not Before: Sep 13 01:36:13 2021 GMT
            Not After : Aug 28 01:36:13 2024 GMT
        Subject: CN=team315-server
        Subject Public Key Info:
            Public Key Algorithm: rsaEncryption
                RSA Public-Key: (2048 bit)
                Modulus:
                    00:c9:2a:d8:f1:5c:78:3c:67:d7:13:1f:0d:d5:1a:
                    85:02:87:3d:d6:93:80:c1:d6:24:9b:09:f4:53:84:
                    30:3b:0e:77:3e:e2:fd:54:93:f2:e0:00:f6:a5:17:
                    ab:f2:1e:ab:b2:81:87:2f:03:49:33:41:c1:8c:22:
                    c1:53:f7:ee:1e:2d:8b:3e:b2:8a:03:8c:f6:93:6f:
                    44:06:d4:e3:3e:6e:04:3f:d9:62:8f:19:d2:06:3c:
                    be:40:ca:ad:13:51:f8:11:fb:12:28:bc:e6:5b:92:
                    2b:ae:81:39:15:4a:30:83:18:4a:79:22:4b:fa:0d:
                    bb:fb:a9:fb:ac:14:44:45:b8:d9:13:31:f5:ca:1e:
                    b0:93:81:0a:8c:b7:c3:4a:68:98:46:e4:04:4f:c0:
                    f0:51:82:d6:b7:d2:b2:25:67:7e:6d:b8:e7:4c:8f:
                    33:0a:a2:cb:f4:a0:79:2a:8c:a3:04:74:f9:8c:74:
                    0e:e9:9a:91:ee:c1:15:c4:6f:06:89:d2:5f:aa:fa:
                    a4:79:e8:09:a5:08:58:a7:08:63:0f:20:b2:4a:bb:
                    2e:fa:da:33:25:bd:3c:99:f8:69:d5:d5:18:26:72:
                    eb:bf:62:ef:53:4c:7e:1d:35:0b:82:d2:57:b9:b5:
                    b2:e2:45:dd:50:a9:10:e8:17:93:d0:56:6a:24:5f:
                    8d:b3
                Exponent: 65537 (0x10001)
        X509v3 extensions:
            X509v3 Basic Constraints: 
                CA:FALSE
            X509v3 Subject Key Identifier: 
                D5:A8:07:EF:70:12:02:34:1A:85:BB:31:42:FD:34:32:8F:03:BC:8C
            X509v3 Authority Key Identifier: 
                keyid:E6:96:12:F8:4F:B0:0D:25:22:2D:D4:B6:33:9F:97:CF:11:38:D8:AA
                DirName:/CN=team315-net
                serial:73:3E:B7:A4:EC:40:5F:EE:53:13:3A:BE:6F:69:40:C4:BB:93:39:B3

            X509v3 Extended Key Usage: 
                TLS Web Server Authentication
            X509v3 Key Usage: 
                Digital Signature, Key Encipherment
            X509v3 Subject Alternative Name: 
                DNS:team315-server
    Signature Algorithm: sha256WithRSAEncryption
         74:74:0e:5d:91:60:20:2b:0c:28:94:a9:6b:b4:76:06:72:00:
         cb:e9:b8:19:04:a1:a1:c7:d1:e0:78:d4:58:92:ae:9f:03:35:
         04:e5:b6:47:c0:1c:62:74:c1:c8:81:40:07:a8:72:de:41:b0:
         34:a6:39:ba:2f:b0:dd:ed:cb:06:4d:7c:46:a1:ae:3a:78:2c:
         af:52:a0:49:88:33:c1:57:f0:17:42:b4:e5:58:54:7f:4f:ef:
         07:aa:c9:60:2b:4c:8b:10:11:52:d9:5d:73:d5:b7:88:10:8a:
         a3:3e:ee:32:7d:fd:c0:84:b6:c3:08:cc:33:41:34:9d:51:82:
         a6:38:f4:7c:cb:05:b0:05:41:0f:98:00:6f:65:90:fe:14:4f:
         dc:bb:8e:72:2c:9b:f1:98:d8:87:73:bc:c8:ad:05:5a:b9:d1:
         a4:bf:71:1b:4b:de:7b:1a:c8:f5:75:73:1d:89:35:6e:a2:06:
         12:f0:f3:e3:cb:f1:75:1a:5e:dc:e7:7d:73:f1:fa:e2:a4:8d:
         bd:46:88:ae:91:c0:a7:08:b8:39:06:96:78:76:7a:b7:e7:6d:
         d5:b5:8d:ea:85:e7:fe:ae:ef:7b:2b:1d:2c:85:95:10:f7:6b:
         c7:f1:6b:86:a9:d1:e2:b7:da:b8:e5:07:03:63:72:1d:8a:29:
         ce:a2:9a:32
-----BEGIN CERTIFICATE-----
MIIDeDCCAmCgAwIBAgIRAPaanGEimXxPQzvXunbVMdYwDQYJKoZIhvcNAQELBQAw
FjEUMBIGA1UEAwwLdGVhbTMxNS1uZXQwHhcNMjEwOTEzMDEzNjEzWhcNMjQwODI4
MDEzNjEzWjAZMRcwFQYDVQQDDA50ZWFtMzE1LXNlcnZlcjCCASIwDQYJKoZIhvcN
AQEBBQADggEPADCCAQoCggEBAMkq2PFceDxn1xMfDdUahQKHPdaTgMHWJJsJ9FOE
MDsOdz7i/VST8uAA9qUXq/Ieq7KBhy8DSTNBwYwiwVP37h4tiz6yigOM9pNvRAbU
4z5uBD/ZYo8Z0gY8vkDKrRNR+BH7Eii85luSK66BORVKMIMYSnkiS/oNu/up+6wU
REW42RMx9coesJOBCoy3w0pomEbkBE/A8FGC1rfSsiVnfm2450yPMwqiy/SgeSqM
owR0+Yx0Dumake7BFcRvBonSX6r6pHnoCaUIWKcIYw8gskq7LvraMyW9PJn4adXV
GCZy679i71NMfh01C4LSV7m1suJF3VCpEOgXk9BWaiRfjbMCAwEAAaOBvTCBujAJ
BgNVHRMEAjAAMB0GA1UdDgQWBBTVqAfvcBICNBqFuzFC/TQyjwO8jDBRBgNVHSME
SjBIgBTmlhL4T7ANJSIt1LYzn5fPETjYqqEapBgwFjEUMBIGA1UEAwwLdGVhbTMx
NS1uZXSCFHM+t6TsQF/uUxM6vm9pQMS7kzmzMBMGA1UdJQQMMAoGCCsGAQUFBwMB
MAsGA1UdDwQEAwIFoDAZBgNVHREEEjAQgg50ZWFtMzE1LXNlcnZlcjANBgkqhkiG
9w0BAQsFAAOCAQEAdHQOXZFgICsMKJSpa7R2BnIAy+m4GQShocfR4HjUWJKunwM1
BOW2R8AcYnTByIFAB6hy3kGwNKY5ui+w3e3LBk18RqGuOngsr1KgSYgzwVfwF0K0
5VhUf0/vB6rJYCtMixARUtldc9W3iBCKoz7uMn39wIS2wwjMM0E0nVGCpjj0fMsF
sAVBD5gAb2WQ/hRP3LuOciyb8ZjYh3O8yK0FWrnRpL9xG0veexrI9XVzHYk1bqIG
EvDz48vxdRpe3Od9c/H64qSNvUaIrpHApwi4OQaWeHZ6t+dt1bWN6oXn/q7veysd
LIWVEPdrx/FrhqnR4rfauOUHA2NyHYopzqKaMg==
-----END CERTIFICATE-----
