Certificate:
    Data:
        Version: 3 (0x2)
        Serial Number:
            fd:9e:bb:74:d0:d8:2c:30:d3:d0:47:e3:0f:82:23:ae
        Signature Algorithm: sha256WithRSAEncryption
        Issuer: CN=team16-net
        Validity
            Not Before: Sep 12 22:47:31 2021 GMT
            Not After : Aug 27 22:47:31 2024 GMT
        Subject: CN=team16-client
        Subject Public Key Info:
            Public Key Algorithm: rsaEncryption
                RSA Public-Key: (2048 bit)
                Modulus:
                    00:a8:c5:e6:2a:4a:f6:28:28:88:21:c1:68:fb:fb:
                    f0:73:f8:be:cc:95:28:20:c1:ef:21:0c:9d:d8:0c:
                    63:9c:ba:52:39:95:85:4c:24:5f:1f:48:8f:01:d2:
                    e4:40:e1:99:85:c8:4d:68:61:ee:65:15:6e:06:01:
                    a0:79:2b:b9:ff:33:82:28:13:72:db:88:c5:85:7a:
                    76:48:38:cd:d8:d0:b0:5d:77:98:30:88:9b:a2:92:
                    37:83:8a:41:a6:ed:1c:2f:6a:20:ba:53:a5:3d:4b:
                    33:2c:28:32:32:d6:a0:d7:df:f7:38:d3:0a:65:fb:
                    07:da:c3:d3:67:da:e0:71:9b:c0:44:2c:ab:16:f9:
                    73:f6:59:40:71:c1:8a:f9:65:23:80:53:9c:76:ae:
                    e2:e9:87:dd:78:63:50:1e:61:57:25:65:20:3e:1b:
                    57:d9:a4:16:03:2d:7f:a3:f5:0e:48:51:47:4c:db:
                    62:b6:3b:70:88:96:bd:ef:8e:b6:3d:b2:18:09:ed:
                    83:31:d8:0d:5c:8f:0b:27:4c:e5:12:77:5c:58:04:
                    47:ab:b0:43:d9:9e:e1:ff:7f:03:7c:17:ec:fb:94:
                    95:af:65:92:57:ec:36:d6:e6:27:0c:78:53:a3:be:
                    d8:77:63:e9:58:47:d4:ec:38:1f:80:08:60:10:c8:
                    f5:dd
                Exponent: 65537 (0x10001)
        X509v3 extensions:
            X509v3 Basic Constraints: 
                CA:FALSE
            X509v3 Subject Key Identifier: 
                18:BC:C4:4E:8E:CD:4C:A2:D8:6E:03:39:72:38:C1:4E:A4:FF:F7:C0
            X509v3 Authority Key Identifier: 
                keyid:95:41:90:DE:5D:07:F9:4A:47:01:15:A1:22:CE:12:A9:A6:7B:54:3F
                DirName:/CN=team16-net
                serial:7A:82:5B:3F:C2:03:D6:AD:0C:E1:FC:91:F5:78:45:F6:B7:EA:68:7E

            X509v3 Extended Key Usage: 
                TLS Web Client Authentication
            X509v3 Key Usage: 
                Digital Signature
    Signature Algorithm: sha256WithRSAEncryption
         88:61:aa:c8:cb:00:29:64:8d:b0:74:4f:62:8c:34:7c:1c:ba:
         41:46:6a:c7:6e:05:d2:6d:e7:4c:01:4a:fe:41:ee:31:51:e1:
         18:bf:ae:75:c1:98:db:22:3e:8a:ae:bf:7d:14:09:0b:6f:6c:
         c8:2f:7c:7a:95:58:ff:74:d6:da:05:66:f6:e0:69:db:5d:38:
         11:93:b1:32:30:34:0f:5d:16:41:be:96:fa:69:36:66:ad:71:
         fa:f9:b2:74:ee:7c:be:44:9f:8f:59:11:1e:68:9e:7a:cb:00:
         7d:20:85:1d:95:97:d8:e4:dc:51:7d:4d:c8:1e:51:26:ed:e6:
         40:9e:53:b6:19:65:ef:72:34:0b:7a:b1:07:3a:40:d7:5f:55:
         19:f9:b5:2e:4b:69:78:48:45:b6:ba:58:f6:ba:7b:b4:5c:e5:
         da:11:03:56:c0:28:3e:c8:c1:39:23:7b:81:5a:83:76:5a:60:
         b6:ba:94:4b:a2:0b:45:5f:4a:a2:e8:c0:25:83:fa:14:e0:8a:
         b2:60:26:e9:c0:01:37:d2:2e:96:b9:fb:75:44:06:2e:c4:0a:
         b6:6b:dd:42:9e:a7:fe:1b:51:d1:38:fc:e5:0b:b3:5a:dd:66:
         6d:e3:98:7f:41:e0:9f:96:25:93:ca:45:aa:05:8b:37:5e:76:
         c6:a1:34:3b
-----BEGIN CERTIFICATE-----
MIIDWjCCAkKgAwIBAgIRAP2eu3TQ2Cww09BH4w+CI64wDQYJKoZIhvcNAQELBQAw
FTETMBEGA1UEAwwKdGVhbTE2LW5ldDAeFw0yMTA5MTIyMjQ3MzFaFw0yNDA4Mjcy
MjQ3MzFaMBgxFjAUBgNVBAMMDXRlYW0xNi1jbGllbnQwggEiMA0GCSqGSIb3DQEB
AQUAA4IBDwAwggEKAoIBAQCoxeYqSvYoKIghwWj7+/Bz+L7MlSggwe8hDJ3YDGOc
ulI5lYVMJF8fSI8B0uRA4ZmFyE1oYe5lFW4GAaB5K7n/M4IoE3LbiMWFenZIOM3Y
0LBdd5gwiJuikjeDikGm7RwvaiC6U6U9SzMsKDIy1qDX3/c40wpl+wfaw9Nn2uBx
m8BELKsW+XP2WUBxwYr5ZSOAU5x2ruLph914Y1AeYVclZSA+G1fZpBYDLX+j9Q5I
UUdM22K2O3CIlr3vjrY9shgJ7YMx2A1cjwsnTOUSd1xYBEersEPZnuH/fwN8F+z7
lJWvZZJX7DbW5icMeFOjvth3Y+lYR9TsOB+ACGAQyPXdAgMBAAGjgaEwgZ4wCQYD
VR0TBAIwADAdBgNVHQ4EFgQUGLzETo7NTKLYbgM5cjjBTqT/98AwUAYDVR0jBEkw
R4AUlUGQ3l0H+UpHARWhIs4SqaZ7VD+hGaQXMBUxEzARBgNVBAMMCnRlYW0xNi1u
ZXSCFHqCWz/CA9atDOH8kfV4Rfa36mh+MBMGA1UdJQQMMAoGCCsGAQUFBwMCMAsG
A1UdDwQEAwIHgDANBgkqhkiG9w0BAQsFAAOCAQEAiGGqyMsAKWSNsHRPYow0fBy6
QUZqx24F0m3nTAFK/kHuMVHhGL+udcGY2yI+iq6/fRQJC29syC98epVY/3TW2gVm
9uBp2104EZOxMjA0D10WQb6W+mk2Zq1x+vmydO58vkSfj1kRHmieessAfSCFHZWX
2OTcUX1NyB5RJu3mQJ5Tthll73I0C3qxBzpA119VGfm1LktpeEhFtrpY9rp7tFzl
2hEDVsAoPsjBOSN7gVqDdlpgtrqUS6ILRV9KoujAJYP6FOCKsmAm6cABN9Iulrn7
dUQGLsQKtmvdQp6n/htR0Tj85QuzWt1mbeOYf0Hgn5Ylk8pFqgWLN152xqE0Ow==
-----END CERTIFICATE-----
