Certificate:
    Data:
        Version: 3 (0x2)
        Serial Number:
            35:ea:4c:8b:34:e7:77:a4:af:c2:9c:61:a8:fe:d6:18
        Signature Algorithm: sha256WithRSAEncryption
        Issuer: CN=team323-net
        Validity
            Not Before: Sep 13 01:41:50 2021 GMT
            Not After : Aug 28 01:41:50 2024 GMT
        Subject: CN=team323-client
        Subject Public Key Info:
            Public Key Algorithm: rsaEncryption
                RSA Public-Key: (2048 bit)
                Modulus:
                    00:c4:99:5f:3e:27:2f:ac:ae:74:f7:ee:c9:af:6c:
                    c7:f1:68:a0:05:df:75:40:11:c3:04:a3:59:bf:bf:
                    1a:7d:88:aa:45:5c:7b:2d:4a:79:37:83:2c:6a:6c:
                    c6:a5:3f:e2:05:04:c9:79:00:e9:a3:bf:43:40:a7:
                    75:c9:82:c7:1d:49:e8:55:c0:70:20:c9:9a:70:1b:
                    dd:e9:76:de:cb:0c:fe:a7:dc:75:d9:74:2f:b9:96:
                    be:bc:3a:0c:ac:a9:30:c3:4a:ae:17:61:16:8b:80:
                    28:d8:a1:e4:a6:bc:f3:d5:43:ba:d5:f2:ce:fc:cf:
                    d3:ac:67:c3:8a:1f:4a:0d:84:0d:e0:fc:b1:24:a5:
                    c0:97:1b:61:41:09:13:1b:2a:97:35:63:0d:41:de:
                    44:53:4a:22:a8:2a:40:02:5a:c3:b0:4c:f9:64:95:
                    96:33:ba:d2:df:0f:30:50:49:1b:50:ff:7e:6f:e9:
                    9f:8a:30:d6:0f:f3:53:bf:9a:72:aa:99:98:76:c1:
                    55:2f:11:d1:c4:cd:cc:5c:1d:2a:ee:30:ad:b4:5f:
                    3b:c8:0b:31:7b:b2:e7:55:e9:91:02:00:a1:17:34:
                    49:a1:a7:0f:87:2f:53:27:c8:b9:5d:88:47:61:e8:
                    d4:cd:91:24:e0:16:d3:95:2f:85:3a:57:c8:0a:8a:
                    cd:09
                Exponent: 65537 (0x10001)
        X509v3 extensions:
            X509v3 Basic Constraints: 
                CA:FALSE
            X509v3 Subject Key Identifier: 
                D5:02:74:F3:3B:85:53:35:22:B7:65:7A:2B:17:83:CC:9B:8B:FA:D4
            X509v3 Authority Key Identifier: 
                keyid:06:6F:FC:49:5F:A0:FF:7F:D3:0B:BC:9B:3A:9F:57:56:C7:9B:FE:A4
                DirName:/CN=team323-net
                serial:12:15:E8:D4:41:7B:37:2D:31:6E:A5:C3:2C:F7:78:1F:AA:87:AF:C2

            X509v3 Extended Key Usage: 
                TLS Web Client Authentication
            X509v3 Key Usage: 
                Digital Signature
    Signature Algorithm: sha256WithRSAEncryption
         a3:d7:46:eb:89:20:cf:9a:9a:01:df:e9:af:28:53:c5:5d:cb:
         19:24:da:d3:7c:d6:84:91:f9:74:a0:9e:85:32:07:bd:03:51:
         1d:e8:06:83:04:0f:1f:d3:3c:b0:a7:01:66:c8:c3:c3:bf:b4:
         22:16:e8:1b:3a:81:65:e9:8e:e6:7a:26:a0:13:93:3b:7a:ff:
         82:85:c0:99:a7:9d:32:0c:48:2f:e4:64:fc:19:6d:00:cb:f3:
         39:9b:7b:ab:2d:a8:61:bb:63:29:53:79:29:96:a8:df:b8:68:
         46:ae:b5:36:89:77:0a:28:0a:7e:00:d4:b5:d7:e6:10:09:5b:
         03:49:0e:c1:fe:48:3d:c9:e3:37:a8:2e:7f:e6:fe:22:b5:c9:
         ce:80:8c:3b:fd:b9:3a:39:d0:a9:cc:42:48:54:9d:8e:4a:03:
         dd:39:d1:5e:ea:f4:5f:24:f3:fe:68:da:7d:5c:1d:f0:2b:a6:
         da:f6:cd:46:b8:7f:10:80:d0:02:5e:38:ae:40:a2:52:a0:28:
         e9:23:65:f8:4a:fc:81:66:d7:d5:57:9b:9f:3f:c0:e9:c9:24:
         eb:7e:38:4b:44:4a:3c:c7:43:f3:da:1d:6a:a4:5d:bf:a1:f1:
         2d:f2:5a:01:3a:08:58:2f:47:ef:a9:f1:ba:98:46:1c:af:ad:
         8f:85:83:b6
-----BEGIN CERTIFICATE-----
MIIDXDCCAkSgAwIBAgIQNepMizTnd6SvwpxhqP7WGDANBgkqhkiG9w0BAQsFADAW
MRQwEgYDVQQDDAt0ZWFtMzIzLW5ldDAeFw0yMTA5MTMwMTQxNTBaFw0yNDA4Mjgw
MTQxNTBaMBkxFzAVBgNVBAMMDnRlYW0zMjMtY2xpZW50MIIBIjANBgkqhkiG9w0B
AQEFAAOCAQ8AMIIBCgKCAQEAxJlfPicvrK509+7Jr2zH8WigBd91QBHDBKNZv78a
fYiqRVx7LUp5N4MsamzGpT/iBQTJeQDpo79DQKd1yYLHHUnoVcBwIMmacBvd6Xbe
ywz+p9x12XQvuZa+vDoMrKkww0quF2EWi4Ao2KHkprzz1UO61fLO/M/TrGfDih9K
DYQN4PyxJKXAlxthQQkTGyqXNWMNQd5EU0oiqCpAAlrDsEz5ZJWWM7rS3w8wUEkb
UP9+b+mfijDWD/NTv5pyqpmYdsFVLxHRxM3MXB0q7jCttF87yAsxe7LnVemRAgCh
FzRJoacPhy9TJ8i5XYhHYejUzZEk4BbTlS+FOlfICorNCQIDAQABo4GiMIGfMAkG
A1UdEwQCMAAwHQYDVR0OBBYEFNUCdPM7hVM1IrdleisXg8ybi/rUMFEGA1UdIwRK
MEiAFAZv/ElfoP9/0wu8mzqfV1bHm/6koRqkGDAWMRQwEgYDVQQDDAt0ZWFtMzIz
LW5ldIIUEhXo1EF7Ny0xbqXDLPd4H6qHr8IwEwYDVR0lBAwwCgYIKwYBBQUHAwIw
CwYDVR0PBAQDAgeAMA0GCSqGSIb3DQEBCwUAA4IBAQCj10briSDPmpoB3+mvKFPF
XcsZJNrTfNaEkfl0oJ6FMge9A1Ed6AaDBA8f0zywpwFmyMPDv7QiFugbOoFl6Y7m
eiagE5M7ev+ChcCZp50yDEgv5GT8GW0Ay/M5m3urLahhu2MpU3kplqjfuGhGrrU2
iXcKKAp+ANS11+YQCVsDSQ7B/kg9yeM3qC5/5v4itcnOgIw7/bk6OdCpzEJIVJ2O
SgPdOdFe6vRfJPP+aNp9XB3wK6ba9s1GuH8QgNACXjiuQKJSoCjpI2X4SvyBZtfV
V5ufP8DpySTrfjhLREo8x0Pz2h1qpF2/ofEt8loBOghYL0fvqfG6mEYcr62PhYO2
-----END CERTIFICATE-----
