Certificate:
    Data:
        Version: 3 (0x2)
        Serial Number:
            8a:24:fb:94:0a:27:29:20:87:26:6f:c2:14:32:43:61
        Signature Algorithm: sha256WithRSAEncryption
        Issuer: CN=team691-net
        Validity
            Not Before: Sep 13 05:14:39 2021 GMT
            Not After : Aug 28 05:14:39 2024 GMT
        Subject: CN=team691-client
        Subject Public Key Info:
            Public Key Algorithm: rsaEncryption
                RSA Public-Key: (2048 bit)
                Modulus:
                    00:eb:7e:fb:58:1d:65:85:59:3f:88:98:0a:a1:41:
                    b9:9d:24:5e:44:15:87:68:05:ab:52:9c:93:6d:1e:
                    1f:8f:a0:d2:b1:34:16:a3:39:75:a4:3a:1b:89:17:
                    7d:5d:3f:1c:6c:ba:75:9c:27:ad:c8:98:01:22:16:
                    77:fb:8d:4b:39:9d:36:4a:9f:66:6a:e0:b4:e8:e8:
                    32:10:16:57:48:db:2b:11:32:24:c4:8a:a9:44:bf:
                    91:c7:c4:ab:ab:63:37:e7:85:1b:94:0a:e9:8b:21:
                    44:15:9c:f7:36:02:85:1a:73:82:0a:a2:6a:76:d1:
                    6d:f4:95:e8:96:f2:1c:de:55:38:a8:b6:98:5b:ef:
                    f3:1c:4f:c7:0d:44:cb:42:87:56:eb:8d:5a:75:eb:
                    c6:4d:83:3a:a3:e1:b2:d3:c3:dd:78:0b:be:99:bb:
                    94:09:07:42:7f:3f:65:3c:99:ab:f8:a1:a7:97:8e:
                    a6:1c:00:53:c3:c4:1a:4f:06:46:a5:d4:13:57:a9:
                    bb:bf:9f:dc:ea:1f:c1:86:89:70:59:10:46:bf:cf:
                    a7:a2:92:30:62:58:5c:e7:dd:2c:e0:16:d6:0d:2f:
                    23:9a:2c:13:b4:52:cb:94:02:53:b0:68:a3:ac:2c:
                    f4:55:0b:23:01:86:38:73:3d:7d:be:bb:8e:b1:ff:
                    e7:27
                Exponent: 65537 (0x10001)
        X509v3 extensions:
            X509v3 Basic Constraints: 
                CA:FALSE
            X509v3 Subject Key Identifier: 
                EA:15:D7:7B:42:91:1F:6E:82:AF:23:7D:62:FE:18:0A:6E:7E:EF:EF
            X509v3 Authority Key Identifier: 
                keyid:80:9F:6C:ED:C4:F7:AB:4D:33:4B:B5:D3:FE:68:BE:6B:DC:9A:38:CF
                DirName:/CN=team691-net
                serial:3F:CE:28:C1:1A:F1:92:AB:B5:93:A7:F2:8F:FD:DE:84:1F:AC:9E:B5

            X509v3 Extended Key Usage: 
                TLS Web Client Authentication
            X509v3 Key Usage: 
                Digital Signature
    Signature Algorithm: sha256WithRSAEncryption
         97:f2:71:46:41:40:3d:b7:0f:e9:a1:74:0f:cc:8c:8e:0f:3a:
         9e:bd:9d:57:a9:76:70:42:2d:c9:75:db:a5:4c:58:63:78:1f:
         2f:1a:64:69:59:70:34:39:54:3d:ff:27:5e:2a:42:9f:89:f8:
         c0:2a:3b:94:5c:3b:c4:8a:5c:27:2f:57:7a:ac:b1:e7:cb:8d:
         5e:24:3c:97:87:5a:cf:b4:47:44:ab:e6:db:49:f3:96:9d:c6:
         61:4d:64:fc:0d:72:cf:2e:fb:bc:60:87:ad:8c:68:43:a5:d1:
         85:30:48:ec:40:17:bc:5e:4b:65:a4:cb:41:e9:4a:c8:e5:37:
         f0:6d:37:14:65:c4:45:4c:ff:d3:50:62:9e:86:49:38:34:19:
         3e:9a:f5:a9:70:75:57:c3:be:64:e5:0c:35:ee:12:91:46:58:
         c2:9e:4c:69:1a:02:2e:08:c4:99:c5:5d:2a:af:f7:10:50:5f:
         b3:8d:25:ab:00:d0:07:9e:02:bd:a3:37:9c:90:fc:b0:d0:aa:
         6d:ae:24:fe:e1:bc:37:74:80:bd:18:59:f2:73:d7:c2:f2:e1:
         83:ce:f6:5f:87:f3:63:9c:0c:7e:41:2d:d5:ff:4c:a3:9d:26:
         c3:f1:6d:19:ab:6e:81:18:52:09:86:01:9c:2c:16:00:36:1a:
         51:45:f5:cc
-----BEGIN CERTIFICATE-----
MIIDXTCCAkWgAwIBAgIRAIok+5QKJykghyZvwhQyQ2EwDQYJKoZIhvcNAQELBQAw
FjEUMBIGA1UEAwwLdGVhbTY5MS1uZXQwHhcNMjEwOTEzMDUxNDM5WhcNMjQwODI4
MDUxNDM5WjAZMRcwFQYDVQQDDA50ZWFtNjkxLWNsaWVudDCCASIwDQYJKoZIhvcN
AQEBBQADggEPADCCAQoCggEBAOt++1gdZYVZP4iYCqFBuZ0kXkQVh2gFq1Kck20e
H4+g0rE0FqM5daQ6G4kXfV0/HGy6dZwnrciYASIWd/uNSzmdNkqfZmrgtOjoMhAW
V0jbKxEyJMSKqUS/kcfEq6tjN+eFG5QK6YshRBWc9zYChRpzggqianbRbfSV6Jby
HN5VOKi2mFvv8xxPxw1Ey0KHVuuNWnXrxk2DOqPhstPD3XgLvpm7lAkHQn8/ZTyZ
q/ihp5eOphwAU8PEGk8GRqXUE1epu7+f3OofwYaJcFkQRr/Pp6KSMGJYXOfdLOAW
1g0vI5osE7RSy5QCU7Boo6ws9FULIwGGOHM9fb67jrH/5ycCAwEAAaOBojCBnzAJ
BgNVHRMEAjAAMB0GA1UdDgQWBBTqFdd7QpEfboKvI31i/hgKbn7v7zBRBgNVHSME
SjBIgBSAn2ztxPerTTNLtdP+aL5r3Jo4z6EapBgwFjEUMBIGA1UEAwwLdGVhbTY5
MS1uZXSCFD/OKMEa8ZKrtZOn8o/93oQfrJ61MBMGA1UdJQQMMAoGCCsGAQUFBwMC
MAsGA1UdDwQEAwIHgDANBgkqhkiG9w0BAQsFAAOCAQEAl/JxRkFAPbcP6aF0D8yM
jg86nr2dV6l2cEItyXXbpUxYY3gfLxpkaVlwNDlUPf8nXipCn4n4wCo7lFw7xIpc
Jy9Xeqyx58uNXiQ8l4daz7RHRKvm20nzlp3GYU1k/A1yzy77vGCHrYxoQ6XRhTBI
7EAXvF5LZaTLQelKyOU38G03FGXERUz/01BinoZJODQZPpr1qXB1V8O+ZOUMNe4S
kUZYwp5MaRoCLgjEmcVdKq/3EFBfs40lqwDQB54CvaM3nJD8sNCqba4k/uG8N3SA
vRhZ8nPXwvLhg872X4fzY5wMfkEt1f9Mo50mw/FtGatugRhSCYYBnCwWADYaUUX1
zA==
-----END CERTIFICATE-----
