Certificate:
    Data:
        Version: 3 (0x2)
        Serial Number:
            45:b4:bc:65:65:a2:a5:aa:9c:ff:81:9b:75:87:24:a3
        Signature Algorithm: sha256WithRSAEncryption
        Issuer: CN=team325-net
        Validity
            Not Before: Sep 13 01:43:47 2021 GMT
            Not After : Aug 28 01:43:47 2024 GMT
        Subject: CN=team325-server
        Subject Public Key Info:
            Public Key Algorithm: rsaEncryption
                RSA Public-Key: (2048 bit)
                Modulus:
                    00:de:e6:0f:4c:28:09:d0:5d:4d:98:e5:9a:a8:b5:
                    a6:54:5f:e1:3e:b2:9c:90:a4:a7:f4:00:1b:59:51:
                    84:fd:f3:e4:e0:7d:b8:15:cf:de:8c:23:c8:c6:d9:
                    20:f9:ec:d1:cd:4f:2f:fb:33:23:8c:66:a8:e3:3f:
                    d9:09:c6:f9:92:c9:f1:7f:38:02:58:09:1a:ac:8e:
                    45:23:12:c3:5d:13:cb:1c:bc:b2:64:83:df:13:a3:
                    6a:b9:49:30:1b:76:51:55:89:5d:69:a6:c0:c1:d1:
                    b1:d8:a1:ec:11:19:08:36:cb:75:6b:e9:57:58:39:
                    48:1c:62:05:a3:5b:67:6e:a5:f8:0c:6d:5a:e5:ec:
                    2f:e0:2c:1a:93:a6:96:58:3f:e3:79:8c:5e:9c:f6:
                    58:ef:5a:9e:4c:e2:72:73:f1:17:ee:6e:51:0f:04:
                    23:5c:50:7c:41:fc:3f:e8:99:5b:a7:45:69:60:af:
                    df:02:14:8d:21:e1:f6:82:0f:32:2d:00:a8:9c:93:
                    25:4c:d6:3f:be:96:31:da:6b:a1:3c:8a:16:27:86:
                    19:be:1b:f5:a7:39:c1:89:a1:5a:cd:67:e6:ef:dc:
                    a6:ee:e6:93:77:b7:96:72:76:8f:c3:f0:36:5a:3e:
                    3f:c4:ad:ed:c4:2a:ad:f0:d4:18:1d:cf:36:f0:94:
                    79:11
                Exponent: 65537 (0x10001)
        X509v3 extensions:
            X509v3 Basic Constraints: 
                CA:FALSE
            X509v3 Subject Key Identifier: 
                E4:44:90:CD:18:F6:56:7B:39:27:8C:32:E5:69:27:9F:6F:B3:7A:0E
            X509v3 Authority Key Identifier: 
                keyid:DD:48:F9:70:4D:B4:97:88:7A:E8:27:45:1A:77:2C:3D:CB:CC:DA:6B
                DirName:/CN=team325-net
                serial:36:49:44:06:62:17:CF:D3:88:0E:5F:0E:D6:8C:01:6A:0B:AE:0E:B4

            X509v3 Extended Key Usage: 
                TLS Web Server Authentication
            X509v3 Key Usage: 
                Digital Signature, Key Encipherment
            X509v3 Subject Alternative Name: 
                DNS:team325-server
    Signature Algorithm: sha256WithRSAEncryption
         2f:7d:61:9e:b9:8f:55:27:6d:37:eb:a0:f3:31:80:c1:ff:c1:
         5e:a2:22:38:90:e9:cd:9b:2a:6a:e3:29:88:af:cb:67:b4:86:
         ac:5e:65:c2:72:c9:6b:e7:b6:55:93:33:ff:ab:69:e2:b2:f7:
         06:6c:fe:b6:1b:50:07:14:9f:5b:4b:cd:6e:34:d0:de:70:98:
         84:c2:4e:20:3d:7b:a3:36:8e:bd:9d:6c:b5:5b:02:36:03:ae:
         40:95:24:dd:78:a3:5e:5c:d0:25:2d:58:20:6d:f4:48:7d:33:
         67:07:3b:14:32:33:f6:2d:32:8e:fa:4a:04:71:b1:33:af:93:
         cc:05:51:91:2e:d4:cb:85:ba:40:80:5d:9b:9e:9b:e3:44:30:
         15:28:2b:df:c5:39:f3:1b:d0:2c:57:67:d7:3f:7d:49:43:47:
         03:ef:1d:fd:4c:49:37:46:f6:48:be:db:55:62:01:31:2c:80:
         9c:cf:aa:a6:c1:51:bc:ba:6a:a9:9c:47:bd:ab:32:03:6a:2c:
         38:39:18:e3:09:8d:41:e6:0e:58:53:9c:f4:49:3d:7b:0d:f5:
         81:ab:f8:f3:7c:ed:61:5a:99:65:ae:0a:4e:22:24:c1:42:fa:
         48:bd:18:25:e1:3a:a8:cf:8b:cc:f1:88:80:64:a4:1d:75:f1:
         37:1d:f7:8a
-----BEGIN CERTIFICATE-----
MIIDdzCCAl+gAwIBAgIQRbS8ZWWipaqc/4GbdYckozANBgkqhkiG9w0BAQsFADAW
MRQwEgYDVQQDDAt0ZWFtMzI1LW5ldDAeFw0yMTA5MTMwMTQzNDdaFw0yNDA4Mjgw
MTQzNDdaMBkxFzAVBgNVBAMMDnRlYW0zMjUtc2VydmVyMIIBIjANBgkqhkiG9w0B
AQEFAAOCAQ8AMIIBCgKCAQEA3uYPTCgJ0F1NmOWaqLWmVF/hPrKckKSn9AAbWVGE
/fPk4H24Fc/ejCPIxtkg+ezRzU8v+zMjjGao4z/ZCcb5ksnxfzgCWAkarI5FIxLD
XRPLHLyyZIPfE6NquUkwG3ZRVYldaabAwdGx2KHsERkINst1a+lXWDlIHGIFo1tn
bqX4DG1a5ewv4Cwak6aWWD/jeYxenPZY71qeTOJyc/EX7m5RDwQjXFB8Qfw/6Jlb
p0VpYK/fAhSNIeH2gg8yLQConJMlTNY/vpYx2muhPIoWJ4YZvhv1pznBiaFazWfm
79ym7uaTd7eWcnaPw/A2Wj4/xK3txCqt8NQYHc828JR5EQIDAQABo4G9MIG6MAkG
A1UdEwQCMAAwHQYDVR0OBBYEFOREkM0Y9lZ7OSeMMuVpJ59vs3oOMFEGA1UdIwRK
MEiAFN1I+XBNtJeIeugnRRp3LD3LzNproRqkGDAWMRQwEgYDVQQDDAt0ZWFtMzI1
LW5ldIIUNklEBmIXz9OIDl8O1owBaguuDrQwEwYDVR0lBAwwCgYIKwYBBQUHAwEw
CwYDVR0PBAQDAgWgMBkGA1UdEQQSMBCCDnRlYW0zMjUtc2VydmVyMA0GCSqGSIb3
DQEBCwUAA4IBAQAvfWGeuY9VJ20366DzMYDB/8FeoiI4kOnNmypq4ymIr8tntIas
XmXCcslr57ZVkzP/q2nisvcGbP62G1AHFJ9bS81uNNDecJiEwk4gPXujNo69nWy1
WwI2A65AlSTdeKNeXNAlLVggbfRIfTNnBzsUMjP2LTKO+koEcbEzr5PMBVGRLtTL
hbpAgF2bnpvjRDAVKCvfxTnzG9AsV2fXP31JQ0cD7x39TEk3RvZIvttVYgExLICc
z6qmwVG8umqpnEe9qzIDaiw4ORjjCY1B5g5YU5z0ST17DfWBq/jzfO1hWpllrgpO
IiTBQvpIvRgl4Tqoz4vM8YiAZKQddfE3HfeK
-----END CERTIFICATE-----
