Certificate:
    Data:
        Version: 3 (0x2)
        Serial Number:
            85:0a:ef:6b:24:f0:a9:f2:fd:f2:c2:62:00:43:b7:04
        Signature Algorithm: sha256WithRSAEncryption
        Issuer: CN=team706-net
        Validity
            Not Before: Sep 13 05:25:31 2021 GMT
            Not After : Aug 28 05:25:31 2024 GMT
        Subject: CN=team706-server
        Subject Public Key Info:
            Public Key Algorithm: rsaEncryption
                RSA Public-Key: (2048 bit)
                Modulus:
                    00:a4:11:0c:5e:5d:0d:48:40:45:6b:64:f3:77:45:
                    0c:3b:f3:b9:10:48:7a:0a:7f:94:c8:b9:b5:5a:90:
                    cf:e0:a9:2b:ce:bf:4c:7d:8b:dc:92:49:29:1f:7d:
                    28:11:a9:18:9d:54:27:83:f8:03:7f:af:41:32:69:
                    e5:b9:38:cc:a9:0b:a4:f4:6a:b1:c0:ae:93:c8:19:
                    63:5c:c1:2e:f9:40:f7:6d:a5:74:73:67:d1:9b:6b:
                    33:4d:63:ca:f5:2e:f9:23:6b:ad:e0:8e:3c:a3:97:
                    00:a7:63:fa:fe:ed:3e:20:05:02:56:f2:b4:56:b3:
                    9f:8b:0b:f2:a8:99:1f:e5:16:6a:c4:f7:9d:49:92:
                    5a:e8:3d:1b:ba:d4:b0:5d:c7:a1:ae:5c:f4:ca:3d:
                    bf:1b:a4:90:a1:d1:00:10:38:fa:52:a5:1f:9a:f6:
                    12:54:84:d6:2d:dd:81:04:27:88:79:ed:a8:a6:23:
                    37:c0:a2:00:e5:9f:98:01:dc:ba:bf:c8:6d:39:35:
                    f5:84:8f:50:63:47:a7:58:89:1a:12:f7:61:0b:67:
                    6e:85:ff:ea:d6:3c:33:cd:2f:fb:26:32:f5:71:5a:
                    91:ca:c2:e5:2f:1c:e8:5e:ec:20:98:48:77:4c:f4:
                    63:c7:f8:cc:39:50:34:17:f3:fe:4e:76:17:44:3a:
                    48:ef
                Exponent: 65537 (0x10001)
        X509v3 extensions:
            X509v3 Basic Constraints: 
                CA:FALSE
            X509v3 Subject Key Identifier: 
                DF:1D:48:DA:EA:8D:EA:2F:81:33:A1:7E:0C:EA:E9:DA:2C:18:09:C8
            X509v3 Authority Key Identifier: 
                keyid:01:E6:4C:05:D1:5A:55:BA:B5:11:40:31:6D:D6:E7:48:13:2C:AB:DF
                DirName:/CN=team706-net
                serial:01:91:7A:01:54:80:89:64:B0:77:20:43:8E:3F:7C:12:49:FD:70:E2

            X509v3 Extended Key Usage: 
                TLS Web Server Authentication
            X509v3 Key Usage: 
                Digital Signature, Key Encipherment
            X509v3 Subject Alternative Name: 
                DNS:team706-server
    Signature Algorithm: sha256WithRSAEncryption
         ab:61:54:03:dc:2b:ad:af:d4:ab:d0:75:33:c3:14:e5:2e:41:
         d7:80:1a:e6:2e:eb:3e:f7:07:48:aa:2f:2e:90:66:16:2f:2e:
         42:fd:47:30:46:7d:cf:2a:76:ba:da:84:71:08:7b:6c:f7:71:
         76:1c:47:23:48:9b:67:03:a0:31:18:3f:82:d8:83:71:fa:90:
         cb:64:69:5c:fd:fb:cc:9e:16:81:36:7d:42:c8:81:26:b0:23:
         33:c6:13:ef:e7:b9:18:6e:8a:ec:5d:3a:5f:bb:55:0c:22:28:
         00:5b:9d:eb:a0:c5:ba:45:cf:11:30:60:ae:bd:c9:78:86:c9:
         c9:1e:c2:91:a3:b8:18:37:eb:ff:75:81:af:52:ec:a8:49:0e:
         a8:8a:7c:7b:fe:7e:6f:5b:89:d4:2f:ec:7f:e4:5e:d6:73:51:
         b2:70:52:f8:38:99:60:95:c5:42:95:e2:62:b3:06:50:cf:ec:
         96:b2:be:22:a8:99:54:9b:04:1a:40:70:85:6a:2d:ac:2a:e1:
         24:db:fd:ab:4b:f3:5f:13:8a:8a:5a:ac:a9:f6:96:41:f1:7d:
         a1:38:52:79:2b:5f:90:2b:5c:04:b6:95:a8:03:42:0b:31:d3:
         73:85:4c:da:bc:5c:df:75:c4:e4:77:3c:ea:27:da:3b:59:4a:
         e4:b6:d1:94
-----BEGIN CERTIFICATE-----
MIIDeDCCAmCgAwIBAgIRAIUK72sk8Kny/fLCYgBDtwQwDQYJKoZIhvcNAQELBQAw
FjEUMBIGA1UEAwwLdGVhbTcwNi1uZXQwHhcNMjEwOTEzMDUyNTMxWhcNMjQwODI4
MDUyNTMxWjAZMRcwFQYDVQQDDA50ZWFtNzA2LXNlcnZlcjCCASIwDQYJKoZIhvcN
AQEBBQADggEPADCCAQoCggEBAKQRDF5dDUhARWtk83dFDDvzuRBIegp/lMi5tVqQ
z+CpK86/TH2L3JJJKR99KBGpGJ1UJ4P4A3+vQTJp5bk4zKkLpPRqscCuk8gZY1zB
LvlA922ldHNn0ZtrM01jyvUu+SNrreCOPKOXAKdj+v7tPiAFAlbytFazn4sL8qiZ
H+UWasT3nUmSWug9G7rUsF3Hoa5c9Mo9vxukkKHRABA4+lKlH5r2ElSE1i3dgQQn
iHntqKYjN8CiAOWfmAHcur/IbTk19YSPUGNHp1iJGhL3YQtnboX/6tY8M80v+yYy
9XFakcrC5S8c6F7sIJhId0z0Y8f4zDlQNBfz/k52F0Q6SO8CAwEAAaOBvTCBujAJ
BgNVHRMEAjAAMB0GA1UdDgQWBBTfHUja6o3qL4EzoX4M6unaLBgJyDBRBgNVHSME
SjBIgBQB5kwF0VpVurURQDFt1udIEyyr36EapBgwFjEUMBIGA1UEAwwLdGVhbTcw
Ni1uZXSCFAGRegFUgIlksHcgQ44/fBJJ/XDiMBMGA1UdJQQMMAoGCCsGAQUFBwMB
MAsGA1UdDwQEAwIFoDAZBgNVHREEEjAQgg50ZWFtNzA2LXNlcnZlcjANBgkqhkiG
9w0BAQsFAAOCAQEAq2FUA9wrra/Uq9B1M8MU5S5B14Aa5i7rPvcHSKovLpBmFi8u
Qv1HMEZ9zyp2utqEcQh7bPdxdhxHI0ibZwOgMRg/gtiDcfqQy2RpXP37zJ4WgTZ9
QsiBJrAjM8YT7+e5GG6K7F06X7tVDCIoAFud66DFukXPETBgrr3JeIbJyR7CkaO4
GDfr/3WBr1LsqEkOqIp8e/5+b1uJ1C/sf+Re1nNRsnBS+DiZYJXFQpXiYrMGUM/s
lrK+IqiZVJsEGkBwhWotrCrhJNv9q0vzXxOKilqsqfaWQfF9oThSeStfkCtcBLaV
qANCCzHTc4VM2rxc33XE5Hc86ifaO1lK5LbRlA==
-----END CERTIFICATE-----
