Certificate:
    Data:
        Version: 3 (0x2)
        Serial Number:
            28:d0:1c:54:3a:a5:f7:21:ae:f6:10:f6:4a:f0:e3:6e
        Signature Algorithm: sha256WithRSAEncryption
        Issuer: CN=team537-net
        Validity
            Not Before: Sep 13 03:40:09 2021 GMT
            Not After : Aug 28 03:40:09 2024 GMT
        Subject: CN=team537-client
        Subject Public Key Info:
            Public Key Algorithm: rsaEncryption
                RSA Public-Key: (2048 bit)
                Modulus:
                    00:d8:f7:ed:e7:0b:db:8c:c2:48:4a:8f:94:19:c2:
                    af:2b:86:06:9c:08:f4:8f:96:d8:07:d3:0e:e8:c4:
                    1f:75:a4:93:71:bb:41:e3:2b:0c:02:d6:2f:a1:db:
                    eb:50:42:32:38:1b:a2:2a:00:19:2a:c7:51:42:d9:
                    5f:49:a7:84:35:24:db:64:4b:5e:f0:dd:86:6d:ee:
                    64:47:af:47:97:4f:f0:e3:bc:e4:a4:ac:db:f7:01:
                    23:4d:5f:f3:5a:5f:35:e0:e0:aa:95:eb:bf:68:01:
                    64:b6:95:e4:04:f6:55:b9:dc:51:d6:63:d5:f2:b6:
                    34:43:8d:77:7e:7d:96:ad:4a:fc:b3:27:e4:c6:8d:
                    f1:ca:b8:6a:3a:ed:47:cd:30:a5:94:e9:00:52:74:
                    b5:c8:59:ce:8f:a2:ba:24:f8:66:13:13:2f:2f:df:
                    ec:0c:ff:16:ce:25:f1:ec:23:e5:3a:17:fb:f1:84:
                    de:11:a8:f9:e1:98:da:ec:0f:cc:f7:00:6c:7d:f5:
                    b1:83:d7:a2:94:18:76:aa:cf:de:ca:3c:1c:ea:11:
                    1b:2a:de:6f:b9:28:30:97:f1:2b:5c:d1:45:21:8a:
                    f6:c1:52:85:03:42:8f:86:bf:e0:b8:6f:cc:22:24:
                    dd:10:6c:16:d6:e5:71:d9:9e:2e:e7:ff:18:59:51:
                    90:bd
                Exponent: 65537 (0x10001)
        X509v3 extensions:
            X509v3 Basic Constraints: 
                CA:FALSE
            X509v3 Subject Key Identifier: 
                E8:ED:F8:1A:63:1E:4F:82:19:9C:16:28:90:CE:70:D6:E1:9F:94:00
            X509v3 Authority Key Identifier: 
                keyid:9A:9A:26:FC:A6:BD:E9:54:B5:7F:CC:85:2E:E1:4D:1A:6F:60:FA:FE
                DirName:/CN=team537-net
                serial:28:AE:56:94:5A:B4:1E:70:FA:B4:0D:D4:7F:04:A2:6B:1C:5A:69:A9

            X509v3 Extended Key Usage: 
                TLS Web Client Authentication
            X509v3 Key Usage: 
                Digital Signature
    Signature Algorithm: sha256WithRSAEncryption
         42:84:02:db:d1:db:2f:e8:14:33:bb:97:c3:8c:4b:3b:1a:92:
         e0:3f:94:f5:1f:b0:a5:9c:0b:e0:2f:53:b5:10:5f:f2:38:a4:
         f9:dd:7a:ff:0f:4b:fb:ac:63:a4:28:60:93:f7:2f:8b:95:e0:
         93:fe:b6:2b:61:d0:8c:ea:5d:e4:f0:f0:4d:2d:80:52:f0:2b:
         20:0c:88:76:d7:f3:e2:9b:df:5b:ac:43:e6:f4:f5:51:79:49:
         76:6b:ff:8f:4e:f4:80:5d:2e:10:d7:ff:bb:d9:f4:24:9d:53:
         27:c6:33:96:f3:99:d1:fa:02:64:ba:6b:b8:21:f2:67:be:e8:
         bd:9d:d0:86:3e:fd:2c:21:0e:04:d3:56:ca:b5:91:e4:ff:6a:
         a2:94:03:d2:e2:d3:bb:1e:31:09:40:06:b8:d8:44:e8:03:de:
         70:06:32:ec:76:ce:79:af:94:47:46:c4:aa:3e:c4:6b:10:b7:
         1f:13:f7:36:55:a6:fb:37:ef:21:1a:41:d1:a6:c4:4f:cc:be:
         5d:e9:da:b4:79:0e:89:cc:e9:b1:ea:2b:39:da:e2:ab:6b:63:
         d6:c8:c3:13:9d:0d:d9:05:a0:fd:54:33:33:2f:6f:01:dc:bc:
         10:4b:09:30:50:ee:8b:be:f2:df:73:61:65:d0:67:f6:96:a8:
         0c:8b:c2:1d
-----BEGIN CERTIFICATE-----
MIIDXDCCAkSgAwIBAgIQKNAcVDql9yGu9hD2SvDjbjANBgkqhkiG9w0BAQsFADAW
MRQwEgYDVQQDDAt0ZWFtNTM3LW5ldDAeFw0yMTA5MTMwMzQwMDlaFw0yNDA4Mjgw
MzQwMDlaMBkxFzAVBgNVBAMMDnRlYW01MzctY2xpZW50MIIBIjANBgkqhkiG9w0B
AQEFAAOCAQ8AMIIBCgKCAQEA2Pft5wvbjMJISo+UGcKvK4YGnAj0j5bYB9MO6MQf
daSTcbtB4ysMAtYvodvrUEIyOBuiKgAZKsdRQtlfSaeENSTbZEte8N2Gbe5kR69H
l0/w47zkpKzb9wEjTV/zWl814OCqleu/aAFktpXkBPZVudxR1mPV8rY0Q413fn2W
rUr8syfkxo3xyrhqOu1HzTCllOkAUnS1yFnOj6K6JPhmExMvL9/sDP8WziXx7CPl
Ohf78YTeEaj54Zja7A/M9wBsffWxg9eilBh2qs/eyjwc6hEbKt5vuSgwl/ErXNFF
IYr2wVKFA0KPhr/guG/MIiTdEGwW1uVx2Z4u5/8YWVGQvQIDAQABo4GiMIGfMAkG
A1UdEwQCMAAwHQYDVR0OBBYEFOjt+BpjHk+CGZwWKJDOcNbhn5QAMFEGA1UdIwRK
MEiAFJqaJvymvelUtX/MhS7hTRpvYPr+oRqkGDAWMRQwEgYDVQQDDAt0ZWFtNTM3
LW5ldIIUKK5WlFq0HnD6tA3UfwSiaxxaaakwEwYDVR0lBAwwCgYIKwYBBQUHAwIw
CwYDVR0PBAQDAgeAMA0GCSqGSIb3DQEBCwUAA4IBAQBChALb0dsv6BQzu5fDjEs7
GpLgP5T1H7ClnAvgL1O1EF/yOKT53Xr/D0v7rGOkKGCT9y+LleCT/rYrYdCM6l3k
8PBNLYBS8CsgDIh21/Pim99brEPm9PVReUl2a/+PTvSAXS4Q1/+72fQknVMnxjOW
85nR+gJkumu4IfJnvui9ndCGPv0sIQ4E01bKtZHk/2qilAPS4tO7HjEJQAa42ETo
A95wBjLsds55r5RHRsSqPsRrELcfE/c2Vab7N+8hGkHRpsRPzL5d6dq0eQ6JzOmx
6is52uKra2PWyMMTnQ3ZBaD9VDMzL28B3LwQSwkwUO6LvvLfc2Fl0Gf2lqgMi8Id
-----END CERTIFICATE-----
