Certificate:
    Data:
        Version: 3 (0x2)
        Serial Number:
            0e:bf:04:8b:b0:ac:7c:7f:19:66:81:72:85:63:89:fb
        Signature Algorithm: sha256WithRSAEncryption
        Issuer: CN=team630-net
        Validity
            Not Before: Sep 13 04:14:46 2021 GMT
            Not After : Aug 28 04:14:46 2024 GMT
        Subject: CN=team630-server
        Subject Public Key Info:
            Public Key Algorithm: rsaEncryption
                RSA Public-Key: (2048 bit)
                Modulus:
                    00:eb:fd:a6:9d:6a:28:fe:ba:7f:fd:fe:1c:71:36:
                    33:b3:8f:95:9c:98:bf:d2:49:f3:9d:e0:71:9d:f2:
                    3e:70:10:c3:3c:32:66:20:66:7b:39:11:23:40:5f:
                    72:b6:75:5e:e7:87:d9:51:44:6f:8e:ce:42:0f:01:
                    98:a9:c0:4c:5b:46:79:30:2b:21:37:b1:f4:fa:66:
                    14:2b:9c:93:99:2b:5d:25:f2:ad:85:da:ab:71:1e:
                    fa:a4:14:62:dd:a5:ed:4f:04:d7:d3:44:fa:11:d9:
                    16:87:ac:af:d1:28:47:18:81:6a:78:82:86:8d:4f:
                    6d:b2:11:2b:70:41:6c:71:e9:b1:72:84:a8:6b:93:
                    20:ed:68:a2:2e:e1:f5:e1:d7:4b:7a:84:3c:c4:37:
                    a3:9f:df:ab:13:2e:aa:06:ed:7c:f2:72:3c:1d:57:
                    f7:d1:7b:2f:a9:d8:f6:a3:b1:f6:22:80:14:e7:62:
                    96:03:93:b2:5a:3e:b4:cf:97:71:ff:0f:3b:bd:f3:
                    29:5a:10:43:ca:ed:91:27:28:70:82:92:3c:17:3c:
                    78:85:e3:e3:56:c1:7e:75:3f:7b:5e:5e:3a:be:f5:
                    66:cc:1e:9f:75:71:31:fc:91:ed:cd:35:ee:9a:61:
                    31:ab:7a:9d:b5:70:7a:c3:c4:a6:17:4c:d5:65:2a:
                    0b:37
                Exponent: 65537 (0x10001)
        X509v3 extensions:
            X509v3 Basic Constraints: 
                CA:FALSE
            X509v3 Subject Key Identifier: 
                D3:96:C7:9F:F4:90:F9:02:1E:A4:61:26:13:8E:50:11:88:4F:88:AE
            X509v3 Authority Key Identifier: 
                keyid:3E:D0:CD:5E:28:8E:D3:FA:6D:FC:5D:B5:53:35:E9:08:24:2F:65:18
                DirName:/CN=team630-net
                serial:4B:E4:6D:45:FA:1D:D1:D7:0C:AE:BC:D2:24:57:2B:FF:78:EF:44:61

            X509v3 Extended Key Usage: 
                TLS Web Server Authentication
            X509v3 Key Usage: 
                Digital Signature, Key Encipherment
            X509v3 Subject Alternative Name: 
                DNS:team630-server
    Signature Algorithm: sha256WithRSAEncryption
         db:a3:bc:43:5a:f1:8c:55:17:8c:d1:07:f4:1c:c1:53:20:29:
         c9:3b:d7:1a:f0:48:b8:65:52:42:b5:a3:10:19:1d:03:85:1d:
         d3:69:a2:ab:1b:14:57:5b:58:47:4b:42:dc:99:43:68:f2:71:
         fe:6b:a8:9c:7d:02:37:dc:ee:a3:1a:8d:70:d9:0d:3e:9d:e3:
         e4:d1:36:08:85:1e:de:bb:82:b8:5a:02:11:a4:c4:bd:d7:a7:
         8c:f4:92:78:35:94:f0:86:83:11:71:82:b0:97:4c:25:09:8e:
         c2:2e:df:f6:5c:5e:79:62:dd:b9:f1:df:8c:b2:5d:3d:65:09:
         22:a1:06:97:79:35:4d:ba:c1:2d:58:e0:90:d6:76:21:2a:d4:
         89:01:21:52:1c:1d:48:b9:43:c3:d7:26:1a:83:e0:59:f7:19:
         9e:5e:08:10:50:6e:27:aa:6b:49:e0:1f:45:17:a6:a6:75:d8:
         d4:c1:b6:ed:82:75:48:9c:eb:78:5d:5f:18:f6:84:a0:63:b1:
         a2:7b:6a:6d:e4:9e:31:97:1b:a1:04:99:d7:85:21:49:e8:c6:
         52:ac:6a:86:cb:6c:b2:66:57:0f:56:fa:61:d3:ce:ea:17:65:
         e6:3b:95:1e:c4:20:2b:e2:28:d6:c4:19:4c:ac:c1:14:ce:31:
         bc:a0:2f:c9
-----BEGIN CERTIFICATE-----
MIIDdzCCAl+gAwIBAgIQDr8Ei7CsfH8ZZoFyhWOJ+zANBgkqhkiG9w0BAQsFADAW
MRQwEgYDVQQDDAt0ZWFtNjMwLW5ldDAeFw0yMTA5MTMwNDE0NDZaFw0yNDA4Mjgw
NDE0NDZaMBkxFzAVBgNVBAMMDnRlYW02MzAtc2VydmVyMIIBIjANBgkqhkiG9w0B
AQEFAAOCAQ8AMIIBCgKCAQEA6/2mnWoo/rp//f4ccTYzs4+VnJi/0knzneBxnfI+
cBDDPDJmIGZ7OREjQF9ytnVe54fZUURvjs5CDwGYqcBMW0Z5MCshN7H0+mYUK5yT
mStdJfKthdqrcR76pBRi3aXtTwTX00T6EdkWh6yv0ShHGIFqeIKGjU9tshErcEFs
cemxcoSoa5Mg7WiiLuH14ddLeoQ8xDejn9+rEy6qBu188nI8HVf30Xsvqdj2o7H2
IoAU52KWA5OyWj60z5dx/w87vfMpWhBDyu2RJyhwgpI8Fzx4hePjVsF+dT97Xl46
vvVmzB6fdXEx/JHtzTXummExq3qdtXB6w8SmF0zVZSoLNwIDAQABo4G9MIG6MAkG
A1UdEwQCMAAwHQYDVR0OBBYEFNOWx5/0kPkCHqRhJhOOUBGIT4iuMFEGA1UdIwRK
MEiAFD7QzV4ojtP6bfxdtVM16QgkL2UYoRqkGDAWMRQwEgYDVQQDDAt0ZWFtNjMw
LW5ldIIUS+RtRfod0dcMrrzSJFcr/3jvRGEwEwYDVR0lBAwwCgYIKwYBBQUHAwEw
CwYDVR0PBAQDAgWgMBkGA1UdEQQSMBCCDnRlYW02MzAtc2VydmVyMA0GCSqGSIb3
DQEBCwUAA4IBAQDbo7xDWvGMVReM0Qf0HMFTICnJO9ca8Ei4ZVJCtaMQGR0DhR3T
aaKrGxRXW1hHS0LcmUNo8nH+a6icfQI33O6jGo1w2Q0+nePk0TYIhR7eu4K4WgIR
pMS916eM9JJ4NZTwhoMRcYKwl0wlCY7CLt/2XF55Yt258d+Msl09ZQkioQaXeTVN
usEtWOCQ1nYhKtSJASFSHB1IuUPD1yYag+BZ9xmeXggQUG4nqmtJ4B9FF6amddjU
wbbtgnVInOt4XV8Y9oSgY7Gie2pt5J4xlxuhBJnXhSFJ6MZSrGqGy2yyZlcPVvph
087qF2XmO5UexCAr4ijWxBlMrMEUzjG8oC/J
-----END CERTIFICATE-----
