Certificate:
    Data:
        Version: 3 (0x2)
        Serial Number:
            83:89:a9:5e:b5:00:07:2a:fb:47:a0:d8:25:9c:cd:b7
        Signature Algorithm: sha256WithRSAEncryption
        Issuer: CN=team397-net
        Validity
            Not Before: Sep 13 02:16:18 2021 GMT
            Not After : Aug 28 02:16:18 2024 GMT
        Subject: CN=team397-server
        Subject Public Key Info:
            Public Key Algorithm: rsaEncryption
                RSA Public-Key: (2048 bit)
                Modulus:
                    00:9c:b4:92:f3:8a:9a:8b:f5:ba:9b:8b:9e:f1:bf:
                    3b:bb:8d:5f:26:80:1e:2f:1c:43:a2:0b:c5:b6:ab:
                    72:d7:f1:c6:c5:99:7e:79:b6:2c:9a:1f:f7:81:88:
                    9f:87:01:a7:cb:b2:2a:34:54:99:ce:3f:8c:61:4b:
                    20:90:ea:9f:e5:d9:b0:12:93:5b:32:40:cf:66:a1:
                    94:80:95:2c:a6:08:3b:9d:f6:4a:d2:85:c6:77:e5:
                    ff:87:82:5a:5a:53:b1:98:02:c9:67:7b:4b:ec:0c:
                    92:36:f3:7a:9e:6b:ac:04:1f:9f:b2:07:9e:3b:e3:
                    e4:8e:17:68:03:ad:02:7f:e6:67:e8:05:8f:a1:b3:
                    ed:d0:76:6c:74:32:d0:a7:4e:97:f0:30:f1:6b:7e:
                    03:a9:4c:e6:b7:22:6f:7b:26:26:05:84:33:dc:5f:
                    c2:19:5e:d3:0c:4a:93:16:69:14:66:05:67:4b:ae:
                    52:4e:53:2e:36:24:22:cf:69:75:99:a6:ff:39:b8:
                    39:1d:a7:4e:6c:5f:3d:3e:5d:22:7a:f6:c7:78:2c:
                    4a:f6:04:71:4f:46:2f:95:b4:1a:8b:b3:96:d4:27:
                    53:79:d5:83:08:12:b3:a4:26:cc:f1:0c:1d:0e:7d:
                    1a:b2:e4:9b:d2:b5:78:af:a4:b3:ea:95:f4:85:14:
                    14:cb
                Exponent: 65537 (0x10001)
        X509v3 extensions:
            X509v3 Basic Constraints: 
                CA:FALSE
            X509v3 Subject Key Identifier: 
                BC:B4:3B:6C:2F:17:AF:E7:4B:8D:28:58:2D:AC:7B:54:3C:FB:FB:C2
            X509v3 Authority Key Identifier: 
                keyid:EB:7F:30:4C:C6:45:8E:7B:3B:E3:61:29:F2:65:23:FF:DA:AE:8D:E1
                DirName:/CN=team397-net
                serial:4C:EF:62:8D:0B:39:1C:0A:0F:ED:29:A0:BA:2B:D2:19:43:B8:CF:C7

            X509v3 Extended Key Usage: 
                TLS Web Server Authentication
            X509v3 Key Usage: 
                Digital Signature, Key Encipherment
            X509v3 Subject Alternative Name: 
                DNS:team397-server
    Signature Algorithm: sha256WithRSAEncryption
         1e:0b:48:c6:ff:69:e1:82:62:7e:e8:2b:72:94:f3:8f:24:13:
         05:02:c8:08:d9:bc:7d:10:a2:0e:15:4d:05:c3:59:36:b4:47:
         e8:37:0b:52:2e:1a:e6:c6:c2:01:93:5a:48:ee:7a:7d:5d:9e:
         a0:7e:62:1a:f6:28:12:7b:be:a0:e0:b0:e9:50:5b:c1:72:09:
         2a:92:e9:cd:9f:46:14:9c:d7:de:73:e1:60:69:7e:9c:6e:40:
         88:81:64:9f:63:07:34:4f:7f:bb:99:7a:3a:2c:b1:4f:95:75:
         c3:59:bf:38:cd:84:3d:44:cd:09:87:bc:69:a8:84:14:fb:cc:
         d6:ba:cd:5d:d0:34:68:55:37:6d:17:18:03:28:9d:12:cc:d5:
         fb:4a:5e:e9:b1:bc:a9:68:96:87:f2:a8:6c:bd:6c:ec:3e:0c:
         cc:8a:c1:b8:69:9e:ff:52:7f:1c:20:6d:fd:32:da:69:94:59:
         00:02:45:f4:64:ae:75:6f:45:0f:db:c2:53:61:1a:69:4b:36:
         bb:f6:4b:e7:c4:b6:17:e3:e8:b5:e7:4f:d0:c7:69:19:f9:1a:
         8c:14:0d:c5:e9:09:bf:24:5f:43:69:4c:62:d0:92:99:66:69:
         87:9f:2e:01:da:e5:63:e3:f7:b5:9c:28:4a:38:71:9d:97:8c:
         e5:96:a6:0d
-----BEGIN CERTIFICATE-----
MIIDeDCCAmCgAwIBAgIRAIOJqV61AAcq+0eg2CWczbcwDQYJKoZIhvcNAQELBQAw
FjEUMBIGA1UEAwwLdGVhbTM5Ny1uZXQwHhcNMjEwOTEzMDIxNjE4WhcNMjQwODI4
MDIxNjE4WjAZMRcwFQYDVQQDDA50ZWFtMzk3LXNlcnZlcjCCASIwDQYJKoZIhvcN
AQEBBQADggEPADCCAQoCggEBAJy0kvOKmov1upuLnvG/O7uNXyaAHi8cQ6ILxbar
ctfxxsWZfnm2LJof94GIn4cBp8uyKjRUmc4/jGFLIJDqn+XZsBKTWzJAz2ahlICV
LKYIO532StKFxnfl/4eCWlpTsZgCyWd7S+wMkjbzep5rrAQfn7IHnjvj5I4XaAOt
An/mZ+gFj6Gz7dB2bHQy0KdOl/Aw8Wt+A6lM5rcib3smJgWEM9xfwhle0wxKkxZp
FGYFZ0uuUk5TLjYkIs9pdZmm/zm4OR2nTmxfPT5dInr2x3gsSvYEcU9GL5W0Gouz
ltQnU3nVgwgSs6QmzPEMHQ59GrLkm9K1eK+ks+qV9IUUFMsCAwEAAaOBvTCBujAJ
BgNVHRMEAjAAMB0GA1UdDgQWBBS8tDtsLxev50uNKFgtrHtUPPv7wjBRBgNVHSME
SjBIgBTrfzBMxkWOezvjYSnyZSP/2q6N4aEapBgwFjEUMBIGA1UEAwwLdGVhbTM5
Ny1uZXSCFEzvYo0LORwKD+0poLor0hlDuM/HMBMGA1UdJQQMMAoGCCsGAQUFBwMB
MAsGA1UdDwQEAwIFoDAZBgNVHREEEjAQgg50ZWFtMzk3LXNlcnZlcjANBgkqhkiG
9w0BAQsFAAOCAQEAHgtIxv9p4YJifugrcpTzjyQTBQLICNm8fRCiDhVNBcNZNrRH
6DcLUi4a5sbCAZNaSO56fV2eoH5iGvYoEnu+oOCw6VBbwXIJKpLpzZ9GFJzX3nPh
YGl+nG5AiIFkn2MHNE9/u5l6OiyxT5V1w1m/OM2EPUTNCYe8aaiEFPvM1rrNXdA0
aFU3bRcYAyidEszV+0pe6bG8qWiWh/KobL1s7D4MzIrBuGme/1J/HCBt/TLaaZRZ
AAJF9GSudW9FD9vCU2EaaUs2u/ZL58S2F+PotedP0MdpGfkajBQNxekJvyRfQ2lM
YtCSmWZph58uAdrlY+P3tZwoSjhxnZeM5ZamDQ==
-----END CERTIFICATE-----
