Certificate:
    Data:
        Version: 3 (0x2)
        Serial Number:
            b0:55:e6:9b:3e:7a:34:44:b5:96:37:cf:5e:a7:6b:9d
        Signature Algorithm: sha256WithRSAEncryption
        Issuer: CN=team537-net
        Validity
            Not Before: Sep 13 03:40:10 2021 GMT
            Not After : Aug 28 03:40:10 2024 GMT
        Subject: CN=team537-server
        Subject Public Key Info:
            Public Key Algorithm: rsaEncryption
                RSA Public-Key: (2048 bit)
                Modulus:
                    00:a6:07:0b:27:1d:2f:bf:70:f8:36:09:a9:8b:5a:
                    0a:66:82:b5:b6:6c:96:ee:28:1f:d1:07:b1:3b:ea:
                    17:af:9c:c4:ce:11:85:b0:af:8c:a1:b6:3d:f4:f2:
                    8a:90:94:18:47:ca:6e:34:38:45:7a:4e:d2:2a:b2:
                    08:f6:9f:ee:64:94:56:6e:ac:a4:66:d6:e4:2c:5b:
                    af:fb:c8:b0:6a:61:17:6a:9a:d1:de:95:c3:2c:a2:
                    d6:d0:cc:ad:79:06:ad:3f:fe:9e:05:15:8e:c3:90:
                    74:e0:ea:d6:6d:1c:28:b9:90:11:2f:74:8c:6e:0d:
                    d2:86:d5:96:db:0b:9f:8f:f1:a3:04:f0:40:8f:68:
                    02:65:12:95:ad:9e:bb:ff:41:d8:b3:ee:19:9a:f4:
                    91:f6:d8:f9:18:91:28:d3:0c:cf:80:41:c6:30:a9:
                    93:a8:84:a8:7a:94:ca:50:58:e2:f1:23:56:08:16:
                    54:a4:e9:d9:fd:c0:28:5f:5d:9a:32:8e:80:1c:53:
                    43:21:d2:a3:79:21:4f:ae:72:83:a4:da:c9:47:9f:
                    94:af:a9:11:3f:7f:d9:3f:d4:09:f5:a0:a4:5f:ac:
                    0b:cd:9b:5c:c1:1a:47:a2:c2:ac:a1:f5:b2:70:e6:
                    0e:9a:cc:41:c8:1e:c9:8e:30:a5:58:28:d0:7d:fa:
                    d3:9b
                Exponent: 65537 (0x10001)
        X509v3 extensions:
            X509v3 Basic Constraints: 
                CA:FALSE
            X509v3 Subject Key Identifier: 
                1E:5A:8D:60:D6:10:D4:01:42:A0:AF:8A:62:6F:06:1F:30:E1:94:C9
            X509v3 Authority Key Identifier: 
                keyid:9A:9A:26:FC:A6:BD:E9:54:B5:7F:CC:85:2E:E1:4D:1A:6F:60:FA:FE
                DirName:/CN=team537-net
                serial:28:AE:56:94:5A:B4:1E:70:FA:B4:0D:D4:7F:04:A2:6B:1C:5A:69:A9

            X509v3 Extended Key Usage: 
                TLS Web Server Authentication
            X509v3 Key Usage: 
                Digital Signature, Key Encipherment
            X509v3 Subject Alternative Name: 
                DNS:team537-server
    Signature Algorithm: sha256WithRSAEncryption
         ae:f4:4e:e5:ea:9a:0e:9e:0f:9f:9c:79:cd:df:8a:82:64:ff:
         77:87:12:28:c5:89:ee:24:9b:0c:82:4c:7f:20:27:a9:e9:7b:
         6c:a8:7e:07:98:84:bc:09:a1:c4:b6:8c:2a:a5:6d:4a:69:de:
         b4:2e:5a:f9:ea:0b:17:8d:39:05:ff:a7:85:73:6f:88:1a:d8:
         65:ae:ce:b9:56:76:6d:e5:9d:3e:2f:10:03:7c:07:74:c0:90:
         58:aa:5a:21:3b:f6:22:63:85:5b:69:a0:d6:bf:d4:db:f5:f5:
         73:c2:c2:e7:67:22:f9:2b:2d:c0:12:29:ab:04:1e:39:f0:cb:
         6b:f6:e0:bc:01:07:c2:fa:18:76:31:4f:67:66:c2:0d:a0:3e:
         7b:fd:7b:58:0a:76:08:e5:22:b1:0a:90:9b:5a:1a:db:62:28:
         75:ed:c2:d2:bc:47:92:33:4a:8c:71:3d:ed:44:5a:59:82:5c:
         c3:68:21:06:b0:e7:d9:66:31:6e:52:71:a0:7b:34:09:9e:11:
         4e:ce:e1:0e:c1:a8:e5:a0:3d:b7:6d:f4:aa:81:3c:99:9e:c5:
         f3:45:ed:9c:34:63:ec:b3:90:db:28:79:62:4a:1d:33:15:8c:
         41:61:90:95:00:20:fe:ba:ff:a3:23:d5:26:be:d2:fd:88:39:
         dc:94:fc:83
-----BEGIN CERTIFICATE-----
MIIDeDCCAmCgAwIBAgIRALBV5ps+ejREtZY3z16na50wDQYJKoZIhvcNAQELBQAw
FjEUMBIGA1UEAwwLdGVhbTUzNy1uZXQwHhcNMjEwOTEzMDM0MDEwWhcNMjQwODI4
MDM0MDEwWjAZMRcwFQYDVQQDDA50ZWFtNTM3LXNlcnZlcjCCASIwDQYJKoZIhvcN
AQEBBQADggEPADCCAQoCggEBAKYHCycdL79w+DYJqYtaCmaCtbZslu4oH9EHsTvq
F6+cxM4RhbCvjKG2PfTyipCUGEfKbjQ4RXpO0iqyCPaf7mSUVm6spGbW5Cxbr/vI
sGphF2qa0d6Vwyyi1tDMrXkGrT/+ngUVjsOQdODq1m0cKLmQES90jG4N0obVltsL
n4/xowTwQI9oAmUSla2eu/9B2LPuGZr0kfbY+RiRKNMMz4BBxjCpk6iEqHqUylBY
4vEjVggWVKTp2f3AKF9dmjKOgBxTQyHSo3khT65yg6TayUeflK+pET9/2T/UCfWg
pF+sC82bXMEaR6LCrKH1snDmDprMQcgeyY4wpVgo0H3605sCAwEAAaOBvTCBujAJ
BgNVHRMEAjAAMB0GA1UdDgQWBBQeWo1g1hDUAUKgr4pibwYfMOGUyTBRBgNVHSME
SjBIgBSamib8pr3pVLV/zIUu4U0ab2D6/qEapBgwFjEUMBIGA1UEAwwLdGVhbTUz
Ny1uZXSCFCiuVpRatB5w+rQN1H8EomscWmmpMBMGA1UdJQQMMAoGCCsGAQUFBwMB
MAsGA1UdDwQEAwIFoDAZBgNVHREEEjAQgg50ZWFtNTM3LXNlcnZlcjANBgkqhkiG
9w0BAQsFAAOCAQEArvRO5eqaDp4Pn5x5zd+KgmT/d4cSKMWJ7iSbDIJMfyAnqel7
bKh+B5iEvAmhxLaMKqVtSmnetC5a+eoLF405Bf+nhXNviBrYZa7OuVZ2beWdPi8Q
A3wHdMCQWKpaITv2ImOFW2mg1r/U2/X1c8LC52ci+SstwBIpqwQeOfDLa/bgvAEH
wvoYdjFPZ2bCDaA+e/17WAp2COUisQqQm1oa22Iode3C0rxHkjNKjHE97URaWYJc
w2ghBrDn2WYxblJxoHs0CZ4RTs7hDsGo5aA9t230qoE8mZ7F80XtnDRj7LOQ2yh5
YkodMxWMQWGQlQAg/rr/oyPVJr7S/Yg53JT8gw==
-----END CERTIFICATE-----
