Certificate:
    Data:
        Version: 3 (0x2)
        Serial Number:
            98:bf:45:30:bd:ba:07:1c:f3:88:d0:0e:2e:0c:85:36
        Signature Algorithm: sha256WithRSAEncryption
        Issuer: CN=team721-net
        Validity
            Not Before: Sep 13 04:59:01 2021 GMT
            Not After : Aug 28 04:59:01 2024 GMT
        Subject: CN=team721-server
        Subject Public Key Info:
            Public Key Algorithm: rsaEncryption
                RSA Public-Key: (2048 bit)
                Modulus:
                    00:d7:2f:1e:08:e4:bc:7d:c8:b8:89:31:60:01:a2:
                    73:43:fb:65:2b:09:e4:eb:1a:2c:2f:8f:63:51:88:
                    4a:68:24:0e:27:8d:f7:88:c2:16:2b:33:2f:92:d5:
                    b5:41:f0:9c:87:ee:f7:1d:bb:40:80:3a:54:3e:a7:
                    c7:e4:a7:24:92:3b:e1:16:0e:c1:cc:05:40:c8:cd:
                    fc:de:3f:e6:d8:64:f5:80:55:70:06:a0:64:10:6f:
                    e3:50:a1:67:2f:c3:2c:15:21:e4:5f:ec:dc:1d:e4:
                    1d:6f:3c:9a:c9:ad:cb:2c:1e:2d:8d:f5:99:bd:33:
                    5f:f7:5f:91:e6:8b:30:f9:9e:14:15:f3:d4:70:03:
                    ca:f3:48:1d:9c:fb:ac:12:4d:46:79:2e:15:9a:07:
                    aa:5e:ad:0d:ce:6b:b3:6d:8a:23:94:46:07:c8:8f:
                    f9:1e:ee:4d:9e:8a:ee:06:ce:b2:50:fb:16:1b:cc:
                    52:34:e8:af:39:77:fa:64:4d:21:a3:07:36:03:9c:
                    c1:b4:d1:7f:ce:88:c2:f9:d8:68:a7:f7:be:25:53:
                    bf:a2:9a:2d:c9:70:07:c8:ed:9c:3c:06:54:b3:ef:
                    84:5f:22:a1:7c:52:ce:09:68:20:a2:fb:66:66:a3:
                    2f:1a:7e:01:f9:f5:5d:73:0e:2e:71:4d:e6:aa:ab:
                    e5:41
                Exponent: 65537 (0x10001)
        X509v3 extensions:
            X509v3 Basic Constraints: 
                CA:FALSE
            X509v3 Subject Key Identifier: 
                D9:2D:2C:80:56:3D:89:2B:9C:6B:55:F7:81:98:D5:C0:A5:F8:77:1D
            X509v3 Authority Key Identifier: 
                keyid:6F:40:24:8D:DA:AD:6B:13:44:A1:DF:1F:74:A2:BA:95:76:4D:CE:B5
                DirName:/CN=team721-net
                serial:06:29:CD:2A:3A:1E:12:EA:98:F4:B3:8E:A8:76:1E:D5:90:17:03:00

            X509v3 Extended Key Usage: 
                TLS Web Server Authentication
            X509v3 Key Usage: 
                Digital Signature, Key Encipherment
            X509v3 Subject Alternative Name: 
                DNS:team721-server
    Signature Algorithm: sha256WithRSAEncryption
         3a:e3:c1:d5:83:63:7e:01:ac:1a:f8:11:e8:e9:da:e9:f1:64:
         0b:fe:62:a3:4b:3b:5a:8d:b4:87:f6:bf:2d:f3:35:5f:90:23:
         e3:58:4e:3d:86:91:6c:da:b0:59:59:36:88:f1:ac:89:40:76:
         09:45:aa:66:2b:1d:75:9c:00:43:24:3a:ca:42:e2:9e:ea:a6:
         2f:c1:c7:a0:bb:5a:09:2c:9d:14:d4:fd:e0:c2:8d:0c:e2:f5:
         41:17:25:0f:36:85:4f:aa:28:91:63:9d:aa:4e:dd:e2:75:f4:
         4b:2a:4a:d8:a0:52:a2:b3:0d:b1:fd:b7:b3:d7:39:84:69:31:
         84:68:cd:63:a2:ea:a8:e1:22:d3:f2:80:4d:f1:39:6a:73:41:
         d3:56:21:bc:30:f0:50:c2:1d:3a:46:ce:2a:a2:df:4d:1b:d2:
         50:56:1b:26:32:96:06:d3:21:b9:2d:c8:6d:c5:47:d2:32:f4:
         8b:33:71:8c:3a:a7:09:29:ca:fd:e8:94:66:68:05:62:32:a7:
         e3:be:39:9c:eb:69:13:16:43:c5:7a:d2:11:59:66:ef:e1:70:
         0f:cd:0a:84:e2:05:b7:7f:f9:79:55:24:d5:bd:7d:1a:a5:7a:
         89:f0:82:b3:ff:f4:22:fb:35:10:7d:16:da:5c:26:29:51:6f:
         7a:d8:f1:f8
-----BEGIN CERTIFICATE-----
MIIDeDCCAmCgAwIBAgIRAJi/RTC9ugcc84jQDi4MhTYwDQYJKoZIhvcNAQELBQAw
FjEUMBIGA1UEAwwLdGVhbTcyMS1uZXQwHhcNMjEwOTEzMDQ1OTAxWhcNMjQwODI4
MDQ1OTAxWjAZMRcwFQYDVQQDDA50ZWFtNzIxLXNlcnZlcjCCASIwDQYJKoZIhvcN
AQEBBQADggEPADCCAQoCggEBANcvHgjkvH3IuIkxYAGic0P7ZSsJ5OsaLC+PY1GI
SmgkDieN94jCFiszL5LVtUHwnIfu9x27QIA6VD6nx+SnJJI74RYOwcwFQMjN/N4/
5thk9YBVcAagZBBv41ChZy/DLBUh5F/s3B3kHW88msmtyyweLY31mb0zX/dfkeaL
MPmeFBXz1HADyvNIHZz7rBJNRnkuFZoHql6tDc5rs22KI5RGB8iP+R7uTZ6K7gbO
slD7FhvMUjTorzl3+mRNIaMHNgOcwbTRf86IwvnYaKf3viVTv6KaLclwB8jtnDwG
VLPvhF8ioXxSzgloIKL7ZmajLxp+Afn1XXMOLnFN5qqr5UECAwEAAaOBvTCBujAJ
BgNVHRMEAjAAMB0GA1UdDgQWBBTZLSyAVj2JK5xrVfeBmNXApfh3HTBRBgNVHSME
SjBIgBRvQCSN2q1rE0Sh3x90orqVdk3OtaEapBgwFjEUMBIGA1UEAwwLdGVhbTcy
MS1uZXSCFAYpzSo6HhLqmPSzjqh2HtWQFwMAMBMGA1UdJQQMMAoGCCsGAQUFBwMB
MAsGA1UdDwQEAwIFoDAZBgNVHREEEjAQgg50ZWFtNzIxLXNlcnZlcjANBgkqhkiG
9w0BAQsFAAOCAQEAOuPB1YNjfgGsGvgR6Ona6fFkC/5io0s7Wo20h/a/LfM1X5Aj
41hOPYaRbNqwWVk2iPGsiUB2CUWqZisddZwAQyQ6ykLinuqmL8HHoLtaCSydFNT9
4MKNDOL1QRclDzaFT6ookWOdqk7d4nX0SypK2KBSorMNsf23s9c5hGkxhGjNY6Lq
qOEi0/KATfE5anNB01YhvDDwUMIdOkbOKqLfTRvSUFYbJjKWBtMhuS3IbcVH0jL0
izNxjDqnCSnK/eiUZmgFYjKn4745nOtpExZDxXrSEVlm7+FwD80KhOIFt3/5eVUk
1b19GqV6ifCCs//0Ivs1EH0W2lwmKVFvetjx+A==
-----END CERTIFICATE-----
