Certificate:
    Data:
        Version: 3 (0x2)
        Serial Number:
            2e:c8:9f:0d:f0:c1:f8:6e:c3:35:cb:bf:bd:56:a2:e0
        Signature Algorithm: sha256WithRSAEncryption
        Issuer: CN=team602-net
        Validity
            Not Before: Sep 13 04:01:56 2021 GMT
            Not After : Aug 28 04:01:56 2024 GMT
        Subject: CN=team602-client
        Subject Public Key Info:
            Public Key Algorithm: rsaEncryption
                RSA Public-Key: (2048 bit)
                Modulus:
                    00:c4:05:b7:fb:24:3a:f2:a0:d5:1f:b0:48:55:a7:
                    d3:f4:06:1c:da:28:af:98:6f:22:51:a4:27:d6:2b:
                    cf:ce:a7:4c:97:93:f7:90:4b:1f:5f:ad:ef:bc:88:
                    d5:b0:c2:7b:a0:f8:53:c0:dc:dd:66:3a:65:08:90:
                    d4:be:82:33:8b:f3:17:86:bf:2e:2f:97:9e:a3:0a:
                    e9:2e:f0:32:3c:03:bd:73:bd:d0:c9:e6:eb:57:d4:
                    66:57:10:4b:70:a7:f4:b5:1f:03:9d:4e:24:20:19:
                    67:0c:f0:59:b5:bf:23:ac:d8:a1:ee:4a:25:cb:ad:
                    3a:29:5a:53:04:9d:96:b2:0d:e9:b2:5c:57:ca:f5:
                    0d:fd:b1:89:91:15:d5:56:ef:a5:9d:e8:c8:21:63:
                    af:5c:5f:41:6b:2d:ec:0b:1f:72:7d:75:7a:af:b1:
                    5f:f1:5a:ab:20:02:fc:7d:31:a8:4f:a9:b1:5a:2f:
                    e9:8f:2e:3a:5b:e1:0d:0c:59:22:0c:c9:d9:2f:8f:
                    ed:36:66:fd:ab:89:6b:ac:5a:22:66:d5:2c:bc:ed:
                    66:ff:0b:7e:4a:06:f3:3d:0e:52:58:04:5a:39:3a:
                    a0:a3:d3:59:16:bd:cc:80:1e:c1:d3:05:0d:95:0c:
                    b6:c4:20:15:e0:bc:ed:ca:74:d4:30:6b:dd:74:4f:
                    7d:41
                Exponent: 65537 (0x10001)
        X509v3 extensions:
            X509v3 Basic Constraints: 
                CA:FALSE
            X509v3 Subject Key Identifier: 
                4D:68:C5:32:9C:55:A0:A8:CD:8B:E8:E1:65:A6:89:B4:45:EC:DD:D1
            X509v3 Authority Key Identifier: 
                keyid:38:49:4A:33:98:7E:38:90:64:E9:7B:6A:76:FE:7A:08:FE:CB:C1:9A
                DirName:/CN=team602-net
                serial:55:01:B3:C4:3F:1C:41:05:0A:FB:EA:8B:4D:95:9A:18:AE:5A:EC:98

            X509v3 Extended Key Usage: 
                TLS Web Client Authentication
            X509v3 Key Usage: 
                Digital Signature
    Signature Algorithm: sha256WithRSAEncryption
         5f:3f:51:a0:94:a1:9b:c2:1c:ec:fe:55:54:63:3d:89:24:1c:
         60:13:5b:bb:87:e0:af:75:8e:4c:f1:00:7e:fb:c9:bb:12:9f:
         f6:72:19:b7:d0:8a:c6:28:9f:5f:c7:20:23:47:b3:13:3b:97:
         da:f6:86:ba:6b:3d:df:03:28:49:93:1c:57:60:84:95:33:37:
         62:ec:5b:00:97:25:92:92:62:33:25:42:d7:f4:b9:4d:4c:00:
         23:85:c2:fb:e8:80:c6:06:30:52:42:a2:ca:15:37:29:44:3d:
         ba:ab:0f:32:c3:30:1a:9b:a5:db:d3:92:03:1e:b3:8d:84:5e:
         9a:8e:1d:cf:5b:34:4f:df:81:16:0b:af:13:bf:0a:69:f6:aa:
         8e:ed:8a:62:23:0e:32:79:f7:b0:51:35:7d:a2:2b:5c:cc:17:
         ee:50:83:74:72:b3:1b:70:41:39:88:eb:38:4a:1b:fa:66:60:
         1b:56:2f:eb:fa:13:44:e0:9c:f6:b5:bb:ce:f9:76:78:a3:b2:
         c6:a3:16:9f:07:8f:cb:4c:69:3b:a2:fc:a7:01:fd:0a:56:81:
         ef:35:e4:16:75:d5:b5:12:fa:e5:33:7e:48:6f:aa:7f:de:18:
         d7:4a:24:5a:24:a0:41:41:f2:7a:54:be:25:82:66:38:3f:36:
         cb:8c:8a:73
-----BEGIN CERTIFICATE-----
MIIDXDCCAkSgAwIBAgIQLsifDfDB+G7DNcu/vVai4DANBgkqhkiG9w0BAQsFADAW
MRQwEgYDVQQDDAt0ZWFtNjAyLW5ldDAeFw0yMTA5MTMwNDAxNTZaFw0yNDA4Mjgw
NDAxNTZaMBkxFzAVBgNVBAMMDnRlYW02MDItY2xpZW50MIIBIjANBgkqhkiG9w0B
AQEFAAOCAQ8AMIIBCgKCAQEAxAW3+yQ68qDVH7BIVafT9AYc2iivmG8iUaQn1ivP
zqdMl5P3kEsfX63vvIjVsMJ7oPhTwNzdZjplCJDUvoIzi/MXhr8uL5eeowrpLvAy
PAO9c73QyebrV9RmVxBLcKf0tR8DnU4kIBlnDPBZtb8jrNih7koly606KVpTBJ2W
sg3pslxXyvUN/bGJkRXVVu+lnejIIWOvXF9Bay3sCx9yfXV6r7Ff8VqrIAL8fTGo
T6mxWi/pjy46W+ENDFkiDMnZL4/tNmb9q4lrrFoiZtUsvO1m/wt+SgbzPQ5SWARa
OTqgo9NZFr3MgB7B0wUNlQy2xCAV4LztynTUMGvddE99QQIDAQABo4GiMIGfMAkG
A1UdEwQCMAAwHQYDVR0OBBYEFE1oxTKcVaCozYvo4WWmibRF7N3RMFEGA1UdIwRK
MEiAFDhJSjOYfjiQZOl7anb+egj+y8GaoRqkGDAWMRQwEgYDVQQDDAt0ZWFtNjAy
LW5ldIIUVQGzxD8cQQUK++qLTZWaGK5a7JgwEwYDVR0lBAwwCgYIKwYBBQUHAwIw
CwYDVR0PBAQDAgeAMA0GCSqGSIb3DQEBCwUAA4IBAQBfP1GglKGbwhzs/lVUYz2J
JBxgE1u7h+CvdY5M8QB++8m7Ep/2chm30IrGKJ9fxyAjR7MTO5fa9oa6az3fAyhJ
kxxXYISVMzdi7FsAlyWSkmIzJULX9LlNTAAjhcL76IDGBjBSQqLKFTcpRD26qw8y
wzAam6Xb05IDHrONhF6ajh3PWzRP34EWC68Tvwpp9qqO7YpiIw4yefewUTV9oitc
zBfuUIN0crMbcEE5iOs4Shv6ZmAbVi/r+hNE4Jz2tbvO+XZ4o7LGoxafB4/LTGk7
ovynAf0KVoHvNeQWddW1EvrlM35Ib6p/3hjXSiRaJKBBQfJ6VL4lgmY4PzbLjIpz
-----END CERTIFICATE-----
