Certificate:
    Data:
        Version: 3 (0x2)
        Serial Number:
            96:24:20:c0:b5:9e:c8:f3:b9:56:57:1f:9d:30:1d:4d
        Signature Algorithm: sha256WithRSAEncryption
        Issuer: CN=team602-net
        Validity
            Not Before: Sep 13 04:01:56 2021 GMT
            Not After : Aug 28 04:01:56 2024 GMT
        Subject: CN=team602-server
        Subject Public Key Info:
            Public Key Algorithm: rsaEncryption
                RSA Public-Key: (2048 bit)
                Modulus:
                    00:cc:6e:9c:8d:c3:23:02:06:21:ef:64:25:7f:0d:
                    7a:92:a7:f1:a6:2d:cc:b6:bd:ad:3e:c8:2e:39:34:
                    1f:fc:37:b7:bd:29:1f:5a:c2:7d:57:d7:41:2b:97:
                    d9:ad:44:db:a6:f2:c2:2e:0e:5c:8e:60:fd:64:60:
                    e3:8c:85:69:1d:96:94:ae:80:c4:53:52:7a:d6:d6:
                    8a:46:d3:6f:1a:0f:80:95:7f:e5:08:6a:cf:72:86:
                    e7:83:63:d6:53:12:b4:23:0a:fa:e4:aa:c2:5d:e0:
                    5f:ba:24:a5:36:a2:90:8e:d1:05:cc:f9:2c:da:1c:
                    5d:4e:6c:9e:5a:eb:72:a6:49:45:48:be:20:af:67:
                    2a:d3:48:0b:8d:09:04:40:e7:c5:03:40:c4:d0:bb:
                    6c:26:b4:e8:b9:9d:62:2a:33:cc:22:32:c4:b0:1c:
                    fd:50:43:e3:3d:96:cd:a2:27:9c:fb:33:1d:78:24:
                    37:6f:aa:82:2a:4d:fb:97:49:4f:70:2c:54:58:28:
                    cf:a2:69:0f:cf:3d:1c:38:46:75:9b:c7:fa:9b:df:
                    66:fd:5e:33:fe:ed:54:1a:61:35:40:15:5c:98:70:
                    36:e2:ac:70:52:92:7e:ee:ce:57:88:2c:6f:5e:6e:
                    1a:c2:a1:69:db:0f:e0:30:c8:b3:ad:e9:23:5c:9a:
                    62:97
                Exponent: 65537 (0x10001)
        X509v3 extensions:
            X509v3 Basic Constraints: 
                CA:FALSE
            X509v3 Subject Key Identifier: 
                72:2F:E3:2F:1D:09:C0:48:E4:E9:67:06:46:F5:43:DE:2A:71:70:4A
            X509v3 Authority Key Identifier: 
                keyid:38:49:4A:33:98:7E:38:90:64:E9:7B:6A:76:FE:7A:08:FE:CB:C1:9A
                DirName:/CN=team602-net
                serial:55:01:B3:C4:3F:1C:41:05:0A:FB:EA:8B:4D:95:9A:18:AE:5A:EC:98

            X509v3 Extended Key Usage: 
                TLS Web Server Authentication
            X509v3 Key Usage: 
                Digital Signature, Key Encipherment
            X509v3 Subject Alternative Name: 
                DNS:team602-server
    Signature Algorithm: sha256WithRSAEncryption
         12:62:22:49:55:e8:70:1b:43:40:46:52:08:b7:4e:43:06:05:
         d7:48:82:44:21:ed:e8:fe:a5:e5:06:82:fc:fa:c3:ea:b8:39:
         a3:8a:98:10:44:e4:31:b4:96:ee:8d:d6:c0:1e:74:15:be:82:
         c9:2e:9a:64:ec:58:6e:ec:3c:e4:17:5b:67:5d:68:23:53:1f:
         e5:28:dd:aa:ff:16:9d:f7:b6:97:ce:5c:2b:14:cd:57:20:e2:
         ab:30:09:ba:0a:44:7b:f3:c4:db:22:54:84:25:1a:e4:63:3b:
         92:3f:f9:12:27:c1:4e:b4:f9:e1:34:f9:df:7d:71:7a:3e:d6:
         3f:69:52:b1:4e:4d:5b:a7:1a:40:20:ff:a0:1e:f8:05:31:66:
         f5:7c:24:62:45:8a:fc:6e:05:37:4c:47:dc:23:00:3c:20:15:
         32:cc:7c:34:f1:87:5b:ac:92:0a:88:18:a9:d4:fe:c9:a6:e3:
         43:bc:c7:47:3b:62:0b:60:47:77:d2:3a:17:ff:81:aa:d1:f0:
         c5:6b:19:39:cd:5c:c7:c8:11:e4:32:fa:a3:22:38:54:db:67:
         43:34:8f:66:99:49:c6:b7:1e:39:80:60:f2:32:cf:ec:35:0d:
         a7:b5:cf:10:7a:e7:6b:4a:71:67:18:bc:e0:9b:94:64:7b:82:
         41:a4:39:c7
-----BEGIN CERTIFICATE-----
MIIDeDCCAmCgAwIBAgIRAJYkIMC1nsjzuVZXH50wHU0wDQYJKoZIhvcNAQELBQAw
FjEUMBIGA1UEAwwLdGVhbTYwMi1uZXQwHhcNMjEwOTEzMDQwMTU2WhcNMjQwODI4
MDQwMTU2WjAZMRcwFQYDVQQDDA50ZWFtNjAyLXNlcnZlcjCCASIwDQYJKoZIhvcN
AQEBBQADggEPADCCAQoCggEBAMxunI3DIwIGIe9kJX8NepKn8aYtzLa9rT7ILjk0
H/w3t70pH1rCfVfXQSuX2a1E26bywi4OXI5g/WRg44yFaR2WlK6AxFNSetbWikbT
bxoPgJV/5Qhqz3KG54Nj1lMStCMK+uSqwl3gX7okpTaikI7RBcz5LNocXU5snlrr
cqZJRUi+IK9nKtNIC40JBEDnxQNAxNC7bCa06LmdYiozzCIyxLAc/VBD4z2WzaIn
nPszHXgkN2+qgipN+5dJT3AsVFgoz6JpD889HDhGdZvH+pvfZv1eM/7tVBphNUAV
XJhwNuKscFKSfu7OV4gsb15uGsKhadsP4DDIs63pI1yaYpcCAwEAAaOBvTCBujAJ
BgNVHRMEAjAAMB0GA1UdDgQWBBRyL+MvHQnASOTpZwZG9UPeKnFwSjBRBgNVHSME
SjBIgBQ4SUozmH44kGTpe2p2/noI/svBmqEapBgwFjEUMBIGA1UEAwwLdGVhbTYw
Mi1uZXSCFFUBs8Q/HEEFCvvqi02VmhiuWuyYMBMGA1UdJQQMMAoGCCsGAQUFBwMB
MAsGA1UdDwQEAwIFoDAZBgNVHREEEjAQgg50ZWFtNjAyLXNlcnZlcjANBgkqhkiG
9w0BAQsFAAOCAQEAEmIiSVXocBtDQEZSCLdOQwYF10iCRCHt6P6l5QaC/PrD6rg5
o4qYEETkMbSW7o3WwB50Fb6CyS6aZOxYbuw85BdbZ11oI1Mf5Sjdqv8Wnfe2l85c
KxTNVyDiqzAJugpEe/PE2yJUhCUa5GM7kj/5EifBTrT54TT5331xej7WP2lSsU5N
W6caQCD/oB74BTFm9XwkYkWK/G4FN0xH3CMAPCAVMsx8NPGHW6ySCogYqdT+yabj
Q7zHRztiC2BHd9I6F/+BqtHwxWsZOc1cx8gR5DL6oyI4VNtnQzSPZplJxrceOYBg
8jLP7DUNp7XPEHrna0pxZxi84JuUZHuCQaQ5xw==
-----END CERTIFICATE-----
