Certificate:
    Data:
        Version: 3 (0x2)
        Serial Number:
            78:c6:4f:19:f0:e7:03:d4:b7:5a:cd:46:1e:46:ee:47
        Signature Algorithm: sha256WithRSAEncryption
        Issuer: CN=team628-net
        Validity
            Not Before: Sep 13 04:12:49 2021 GMT
            Not After : Aug 28 04:12:49 2024 GMT
        Subject: CN=team628-server
        Subject Public Key Info:
            Public Key Algorithm: rsaEncryption
                RSA Public-Key: (2048 bit)
                Modulus:
                    00:c4:f8:4a:e2:35:7a:ce:fb:a2:28:cd:fd:c4:a1:
                    96:75:f6:41:06:c8:c3:97:c3:46:ec:60:1b:3e:4a:
                    26:40:f5:80:a1:3d:a9:23:5a:90:50:de:d2:6f:06:
                    ac:18:36:ce:a4:a5:8b:2e:2f:85:84:14:71:37:a6:
                    ee:0b:2e:b9:7a:97:b6:18:e5:2c:2d:89:78:e9:0c:
                    ec:29:6a:fa:88:a5:2f:f8:50:af:8d:25:99:a0:7a:
                    88:31:83:38:8d:74:77:f4:cf:6b:a8:e0:07:b7:fa:
                    61:cf:db:15:ef:12:fd:19:8b:0d:b8:3d:20:64:22:
                    61:79:9f:ca:9e:96:b9:0f:93:e4:0b:c3:47:bd:03:
                    5e:d2:8b:1b:a2:46:01:f9:fe:ae:89:24:4e:4a:37:
                    db:7d:48:5b:42:51:f5:ed:47:82:f2:d6:3a:fe:ef:
                    23:3c:ac:c0:1c:14:6b:be:64:8d:65:4c:c8:73:af:
                    f6:1a:cf:8e:7a:79:37:b0:65:ed:c8:73:c8:04:98:
                    4d:50:3e:28:ef:69:0c:59:dc:81:7a:f4:f5:dd:d6:
                    e4:76:5f:d4:cd:6a:4a:55:8c:3f:be:3f:c7:71:78:
                    6a:84:12:72:a1:4c:0b:05:a0:ea:04:43:76:5b:f3:
                    3b:60:bf:ea:b1:1e:31:3c:f2:6c:1c:9a:8b:ee:8d:
                    90:dd
                Exponent: 65537 (0x10001)
        X509v3 extensions:
            X509v3 Basic Constraints: 
                CA:FALSE
            X509v3 Subject Key Identifier: 
                1A:4E:77:FF:E1:B0:90:0F:03:83:38:51:1E:CB:91:9C:5D:9F:77:E9
            X509v3 Authority Key Identifier: 
                keyid:35:AA:4E:DD:9B:E0:24:79:5F:58:28:19:19:F7:50:FE:CA:4D:7B:2F
                DirName:/CN=team628-net
                serial:28:32:C9:CE:F0:6C:37:8E:B6:AC:59:A7:4D:F8:84:FE:E0:0F:D4:6A

            X509v3 Extended Key Usage: 
                TLS Web Server Authentication
            X509v3 Key Usage: 
                Digital Signature, Key Encipherment
            X509v3 Subject Alternative Name: 
                DNS:team628-server
    Signature Algorithm: sha256WithRSAEncryption
         5d:ee:94:de:46:2f:38:9f:7c:1a:64:8a:4a:d5:16:f6:c4:3f:
         ec:7a:d9:2b:89:ad:b1:6e:e3:2c:23:23:89:16:57:a2:55:5a:
         52:5e:05:06:bc:57:10:23:62:7d:a5:4d:4b:c7:87:37:f0:e7:
         04:74:98:8d:6e:40:b6:c0:a3:e4:9c:5e:53:dc:34:01:13:55:
         52:58:f6:20:f9:1b:79:38:c0:c6:55:13:51:ae:9d:e9:8d:b3:
         eb:b5:2c:14:bd:6a:46:90:7c:48:f7:81:31:40:fa:fc:4f:b8:
         a1:12:a8:15:a3:c0:a3:12:45:bb:b4:dc:d2:44:bc:ed:e0:e5:
         fd:78:25:62:2e:a1:19:35:98:34:27:28:5b:a5:58:26:2d:b4:
         9c:b7:9d:f4:0a:b9:3b:e1:a8:0d:7b:8b:a2:05:63:ec:1e:97:
         84:3e:6b:58:9a:65:c6:5b:09:34:9d:62:3b:e5:69:df:6f:5b:
         8e:bd:df:80:8c:0e:54:a2:1b:eb:2a:fb:e5:07:59:74:0d:c3:
         f9:52:32:44:d5:3f:87:b6:86:63:f9:96:29:d2:80:d9:b1:48:
         e1:a7:c0:a8:d7:6b:cb:37:c2:82:b8:5c:99:0a:48:8e:36:d5:
         5b:7c:82:fa:a5:97:dc:68:e6:92:02:70:b3:37:40:a9:be:a4:
         c9:11:08:79
-----BEGIN CERTIFICATE-----
MIIDdzCCAl+gAwIBAgIQeMZPGfDnA9S3Ws1GHkbuRzANBgkqhkiG9w0BAQsFADAW
MRQwEgYDVQQDDAt0ZWFtNjI4LW5ldDAeFw0yMTA5MTMwNDEyNDlaFw0yNDA4Mjgw
NDEyNDlaMBkxFzAVBgNVBAMMDnRlYW02Mjgtc2VydmVyMIIBIjANBgkqhkiG9w0B
AQEFAAOCAQ8AMIIBCgKCAQEAxPhK4jV6zvuiKM39xKGWdfZBBsjDl8NG7GAbPkom
QPWAoT2pI1qQUN7SbwasGDbOpKWLLi+FhBRxN6buCy65epe2GOUsLYl46QzsKWr6
iKUv+FCvjSWZoHqIMYM4jXR39M9rqOAHt/phz9sV7xL9GYsNuD0gZCJheZ/Knpa5
D5PkC8NHvQNe0osbokYB+f6uiSROSjfbfUhbQlH17UeC8tY6/u8jPKzAHBRrvmSN
ZUzIc6/2Gs+Oenk3sGXtyHPIBJhNUD4o72kMWdyBevT13dbkdl/UzWpKVYw/vj/H
cXhqhBJyoUwLBaDqBEN2W/M7YL/qsR4xPPJsHJqL7o2Q3QIDAQABo4G9MIG6MAkG
A1UdEwQCMAAwHQYDVR0OBBYEFBpOd//hsJAPA4M4UR7LkZxdn3fpMFEGA1UdIwRK
MEiAFDWqTt2b4CR5X1goGRn3UP7KTXsvoRqkGDAWMRQwEgYDVQQDDAt0ZWFtNjI4
LW5ldIIUKDLJzvBsN462rFmnTfiE/uAP1GowEwYDVR0lBAwwCgYIKwYBBQUHAwEw
CwYDVR0PBAQDAgWgMBkGA1UdEQQSMBCCDnRlYW02Mjgtc2VydmVyMA0GCSqGSIb3
DQEBCwUAA4IBAQBd7pTeRi84n3waZIpK1Rb2xD/setkria2xbuMsIyOJFleiVVpS
XgUGvFcQI2J9pU1Lx4c38OcEdJiNbkC2wKPknF5T3DQBE1VSWPYg+Rt5OMDGVRNR
rp3pjbPrtSwUvWpGkHxI94ExQPr8T7ihEqgVo8CjEkW7tNzSRLzt4OX9eCViLqEZ
NZg0JyhbpVgmLbSct530Crk74agNe4uiBWPsHpeEPmtYmmXGWwk0nWI75Wnfb1uO
vd+AjA5UohvrKvvlB1l0DcP5UjJE1T+HtoZj+ZYp0oDZsUjhp8Co12vLN8KCuFyZ
CkiONtVbfIL6pZfcaOaSAnCzN0CpvqTJEQh5
-----END CERTIFICATE-----
