Certificate:
    Data:
        Version: 3 (0x2)
        Serial Number:
            ab:de:43:34:24:fb:df:79:a8:87:4b:66:ef:72:e3:f6
        Signature Algorithm: sha256WithRSAEncryption
        Issuer: CN=team511-net
        Validity
            Not Before: Sep 13 03:11:10 2021 GMT
            Not After : Aug 28 03:11:10 2024 GMT
        Subject: CN=team511-client
        Subject Public Key Info:
            Public Key Algorithm: rsaEncryption
                RSA Public-Key: (2048 bit)
                Modulus:
                    00:c0:c3:27:05:7f:99:91:d7:4c:82:fb:ca:13:5c:
                    db:9c:46:e5:0c:60:6f:54:34:8d:dc:a1:9c:a8:aa:
                    05:66:19:7d:69:52:c0:ac:6f:bb:7d:e0:1e:93:1e:
                    d3:85:5a:0f:9b:7d:f4:c0:0b:88:40:c3:ec:e2:f9:
                    ab:bb:a6:4b:55:c9:74:e3:c0:2d:30:0c:7c:d5:f0:
                    47:fe:5f:09:01:22:14:75:2c:60:f3:10:54:c7:bd:
                    30:f0:32:47:be:d8:64:54:b7:42:94:ae:ff:f8:77:
                    4d:49:d7:5f:fb:c3:f0:8e:af:91:52:2b:0a:29:c2:
                    fe:4a:ab:b9:08:2b:99:77:39:36:45:66:61:19:4b:
                    8e:6b:cc:6c:1a:c8:3a:ca:94:e1:c8:b7:37:66:d7:
                    66:51:f1:ef:94:8f:50:98:03:5f:ae:16:08:58:f9:
                    44:6a:6e:68:e4:52:f7:55:7b:e5:29:b5:27:05:5a:
                    19:2e:08:e8:29:b3:6a:f8:f7:e4:f3:ec:91:43:bd:
                    01:ee:42:73:57:63:c6:61:ba:36:73:76:e0:84:59:
                    f5:40:97:68:b2:96:90:ff:7f:67:b4:ad:80:dd:fc:
                    6d:25:6a:c3:43:d6:eb:65:64:3d:1b:b9:1f:99:8a:
                    b4:d4:5e:7d:fc:b7:9a:e1:56:bf:a6:f1:2c:01:9d:
                    4b:a1
                Exponent: 65537 (0x10001)
        X509v3 extensions:
            X509v3 Basic Constraints: 
                CA:FALSE
            X509v3 Subject Key Identifier: 
                92:CF:B9:98:DB:31:A0:4D:E7:5C:4B:2C:11:26:33:44:64:D4:6D:16
            X509v3 Authority Key Identifier: 
                keyid:BD:BE:09:3B:4E:C5:AA:F8:8D:63:FC:C7:B2:59:0C:A6:CE:4D:D4:A9
                DirName:/CN=team511-net
                serial:78:E5:7C:4B:53:8B:62:49:B0:B4:C4:3C:F5:3F:FD:AB:FD:DB:D3:A8

            X509v3 Extended Key Usage: 
                TLS Web Client Authentication
            X509v3 Key Usage: 
                Digital Signature
    Signature Algorithm: sha256WithRSAEncryption
         65:c0:a0:9c:f5:60:ff:8f:3f:67:f7:a9:92:0f:9e:fb:b4:cd:
         21:78:46:e9:21:ca:be:27:7c:fb:91:2e:cf:89:b0:5a:f4:f1:
         66:d6:3b:31:ee:44:a1:0f:a3:5f:98:7b:2f:c7:1f:56:e5:ce:
         b8:d5:7b:bb:42:fd:02:8e:21:9d:00:3f:85:e8:46:9b:7a:90:
         a8:ab:d6:c6:6a:85:9f:36:b4:c2:53:a8:0c:34:c5:ae:84:38:
         57:aa:8d:23:7b:a4:3e:47:7b:28:64:b6:ca:a5:12:17:2e:a1:
         f9:5a:b3:4a:5a:1b:fc:85:28:5b:f9:32:5e:20:87:f8:ef:24:
         95:50:b0:a9:6a:fa:ee:92:0d:40:45:77:4d:81:91:7f:66:6b:
         11:fd:70:93:65:5f:d7:6a:aa:8b:b2:e5:60:50:9c:1b:6e:dd:
         58:85:62:4b:32:a1:9e:9c:76:e0:7e:ce:51:04:d1:eb:12:ec:
         07:35:ff:85:19:26:12:65:e3:88:f5:09:b2:92:31:e4:55:14:
         fe:da:d4:50:c2:fe:19:3f:59:59:1b:e8:0e:14:52:38:ab:cb:
         5e:ad:3c:ad:10:84:bb:36:14:67:07:1e:0c:ee:e6:1a:dc:e5:
         f3:5a:c6:49:43:a1:bb:33:08:a0:dd:5a:57:40:19:5f:76:a4:
         26:f8:8d:a0
-----BEGIN CERTIFICATE-----
MIIDXTCCAkWgAwIBAgIRAKveQzQk+995qIdLZu9y4/YwDQYJKoZIhvcNAQELBQAw
FjEUMBIGA1UEAwwLdGVhbTUxMS1uZXQwHhcNMjEwOTEzMDMxMTEwWhcNMjQwODI4
MDMxMTEwWjAZMRcwFQYDVQQDDA50ZWFtNTExLWNsaWVudDCCASIwDQYJKoZIhvcN
AQEBBQADggEPADCCAQoCggEBAMDDJwV/mZHXTIL7yhNc25xG5Qxgb1Q0jdyhnKiq
BWYZfWlSwKxvu33gHpMe04VaD5t99MALiEDD7OL5q7umS1XJdOPALTAMfNXwR/5f
CQEiFHUsYPMQVMe9MPAyR77YZFS3QpSu//h3TUnXX/vD8I6vkVIrCinC/kqruQgr
mXc5NkVmYRlLjmvMbBrIOsqU4ci3N2bXZlHx75SPUJgDX64WCFj5RGpuaORS91V7
5Sm1JwVaGS4I6Cmzavj35PPskUO9Ae5Cc1djxmG6NnN24IRZ9UCXaLKWkP9/Z7St
gN38bSVqw0PW62VkPRu5H5mKtNReffy3muFWv6bxLAGdS6ECAwEAAaOBojCBnzAJ
BgNVHRMEAjAAMB0GA1UdDgQWBBSSz7mY2zGgTedcSywRJjNEZNRtFjBRBgNVHSME
SjBIgBS9vgk7TsWq+I1j/MeyWQymzk3UqaEapBgwFjEUMBIGA1UEAwwLdGVhbTUx
MS1uZXSCFHjlfEtTi2JJsLTEPPU//av929OoMBMGA1UdJQQMMAoGCCsGAQUFBwMC
MAsGA1UdDwQEAwIHgDANBgkqhkiG9w0BAQsFAAOCAQEAZcCgnPVg/48/Z/epkg+e
+7TNIXhG6SHKvid8+5Euz4mwWvTxZtY7Me5EoQ+jX5h7L8cfVuXOuNV7u0L9Ao4h
nQA/hehGm3qQqKvWxmqFnza0wlOoDDTFroQ4V6qNI3ukPkd7KGS2yqUSFy6h+Vqz
Slob/IUoW/kyXiCH+O8klVCwqWr67pINQEV3TYGRf2ZrEf1wk2Vf12qqi7LlYFCc
G27dWIViSzKhnpx24H7OUQTR6xLsBzX/hRkmEmXjiPUJspIx5FUU/trUUML+GT9Z
WRvoDhRSOKvLXq08rRCEuzYUZwceDO7mGtzl81rGSUOhuzMIoN1aV0AZX3akJviN
oA==
-----END CERTIFICATE-----
