Certificate:
    Data:
        Version: 3 (0x2)
        Serial Number:
            ab:aa:05:0b:59:fc:d4:fe:4e:0d:86:f9:98:ac:32:5d
        Signature Algorithm: sha256WithRSAEncryption
        Issuer: CN=team102-net
        Validity
            Not Before: Sep 12 23:36:01 2021 GMT
            Not After : Aug 27 23:36:01 2024 GMT
        Subject: CN=team102-client
        Subject Public Key Info:
            Public Key Algorithm: rsaEncryption
                RSA Public-Key: (2048 bit)
                Modulus:
                    00:97:49:b7:35:19:17:e9:3d:29:a0:75:77:fa:a3:
                    b1:02:b4:54:5a:42:a0:df:b5:5d:32:ab:c2:74:a2:
                    d8:a8:52:88:43:fe:be:20:69:27:54:89:db:0d:f6:
                    eb:b1:8d:fa:19:5d:00:6a:23:e3:3b:1e:17:98:a7:
                    a7:94:18:0a:f7:82:d2:44:65:11:5c:e2:c5:04:41:
                    49:7b:73:1e:6e:3b:aa:09:56:82:94:69:63:da:37:
                    65:b0:27:05:0c:45:b1:fe:dc:ea:a7:e4:0f:b6:60:
                    59:21:d7:16:0c:e7:72:34:57:1d:bb:7c:d5:f8:ef:
                    96:4f:90:b6:fa:d1:e5:88:13:24:a5:58:0f:36:30:
                    a1:10:22:ff:29:4d:c9:7a:db:46:08:2b:6d:00:0f:
                    99:d2:34:2b:33:32:f8:35:ea:81:0f:ea:8d:56:2d:
                    03:9a:38:b7:67:ab:cb:86:c9:71:d4:4c:61:df:5a:
                    a6:b8:c1:2e:48:4c:0e:30:12:9e:d6:fe:a4:ee:95:
                    25:c3:8a:15:92:bd:01:6b:63:5e:c9:0a:2b:a5:ec:
                    07:30:bf:6f:80:43:20:1c:2a:6b:2d:e0:34:1e:75:
                    86:ce:6c:44:7a:08:bc:ac:25:21:f0:af:e7:43:d3:
                    15:7a:61:2c:b6:d6:b3:c4:0c:13:06:66:65:27:d6:
                    3c:5d
                Exponent: 65537 (0x10001)
        X509v3 extensions:
            X509v3 Basic Constraints: 
                CA:FALSE
            X509v3 Subject Key Identifier: 
                50:5B:30:79:22:A1:71:52:D9:9B:BD:87:6D:92:F3:73:5E:04:9A:25
            X509v3 Authority Key Identifier: 
                keyid:90:8F:29:76:DF:81:36:8B:D0:07:5A:B2:5A:E9:79:DC:F8:37:52:65
                DirName:/CN=team102-net
                serial:4C:1E:BA:69:56:1B:FE:5A:21:02:52:23:AD:B3:DE:B3:D6:98:AA:6D

            X509v3 Extended Key Usage: 
                TLS Web Client Authentication
            X509v3 Key Usage: 
                Digital Signature
    Signature Algorithm: sha256WithRSAEncryption
         2c:d6:00:cd:40:44:cb:e8:7d:bd:1b:58:21:73:1b:ef:34:d1:
         52:18:71:66:39:a6:5f:72:18:dd:47:8f:79:a2:2d:0e:5e:42:
         76:3f:c5:c8:82:75:8c:05:ce:26:fa:53:be:24:c5:4b:d0:60:
         76:bc:65:55:30:39:5d:dd:f2:e0:a8:54:96:f7:65:34:6a:f4:
         e5:a4:1f:6d:3f:0a:20:03:72:35:2e:14:3e:69:f4:ba:58:71:
         83:f3:d2:1e:c3:0e:d2:45:6e:20:bf:0b:9c:88:ec:f2:fc:19:
         99:14:52:31:4c:89:97:66:38:b8:90:6f:73:63:40:b2:da:82:
         87:7a:84:c8:5f:56:cf:c7:fd:00:a6:1d:ab:d7:fb:99:22:5c:
         ac:b9:98:20:81:84:60:6a:29:03:b7:0e:a8:98:b3:63:ba:bc:
         6d:04:b5:c6:22:ae:92:f5:2a:67:ed:7c:ef:b4:cc:ee:3e:4c:
         1c:ce:70:62:e5:42:76:41:03:f1:81:dd:32:14:e5:05:df:a2:
         09:2a:15:39:28:8f:b3:03:1a:6b:ba:56:6b:5f:3d:f6:df:3f:
         b4:03:b0:05:1d:b2:62:ed:cc:2a:83:2c:4b:57:4f:60:63:66:
         ea:1d:b4:b0:bc:cf:be:5f:9d:be:e2:da:ce:b8:2c:7c:fb:d2:
         ca:3d:37:97
-----BEGIN CERTIFICATE-----
MIIDXTCCAkWgAwIBAgIRAKuqBQtZ/NT+Tg2G+ZisMl0wDQYJKoZIhvcNAQELBQAw
FjEUMBIGA1UEAwwLdGVhbTEwMi1uZXQwHhcNMjEwOTEyMjMzNjAxWhcNMjQwODI3
MjMzNjAxWjAZMRcwFQYDVQQDDA50ZWFtMTAyLWNsaWVudDCCASIwDQYJKoZIhvcN
AQEBBQADggEPADCCAQoCggEBAJdJtzUZF+k9KaB1d/qjsQK0VFpCoN+1XTKrwnSi
2KhSiEP+viBpJ1SJ2w3267GN+hldAGoj4zseF5inp5QYCveC0kRlEVzixQRBSXtz
Hm47qglWgpRpY9o3ZbAnBQxFsf7c6qfkD7ZgWSHXFgzncjRXHbt81fjvlk+QtvrR
5YgTJKVYDzYwoRAi/ylNyXrbRggrbQAPmdI0KzMy+DXqgQ/qjVYtA5o4t2ery4bJ
cdRMYd9aprjBLkhMDjASntb+pO6VJcOKFZK9AWtjXskKK6XsBzC/b4BDIBwqay3g
NB51hs5sRHoIvKwlIfCv50PTFXphLLbWs8QMEwZmZSfWPF0CAwEAAaOBojCBnzAJ
BgNVHRMEAjAAMB0GA1UdDgQWBBRQWzB5IqFxUtmbvYdtkvNzXgSaJTBRBgNVHSME
SjBIgBSQjyl234E2i9AHWrJa6Xnc+DdSZaEapBgwFjEUMBIGA1UEAwwLdGVhbTEw
Mi1uZXSCFEweumlWG/5aIQJSI62z3rPWmKptMBMGA1UdJQQMMAoGCCsGAQUFBwMC
MAsGA1UdDwQEAwIHgDANBgkqhkiG9w0BAQsFAAOCAQEALNYAzUBEy+h9vRtYIXMb
7zTRUhhxZjmmX3IY3UePeaItDl5Cdj/FyIJ1jAXOJvpTviTFS9BgdrxlVTA5Xd3y
4KhUlvdlNGr05aQfbT8KIANyNS4UPmn0ulhxg/PSHsMO0kVuIL8LnIjs8vwZmRRS
MUyJl2Y4uJBvc2NAstqCh3qEyF9Wz8f9AKYdq9f7mSJcrLmYIIGEYGopA7cOqJiz
Y7q8bQS1xiKukvUqZ+1877TM7j5MHM5wYuVCdkED8YHdMhTlBd+iCSoVOSiPswMa
a7pWa1899t8/tAOwBR2yYu3MKoMsS1dPYGNm6h20sLzPvl+dvuLazrgsfPvSyj03
lw==
-----END CERTIFICATE-----
