Certificate:
    Data:
        Version: 3 (0x2)
        Serial Number:
            66:7f:2b:19:b1:2c:a4:be:71:93:71:8a:35:c8:27:53
        Signature Algorithm: sha256WithRSAEncryption
        Issuer: CN=team642-net
        Validity
            Not Before: Sep 13 04:19:17 2021 GMT
            Not After : Aug 28 04:19:17 2024 GMT
        Subject: CN=team642-server
        Subject Public Key Info:
            Public Key Algorithm: rsaEncryption
                RSA Public-Key: (2048 bit)
                Modulus:
                    00:ab:dc:7c:20:7d:69:7a:1d:49:d9:f0:af:eb:a3:
                    b1:82:a0:d3:26:22:b2:84:66:a7:c6:6c:75:0f:24:
                    c5:78:69:6d:8d:07:5e:85:86:3a:63:5f:38:3f:a1:
                    4b:e2:f6:70:c2:d2:7e:fb:83:4c:b7:7d:ae:99:2e:
                    38:7b:e5:5b:c2:05:bb:cc:e5:b5:61:44:bc:87:6c:
                    08:61:35:4b:22:81:74:53:27:78:a3:9b:8f:ca:13:
                    ee:3c:54:a5:ca:3a:86:d8:1c:5f:74:78:2e:b0:2f:
                    77:27:f0:a4:9a:58:54:fb:23:fc:24:7d:b6:01:2b:
                    0a:a2:c2:5b:49:bb:d3:61:46:8d:52:0f:2d:b2:f9:
                    43:c3:86:c0:94:40:1e:75:57:02:28:71:bc:57:2f:
                    03:93:f4:f5:a3:e5:71:eb:bf:a0:9f:c9:e1:1b:be:
                    59:06:63:43:fa:74:2d:8b:db:28:d4:3c:fb:0c:43:
                    9c:1e:ff:2f:32:8e:fc:d8:60:19:90:65:55:d0:1b:
                    49:cd:ea:bd:ae:b1:80:de:51:19:77:b0:77:dc:14:
                    c5:7c:a5:2d:1b:5c:67:e9:f3:16:2f:1f:70:04:8e:
                    80:e3:85:46:f9:ca:e2:98:ac:0c:fc:1e:e8:e2:e0:
                    d3:51:e6:82:00:e4:f2:f3:45:40:6a:08:30:a3:57:
                    d2:39
                Exponent: 65537 (0x10001)
        X509v3 extensions:
            X509v3 Basic Constraints: 
                CA:FALSE
            X509v3 Subject Key Identifier: 
                15:AA:1B:FC:54:A3:4F:90:08:2A:8B:73:7A:1F:95:35:F3:CB:54:7A
            X509v3 Authority Key Identifier: 
                keyid:F2:A3:65:C4:69:2A:7F:62:FB:46:F6:F4:97:6B:A1:FE:23:FC:1B:A7
                DirName:/CN=team642-net
                serial:6B:AD:F1:28:0F:E6:37:C9:A1:FE:51:82:16:E6:7F:DA:BC:DA:69:7D

            X509v3 Extended Key Usage: 
                TLS Web Server Authentication
            X509v3 Key Usage: 
                Digital Signature, Key Encipherment
            X509v3 Subject Alternative Name: 
                DNS:team642-server
    Signature Algorithm: sha256WithRSAEncryption
         58:ae:31:16:6a:42:e1:30:1c:45:15:6e:ed:51:61:b7:18:7e:
         30:5a:df:e6:3b:ad:ac:3f:ed:82:65:f0:f7:a7:89:78:58:5b:
         4f:f2:72:05:be:c3:54:85:fa:b4:40:aa:81:27:c2:c9:ca:62:
         43:f6:8e:75:04:bd:17:d3:52:4a:46:93:15:e3:9a:9e:e5:30:
         ae:25:cc:70:e7:9a:10:7e:8e:b1:2e:51:c3:ac:c1:ec:78:64:
         a9:5d:11:fa:e6:71:93:fa:e8:42:79:d1:c2:1e:e0:f2:13:1d:
         a9:8f:c7:be:c5:fe:22:e4:12:ad:cf:ae:17:bf:6d:ad:94:31:
         8c:f6:b3:0b:77:20:fa:04:2a:5e:7c:ea:27:9b:67:e2:28:e0:
         5a:a7:d2:22:e6:a5:17:71:9d:e7:86:dc:b4:a8:ba:b1:ea:47:
         d3:ee:c3:cc:69:fd:ee:f2:b0:e9:67:85:01:6a:39:5f:26:3a:
         ee:37:c2:ed:1b:68:bf:3b:ae:8c:5f:12:c8:38:15:db:bd:07:
         2b:6a:fe:aa:f0:44:68:8c:73:50:d2:55:24:f1:85:7c:df:63:
         ab:b0:9a:9a:ec:73:74:55:7c:f9:aa:fb:fa:fd:23:55:06:ec:
         22:78:22:ba:0c:3c:17:7d:a6:b0:93:50:48:70:08:e5:9a:a2:
         d8:ec:94:25
-----BEGIN CERTIFICATE-----
MIIDdzCCAl+gAwIBAgIQZn8rGbEspL5xk3GKNcgnUzANBgkqhkiG9w0BAQsFADAW
MRQwEgYDVQQDDAt0ZWFtNjQyLW5ldDAeFw0yMTA5MTMwNDE5MTdaFw0yNDA4Mjgw
NDE5MTdaMBkxFzAVBgNVBAMMDnRlYW02NDItc2VydmVyMIIBIjANBgkqhkiG9w0B
AQEFAAOCAQ8AMIIBCgKCAQEAq9x8IH1peh1J2fCv66OxgqDTJiKyhGanxmx1DyTF
eGltjQdehYY6Y184P6FL4vZwwtJ++4NMt32umS44e+VbwgW7zOW1YUS8h2wIYTVL
IoF0Uyd4o5uPyhPuPFSlyjqG2BxfdHgusC93J/CkmlhU+yP8JH22ASsKosJbSbvT
YUaNUg8tsvlDw4bAlEAedVcCKHG8Vy8Dk/T1o+Vx67+gn8nhG75ZBmND+nQti9so
1Dz7DEOcHv8vMo782GAZkGVV0BtJzeq9rrGA3lEZd7B33BTFfKUtG1xn6fMWLx9w
BI6A44VG+crimKwM/B7o4uDTUeaCAOTy80VAaggwo1fSOQIDAQABo4G9MIG6MAkG
A1UdEwQCMAAwHQYDVR0OBBYEFBWqG/xUo0+QCCqLc3oflTXzy1R6MFEGA1UdIwRK
MEiAFPKjZcRpKn9i+0b29Jdrof4j/BunoRqkGDAWMRQwEgYDVQQDDAt0ZWFtNjQy
LW5ldIIUa63xKA/mN8mh/lGCFuZ/2rzaaX0wEwYDVR0lBAwwCgYIKwYBBQUHAwEw
CwYDVR0PBAQDAgWgMBkGA1UdEQQSMBCCDnRlYW02NDItc2VydmVyMA0GCSqGSIb3
DQEBCwUAA4IBAQBYrjEWakLhMBxFFW7tUWG3GH4wWt/mO62sP+2CZfD3p4l4WFtP
8nIFvsNUhfq0QKqBJ8LJymJD9o51BL0X01JKRpMV45qe5TCuJcxw55oQfo6xLlHD
rMHseGSpXRH65nGT+uhCedHCHuDyEx2pj8e+xf4i5BKtz64Xv22tlDGM9rMLdyD6
BCpefOonm2fiKOBap9Ii5qUXcZ3nhty0qLqx6kfT7sPMaf3u8rDpZ4UBajlfJjru
N8LtG2i/O66MXxLIOBXbvQcrav6q8ERojHNQ0lUk8YV832OrsJqa7HN0VXz5qvv6
/SNVBuwieCK6DDwXfaawk1BIcAjlmqLY7JQl
-----END CERTIFICATE-----
