Certificate:
    Data:
        Version: 3 (0x2)
        Serial Number:
            e3:3e:04:16:80:43:a2:d9:2b:33:51:3e:e8:47:a3:0d
        Signature Algorithm: sha256WithRSAEncryption
        Issuer: CN=team642-net
        Validity
            Not Before: Sep 13 04:19:16 2021 GMT
            Not After : Aug 28 04:19:16 2024 GMT
        Subject: CN=team642-client
        Subject Public Key Info:
            Public Key Algorithm: rsaEncryption
                RSA Public-Key: (2048 bit)
                Modulus:
                    00:98:82:ea:a8:dc:dd:a0:49:15:4d:ba:a7:47:aa:
                    ed:3a:17:75:a3:3e:cd:42:74:a9:d7:9e:49:0c:c4:
                    fe:67:06:26:6a:b7:e4:08:c0:34:b4:2e:ac:cf:dc:
                    bc:6b:17:a3:bd:a7:41:99:c6:26:2b:08:7a:db:14:
                    4a:54:13:d6:83:dd:a9:ab:60:e0:5b:a3:4e:24:1e:
                    a6:ac:5f:0c:41:bb:7e:bc:ec:72:30:1e:fd:da:f2:
                    54:32:4a:54:38:ae:9a:21:16:fc:63:be:35:86:fd:
                    ad:a0:9e:44:2a:9a:38:8a:b5:f9:77:5e:82:af:55:
                    9a:54:7a:f6:03:8c:5a:d5:e3:51:47:b2:e5:4d:45:
                    eb:24:18:5b:f5:8e:b0:13:72:6d:0b:4c:d1:2b:0c:
                    60:ca:05:d3:89:98:56:e1:f9:de:10:45:ba:fc:51:
                    6c:7c:ed:d8:b8:36:36:ff:41:73:83:e4:a7:e6:21:
                    82:40:9e:db:ae:b8:f5:17:43:25:71:3c:c9:37:ae:
                    47:64:19:32:40:13:04:cc:74:93:58:a4:0f:fe:d9:
                    5f:13:51:b7:5d:a9:0b:59:8a:4e:2b:fa:62:f7:ab:
                    4d:94:12:03:c6:9e:d0:bc:ae:44:4e:ad:4d:b3:1b:
                    93:db:d8:78:24:ec:e9:87:fc:5d:23:ed:b7:5b:cc:
                    70:35
                Exponent: 65537 (0x10001)
        X509v3 extensions:
            X509v3 Basic Constraints: 
                CA:FALSE
            X509v3 Subject Key Identifier: 
                B3:11:0A:BF:7E:4D:CB:8E:F5:73:93:03:B6:EB:41:3E:A1:4D:55:28
            X509v3 Authority Key Identifier: 
                keyid:F2:A3:65:C4:69:2A:7F:62:FB:46:F6:F4:97:6B:A1:FE:23:FC:1B:A7
                DirName:/CN=team642-net
                serial:6B:AD:F1:28:0F:E6:37:C9:A1:FE:51:82:16:E6:7F:DA:BC:DA:69:7D

            X509v3 Extended Key Usage: 
                TLS Web Client Authentication
            X509v3 Key Usage: 
                Digital Signature
    Signature Algorithm: sha256WithRSAEncryption
         88:ce:20:87:e6:50:ce:81:8a:16:0d:44:84:cb:23:9c:fc:c7:
         30:b5:b4:ad:97:43:d2:ae:f9:98:68:06:87:82:42:48:c8:fa:
         63:74:ae:d6:1e:a7:19:a8:91:ff:c1:62:4f:bb:04:d4:3a:85:
         41:ce:21:1e:ca:37:01:02:08:88:36:05:97:58:01:54:06:22:
         5a:05:4d:2d:37:b8:e0:e6:68:79:4b:23:01:52:02:b9:84:cd:
         21:c9:70:03:42:16:8b:a9:7d:f9:5f:13:cb:44:9d:59:c1:ba:
         39:4b:94:a2:7f:bb:91:0c:e9:22:a8:3a:33:82:15:ca:b4:da:
         dc:f5:9b:a1:c6:68:d6:50:fe:98:03:bb:e8:46:44:ae:af:27:
         d2:c0:05:49:19:70:dc:3e:d8:07:34:ae:f3:aa:d4:96:dd:71:
         0a:a0:32:45:b2:59:bf:12:4e:03:45:ed:70:4a:e7:9e:77:79:
         67:fa:4c:59:c2:f9:9b:79:54:bd:ef:58:42:0d:1b:ea:dc:de:
         e0:3f:bb:ad:f4:de:15:e1:16:84:5f:b6:f4:36:af:c6:e0:55:
         39:e8:0e:e1:d4:57:4c:69:87:27:39:12:96:c6:2f:a9:2e:74:
         6c:4e:8c:bf:d5:92:ce:38:6e:e5:d5:8a:99:02:1b:69:11:5d:
         b6:a7:09:14
-----BEGIN CERTIFICATE-----
MIIDXTCCAkWgAwIBAgIRAOM+BBaAQ6LZKzNRPuhHow0wDQYJKoZIhvcNAQELBQAw
FjEUMBIGA1UEAwwLdGVhbTY0Mi1uZXQwHhcNMjEwOTEzMDQxOTE2WhcNMjQwODI4
MDQxOTE2WjAZMRcwFQYDVQQDDA50ZWFtNjQyLWNsaWVudDCCASIwDQYJKoZIhvcN
AQEBBQADggEPADCCAQoCggEBAJiC6qjc3aBJFU26p0eq7ToXdaM+zUJ0qdeeSQzE
/mcGJmq35AjANLQurM/cvGsXo72nQZnGJisIetsUSlQT1oPdqatg4FujTiQepqxf
DEG7frzscjAe/dryVDJKVDiumiEW/GO+NYb9raCeRCqaOIq1+Xdegq9VmlR69gOM
WtXjUUey5U1F6yQYW/WOsBNybQtM0SsMYMoF04mYVuH53hBFuvxRbHzt2Lg2Nv9B
c4Pkp+YhgkCe26649RdDJXE8yTeuR2QZMkATBMx0k1ikD/7ZXxNRt12pC1mKTiv6
YverTZQSA8ae0LyuRE6tTbMbk9vYeCTs6Yf8XSPtt1vMcDUCAwEAAaOBojCBnzAJ
BgNVHRMEAjAAMB0GA1UdDgQWBBSzEQq/fk3LjvVzkwO260E+oU1VKDBRBgNVHSME
SjBIgBTyo2XEaSp/YvtG9vSXa6H+I/wbp6EapBgwFjEUMBIGA1UEAwwLdGVhbTY0
Mi1uZXSCFGut8SgP5jfJof5Rghbmf9q82ml9MBMGA1UdJQQMMAoGCCsGAQUFBwMC
MAsGA1UdDwQEAwIHgDANBgkqhkiG9w0BAQsFAAOCAQEAiM4gh+ZQzoGKFg1EhMsj
nPzHMLW0rZdD0q75mGgGh4JCSMj6Y3Su1h6nGaiR/8FiT7sE1DqFQc4hHso3AQII
iDYFl1gBVAYiWgVNLTe44OZoeUsjAVICuYTNIclwA0IWi6l9+V8Ty0SdWcG6OUuU
on+7kQzpIqg6M4IVyrTa3PWbocZo1lD+mAO76EZErq8n0sAFSRlw3D7YBzSu86rU
lt1xCqAyRbJZvxJOA0XtcErnnnd5Z/pMWcL5m3lUve9YQg0b6tze4D+7rfTeFeEW
hF+29DavxuBVOegO4dRXTGmHJzkSlsYvqS50bE6Mv9WSzjhu5dWKmQIbaRFdtqcJ
FA==
-----END CERTIFICATE-----
