Certificate:
    Data:
        Version: 3 (0x2)
        Serial Number:
            b6:f3:f4:df:8f:25:03:b3:b8:e3:f2:20:1d:c6:22:d9
        Signature Algorithm: sha256WithRSAEncryption
        Issuer: CN=team149-net
        Validity
            Not Before: Sep 13 00:04:46 2021 GMT
            Not After : Aug 28 00:04:46 2024 GMT
        Subject: CN=team149-server
        Subject Public Key Info:
            Public Key Algorithm: rsaEncryption
                RSA Public-Key: (2048 bit)
                Modulus:
                    00:de:66:e5:f3:19:9e:65:f4:9e:8d:94:9d:7e:ac:
                    b5:ab:34:15:5e:d9:ce:f0:ca:0c:2c:ac:45:a1:59:
                    6f:18:cd:c6:6f:f1:4d:28:f5:88:41:00:62:48:72:
                    b7:96:74:44:74:fd:d4:1a:18:4e:27:3a:bf:2a:4d:
                    ea:2a:e7:13:c3:98:a8:e9:ac:03:f4:7f:5d:f4:52:
                    ad:b3:71:b6:18:77:21:4d:3a:1a:68:d2:2a:21:28:
                    e4:09:06:5f:20:13:c7:ca:77:7f:5b:4c:26:24:7c:
                    b6:23:7e:e0:e9:69:1c:41:e2:fe:37:e4:18:92:91:
                    82:2d:cd:d6:3f:8f:ab:82:f6:05:17:d1:8f:67:c8:
                    f2:f6:e2:1c:3a:db:96:9c:e0:7e:6c:b4:02:ae:52:
                    ce:80:7a:54:a5:8c:a9:92:0d:69:9a:07:9c:c1:53:
                    c5:63:98:f6:9f:65:49:03:cb:2b:21:9e:b7:d1:83:
                    61:f6:45:eb:ce:95:8b:37:69:14:e4:4c:24:34:71:
                    67:b3:79:38:bb:f0:08:a2:87:36:72:67:fe:b4:01:
                    30:ea:2b:35:88:e4:2e:8b:99:19:74:07:bd:50:2b:
                    85:5b:7b:ac:fa:57:42:e2:49:82:3d:1b:f8:9b:91:
                    aa:ed:87:31:b9:4a:6f:86:e3:06:22:cd:82:99:c4:
                    37:eb
                Exponent: 65537 (0x10001)
        X509v3 extensions:
            X509v3 Basic Constraints: 
                CA:FALSE
            X509v3 Subject Key Identifier: 
                3E:27:9B:42:04:36:80:30:C2:FA:8E:6F:C0:73:4E:EC:5C:CA:74:1E
            X509v3 Authority Key Identifier: 
                keyid:3B:7D:E7:6A:B6:31:28:51:94:E9:6C:40:5E:3E:02:F1:A6:12:3F:CA
                DirName:/CN=team149-net
                serial:39:FA:90:79:F0:B4:4D:2D:EC:D0:44:70:53:6B:B0:FF:B0:AE:0F:4E

            X509v3 Extended Key Usage: 
                TLS Web Server Authentication
            X509v3 Key Usage: 
                Digital Signature, Key Encipherment
            X509v3 Subject Alternative Name: 
                DNS:team149-server
    Signature Algorithm: sha256WithRSAEncryption
         a7:ab:22:c0:17:1f:af:1b:c3:d3:4f:d3:bd:66:84:e3:86:c4:
         9f:d0:41:47:47:2e:46:f0:89:66:4b:f3:3e:17:6b:89:01:63:
         e8:91:ae:eb:1c:a6:95:72:2c:76:d2:45:e9:94:a0:5b:b3:e5:
         ac:17:41:28:0a:5e:e9:27:e8:63:56:d5:14:88:81:61:b2:49:
         9b:63:a6:5c:18:b8:52:43:94:ad:05:cc:e3:d1:dc:9a:26:8e:
         83:11:1a:e0:f8:b8:ca:62:76:69:06:19:7a:06:55:0c:8e:1e:
         c1:21:61:a5:17:5f:ab:ac:f7:9c:8b:c4:07:ce:5a:30:fe:b8:
         5c:90:18:af:1c:69:cc:d1:44:4a:f2:cb:27:cc:f0:24:8b:dd:
         21:22:bb:63:1c:24:7d:b3:0b:78:05:82:ab:22:17:25:5f:3e:
         e5:25:5a:c9:3e:6c:dc:48:92:a5:4e:80:eb:9b:08:cb:60:e7:
         e1:42:38:1c:92:27:1c:c8:69:a2:1b:06:e0:13:54:0c:bc:02:
         c0:67:fa:d3:2a:90:4e:a5:55:ba:a5:18:77:0c:20:5a:ee:4a:
         d8:75:ed:18:f3:20:d4:a0:f2:90:40:64:34:7a:f1:5e:0d:5f:
         2d:43:b1:d2:b6:a6:ed:e1:e5:85:c9:5a:e9:77:48:52:95:e2:
         b4:b4:06:7b
-----BEGIN CERTIFICATE-----
MIIDeDCCAmCgAwIBAgIRALbz9N+PJQOzuOPyIB3GItkwDQYJKoZIhvcNAQELBQAw
FjEUMBIGA1UEAwwLdGVhbTE0OS1uZXQwHhcNMjEwOTEzMDAwNDQ2WhcNMjQwODI4
MDAwNDQ2WjAZMRcwFQYDVQQDDA50ZWFtMTQ5LXNlcnZlcjCCASIwDQYJKoZIhvcN
AQEBBQADggEPADCCAQoCggEBAN5m5fMZnmX0no2UnX6stas0FV7ZzvDKDCysRaFZ
bxjNxm/xTSj1iEEAYkhyt5Z0RHT91BoYTic6vypN6irnE8OYqOmsA/R/XfRSrbNx
thh3IU06GmjSKiEo5AkGXyATx8p3f1tMJiR8tiN+4OlpHEHi/jfkGJKRgi3N1j+P
q4L2BRfRj2fI8vbiHDrblpzgfmy0Aq5SzoB6VKWMqZINaZoHnMFTxWOY9p9lSQPL
KyGet9GDYfZF686VizdpFORMJDRxZ7N5OLvwCKKHNnJn/rQBMOorNYjkLouZGXQH
vVArhVt7rPpXQuJJgj0b+JuRqu2HMblKb4bjBiLNgpnEN+sCAwEAAaOBvTCBujAJ
BgNVHRMEAjAAMB0GA1UdDgQWBBQ+J5tCBDaAMML6jm/Ac07sXMp0HjBRBgNVHSME
SjBIgBQ7fedqtjEoUZTpbEBePgLxphI/yqEapBgwFjEUMBIGA1UEAwwLdGVhbTE0
OS1uZXSCFDn6kHnwtE0t7NBEcFNrsP+wrg9OMBMGA1UdJQQMMAoGCCsGAQUFBwMB
MAsGA1UdDwQEAwIFoDAZBgNVHREEEjAQgg50ZWFtMTQ5LXNlcnZlcjANBgkqhkiG
9w0BAQsFAAOCAQEAp6siwBcfrxvD00/TvWaE44bEn9BBR0cuRvCJZkvzPhdriQFj
6JGu6xymlXIsdtJF6ZSgW7PlrBdBKApe6SfoY1bVFIiBYbJJm2OmXBi4UkOUrQXM
49HcmiaOgxEa4Pi4ymJ2aQYZegZVDI4ewSFhpRdfq6z3nIvEB85aMP64XJAYrxxp
zNFESvLLJ8zwJIvdISK7YxwkfbMLeAWCqyIXJV8+5SVayT5s3EiSpU6A65sIy2Dn
4UI4HJInHMhpohsG4BNUDLwCwGf60yqQTqVVuqUYdwwgWu5K2HXtGPMg1KDykEBk
NHrxXg1fLUOx0ram7eHlhcla6XdIUpXitLQGew==
-----END CERTIFICATE-----
