Certificate:
    Data:
        Version: 3 (0x2)
        Serial Number:
            81:00:ac:c5:a4:57:31:d5:fe:89:d1:f4:da:22:e7:99
        Signature Algorithm: sha256WithRSAEncryption
        Issuer: CN=team540-net
        Validity
            Not Before: Sep 13 03:42:38 2021 GMT
            Not After : Aug 28 03:42:38 2024 GMT
        Subject: CN=team540-server
        Subject Public Key Info:
            Public Key Algorithm: rsaEncryption
                RSA Public-Key: (2048 bit)
                Modulus:
                    00:bf:30:25:f3:52:52:92:44:b6:45:0f:0c:56:ce:
                    4e:fa:c9:9a:bf:44:4f:2a:96:c5:bb:e7:17:b5:c7:
                    1f:fd:10:1c:44:5b:fa:2e:b3:45:f2:70:fd:ab:43:
                    c0:db:f3:75:56:c7:0d:d6:85:32:99:8f:3a:50:56:
                    f8:07:c3:d1:ae:32:5f:54:bc:69:f9:8f:6f:e4:fc:
                    e1:49:79:97:6b:4b:21:5d:b9:e2:0d:af:70:7b:a2:
                    5b:da:0d:c7:9c:15:60:ca:d0:df:26:5c:9b:11:48:
                    a1:fd:4e:9e:ee:77:16:d4:09:b5:c3:f0:55:95:2f:
                    00:08:b4:1b:30:2a:82:d0:37:7e:34:29:1f:04:43:
                    81:5a:6c:62:67:76:d8:10:58:8a:e6:9b:d7:f7:2b:
                    ba:35:25:00:6d:01:9e:98:99:63:0a:5d:99:3e:02:
                    8d:a1:1b:ef:72:02:8e:05:90:4f:2d:65:17:ec:70:
                    d7:71:c2:96:6a:c2:65:43:77:5a:3c:1c:f7:83:4d:
                    8b:c1:bb:90:5c:5d:05:06:2a:52:a0:e1:83:c6:42:
                    96:0e:fa:6c:b8:be:23:4f:be:cf:28:66:06:4b:9e:
                    fa:35:7f:c0:ba:31:1e:ed:a5:4d:bf:24:1d:94:8e:
                    3b:80:78:9a:e7:40:0a:b2:b6:3c:29:23:dc:3b:50:
                    d6:29
                Exponent: 65537 (0x10001)
        X509v3 extensions:
            X509v3 Basic Constraints: 
                CA:FALSE
            X509v3 Subject Key Identifier: 
                CB:66:E2:93:24:CD:5D:1C:0A:31:44:13:27:4D:2B:72:AE:72:58:40
            X509v3 Authority Key Identifier: 
                keyid:3B:5E:A2:30:B4:FF:09:F6:03:97:86:DA:A8:6D:CA:58:15:1C:B6:38
                DirName:/CN=team540-net
                serial:5E:C5:4B:D8:0F:6B:92:CF:CC:D6:0B:77:D6:6D:F5:CD:FE:F2:1F:A8

            X509v3 Extended Key Usage: 
                TLS Web Server Authentication
            X509v3 Key Usage: 
                Digital Signature, Key Encipherment
            X509v3 Subject Alternative Name: 
                DNS:team540-server
    Signature Algorithm: sha256WithRSAEncryption
         a6:0d:8c:4e:35:ad:60:5a:b2:3c:a9:ac:c0:45:9d:06:ba:53:
         9d:40:91:0c:44:ec:fe:61:d5:e2:9a:e3:0f:7d:03:8c:82:54:
         fa:79:f7:d3:22:d6:4b:d5:54:8c:97:33:c9:80:6c:a0:53:4d:
         b6:51:36:1c:34:e8:fa:61:0b:88:5a:43:63:d4:57:7a:f6:cf:
         1e:2c:de:26:37:73:bb:b9:73:5c:c2:07:4b:38:90:47:bd:39:
         48:93:00:a0:70:3a:12:01:d5:c6:12:a6:e0:88:60:49:ee:7f:
         33:f2:ee:86:ef:15:ee:05:dd:a1:ca:98:a5:bf:52:11:f9:73:
         94:4a:c3:bc:79:a7:66:07:79:ed:3b:3b:68:9a:d5:5c:16:99:
         13:9d:82:fe:db:8b:bb:b7:e9:db:a7:4b:7b:87:77:2d:d8:3c:
         61:66:93:e1:c9:80:23:95:0f:25:93:7a:79:a6:3a:b5:3c:63:
         08:95:e7:7d:77:ad:c9:3e:f7:92:73:d5:b5:b0:13:81:09:c3:
         4e:3e:17:7f:76:9d:bd:9e:bc:92:89:bc:71:36:99:1c:3a:53:
         0d:81:6b:c1:8c:3a:fb:12:11:0c:03:9b:99:2e:20:48:a8:45:
         80:d8:ce:be:10:fa:d2:db:c1:38:5f:43:56:64:8b:ee:1e:f7:
         5f:f6:90:67
-----BEGIN CERTIFICATE-----
MIIDeDCCAmCgAwIBAgIRAIEArMWkVzHV/onR9Noi55kwDQYJKoZIhvcNAQELBQAw
FjEUMBIGA1UEAwwLdGVhbTU0MC1uZXQwHhcNMjEwOTEzMDM0MjM4WhcNMjQwODI4
MDM0MjM4WjAZMRcwFQYDVQQDDA50ZWFtNTQwLXNlcnZlcjCCASIwDQYJKoZIhvcN
AQEBBQADggEPADCCAQoCggEBAL8wJfNSUpJEtkUPDFbOTvrJmr9ETyqWxbvnF7XH
H/0QHERb+i6zRfJw/atDwNvzdVbHDdaFMpmPOlBW+AfD0a4yX1S8afmPb+T84Ul5
l2tLIV254g2vcHuiW9oNx5wVYMrQ3yZcmxFIof1Onu53FtQJtcPwVZUvAAi0GzAq
gtA3fjQpHwRDgVpsYmd22BBYiuab1/crujUlAG0BnpiZYwpdmT4CjaEb73ICjgWQ
Ty1lF+xw13HClmrCZUN3Wjwc94NNi8G7kFxdBQYqUqDhg8ZClg76bLi+I0++zyhm
Bkue+jV/wLoxHu2lTb8kHZSOO4B4mudACrK2PCkj3DtQ1ikCAwEAAaOBvTCBujAJ
BgNVHRMEAjAAMB0GA1UdDgQWBBTLZuKTJM1dHAoxRBMnTStyrnJYQDBRBgNVHSME
SjBIgBQ7XqIwtP8J9gOXhtqobcpYFRy2OKEapBgwFjEUMBIGA1UEAwwLdGVhbTU0
MC1uZXSCFF7FS9gPa5LPzNYLd9Zt9c3+8h+oMBMGA1UdJQQMMAoGCCsGAQUFBwMB
MAsGA1UdDwQEAwIFoDAZBgNVHREEEjAQgg50ZWFtNTQwLXNlcnZlcjANBgkqhkiG
9w0BAQsFAAOCAQEApg2MTjWtYFqyPKmswEWdBrpTnUCRDETs/mHV4prjD30DjIJU
+nn30yLWS9VUjJczyYBsoFNNtlE2HDTo+mELiFpDY9RXevbPHizeJjdzu7lzXMIH
SziQR705SJMAoHA6EgHVxhKm4IhgSe5/M/Luhu8V7gXdocqYpb9SEflzlErDvHmn
Zgd57Ts7aJrVXBaZE52C/tuLu7fp26dLe4d3Ldg8YWaT4cmAI5UPJZN6eaY6tTxj
CJXnfXetyT73knPVtbATgQnDTj4Xf3advZ68kom8cTaZHDpTDYFrwYw6+xIRDAOb
mS4gSKhFgNjOvhD60tvBOF9DVmSL7h73X/aQZw==
-----END CERTIFICATE-----
