Certificate:
    Data:
        Version: 3 (0x2)
        Serial Number:
            f2:47:d3:83:77:b0:d5:0e:a8:4c:25:4c:78:63:e1:06
        Signature Algorithm: sha256WithRSAEncryption
        Issuer: CN=team314-net
        Validity
            Not Before: Sep 13 01:34:29 2021 GMT
            Not After : Aug 28 01:34:29 2024 GMT
        Subject: CN=team314-client
        Subject Public Key Info:
            Public Key Algorithm: rsaEncryption
                RSA Public-Key: (2048 bit)
                Modulus:
                    00:c6:db:3d:cc:bf:b5:e5:fc:a5:9e:88:7a:37:02:
                    e7:70:af:e7:b2:bd:07:fc:1e:5f:5b:b9:5a:68:1f:
                    f1:23:f4:b9:02:5c:26:04:c4:0a:eb:1d:e1:94:8b:
                    0f:e8:00:e3:65:f3:de:82:aa:f2:27:0e:74:9e:6d:
                    b5:b8:39:3d:e3:e3:20:fe:6a:e5:57:2c:a3:90:76:
                    44:b9:9a:69:4a:39:b0:53:cb:21:72:10:cb:08:b1:
                    a7:05:48:66:b2:27:5d:e0:f3:9d:c1:ca:3a:30:3d:
                    90:bb:a1:d9:7c:0c:8a:86:94:3f:1a:21:8f:d9:7a:
                    97:2b:a0:b8:0c:4c:c8:6b:e3:3e:9e:12:a2:ad:5a:
                    93:cd:07:f8:8b:79:32:d4:10:bc:19:ee:60:13:32:
                    94:a7:33:b7:dc:6e:10:94:d3:f5:c5:ea:2f:79:08:
                    29:ff:8f:1b:2e:55:d0:51:b8:27:c3:16:2d:b5:4e:
                    16:d7:46:4e:b1:01:bb:57:ef:52:75:4a:7e:da:de:
                    ca:c0:90:0a:f6:93:39:72:fd:f8:04:6a:c3:ce:0b:
                    b9:09:71:e3:43:03:b1:13:62:80:71:0c:24:23:f9:
                    6b:6b:4a:8c:ee:2d:61:54:ce:83:ef:03:42:fe:bc:
                    cc:c9:b2:78:26:08:d9:7a:2d:e7:bc:a8:af:78:27:
                    60:19
                Exponent: 65537 (0x10001)
        X509v3 extensions:
            X509v3 Basic Constraints: 
                CA:FALSE
            X509v3 Subject Key Identifier: 
                02:45:74:F7:11:25:87:26:8E:5A:4B:D6:DE:7D:63:7F:38:F7:2C:E9
            X509v3 Authority Key Identifier: 
                keyid:26:A5:59:6D:C1:FA:5D:B9:18:4E:E2:F2:2B:DF:EB:F0:2B:B6:B4:CC
                DirName:/CN=team314-net
                serial:05:43:B5:06:78:1B:85:AD:80:FF:C0:88:3A:27:7A:CC:6F:E4:ED:54

            X509v3 Extended Key Usage: 
                TLS Web Client Authentication
            X509v3 Key Usage: 
                Digital Signature
    Signature Algorithm: sha256WithRSAEncryption
         50:9c:40:44:da:a0:92:f8:a3:e0:65:53:96:5e:70:ba:08:f4:
         9a:81:80:f1:44:71:e8:4c:7c:e7:03:fb:36:0f:eb:ec:de:b2:
         be:7d:f6:ac:b2:0c:15:57:3a:f2:52:a9:18:e0:21:aa:8f:0d:
         1e:21:fa:54:72:42:82:42:5e:8c:0a:be:1b:44:29:69:03:28:
         c9:65:e7:04:d8:09:9c:61:95:be:a1:46:68:33:83:79:7a:a9:
         af:f1:5c:83:eb:a6:90:42:07:ee:a8:1d:6b:f7:9e:80:58:1b:
         8f:b8:82:af:52:91:58:9d:56:45:ac:6b:59:0e:bc:eb:28:2e:
         67:5d:e1:79:82:de:20:03:1e:43:e6:b5:81:9d:6a:d9:41:36:
         f3:77:1f:b8:f4:5d:67:29:b0:eb:04:f4:a5:4d:2e:f2:ea:bf:
         98:13:13:ff:0e:8b:fb:65:13:de:f5:e2:9b:51:cf:30:6d:aa:
         77:3d:39:4b:c7:11:b4:4e:81:0a:af:ea:d6:9d:d7:0b:7d:d3:
         3b:1b:da:9f:68:0e:e7:a3:49:b1:13:81:97:93:60:8b:d6:5b:
         fd:12:4b:25:5e:f7:83:92:03:94:59:b5:ce:55:32:24:ea:de:
         c0:ec:ac:9f:e9:a9:d6:6b:8b:1c:d1:91:a0:13:40:4a:cb:cf:
         19:6f:a6:cb
-----BEGIN CERTIFICATE-----
MIIDXTCCAkWgAwIBAgIRAPJH04N3sNUOqEwlTHhj4QYwDQYJKoZIhvcNAQELBQAw
FjEUMBIGA1UEAwwLdGVhbTMxNC1uZXQwHhcNMjEwOTEzMDEzNDI5WhcNMjQwODI4
MDEzNDI5WjAZMRcwFQYDVQQDDA50ZWFtMzE0LWNsaWVudDCCASIwDQYJKoZIhvcN
AQEBBQADggEPADCCAQoCggEBAMbbPcy/teX8pZ6IejcC53Cv57K9B/weX1u5Wmgf
8SP0uQJcJgTECusd4ZSLD+gA42Xz3oKq8icOdJ5ttbg5PePjIP5q5Vcso5B2RLma
aUo5sFPLIXIQywixpwVIZrInXeDzncHKOjA9kLuh2XwMioaUPxohj9l6lyuguAxM
yGvjPp4Soq1ak80H+It5MtQQvBnuYBMylKczt9xuEJTT9cXqL3kIKf+PGy5V0FG4
J8MWLbVOFtdGTrEBu1fvUnVKftreysCQCvaTOXL9+ARqw84LuQlx40MDsRNigHEM
JCP5a2tKjO4tYVTOg+8DQv68zMmyeCYI2Xot57yor3gnYBkCAwEAAaOBojCBnzAJ
BgNVHRMEAjAAMB0GA1UdDgQWBBQCRXT3ESWHJo5aS9befWN/OPcs6TBRBgNVHSME
SjBIgBQmpVltwfpduRhO4vIr3+vwK7a0zKEapBgwFjEUMBIGA1UEAwwLdGVhbTMx
NC1uZXSCFAVDtQZ4G4WtgP/AiDonesxv5O1UMBMGA1UdJQQMMAoGCCsGAQUFBwMC
MAsGA1UdDwQEAwIHgDANBgkqhkiG9w0BAQsFAAOCAQEAUJxARNqgkvij4GVTll5w
ugj0moGA8URx6Ex85wP7Ng/r7N6yvn32rLIMFVc68lKpGOAhqo8NHiH6VHJCgkJe
jAq+G0QpaQMoyWXnBNgJnGGVvqFGaDODeXqpr/Fcg+umkEIH7qgda/eegFgbj7iC
r1KRWJ1WRaxrWQ686yguZ13heYLeIAMeQ+a1gZ1q2UE283cfuPRdZymw6wT0pU0u
8uq/mBMT/w6L+2UT3vXim1HPMG2qdz05S8cRtE6BCq/q1p3XC33TOxvan2gO56NJ
sROBl5Ngi9Zb/RJLJV73g5IDlFm1zlUyJOrewOysn+mp1muLHNGRoBNASsvPGW+m
yw==
-----END CERTIFICATE-----
