Certificate:
    Data:
        Version: 3 (0x2)
        Serial Number:
            50:d3:10:78:1a:23:d4:7c:41:6d:6f:b1:52:b9:55:fd
        Signature Algorithm: sha256WithRSAEncryption
        Issuer: CN=team101-net
        Validity
            Not Before: Sep 12 23:35:50 2021 GMT
            Not After : Aug 27 23:35:50 2024 GMT
        Subject: CN=team101-server
        Subject Public Key Info:
            Public Key Algorithm: rsaEncryption
                RSA Public-Key: (2048 bit)
                Modulus:
                    00:b1:64:33:01:84:5b:5f:19:1c:17:36:41:be:90:
                    3a:fc:fa:4e:84:fa:ed:64:ad:de:e1:ef:7e:0f:b6:
                    9c:b0:51:4b:b8:52:9b:e2:85:bd:15:74:9d:66:f2:
                    05:59:63:25:8c:34:f5:83:f1:83:f9:cd:f2:1a:b2:
                    e0:82:da:25:b3:18:35:9c:e3:b2:96:2a:7b:0f:fc:
                    49:2e:53:aa:5b:97:6a:1d:1c:ab:44:46:71:d0:64:
                    02:dc:8e:91:f1:ba:18:62:25:18:e7:51:5a:ef:42:
                    7d:77:4a:fa:89:52:7b:fe:61:dc:33:0a:99:b2:92:
                    bd:4e:1d:c1:29:f0:d6:53:b3:7d:9e:a0:be:41:84:
                    57:5d:f8:5e:a8:55:c3:03:05:79:44:7b:6e:35:6f:
                    e0:39:68:53:da:41:07:dd:ea:dd:11:04:68:ee:88:
                    90:a5:a0:7a:cc:03:43:e6:a1:cc:fa:28:1e:3a:06:
                    e5:c0:65:60:51:50:8d:f8:20:b3:bf:b8:30:dc:40:
                    33:2b:5d:ab:56:66:cc:a5:38:d8:a5:38:7c:19:6b:
                    df:42:98:ab:12:90:9e:62:62:fc:90:9f:a4:7b:28:
                    6d:d9:8c:44:16:6f:0e:6b:2e:ec:d5:cc:b4:a1:0e:
                    12:02:2e:36:c1:ca:bd:0b:5e:5a:d1:43:81:8a:12:
                    56:93
                Exponent: 65537 (0x10001)
        X509v3 extensions:
            X509v3 Basic Constraints: 
                CA:FALSE
            X509v3 Subject Key Identifier: 
                FC:F6:1F:15:02:A6:97:7D:2F:16:C3:4A:EB:76:21:0C:CF:5E:88:85
            X509v3 Authority Key Identifier: 
                keyid:A4:D9:27:5E:CA:E8:96:E9:81:8B:9A:BB:1A:8A:08:16:46:7F:BC:63
                DirName:/CN=team101-net
                serial:53:7C:D7:BA:17:60:06:96:22:80:C7:76:89:F8:E7:2B:EB:BA:8B:CF

            X509v3 Extended Key Usage: 
                TLS Web Server Authentication
            X509v3 Key Usage: 
                Digital Signature, Key Encipherment
            X509v3 Subject Alternative Name: 
                DNS:team101-server
    Signature Algorithm: sha256WithRSAEncryption
         0b:2f:14:fc:a2:71:5b:04:ca:e9:4f:f3:d6:07:ad:08:62:36:
         4e:0e:5c:8c:50:e5:7d:46:e4:e9:37:f2:24:19:26:60:bc:ec:
         b1:69:74:24:e3:9f:93:6d:10:c9:67:46:01:09:3f:27:d6:91:
         ea:63:71:d5:f9:a3:24:b9:a0:8f:03:d7:37:25:11:a7:f8:de:
         7d:47:e4:e1:ff:57:15:e4:4b:2f:7b:5d:d2:95:86:30:f8:da:
         d2:f4:e0:20:17:a3:89:81:d9:65:da:e0:a5:6c:a2:65:a2:4a:
         98:ca:44:0a:5b:91:ed:2c:dd:87:30:cb:b9:ff:5f:bc:0b:85:
         44:01:93:81:e4:6e:a4:16:7f:0a:f1:b1:b7:dd:9e:8b:51:d7:
         bf:48:c9:a5:62:92:b5:aa:13:ea:13:82:62:7a:1c:09:c2:58:
         eb:83:8a:3d:47:50:b2:ed:1e:57:d7:31:c4:ae:55:d2:dd:e1:
         f4:4e:1a:0a:67:95:79:e5:50:42:6f:19:12:e8:04:f7:23:4a:
         04:6a:77:87:4e:b3:5d:d7:f4:dc:5c:d8:37:db:b2:29:89:0b:
         90:43:b7:5f:81:94:1f:6c:24:eb:33:14:cf:59:55:19:8b:3c:
         b8:34:1f:a1:2a:9c:bf:83:a1:79:50:ff:c1:1e:54:6f:72:d5:
         d6:a3:78:83
-----BEGIN CERTIFICATE-----
MIIDdzCCAl+gAwIBAgIQUNMQeBoj1HxBbW+xUrlV/TANBgkqhkiG9w0BAQsFADAW
MRQwEgYDVQQDDAt0ZWFtMTAxLW5ldDAeFw0yMTA5MTIyMzM1NTBaFw0yNDA4Mjcy
MzM1NTBaMBkxFzAVBgNVBAMMDnRlYW0xMDEtc2VydmVyMIIBIjANBgkqhkiG9w0B
AQEFAAOCAQ8AMIIBCgKCAQEAsWQzAYRbXxkcFzZBvpA6/PpOhPrtZK3e4e9+D7ac
sFFLuFKb4oW9FXSdZvIFWWMljDT1g/GD+c3yGrLggtolsxg1nOOylip7D/xJLlOq
W5dqHRyrREZx0GQC3I6R8boYYiUY51Fa70J9d0r6iVJ7/mHcMwqZspK9Th3BKfDW
U7N9nqC+QYRXXfheqFXDAwV5RHtuNW/gOWhT2kEH3erdEQRo7oiQpaB6zAND5qHM
+igeOgblwGVgUVCN+CCzv7gw3EAzK12rVmbMpTjYpTh8GWvfQpirEpCeYmL8kJ+k
eyht2YxEFm8Oay7s1cy0oQ4SAi42wcq9C15a0UOBihJWkwIDAQABo4G9MIG6MAkG
A1UdEwQCMAAwHQYDVR0OBBYEFPz2HxUCppd9LxbDSut2IQzPXoiFMFEGA1UdIwRK
MEiAFKTZJ17K6JbpgYuauxqKCBZGf7xjoRqkGDAWMRQwEgYDVQQDDAt0ZWFtMTAx
LW5ldIIUU3zXuhdgBpYigMd2ifjnK+u6i88wEwYDVR0lBAwwCgYIKwYBBQUHAwEw
CwYDVR0PBAQDAgWgMBkGA1UdEQQSMBCCDnRlYW0xMDEtc2VydmVyMA0GCSqGSIb3
DQEBCwUAA4IBAQALLxT8onFbBMrpT/PWB60IYjZODlyMUOV9RuTpN/IkGSZgvOyx
aXQk45+TbRDJZ0YBCT8n1pHqY3HV+aMkuaCPA9c3JRGn+N59R+Th/1cV5Esve13S
lYYw+NrS9OAgF6OJgdll2uClbKJlokqYykQKW5HtLN2HMMu5/1+8C4VEAZOB5G6k
Fn8K8bG33Z6LUde/SMmlYpK1qhPqE4JiehwJwljrg4o9R1Cy7R5X1zHErlXS3eH0
ThoKZ5V55VBCbxkS6AT3I0oEaneHTrNd1/TcXNg327IpiQuQQ7dfgZQfbCTrMxTP
WVUZizy4NB+hKpy/g6F5UP/BHlRvctXWo3iD
-----END CERTIFICATE-----
