Certificate:
    Data:
        Version: 3 (0x2)
        Serial Number:
            da:96:bf:3e:7c:b0:a0:d0:b8:b3:c8:2b:f7:bb:1e:f9
        Signature Algorithm: sha256WithRSAEncryption
        Issuer: CN=team356-net
        Validity
            Not Before: Sep 13 02:00:09 2021 GMT
            Not After : Aug 28 02:00:09 2024 GMT
        Subject: CN=team356-client
        Subject Public Key Info:
            Public Key Algorithm: rsaEncryption
                RSA Public-Key: (2048 bit)
                Modulus:
                    00:e5:d0:6a:ad:c8:c8:44:e6:4e:5d:79:ee:0d:96:
                    a5:64:a8:f7:1d:30:aa:5d:52:15:c6:d3:fe:b8:6c:
                    42:1b:58:16:34:74:84:32:c3:29:75:a9:3e:4e:48:
                    0f:f8:4a:f8:70:2e:91:15:5b:30:d2:c9:e9:66:42:
                    20:39:7f:4d:73:8d:22:2e:40:e1:6f:ae:50:71:0c:
                    89:04:65:97:9e:26:43:5b:1d:a6:f0:7a:0a:1c:7b:
                    d4:9e:87:21:a5:0e:4a:43:46:19:4e:56:3e:88:27:
                    1e:39:97:0d:fe:b6:d4:d0:c9:0f:0f:69:f5:e8:b2:
                    21:3b:d9:d2:0a:d4:e7:c0:05:93:16:d8:0c:a3:52:
                    f6:3f:fb:23:04:3a:81:65:95:f0:d5:f2:23:f4:d0:
                    28:e2:30:2a:40:fc:72:79:71:fc:93:dc:0e:1b:61:
                    30:11:89:67:c5:4c:e2:9d:59:ef:2b:02:c9:e0:b9:
                    6a:35:6b:3e:a5:59:48:70:52:56:e3:af:e1:fd:11:
                    35:a8:0b:e4:79:60:0f:34:04:83:64:a8:95:87:79:
                    0c:3f:ed:cd:3a:88:36:fc:6e:0e:7c:56:79:6c:26:
                    64:cd:34:f7:4d:a1:01:e2:a8:43:25:bf:8b:e3:e6:
                    1f:e1:61:8e:3b:d0:6c:0b:3c:ed:95:38:16:a7:11:
                    20:13
                Exponent: 65537 (0x10001)
        X509v3 extensions:
            X509v3 Basic Constraints: 
                CA:FALSE
            X509v3 Subject Key Identifier: 
                DF:2D:79:DD:85:CE:3B:1D:50:E4:25:09:9C:EF:73:94:3F:7A:23:E3
            X509v3 Authority Key Identifier: 
                keyid:78:04:04:F0:43:33:14:65:3A:7F:FE:AA:B1:C1:E6:81:42:53:ED:7F
                DirName:/CN=team356-net
                serial:2D:8F:22:17:62:36:23:47:83:DF:49:36:D5:06:03:B0:71:EC:65:32

            X509v3 Extended Key Usage: 
                TLS Web Client Authentication
            X509v3 Key Usage: 
                Digital Signature
    Signature Algorithm: sha256WithRSAEncryption
         32:e3:2c:24:cb:49:39:c8:38:0a:9b:87:02:5b:71:88:8b:4d:
         36:3f:51:b4:a1:f9:a4:01:a4:a6:bc:88:f9:fd:2d:c0:25:89:
         ca:87:91:3f:fc:e8:91:24:d3:98:b9:22:72:88:e7:6e:63:05:
         9d:38:25:88:a4:f2:a6:1a:39:6e:1c:a3:85:fc:4b:a1:54:e1:
         40:c5:6c:69:75:2c:67:2b:db:10:44:6e:e7:6d:cf:97:9f:dd:
         94:db:5c:8e:c2:03:7d:b1:9f:20:fb:90:93:94:0e:6c:6e:e4:
         0c:a3:b3:ed:ba:58:34:9c:46:e8:3c:ae:5d:51:c1:5d:1f:65:
         96:76:3d:45:ef:49:3c:a3:8e:cb:67:5a:a2:7d:5f:46:2d:4f:
         8f:c7:7b:21:5b:30:21:37:5b:96:0c:df:c6:5c:22:bd:e6:4a:
         ad:b8:ef:1a:d9:3d:0e:cf:4e:03:e4:9d:a4:9b:8b:1e:43:6e:
         17:21:30:ce:17:6a:a9:e7:0f:07:f8:0e:77:f9:06:c3:95:90:
         8f:6d:a0:81:d0:72:63:45:fc:0c:28:3b:ab:a2:53:03:9e:50:
         91:f1:4f:5d:2a:6b:5b:43:cd:cf:4a:e1:26:cf:01:13:b0:69:
         a2:87:05:75:d0:f6:76:96:12:ed:5a:42:7f:53:2c:9e:01:e5:
         6e:14:e9:36
-----BEGIN CERTIFICATE-----
MIIDXTCCAkWgAwIBAgIRANqWvz58sKDQuLPIK/e7HvkwDQYJKoZIhvcNAQELBQAw
FjEUMBIGA1UEAwwLdGVhbTM1Ni1uZXQwHhcNMjEwOTEzMDIwMDA5WhcNMjQwODI4
MDIwMDA5WjAZMRcwFQYDVQQDDA50ZWFtMzU2LWNsaWVudDCCASIwDQYJKoZIhvcN
AQEBBQADggEPADCCAQoCggEBAOXQaq3IyETmTl157g2WpWSo9x0wql1SFcbT/rhs
QhtYFjR0hDLDKXWpPk5ID/hK+HAukRVbMNLJ6WZCIDl/TXONIi5A4W+uUHEMiQRl
l54mQ1sdpvB6Chx71J6HIaUOSkNGGU5WPognHjmXDf621NDJDw9p9eiyITvZ0grU
58AFkxbYDKNS9j/7IwQ6gWWV8NXyI/TQKOIwKkD8cnlx/JPcDhthMBGJZ8VM4p1Z
7ysCyeC5ajVrPqVZSHBSVuOv4f0RNagL5HlgDzQEg2SolYd5DD/tzTqINvxuDnxW
eWwmZM00902hAeKoQyW/i+PmH+FhjjvQbAs87ZU4FqcRIBMCAwEAAaOBojCBnzAJ
BgNVHRMEAjAAMB0GA1UdDgQWBBTfLXndhc47HVDkJQmc73OUP3oj4zBRBgNVHSME
SjBIgBR4BATwQzMUZTp//qqxweaBQlPtf6EapBgwFjEUMBIGA1UEAwwLdGVhbTM1
Ni1uZXSCFC2PIhdiNiNHg99JNtUGA7Bx7GUyMBMGA1UdJQQMMAoGCCsGAQUFBwMC
MAsGA1UdDwQEAwIHgDANBgkqhkiG9w0BAQsFAAOCAQEAMuMsJMtJOcg4CpuHAltx
iItNNj9RtKH5pAGkpryI+f0twCWJyoeRP/zokSTTmLkicojnbmMFnTgliKTypho5
bhyjhfxLoVThQMVsaXUsZyvbEERu523Pl5/dlNtcjsIDfbGfIPuQk5QObG7kDKOz
7bpYNJxG6DyuXVHBXR9llnY9Re9JPKOOy2daon1fRi1Pj8d7IVswITdblgzfxlwi
veZKrbjvGtk9Ds9OA+SdpJuLHkNuFyEwzhdqqecPB/gOd/kGw5WQj22ggdByY0X8
DCg7q6JTA55QkfFPXSprW0PNz0rhJs8BE7BpoocFddD2dpYS7VpCf1MsngHlbhTp
Ng==
-----END CERTIFICATE-----
