Certificate:
    Data:
        Version: 3 (0x2)
        Serial Number:
            24:f5:11:b4:2b:c6:19:ce:32:03:06:be:0b:13:f7:d2
        Signature Algorithm: sha256WithRSAEncryption
        Issuer: CN=team343-net
        Validity
            Not Before: Sep 13 01:56:09 2021 GMT
            Not After : Aug 28 01:56:09 2024 GMT
        Subject: CN=team343-client
        Subject Public Key Info:
            Public Key Algorithm: rsaEncryption
                RSA Public-Key: (2048 bit)
                Modulus:
                    00:d4:6c:f6:1f:38:7b:a2:06:dd:1c:15:6b:5c:48:
                    c3:20:27:74:4b:5d:dc:0e:39:38:cf:38:7f:c9:01:
                    e0:ec:03:9b:e7:52:de:0f:f0:72:51:bf:89:d6:88:
                    c3:cf:73:39:2d:d6:b3:41:93:c1:31:f8:9a:fd:aa:
                    6d:80:bc:14:76:bc:f2:6d:b6:ae:29:7a:fa:9c:c5:
                    38:6d:fa:2a:6d:dc:46:23:0d:1b:97:0b:42:2e:73:
                    a5:37:18:8b:83:30:60:e1:86:94:61:48:71:f7:06:
                    b6:4d:0c:53:a1:6b:db:a3:a9:13:78:eb:a8:0a:e7:
                    96:79:15:1f:71:0c:25:8c:be:8f:37:85:91:5f:b7:
                    6b:da:fa:ef:cb:35:53:9b:bd:fa:cd:43:b3:58:65:
                    ee:80:85:d4:0e:86:85:09:fa:9d:95:fa:47:38:aa:
                    6c:8d:12:05:9f:cd:29:8e:94:dd:b6:60:5b:e0:8f:
                    41:4f:99:5e:e0:9e:76:66:96:e7:23:33:4a:a1:ac:
                    8a:3e:fc:37:9b:43:85:f9:a6:12:3b:a6:11:6f:44:
                    2d:f5:b1:1e:5d:9a:c0:e6:91:c1:51:5c:56:48:4e:
                    46:8b:5a:18:35:6c:7a:74:5d:6f:f4:7d:3c:be:c3:
                    09:a9:31:34:2c:46:2f:f0:b5:a5:f0:33:19:4a:3c:
                    38:55
                Exponent: 65537 (0x10001)
        X509v3 extensions:
            X509v3 Basic Constraints: 
                CA:FALSE
            X509v3 Subject Key Identifier: 
                2D:CE:C9:21:5C:4F:4F:87:3E:BE:F4:8E:56:C7:69:35:48:85:B5:32
            X509v3 Authority Key Identifier: 
                keyid:83:39:0C:0E:E2:8C:DC:0D:F3:2E:C3:98:84:AC:30:7E:BC:97:00:BF
                DirName:/CN=team343-net
                serial:7C:33:68:7A:61:6D:AD:8C:93:7D:6B:5D:39:4D:72:E5:9F:3C:F8:42

            X509v3 Extended Key Usage: 
                TLS Web Client Authentication
            X509v3 Key Usage: 
                Digital Signature
    Signature Algorithm: sha256WithRSAEncryption
         93:46:24:02:3f:0f:24:a7:7e:1d:ab:ac:d7:70:21:38:0f:db:
         89:db:b2:6f:4d:56:cf:67:26:be:d5:eb:bb:13:da:fa:9f:70:
         d1:ee:aa:90:79:78:24:50:1c:e9:7b:85:eb:c3:8e:70:dc:06:
         3b:fe:9c:bd:ad:af:ee:68:5d:06:c5:58:49:4f:60:c1:6b:87:
         bb:26:ce:9c:75:f5:af:77:62:4d:51:cc:13:f0:66:8b:36:ef:
         64:67:c3:8f:95:e3:1e:cc:1d:a2:87:68:93:3c:1f:1b:2a:14:
         8f:0b:40:e2:59:52:bb:cf:a5:1c:fe:51:37:6a:11:39:a4:44:
         3d:02:1a:12:8f:3c:98:97:d8:40:6c:22:56:ca:e7:78:53:11:
         72:09:09:a6:a2:7a:0a:cc:41:06:b9:53:0f:00:74:17:4d:0b:
         01:b8:c2:a4:92:fe:65:70:91:5e:a2:85:a1:e8:14:b0:d2:e7:
         84:80:ea:12:09:2d:cf:18:8a:41:9b:d5:e2:0e:68:38:29:fa:
         17:e0:da:0b:1d:a6:23:e2:67:2c:5b:72:5b:83:ac:fd:78:76:
         68:aa:08:0b:8b:73:a0:96:c7:9f:0a:54:34:8d:01:3c:f8:00:
         1d:de:f7:23:f3:bd:f9:c5:8d:36:6e:fe:c6:cc:f3:43:7a:6b:
         f2:bd:7d:05
-----BEGIN CERTIFICATE-----
MIIDXDCCAkSgAwIBAgIQJPURtCvGGc4yAwa+CxP30jANBgkqhkiG9w0BAQsFADAW
MRQwEgYDVQQDDAt0ZWFtMzQzLW5ldDAeFw0yMTA5MTMwMTU2MDlaFw0yNDA4Mjgw
MTU2MDlaMBkxFzAVBgNVBAMMDnRlYW0zNDMtY2xpZW50MIIBIjANBgkqhkiG9w0B
AQEFAAOCAQ8AMIIBCgKCAQEA1Gz2Hzh7ogbdHBVrXEjDICd0S13cDjk4zzh/yQHg
7AOb51LeD/ByUb+J1ojDz3M5LdazQZPBMfia/aptgLwUdrzybbauKXr6nMU4bfoq
bdxGIw0blwtCLnOlNxiLgzBg4YaUYUhx9wa2TQxToWvbo6kTeOuoCueWeRUfcQwl
jL6PN4WRX7dr2vrvyzVTm736zUOzWGXugIXUDoaFCfqdlfpHOKpsjRIFn80pjpTd
tmBb4I9BT5le4J52ZpbnIzNKoayKPvw3m0OF+aYSO6YRb0Qt9bEeXZrA5pHBUVxW
SE5Gi1oYNWx6dF1v9H08vsMJqTE0LEYv8LWl8DMZSjw4VQIDAQABo4GiMIGfMAkG
A1UdEwQCMAAwHQYDVR0OBBYEFC3OySFcT0+HPr70jlbHaTVIhbUyMFEGA1UdIwRK
MEiAFIM5DA7ijNwN8y7DmISsMH68lwC/oRqkGDAWMRQwEgYDVQQDDAt0ZWFtMzQz
LW5ldIIUfDNoemFtrYyTfWtdOU1y5Z88+EIwEwYDVR0lBAwwCgYIKwYBBQUHAwIw
CwYDVR0PBAQDAgeAMA0GCSqGSIb3DQEBCwUAA4IBAQCTRiQCPw8kp34dq6zXcCE4
D9uJ27JvTVbPZya+1eu7E9r6n3DR7qqQeXgkUBzpe4Xrw45w3AY7/py9ra/uaF0G
xVhJT2DBa4e7Js6cdfWvd2JNUcwT8GaLNu9kZ8OPleMezB2ih2iTPB8bKhSPC0Di
WVK7z6Uc/lE3ahE5pEQ9AhoSjzyYl9hAbCJWyud4UxFyCQmmonoKzEEGuVMPAHQX
TQsBuMKkkv5lcJFeooWh6BSw0ueEgOoSCS3PGIpBm9XiDmg4KfoX4NoLHaYj4mcs
W3Jbg6z9eHZoqggLi3OglsefClQ0jQE8+AAd3vcj8735xY02bv7GzPNDemvyvX0F
-----END CERTIFICATE-----
