Certificate:
    Data:
        Version: 3 (0x2)
        Serial Number:
            7c:f5:95:6c:f9:0a:3d:d9:f5:50:90:cc:11:fb:ea:19
        Signature Algorithm: sha256WithRSAEncryption
        Issuer: CN=team343-net
        Validity
            Not Before: Sep 13 01:56:10 2021 GMT
            Not After : Aug 28 01:56:10 2024 GMT
        Subject: CN=team343-server
        Subject Public Key Info:
            Public Key Algorithm: rsaEncryption
                RSA Public-Key: (2048 bit)
                Modulus:
                    00:cf:30:b7:49:46:79:19:9a:b7:56:b9:ca:25:9e:
                    74:0a:2a:e2:4a:da:51:31:e3:93:7c:8d:fb:e3:50:
                    3a:29:6e:37:ec:cd:b8:0b:c3:56:04:b8:17:91:1a:
                    d5:3c:fb:5a:d4:23:de:2e:7b:ec:33:72:1e:96:6e:
                    f7:b6:b5:7e:55:48:f3:a8:44:39:bf:84:a5:cd:3a:
                    a1:45:cb:04:d8:13:05:f1:97:2d:ba:70:28:14:43:
                    00:1f:5d:6b:4d:cb:be:40:3c:8f:71:ba:5b:10:62:
                    cb:d0:af:96:be:49:50:7c:ca:43:d4:ef:6e:29:a0:
                    2e:b4:bc:f4:cf:19:51:66:f5:c5:d5:6e:50:da:ed:
                    bf:08:7f:32:b2:7e:d6:d6:cc:7d:43:0b:4a:cf:75:
                    d7:d5:6f:31:bc:46:24:de:00:dc:74:4c:b3:f3:58:
                    99:02:29:b1:31:e6:4f:c8:83:82:2b:8e:80:2a:6b:
                    dc:fb:54:1a:d6:3f:a1:4a:4a:6d:08:df:e7:1e:08:
                    f6:30:ea:34:02:d1:91:42:74:b0:d4:53:29:03:d7:
                    83:e3:a2:8c:ca:4d:5b:37:81:c7:91:5f:0b:b7:03:
                    c7:8c:33:bf:62:4b:a6:1f:93:3e:44:51:6f:9b:d2:
                    a8:88:35:57:26:e8:4c:28:9c:40:e5:7e:9e:f0:26:
                    96:bf
                Exponent: 65537 (0x10001)
        X509v3 extensions:
            X509v3 Basic Constraints: 
                CA:FALSE
            X509v3 Subject Key Identifier: 
                B9:D8:88:31:56:D3:46:10:53:51:7F:08:BF:76:5B:8C:B1:E9:F6:83
            X509v3 Authority Key Identifier: 
                keyid:83:39:0C:0E:E2:8C:DC:0D:F3:2E:C3:98:84:AC:30:7E:BC:97:00:BF
                DirName:/CN=team343-net
                serial:7C:33:68:7A:61:6D:AD:8C:93:7D:6B:5D:39:4D:72:E5:9F:3C:F8:42

            X509v3 Extended Key Usage: 
                TLS Web Server Authentication
            X509v3 Key Usage: 
                Digital Signature, Key Encipherment
            X509v3 Subject Alternative Name: 
                DNS:team343-server
    Signature Algorithm: sha256WithRSAEncryption
         7f:5c:4d:21:d1:6d:1c:39:1c:52:b7:ac:49:52:f2:62:3a:71:
         93:17:d8:da:5a:e5:24:6b:a4:6f:2e:6c:ef:6d:7c:ab:34:d2:
         21:98:b0:f6:a0:b7:38:32:53:be:7a:92:22:58:5f:f0:74:62:
         6c:54:01:87:fa:29:8c:de:0c:fd:fd:4f:76:bb:f1:29:e6:85:
         be:29:dc:df:0f:c0:18:93:a8:55:2f:07:4c:fe:40:a4:bd:d4:
         53:7a:c0:14:9a:9d:ae:94:60:71:7c:f0:91:10:19:f0:be:41:
         cf:a8:d9:9e:d3:be:30:fc:f2:91:00:d1:2a:05:1d:5f:4f:ad:
         db:08:07:66:31:b0:9e:ad:1d:77:2c:60:1b:26:06:41:65:86:
         0d:c5:c0:74:97:48:6c:3c:8b:6d:9c:0e:49:58:94:47:63:45:
         89:dd:6d:0d:60:74:28:3a:c5:fa:53:0a:c1:6b:f4:fb:d0:09:
         ed:24:da:ea:00:98:d2:6d:d3:d6:82:65:b5:54:28:22:3a:1e:
         3a:39:d4:20:2e:70:08:03:b7:63:9f:92:57:e5:83:de:30:dd:
         b8:b8:31:c8:7a:04:33:46:a8:10:00:8c:2b:65:ec:b9:76:4e:
         0e:6f:ed:51:36:15:05:d4:86:97:4e:83:98:65:51:0e:1d:8c:
         07:46:87:bf
-----BEGIN CERTIFICATE-----
MIIDdzCCAl+gAwIBAgIQfPWVbPkKPdn1UJDMEfvqGTANBgkqhkiG9w0BAQsFADAW
MRQwEgYDVQQDDAt0ZWFtMzQzLW5ldDAeFw0yMTA5MTMwMTU2MTBaFw0yNDA4Mjgw
MTU2MTBaMBkxFzAVBgNVBAMMDnRlYW0zNDMtc2VydmVyMIIBIjANBgkqhkiG9w0B
AQEFAAOCAQ8AMIIBCgKCAQEAzzC3SUZ5GZq3VrnKJZ50CiriStpRMeOTfI3741A6
KW437M24C8NWBLgXkRrVPPta1CPeLnvsM3Ielm73trV+VUjzqEQ5v4SlzTqhRcsE
2BMF8ZctunAoFEMAH11rTcu+QDyPcbpbEGLL0K+WvklQfMpD1O9uKaAutLz0zxlR
ZvXF1W5Q2u2/CH8ysn7W1sx9QwtKz3XX1W8xvEYk3gDcdEyz81iZAimxMeZPyIOC
K46AKmvc+1Qa1j+hSkptCN/nHgj2MOo0AtGRQnSw1FMpA9eD46KMyk1bN4HHkV8L
twPHjDO/YkumH5M+RFFvm9KoiDVXJuhMKJxA5X6e8CaWvwIDAQABo4G9MIG6MAkG
A1UdEwQCMAAwHQYDVR0OBBYEFLnYiDFW00YQU1F/CL92W4yx6faDMFEGA1UdIwRK
MEiAFIM5DA7ijNwN8y7DmISsMH68lwC/oRqkGDAWMRQwEgYDVQQDDAt0ZWFtMzQz
LW5ldIIUfDNoemFtrYyTfWtdOU1y5Z88+EIwEwYDVR0lBAwwCgYIKwYBBQUHAwEw
CwYDVR0PBAQDAgWgMBkGA1UdEQQSMBCCDnRlYW0zNDMtc2VydmVyMA0GCSqGSIb3
DQEBCwUAA4IBAQB/XE0h0W0cORxSt6xJUvJiOnGTF9jaWuUka6RvLmzvbXyrNNIh
mLD2oLc4MlO+epIiWF/wdGJsVAGH+imM3gz9/U92u/Ep5oW+KdzfD8AYk6hVLwdM
/kCkvdRTesAUmp2ulGBxfPCREBnwvkHPqNme074w/PKRANEqBR1fT63bCAdmMbCe
rR13LGAbJgZBZYYNxcB0l0hsPIttnA5JWJRHY0WJ3W0NYHQoOsX6UwrBa/T70Ant
JNrqAJjSbdPWgmW1VCgiOh46OdQgLnAIA7djn5JX5YPeMN24uDHIegQzRqgQAIwr
Zey5dk4Ob+1RNhUF1IaXToOYZVEOHYwHRoe/
-----END CERTIFICATE-----
