Certificate:
    Data:
        Version: 3 (0x2)
        Serial Number:
            21:36:45:d6:cd:d5:2f:99:c9:a7:db:51:ef:21:4b:0f
        Signature Algorithm: sha256WithRSAEncryption
        Issuer: CN=team272-net
        Validity
            Not Before: Sep 13 01:15:36 2021 GMT
            Not After : Aug 28 01:15:36 2024 GMT
        Subject: CN=team272-server
        Subject Public Key Info:
            Public Key Algorithm: rsaEncryption
                RSA Public-Key: (2048 bit)
                Modulus:
                    00:d8:67:06:f4:29:a6:41:07:aa:dc:06:ea:54:ea:
                    fb:33:5f:44:87:c6:01:7f:7f:5a:ba:4e:fa:57:cc:
                    7b:9b:5a:e7:2e:2a:4c:7c:a6:c6:2d:8b:2c:eb:e7:
                    0b:b3:47:fd:18:1e:17:d3:74:97:d3:5c:4a:35:16:
                    71:9a:20:bc:34:e2:96:c9:87:6d:51:ce:19:1c:33:
                    f8:0f:52:4a:35:91:44:a9:1b:cf:d5:78:b4:83:f0:
                    32:da:d8:c2:30:5d:7a:86:a6:96:a1:4f:6f:38:82:
                    b8:ec:e6:ea:82:06:c6:78:d0:cb:1b:93:f6:b6:1e:
                    fd:14:8e:bb:dd:22:06:5c:49:16:f9:02:e5:44:65:
                    d6:e8:1f:4a:70:3b:39:c8:5a:b6:9f:9a:93:a2:89:
                    07:40:99:b1:b0:10:ed:6e:e6:5c:ed:50:81:f1:20:
                    1d:1c:f7:95:0c:0d:45:30:8f:28:65:7a:65:5e:76:
                    31:cf:06:63:70:c4:d9:f6:26:dc:c5:57:56:53:da:
                    1a:01:b3:26:93:37:e9:cf:e5:99:30:e3:fc:12:59:
                    52:8e:25:43:a4:88:29:30:65:08:d1:a2:2d:98:cc:
                    b9:5c:3d:0d:b2:bf:dc:e0:97:b8:4e:84:27:6f:20:
                    96:70:92:68:b3:31:ef:21:bc:75:07:2a:fc:4d:f4:
                    4a:b1
                Exponent: 65537 (0x10001)
        X509v3 extensions:
            X509v3 Basic Constraints: 
                CA:FALSE
            X509v3 Subject Key Identifier: 
                91:2E:C8:A9:71:9E:97:FE:49:F6:30:7D:D8:67:84:8F:DF:62:73:94
            X509v3 Authority Key Identifier: 
                keyid:39:26:2E:22:9E:8C:66:1E:15:E6:BD:13:F4:97:33:77:AD:8E:9F:5B
                DirName:/CN=team272-net
                serial:57:91:45:F7:66:FC:56:26:C1:5D:49:7F:20:8B:0D:7D:2D:4C:62:56

            X509v3 Extended Key Usage: 
                TLS Web Server Authentication
            X509v3 Key Usage: 
                Digital Signature, Key Encipherment
            X509v3 Subject Alternative Name: 
                DNS:team272-server
    Signature Algorithm: sha256WithRSAEncryption
         b7:39:61:0d:43:0e:06:c1:b2:f2:2b:24:80:d6:92:03:d9:14:
         66:1c:78:a8:15:ed:e1:1d:74:90:1e:b0:23:69:58:4c:8d:0d:
         13:be:9a:a6:ee:4f:51:ed:26:3d:5f:44:76:e7:46:89:51:52:
         ee:66:63:fe:1c:ed:35:d1:d0:2f:79:35:f8:c7:47:9e:23:7f:
         70:a4:b9:a6:df:0a:d4:1e:78:cf:be:2d:2c:f6:a8:40:d8:2e:
         ec:9f:f6:4c:b9:c7:95:87:91:12:06:a2:6b:b0:0a:93:19:11:
         30:13:e8:f8:cd:03:bc:5e:91:0b:ef:d7:ca:66:fd:06:2a:39:
         9b:12:a4:e7:3d:8b:25:81:5d:ec:d3:c6:9a:99:22:57:4e:4a:
         72:c5:44:d1:ae:63:c3:9d:f6:69:c4:84:d2:ef:f2:bd:6d:99:
         ea:e7:af:27:c4:46:78:e7:75:36:62:16:aa:91:e0:c1:5b:73:
         23:ba:d4:0c:4b:11:76:db:c3:47:78:86:07:a8:1e:8f:0d:b7:
         b6:ab:ca:cc:6f:61:cf:9e:4e:5b:1a:71:bd:e6:aa:c7:52:bf:
         38:f3:e8:60:5c:91:66:51:32:e9:0b:f2:48:6f:72:56:a4:bf:
         e4:20:46:0b:a7:38:d0:e0:af:14:04:d8:2e:52:42:48:a3:08:
         b8:da:7e:ca
-----BEGIN CERTIFICATE-----
MIIDdzCCAl+gAwIBAgIQITZF1s3VL5nJp9tR7yFLDzANBgkqhkiG9w0BAQsFADAW
MRQwEgYDVQQDDAt0ZWFtMjcyLW5ldDAeFw0yMTA5MTMwMTE1MzZaFw0yNDA4Mjgw
MTE1MzZaMBkxFzAVBgNVBAMMDnRlYW0yNzItc2VydmVyMIIBIjANBgkqhkiG9w0B
AQEFAAOCAQ8AMIIBCgKCAQEA2GcG9CmmQQeq3AbqVOr7M19Eh8YBf39auk76V8x7
m1rnLipMfKbGLYss6+cLs0f9GB4X03SX01xKNRZxmiC8NOKWyYdtUc4ZHDP4D1JK
NZFEqRvP1Xi0g/Ay2tjCMF16hqaWoU9vOIK47ObqggbGeNDLG5P2th79FI673SIG
XEkW+QLlRGXW6B9KcDs5yFq2n5qTookHQJmxsBDtbuZc7VCB8SAdHPeVDA1FMI8o
ZXplXnYxzwZjcMTZ9ibcxVdWU9oaAbMmkzfpz+WZMOP8EllSjiVDpIgpMGUI0aIt
mMy5XD0Nsr/c4Je4ToQnbyCWcJJoszHvIbx1Byr8TfRKsQIDAQABo4G9MIG6MAkG
A1UdEwQCMAAwHQYDVR0OBBYEFJEuyKlxnpf+SfYwfdhnhI/fYnOUMFEGA1UdIwRK
MEiAFDkmLiKejGYeFea9E/SXM3etjp9boRqkGDAWMRQwEgYDVQQDDAt0ZWFtMjcy
LW5ldIIUV5FF92b8VibBXUl/IIsNfS1MYlYwEwYDVR0lBAwwCgYIKwYBBQUHAwEw
CwYDVR0PBAQDAgWgMBkGA1UdEQQSMBCCDnRlYW0yNzItc2VydmVyMA0GCSqGSIb3
DQEBCwUAA4IBAQC3OWENQw4GwbLyKySA1pID2RRmHHioFe3hHXSQHrAjaVhMjQ0T
vpqm7k9R7SY9X0R250aJUVLuZmP+HO010dAveTX4x0eeI39wpLmm3wrUHnjPvi0s
9qhA2C7sn/ZMuceVh5ESBqJrsAqTGREwE+j4zQO8XpEL79fKZv0GKjmbEqTnPYsl
gV3s08aamSJXTkpyxUTRrmPDnfZpxITS7/K9bZnq568nxEZ453U2YhaqkeDBW3Mj
utQMSxF228NHeIYHqB6PDbe2q8rMb2HPnk5bGnG95qrHUr848+hgXJFmUTLpC/JI
b3JWpL/kIEYLpzjQ4K8UBNguUkJIowi42n7K
-----END CERTIFICATE-----
