Certificate:
    Data:
        Version: 3 (0x2)
        Serial Number:
            20:83:37:52:3d:f4:33:20:4c:3a:20:d5:15:15:c3:82
        Signature Algorithm: sha256WithRSAEncryption
        Issuer: CN=team397-net
        Validity
            Not Before: Sep 13 02:21:38 2021 GMT
            Not After : Aug 28 02:21:38 2024 GMT
        Subject: CN=team397-client
        Subject Public Key Info:
            Public Key Algorithm: rsaEncryption
                RSA Public-Key: (2048 bit)
                Modulus:
                    00:9e:17:f2:32:ac:6d:55:c4:83:3b:96:95:47:35:
                    59:5c:49:72:23:48:99:25:38:3b:1b:98:f1:c7:02:
                    0b:c9:60:5f:41:7e:d6:46:d7:e9:fc:71:63:3d:a0:
                    ff:8e:70:fc:f7:66:ce:42:cf:1c:f7:10:b8:17:4d:
                    a3:f8:15:cf:f2:c9:d9:65:bd:00:be:7f:0b:92:12:
                    f2:e6:7d:9e:a3:9c:13:f2:77:7d:89:54:49:a5:a2:
                    08:06:31:ca:3b:76:de:73:8c:36:93:fd:4e:c7:b7:
                    6b:9c:a3:43:c8:bf:90:ca:a2:88:c7:f4:ec:72:bc:
                    f4:44:75:a5:12:23:1d:fd:aa:ca:da:02:6f:18:d7:
                    87:03:61:57:ce:51:dc:1f:cb:55:43:5e:61:26:97:
                    30:7b:42:9b:5b:1e:07:47:5a:27:ff:d2:8f:af:46:
                    8f:98:3b:98:23:99:83:1b:e6:f5:d7:6e:39:5f:1e:
                    7b:93:81:d2:11:8a:0a:4f:d7:1c:49:ec:cb:e2:ff:
                    3c:7e:57:f1:71:c9:43:25:42:e4:dc:19:8f:29:6e:
                    e0:e9:b8:fc:9f:61:97:4b:68:a2:bb:19:3e:99:bb:
                    8c:cf:75:9b:20:2a:de:7c:d3:dd:34:a7:a1:76:8c:
                    13:6f:8d:90:df:d1:ad:ef:95:cf:8b:68:96:d0:35:
                    55:8d
                Exponent: 65537 (0x10001)
        X509v3 extensions:
            X509v3 Basic Constraints: 
                CA:FALSE
            X509v3 Subject Key Identifier: 
                9B:0B:D2:68:29:48:8B:E9:20:18:22:4C:32:DA:6E:30:5E:7D:41:BD
            X509v3 Authority Key Identifier: 
                keyid:B9:4F:B9:85:95:1F:21:FF:D6:0C:CA:D3:5F:52:90:CE:38:35:D8:E5
                DirName:/CN=team397-net
                serial:42:EE:07:1F:84:45:F6:0F:33:E1:50:5E:BF:33:A9:C9:9A:3F:51:2F

            X509v3 Extended Key Usage: 
                TLS Web Client Authentication
            X509v3 Key Usage: 
                Digital Signature
    Signature Algorithm: sha256WithRSAEncryption
         9b:0c:3c:1b:ee:27:56:64:4a:e2:b8:88:7b:8a:f3:ad:e7:f0:
         00:6f:3b:6b:9b:94:df:f7:05:98:26:b3:61:d2:9b:0c:80:b3:
         15:cd:18:0c:44:1b:b6:bb:f9:d3:e2:9b:73:95:3e:13:0b:27:
         cb:20:5e:5d:f2:ce:d0:66:ab:08:49:0c:88:1d:a7:9f:8f:30:
         fd:08:28:11:70:c4:cf:bd:e9:ab:25:da:ff:96:12:ad:a5:d7:
         ad:2d:82:31:56:76:23:bf:ce:96:72:59:62:d9:87:a5:1c:1b:
         e5:45:95:f1:a9:2c:17:d7:47:c9:45:7e:7c:09:55:29:b1:ac:
         1f:d9:c5:9a:49:89:75:27:c8:1f:b7:42:39:cd:63:c1:14:f0:
         8e:8e:0b:78:01:b1:05:4f:51:9a:f9:ad:d4:5d:5e:c6:ec:9d:
         3e:f1:9c:50:8e:de:d5:48:54:fc:20:90:bd:54:a9:2e:0a:45:
         86:18:ee:30:88:0c:1a:75:77:06:73:c1:ff:61:d8:b0:d2:f8:
         4e:2f:87:b3:3b:dc:09:7d:50:07:16:27:89:0f:b9:ab:0e:65:
         68:f8:f8:d5:31:1f:48:74:15:bc:69:7f:d4:6d:e4:fb:14:e2:
         4b:0e:41:f9:14:c7:48:d8:db:da:0d:1e:51:da:59:63:af:96:
         be:f8:6e:8e
-----BEGIN CERTIFICATE-----
MIIDXDCCAkSgAwIBAgIQIIM3Uj30MyBMOiDVFRXDgjANBgkqhkiG9w0BAQsFADAW
MRQwEgYDVQQDDAt0ZWFtMzk3LW5ldDAeFw0yMTA5MTMwMjIxMzhaFw0yNDA4Mjgw
MjIxMzhaMBkxFzAVBgNVBAMMDnRlYW0zOTctY2xpZW50MIIBIjANBgkqhkiG9w0B
AQEFAAOCAQ8AMIIBCgKCAQEAnhfyMqxtVcSDO5aVRzVZXElyI0iZJTg7G5jxxwIL
yWBfQX7WRtfp/HFjPaD/jnD892bOQs8c9xC4F02j+BXP8snZZb0Avn8LkhLy5n2e
o5wT8nd9iVRJpaIIBjHKO3bec4w2k/1Ox7drnKNDyL+QyqKIx/Tscrz0RHWlEiMd
/arK2gJvGNeHA2FXzlHcH8tVQ15hJpcwe0KbWx4HR1on/9KPr0aPmDuYI5mDG+b1
1245Xx57k4HSEYoKT9ccSezL4v88flfxcclDJULk3BmPKW7g6bj8n2GXS2iiuxk+
mbuMz3WbICrefNPdNKehdowTb42Q39Gt75XPi2iW0DVVjQIDAQABo4GiMIGfMAkG
A1UdEwQCMAAwHQYDVR0OBBYEFJsL0mgpSIvpIBgiTDLabjBefUG9MFEGA1UdIwRK
MEiAFLlPuYWVHyH/1gzK019SkM44NdjloRqkGDAWMRQwEgYDVQQDDAt0ZWFtMzk3
LW5ldIIUQu4HH4RF9g8z4VBevzOpyZo/US8wEwYDVR0lBAwwCgYIKwYBBQUHAwIw
CwYDVR0PBAQDAgeAMA0GCSqGSIb3DQEBCwUAA4IBAQCbDDwb7idWZEriuIh7ivOt
5/AAbztrm5Tf9wWYJrNh0psMgLMVzRgMRBu2u/nT4ptzlT4TCyfLIF5d8s7QZqsI
SQyIHaefjzD9CCgRcMTPvemrJdr/lhKtpdetLYIxVnYjv86Wclli2YelHBvlRZXx
qSwX10fJRX58CVUpsawf2cWaSYl1J8gft0I5zWPBFPCOjgt4AbEFT1Ga+a3UXV7G
7J0+8ZxQjt7VSFT8IJC9VKkuCkWGGO4wiAwadXcGc8H/Ydiw0vhOL4ezO9wJfVAH
FieJD7mrDmVo+PjVMR9IdBW8aX/UbeT7FOJLDkH5FMdI2NvaDR5R2lljr5a++G6O
-----END CERTIFICATE-----
