Certificate:
    Data:
        Version: 3 (0x2)
        Serial Number:
            ef:12:f3:bd:a9:24:58:f0:73:43:2b:ef:f3:10:1e:ab
        Signature Algorithm: sha256WithRSAEncryption
        Issuer: CN=team436-net
        Validity
            Not Before: Sep 13 02:34:45 2021 GMT
            Not After : Aug 28 02:34:45 2024 GMT
        Subject: CN=team436-client
        Subject Public Key Info:
            Public Key Algorithm: rsaEncryption
                RSA Public-Key: (2048 bit)
                Modulus:
                    00:ab:b8:ed:4b:e4:36:0e:ae:30:f2:0c:2b:a8:55:
                    01:fe:bc:53:a0:9a:24:fa:a0:03:c9:0b:16:a1:77:
                    05:c7:fb:a8:3b:4b:99:cc:06:a9:e4:4e:64:cd:de:
                    a3:af:c4:55:01:83:4f:68:08:1f:e7:da:9b:53:30:
                    81:ca:18:dd:b0:cb:96:98:37:56:8c:a4:db:7b:1a:
                    a1:8b:ae:d6:5a:86:1a:98:30:66:1f:04:09:63:ed:
                    97:e6:b9:62:e1:d4:af:fa:61:54:56:45:9f:35:ef:
                    3d:c6:78:86:71:21:98:32:23:63:6d:9c:e3:50:7f:
                    f6:2a:72:60:1f:ae:65:96:af:42:82:9a:d8:dd:ed:
                    19:ec:cd:a4:23:30:fe:1f:a4:c0:46:86:3a:0b:24:
                    5a:2a:8b:68:bf:cb:5e:84:c4:42:69:0e:80:a1:b9:
                    cc:01:c8:6d:b4:c0:9a:bf:08:d8:95:b4:c6:b7:b0:
                    62:87:83:45:90:19:cb:bb:38:12:a9:fa:2e:47:81:
                    88:4d:19:8e:25:7c:27:15:8a:a2:8e:04:30:0b:54:
                    2e:7e:e1:19:67:c7:d7:8e:ff:e1:62:e8:81:57:47:
                    cd:fe:5c:0f:bc:50:a1:c6:50:86:ab:f9:e4:10:4d:
                    0a:72:a2:f0:e6:26:a4:16:22:8e:c1:da:4e:0a:fd:
                    68:6b
                Exponent: 65537 (0x10001)
        X509v3 extensions:
            X509v3 Basic Constraints: 
                CA:FALSE
            X509v3 Subject Key Identifier: 
                1E:01:97:D8:60:28:91:0C:75:D6:BA:68:DD:6D:1B:BF:74:B1:0E:1A
            X509v3 Authority Key Identifier: 
                keyid:33:71:63:35:86:E3:63:A9:65:E8:10:6B:FB:10:A2:3C:9C:4E:E8:4C
                DirName:/CN=team436-net
                serial:15:E4:8A:49:E9:D6:E2:D0:CB:A6:F1:77:53:DB:73:31:3D:E8:9C:F9

            X509v3 Extended Key Usage: 
                TLS Web Client Authentication
            X509v3 Key Usage: 
                Digital Signature
    Signature Algorithm: sha256WithRSAEncryption
         5f:f9:cc:be:af:af:17:9b:ba:4e:3a:69:36:d0:0b:9d:67:5c:
         86:64:e2:a6:bf:42:04:23:16:85:0d:63:74:28:43:ed:97:c7:
         5d:6f:f8:95:f8:cd:ef:10:5a:48:6f:a5:6d:e3:8a:87:a5:38:
         d6:7c:24:2f:39:f8:d5:e5:3c:f9:40:11:63:43:75:f4:f2:4f:
         87:01:52:21:e3:a3:5c:59:36:b4:b8:20:00:d5:02:d0:e5:f1:
         89:74:96:d7:1f:41:32:88:36:bf:ab:c4:86:e3:43:e1:e5:29:
         1b:9e:fc:8f:72:a3:19:0b:5f:9a:59:06:50:ce:29:01:5d:0a:
         ba:ab:b0:c9:7b:b3:ff:35:df:17:bf:bd:de:e2:17:86:c6:70:
         65:d7:fe:bc:aa:a1:8e:34:9e:df:db:a8:93:f2:56:7e:28:fe:
         c2:a0:7a:fc:e8:dc:10:02:50:49:e1:35:15:a3:14:66:42:7d:
         a4:34:c3:7b:1e:d6:14:41:64:46:dd:0e:1c:19:70:2d:64:3e:
         ff:97:7f:83:d1:7a:b9:74:3b:86:d1:bb:a1:cb:24:20:d9:72:
         72:dc:81:52:1c:b5:3e:77:39:2b:65:ae:bc:7d:84:52:54:f9:
         ca:3e:50:07:b6:64:77:10:2f:25:c0:99:1b:a4:28:bb:a7:4c:
         2d:97:7c:8d
-----BEGIN CERTIFICATE-----
MIIDXTCCAkWgAwIBAgIRAO8S872pJFjwc0Mr7/MQHqswDQYJKoZIhvcNAQELBQAw
FjEUMBIGA1UEAwwLdGVhbTQzNi1uZXQwHhcNMjEwOTEzMDIzNDQ1WhcNMjQwODI4
MDIzNDQ1WjAZMRcwFQYDVQQDDA50ZWFtNDM2LWNsaWVudDCCASIwDQYJKoZIhvcN
AQEBBQADggEPADCCAQoCggEBAKu47UvkNg6uMPIMK6hVAf68U6CaJPqgA8kLFqF3
Bcf7qDtLmcwGqeROZM3eo6/EVQGDT2gIH+fam1MwgcoY3bDLlpg3Voyk23saoYuu
1lqGGpgwZh8ECWPtl+a5YuHUr/phVFZFnzXvPcZ4hnEhmDIjY22c41B/9ipyYB+u
ZZavQoKa2N3tGezNpCMw/h+kwEaGOgskWiqLaL/LXoTEQmkOgKG5zAHIbbTAmr8I
2JW0xrewYoeDRZAZy7s4Eqn6LkeBiE0ZjiV8JxWKoo4EMAtULn7hGWfH147/4WLo
gVdHzf5cD7xQocZQhqv55BBNCnKi8OYmpBYijsHaTgr9aGsCAwEAAaOBojCBnzAJ
BgNVHRMEAjAAMB0GA1UdDgQWBBQeAZfYYCiRDHXWumjdbRu/dLEOGjBRBgNVHSME
SjBIgBQzcWM1huNjqWXoEGv7EKI8nE7oTKEapBgwFjEUMBIGA1UEAwwLdGVhbTQz
Ni1uZXSCFBXkiknp1uLQy6bxd1PbczE96Jz5MBMGA1UdJQQMMAoGCCsGAQUFBwMC
MAsGA1UdDwQEAwIHgDANBgkqhkiG9w0BAQsFAAOCAQEAX/nMvq+vF5u6TjppNtAL
nWdchmTipr9CBCMWhQ1jdChD7ZfHXW/4lfjN7xBaSG+lbeOKh6U41nwkLzn41eU8
+UARY0N19PJPhwFSIeOjXFk2tLggANUC0OXxiXSW1x9BMog2v6vEhuND4eUpG578
j3KjGQtfmlkGUM4pAV0KuquwyXuz/zXfF7+93uIXhsZwZdf+vKqhjjSe39uok/JW
fij+wqB6/OjcEAJQSeE1FaMUZkJ9pDTDex7WFEFkRt0OHBlwLWQ+/5d/g9F6uXQ7
htG7ocskINlyctyBUhy1Pnc5K2WuvH2EUlT5yj5QB7ZkdxAvJcCZG6Qou6dMLZd8
jQ==
-----END CERTIFICATE-----
