Certificate:
    Data:
        Version: 3 (0x2)
        Serial Number:
            05:8c:45:15:ac:f0:cf:90:27:46:bf:e4:fc:35:68:7d
        Signature Algorithm: sha256WithRSAEncryption
        Issuer: CN=team679-net
        Validity
            Not Before: Sep 13 04:37:49 2021 GMT
            Not After : Aug 28 04:37:49 2024 GMT
        Subject: CN=team679-server
        Subject Public Key Info:
            Public Key Algorithm: rsaEncryption
                RSA Public-Key: (2048 bit)
                Modulus:
                    00:ce:ef:62:31:ad:7b:9d:28:e9:4f:15:b8:51:73:
                    10:a8:6f:c9:68:59:25:17:3c:5e:ab:a1:39:ae:80:
                    ad:f4:eb:72:11:0c:19:7d:32:d3:44:f0:4f:29:01:
                    83:a0:42:b0:4d:93:3f:6d:d2:61:c8:74:91:bc:47:
                    55:55:8c:de:87:09:71:44:09:f7:53:28:b2:36:cf:
                    0f:ac:2d:29:c2:da:0a:39:9d:f1:02:3c:a1:05:e4:
                    31:c0:f2:ec:16:96:bb:a8:30:9e:fa:92:c9:da:f9:
                    53:39:12:3d:f3:af:3f:ca:d4:24:ca:28:68:51:1f:
                    b6:9d:62:e1:1e:76:3d:89:f1:a8:34:42:2f:67:91:
                    6a:ee:cb:c1:80:7b:ff:9a:1a:5f:73:33:d3:3c:6b:
                    ef:7e:f5:43:e3:b4:21:e0:29:f4:3d:86:1a:42:fb:
                    4e:78:85:71:0f:76:84:34:fd:d0:e6:88:c0:63:b6:
                    24:b8:98:41:7b:82:b9:e2:06:b9:fe:19:e6:b4:59:
                    84:d9:a4:9a:ef:4b:47:c6:32:c6:02:87:8a:72:47:
                    66:76:5d:cd:6c:a6:b0:e1:53:dc:f6:c2:ba:35:9d:
                    07:3b:55:1a:94:5f:b6:c4:0f:ce:52:60:36:a5:8f:
                    63:ab:55:27:f7:71:ba:81:a9:ed:dc:bc:59:56:0f:
                    c4:33
                Exponent: 65537 (0x10001)
        X509v3 extensions:
            X509v3 Basic Constraints: 
                CA:FALSE
            X509v3 Subject Key Identifier: 
                1F:10:F4:9C:30:7A:0A:B4:E1:8D:3F:24:09:B4:36:62:17:A8:EA:73
            X509v3 Authority Key Identifier: 
                keyid:EC:5F:A5:B6:14:FC:55:CB:39:F1:94:7E:77:4C:46:96:5C:4B:02:4A
                DirName:/CN=team679-net
                serial:02:BC:00:8D:E5:E8:62:26:F5:D8:44:C4:93:5C:19:7A:42:50:50:78

            X509v3 Extended Key Usage: 
                TLS Web Server Authentication
            X509v3 Key Usage: 
                Digital Signature, Key Encipherment
            X509v3 Subject Alternative Name: 
                DNS:team679-server
    Signature Algorithm: sha256WithRSAEncryption
         3e:f4:0a:04:a4:88:67:97:ae:2e:da:78:15:fc:df:88:4c:e3:
         f8:30:6e:97:68:73:bc:48:63:d7:9a:4f:02:6c:f8:ed:ad:5b:
         f8:45:ab:91:f4:90:c2:e2:92:1a:2b:d2:74:7a:f7:e1:79:3d:
         d7:90:a4:76:0f:28:4d:e9:92:46:24:d6:ef:01:58:6c:fd:5a:
         65:ae:81:25:bf:9b:0d:ba:27:4b:60:dd:10:2c:a3:51:09:eb:
         7a:06:e5:fc:b2:bc:99:9a:f8:8d:dd:2e:e4:f0:90:a5:2e:18:
         07:5e:d4:36:59:b2:3e:0f:59:f9:49:5d:b1:77:79:46:00:65:
         e3:7c:cf:05:4f:64:0e:0e:3a:6d:9e:a5:e1:bc:c9:b2:00:6f:
         e7:ba:6e:e2:4f:e7:76:8e:bc:3b:c3:39:2c:41:68:92:2f:1e:
         08:de:26:b4:08:2f:af:05:1d:8c:e5:75:7e:04:13:e3:63:83:
         94:bb:95:64:0b:80:3f:8b:07:61:bc:42:27:76:f2:d2:33:fc:
         0f:2e:d6:7c:56:ac:d6:fc:8e:fe:8a:2a:eb:59:72:6f:01:ff:
         42:18:37:d6:84:b4:e4:f5:d3:02:66:8b:06:da:38:15:f4:ce:
         c6:f9:15:65:ea:fe:0c:d0:f9:05:cc:7d:93:87:e0:2d:05:3a:
         7e:66:87:e2
-----BEGIN CERTIFICATE-----
MIIDdzCCAl+gAwIBAgIQBYxFFazwz5AnRr/k/DVofTANBgkqhkiG9w0BAQsFADAW
MRQwEgYDVQQDDAt0ZWFtNjc5LW5ldDAeFw0yMTA5MTMwNDM3NDlaFw0yNDA4Mjgw
NDM3NDlaMBkxFzAVBgNVBAMMDnRlYW02Nzktc2VydmVyMIIBIjANBgkqhkiG9w0B
AQEFAAOCAQ8AMIIBCgKCAQEAzu9iMa17nSjpTxW4UXMQqG/JaFklFzxeq6E5roCt
9OtyEQwZfTLTRPBPKQGDoEKwTZM/bdJhyHSRvEdVVYzehwlxRAn3UyiyNs8PrC0p
wtoKOZ3xAjyhBeQxwPLsFpa7qDCe+pLJ2vlTORI9868/ytQkyihoUR+2nWLhHnY9
ifGoNEIvZ5Fq7svBgHv/mhpfczPTPGvvfvVD47Qh4Cn0PYYaQvtOeIVxD3aENP3Q
5ojAY7YkuJhBe4K54ga5/hnmtFmE2aSa70tHxjLGAoeKckdmdl3NbKaw4VPc9sK6
NZ0HO1UalF+2xA/OUmA2pY9jq1Un93G6gant3LxZVg/EMwIDAQABo4G9MIG6MAkG
A1UdEwQCMAAwHQYDVR0OBBYEFB8Q9Jwwegq04Y0/JAm0NmIXqOpzMFEGA1UdIwRK
MEiAFOxfpbYU/FXLOfGUfndMRpZcSwJKoRqkGDAWMRQwEgYDVQQDDAt0ZWFtNjc5
LW5ldIIUArwAjeXoYib12ETEk1wZekJQUHgwEwYDVR0lBAwwCgYIKwYBBQUHAwEw
CwYDVR0PBAQDAgWgMBkGA1UdEQQSMBCCDnRlYW02Nzktc2VydmVyMA0GCSqGSIb3
DQEBCwUAA4IBAQA+9AoEpIhnl64u2ngV/N+ITOP4MG6XaHO8SGPXmk8CbPjtrVv4
RauR9JDC4pIaK9J0evfheT3XkKR2DyhN6ZJGJNbvAVhs/VplroElv5sNuidLYN0Q
LKNRCet6BuX8sryZmviN3S7k8JClLhgHXtQ2WbI+D1n5SV2xd3lGAGXjfM8FT2QO
DjptnqXhvMmyAG/num7iT+d2jrw7wzksQWiSLx4I3ia0CC+vBR2M5XV+BBPjY4OU
u5VkC4A/iwdhvEIndvLSM/wPLtZ8VqzW/I7+iirrWXJvAf9CGDfWhLTk9dMCZosG
2jgV9M7G+RVl6v4M0PkFzH2Th+AtBTp+Zofi
-----END CERTIFICATE-----
