Certificate:
    Data:
        Version: 3 (0x2)
        Serial Number:
            bb:30:17:e0:2a:ab:89:dc:d8:74:40:50:f8:11:96:1c
        Signature Algorithm: sha256WithRSAEncryption
        Issuer: CN=team157-net
        Validity
            Not Before: Sep 13 00:07:45 2021 GMT
            Not After : Aug 28 00:07:45 2024 GMT
        Subject: CN=team157-client
        Subject Public Key Info:
            Public Key Algorithm: rsaEncryption
                RSA Public-Key: (2048 bit)
                Modulus:
                    00:92:e2:db:32:77:f9:34:9d:ab:77:38:65:0b:f0:
                    4a:8a:47:8e:fb:d4:5c:d4:ad:77:62:62:ca:0b:bc:
                    96:df:9c:af:86:a5:4a:53:ef:3b:f6:db:1a:48:28:
                    e3:d6:b3:c1:46:78:73:7f:91:29:c2:48:26:34:b0:
                    98:62:f4:06:87:d2:b3:0f:20:76:e1:45:0d:d5:a4:
                    3a:21:72:cf:27:7f:97:b6:7a:1d:21:4e:ef:4b:2e:
                    62:f9:ee:6e:dc:d2:ec:c3:a5:5d:2e:18:8a:87:ad:
                    2f:7f:e1:c9:de:cd:80:94:ef:72:af:30:c5:d5:a6:
                    22:e8:96:73:f1:93:90:62:e3:bf:a8:99:97:76:59:
                    6f:0e:30:50:11:a6:a7:b4:5f:56:3e:ed:16:c6:f8:
                    e4:48:b3:59:f1:0a:20:7b:59:01:90:4c:76:7d:60:
                    8a:81:3f:7f:72:68:69:81:9e:d4:76:24:64:55:f1:
                    cf:5b:3b:87:ae:7c:82:d2:4f:ab:fa:03:f4:9d:dd:
                    d6:98:4d:8e:56:c6:59:32:dc:4f:5f:f8:a0:43:ef:
                    99:65:37:1c:6f:b8:f9:ab:bd:1a:eb:d9:2e:6b:d6:
                    08:bd:3c:98:2a:ba:79:47:ca:63:71:88:4d:c6:bf:
                    cd:0a:b9:37:50:09:ce:74:7c:71:d9:a4:98:1a:4c:
                    e9:03
                Exponent: 65537 (0x10001)
        X509v3 extensions:
            X509v3 Basic Constraints: 
                CA:FALSE
            X509v3 Subject Key Identifier: 
                60:C9:A6:8F:69:79:AF:D8:D0:1A:8C:48:EE:E3:7A:5C:0E:13:77:B1
            X509v3 Authority Key Identifier: 
                keyid:01:FD:41:C9:53:A4:32:A6:91:39:2D:AE:9E:B2:9C:D3:00:7F:CC:F9
                DirName:/CN=team157-net
                serial:0C:12:5D:96:C7:2B:1D:75:D6:33:DF:95:EA:C2:DF:11:6A:A4:29:A9

            X509v3 Extended Key Usage: 
                TLS Web Client Authentication
            X509v3 Key Usage: 
                Digital Signature
    Signature Algorithm: sha256WithRSAEncryption
         81:6a:d8:8a:75:fb:97:bf:41:c9:0e:9e:94:3f:e5:81:50:e6:
         ec:31:34:f5:ca:bf:7f:91:28:b0:dc:7e:33:e7:b4:7e:79:80:
         36:60:a1:2a:83:f4:f4:12:db:0d:14:9e:42:1a:6e:3b:56:28:
         2e:3a:1c:70:e6:3b:58:90:64:b8:f8:1e:e0:bd:48:60:d0:d2:
         85:e2:a1:5b:88:9b:41:3a:32:cf:14:67:9f:72:0c:6f:5b:3e:
         49:b3:db:b3:a7:6b:c1:2d:b9:b4:4b:c8:09:99:d6:03:93:0c:
         04:34:b3:b5:f3:a2:3d:14:78:04:23:fa:9a:8d:73:10:72:b7:
         d0:bd:4e:29:01:a0:f0:ad:3f:38:5c:f7:4f:73:8e:a6:3e:8c:
         7f:cb:0b:cf:fb:00:f7:6c:33:50:7c:23:00:8d:e5:c2:16:5c:
         e1:3a:2f:94:ca:6c:31:b6:43:9f:67:3a:3e:35:18:94:94:a8:
         a6:85:90:9a:5b:ba:e8:f8:0c:76:a1:87:59:92:81:2b:00:5f:
         01:67:86:67:19:47:ed:0e:e2:3e:10:52:6c:05:27:3e:b8:91:
         55:4e:5c:32:87:3c:72:4e:f8:ff:f5:7b:df:39:fc:c2:c5:d7:
         b6:f1:f2:c6:1b:b3:a2:5d:b5:91:a1:2b:0f:e2:39:d0:77:09:
         35:b2:74:ae
-----BEGIN CERTIFICATE-----
MIIDXTCCAkWgAwIBAgIRALswF+Aqq4nc2HRAUPgRlhwwDQYJKoZIhvcNAQELBQAw
FjEUMBIGA1UEAwwLdGVhbTE1Ny1uZXQwHhcNMjEwOTEzMDAwNzQ1WhcNMjQwODI4
MDAwNzQ1WjAZMRcwFQYDVQQDDA50ZWFtMTU3LWNsaWVudDCCASIwDQYJKoZIhvcN
AQEBBQADggEPADCCAQoCggEBAJLi2zJ3+TSdq3c4ZQvwSopHjvvUXNStd2Jiygu8
lt+cr4alSlPvO/bbGkgo49azwUZ4c3+RKcJIJjSwmGL0BofSsw8gduFFDdWkOiFy
zyd/l7Z6HSFO70suYvnubtzS7MOlXS4YioetL3/hyd7NgJTvcq8wxdWmIuiWc/GT
kGLjv6iZl3ZZbw4wUBGmp7RfVj7tFsb45EizWfEKIHtZAZBMdn1gioE/f3JoaYGe
1HYkZFXxz1s7h658gtJPq/oD9J3d1phNjlbGWTLcT1/4oEPvmWU3HG+4+au9GuvZ
LmvWCL08mCq6eUfKY3GITca/zQq5N1AJznR8cdmkmBpM6QMCAwEAAaOBojCBnzAJ
BgNVHRMEAjAAMB0GA1UdDgQWBBRgyaaPaXmv2NAajEju43pcDhN3sTBRBgNVHSME
SjBIgBQB/UHJU6QyppE5La6espzTAH/M+aEapBgwFjEUMBIGA1UEAwwLdGVhbTE1
Ny1uZXSCFAwSXZbHKx111jPflerC3xFqpCmpMBMGA1UdJQQMMAoGCCsGAQUFBwMC
MAsGA1UdDwQEAwIHgDANBgkqhkiG9w0BAQsFAAOCAQEAgWrYinX7l79ByQ6elD/l
gVDm7DE09cq/f5EosNx+M+e0fnmANmChKoP09BLbDRSeQhpuO1YoLjoccOY7WJBk
uPge4L1IYNDSheKhW4ibQToyzxRnn3IMb1s+SbPbs6drwS25tEvICZnWA5MMBDSz
tfOiPRR4BCP6mo1zEHK30L1OKQGg8K0/OFz3T3OOpj6Mf8sLz/sA92wzUHwjAI3l
whZc4TovlMpsMbZDn2c6PjUYlJSopoWQmlu66PgMdqGHWZKBKwBfAWeGZxlH7Q7i
PhBSbAUnPriRVU5cMoc8ck74//V73zn8wsXXtvHyxhuzol21kaErD+I50HcJNbJ0
rg==
-----END CERTIFICATE-----
