Certificate:
    Data:
        Version: 3 (0x2)
        Serial Number:
            28:10:55:70:7a:fa:48:c1:71:29:a4:17:57:29:ef:8c
        Signature Algorithm: sha256WithRSAEncryption
        Issuer: CN=team415-net
        Validity
            Not Before: Sep 13 02:26:21 2021 GMT
            Not After : Aug 28 02:26:21 2024 GMT
        Subject: CN=team415-server
        Subject Public Key Info:
            Public Key Algorithm: rsaEncryption
                RSA Public-Key: (2048 bit)
                Modulus:
                    00:bf:7c:36:35:82:3e:6a:f6:90:15:20:5f:99:2f:
                    90:ea:f3:95:92:78:5d:8a:28:de:a2:e2:85:48:d5:
                    26:4d:06:44:64:fc:61:2d:3b:2c:82:db:19:68:4a:
                    cb:3c:4a:5e:f3:a2:1e:93:37:0e:f1:46:83:f0:1d:
                    a9:05:7a:ad:1a:e9:1d:03:11:a6:0d:c5:73:45:f7:
                    69:26:f7:14:7f:e1:67:4b:23:f4:ba:6e:ad:30:57:
                    ab:4e:4f:3f:e5:e3:b9:56:e4:3a:2e:ff:49:86:ca:
                    35:bb:04:7f:5f:2f:8b:0c:1b:3e:0d:a6:ee:db:dd:
                    a4:fa:8f:7d:64:08:15:3c:1c:c4:74:a4:84:f9:74:
                    32:1e:f1:37:9d:75:0e:61:15:fb:72:e3:4f:b2:6c:
                    94:93:54:0e:08:33:46:68:ec:b9:60:1d:ec:d3:28:
                    0b:67:80:cf:5c:22:02:21:37:5a:b0:d9:c9:43:eb:
                    bc:ff:97:4a:c9:b1:a7:0f:50:eb:a3:d8:37:5c:46:
                    e1:f0:14:a8:51:34:48:44:6f:db:88:4a:ab:1c:c9:
                    42:44:7d:9f:72:64:1b:91:0d:86:b0:9e:28:06:5a:
                    5f:08:1a:3f:e3:f3:d9:4b:99:01:0e:60:3d:12:8e:
                    bb:9a:8d:a1:c9:f3:88:84:29:c3:ed:92:d0:f6:e3:
                    de:63
                Exponent: 65537 (0x10001)
        X509v3 extensions:
            X509v3 Basic Constraints: 
                CA:FALSE
            X509v3 Subject Key Identifier: 
                52:23:52:C1:EF:C8:FD:82:78:BD:D5:01:13:B8:C6:29:71:D1:88:74
            X509v3 Authority Key Identifier: 
                keyid:15:32:50:FC:2D:8E:C7:4A:02:CF:42:7D:60:45:5E:5B:92:A0:5C:9A
                DirName:/CN=team415-net
                serial:15:5A:9C:EE:6E:BB:27:D9:1A:47:FA:C7:57:4F:BC:C2:68:8A:12:E4

            X509v3 Extended Key Usage: 
                TLS Web Server Authentication
            X509v3 Key Usage: 
                Digital Signature, Key Encipherment
            X509v3 Subject Alternative Name: 
                DNS:team415-server
    Signature Algorithm: sha256WithRSAEncryption
         8a:81:0a:9f:a1:f2:e2:5e:24:cb:5b:f3:b5:c8:44:77:fd:58:
         85:40:3f:4d:1e:03:a7:0c:c5:21:34:69:a8:14:1e:b7:17:2b:
         af:29:c0:3f:1b:d5:c8:6e:79:3c:d9:e8:cb:fd:20:2b:af:68:
         3a:07:e7:62:b7:5f:43:b6:d5:9e:56:32:7b:dc:e8:f9:3f:03:
         a6:e1:db:ce:07:31:5f:60:57:49:2b:9f:2c:ff:65:ec:23:32:
         b5:8f:f1:71:3c:ef:bf:69:47:b2:45:9c:8e:cf:75:58:e6:3d:
         2b:5f:07:9e:46:f3:6f:01:65:51:47:9a:0d:6a:3d:8c:12:14:
         83:f3:df:1c:6a:f8:b2:26:06:96:43:02:8f:6a:1a:a2:f6:1e:
         75:b3:10:96:89:83:06:bc:5f:34:d1:df:0a:3d:69:6b:e4:bd:
         04:f3:e0:69:c1:1e:77:6c:c5:5a:18:77:ab:b4:81:65:93:93:
         b2:3f:3a:1d:50:bf:52:44:7b:9e:2f:ac:fb:b4:b6:c0:97:5a:
         6d:75:c5:6b:45:05:77:eb:f1:2a:86:2d:45:e1:bf:ad:42:4e:
         eb:cc:7c:6c:7a:6e:f6:22:33:88:ca:7b:8e:7a:f6:8d:36:fb:
         d9:6e:7b:28:b7:f2:88:00:49:c9:bc:55:74:23:41:c2:28:3a:
         cb:ab:e0:9c
-----BEGIN CERTIFICATE-----
MIIDdzCCAl+gAwIBAgIQKBBVcHr6SMFxKaQXVynvjDANBgkqhkiG9w0BAQsFADAW
MRQwEgYDVQQDDAt0ZWFtNDE1LW5ldDAeFw0yMTA5MTMwMjI2MjFaFw0yNDA4Mjgw
MjI2MjFaMBkxFzAVBgNVBAMMDnRlYW00MTUtc2VydmVyMIIBIjANBgkqhkiG9w0B
AQEFAAOCAQ8AMIIBCgKCAQEAv3w2NYI+avaQFSBfmS+Q6vOVknhdiijeouKFSNUm
TQZEZPxhLTssgtsZaErLPEpe86IekzcO8UaD8B2pBXqtGukdAxGmDcVzRfdpJvcU
f+FnSyP0um6tMFerTk8/5eO5VuQ6Lv9Jhso1uwR/Xy+LDBs+Dabu292k+o99ZAgV
PBzEdKSE+XQyHvE3nXUOYRX7cuNPsmyUk1QOCDNGaOy5YB3s0ygLZ4DPXCICITda
sNnJQ+u8/5dKybGnD1Dro9g3XEbh8BSoUTRIRG/biEqrHMlCRH2fcmQbkQ2GsJ4o
BlpfCBo/4/PZS5kBDmA9Eo67mo2hyfOIhCnD7ZLQ9uPeYwIDAQABo4G9MIG6MAkG
A1UdEwQCMAAwHQYDVR0OBBYEFFIjUsHvyP2CeL3VARO4xilx0Yh0MFEGA1UdIwRK
MEiAFBUyUPwtjsdKAs9CfWBFXluSoFyaoRqkGDAWMRQwEgYDVQQDDAt0ZWFtNDE1
LW5ldIIUFVqc7m67J9kaR/rHV0+8wmiKEuQwEwYDVR0lBAwwCgYIKwYBBQUHAwEw
CwYDVR0PBAQDAgWgMBkGA1UdEQQSMBCCDnRlYW00MTUtc2VydmVyMA0GCSqGSIb3
DQEBCwUAA4IBAQCKgQqfofLiXiTLW/O1yER3/ViFQD9NHgOnDMUhNGmoFB63Fyuv
KcA/G9XIbnk82ejL/SArr2g6B+dit19DttWeVjJ73Oj5PwOm4dvOBzFfYFdJK58s
/2XsIzK1j/FxPO+/aUeyRZyOz3VY5j0rXweeRvNvAWVRR5oNaj2MEhSD898caviy
JgaWQwKPahqi9h51sxCWiYMGvF800d8KPWlr5L0E8+BpwR53bMVaGHertIFlk5Oy
PzodUL9SRHueL6z7tLbAl1ptdcVrRQV36/Eqhi1F4b+tQk7rzHxsem72IjOIynuO
evaNNvvZbnsot/KIAEnJvFV0I0HCKDrLq+Cc
-----END CERTIFICATE-----
