Certificate:
    Data:
        Version: 3 (0x2)
        Serial Number:
            2b:6d:df:99:13:fc:9a:7a:56:5e:f1:1a:3d:8a:c7:52
        Signature Algorithm: sha256WithRSAEncryption
        Issuer: CN=team548-net
        Validity
            Not Before: Sep 13 03:45:59 2021 GMT
            Not After : Aug 28 03:45:59 2024 GMT
        Subject: CN=team548-client
        Subject Public Key Info:
            Public Key Algorithm: rsaEncryption
                RSA Public-Key: (2048 bit)
                Modulus:
                    00:ba:31:e6:c3:eb:6c:ad:59:6f:06:d6:03:a8:a7:
                    85:17:4a:78:45:3a:41:cd:bc:ab:e5:c5:5b:2b:1b:
                    3a:89:a9:eb:93:7e:d1:7f:0c:53:14:01:89:1f:20:
                    74:2f:46:fd:b0:57:b6:f6:ce:62:08:eb:b9:1f:b7:
                    ef:23:c0:01:7c:c8:9f:15:f7:b3:46:f0:7e:d7:3e:
                    50:1f:45:06:54:3a:bd:97:ea:dc:a7:8a:21:81:0c:
                    b0:92:1c:77:e7:ae:1d:fa:fe:77:74:34:45:c2:47:
                    df:b7:dd:7f:5e:ec:20:22:03:83:f3:22:82:23:63:
                    d8:8e:ae:74:70:e3:ca:65:e7:36:35:13:95:b7:df:
                    b4:e6:c6:20:3f:52:8a:a4:f4:c6:cb:c3:68:01:57:
                    58:a3:f6:07:2d:9e:cd:80:0d:00:c1:a5:fe:2b:65:
                    48:de:4b:bf:9d:d1:e9:4d:d0:e1:8b:3c:a4:63:0b:
                    bf:33:99:58:07:af:8c:21:f2:83:23:3b:24:8d:17:
                    49:e0:62:99:a5:fd:c5:39:b3:0a:84:26:cb:5d:27:
                    2a:98:e0:a4:8c:0b:10:86:2b:09:63:a3:84:30:45:
                    54:17:73:6d:c9:b5:c7:89:ed:ea:aa:ac:50:56:01:
                    da:da:a6:1c:08:00:e9:99:11:25:c3:44:34:f3:9e:
                    0b:6d
                Exponent: 65537 (0x10001)
        X509v3 extensions:
            X509v3 Basic Constraints: 
                CA:FALSE
            X509v3 Subject Key Identifier: 
                F7:9D:89:A6:DE:79:67:8A:A4:DA:FA:1A:1F:46:B3:6A:81:A6:5D:3E
            X509v3 Authority Key Identifier: 
                keyid:8B:98:3E:F3:8A:F7:86:A5:72:FB:30:4D:D7:4C:42:CE:04:36:59:56
                DirName:/CN=team548-net
                serial:68:2D:ED:6A:06:6B:F6:9E:BE:A9:D9:7A:59:E1:BA:D4:34:BE:A9:9F

            X509v3 Extended Key Usage: 
                TLS Web Client Authentication
            X509v3 Key Usage: 
                Digital Signature
    Signature Algorithm: sha256WithRSAEncryption
         07:53:df:d6:64:66:e7:d1:e9:c2:de:d9:04:1e:a6:40:00:20:
         d2:8c:0b:07:98:2c:bb:07:ac:d9:f9:d9:b8:90:76:13:99:8d:
         e2:ef:7f:35:54:3f:20:07:61:f6:cc:f5:50:64:2f:d1:33:c1:
         56:3b:d7:ad:c4:a5:f8:35:e7:c6:91:f4:6e:2f:5d:70:24:df:
         10:5f:cd:22:71:58:28:8d:81:1c:3c:f8:e6:4a:a1:5f:be:99:
         96:cc:49:72:63:f9:23:58:cc:f6:3c:71:c4:b8:2d:f3:fd:a3:
         68:e6:b1:52:ba:8f:d8:f6:c4:b4:12:ed:c8:05:f0:20:74:cc:
         36:89:00:d4:f9:36:c3:42:ab:71:b3:a7:50:66:8e:4d:3b:72:
         7c:44:41:e7:2e:4a:53:4a:09:c6:0f:f0:93:6e:54:be:d9:58:
         e3:ff:38:d7:9e:38:99:7e:77:5c:26:5c:fc:6e:ed:b3:68:76:
         9d:53:5c:19:83:f3:92:c6:cf:84:63:77:16:d8:b0:81:0f:24:
         e1:48:51:84:e0:1d:9c:2b:4c:92:14:62:7a:5e:b7:f2:72:a0:
         bd:10:30:71:59:ff:3a:e2:2a:ac:d3:3f:35:82:aa:bb:47:21:
         bf:da:6b:84:f0:09:19:8c:55:60:e7:b1:2e:57:28:f1:65:ef:
         93:47:9d:ba
-----BEGIN CERTIFICATE-----
MIIDXDCCAkSgAwIBAgIQK23fmRP8mnpWXvEaPYrHUjANBgkqhkiG9w0BAQsFADAW
MRQwEgYDVQQDDAt0ZWFtNTQ4LW5ldDAeFw0yMTA5MTMwMzQ1NTlaFw0yNDA4Mjgw
MzQ1NTlaMBkxFzAVBgNVBAMMDnRlYW01NDgtY2xpZW50MIIBIjANBgkqhkiG9w0B
AQEFAAOCAQ8AMIIBCgKCAQEAujHmw+tsrVlvBtYDqKeFF0p4RTpBzbyr5cVbKxs6
ianrk37RfwxTFAGJHyB0L0b9sFe29s5iCOu5H7fvI8ABfMifFfezRvB+1z5QH0UG
VDq9l+rcp4ohgQywkhx3564d+v53dDRFwkfft91/XuwgIgOD8yKCI2PYjq50cOPK
Zec2NROVt9+05sYgP1KKpPTGy8NoAVdYo/YHLZ7NgA0AwaX+K2VI3ku/ndHpTdDh
izykYwu/M5lYB6+MIfKDIzskjRdJ4GKZpf3FObMKhCbLXScqmOCkjAsQhisJY6OE
MEVUF3NtybXHie3qqqxQVgHa2qYcCADpmRElw0Q0854LbQIDAQABo4GiMIGfMAkG
A1UdEwQCMAAwHQYDVR0OBBYEFPediabeeWeKpNr6Gh9Gs2qBpl0+MFEGA1UdIwRK
MEiAFIuYPvOK94alcvswTddMQs4ENllWoRqkGDAWMRQwEgYDVQQDDAt0ZWFtNTQ4
LW5ldIIUaC3tagZr9p6+qdl6WeG61DS+qZ8wEwYDVR0lBAwwCgYIKwYBBQUHAwIw
CwYDVR0PBAQDAgeAMA0GCSqGSIb3DQEBCwUAA4IBAQAHU9/WZGbn0enC3tkEHqZA
ACDSjAsHmCy7B6zZ+dm4kHYTmY3i7381VD8gB2H2zPVQZC/RM8FWO9etxKX4NefG
kfRuL11wJN8QX80icVgojYEcPPjmSqFfvpmWzElyY/kjWMz2PHHEuC3z/aNo5rFS
uo/Y9sS0Eu3IBfAgdMw2iQDU+TbDQqtxs6dQZo5NO3J8REHnLkpTSgnGD/CTblS+
2Vjj/zjXnjiZfndcJlz8bu2zaHadU1wZg/OSxs+EY3cW2LCBDyThSFGE4B2cK0yS
FGJ6XrfycqC9EDBxWf864iqs0z81gqq7RyG/2muE8AkZjFVg57EuVyjxZe+TR526
-----END CERTIFICATE-----
