Certificate:
    Data:
        Version: 3 (0x2)
        Serial Number:
            32:e8:b8:f9:20:f0:e4:a7:82:a0:38:c9:50:d3:8a:cd
        Signature Algorithm: sha256WithRSAEncryption
        Issuer: CN=team70-net
        Validity
            Not Before: Sep 12 23:19:07 2021 GMT
            Not After : Aug 27 23:19:07 2024 GMT
        Subject: CN=team70-server
        Subject Public Key Info:
            Public Key Algorithm: rsaEncryption
                RSA Public-Key: (2048 bit)
                Modulus:
                    00:db:7c:d9:dc:9e:31:d6:cf:a8:8b:d7:6b:37:c1:
                    ea:f0:ce:af:08:86:08:41:87:85:a3:07:b4:bf:62:
                    14:a5:e6:8e:11:d9:93:9d:17:e0:49:92:84:5f:22:
                    31:44:ac:94:6e:bf:f0:1d:ab:9a:25:9e:d1:4d:5c:
                    d2:8f:c1:16:38:d4:40:8b:22:04:0f:05:81:08:90:
                    32:8d:91:a9:72:21:72:a2:ac:db:c5:d3:14:18:c4:
                    36:26:65:b3:ad:5a:63:fa:38:68:05:2e:e8:bf:25:
                    d7:36:85:5c:be:f4:5c:dc:9c:cf:70:35:6f:ca:17:
                    5c:40:71:61:02:76:5e:f0:0c:e0:6d:f0:b7:1a:ff:
                    6f:c0:e0:16:78:3f:17:ae:10:4b:ff:3e:93:52:ac:
                    c5:31:e6:7f:fe:5c:8f:7e:30:40:6b:75:d5:42:c7:
                    42:ed:e3:c9:a6:87:fe:78:17:11:d7:b3:dc:06:02:
                    1a:ae:3f:77:5b:49:f5:c4:a5:da:5c:56:0e:57:cd:
                    8b:05:d3:93:73:3d:cd:42:89:9f:6e:ae:15:06:bd:
                    80:40:ef:a5:42:25:9c:fa:ce:04:46:4c:e3:a9:da:
                    38:28:01:29:9a:59:0d:aa:c7:a9:97:7f:7b:e2:bf:
                    ae:0a:e2:c4:e1:e2:a6:2b:18:95:00:77:bc:9c:c9:
                    d1:ab
                Exponent: 65537 (0x10001)
        X509v3 extensions:
            X509v3 Basic Constraints: 
                CA:FALSE
            X509v3 Subject Key Identifier: 
                16:8E:D3:37:97:B0:98:BC:7E:D7:AB:C5:7F:9B:2A:BF:B6:09:75:96
            X509v3 Authority Key Identifier: 
                keyid:B0:44:66:A6:69:CA:EE:09:E9:49:BA:4C:4B:E5:65:23:58:42:65:13
                DirName:/CN=team70-net
                serial:61:75:6C:CC:2B:A8:E6:2C:FD:41:19:39:E2:4F:AE:EC:9E:C7:49:8C

            X509v3 Extended Key Usage: 
                TLS Web Server Authentication
            X509v3 Key Usage: 
                Digital Signature, Key Encipherment
            X509v3 Subject Alternative Name: 
                DNS:team70-server
    Signature Algorithm: sha256WithRSAEncryption
         68:f7:63:98:c7:22:60:df:c8:17:8e:3d:d0:f8:6b:f6:71:2a:
         00:67:54:b3:d4:0d:61:f3:c2:b1:9a:00:9f:09:16:2b:57:43:
         75:e1:65:f4:d2:f1:f4:e5:1e:0a:3b:6a:84:f2:36:ea:e3:aa:
         1f:52:81:76:e3:af:64:e8:d7:55:97:59:4f:89:8b:36:07:16:
         a0:85:37:16:e8:2f:65:70:38:d7:9c:bf:71:8d:53:a8:3a:49:
         32:9d:99:3a:10:2d:8b:22:32:da:d8:49:e2:a8:e4:1c:35:4d:
         50:e9:67:ec:01:5c:eb:24:c1:3c:2e:8d:25:a3:27:83:ee:fc:
         b9:f8:84:f3:b9:8f:5c:28:27:63:1a:c7:90:f4:b3:4d:de:38:
         3b:90:b6:ce:bb:90:ed:d2:ed:0d:0e:f1:e8:f3:25:45:b6:c6:
         a9:cf:68:20:49:c8:3b:63:7d:06:5c:aa:0b:b1:fc:12:cb:6a:
         c3:29:49:26:fd:f3:1a:c7:ce:6f:29:7a:5c:cd:67:06:9c:bd:
         2c:cf:fd:e5:ad:3a:cf:e5:2e:5c:39:d7:7f:37:62:dc:88:8b:
         17:1b:28:f3:91:a9:c5:6a:4e:d4:0c:7e:b4:e6:05:20:f3:f9:
         5d:dd:eb:88:ac:f0:39:a3:9e:08:da:e0:ab:35:ca:4d:8c:8f:
         5d:2d:80:c8
-----BEGIN CERTIFICATE-----
MIIDczCCAlugAwIBAgIQMui4+SDw5KeCoDjJUNOKzTANBgkqhkiG9w0BAQsFADAV
MRMwEQYDVQQDDAp0ZWFtNzAtbmV0MB4XDTIxMDkxMjIzMTkwN1oXDTI0MDgyNzIz
MTkwN1owGDEWMBQGA1UEAwwNdGVhbTcwLXNlcnZlcjCCASIwDQYJKoZIhvcNAQEB
BQADggEPADCCAQoCggEBANt82dyeMdbPqIvXazfB6vDOrwiGCEGHhaMHtL9iFKXm
jhHZk50X4EmShF8iMUSslG6/8B2rmiWe0U1c0o/BFjjUQIsiBA8FgQiQMo2RqXIh
cqKs28XTFBjENiZls61aY/o4aAUu6L8l1zaFXL70XNycz3A1b8oXXEBxYQJ2XvAM
4G3wtxr/b8DgFng/F64QS/8+k1KsxTHmf/5cj34wQGt11ULHQu3jyaaH/ngXEdez
3AYCGq4/d1tJ9cSl2lxWDlfNiwXTk3M9zUKJn26uFQa9gEDvpUIlnPrOBEZM46na
OCgBKZpZDarHqZd/e+K/rgrixOHipisYlQB3vJzJ0asCAwEAAaOBuzCBuDAJBgNV
HRMEAjAAMB0GA1UdDgQWBBQWjtM3l7CYvH7Xq8V/myq/tgl1ljBQBgNVHSMESTBH
gBSwRGamacruCelJukxL5WUjWEJlE6EZpBcwFTETMBEGA1UEAwwKdGVhbTcwLW5l
dIIUYXVszCuo5iz9QRk54k+u7J7HSYwwEwYDVR0lBAwwCgYIKwYBBQUHAwEwCwYD
VR0PBAQDAgWgMBgGA1UdEQQRMA+CDXRlYW03MC1zZXJ2ZXIwDQYJKoZIhvcNAQEL
BQADggEBAGj3Y5jHImDfyBeOPdD4a/ZxKgBnVLPUDWHzwrGaAJ8JFitXQ3XhZfTS
8fTlHgo7aoTyNurjqh9SgXbjr2To11WXWU+JizYHFqCFNxboL2VwONecv3GNU6g6
STKdmToQLYsiMtrYSeKo5Bw1TVDpZ+wBXOskwTwujSWjJ4Pu/Ln4hPO5j1woJ2Ma
x5D0s03eODuQts67kO3S7Q0O8ejzJUW2xqnPaCBJyDtjfQZcqgux/BLLasMpSSb9
8xrHzm8pelzNZwacvSzP/eWtOs/lLlw51383YtyIixcbKPORqcVqTtQMfrTmBSDz
+V3d64is8Dmjngja4Ks1yk2Mj10tgMg=
-----END CERTIFICATE-----
