Certificate:
    Data:
        Version: 3 (0x2)
        Serial Number:
            03:e7:fe:d1:f6:61:93:ee:f0:8a:f5:72:bc:a5:11:76
        Signature Algorithm: sha256WithRSAEncryption
        Issuer: CN=team268-net
        Validity
            Not Before: Sep 13 01:12:51 2021 GMT
            Not After : Aug 28 01:12:51 2024 GMT
        Subject: CN=team268-client
        Subject Public Key Info:
            Public Key Algorithm: rsaEncryption
                RSA Public-Key: (2048 bit)
                Modulus:
                    00:a1:94:65:25:47:70:da:6a:39:0c:b8:ca:9e:6d:
                    c8:cb:ce:4d:b8:28:5f:4f:7c:c5:0b:53:ea:af:ee:
                    47:42:c6:26:2a:2e:39:90:18:17:0e:ed:66:ed:69:
                    15:20:f6:46:02:72:86:ee:29:c6:42:ed:48:79:e7:
                    24:ed:08:21:b6:2d:d8:ca:46:99:c3:ec:be:56:7d:
                    cd:0f:82:b7:f3:fa:78:f8:71:89:01:7a:b8:42:f7:
                    a8:59:7c:4f:ad:ff:2a:19:e3:49:00:00:3a:38:5a:
                    3a:dd:ce:2f:42:a9:88:86:44:f4:ff:d9:1a:a3:85:
                    8d:89:d6:62:3b:d5:51:27:17:75:17:da:17:c2:cb:
                    a3:c6:8b:bc:89:3a:4b:5c:89:0d:2a:ee:8e:77:d8:
                    94:86:01:a1:53:fc:d1:a3:49:a8:3e:17:12:ea:90:
                    d6:91:bc:57:2d:16:91:9d:29:0b:c9:45:44:ac:66:
                    18:b4:b7:dd:7d:a2:0f:f9:23:4a:e6:0a:24:82:65:
                    34:e0:3d:30:56:3f:6f:9e:6f:23:56:38:62:0f:1b:
                    e7:2f:29:43:fd:62:45:f5:e6:90:03:af:63:7d:99:
                    31:52:14:3f:98:e3:d1:05:94:cb:8a:8e:82:6e:c7:
                    75:2d:95:81:90:15:a9:d5:7d:c3:2a:7e:7b:1b:8d:
                    00:69
                Exponent: 65537 (0x10001)
        X509v3 extensions:
            X509v3 Basic Constraints: 
                CA:FALSE
            X509v3 Subject Key Identifier: 
                EB:CF:69:55:75:5B:F7:02:69:DE:1C:DB:57:F1:91:F9:6E:16:46:14
            X509v3 Authority Key Identifier: 
                keyid:60:AF:39:AD:41:62:E6:D1:56:47:BA:9F:82:67:EC:4B:A1:75:9F:E1
                DirName:/CN=team268-net
                serial:5A:02:90:82:55:3D:77:23:D0:E5:06:5E:5C:33:F3:CF:56:9A:91:19

            X509v3 Extended Key Usage: 
                TLS Web Client Authentication
            X509v3 Key Usage: 
                Digital Signature
    Signature Algorithm: sha256WithRSAEncryption
         a5:dc:6a:57:c8:f0:2b:3d:36:f0:98:16:83:57:df:03:c7:6d:
         d0:eb:4f:a7:26:9b:fc:3e:32:e1:94:a9:55:cf:51:2a:e4:fb:
         34:7e:b5:b7:28:1b:fb:a7:e1:8e:ae:fd:10:cb:55:82:88:51:
         61:74:91:47:4c:13:5c:4f:03:a8:55:5a:49:8f:38:e6:c7:9f:
         5e:86:c6:85:9e:f7:72:2d:c8:c1:c5:d4:ac:c7:43:56:16:9b:
         92:9d:ee:6b:a9:54:6b:2b:d8:a9:5c:77:76:6e:96:d3:da:8c:
         d0:c6:08:1e:2a:4c:f0:8d:22:e7:84:4d:88:0d:e3:17:63:cb:
         9a:12:4c:eb:60:e5:66:4b:b7:99:d6:b8:5b:2b:43:17:fb:d9:
         40:f9:97:72:80:72:66:2d:46:76:bc:40:b0:e7:34:38:27:d0:
         ad:a8:af:4a:c4:af:2f:a3:bd:62:ee:bf:3f:e1:ad:dc:3d:30:
         1b:93:58:72:5a:22:6e:bc:94:97:1f:7d:04:76:42:6c:2b:86:
         86:1d:f2:31:ed:1d:7c:94:f8:05:12:4f:94:d2:4f:8a:22:eb:
         18:af:47:24:16:d2:61:7c:e8:a0:bb:9a:af:e3:12:e4:72:38:
         17:db:9a:b8:0e:db:8d:ad:71:b7:cf:ab:31:56:5e:71:93:76:
         63:3c:66:1a
-----BEGIN CERTIFICATE-----
MIIDXDCCAkSgAwIBAgIQA+f+0fZhk+7wivVyvKURdjANBgkqhkiG9w0BAQsFADAW
MRQwEgYDVQQDDAt0ZWFtMjY4LW5ldDAeFw0yMTA5MTMwMTEyNTFaFw0yNDA4Mjgw
MTEyNTFaMBkxFzAVBgNVBAMMDnRlYW0yNjgtY2xpZW50MIIBIjANBgkqhkiG9w0B
AQEFAAOCAQ8AMIIBCgKCAQEAoZRlJUdw2mo5DLjKnm3Iy85NuChfT3zFC1Pqr+5H
QsYmKi45kBgXDu1m7WkVIPZGAnKG7inGQu1Ieeck7Qghti3YykaZw+y+Vn3ND4K3
8/p4+HGJAXq4QveoWXxPrf8qGeNJAAA6OFo63c4vQqmIhkT0/9kao4WNidZiO9VR
Jxd1F9oXwsujxou8iTpLXIkNKu6Od9iUhgGhU/zRo0moPhcS6pDWkbxXLRaRnSkL
yUVErGYYtLfdfaIP+SNK5gokgmU04D0wVj9vnm8jVjhiDxvnLylD/WJF9eaQA69j
fZkxUhQ/mOPRBZTLio6Cbsd1LZWBkBWp1X3DKn57G40AaQIDAQABo4GiMIGfMAkG
A1UdEwQCMAAwHQYDVR0OBBYEFOvPaVV1W/cCad4c21fxkfluFkYUMFEGA1UdIwRK
MEiAFGCvOa1BYubRVke6n4Jn7EuhdZ/hoRqkGDAWMRQwEgYDVQQDDAt0ZWFtMjY4
LW5ldIIUWgKQglU9dyPQ5QZeXDPzz1aakRkwEwYDVR0lBAwwCgYIKwYBBQUHAwIw
CwYDVR0PBAQDAgeAMA0GCSqGSIb3DQEBCwUAA4IBAQCl3GpXyPArPTbwmBaDV98D
x23Q60+nJpv8PjLhlKlVz1Eq5Ps0frW3KBv7p+GOrv0Qy1WCiFFhdJFHTBNcTwOo
VVpJjzjmx59ehsaFnvdyLcjBxdSsx0NWFpuSne5rqVRrK9ipXHd2bpbT2ozQxgge
KkzwjSLnhE2IDeMXY8uaEkzrYOVmS7eZ1rhbK0MX+9lA+ZdygHJmLUZ2vECw5zQ4
J9CtqK9KxK8vo71i7r8/4a3cPTAbk1hyWiJuvJSXH30EdkJsK4aGHfIx7R18lPgF
Ek+U0k+KIusYr0ckFtJhfOigu5qv4xLkcjgX25q4DtuNrXG3z6sxVl5xk3ZjPGYa
-----END CERTIFICATE-----
