Certificate:
    Data:
        Version: 3 (0x2)
        Serial Number:
            ff:27:23:98:ac:c0:5f:49:17:d7:10:01:c5:5a:50:80
        Signature Algorithm: sha256WithRSAEncryption
        Issuer: CN=team268-net
        Validity
            Not Before: Sep 13 01:12:52 2021 GMT
            Not After : Aug 28 01:12:52 2024 GMT
        Subject: CN=team268-server
        Subject Public Key Info:
            Public Key Algorithm: rsaEncryption
                RSA Public-Key: (2048 bit)
                Modulus:
                    00:9c:16:98:75:ec:21:b2:6f:d9:04:33:4a:81:fa:
                    58:6d:3d:ad:9e:a9:5b:4e:4e:b6:48:ef:bd:28:37:
                    d7:bf:c6:91:e8:50:d7:d5:25:8e:95:c3:b7:65:82:
                    56:65:cd:94:4c:f8:40:91:3e:ea:c3:fd:c9:09:68:
                    0c:19:d9:fb:2f:86:58:c6:2b:e9:ee:85:e9:2f:1e:
                    14:ec:1c:87:1e:5b:1e:e5:20:46:26:ca:de:27:5d:
                    52:95:6b:7e:87:d8:0b:d1:3e:f7:d2:ce:c7:80:69:
                    95:ff:fc:f9:a3:25:1e:fe:4a:51:e5:77:03:a4:48:
                    2a:a0:51:e1:7c:d5:40:fb:fe:a5:61:37:6a:57:5e:
                    90:f8:db:d0:07:a0:e5:24:a5:46:7d:66:49:e2:f1:
                    bd:94:95:0c:b3:9e:57:7b:90:2a:1e:b2:ba:44:25:
                    3c:55:eb:22:08:60:7d:fc:ed:f4:3f:20:63:a8:0d:
                    31:1d:a5:90:58:5f:14:a3:49:4d:b1:4a:ab:e6:20:
                    87:79:e8:c1:90:db:42:c2:18:7c:a2:58:ff:92:f0:
                    ef:a7:af:d3:6a:fd:8c:15:c8:0b:f0:9e:c7:98:a1:
                    72:18:2d:b9:4e:66:93:dc:a1:28:21:86:91:ff:ae:
                    e7:87:2f:af:ab:28:e4:c4:36:c3:79:7d:04:88:a1:
                    1f:f3
                Exponent: 65537 (0x10001)
        X509v3 extensions:
            X509v3 Basic Constraints: 
                CA:FALSE
            X509v3 Subject Key Identifier: 
                C2:C3:01:02:26:A9:63:8F:7A:AB:DD:A1:5C:89:0E:EA:61:5F:7E:7C
            X509v3 Authority Key Identifier: 
                keyid:60:AF:39:AD:41:62:E6:D1:56:47:BA:9F:82:67:EC:4B:A1:75:9F:E1
                DirName:/CN=team268-net
                serial:5A:02:90:82:55:3D:77:23:D0:E5:06:5E:5C:33:F3:CF:56:9A:91:19

            X509v3 Extended Key Usage: 
                TLS Web Server Authentication
            X509v3 Key Usage: 
                Digital Signature, Key Encipherment
            X509v3 Subject Alternative Name: 
                DNS:team268-server
    Signature Algorithm: sha256WithRSAEncryption
         7d:de:b2:08:d0:ad:6a:ed:81:a5:fc:31:42:df:e6:75:3f:3e:
         2a:ce:36:95:22:42:b5:44:38:75:97:cd:c4:02:ba:a3:07:65:
         6c:10:89:e8:90:a8:06:51:be:91:ec:b9:7c:a2:da:ab:35:7b:
         cb:13:0a:65:84:c4:b4:7f:33:7f:6d:e0:f1:ed:21:22:a5:67:
         58:76:94:58:d9:d2:cc:d2:af:9e:23:4d:d9:a2:47:c3:ea:0c:
         8c:8d:ce:89:e4:2b:2b:39:c5:38:91:5f:df:f3:4e:5d:ce:32:
         b2:6b:f8:91:5f:f2:87:b4:f5:e6:9e:a8:7c:75:e7:48:74:be:
         1f:b5:da:53:22:8f:b4:81:50:04:0b:15:19:74:65:53:6f:6b:
         f2:6e:51:10:0a:88:22:3b:8d:21:b1:da:b8:df:0c:02:5d:2e:
         8f:2d:53:22:d4:9a:81:e7:70:2a:f2:b0:70:ce:52:61:6e:60:
         d0:7f:b1:a0:13:67:7a:4e:05:97:2a:7c:c6:f6:8f:9c:62:c5:
         af:cb:f1:11:c7:ad:1f:56:9f:11:03:51:48:69:87:06:13:69:
         ee:ad:a6:69:c6:35:9c:7d:5b:1c:83:e1:1f:14:d7:e1:9d:43:
         03:86:9c:22:11:6b:40:41:64:a7:4a:8d:6e:c1:16:f0:f5:1d:
         20:80:7a:28
-----BEGIN CERTIFICATE-----
MIIDeDCCAmCgAwIBAgIRAP8nI5iswF9JF9cQAcVaUIAwDQYJKoZIhvcNAQELBQAw
FjEUMBIGA1UEAwwLdGVhbTI2OC1uZXQwHhcNMjEwOTEzMDExMjUyWhcNMjQwODI4
MDExMjUyWjAZMRcwFQYDVQQDDA50ZWFtMjY4LXNlcnZlcjCCASIwDQYJKoZIhvcN
AQEBBQADggEPADCCAQoCggEBAJwWmHXsIbJv2QQzSoH6WG09rZ6pW05OtkjvvSg3
17/GkehQ19UljpXDt2WCVmXNlEz4QJE+6sP9yQloDBnZ+y+GWMYr6e6F6S8eFOwc
hx5bHuUgRibK3iddUpVrfofYC9E+99LOx4Bplf/8+aMlHv5KUeV3A6RIKqBR4XzV
QPv+pWE3aldekPjb0Aeg5SSlRn1mSeLxvZSVDLOeV3uQKh6yukQlPFXrIghgffzt
9D8gY6gNMR2lkFhfFKNJTbFKq+Ygh3nowZDbQsIYfKJY/5Lw76ev02r9jBXIC/Ce
x5ihchgtuU5mk9yhKCGGkf+u54cvr6so5MQ2w3l9BIihH/MCAwEAAaOBvTCBujAJ
BgNVHRMEAjAAMB0GA1UdDgQWBBTCwwECJqljj3qr3aFciQ7qYV9+fDBRBgNVHSME
SjBIgBRgrzmtQWLm0VZHup+CZ+xLoXWf4aEapBgwFjEUMBIGA1UEAwwLdGVhbTI2
OC1uZXSCFFoCkIJVPXcj0OUGXlwz889WmpEZMBMGA1UdJQQMMAoGCCsGAQUFBwMB
MAsGA1UdDwQEAwIFoDAZBgNVHREEEjAQgg50ZWFtMjY4LXNlcnZlcjANBgkqhkiG
9w0BAQsFAAOCAQEAfd6yCNCtau2BpfwxQt/mdT8+Ks42lSJCtUQ4dZfNxAK6owdl
bBCJ6JCoBlG+key5fKLaqzV7yxMKZYTEtH8zf23g8e0hIqVnWHaUWNnSzNKvniNN
2aJHw+oMjI3OieQrKznFOJFf3/NOXc4ysmv4kV/yh7T15p6ofHXnSHS+H7XaUyKP
tIFQBAsVGXRlU29r8m5REAqIIjuNIbHauN8MAl0ujy1TItSagedwKvKwcM5SYW5g
0H+xoBNnek4Flyp8xvaPnGLFr8vxEcetH1afEQNRSGmHBhNp7q2macY1nH1bHIPh
HxTX4Z1DA4acIhFrQEFkp0qNbsEW8PUdIIB6KA==
-----END CERTIFICATE-----
