Certificate:
    Data:
        Version: 3 (0x2)
        Serial Number:
            be:be:ff:43:aa:89:17:e3:84:6c:71:d6:3a:cb:4f:43
        Signature Algorithm: sha256WithRSAEncryption
        Issuer: CN=team52-net
        Validity
            Not Before: Sep 12 23:10:29 2021 GMT
            Not After : Aug 27 23:10:29 2024 GMT
        Subject: CN=team52-client
        Subject Public Key Info:
            Public Key Algorithm: rsaEncryption
                RSA Public-Key: (2048 bit)
                Modulus:
                    00:b9:af:c5:98:2a:7f:b3:00:62:79:79:b6:f3:4b:
                    eb:4b:fe:62:03:77:f8:be:3d:c6:61:a1:6b:7a:90:
                    d1:bd:10:0a:8c:d1:4f:c0:5b:d8:a5:58:49:8a:73:
                    24:13:b9:9b:92:bd:04:a6:71:7f:fa:0a:25:4f:a3:
                    78:24:d4:a0:41:08:26:a5:75:11:84:bb:c1:c2:52:
                    5c:aa:07:84:23:f3:cf:80:78:b0:af:29:8b:77:9f:
                    85:c1:bc:49:c5:2f:a9:64:5e:31:8c:5f:04:19:2f:
                    cd:f5:34:6a:ba:a7:9d:aa:ba:fa:b6:a2:ec:89:bf:
                    c9:92:5b:64:5b:ef:eb:b1:df:bb:68:c1:13:88:ac:
                    c5:2f:d1:ae:38:6b:e9:0d:27:a3:5d:9c:4b:a5:40:
                    80:ec:24:59:6a:82:60:57:75:10:aa:d0:ef:31:5b:
                    dd:0f:bf:0b:71:9b:d2:56:71:3b:48:07:6e:59:bd:
                    5d:0b:65:40:54:6c:87:9b:12:e8:34:55:aa:66:04:
                    00:85:fd:db:51:22:7e:15:da:af:6d:c8:99:41:3a:
                    83:a3:da:5c:41:15:17:a3:34:07:1e:cd:16:c4:7e:
                    42:c4:1f:c2:03:af:4a:aa:3a:0d:92:99:49:2f:ec:
                    60:32:76:61:6c:b3:9b:05:80:57:1e:83:00:e0:ee:
                    74:a5
                Exponent: 65537 (0x10001)
        X509v3 extensions:
            X509v3 Basic Constraints: 
                CA:FALSE
            X509v3 Subject Key Identifier: 
                F7:1C:5C:AA:FB:1F:61:A9:83:6A:AB:55:64:DA:C1:C7:C1:14:3C:DA
            X509v3 Authority Key Identifier: 
                keyid:EF:2E:30:A2:67:7D:D4:BA:28:B1:B4:FD:BC:87:8A:39:97:14:73:C3
                DirName:/CN=team52-net
                serial:68:7D:1A:F6:AA:53:87:C9:C5:E1:D4:6B:9D:ED:24:81:CB:3C:5A:17

            X509v3 Extended Key Usage: 
                TLS Web Client Authentication
            X509v3 Key Usage: 
                Digital Signature
    Signature Algorithm: sha256WithRSAEncryption
         7b:04:e9:a4:5f:4c:ee:a1:91:2b:92:0d:09:33:e9:af:9f:fe:
         0a:0f:fe:eb:cf:90:af:66:62:00:04:14:fb:e2:3c:ec:8a:ef:
         2e:19:75:50:ba:5c:af:4e:b9:d1:2d:d1:3d:53:56:9f:71:79:
         ff:b6:0a:c8:b9:5f:5e:53:20:b2:76:ef:bd:aa:fd:84:b1:25:
         18:22:bd:32:f3:37:f1:ff:51:fc:d3:57:db:81:3d:31:6b:d0:
         d0:9f:b4:94:6a:f1:9b:cd:7e:4a:72:d1:07:07:35:4a:b4:dc:
         8c:4a:f7:cc:66:d5:5d:69:b8:2d:7b:7f:bc:84:cb:cc:a3:92:
         c6:2b:58:1f:25:ca:76:1d:80:f6:30:1e:fa:6a:e2:fd:81:db:
         8b:9f:9e:eb:0e:e2:9f:9d:ff:b3:74:e2:39:33:1d:a6:cd:b1:
         8f:27:56:19:01:97:49:25:55:c1:a8:e3:05:5a:82:28:6e:d1:
         3b:87:df:86:3e:3e:22:81:ac:ec:bf:53:85:3e:68:1b:2e:36:
         dc:43:d7:9b:6f:17:0b:8d:9d:13:4b:63:0f:e4:d6:bf:5a:15:
         0a:41:dc:d3:a7:df:a8:70:27:9a:3f:f7:4b:4e:7f:7f:53:24:
         52:ed:46:47:bc:14:e3:83:75:5d:02:33:e2:02:94:77:5d:da:
         cc:a9:ae:1d
-----BEGIN CERTIFICATE-----
MIIDWjCCAkKgAwIBAgIRAL6+/0OqiRfjhGxx1jrLT0MwDQYJKoZIhvcNAQELBQAw
FTETMBEGA1UEAwwKdGVhbTUyLW5ldDAeFw0yMTA5MTIyMzEwMjlaFw0yNDA4Mjcy
MzEwMjlaMBgxFjAUBgNVBAMMDXRlYW01Mi1jbGllbnQwggEiMA0GCSqGSIb3DQEB
AQUAA4IBDwAwggEKAoIBAQC5r8WYKn+zAGJ5ebbzS+tL/mIDd/i+PcZhoWt6kNG9
EAqM0U/AW9ilWEmKcyQTuZuSvQSmcX/6CiVPo3gk1KBBCCaldRGEu8HCUlyqB4Qj
88+AeLCvKYt3n4XBvEnFL6lkXjGMXwQZL831NGq6p52quvq2ouyJv8mSW2Rb7+ux
37towROIrMUv0a44a+kNJ6NdnEulQIDsJFlqgmBXdRCq0O8xW90Pvwtxm9JWcTtI
B25ZvV0LZUBUbIebEug0VapmBACF/dtRIn4V2q9tyJlBOoOj2lxBFRejNAcezRbE
fkLEH8IDr0qqOg2SmUkv7GAydmFss5sFgFcegwDg7nSlAgMBAAGjgaEwgZ4wCQYD
VR0TBAIwADAdBgNVHQ4EFgQU9xxcqvsfYamDaqtVZNrBx8EUPNowUAYDVR0jBEkw
R4AU7y4womd91LoosbT9vIeKOZcUc8OhGaQXMBUxEzARBgNVBAMMCnRlYW01Mi1u
ZXSCFGh9GvaqU4fJxeHUa53tJIHLPFoXMBMGA1UdJQQMMAoGCCsGAQUFBwMCMAsG
A1UdDwQEAwIHgDANBgkqhkiG9w0BAQsFAAOCAQEAewTppF9M7qGRK5INCTPpr5/+
Cg/+68+Qr2ZiAAQU++I87IrvLhl1ULpcr0650S3RPVNWn3F5/7YKyLlfXlMgsnbv
var9hLElGCK9MvM38f9R/NNX24E9MWvQ0J+0lGrxm81+SnLRBwc1SrTcjEr3zGbV
XWm4LXt/vITLzKOSxitYHyXKdh2A9jAe+mri/YHbi5+e6w7in53/s3TiOTMdps2x
jydWGQGXSSVVwajjBVqCKG7RO4ffhj4+IoGs7L9ThT5oGy423EPXm28XC42dE0tj
D+TWv1oVCkHc06ffqHAnmj/3S05/f1MkUu1GR7wU44N1XQIz4gKUd13azKmuHQ==
-----END CERTIFICATE-----
