Certificate:
    Data:
        Version: 3 (0x2)
        Serial Number:
            9f:59:28:61:fb:09:94:0e:b1:f0:f2:82:92:56:c2:f5
        Signature Algorithm: sha256WithRSAEncryption
        Issuer: CN=team357-net
        Validity
            Not Before: Sep 13 02:00:34 2021 GMT
            Not After : Aug 28 02:00:34 2024 GMT
        Subject: CN=team357-server
        Subject Public Key Info:
            Public Key Algorithm: rsaEncryption
                RSA Public-Key: (2048 bit)
                Modulus:
                    00:cc:22:f1:59:06:60:06:fd:83:fc:cb:04:6b:1a:
                    86:15:61:c1:74:b7:d9:43:38:cc:ca:00:c3:ee:a5:
                    73:f4:0f:0a:12:4d:0e:23:a6:59:64:fd:88:61:c1:
                    a0:72:65:f6:7f:e4:58:a9:9d:27:1c:1d:60:11:63:
                    93:af:11:55:e4:54:81:5c:11:4b:78:7d:0c:1d:e4:
                    aa:a4:25:9b:c0:2d:5e:6c:fc:68:93:56:02:f4:47:
                    45:69:14:13:a4:67:1f:14:43:5b:a2:c5:06:f8:52:
                    fd:a3:57:06:60:66:5d:12:b7:6a:20:9c:58:a8:8f:
                    1b:8a:7a:d2:94:d6:57:a2:bd:e2:56:f5:4e:d4:85:
                    f0:de:7f:70:97:dd:f9:68:fe:de:82:2c:e9:4d:82:
                    55:6a:c1:c2:d3:c9:e1:67:4a:68:0e:7f:a1:0b:c9:
                    97:50:ed:cd:fa:30:8f:60:a5:71:05:7f:33:cb:65:
                    e0:66:81:64:cf:5d:0b:7d:1a:77:1a:e6:56:96:37:
                    9b:7f:cf:b0:45:aa:4f:cd:c0:2e:a4:ed:9e:e8:36:
                    36:bc:f9:e2:e7:c8:5b:56:91:77:e1:6b:0c:e7:ad:
                    49:45:ca:de:1a:b3:3b:e8:21:47:46:70:96:7d:7d:
                    87:26:ef:cd:a0:81:d1:a1:cf:7e:aa:9b:70:24:f9:
                    bc:21
                Exponent: 65537 (0x10001)
        X509v3 extensions:
            X509v3 Basic Constraints: 
                CA:FALSE
            X509v3 Subject Key Identifier: 
                E6:2B:DD:5E:93:D5:51:2C:75:8A:A1:68:F2:55:1E:5C:2F:3D:D5:05
            X509v3 Authority Key Identifier: 
                keyid:68:5A:37:FB:D8:80:2C:2B:9B:ED:E7:FC:41:ED:77:89:98:C4:EC:0B
                DirName:/CN=team357-net
                serial:47:BF:E3:0D:F9:5A:2E:E3:98:6C:4F:29:68:60:C1:F2:D1:22:A0:1A

            X509v3 Extended Key Usage: 
                TLS Web Server Authentication
            X509v3 Key Usage: 
                Digital Signature, Key Encipherment
            X509v3 Subject Alternative Name: 
                DNS:team357-server
    Signature Algorithm: sha256WithRSAEncryption
         29:05:6b:66:83:be:61:02:9b:d2:46:34:e8:d7:d6:24:dc:ac:
         54:49:af:79:23:89:8f:76:3e:85:37:d5:df:f2:1b:c5:cb:92:
         04:7a:87:b4:98:10:81:fc:17:dc:f0:97:31:5a:88:c9:f7:c9:
         fb:af:37:ef:49:50:d8:5e:8b:a9:99:44:6e:ff:5f:51:8b:da:
         1b:4a:5b:91:a1:86:a9:02:82:06:7f:a2:cd:50:5e:3e:fb:d3:
         aa:0e:5b:7b:97:f4:ff:4d:79:41:e2:89:c2:6d:42:4c:eb:17:
         03:67:6e:37:99:bb:5d:5a:b9:17:b2:9d:e5:56:4b:e9:71:8e:
         06:6f:2a:56:d4:d0:8a:fc:e9:4b:21:2b:fc:a5:89:d7:75:98:
         ff:95:8e:c8:4a:c2:7c:b7:61:99:33:47:90:68:67:67:a0:e1:
         86:dc:20:b8:85:fa:98:e7:d7:ab:a4:0b:bb:a5:eb:e7:8d:2f:
         05:1e:f3:2d:49:bc:61:4f:72:5f:1d:74:0e:06:78:5b:55:70:
         75:d1:b2:85:e0:46:7b:60:cb:e3:34:9e:34:f1:f1:8b:b8:a5:
         5c:e7:d1:aa:66:61:dc:4e:88:6c:6d:f2:f4:0f:d1:81:95:84:
         db:ff:00:6c:4d:2f:f8:5a:3a:19:11:40:87:5c:10:a6:94:bd:
         38:66:e2:a2
-----BEGIN CERTIFICATE-----
MIIDeDCCAmCgAwIBAgIRAJ9ZKGH7CZQOsfDygpJWwvUwDQYJKoZIhvcNAQELBQAw
FjEUMBIGA1UEAwwLdGVhbTM1Ny1uZXQwHhcNMjEwOTEzMDIwMDM0WhcNMjQwODI4
MDIwMDM0WjAZMRcwFQYDVQQDDA50ZWFtMzU3LXNlcnZlcjCCASIwDQYJKoZIhvcN
AQEBBQADggEPADCCAQoCggEBAMwi8VkGYAb9g/zLBGsahhVhwXS32UM4zMoAw+6l
c/QPChJNDiOmWWT9iGHBoHJl9n/kWKmdJxwdYBFjk68RVeRUgVwRS3h9DB3kqqQl
m8AtXmz8aJNWAvRHRWkUE6RnHxRDW6LFBvhS/aNXBmBmXRK3aiCcWKiPG4p60pTW
V6K94lb1TtSF8N5/cJfd+Wj+3oIs6U2CVWrBwtPJ4WdKaA5/oQvJl1Dtzfowj2Cl
cQV/M8tl4GaBZM9dC30adxrmVpY3m3/PsEWqT83ALqTtnug2Nrz54ufIW1aRd+Fr
DOetSUXK3hqzO+ghR0Zwln19hybvzaCB0aHPfqqbcCT5vCECAwEAAaOBvTCBujAJ
BgNVHRMEAjAAMB0GA1UdDgQWBBTmK91ek9VRLHWKoWjyVR5cLz3VBTBRBgNVHSME
SjBIgBRoWjf72IAsK5vt5/xB7XeJmMTsC6EapBgwFjEUMBIGA1UEAwwLdGVhbTM1
Ny1uZXSCFEe/4w35Wi7jmGxPKWhgwfLRIqAaMBMGA1UdJQQMMAoGCCsGAQUFBwMB
MAsGA1UdDwQEAwIFoDAZBgNVHREEEjAQgg50ZWFtMzU3LXNlcnZlcjANBgkqhkiG
9w0BAQsFAAOCAQEAKQVrZoO+YQKb0kY06NfWJNysVEmveSOJj3Y+hTfV3/IbxcuS
BHqHtJgQgfwX3PCXMVqIyffJ+68370lQ2F6LqZlEbv9fUYvaG0pbkaGGqQKCBn+i
zVBePvvTqg5be5f0/015QeKJwm1CTOsXA2duN5m7XVq5F7Kd5VZL6XGOBm8qVtTQ
ivzpSyEr/KWJ13WY/5WOyErCfLdhmTNHkGhnZ6DhhtwguIX6mOfXq6QLu6Xr540v
BR7zLUm8YU9yXx10DgZ4W1VwddGyheBGe2DL4zSeNPHxi7ilXOfRqmZh3E6IbG3y
9A/RgZWE2/8AbE0v+Fo6GRFAh1wQppS9OGbiog==
-----END CERTIFICATE-----
