Certificate:
    Data:
        Version: 3 (0x2)
        Serial Number:
            ec:7b:f4:18:94:9f:56:b9:28:ee:18:6f:df:bf:f5:60
        Signature Algorithm: sha256WithRSAEncryption
        Issuer: CN=team648-net
        Validity
            Not Before: Sep 13 04:49:33 2021 GMT
            Not After : Aug 28 04:49:33 2024 GMT
        Subject: CN=team648-client
        Subject Public Key Info:
            Public Key Algorithm: rsaEncryption
                RSA Public-Key: (2048 bit)
                Modulus:
                    00:ef:a5:8d:85:be:58:15:12:e8:73:5e:b3:2f:e9:
                    7a:45:c6:ae:36:79:6c:dc:fa:79:f8:a0:7b:62:a4:
                    4a:99:c3:54:a8:d8:d1:54:38:c7:ed:70:d9:6c:66:
                    72:6c:3b:f1:02:8f:d0:f6:bc:9b:c4:80:2e:bb:15:
                    5a:af:99:11:1e:d5:0c:b3:0e:50:c2:d8:0a:b7:e8:
                    2a:70:16:55:44:9e:71:12:9b:40:52:08:a6:63:ee:
                    fd:6d:52:b2:b4:7f:77:55:3b:61:ea:f9:53:ff:92:
                    4a:f5:ab:e8:53:c4:52:8c:6e:75:49:49:0a:63:8a:
                    ad:7d:aa:e5:b0:3a:32:15:1e:74:33:17:46:68:4d:
                    3f:82:d0:70:67:1a:ce:6a:c0:36:4b:d3:0d:8d:0e:
                    18:7f:0d:63:52:1d:96:f6:11:c5:b0:e8:34:3c:3b:
                    11:e6:6f:7d:fb:a3:95:f1:25:19:a5:9f:e0:90:04:
                    34:e4:3e:ea:e6:f5:ee:0e:b4:13:60:4c:6e:7a:47:
                    34:3e:ce:26:c5:e2:de:f0:5d:2d:fb:c9:b6:ad:1c:
                    63:1f:68:bd:c7:72:63:02:77:23:d4:db:c8:cb:f8:
                    71:c3:b1:3a:46:4b:8a:15:60:14:71:14:de:f7:1d:
                    14:57:34:25:30:62:16:ce:00:72:3f:76:01:35:91:
                    27:d5
                Exponent: 65537 (0x10001)
        X509v3 extensions:
            X509v3 Basic Constraints: 
                CA:FALSE
            X509v3 Subject Key Identifier: 
                DF:4C:A0:36:9F:AA:08:DE:0A:D9:78:22:61:66:A5:D0:87:FD:1C:D1
            X509v3 Authority Key Identifier: 
                keyid:08:17:33:0F:9C:94:F1:AE:56:C8:AF:C1:12:86:77:85:BE:6A:E1:3A
                DirName:/CN=team648-net
                serial:62:C1:4C:A0:07:23:72:08:BF:57:0B:71:88:BB:76:4C:39:3A:74:A7

            X509v3 Extended Key Usage: 
                TLS Web Client Authentication
            X509v3 Key Usage: 
                Digital Signature
    Signature Algorithm: sha256WithRSAEncryption
         4a:49:8f:d9:78:85:99:d3:05:39:d5:f1:23:66:5b:b0:16:2f:
         78:7a:eb:db:3e:aa:a1:be:de:85:b2:b2:8b:67:3f:f3:56:95:
         29:2c:75:b2:27:c7:bf:82:9f:57:ad:2f:ff:ad:95:e0:29:01:
         a9:3e:fe:e7:c9:3f:89:71:67:85:c6:bc:86:df:62:9e:26:e9:
         09:cb:90:7a:1d:ef:90:fb:25:34:09:98:1e:99:92:96:36:0e:
         b3:16:59:41:69:2c:6e:dc:1d:2c:30:ac:d4:90:e9:a3:f9:a0:
         61:19:ad:e9:fb:aa:a6:67:44:f9:e0:61:22:51:f5:e2:3c:f7:
         71:74:77:c1:cf:56:0f:e2:b6:8b:86:ec:e5:ba:94:56:b4:92:
         bd:2b:ec:d0:8f:b1:97:6b:2e:ba:02:cc:8f:d0:6e:80:4a:3f:
         dc:80:c3:0c:71:09:bf:a1:2c:86:d7:3c:e7:c8:f4:e4:30:ae:
         d3:73:f9:5c:62:9b:19:c5:27:60:33:88:ee:1d:b4:97:fc:d5:
         b6:d9:a2:b5:5a:ed:58:03:ac:93:5d:bf:18:18:07:11:e2:be:
         60:b9:0f:65:80:50:2d:79:84:c5:7e:2e:37:b6:25:f7:8b:d1:
         66:5e:df:e1:4d:10:9c:47:59:f6:d3:66:fa:00:e1:2c:d0:03:
         f6:63:76:9b
-----BEGIN CERTIFICATE-----
MIIDXTCCAkWgAwIBAgIRAOx79BiUn1a5KO4Yb9+/9WAwDQYJKoZIhvcNAQELBQAw
FjEUMBIGA1UEAwwLdGVhbTY0OC1uZXQwHhcNMjEwOTEzMDQ0OTMzWhcNMjQwODI4
MDQ0OTMzWjAZMRcwFQYDVQQDDA50ZWFtNjQ4LWNsaWVudDCCASIwDQYJKoZIhvcN
AQEBBQADggEPADCCAQoCggEBAO+ljYW+WBUS6HNesy/pekXGrjZ5bNz6efige2Kk
SpnDVKjY0VQ4x+1w2Wxmcmw78QKP0Pa8m8SALrsVWq+ZER7VDLMOUMLYCrfoKnAW
VUSecRKbQFIIpmPu/W1SsrR/d1U7Yer5U/+SSvWr6FPEUoxudUlJCmOKrX2q5bA6
MhUedDMXRmhNP4LQcGcazmrANkvTDY0OGH8NY1IdlvYRxbDoNDw7EeZvffujlfEl
GaWf4JAENOQ+6ub17g60E2BMbnpHND7OJsXi3vBdLfvJtq0cYx9ovcdyYwJ3I9Tb
yMv4ccOxOkZLihVgFHEU3vcdFFc0JTBiFs4Acj92ATWRJ9UCAwEAAaOBojCBnzAJ
BgNVHRMEAjAAMB0GA1UdDgQWBBTfTKA2n6oI3grZeCJhZqXQh/0c0TBRBgNVHSME
SjBIgBQIFzMPnJTxrlbIr8EShneFvmrhOqEapBgwFjEUMBIGA1UEAwwLdGVhbTY0
OC1uZXSCFGLBTKAHI3IIv1cLcYi7dkw5OnSnMBMGA1UdJQQMMAoGCCsGAQUFBwMC
MAsGA1UdDwQEAwIHgDANBgkqhkiG9w0BAQsFAAOCAQEASkmP2XiFmdMFOdXxI2Zb
sBYveHrr2z6qob7ehbKyi2c/81aVKSx1sifHv4KfV60v/62V4CkBqT7+58k/iXFn
hca8ht9inibpCcuQeh3vkPslNAmYHpmSljYOsxZZQWksbtwdLDCs1JDpo/mgYRmt
6fuqpmdE+eBhIlH14jz3cXR3wc9WD+K2i4bs5bqUVrSSvSvs0I+xl2suugLMj9Bu
gEo/3IDDDHEJv6Eshtc858j05DCu03P5XGKbGcUnYDOI7h20l/zVttmitVrtWAOs
k12/GBgHEeK+YLkPZYBQLXmExX4uN7Yl94vRZl7f4U0QnEdZ9tNm+gDhLNAD9mN2
mw==
-----END CERTIFICATE-----
