Certificate:
    Data:
        Version: 3 (0x2)
        Serial Number:
            d9:be:79:30:d5:56:d2:74:b1:97:bc:f9:6d:44:93:d2
        Signature Algorithm: sha256WithRSAEncryption
        Issuer: CN=team716-net
        Validity
            Not Before: Sep 13 04:57:11 2021 GMT
            Not After : Aug 28 04:57:11 2024 GMT
        Subject: CN=team716-client
        Subject Public Key Info:
            Public Key Algorithm: rsaEncryption
                RSA Public-Key: (2048 bit)
                Modulus:
                    00:bd:4f:44:3b:9e:df:71:af:81:ad:51:00:27:af:
                    61:01:96:08:fa:96:3f:89:35:dc:53:f1:8a:14:75:
                    ad:90:e8:8a:28:c9:83:3d:7a:85:df:d7:72:02:35:
                    93:ab:87:d2:bc:6f:e7:e9:e3:06:ab:fb:4a:66:8a:
                    12:8e:61:26:59:a3:17:39:21:9e:53:1c:92:87:a1:
                    d6:fe:ea:3c:47:c2:ca:e6:be:66:6e:03:4c:a2:d8:
                    e3:1f:c4:ca:04:84:f0:fe:7f:0e:f7:3e:17:01:24:
                    80:dd:8a:e7:0f:0c:81:7a:33:6c:18:71:1a:62:22:
                    3a:bf:d8:6d:f5:21:0c:c7:da:eb:7b:eb:ed:80:2d:
                    24:6e:92:42:56:25:23:fc:3a:86:46:05:55:1d:aa:
                    71:87:f5:f6:92:7b:e6:74:7e:07:be:d7:00:98:44:
                    41:b3:46:de:ac:6b:bb:b3:0c:16:c1:ea:5f:d7:9b:
                    09:4e:0b:84:bd:58:fc:89:f4:1b:e0:71:74:e1:56:
                    71:8d:01:e8:10:1d:f8:97:d6:4b:1c:15:5d:c2:bd:
                    39:ba:82:d6:e3:4c:f7:a0:01:e6:ab:01:c7:06:58:
                    e3:38:e0:fd:f7:e6:78:11:dc:dc:c9:35:87:d6:5a:
                    c3:40:7e:e3:53:9a:df:7f:83:11:60:93:83:a6:88:
                    fc:57
                Exponent: 65537 (0x10001)
        X509v3 extensions:
            X509v3 Basic Constraints: 
                CA:FALSE
            X509v3 Subject Key Identifier: 
                71:4E:E6:71:C6:47:A2:8E:D4:F3:F2:EA:E5:A0:18:B1:05:80:C8:D2
            X509v3 Authority Key Identifier: 
                keyid:D2:63:D1:B6:3C:DC:C6:5D:AA:22:F6:8D:E6:98:41:0A:D4:BE:9D:97
                DirName:/CN=team716-net
                serial:4E:BD:E7:53:D4:3B:21:24:1F:56:8A:16:93:16:10:4C:2E:A5:C5:48

            X509v3 Extended Key Usage: 
                TLS Web Client Authentication
            X509v3 Key Usage: 
                Digital Signature
    Signature Algorithm: sha256WithRSAEncryption
         1e:89:2c:cb:16:fa:f7:84:f9:cc:d5:56:30:b5:98:dc:3b:df:
         ee:fc:27:a9:a3:9d:b5:7e:19:58:9e:a7:60:2b:33:1a:bb:41:
         14:64:0c:9a:dc:d4:0a:98:ad:9a:b7:6b:81:56:11:27:8e:39:
         b5:95:b4:42:5d:a6:ef:e2:bd:75:1e:31:31:8e:56:f8:ed:3b:
         81:8b:0d:c5:d1:c7:7a:09:c5:2e:93:60:30:6e:35:78:cf:1f:
         f2:9f:0e:8b:7b:3d:28:97:03:9a:a3:f4:79:2c:fe:40:12:5c:
         59:ac:d5:82:47:50:88:a9:67:3d:a3:7d:96:c6:84:30:83:8a:
         8e:00:58:73:66:d7:d3:30:1f:b0:dc:d8:d3:0a:fb:5d:10:d5:
         ee:e5:dc:83:29:2e:fb:99:82:cc:39:06:ce:33:fb:bf:42:c2:
         d2:96:13:ed:3a:50:f6:8a:94:02:66:a5:42:0b:21:91:44:10:
         c0:04:cd:9a:02:0e:25:6b:5e:49:de:92:cb:9d:7a:18:c9:d5:
         4f:79:10:1c:6c:f9:e9:fe:7b:26:d8:5a:bc:59:06:c3:52:54:
         c9:30:d9:9c:8a:51:43:b3:c6:87:b6:69:64:60:ba:a8:d2:e6:
         03:39:d7:51:09:06:0a:be:65:7b:cf:c7:bd:bb:51:79:bf:b2:
         6f:36:be:7b
-----BEGIN CERTIFICATE-----
MIIDXTCCAkWgAwIBAgIRANm+eTDVVtJ0sZe8+W1Ek9IwDQYJKoZIhvcNAQELBQAw
FjEUMBIGA1UEAwwLdGVhbTcxNi1uZXQwHhcNMjEwOTEzMDQ1NzExWhcNMjQwODI4
MDQ1NzExWjAZMRcwFQYDVQQDDA50ZWFtNzE2LWNsaWVudDCCASIwDQYJKoZIhvcN
AQEBBQADggEPADCCAQoCggEBAL1PRDue33Gvga1RACevYQGWCPqWP4k13FPxihR1
rZDoiijJgz16hd/XcgI1k6uH0rxv5+njBqv7SmaKEo5hJlmjFzkhnlMckoeh1v7q
PEfCyua+Zm4DTKLY4x/EygSE8P5/Dvc+FwEkgN2K5w8MgXozbBhxGmIiOr/YbfUh
DMfa63vr7YAtJG6SQlYlI/w6hkYFVR2qcYf19pJ75nR+B77XAJhEQbNG3qxru7MM
FsHqX9ebCU4LhL1Y/In0G+BxdOFWcY0B6BAd+JfWSxwVXcK9ObqC1uNM96AB5qsB
xwZY4zjg/ffmeBHc3Mk1h9Zaw0B+41Oa33+DEWCTg6aI/FcCAwEAAaOBojCBnzAJ
BgNVHRMEAjAAMB0GA1UdDgQWBBRxTuZxxkeijtTz8urloBixBYDI0jBRBgNVHSME
SjBIgBTSY9G2PNzGXaoi9o3mmEEK1L6dl6EapBgwFjEUMBIGA1UEAwwLdGVhbTcx
Ni1uZXSCFE6951PUOyEkH1aKFpMWEEwupcVIMBMGA1UdJQQMMAoGCCsGAQUFBwMC
MAsGA1UdDwQEAwIHgDANBgkqhkiG9w0BAQsFAAOCAQEAHoksyxb694T5zNVWMLWY
3Dvf7vwnqaOdtX4ZWJ6nYCszGrtBFGQMmtzUCpitmrdrgVYRJ445tZW0Ql2m7+K9
dR4xMY5W+O07gYsNxdHHegnFLpNgMG41eM8f8p8Oi3s9KJcDmqP0eSz+QBJcWazV
gkdQiKlnPaN9lsaEMIOKjgBYc2bX0zAfsNzY0wr7XRDV7uXcgyku+5mCzDkGzjP7
v0LC0pYT7TpQ9oqUAmalQgshkUQQwATNmgIOJWteSd6Sy516GMnVT3kQHGz56f57
JthavFkGw1JUyTDZnIpRQ7PGh7ZpZGC6qNLmAznXUQkGCr5le8/HvbtReb+ybza+
ew==
-----END CERTIFICATE-----
