Certificate:
    Data:
        Version: 3 (0x2)
        Serial Number:
            41:31:57:6d:df:5a:47:78:3a:48:5b:e8:59:7f:dc:f8
        Signature Algorithm: sha256WithRSAEncryption
        Issuer: CN=team552-net
        Validity
            Not Before: Sep 13 03:31:43 2021 GMT
            Not After : Aug 28 03:31:43 2024 GMT
        Subject: CN=team552-client
        Subject Public Key Info:
            Public Key Algorithm: rsaEncryption
                RSA Public-Key: (2048 bit)
                Modulus:
                    00:df:e1:5c:78:4f:8f:e6:95:8b:c0:c7:7a:3c:80:
                    34:bf:44:9e:05:5f:fa:e3:49:e2:08:96:c9:6e:02:
                    fc:30:d8:9c:be:7e:5b:e6:14:ab:5b:9d:9c:ec:6d:
                    5f:30:fb:32:ec:e7:b4:32:2f:4d:fd:d7:4b:0b:bb:
                    bb:69:a6:cf:ce:d6:36:07:7f:68:1b:d7:75:d2:19:
                    17:1c:16:b7:73:f5:c8:8d:5b:a8:b7:d7:5e:4b:84:
                    37:6a:d2:1c:dc:a6:48:3b:81:93:db:74:83:e2:de:
                    8a:29:d1:a6:93:d8:f2:9f:0e:37:d2:8e:38:2d:a3:
                    1a:a2:4c:2b:8e:db:5b:ae:5a:36:f7:30:11:79:ee:
                    7c:60:e4:1a:cf:9d:9d:e5:50:92:ed:08:28:3f:6b:
                    cb:83:b1:f2:37:f8:13:7d:e5:be:2e:b0:9f:92:79:
                    a6:7a:0d:4d:af:d7:18:a6:46:4f:e4:5d:95:3a:2f:
                    c0:a0:74:d3:eb:80:96:3b:3c:6a:ed:39:15:09:26:
                    00:10:dd:d2:98:c9:36:d0:c8:ce:b2:e9:9c:e4:3f:
                    8f:9f:3e:a0:d0:e3:1d:97:26:96:c5:bd:f7:27:ef:
                    df:ab:6e:7e:9d:87:58:45:34:98:a2:0e:d6:c9:f0:
                    61:f4:ee:5d:cb:02:40:37:a4:4d:ab:27:e6:68:c3:
                    2a:a7
                Exponent: 65537 (0x10001)
        X509v3 extensions:
            X509v3 Basic Constraints: 
                CA:FALSE
            X509v3 Subject Key Identifier: 
                AB:49:92:86:61:F3:DB:20:F4:51:CE:B0:86:42:B9:8C:9F:77:40:D8
            X509v3 Authority Key Identifier: 
                keyid:FF:8B:C8:85:DE:DD:91:EE:CE:16:6F:F6:99:5E:28:80:28:1C:38:66
                DirName:/CN=team552-net
                serial:33:81:3A:9F:35:A1:87:A8:AB:CA:76:2F:B2:2E:0B:3D:25:A0:56:49

            X509v3 Extended Key Usage: 
                TLS Web Client Authentication
            X509v3 Key Usage: 
                Digital Signature
    Signature Algorithm: sha256WithRSAEncryption
         93:67:cc:ce:3b:17:2a:fc:b6:76:a9:23:50:a7:bc:07:ea:18:
         62:f0:58:de:bf:8d:07:5b:09:b6:89:94:fd:40:8b:68:c7:48:
         18:ed:b4:b8:60:20:ce:41:5f:7c:08:18:c8:ce:e8:92:9f:c0:
         8e:f1:f8:70:c8:56:c0:6d:a4:f3:28:3b:6d:bc:43:7e:bd:7c:
         38:c1:d4:b3:91:05:1b:84:26:7e:17:2d:32:09:0f:3e:eb:de:
         e7:d6:bd:8c:2a:6c:db:9a:ff:e4:10:30:a6:41:5c:06:6d:06:
         10:ac:be:58:38:17:95:f4:38:ad:52:f7:b9:c0:95:52:a4:3a:
         3a:89:d6:b6:c8:4f:93:75:3a:03:8c:a4:2b:8e:9b:b2:cc:09:
         2c:bc:87:f2:f0:10:f1:55:14:20:8f:6f:a6:d0:78:7f:e1:db:
         c3:fe:c7:2a:f6:fb:65:fb:38:0a:92:b1:6a:b3:c5:5d:19:52:
         5b:ae:fa:01:a3:92:44:8a:af:fc:e2:af:15:6c:44:0c:77:da:
         af:8a:a2:e4:91:1d:82:8b:3f:b2:47:ca:8c:f9:e7:e7:16:f8:
         77:be:aa:b4:9e:c1:4b:78:d4:43:5e:cb:65:0c:27:28:d2:2b:
         b7:c5:af:10:5d:3d:78:6a:99:b1:55:83:79:8f:a0:31:89:93:
         1e:58:5f:d0
-----BEGIN CERTIFICATE-----
MIIDXDCCAkSgAwIBAgIQQTFXbd9aR3g6SFvoWX/c+DANBgkqhkiG9w0BAQsFADAW
MRQwEgYDVQQDDAt0ZWFtNTUyLW5ldDAeFw0yMTA5MTMwMzMxNDNaFw0yNDA4Mjgw
MzMxNDNaMBkxFzAVBgNVBAMMDnRlYW01NTItY2xpZW50MIIBIjANBgkqhkiG9w0B
AQEFAAOCAQ8AMIIBCgKCAQEA3+FceE+P5pWLwMd6PIA0v0SeBV/640niCJbJbgL8
MNicvn5b5hSrW52c7G1fMPsy7Oe0Mi9N/ddLC7u7aabPztY2B39oG9d10hkXHBa3
c/XIjVuot9deS4Q3atIc3KZIO4GT23SD4t6KKdGmk9jynw430o44LaMaokwrjttb
rlo29zARee58YOQaz52d5VCS7QgoP2vLg7HyN/gTfeW+LrCfknmmeg1Nr9cYpkZP
5F2VOi/AoHTT64CWOzxq7TkVCSYAEN3SmMk20MjOsumc5D+Pnz6g0OMdlyaWxb33
J+/fq25+nYdYRTSYog7WyfBh9O5dywJAN6RNqyfmaMMqpwIDAQABo4GiMIGfMAkG
A1UdEwQCMAAwHQYDVR0OBBYEFKtJkoZh89sg9FHOsIZCuYyfd0DYMFEGA1UdIwRK
MEiAFP+LyIXe3ZHuzhZv9pleKIAoHDhmoRqkGDAWMRQwEgYDVQQDDAt0ZWFtNTUy
LW5ldIIUM4E6nzWhh6irynYvsi4LPSWgVkkwEwYDVR0lBAwwCgYIKwYBBQUHAwIw
CwYDVR0PBAQDAgeAMA0GCSqGSIb3DQEBCwUAA4IBAQCTZ8zOOxcq/LZ2qSNQp7wH
6hhi8Fjev40HWwm2iZT9QItox0gY7bS4YCDOQV98CBjIzuiSn8CO8fhwyFbAbaTz
KDttvEN+vXw4wdSzkQUbhCZ+Fy0yCQ8+697n1r2MKmzbmv/kEDCmQVwGbQYQrL5Y
OBeV9DitUve5wJVSpDo6ida2yE+TdToDjKQrjpuyzAksvIfy8BDxVRQgj2+m0Hh/
4dvD/scq9vtl+zgKkrFqs8VdGVJbrvoBo5JEiq/84q8VbEQMd9qviqLkkR2Ciz+y
R8qM+efnFvh3vqq0nsFLeNRDXstlDCco0iu3xa8QXT14apmxVYN5j6AxiZMeWF/Q
-----END CERTIFICATE-----
