Certificate:
    Data:
        Version: 3 (0x2)
        Serial Number:
            bc:8f:e3:c7:0a:84:ff:61:ac:e8:86:0d:fa:ab:15:4e
        Signature Algorithm: sha256WithRSAEncryption
        Issuer: CN=team307-net
        Validity
            Not Before: Sep 13 01:32:11 2021 GMT
            Not After : Aug 28 01:32:11 2024 GMT
        Subject: CN=team307-server
        Subject Public Key Info:
            Public Key Algorithm: rsaEncryption
                RSA Public-Key: (2048 bit)
                Modulus:
                    00:a1:6e:5f:47:a8:43:fc:f0:f9:e5:4d:66:4f:e6:
                    aa:67:10:17:9d:b9:46:9e:8c:10:14:d5:6f:ac:5c:
                    66:0e:2a:f0:a4:b4:e7:17:6b:ab:0d:0e:cf:9f:e6:
                    ba:04:0e:b9:9f:64:89:87:02:1a:45:d8:20:ad:ad:
                    84:65:43:85:04:74:6a:f1:b6:8f:c3:34:01:c4:16:
                    9c:be:04:21:9f:7f:4a:7f:9b:b1:7c:81:89:3d:1e:
                    3d:de:0f:9c:92:71:bb:11:2d:7d:af:b8:6b:b8:25:
                    4a:bc:78:fb:2a:ac:1c:2d:75:0a:aa:f5:7d:0f:b6:
                    1e:99:17:c5:41:7d:6f:c8:f1:12:88:e5:47:71:bf:
                    f7:ba:6d:5a:07:4c:4c:c5:90:15:43:03:dd:c6:1b:
                    e7:74:56:01:60:1c:4c:f4:18:06:ba:10:a1:4b:06:
                    10:f7:04:41:4f:51:7a:f4:a0:b3:6f:74:49:98:dd:
                    f8:71:07:fb:1d:50:a6:55:0f:e7:9f:45:1a:d8:ba:
                    c7:66:0a:3d:cd:4a:7c:82:22:07:8f:92:47:aa:37:
                    4f:3a:3f:5e:27:19:ea:68:30:44:5c:bc:8f:0a:6e:
                    94:71:8d:8d:9f:5d:bb:f9:2b:bf:f5:27:f7:eb:a2:
                    98:0b:08:1c:d2:11:36:c7:98:1c:7a:c8:9f:c6:b2:
                    13:bd
                Exponent: 65537 (0x10001)
        X509v3 extensions:
            X509v3 Basic Constraints: 
                CA:FALSE
            X509v3 Subject Key Identifier: 
                CB:4C:5B:98:BF:0C:65:75:1D:19:2D:41:23:0E:7C:B8:01:63:6A:BB
            X509v3 Authority Key Identifier: 
                keyid:34:07:AA:06:F3:C3:62:2E:4E:58:4B:61:DF:E8:BE:6A:58:21:68:91
                DirName:/CN=team307-net
                serial:6E:7F:03:63:41:DE:74:8D:DF:13:FE:4A:27:66:22:5A:C0:EC:02:E4

            X509v3 Extended Key Usage: 
                TLS Web Server Authentication
            X509v3 Key Usage: 
                Digital Signature, Key Encipherment
            X509v3 Subject Alternative Name: 
                DNS:team307-server
    Signature Algorithm: sha256WithRSAEncryption
         59:fd:0c:5a:5f:fb:86:3e:6d:ba:58:1c:1b:3c:0c:e7:7d:f0:
         07:6b:4b:41:04:29:91:86:fc:70:b8:83:c0:a3:c9:7a:82:0b:
         90:8b:71:95:98:3e:f0:fa:8d:a4:65:9d:8d:f4:91:93:b8:70:
         d6:32:52:b2:03:73:80:b8:17:8f:de:5c:e6:39:70:57:7d:93:
         e7:eb:e5:df:69:90:31:76:f2:85:bf:e2:3a:e0:da:bd:6e:81:
         e4:12:74:89:05:4f:93:ac:08:65:57:aa:ca:aa:68:40:a1:2c:
         83:eb:b6:7c:37:50:a7:f3:54:68:82:2b:b7:f5:35:1d:c0:00:
         bf:95:0c:bd:ef:8c:a0:95:c8:de:73:ae:53:9d:22:1b:f3:1d:
         ba:5f:3f:37:e7:07:d4:e4:c6:5e:25:81:e4:e2:ea:cd:85:9f:
         a4:c8:a2:94:4b:b2:61:e5:52:db:be:06:8a:6c:a9:3e:81:f3:
         a3:6f:3b:f8:15:c8:8f:b3:20:77:3b:57:a1:95:cf:39:b1:9f:
         9c:bf:f5:21:09:cd:9a:d7:c2:cb:16:e5:4e:17:0b:ad:92:e4:
         13:7d:64:fa:6d:62:60:cd:93:67:6c:0f:f1:b1:dc:a9:98:ff:
         16:24:cd:4d:f4:0b:29:e9:4e:b0:e5:c3:e5:fd:78:d1:3c:1c:
         a2:00:28:01
-----BEGIN CERTIFICATE-----
MIIDeDCCAmCgAwIBAgIRALyP48cKhP9hrOiGDfqrFU4wDQYJKoZIhvcNAQELBQAw
FjEUMBIGA1UEAwwLdGVhbTMwNy1uZXQwHhcNMjEwOTEzMDEzMjExWhcNMjQwODI4
MDEzMjExWjAZMRcwFQYDVQQDDA50ZWFtMzA3LXNlcnZlcjCCASIwDQYJKoZIhvcN
AQEBBQADggEPADCCAQoCggEBAKFuX0eoQ/zw+eVNZk/mqmcQF525Rp6MEBTVb6xc
Zg4q8KS05xdrqw0Oz5/mugQOuZ9kiYcCGkXYIK2thGVDhQR0avG2j8M0AcQWnL4E
IZ9/Sn+bsXyBiT0ePd4PnJJxuxEtfa+4a7glSrx4+yqsHC11Cqr1fQ+2HpkXxUF9
b8jxEojlR3G/97ptWgdMTMWQFUMD3cYb53RWAWAcTPQYBroQoUsGEPcEQU9RevSg
s290SZjd+HEH+x1QplUP559FGti6x2YKPc1KfIIiB4+SR6o3Tzo/XicZ6mgwRFy8
jwpulHGNjZ9du/krv/Un9+uimAsIHNIRNseYHHrIn8ayE70CAwEAAaOBvTCBujAJ
BgNVHRMEAjAAMB0GA1UdDgQWBBTLTFuYvwxldR0ZLUEjDny4AWNquzBRBgNVHSME
SjBIgBQ0B6oG88NiLk5YS2Hf6L5qWCFokaEapBgwFjEUMBIGA1UEAwwLdGVhbTMw
Ny1uZXSCFG5/A2NB3nSN3xP+SidmIlrA7ALkMBMGA1UdJQQMMAoGCCsGAQUFBwMB
MAsGA1UdDwQEAwIFoDAZBgNVHREEEjAQgg50ZWFtMzA3LXNlcnZlcjANBgkqhkiG
9w0BAQsFAAOCAQEAWf0MWl/7hj5tulgcGzwM533wB2tLQQQpkYb8cLiDwKPJeoIL
kItxlZg+8PqNpGWdjfSRk7hw1jJSsgNzgLgXj95c5jlwV32T5+vl32mQMXbyhb/i
OuDavW6B5BJ0iQVPk6wIZVeqyqpoQKEsg+u2fDdQp/NUaIIrt/U1HcAAv5UMve+M
oJXI3nOuU50iG/Mdul8/N+cH1OTGXiWB5OLqzYWfpMiilEuyYeVS274GimypPoHz
o287+BXIj7MgdztXoZXPObGfnL/1IQnNmtfCyxblThcLrZLkE31k+m1iYM2TZ2wP
8bHcqZj/FiTNTfQLKelOsOXD5f140TwcogAoAQ==
-----END CERTIFICATE-----
