Certificate:
    Data:
        Version: 3 (0x2)
        Serial Number:
            15:c2:cf:3e:06:e3:03:82:7a:7f:2b:40:e4:5a:3d:68
        Signature Algorithm: sha256WithRSAEncryption
        Issuer: CN=team31-net
        Validity
            Not Before: Sep 12 23:01:27 2021 GMT
            Not After : Aug 27 23:01:27 2024 GMT
        Subject: CN=team31-client
        Subject Public Key Info:
            Public Key Algorithm: rsaEncryption
                RSA Public-Key: (2048 bit)
                Modulus:
                    00:c9:9a:6d:cf:31:5d:e0:5f:34:19:6a:09:22:42:
                    d1:ad:ea:d9:1f:cd:3f:65:40:9f:53:f4:8a:39:ec:
                    d0:81:06:58:d3:4c:db:e7:42:b5:b4:e4:f4:c5:ad:
                    75:a9:21:d3:20:d0:8c:54:94:ef:03:33:ba:8e:7c:
                    f2:3d:93:3c:b3:25:b4:5c:b8:4f:b4:5f:79:66:f9:
                    f0:33:f6:b6:04:1c:f3:6a:72:f4:23:7e:57:5a:4c:
                    50:70:9f:b6:c0:39:ec:0f:e3:f4:d2:94:cd:61:e0:
                    22:75:01:78:7c:e7:df:88:1a:c6:54:f1:e5:52:3e:
                    64:0e:3f:0c:7f:1e:b6:38:78:0d:74:7d:5b:db:dd:
                    be:51:2d:51:00:a4:78:9b:f0:00:4f:3e:99:b7:56:
                    e1:7a:89:6f:96:5d:e9:15:47:f6:1c:83:8f:43:ae:
                    d9:d8:89:3b:67:57:ff:75:d6:b1:df:24:8b:ac:e1:
                    04:3d:28:c0:22:39:cf:1f:c9:83:fb:88:ed:26:ec:
                    7a:dc:12:1c:51:3b:53:ee:e8:12:cb:85:a6:7b:06:
                    de:0b:ab:a0:df:45:ba:6c:0b:45:b3:00:5a:39:f0:
                    0e:16:35:32:45:cf:0c:bf:39:42:01:96:68:be:44:
                    47:64:57:73:b0:3c:46:31:f2:5d:a4:07:ef:c3:f9:
                    1e:59
                Exponent: 65537 (0x10001)
        X509v3 extensions:
            X509v3 Basic Constraints: 
                CA:FALSE
            X509v3 Subject Key Identifier: 
                DE:46:28:2E:F7:91:C6:2B:7F:3B:53:0B:55:B6:48:52:3D:53:C2:DC
            X509v3 Authority Key Identifier: 
                keyid:7F:D4:1A:97:ED:85:16:DF:D1:D6:9A:EE:E5:03:DD:D8:12:9C:73:A8
                DirName:/CN=team31-net
                serial:2F:0E:68:13:15:22:3B:4B:14:B7:BF:F1:4C:06:4F:2E:79:9E:B3:FF

            X509v3 Extended Key Usage: 
                TLS Web Client Authentication
            X509v3 Key Usage: 
                Digital Signature
    Signature Algorithm: sha256WithRSAEncryption
         2f:c2:6d:86:74:7b:02:fb:e8:e9:5d:8d:d9:d8:e2:0b:61:b3:
         87:f2:bb:61:86:9c:a9:09:f7:f0:1d:97:42:62:82:ca:d1:1b:
         04:97:e4:23:80:ed:87:82:bd:43:96:75:65:72:92:86:cd:e9:
         21:64:e7:66:7e:31:49:73:5d:c7:99:f6:c0:28:8b:04:97:33:
         74:8c:e3:02:12:e6:8c:8b:11:52:cd:3f:7e:88:10:6e:00:87:
         ae:f1:ee:c8:0f:6e:b4:05:4c:a2:f1:23:21:a9:7f:49:ad:f2:
         0d:6f:ed:e2:46:61:97:b4:99:6d:04:d7:c2:0c:84:7a:82:38:
         c0:dd:d6:aa:b5:26:95:9a:fb:b1:c5:d7:ee:d5:0e:cd:44:ea:
         89:27:16:de:32:73:2b:3a:c2:2a:0a:68:7f:88:2a:63:ac:e6:
         f8:7a:32:f2:10:6b:94:98:80:db:57:d4:2c:12:b9:5d:b0:23:
         2e:4d:83:a8:b7:17:40:9d:9b:89:16:1d:84:8b:6c:7e:5c:a7:
         81:a8:4c:38:17:b3:d2:0f:aa:43:2a:fc:d3:c8:bc:8e:64:f6:
         dc:8f:eb:6e:a3:79:bb:0d:57:cb:e4:1e:50:29:02:1d:5d:0e:
         e1:60:dd:e2:6f:8d:3f:73:8a:44:ba:a6:bd:eb:6e:3f:f4:6d:
         6d:5d:02:9e
-----BEGIN CERTIFICATE-----
MIIDWTCCAkGgAwIBAgIQFcLPPgbjA4J6fytA5Fo9aDANBgkqhkiG9w0BAQsFADAV
MRMwEQYDVQQDDAp0ZWFtMzEtbmV0MB4XDTIxMDkxMjIzMDEyN1oXDTI0MDgyNzIz
MDEyN1owGDEWMBQGA1UEAwwNdGVhbTMxLWNsaWVudDCCASIwDQYJKoZIhvcNAQEB
BQADggEPADCCAQoCggEBAMmabc8xXeBfNBlqCSJC0a3q2R/NP2VAn1P0ijns0IEG
WNNM2+dCtbTk9MWtdakh0yDQjFSU7wMzuo588j2TPLMltFy4T7RfeWb58DP2tgQc
82py9CN+V1pMUHCftsA57A/j9NKUzWHgInUBeHzn34gaxlTx5VI+ZA4/DH8etjh4
DXR9W9vdvlEtUQCkeJvwAE8+mbdW4XqJb5Zd6RVH9hyDj0Ou2diJO2dX/3XWsd8k
i6zhBD0owCI5zx/Jg/uI7SbsetwSHFE7U+7oEsuFpnsG3guroN9FumwLRbMAWjnw
DhY1MkXPDL85QgGWaL5ER2RXc7A8RjHyXaQH78P5HlkCAwEAAaOBoTCBnjAJBgNV
HRMEAjAAMB0GA1UdDgQWBBTeRigu95HGK387UwtVtkhSPVPC3DBQBgNVHSMESTBH
gBR/1BqX7YUW39HWmu7lA93YEpxzqKEZpBcwFTETMBEGA1UEAwwKdGVhbTMxLW5l
dIIULw5oExUiO0sUt7/xTAZPLnmes/8wEwYDVR0lBAwwCgYIKwYBBQUHAwIwCwYD
VR0PBAQDAgeAMA0GCSqGSIb3DQEBCwUAA4IBAQAvwm2GdHsC++jpXY3Z2OILYbOH
8rthhpypCffwHZdCYoLK0RsEl+QjgO2Hgr1DlnVlcpKGzekhZOdmfjFJc13HmfbA
KIsElzN0jOMCEuaMixFSzT9+iBBuAIeu8e7ID260BUyi8SMhqX9JrfINb+3iRmGX
tJltBNfCDIR6gjjA3daqtSaVmvuxxdfu1Q7NROqJJxbeMnMrOsIqCmh/iCpjrOb4
ejLyEGuUmIDbV9QsErldsCMuTYOotxdAnZuJFh2Ei2x+XKeBqEw4F7PSD6pDKvzT
yLyOZPbcj+tuo3m7DVfL5B5QKQIdXQ7hYN3ib40/c4pEuqa9624/9G1tXQKe
-----END CERTIFICATE-----
