Certificate:
    Data:
        Version: 3 (0x2)
        Serial Number:
            49:04:48:fb:d2:13:d0:9d:26:5f:93:d0:88:d3:12:eb
        Signature Algorithm: sha256WithRSAEncryption
        Issuer: CN=team39-net
        Validity
            Not Before: Sep 12 23:03:42 2021 GMT
            Not After : Aug 27 23:03:42 2024 GMT
        Subject: CN=team39-server
        Subject Public Key Info:
            Public Key Algorithm: rsaEncryption
                RSA Public-Key: (2048 bit)
                Modulus:
                    00:cf:98:a2:dc:7c:f3:9e:3d:05:3b:eb:a1:bc:71:
                    b0:3b:d2:7f:20:32:09:ce:d6:fd:6e:bd:24:ab:b7:
                    31:73:e7:94:f1:be:40:46:24:97:b0:2f:f1:64:21:
                    ed:33:98:13:69:48:d3:3e:68:a4:51:86:2a:d4:d0:
                    6a:86:9e:ab:c7:d3:13:91:d1:2e:c9:24:d0:d1:58:
                    6c:bc:f0:33:6b:07:b3:af:2a:9d:78:d1:13:7a:29:
                    9d:64:7c:73:bf:2b:99:12:37:a1:69:c1:09:56:ce:
                    b7:ee:ed:00:53:3d:55:46:b0:0b:83:02:00:44:38:
                    e2:62:65:7e:61:9a:5a:7b:b3:d0:09:ce:d1:a4:79:
                    3d:4f:ed:39:45:f1:69:3d:db:ad:bc:0b:41:20:f0:
                    95:d2:82:d3:f0:94:ea:8e:93:20:10:27:2f:2c:c2:
                    d5:6f:d7:03:9b:3c:a8:25:f7:54:a3:13:e9:48:f6:
                    11:4a:77:3d:e7:ba:42:05:84:ff:a6:c3:a7:5d:5f:
                    79:61:ee:ee:ba:4d:2e:8e:1e:40:11:66:b9:2f:8d:
                    29:3c:15:20:7f:9a:e8:3b:90:78:ef:1a:bb:4f:99:
                    ab:cd:14:1f:63:27:8d:04:db:9b:d2:8d:42:09:b5:
                    8f:37:2c:d4:4e:b2:f1:26:86:e5:a6:00:ab:e9:f7:
                    e9:77
                Exponent: 65537 (0x10001)
        X509v3 extensions:
            X509v3 Basic Constraints: 
                CA:FALSE
            X509v3 Subject Key Identifier: 
                5A:C9:DB:EB:5C:CD:2D:82:3C:5A:D6:31:A7:99:99:2D:AC:CB:CD:07
            X509v3 Authority Key Identifier: 
                keyid:74:E0:49:AE:F6:0C:81:2C:76:96:41:4E:02:55:AB:62:DB:3E:31:5F
                DirName:/CN=team39-net
                serial:0F:6D:8F:D4:E1:C2:FC:51:92:8C:ED:10:10:D8:C4:FD:6E:2F:B2:F2

            X509v3 Extended Key Usage: 
                TLS Web Server Authentication
            X509v3 Key Usage: 
                Digital Signature, Key Encipherment
            X509v3 Subject Alternative Name: 
                DNS:team39-server
    Signature Algorithm: sha256WithRSAEncryption
         46:93:e5:5f:7f:c1:52:ed:0d:d5:cd:23:5a:b6:2c:eb:88:8d:
         c5:20:2d:3b:8a:15:75:7f:af:91:0a:58:ac:55:0f:78:8a:30:
         e2:79:14:f9:86:d8:54:cf:2b:9f:dc:38:5d:4b:84:71:60:5d:
         dd:42:52:57:cc:ac:8b:0b:98:b6:f2:7f:41:c1:d8:90:17:ca:
         7d:41:cf:d6:04:ac:a3:12:12:86:28:60:a3:e9:40:e5:e3:d3:
         1b:e8:aa:50:90:d1:9f:1f:16:87:81:1d:7c:3e:a7:79:a4:2c:
         4f:f2:8c:f3:3f:64:8e:85:7d:07:57:21:e6:cf:01:cc:6d:41:
         1d:c0:90:e3:cb:5b:9f:cf:86:48:4d:1d:4d:cf:c4:2a:0a:69:
         54:bf:b3:c4:b9:d6:e6:a3:dd:56:da:71:32:09:7d:ea:de:e3:
         79:8d:b7:9b:19:b2:0e:d3:de:cc:de:08:20:dd:3a:49:59:db:
         8f:0a:7e:c3:1c:7e:28:e6:cb:22:40:ce:13:3b:51:ba:33:f3:
         49:2c:11:fc:01:51:1a:69:3f:8b:41:c9:f1:90:ee:24:21:bc:
         6e:4a:f1:db:2f:4e:36:70:a6:be:fe:cc:4b:17:91:32:92:14:
         7d:6e:68:6c:02:b8:47:42:97:f7:79:e0:7d:14:ab:81:0e:48:
         de:70:09:b1
-----BEGIN CERTIFICATE-----
MIIDczCCAlugAwIBAgIQSQRI+9IT0J0mX5PQiNMS6zANBgkqhkiG9w0BAQsFADAV
MRMwEQYDVQQDDAp0ZWFtMzktbmV0MB4XDTIxMDkxMjIzMDM0MloXDTI0MDgyNzIz
MDM0MlowGDEWMBQGA1UEAwwNdGVhbTM5LXNlcnZlcjCCASIwDQYJKoZIhvcNAQEB
BQADggEPADCCAQoCggEBAM+Yotx88549BTvrobxxsDvSfyAyCc7W/W69JKu3MXPn
lPG+QEYkl7Av8WQh7TOYE2lI0z5opFGGKtTQaoaeq8fTE5HRLskk0NFYbLzwM2sH
s68qnXjRE3opnWR8c78rmRI3oWnBCVbOt+7tAFM9VUawC4MCAEQ44mJlfmGaWnuz
0AnO0aR5PU/tOUXxaT3brbwLQSDwldKC0/CU6o6TIBAnLyzC1W/XA5s8qCX3VKMT
6Uj2EUp3Pee6QgWE/6bDp11feWHu7rpNLo4eQBFmuS+NKTwVIH+a6DuQeO8au0+Z
q80UH2MnjQTbm9KNQgm1jzcs1E6y8SaG5aYAq+n36XcCAwEAAaOBuzCBuDAJBgNV
HRMEAjAAMB0GA1UdDgQWBBRaydvrXM0tgjxa1jGnmZktrMvNBzBQBgNVHSMESTBH
gBR04Emu9gyBLHaWQU4CVati2z4xX6EZpBcwFTETMBEGA1UEAwwKdGVhbTM5LW5l
dIIUD22P1OHC/FGSjO0QENjE/W4vsvIwEwYDVR0lBAwwCgYIKwYBBQUHAwEwCwYD
VR0PBAQDAgWgMBgGA1UdEQQRMA+CDXRlYW0zOS1zZXJ2ZXIwDQYJKoZIhvcNAQEL
BQADggEBAEaT5V9/wVLtDdXNI1q2LOuIjcUgLTuKFXV/r5EKWKxVD3iKMOJ5FPmG
2FTPK5/cOF1LhHFgXd1CUlfMrIsLmLbyf0HB2JAXyn1Bz9YErKMSEoYoYKPpQOXj
0xvoqlCQ0Z8fFoeBHXw+p3mkLE/yjPM/ZI6FfQdXIebPAcxtQR3AkOPLW5/PhkhN
HU3PxCoKaVS/s8S51uaj3VbacTIJfere43mNt5sZsg7T3szeCCDdOklZ248KfsMc
fijmyyJAzhM7Uboz80ksEfwBURppP4tByfGQ7iQhvG5K8dsvTjZwpr7+zEsXkTKS
FH1uaGwCuEdCl/d54H0Uq4EOSN5wCbE=
-----END CERTIFICATE-----
