Certificate:
    Data:
        Version: 3 (0x2)
        Serial Number:
            a6:13:da:cf:3e:33:30:94:8b:25:f6:9a:18:46:26:73
        Signature Algorithm: sha256WithRSAEncryption
        Issuer: CN=team115-net
        Validity
            Not Before: Sep 12 23:44:03 2021 GMT
            Not After : Aug 27 23:44:03 2024 GMT
        Subject: CN=team115-client
        Subject Public Key Info:
            Public Key Algorithm: rsaEncryption
                RSA Public-Key: (2048 bit)
                Modulus:
                    00:b1:80:09:07:88:b8:cb:e6:59:2e:79:da:a0:c2:
                    24:a3:89:c0:bd:88:ca:3c:c9:45:7b:fe:70:a7:75:
                    45:ba:15:e7:39:1f:83:a1:ac:d5:82:5c:6f:ef:db:
                    73:70:61:21:0c:5e:f5:b8:78:2c:78:64:b1:de:e6:
                    b9:65:08:cf:f5:d6:6f:2e:73:dd:61:86:dc:f7:22:
                    c2:b2:ff:2d:81:f8:88:d4:27:4c:b0:3d:45:f2:e9:
                    fe:aa:c9:38:a6:29:b2:34:d6:82:f6:6a:84:65:20:
                    51:c1:af:ba:5b:5b:2f:a4:1a:4f:cb:5e:3d:f9:c0:
                    37:7c:b4:5d:5c:c3:f1:df:de:5a:14:d7:4d:2f:09:
                    3b:16:8d:69:0c:6b:98:b6:2e:4d:23:18:2f:d8:90:
                    2c:86:b5:b9:af:11:56:f3:5c:1d:27:cc:29:45:30:
                    a2:b8:5b:b3:92:1b:5d:57:eb:87:88:0a:f4:de:08:
                    5b:3f:0a:4e:2d:db:31:78:4e:9f:ea:2f:e6:98:c3:
                    a2:a5:5f:8f:19:cd:18:58:af:5d:c4:4f:8f:f2:3c:
                    58:ff:b8:fb:2e:ee:f5:a7:46:37:a4:3d:e3:fd:76:
                    f8:b9:0f:dd:76:a3:5c:e0:df:80:51:74:01:24:55:
                    ca:4d:67:80:dc:f2:50:c6:9a:35:01:4f:a9:c9:0b:
                    4e:d9
                Exponent: 65537 (0x10001)
        X509v3 extensions:
            X509v3 Basic Constraints: 
                CA:FALSE
            X509v3 Subject Key Identifier: 
                5A:71:27:DB:4D:AC:20:FF:99:BA:96:1B:C8:30:C9:BD:D0:4A:DA:AD
            X509v3 Authority Key Identifier: 
                keyid:3C:36:5D:22:A5:3A:48:F0:E6:23:B8:90:A8:71:8A:1E:2D:3F:91:64
                DirName:/CN=team115-net
                serial:4C:39:DC:25:C0:C2:78:32:AA:ED:F5:82:35:CB:E9:6D:A6:C0:38:99

            X509v3 Extended Key Usage: 
                TLS Web Client Authentication
            X509v3 Key Usage: 
                Digital Signature
    Signature Algorithm: sha256WithRSAEncryption
         ac:f9:0c:43:29:e0:f0:8a:e1:cf:fd:eb:7c:f1:72:2f:53:76:
         08:01:03:3a:23:17:ad:df:a4:3c:3e:0a:e7:ee:ff:80:40:29:
         e6:0a:20:8f:e8:39:5a:91:5c:42:ff:b6:78:7a:f6:78:a4:14:
         82:76:ed:5e:2c:fb:6f:ba:58:ee:6b:44:da:e1:d4:08:46:e4:
         a5:02:6e:79:d8:0c:ff:81:ec:7f:c8:f2:50:fb:75:61:3f:df:
         9c:5a:98:62:a2:a9:3e:ec:62:d5:70:c6:67:59:28:4c:02:15:
         b5:b8:e9:89:35:50:c1:96:37:ea:fa:56:e9:27:8a:5f:92:25:
         dd:9a:09:8b:02:e0:9f:42:f7:6b:ed:cc:b0:1d:55:a5:04:33:
         fc:70:85:cf:50:b4:86:bb:fd:ee:74:f6:0d:f3:13:a2:d6:cf:
         3e:0e:48:68:6a:81:fa:70:ed:5a:20:9c:86:dd:22:7b:b6:c5:
         c3:da:0d:bd:79:b1:6e:3d:77:ce:78:e1:cc:5d:5b:6d:f7:08:
         0c:d3:46:42:6e:43:fe:45:c4:c6:ef:f8:4f:c0:a3:26:9d:70:
         83:04:23:4c:a2:aa:02:a6:fc:36:fb:21:e7:53:04:ed:b5:78:
         f4:03:d1:7c:6e:80:ca:7b:03:a2:1d:49:bb:45:3a:17:de:7c:
         24:ac:cb:b4
-----BEGIN CERTIFICATE-----
MIIDXTCCAkWgAwIBAgIRAKYT2s8+MzCUiyX2mhhGJnMwDQYJKoZIhvcNAQELBQAw
FjEUMBIGA1UEAwwLdGVhbTExNS1uZXQwHhcNMjEwOTEyMjM0NDAzWhcNMjQwODI3
MjM0NDAzWjAZMRcwFQYDVQQDDA50ZWFtMTE1LWNsaWVudDCCASIwDQYJKoZIhvcN
AQEBBQADggEPADCCAQoCggEBALGACQeIuMvmWS552qDCJKOJwL2IyjzJRXv+cKd1
RboV5zkfg6Gs1YJcb+/bc3BhIQxe9bh4LHhksd7muWUIz/XWby5z3WGG3PciwrL/
LYH4iNQnTLA9RfLp/qrJOKYpsjTWgvZqhGUgUcGvultbL6QaT8tePfnAN3y0XVzD
8d/eWhTXTS8JOxaNaQxrmLYuTSMYL9iQLIa1ua8RVvNcHSfMKUUworhbs5IbXVfr
h4gK9N4IWz8KTi3bMXhOn+ov5pjDoqVfjxnNGFivXcRPj/I8WP+4+y7u9adGN6Q9
4/12+LkP3XajXODfgFF0ASRVyk1ngNzyUMaaNQFPqckLTtkCAwEAAaOBojCBnzAJ
BgNVHRMEAjAAMB0GA1UdDgQWBBRacSfbTawg/5m6lhvIMMm90ErarTBRBgNVHSME
SjBIgBQ8Nl0ipTpI8OYjuJCocYoeLT+RZKEapBgwFjEUMBIGA1UEAwwLdGVhbTEx
NS1uZXSCFEw53CXAwngyqu31gjXL6W2mwDiZMBMGA1UdJQQMMAoGCCsGAQUFBwMC
MAsGA1UdDwQEAwIHgDANBgkqhkiG9w0BAQsFAAOCAQEArPkMQyng8Irhz/3rfPFy
L1N2CAEDOiMXrd+kPD4K5+7/gEAp5gogj+g5WpFcQv+2eHr2eKQUgnbtXiz7b7pY
7mtE2uHUCEbkpQJuedgM/4Hsf8jyUPt1YT/fnFqYYqKpPuxi1XDGZ1koTAIVtbjp
iTVQwZY36vpW6SeKX5Il3ZoJiwLgn0L3a+3MsB1VpQQz/HCFz1C0hrv97nT2DfMT
otbPPg5IaGqB+nDtWiCcht0ie7bFw9oNvXmxbj13znjhzF1bbfcIDNNGQm5D/kXE
xu/4T8CjJp1wgwQjTKKqAqb8Nvsh51ME7bV49APRfG6AynsDoh1Ju0U6F958JKzL
tA==
-----END CERTIFICATE-----
