Certificate:
    Data:
        Version: 3 (0x2)
        Serial Number:
            85:18:57:ed:d3:81:0d:d7:d4:8e:13:d9:90:d2:80:37
        Signature Algorithm: sha256WithRSAEncryption
        Issuer: CN=team115-net
        Validity
            Not Before: Sep 12 23:44:03 2021 GMT
            Not After : Aug 27 23:44:03 2024 GMT
        Subject: CN=team115-server
        Subject Public Key Info:
            Public Key Algorithm: rsaEncryption
                RSA Public-Key: (2048 bit)
                Modulus:
                    00:9b:9a:8e:32:9e:d6:7d:fb:80:aa:19:4c:37:cb:
                    a5:75:f0:46:b1:91:2a:36:4a:ec:c5:c7:c9:c5:e3:
                    49:8a:9a:fd:eb:01:4f:26:06:e5:3f:c8:2a:d5:f5:
                    1c:99:91:ff:ac:83:d0:98:fd:a2:90:b8:f1:3f:2a:
                    bf:00:40:01:8c:78:ab:4e:bd:05:87:3d:36:df:58:
                    cc:ee:7f:33:ad:16:ae:6d:85:ef:d2:a1:bf:25:52:
                    2a:f2:61:bb:20:02:b3:d7:c8:37:51:e6:0c:e0:1c:
                    14:30:2f:05:6b:65:50:bd:da:fc:0b:88:2d:dc:43:
                    b0:a2:27:57:40:d0:a8:f1:7e:eb:be:77:e1:f4:d1:
                    a7:27:79:60:9b:25:2a:98:d3:40:76:ac:1d:98:d4:
                    fe:2d:31:92:1b:b7:18:52:76:43:65:51:bd:8d:bf:
                    37:6f:ee:ff:a4:6f:a5:16:72:f0:ac:1d:92:66:f5:
                    2e:31:23:5d:eb:43:6b:98:b8:ea:fa:98:c9:00:82:
                    9f:af:6b:b7:84:a9:6c:de:c7:9c:cc:05:74:b4:b9:
                    64:c2:01:8e:d2:b8:b4:9f:50:61:d7:1a:6a:6c:48:
                    bb:a4:f0:8a:5f:ae:50:1e:0f:53:fa:43:d2:0b:d7:
                    4e:ba:e4:64:fe:51:5f:36:9f:62:8a:6d:6b:ea:0b:
                    9d:5b
                Exponent: 65537 (0x10001)
        X509v3 extensions:
            X509v3 Basic Constraints: 
                CA:FALSE
            X509v3 Subject Key Identifier: 
                AF:FA:CF:37:A2:5E:4A:45:57:64:01:BB:DA:1E:44:B9:12:89:EA:D7
            X509v3 Authority Key Identifier: 
                keyid:3C:36:5D:22:A5:3A:48:F0:E6:23:B8:90:A8:71:8A:1E:2D:3F:91:64
                DirName:/CN=team115-net
                serial:4C:39:DC:25:C0:C2:78:32:AA:ED:F5:82:35:CB:E9:6D:A6:C0:38:99

            X509v3 Extended Key Usage: 
                TLS Web Server Authentication
            X509v3 Key Usage: 
                Digital Signature, Key Encipherment
            X509v3 Subject Alternative Name: 
                DNS:team115-server
    Signature Algorithm: sha256WithRSAEncryption
         89:ae:b8:b4:4d:1f:a0:ab:18:5d:f1:b0:65:6a:85:f7:3d:f5:
         31:2d:11:32:dd:f0:d5:db:f5:58:7e:40:74:8f:54:70:ca:c3:
         e7:f2:dc:e5:43:cc:83:9a:fd:22:17:51:52:20:0f:84:ee:8b:
         23:80:79:87:1d:b6:16:db:2e:71:3b:41:a9:01:1a:2c:f2:bb:
         ed:6b:2d:25:ca:03:98:08:52:d5:56:89:b9:c4:1f:9b:65:eb:
         6b:2b:25:5e:88:c3:8c:0d:a0:94:f6:01:48:91:22:80:96:a5:
         d3:45:e0:86:03:94:f5:65:29:3a:df:5c:91:3d:0b:37:b7:39:
         0f:28:d5:d5:4c:f6:7b:9e:bf:07:ec:a0:f2:f8:0e:75:0b:11:
         df:df:6e:b8:14:74:54:00:f9:1a:4a:ed:ca:35:a0:53:c2:88:
         d7:00:77:fa:e5:1b:09:95:72:7f:c4:54:b9:92:19:1a:d5:a1:
         1d:12:7b:96:02:7e:df:42:d1:6e:12:66:8b:f2:aa:5f:8f:93:
         b2:ab:63:26:ce:e0:37:6f:90:8b:8c:0a:c4:42:70:01:ab:e1:
         af:2b:06:e7:5b:71:3d:5a:48:53:f1:df:f0:d5:d2:ed:10:d2:
         de:9d:48:48:dd:25:9a:1c:d2:98:4b:67:1e:60:2a:82:f9:f4:
         fc:84:50:21
-----BEGIN CERTIFICATE-----
MIIDeDCCAmCgAwIBAgIRAIUYV+3TgQ3X1I4T2ZDSgDcwDQYJKoZIhvcNAQELBQAw
FjEUMBIGA1UEAwwLdGVhbTExNS1uZXQwHhcNMjEwOTEyMjM0NDAzWhcNMjQwODI3
MjM0NDAzWjAZMRcwFQYDVQQDDA50ZWFtMTE1LXNlcnZlcjCCASIwDQYJKoZIhvcN
AQEBBQADggEPADCCAQoCggEBAJuajjKe1n37gKoZTDfLpXXwRrGRKjZK7MXHycXj
SYqa/esBTyYG5T/IKtX1HJmR/6yD0Jj9opC48T8qvwBAAYx4q069BYc9Nt9YzO5/
M60Wrm2F79KhvyVSKvJhuyACs9fIN1HmDOAcFDAvBWtlUL3a/AuILdxDsKInV0DQ
qPF+67534fTRpyd5YJslKpjTQHasHZjU/i0xkhu3GFJ2Q2VRvY2/N2/u/6RvpRZy
8Kwdkmb1LjEjXetDa5i46vqYyQCCn69rt4SpbN7HnMwFdLS5ZMIBjtK4tJ9QYdca
amxIu6Twil+uUB4PU/pD0gvXTrrkZP5RXzafYopta+oLnVsCAwEAAaOBvTCBujAJ
BgNVHRMEAjAAMB0GA1UdDgQWBBSv+s83ol5KRVdkAbvaHkS5Eonq1zBRBgNVHSME
SjBIgBQ8Nl0ipTpI8OYjuJCocYoeLT+RZKEapBgwFjEUMBIGA1UEAwwLdGVhbTEx
NS1uZXSCFEw53CXAwngyqu31gjXL6W2mwDiZMBMGA1UdJQQMMAoGCCsGAQUFBwMB
MAsGA1UdDwQEAwIFoDAZBgNVHREEEjAQgg50ZWFtMTE1LXNlcnZlcjANBgkqhkiG
9w0BAQsFAAOCAQEAia64tE0foKsYXfGwZWqF9z31MS0RMt3w1dv1WH5AdI9UcMrD
5/Lc5UPMg5r9IhdRUiAPhO6LI4B5hx22FtsucTtBqQEaLPK77WstJcoDmAhS1VaJ
ucQfm2XrayslXojDjA2glPYBSJEigJal00XghgOU9WUpOt9ckT0LN7c5DyjV1Uz2
e56/B+yg8vgOdQsR399uuBR0VAD5GkrtyjWgU8KI1wB3+uUbCZVyf8RUuZIZGtWh
HRJ7lgJ+30LRbhJmi/KqX4+TsqtjJs7gN2+Qi4wKxEJwAavhrysG51txPVpIU/Hf
8NXS7RDS3p1ISN0lmhzSmEtnHmAqgvn0/IRQIQ==
-----END CERTIFICATE-----
