Certificate:
    Data:
        Version: 3 (0x2)
        Serial Number:
            cb:12:b0:16:cb:f0:ba:42:6c:1e:b9:57:e2:e0:57:ea
        Signature Algorithm: sha256WithRSAEncryption
        Issuer: CN=team731-net
        Validity
            Not Before: Sep 13 05:40:09 2021 GMT
            Not After : Aug 28 05:40:09 2024 GMT
        Subject: CN=team731-server
        Subject Public Key Info:
            Public Key Algorithm: rsaEncryption
                RSA Public-Key: (2048 bit)
                Modulus:
                    00:d6:69:af:1a:66:bd:16:c4:b0:cd:e0:70:5b:5a:
                    e3:e8:87:cd:d1:df:76:15:eb:91:be:cc:e0:ee:5d:
                    5b:5f:af:05:54:a9:2b:ef:fb:ae:19:77:34:4f:0b:
                    89:82:d4:3c:d3:fd:66:47:9b:df:3d:9e:f7:9a:fb:
                    e4:e7:7c:75:ab:b5:f1:5b:cc:dc:65:f8:dc:c1:c6:
                    a6:f8:96:f3:ae:63:c7:91:68:d6:ea:2f:3a:6f:3e:
                    71:f5:db:a3:0f:24:ca:d7:20:d1:51:4d:65:13:13:
                    2e:8f:b8:ea:2f:39:1b:33:8f:de:da:61:3b:12:e0:
                    34:0e:dd:97:24:31:82:4c:35:bb:2a:2f:f5:dd:49:
                    d4:50:0a:bd:5a:bd:8c:ee:73:dd:a8:22:6e:c8:d0:
                    ac:14:2d:f4:f8:4c:1f:ef:ff:3e:2a:6e:b8:40:0a:
                    2d:56:f1:39:d2:8e:3d:19:4c:68:a8:c5:0a:c7:f9:
                    46:02:f9:35:9e:40:21:ad:64:f2:9b:e0:b0:c1:fe:
                    e6:0c:95:ab:a2:50:51:16:b9:54:eb:53:04:d0:36:
                    a5:a1:6d:b5:ab:03:9d:49:70:f0:68:98:13:05:ea:
                    0e:7b:8c:a1:53:5f:f1:46:28:31:df:38:e5:40:a8:
                    ce:a9:29:25:5c:65:43:6d:0b:9e:57:99:c0:20:c8:
                    cb:29
                Exponent: 65537 (0x10001)
        X509v3 extensions:
            X509v3 Basic Constraints: 
                CA:FALSE
            X509v3 Subject Key Identifier: 
                46:BC:E5:2C:5B:6F:8D:4E:6C:FB:11:D1:F1:81:8F:00:B8:59:4D:07
            X509v3 Authority Key Identifier: 
                keyid:F2:72:41:99:1C:BC:E8:ED:8D:F4:2E:82:ED:1F:A0:66:17:13:7F:DA
                DirName:/CN=team731-net
                serial:05:78:49:B0:85:95:FC:74:9D:6C:0C:52:E3:0F:83:50:7C:97:5E:10

            X509v3 Extended Key Usage: 
                TLS Web Server Authentication
            X509v3 Key Usage: 
                Digital Signature, Key Encipherment
            X509v3 Subject Alternative Name: 
                DNS:team731-server
    Signature Algorithm: sha256WithRSAEncryption
         ac:59:97:a9:af:af:aa:8d:fe:a1:67:57:78:3e:e1:de:da:19:
         97:f9:82:0f:73:5f:77:9f:39:9a:91:e5:31:0b:40:f1:84:29:
         31:aa:fc:5c:7f:25:e1:55:66:bb:e6:dd:4e:0a:34:06:a1:bd:
         a5:04:87:f8:7a:92:c3:21:2e:af:12:5b:3a:e6:26:eb:eb:16:
         38:a9:5d:b9:59:6d:61:cf:48:82:b8:91:73:d8:e6:a0:94:08:
         a2:ac:30:3a:4c:be:9a:ba:a4:0b:2f:c4:34:46:9f:34:8f:e4:
         c3:83:90:62:b4:dc:eb:a9:b3:5a:cd:d8:c7:f5:60:17:8b:dd:
         ba:e1:60:d9:eb:34:de:a3:f2:6a:17:3e:39:b4:0a:40:b7:7d:
         5e:cc:00:cf:57:85:7b:eb:0f:1a:2a:fb:62:bc:5b:3e:36:96:
         de:3b:48:a0:da:21:cb:3a:5a:79:81:74:c6:91:77:a6:79:65:
         17:27:9d:ea:a1:63:53:ac:55:ba:21:3c:ba:81:84:d9:5f:ba:
         92:82:fd:5f:69:49:87:05:a5:70:47:98:8d:a9:ab:e3:d7:0a:
         eb:a9:a6:a4:94:6e:b3:10:21:b7:fc:50:c9:69:bd:f3:70:77:
         a2:8f:c1:7d:1b:5b:b7:45:f4:1a:9e:dd:fe:65:1a:ab:e6:ff:
         99:85:6b:02
-----BEGIN CERTIFICATE-----
MIIDeDCCAmCgAwIBAgIRAMsSsBbL8LpCbB65V+LgV+owDQYJKoZIhvcNAQELBQAw
FjEUMBIGA1UEAwwLdGVhbTczMS1uZXQwHhcNMjEwOTEzMDU0MDA5WhcNMjQwODI4
MDU0MDA5WjAZMRcwFQYDVQQDDA50ZWFtNzMxLXNlcnZlcjCCASIwDQYJKoZIhvcN
AQEBBQADggEPADCCAQoCggEBANZprxpmvRbEsM3gcFta4+iHzdHfdhXrkb7M4O5d
W1+vBVSpK+/7rhl3NE8LiYLUPNP9Zkeb3z2e95r75Od8dau18VvM3GX43MHGpviW
865jx5Fo1uovOm8+cfXbow8kytcg0VFNZRMTLo+46i85GzOP3tphOxLgNA7dlyQx
gkw1uyov9d1J1FAKvVq9jO5z3agibsjQrBQt9PhMH+//PipuuEAKLVbxOdKOPRlM
aKjFCsf5RgL5NZ5AIa1k8pvgsMH+5gyVq6JQURa5VOtTBNA2paFttasDnUlw8GiY
EwXqDnuMoVNf8UYoMd845UCozqkpJVxlQ20LnleZwCDIyykCAwEAAaOBvTCBujAJ
BgNVHRMEAjAAMB0GA1UdDgQWBBRGvOUsW2+NTmz7EdHxgY8AuFlNBzBRBgNVHSME
SjBIgBTyckGZHLzo7Y30LoLtH6BmFxN/2qEapBgwFjEUMBIGA1UEAwwLdGVhbTcz
MS1uZXSCFAV4SbCFlfx0nWwMUuMPg1B8l14QMBMGA1UdJQQMMAoGCCsGAQUFBwMB
MAsGA1UdDwQEAwIFoDAZBgNVHREEEjAQgg50ZWFtNzMxLXNlcnZlcjANBgkqhkiG
9w0BAQsFAAOCAQEArFmXqa+vqo3+oWdXeD7h3toZl/mCD3Nfd585mpHlMQtA8YQp
Mar8XH8l4VVmu+bdTgo0BqG9pQSH+HqSwyEurxJbOuYm6+sWOKlduVltYc9IgriR
c9jmoJQIoqwwOky+mrqkCy/ENEafNI/kw4OQYrTc66mzWs3Yx/VgF4vduuFg2es0
3qPyahc+ObQKQLd9XswAz1eFe+sPGir7YrxbPjaW3jtIoNohyzpaeYF0xpF3pnll
Fyed6qFjU6xVuiE8uoGE2V+6koL9X2lJhwWlcEeYjamr49cK66mmpJRusxAht/xQ
yWm983B3oo/BfRtbt0X0Gp7d/mUaq+b/mYVrAg==
-----END CERTIFICATE-----
