Certificate:
    Data:
        Version: 3 (0x2)
        Serial Number:
            d7:50:af:85:9e:c9:08:a4:e0:6e:de:c8:42:fd:f6:cc
        Signature Algorithm: sha256WithRSAEncryption
        Issuer: CN=team689-net
        Validity
            Not Before: Sep 13 04:42:22 2021 GMT
            Not After : Aug 28 04:42:22 2024 GMT
        Subject: CN=team689-client
        Subject Public Key Info:
            Public Key Algorithm: rsaEncryption
                RSA Public-Key: (2048 bit)
                Modulus:
                    00:d5:c0:ec:ed:74:5b:42:88:3a:9d:5a:8f:e8:cf:
                    2b:c3:e9:82:6c:19:d7:f9:bf:d9:42:26:4a:16:10:
                    aa:8f:49:e4:76:e4:21:d7:c5:2a:64:93:8c:e0:5d:
                    d7:4f:dc:c4:5d:87:31:bf:60:2d:b5:ef:d0:6a:2c:
                    55:9f:55:09:9c:10:6b:4a:59:55:ea:6a:63:24:d7:
                    b5:14:6c:1e:6c:89:ed:cc:0f:af:25:3a:4d:cd:71:
                    84:bb:cd:53:c3:eb:f0:4f:6c:91:66:16:ee:11:48:
                    0a:67:31:c2:5d:96:e8:db:c3:79:a9:0f:88:01:25:
                    61:b1:eb:a0:f1:8b:a0:ce:6a:a6:2a:f5:e8:04:d8:
                    9e:1c:5a:08:9f:a1:d5:0b:e7:30:81:60:7a:a5:b7:
                    88:d0:18:ac:ae:b1:b3:da:c0:54:2d:4b:89:14:3b:
                    12:07:2f:a8:fb:30:8f:22:f1:0b:c9:da:78:d8:66:
                    b0:96:f2:0b:14:5a:7f:48:46:e8:72:f6:eb:e8:dc:
                    fe:33:33:fc:19:d8:6a:30:79:a9:d8:6c:a8:f5:d3:
                    35:fd:a0:c1:d8:c9:f3:ef:e4:13:8c:70:3b:5e:13:
                    20:0e:38:18:a0:fb:9c:7e:22:01:c3:24:b8:82:04:
                    5f:32:12:2d:39:e9:d8:dd:a0:89:aa:03:75:83:89:
                    40:75
                Exponent: 65537 (0x10001)
        X509v3 extensions:
            X509v3 Basic Constraints: 
                CA:FALSE
            X509v3 Subject Key Identifier: 
                49:71:0C:CA:2B:61:BD:3E:83:25:49:FD:04:5A:5B:BC:4E:68:5B:EA
            X509v3 Authority Key Identifier: 
                keyid:6E:76:62:5A:2D:AB:7E:27:7F:CC:5F:04:1A:29:E9:00:6F:55:4B:CD
                DirName:/CN=team689-net
                serial:16:12:BB:41:4D:A9:14:58:C5:10:59:CA:ED:9D:71:1D:AD:5A:BA:CD

            X509v3 Extended Key Usage: 
                TLS Web Client Authentication
            X509v3 Key Usage: 
                Digital Signature
    Signature Algorithm: sha256WithRSAEncryption
         ac:6c:c8:20:6b:e0:56:81:af:5f:b6:e1:43:81:b5:77:02:62:
         bd:2f:fb:87:bd:f1:14:b2:29:52:3c:fc:4b:7f:35:46:27:f9:
         ac:96:bc:26:5d:97:3f:93:99:9e:36:5f:be:9b:ae:83:54:80:
         75:68:87:12:99:31:e4:12:20:52:84:eb:f8:50:cd:0c:69:45:
         ea:5c:f6:18:01:0d:d1:76:3e:ee:2a:d8:bd:1a:e9:91:7d:5b:
         9d:78:e8:f8:d8:40:dc:ae:6c:a8:cf:ba:61:62:94:67:f6:1b:
         59:2c:7c:4f:cc:8c:20:3b:cf:ab:16:ea:9c:9a:4b:8d:a6:28:
         45:30:60:95:e4:f0:99:5d:47:2a:e1:7a:7c:c4:32:5a:ca:22:
         c5:70:5b:7d:f7:3d:33:b1:1f:80:1b:09:34:00:8a:b3:bc:96:
         b1:93:33:a8:42:da:c0:73:73:67:e6:9a:0b:a2:8c:04:7e:bb:
         32:81:b1:4b:2d:d0:e1:b0:de:9d:18:47:6a:d0:1a:18:43:77:
         d3:bd:23:a5:c4:43:73:cc:79:92:b4:93:59:6f:97:f7:3e:2d:
         83:4e:78:2d:0c:da:90:26:ba:a0:9d:be:36:45:78:9f:ee:8a:
         b2:02:38:ac:fc:e8:b8:99:d9:b5:c7:66:c9:97:b5:c8:79:68:
         47:4a:c5:85
-----BEGIN CERTIFICATE-----
MIIDXTCCAkWgAwIBAgIRANdQr4WeyQik4G7eyEL99swwDQYJKoZIhvcNAQELBQAw
FjEUMBIGA1UEAwwLdGVhbTY4OS1uZXQwHhcNMjEwOTEzMDQ0MjIyWhcNMjQwODI4
MDQ0MjIyWjAZMRcwFQYDVQQDDA50ZWFtNjg5LWNsaWVudDCCASIwDQYJKoZIhvcN
AQEBBQADggEPADCCAQoCggEBANXA7O10W0KIOp1aj+jPK8PpgmwZ1/m/2UImShYQ
qo9J5HbkIdfFKmSTjOBd10/cxF2HMb9gLbXv0GosVZ9VCZwQa0pZVepqYyTXtRRs
HmyJ7cwPryU6Tc1xhLvNU8Pr8E9skWYW7hFICmcxwl2W6NvDeakPiAElYbHroPGL
oM5qpir16ATYnhxaCJ+h1QvnMIFgeqW3iNAYrK6xs9rAVC1LiRQ7EgcvqPswjyLx
C8naeNhmsJbyCxRaf0hG6HL26+jc/jMz/BnYajB5qdhsqPXTNf2gwdjJ8+/kE4xw
O14TIA44GKD7nH4iAcMkuIIEXzISLTnp2N2giaoDdYOJQHUCAwEAAaOBojCBnzAJ
BgNVHRMEAjAAMB0GA1UdDgQWBBRJcQzKK2G9PoMlSf0EWlu8Tmhb6jBRBgNVHSME
SjBIgBRudmJaLat+J3/MXwQaKekAb1VLzaEapBgwFjEUMBIGA1UEAwwLdGVhbTY4
OS1uZXSCFBYSu0FNqRRYxRBZyu2dcR2tWrrNMBMGA1UdJQQMMAoGCCsGAQUFBwMC
MAsGA1UdDwQEAwIHgDANBgkqhkiG9w0BAQsFAAOCAQEArGzIIGvgVoGvX7bhQ4G1
dwJivS/7h73xFLIpUjz8S381Rif5rJa8Jl2XP5OZnjZfvpuug1SAdWiHEpkx5BIg
UoTr+FDNDGlF6lz2GAEN0XY+7irYvRrpkX1bnXjo+NhA3K5sqM+6YWKUZ/YbWSx8
T8yMIDvPqxbqnJpLjaYoRTBgleTwmV1HKuF6fMQyWsoixXBbffc9M7EfgBsJNACK
s7yWsZMzqELawHNzZ+aaC6KMBH67MoGxSy3Q4bDenRhHatAaGEN3070jpcRDc8x5
krSTWW+X9z4tg054LQzakCa6oJ2+NkV4n+6KsgI4rPzouJnZtcdmyZe1yHloR0rF
hQ==
-----END CERTIFICATE-----
