Certificate:
    Data:
        Version: 3 (0x2)
        Serial Number:
            9b:f3:e8:82:3f:81:aa:bf:2f:94:e4:30:ac:67:31:3a
        Signature Algorithm: sha256WithRSAEncryption
        Issuer: CN=team28-net
        Validity
            Not Before: Sep 12 22:57:21 2021 GMT
            Not After : Aug 27 22:57:21 2024 GMT
        Subject: CN=team28-client
        Subject Public Key Info:
            Public Key Algorithm: rsaEncryption
                RSA Public-Key: (2048 bit)
                Modulus:
                    00:e5:88:83:f9:e7:a9:b1:60:ec:05:bc:8a:00:e5:
                    c6:75:cb:2e:11:80:3b:c3:20:3e:62:96:02:b0:02:
                    0f:44:a2:bf:fd:9f:74:f3:ab:f4:8e:d9:58:5c:97:
                    71:6f:aa:7b:4f:4b:4e:2d:7a:74:b4:a8:a6:2a:41:
                    4a:38:34:b4:86:6b:63:f9:2c:19:b6:24:55:b4:aa:
                    00:b5:51:7b:a3:5c:dd:a0:2e:df:ad:b5:02:0e:1d:
                    c6:12:15:3a:ec:94:7c:6a:9e:14:fb:d6:f9:22:f2:
                    9a:8e:38:f0:6d:d0:6c:23:cf:e6:5b:88:57:16:1e:
                    fb:bc:4a:8c:c7:84:bb:3a:ba:1e:97:a0:8a:f4:74:
                    de:d3:71:88:d7:43:51:ff:42:65:9f:08:c7:c1:da:
                    e7:49:b8:7f:e8:9d:97:e8:ca:73:b9:b5:96:47:eb:
                    f2:18:22:80:49:50:bb:7b:3a:ff:83:89:61:23:3d:
                    ac:53:ed:34:13:b1:e1:ae:96:ea:57:37:7d:cb:f4:
                    93:e1:68:99:2f:12:fd:3a:fa:a9:7f:d3:0f:81:f4:
                    3e:7f:d3:62:b4:39:29:63:94:89:92:d4:e2:15:8a:
                    d8:6f:b4:46:59:c9:7b:63:87:b2:b9:57:5f:74:ee:
                    03:0f:96:63:e0:cb:92:dd:74:a8:76:e0:f2:3e:42:
                    1a:29
                Exponent: 65537 (0x10001)
        X509v3 extensions:
            X509v3 Basic Constraints: 
                CA:FALSE
            X509v3 Subject Key Identifier: 
                FA:9C:94:32:E5:32:07:36:59:C5:19:12:10:D0:C5:95:25:45:DB:12
            X509v3 Authority Key Identifier: 
                keyid:AB:E8:B9:CC:1F:2E:01:E4:A6:FE:67:67:FA:00:94:0A:3E:C5:59:A0
                DirName:/CN=team28-net
                serial:12:4F:22:24:BE:25:F9:9F:E2:F8:02:B5:03:F4:AB:C4:FE:D3:62:42

            X509v3 Extended Key Usage: 
                TLS Web Client Authentication
            X509v3 Key Usage: 
                Digital Signature
    Signature Algorithm: sha256WithRSAEncryption
         11:3d:ac:07:9c:4e:64:22:7a:d0:74:2f:86:ac:39:09:6b:6e:
         db:45:d6:f8:d9:25:3f:4f:a4:33:d6:bf:05:0d:1e:c1:a7:55:
         8d:16:0a:7a:a4:a7:7d:ea:bc:dd:7f:ed:43:5e:24:ca:03:e3:
         bc:da:b7:58:ad:f1:9c:a6:65:bb:7b:f0:30:6c:11:2e:e9:37:
         27:a4:ef:3c:17:0c:15:ea:af:73:33:4b:48:98:11:39:e2:09:
         e1:9e:1f:1d:fc:77:7b:70:b5:60:4f:7e:79:fd:64:22:f9:58:
         60:22:35:5d:ea:c0:99:a1:f0:f5:dd:01:89:1b:2e:7a:72:b4:
         94:2a:5d:bf:70:5e:43:a6:5b:4c:89:fd:10:8f:90:ae:47:f7:
         39:25:91:f4:74:2b:de:78:dd:22:a4:71:e1:bf:18:5b:24:25:
         fc:96:d3:03:05:57:b8:5f:4d:72:0a:c5:c9:9d:2a:a9:1d:19:
         50:8e:a3:4b:40:45:de:62:f9:88:36:9d:5f:2e:fb:1b:e1:b3:
         f6:89:0f:de:dc:c9:4e:77:2c:2d:03:6c:ce:dd:45:0c:07:cb:
         75:58:26:91:53:b6:6f:b4:81:ab:4c:e6:c9:7b:6d:f2:55:d2:
         5c:3a:8d:e5:ee:c0:86:12:7a:60:cf:32:b0:75:0e:92:9f:fd:
         03:67:6a:52
-----BEGIN CERTIFICATE-----
MIIDWjCCAkKgAwIBAgIRAJvz6II/gaq/L5TkMKxnMTowDQYJKoZIhvcNAQELBQAw
FTETMBEGA1UEAwwKdGVhbTI4LW5ldDAeFw0yMTA5MTIyMjU3MjFaFw0yNDA4Mjcy
MjU3MjFaMBgxFjAUBgNVBAMMDXRlYW0yOC1jbGllbnQwggEiMA0GCSqGSIb3DQEB
AQUAA4IBDwAwggEKAoIBAQDliIP556mxYOwFvIoA5cZ1yy4RgDvDID5ilgKwAg9E
or/9n3Tzq/SO2Vhcl3FvqntPS04tenS0qKYqQUo4NLSGa2P5LBm2JFW0qgC1UXuj
XN2gLt+ttQIOHcYSFTrslHxqnhT71vki8pqOOPBt0Gwjz+ZbiFcWHvu8SozHhLs6
uh6XoIr0dN7TcYjXQ1H/QmWfCMfB2udJuH/onZfoynO5tZZH6/IYIoBJULt7Ov+D
iWEjPaxT7TQTseGulupXN33L9JPhaJkvEv06+ql/0w+B9D5/02K0OSljlImS1OIV
ithvtEZZyXtjh7K5V1907gMPlmPgy5LddKh24PI+QhopAgMBAAGjgaEwgZ4wCQYD
VR0TBAIwADAdBgNVHQ4EFgQU+pyUMuUyBzZZxRkSENDFlSVF2xIwUAYDVR0jBEkw
R4AUq+i5zB8uAeSm/mdn+gCUCj7FWaChGaQXMBUxEzARBgNVBAMMCnRlYW0yOC1u
ZXSCFBJPIiS+Jfmf4vgCtQP0q8T+02JCMBMGA1UdJQQMMAoGCCsGAQUFBwMCMAsG
A1UdDwQEAwIHgDANBgkqhkiG9w0BAQsFAAOCAQEAET2sB5xOZCJ60HQvhqw5CWtu
20XW+NklP0+kM9a/BQ0ewadVjRYKeqSnfeq83X/tQ14kygPjvNq3WK3xnKZlu3vw
MGwRLuk3J6TvPBcMFeqvczNLSJgROeIJ4Z4fHfx3e3C1YE9+ef1kIvlYYCI1XerA
maHw9d0BiRsuenK0lCpdv3BeQ6ZbTIn9EI+Qrkf3OSWR9HQr3njdIqRx4b8YWyQl
/JbTAwVXuF9NcgrFyZ0qqR0ZUI6jS0BF3mL5iDadXy77G+Gz9okP3tzJTncsLQNs
zt1FDAfLdVgmkVO2b7SBq0zmyXtt8lXSXDqN5e7AhhJ6YM8ysHUOkp/9A2dqUg==
-----END CERTIFICATE-----
