Certificate:
    Data:
        Version: 3 (0x2)
        Serial Number:
            ab:b3:f9:0f:c7:6c:72:e0:68:dd:0c:18:22:fb:de:1b
        Signature Algorithm: sha256WithRSAEncryption
        Issuer: CN=team28-net
        Validity
            Not Before: Sep 12 22:57:21 2021 GMT
            Not After : Aug 27 22:57:21 2024 GMT
        Subject: CN=team28-server
        Subject Public Key Info:
            Public Key Algorithm: rsaEncryption
                RSA Public-Key: (2048 bit)
                Modulus:
                    00:bb:45:c2:54:40:69:8a:ad:d6:46:08:67:13:da:
                    59:6e:71:cb:d7:89:ba:af:37:9a:00:e7:1b:ad:29:
                    bc:ed:63:d0:0d:4e:d5:7e:51:40:b2:f1:fe:9e:6a:
                    2c:0a:86:41:f7:db:d2:a7:06:06:42:a6:25:f2:2a:
                    fb:90:02:c8:44:b4:c0:33:e3:64:d7:e3:00:45:2a:
                    b0:56:e6:57:b3:1b:eb:26:28:9f:cd:75:ea:eb:bd:
                    6a:d2:21:60:5b:3c:31:9a:0f:8e:23:9d:2c:fd:b4:
                    a1:c1:20:e7:ad:00:54:37:89:a5:0b:0f:32:5d:2a:
                    e7:9d:05:33:04:c5:70:28:24:b6:8b:97:c8:5b:08:
                    bb:0e:68:05:87:b5:c8:8a:92:5e:aa:55:f1:27:d1:
                    c2:35:da:0e:9c:72:97:f8:ca:8a:a2:ad:9b:11:6b:
                    c6:1d:c6:03:68:c4:d8:a1:e7:da:7a:81:ed:99:9c:
                    3c:00:a4:39:7e:68:b3:db:54:ba:a7:f0:57:3f:14:
                    54:4d:5e:86:ca:e4:66:ad:e2:90:17:01:5e:67:66:
                    0f:de:88:ba:61:24:5c:95:cf:99:5c:cd:c0:65:b8:
                    79:3a:c1:6b:d1:23:b8:a4:44:73:1c:0e:bc:fd:b0:
                    66:1b:67:6b:82:da:72:09:b1:c9:b0:63:98:00:a0:
                    01:e3
                Exponent: 65537 (0x10001)
        X509v3 extensions:
            X509v3 Basic Constraints: 
                CA:FALSE
            X509v3 Subject Key Identifier: 
                A0:0E:59:B7:24:FD:B1:B2:76:82:0C:3A:A1:35:F8:87:A6:B9:23:B5
            X509v3 Authority Key Identifier: 
                keyid:AB:E8:B9:CC:1F:2E:01:E4:A6:FE:67:67:FA:00:94:0A:3E:C5:59:A0
                DirName:/CN=team28-net
                serial:12:4F:22:24:BE:25:F9:9F:E2:F8:02:B5:03:F4:AB:C4:FE:D3:62:42

            X509v3 Extended Key Usage: 
                TLS Web Server Authentication
            X509v3 Key Usage: 
                Digital Signature, Key Encipherment
            X509v3 Subject Alternative Name: 
                DNS:team28-server
    Signature Algorithm: sha256WithRSAEncryption
         9e:ec:c2:ac:ba:08:bb:09:dd:63:80:78:6d:61:15:47:2f:e5:
         15:e5:79:98:92:ed:be:48:39:9f:54:d2:ec:9b:ed:b7:72:5d:
         72:9f:7f:f7:09:a2:e0:4e:1a:ef:07:37:1a:25:75:77:f9:2b:
         54:cd:bb:09:b3:16:97:d9:10:2a:04:7b:cf:7c:40:d1:9b:51:
         29:78:5b:1b:bf:a7:22:f9:c0:52:ae:81:5f:4f:1e:e0:26:3b:
         53:6a:8f:ec:b5:49:2b:02:32:66:c8:be:db:68:1f:88:39:ce:
         1a:53:96:6f:82:2d:c7:df:b0:37:39:fe:6d:77:8d:d1:4a:81:
         0f:b1:4f:99:2b:f4:eb:d1:b0:10:f0:c0:c1:a0:b3:29:f8:40:
         8c:79:62:dd:63:6c:b1:39:e1:57:b0:f3:5d:78:65:3b:04:20:
         4a:bf:95:37:ec:27:33:75:4d:10:d8:5e:37:ec:df:91:0f:de:
         27:40:77:37:7f:88:2f:45:93:36:9b:17:56:db:4c:61:79:24:
         ec:54:3d:c4:2a:09:b9:b7:56:f7:47:f9:53:9d:88:81:76:30:
         53:44:33:1c:fc:e3:5c:b6:ab:b8:a7:ce:6f:ba:cf:a5:d5:8f:
         c7:5c:52:e1:1a:bd:de:81:8d:95:df:b3:21:ed:32:cd:e4:cd:
         14:51:e1:b8
-----BEGIN CERTIFICATE-----
MIIDdDCCAlygAwIBAgIRAKuz+Q/HbHLgaN0MGCL73hswDQYJKoZIhvcNAQELBQAw
FTETMBEGA1UEAwwKdGVhbTI4LW5ldDAeFw0yMTA5MTIyMjU3MjFaFw0yNDA4Mjcy
MjU3MjFaMBgxFjAUBgNVBAMMDXRlYW0yOC1zZXJ2ZXIwggEiMA0GCSqGSIb3DQEB
AQUAA4IBDwAwggEKAoIBAQC7RcJUQGmKrdZGCGcT2lluccvXibqvN5oA5xutKbzt
Y9ANTtV+UUCy8f6eaiwKhkH329KnBgZCpiXyKvuQAshEtMAz42TX4wBFKrBW5lez
G+smKJ/NderrvWrSIWBbPDGaD44jnSz9tKHBIOetAFQ3iaULDzJdKuedBTMExXAo
JLaLl8hbCLsOaAWHtciKkl6qVfEn0cI12g6ccpf4yoqirZsRa8YdxgNoxNih59p6
ge2ZnDwApDl+aLPbVLqn8Fc/FFRNXobK5Gat4pAXAV5nZg/eiLphJFyVz5lczcBl
uHk6wWvRI7ikRHMcDrz9sGYbZ2uC2nIJscmwY5gAoAHjAgMBAAGjgbswgbgwCQYD
VR0TBAIwADAdBgNVHQ4EFgQUoA5ZtyT9sbJ2ggw6oTX4h6a5I7UwUAYDVR0jBEkw
R4AUq+i5zB8uAeSm/mdn+gCUCj7FWaChGaQXMBUxEzARBgNVBAMMCnRlYW0yOC1u
ZXSCFBJPIiS+Jfmf4vgCtQP0q8T+02JCMBMGA1UdJQQMMAoGCCsGAQUFBwMBMAsG
A1UdDwQEAwIFoDAYBgNVHREEETAPgg10ZWFtMjgtc2VydmVyMA0GCSqGSIb3DQEB
CwUAA4IBAQCe7MKsugi7Cd1jgHhtYRVHL+UV5XmYku2+SDmfVNLsm+23cl1yn3/3
CaLgThrvBzcaJXV3+StUzbsJsxaX2RAqBHvPfEDRm1EpeFsbv6ci+cBSroFfTx7g
JjtTao/stUkrAjJmyL7baB+IOc4aU5Zvgi3H37A3Of5td43RSoEPsU+ZK/Tr0bAQ
8MDBoLMp+ECMeWLdY2yxOeFXsPNdeGU7BCBKv5U37CczdU0Q2F437N+RD94nQHc3
f4gvRZM2mxdW20xheSTsVD3EKgm5t1b3R/lTnYiBdjBTRDMc/ONctqu4p85vus+l
1Y/HXFLhGr3egY2V37Mh7TLN5M0UUeG4
-----END CERTIFICATE-----
