Certificate:
    Data:
        Version: 3 (0x2)
        Serial Number:
            67:bd:5a:b9:99:df:00:73:d7:cc:59:c0:c2:d2:cb:01
        Signature Algorithm: sha256WithRSAEncryption
        Issuer: CN=team645-net
        Validity
            Not Before: Sep 13 04:46:38 2021 GMT
            Not After : Aug 28 04:46:38 2024 GMT
        Subject: CN=team645-server
        Subject Public Key Info:
            Public Key Algorithm: rsaEncryption
                RSA Public-Key: (2048 bit)
                Modulus:
                    00:d6:95:da:5e:d7:d0:35:89:1c:77:f9:b2:17:61:
                    4e:56:90:76:6e:95:76:97:5f:cc:a9:59:ec:c6:04:
                    11:c3:25:2f:cc:37:a5:b2:ac:1b:6f:21:c8:dd:44:
                    46:c6:51:4d:66:e7:35:d0:ed:20:3d:72:bf:ef:a5:
                    62:90:0e:f0:12:0d:cf:c3:35:e7:1f:07:d2:e3:91:
                    1d:d8:de:d1:af:c2:11:34:b6:cc:b7:24:57:e3:88:
                    23:28:e7:b4:2c:e4:b4:61:67:0f:6a:a7:71:87:3e:
                    cc:7e:2e:e1:db:61:d0:e0:52:86:fb:89:8d:d5:14:
                    c9:32:05:8f:ca:ef:c4:9d:0a:ed:dd:4f:58:bc:b2:
                    62:d8:73:d0:bd:bc:83:b7:21:c2:d3:19:c6:59:a4:
                    91:21:78:6a:f0:51:09:76:2d:5c:96:df:66:1b:12:
                    ea:fc:87:33:d2:f8:79:4f:e2:85:12:8c:5b:73:3b:
                    b3:4c:8a:ae:0f:81:72:7a:a1:cf:66:53:2a:01:89:
                    cf:6d:2e:43:df:c7:a2:1f:47:dc:91:ab:06:ed:ee:
                    e8:e9:f1:11:2c:39:1d:7f:d4:57:f7:a3:2a:52:d9:
                    d0:6c:61:5c:67:2d:01:e7:ce:76:74:46:53:52:16:
                    11:03:32:7a:15:d6:16:de:e7:94:20:42:3f:a0:e6:
                    e6:31
                Exponent: 65537 (0x10001)
        X509v3 extensions:
            X509v3 Basic Constraints: 
                CA:FALSE
            X509v3 Subject Key Identifier: 
                1F:1F:0C:CF:B2:1C:3C:22:E9:94:A1:07:69:31:C4:33:25:4A:BB:EC
            X509v3 Authority Key Identifier: 
                keyid:41:1E:E8:B0:E5:8B:46:ED:D9:FB:CE:B3:E8:4D:78:D7:4E:28:3C:D1
                DirName:/CN=team645-net
                serial:10:16:71:DC:65:97:FB:A4:BB:B2:6A:39:19:0B:CD:A2:2E:54:8B:A8

            X509v3 Extended Key Usage: 
                TLS Web Server Authentication
            X509v3 Key Usage: 
                Digital Signature, Key Encipherment
            X509v3 Subject Alternative Name: 
                DNS:team645-server
    Signature Algorithm: sha256WithRSAEncryption
         a0:c1:13:41:92:19:0a:09:1e:34:19:d5:9f:c4:16:72:c7:77:
         d4:93:be:72:36:c7:b0:ab:ee:02:4d:60:0d:70:88:a5:ab:c3:
         20:28:bc:f4:db:43:f5:6e:ed:e8:5f:b1:c5:0d:18:3d:66:b8:
         28:d5:68:04:78:6b:3b:82:71:8d:0c:ad:d5:2d:b8:32:78:fb:
         98:3e:64:a2:2a:68:b1:60:03:4f:c9:fa:8a:3a:d9:2b:d2:be:
         48:36:12:ba:af:e6:3c:47:d7:1c:87:ac:9f:0e:35:0f:81:29:
         57:f4:91:29:1f:e7:07:3b:c4:63:00:99:b8:5b:43:16:a9:2d:
         24:00:aa:25:38:91:8a:64:9d:61:3a:c9:4b:71:4c:a2:87:b8:
         c2:2a:7d:e0:61:64:98:bb:85:83:34:a4:25:ce:02:6b:01:16:
         61:de:34:42:d5:ff:5d:4c:3e:a3:2a:8b:ae:16:42:07:c8:4c:
         82:19:26:b5:a2:c2:67:7f:20:d7:97:63:58:7c:c6:1e:c4:06:
         12:f6:d7:32:c0:2c:67:c8:c6:a1:43:ad:b8:03:42:72:c5:3a:
         67:23:b4:c4:cb:ba:4b:e4:f7:cb:8d:6c:65:4a:c9:39:0c:3a:
         76:5e:7a:9a:50:90:3f:a4:5d:f7:18:86:7d:38:79:b7:29:a0:
         5c:88:a6:c4
-----BEGIN CERTIFICATE-----
MIIDdzCCAl+gAwIBAgIQZ71auZnfAHPXzFnAwtLLATANBgkqhkiG9w0BAQsFADAW
MRQwEgYDVQQDDAt0ZWFtNjQ1LW5ldDAeFw0yMTA5MTMwNDQ2MzhaFw0yNDA4Mjgw
NDQ2MzhaMBkxFzAVBgNVBAMMDnRlYW02NDUtc2VydmVyMIIBIjANBgkqhkiG9w0B
AQEFAAOCAQ8AMIIBCgKCAQEA1pXaXtfQNYkcd/myF2FOVpB2bpV2l1/MqVnsxgQR
wyUvzDelsqwbbyHI3URGxlFNZuc10O0gPXK/76VikA7wEg3PwzXnHwfS45Ed2N7R
r8IRNLbMtyRX44gjKOe0LOS0YWcPaqdxhz7Mfi7h22HQ4FKG+4mN1RTJMgWPyu/E
nQrt3U9YvLJi2HPQvbyDtyHC0xnGWaSRIXhq8FEJdi1clt9mGxLq/Icz0vh5T+KF
EoxbczuzTIquD4FyeqHPZlMqAYnPbS5D38eiH0fckasG7e7o6fERLDkdf9RX96Mq
UtnQbGFcZy0B5852dEZTUhYRAzJ6FdYW3ueUIEI/oObmMQIDAQABo4G9MIG6MAkG
A1UdEwQCMAAwHQYDVR0OBBYEFB8fDM+yHDwi6ZShB2kxxDMlSrvsMFEGA1UdIwRK
MEiAFEEe6LDli0bt2fvOs+hNeNdOKDzRoRqkGDAWMRQwEgYDVQQDDAt0ZWFtNjQ1
LW5ldIIUEBZx3GWX+6S7smo5GQvNoi5Ui6gwEwYDVR0lBAwwCgYIKwYBBQUHAwEw
CwYDVR0PBAQDAgWgMBkGA1UdEQQSMBCCDnRlYW02NDUtc2VydmVyMA0GCSqGSIb3
DQEBCwUAA4IBAQCgwRNBkhkKCR40GdWfxBZyx3fUk75yNsewq+4CTWANcIilq8Mg
KLz020P1bu3oX7HFDRg9Zrgo1WgEeGs7gnGNDK3VLbgyePuYPmSiKmixYANPyfqK
Otkr0r5INhK6r+Y8R9cch6yfDjUPgSlX9JEpH+cHO8RjAJm4W0MWqS0kAKolOJGK
ZJ1hOslLcUyih7jCKn3gYWSYu4WDNKQlzgJrARZh3jRC1f9dTD6jKouuFkIHyEyC
GSa1osJnfyDXl2NYfMYexAYS9tcywCxnyMahQ624A0JyxTpnI7TEy7pL5PfLjWxl
Ssk5DDp2XnqaUJA/pF33GIZ9OHm3KaBciKbE
-----END CERTIFICATE-----
