Certificate:
    Data:
        Version: 3 (0x2)
        Serial Number:
            64:6a:db:bf:b9:d9:6d:b1:b1:18:ab:ed:f4:1c:ab:02
        Signature Algorithm: sha256WithRSAEncryption
        Issuer: CN=team190-net
        Validity
            Not Before: Sep 13 00:32:42 2021 GMT
            Not After : Aug 28 00:32:42 2024 GMT
        Subject: CN=team190-server
        Subject Public Key Info:
            Public Key Algorithm: rsaEncryption
                RSA Public-Key: (2048 bit)
                Modulus:
                    00:c9:58:d6:ca:8d:fe:6b:43:68:e9:e6:8f:b0:51:
                    61:3a:30:e8:88:d9:76:8b:b1:a0:b0:40:de:fa:70:
                    c4:93:94:83:2d:22:d8:84:ac:38:33:4a:da:5a:bc:
                    ca:2d:d8:56:f1:ac:0e:63:1c:f7:a5:ae:0c:a3:ab:
                    24:be:ed:1e:90:a4:74:d2:98:c6:b0:0b:95:01:13:
                    7b:8e:2e:db:a7:e2:79:47:6d:2d:f2:da:4a:3d:44:
                    7a:ee:9a:01:0d:ec:fb:d5:90:a0:65:cb:0e:55:48:
                    f1:26:47:1a:8b:0b:40:fe:35:60:fc:f1:86:5a:23:
                    51:89:36:22:75:ee:98:8f:70:18:64:21:2a:92:7b:
                    13:92:58:03:a5:0c:a9:ee:3d:84:05:e1:77:dc:42:
                    7d:8c:b4:5b:f8:5a:4e:6c:db:7d:85:dd:c6:1b:cd:
                    23:31:46:ff:c4:c7:a2:37:89:4e:cc:03:26:99:07:
                    a7:29:eb:5c:56:d3:a8:af:42:4f:1f:d2:2f:48:12:
                    04:13:d2:1e:2f:43:fd:08:96:50:7d:3d:e5:48:87:
                    80:1c:13:13:51:ba:c0:e5:21:59:78:ae:ab:9b:18:
                    93:f6:c9:b7:d8:90:bd:dd:11:40:a9:e7:4d:ba:40:
                    34:03:a0:59:85:86:9e:3d:b8:03:18:b1:d0:a2:79:
                    09:a5
                Exponent: 65537 (0x10001)
        X509v3 extensions:
            X509v3 Basic Constraints: 
                CA:FALSE
            X509v3 Subject Key Identifier: 
                8E:1D:E4:52:69:87:5A:73:73:3D:6C:08:D4:FC:49:98:3D:E7:D0:E1
            X509v3 Authority Key Identifier: 
                keyid:EE:54:7E:82:65:0A:63:FE:D7:ED:F2:0A:05:1E:17:DC:10:72:E2:6A
                DirName:/CN=team190-net
                serial:53:29:D4:70:76:77:B5:6B:47:6F:53:54:74:4F:71:23:18:FB:FC:7A

            X509v3 Extended Key Usage: 
                TLS Web Server Authentication
            X509v3 Key Usage: 
                Digital Signature, Key Encipherment
            X509v3 Subject Alternative Name: 
                DNS:team190-server
    Signature Algorithm: sha256WithRSAEncryption
         54:c9:c9:73:90:31:14:12:bc:d6:92:f1:7b:9b:0f:89:b5:8f:
         3d:7f:2b:dd:b7:5a:a0:91:21:d7:42:f6:91:2e:e1:39:fb:93:
         de:4a:f3:a6:a9:60:cc:c4:a7:a4:08:90:b5:9c:cf:a7:e2:56:
         75:f1:d9:59:9b:15:f4:8a:0f:fa:24:86:16:6b:07:e2:93:d3:
         28:6e:46:85:9a:8c:cb:c8:9b:27:24:cc:a0:de:a2:3e:cb:c0:
         fe:4c:db:4d:16:df:1a:46:40:07:b6:1c:f7:07:18:37:4d:09:
         b4:97:a0:5e:a7:3b:4c:6d:b3:71:b7:d5:0c:34:40:06:54:cf:
         6b:23:f8:f6:d0:4e:cb:0c:83:f0:a1:74:ba:4f:49:61:c7:5e:
         0f:f4:1f:cf:75:b1:9e:7b:d8:2c:4d:52:32:32:c4:bc:ca:03:
         7f:d5:77:66:4a:9d:99:a1:16:94:10:06:19:72:7f:40:77:4d:
         86:ad:b0:95:da:d5:c8:1a:06:28:55:6a:c5:26:42:26:19:47:
         c2:50:e7:7b:f7:da:57:d5:20:b2:60:b8:1e:ea:fc:2b:61:42:
         7d:1c:6d:0f:6d:bf:cc:a1:a9:08:7d:1e:82:4f:8e:3f:d0:0d:
         2a:9b:a9:e6:9b:8b:fa:cf:de:44:0f:0e:d4:3a:05:75:14:d0:
         f6:6e:e6:9e
-----BEGIN CERTIFICATE-----
MIIDdzCCAl+gAwIBAgIQZGrbv7nZbbGxGKvt9ByrAjANBgkqhkiG9w0BAQsFADAW
MRQwEgYDVQQDDAt0ZWFtMTkwLW5ldDAeFw0yMTA5MTMwMDMyNDJaFw0yNDA4Mjgw
MDMyNDJaMBkxFzAVBgNVBAMMDnRlYW0xOTAtc2VydmVyMIIBIjANBgkqhkiG9w0B
AQEFAAOCAQ8AMIIBCgKCAQEAyVjWyo3+a0No6eaPsFFhOjDoiNl2i7GgsEDe+nDE
k5SDLSLYhKw4M0raWrzKLdhW8awOYxz3pa4Mo6skvu0ekKR00pjGsAuVARN7ji7b
p+J5R20t8tpKPUR67poBDez71ZCgZcsOVUjxJkcaiwtA/jVg/PGGWiNRiTYide6Y
j3AYZCEqknsTklgDpQyp7j2EBeF33EJ9jLRb+FpObNt9hd3GG80jMUb/xMeiN4lO
zAMmmQenKetcVtOor0JPH9IvSBIEE9IeL0P9CJZQfT3lSIeAHBMTUbrA5SFZeK6r
mxiT9sm32JC93RFAqedNukA0A6BZhYaePbgDGLHQonkJpQIDAQABo4G9MIG6MAkG
A1UdEwQCMAAwHQYDVR0OBBYEFI4d5FJph1pzcz1sCNT8SZg959DhMFEGA1UdIwRK
MEiAFO5UfoJlCmP+1+3yCgUeF9wQcuJqoRqkGDAWMRQwEgYDVQQDDAt0ZWFtMTkw
LW5ldIIUUynUcHZ3tWtHb1NUdE9xIxj7/HowEwYDVR0lBAwwCgYIKwYBBQUHAwEw
CwYDVR0PBAQDAgWgMBkGA1UdEQQSMBCCDnRlYW0xOTAtc2VydmVyMA0GCSqGSIb3
DQEBCwUAA4IBAQBUyclzkDEUErzWkvF7mw+JtY89fyvdt1qgkSHXQvaRLuE5+5Pe
SvOmqWDMxKekCJC1nM+n4lZ18dlZmxX0ig/6JIYWawfik9MobkaFmozLyJsnJMyg
3qI+y8D+TNtNFt8aRkAHthz3Bxg3TQm0l6BepztMbbNxt9UMNEAGVM9rI/j20E7L
DIPwoXS6T0lhx14P9B/PdbGee9gsTVIyMsS8ygN/1XdmSp2ZoRaUEAYZcn9Ad02G
rbCV2tXIGgYoVWrFJkImGUfCUOd799pX1SCyYLge6vwrYUJ9HG0Pbb/MoakIfR6C
T44/0A0qm6nmm4v6z95EDw7UOgV1FND2buae
-----END CERTIFICATE-----
