Certificate:
    Data:
        Version: 3 (0x2)
        Serial Number:
            58:b6:e2:6f:bf:bc:b6:67:95:73:92:b4:24:62:44:42
        Signature Algorithm: sha256WithRSAEncryption
        Issuer: CN=team195-net
        Validity
            Not Before: Sep 13 00:27:34 2021 GMT
            Not After : Aug 28 00:27:34 2024 GMT
        Subject: CN=team195-client
        Subject Public Key Info:
            Public Key Algorithm: rsaEncryption
                RSA Public-Key: (2048 bit)
                Modulus:
                    00:9a:39:17:80:49:fa:ca:c4:6d:f2:78:6c:8f:6c:
                    f4:26:be:95:9f:35:1a:85:4a:0e:de:ba:1c:f6:8a:
                    da:e2:bd:dc:71:82:aa:f8:d3:8d:e7:66:27:a9:f5:
                    07:2e:81:35:ca:d1:d9:55:68:96:fc:2b:2b:c2:1e:
                    a4:ce:80:81:7d:6c:45:c2:cb:3b:bc:2f:5a:62:16:
                    6e:a4:70:06:2b:d0:6c:8f:16:05:0b:71:66:39:16:
                    ca:ec:df:7c:4d:5e:42:8f:3d:d7:45:ff:5a:10:bd:
                    ea:7b:8a:cf:8c:9f:c2:90:0b:73:15:96:ff:dc:c2:
                    3a:56:08:9b:c9:94:73:66:01:8b:ee:76:68:30:3c:
                    a7:f9:30:29:c2:d5:e2:f0:da:de:1c:95:bb:5c:c1:
                    c3:ca:f4:fe:6b:95:b1:1a:3b:a9:37:09:31:52:ae:
                    7e:76:2d:c8:02:56:f3:9e:a4:5b:b0:ce:50:07:b7:
                    a9:8d:ce:09:d6:87:71:59:6d:f8:9b:47:dd:c6:61:
                    64:37:bd:d6:ca:c7:0c:b3:33:0f:5e:5c:c5:70:05:
                    ef:4f:3d:28:96:03:85:b0:42:f2:cf:35:05:0f:34:
                    b8:de:dd:67:bf:f1:d0:10:1d:89:4c:9b:14:b2:30:
                    9e:69:30:5c:18:30:b2:15:cb:70:38:c4:88:4a:68:
                    eb:c9
                Exponent: 65537 (0x10001)
        X509v3 extensions:
            X509v3 Basic Constraints: 
                CA:FALSE
            X509v3 Subject Key Identifier: 
                27:AA:57:B0:E8:37:C1:94:B0:CF:F6:DC:0E:24:9C:EF:22:27:F0:CF
            X509v3 Authority Key Identifier: 
                keyid:5F:7B:4A:5E:F6:E3:21:7C:67:9C:73:F9:B8:96:DB:96:77:56:E8:2D
                DirName:/CN=team195-net
                serial:4C:83:B5:6C:C8:7E:B7:E2:FD:44:E1:A4:BA:A8:17:39:06:1B:C7:18

            X509v3 Extended Key Usage: 
                TLS Web Client Authentication
            X509v3 Key Usage: 
                Digital Signature
    Signature Algorithm: sha256WithRSAEncryption
         b3:a3:44:bb:9f:2e:28:37:be:da:31:bc:6f:cf:aa:70:ff:ba:
         2a:7c:b3:a9:f1:1e:d4:4e:08:5c:9a:f5:c2:25:e8:a1:44:f3:
         85:41:21:1b:b7:32:03:66:95:d7:5b:08:2c:15:ef:9e:8d:5b:
         2e:d6:d7:a3:ec:ec:98:e0:86:9e:da:6c:67:f9:c1:aa:7e:48:
         43:34:e6:81:8b:7e:0f:ac:53:37:e4:e7:1d:9f:55:3f:73:ef:
         4e:fe:5c:b5:b0:80:df:b7:27:a0:d3:8a:8b:ca:8c:da:2c:42:
         dd:13:74:92:45:25:2f:60:b2:65:94:18:fc:00:d9:d4:a2:b6:
         73:56:80:cf:ed:0d:44:5f:39:ed:93:12:f4:bc:83:8b:07:d2:
         63:1a:90:2e:48:c1:bb:dc:89:7b:58:12:98:2a:50:b3:bb:e0:
         bd:f2:5c:a0:ee:21:71:6b:ae:00:74:86:e7:34:2a:f8:03:14:
         2e:ba:bc:46:60:5b:95:30:e8:c5:36:9d:b0:63:6e:d1:c1:28:
         b8:65:6c:be:00:46:2c:55:08:25:31:70:d3:87:5e:ea:fd:6c:
         5f:04:c2:f0:a0:8d:54:77:52:1b:9d:08:ce:cf:5f:0b:0d:5a:
         58:ae:e1:3d:76:05:82:cd:ff:7e:b1:9c:91:64:61:5b:ce:f3:
         87:90:6b:00
-----BEGIN CERTIFICATE-----
MIIDXDCCAkSgAwIBAgIQWLbib7+8tmeVc5K0JGJEQjANBgkqhkiG9w0BAQsFADAW
MRQwEgYDVQQDDAt0ZWFtMTk1LW5ldDAeFw0yMTA5MTMwMDI3MzRaFw0yNDA4Mjgw
MDI3MzRaMBkxFzAVBgNVBAMMDnRlYW0xOTUtY2xpZW50MIIBIjANBgkqhkiG9w0B
AQEFAAOCAQ8AMIIBCgKCAQEAmjkXgEn6ysRt8nhsj2z0Jr6VnzUahUoO3roc9ora
4r3ccYKq+NON52YnqfUHLoE1ytHZVWiW/Csrwh6kzoCBfWxFwss7vC9aYhZupHAG
K9BsjxYFC3FmORbK7N98TV5Cjz3XRf9aEL3qe4rPjJ/CkAtzFZb/3MI6VgibyZRz
ZgGL7nZoMDyn+TApwtXi8NreHJW7XMHDyvT+a5WxGjupNwkxUq5+di3IAlbznqRb
sM5QB7epjc4J1odxWW34m0fdxmFkN73WyscMszMPXlzFcAXvTz0olgOFsELyzzUF
DzS43t1nv/HQEB2JTJsUsjCeaTBcGDCyFctwOMSISmjryQIDAQABo4GiMIGfMAkG
A1UdEwQCMAAwHQYDVR0OBBYEFCeqV7DoN8GUsM/23A4knO8iJ/DPMFEGA1UdIwRK
MEiAFF97Sl724yF8Z5xz+biW25Z3VugtoRqkGDAWMRQwEgYDVQQDDAt0ZWFtMTk1
LW5ldIIUTIO1bMh+t+L9ROGkuqgXOQYbxxgwEwYDVR0lBAwwCgYIKwYBBQUHAwIw
CwYDVR0PBAQDAgeAMA0GCSqGSIb3DQEBCwUAA4IBAQCzo0S7ny4oN77aMbxvz6pw
/7oqfLOp8R7UTghcmvXCJeihRPOFQSEbtzIDZpXXWwgsFe+ejVsu1tej7OyY4Iae
2mxn+cGqfkhDNOaBi34PrFM35Ocdn1U/c+9O/ly1sIDftyeg04qLyozaLELdE3SS
RSUvYLJllBj8ANnUorZzVoDP7Q1EXzntkxL0vIOLB9JjGpAuSMG73Il7WBKYKlCz
u+C98lyg7iFxa64AdIbnNCr4AxQuurxGYFuVMOjFNp2wY27RwSi4ZWy+AEYsVQgl
MXDTh17q/WxfBMLwoI1Ud1IbnQjOz18LDVpYruE9dgWCzf9+sZyRZGFbzvOHkGsA
-----END CERTIFICATE-----
