Certificate:
    Data:
        Version: 3 (0x2)
        Serial Number:
            79:ef:8b:f1:e9:ed:2c:e9:4b:8e:8f:ec:72:e7:53:74
        Signature Algorithm: sha256WithRSAEncryption
        Issuer: CN=team435-net
        Validity
            Not Before: Sep 13 02:34:38 2021 GMT
            Not After : Aug 28 02:34:38 2024 GMT
        Subject: CN=team435-client
        Subject Public Key Info:
            Public Key Algorithm: rsaEncryption
                RSA Public-Key: (2048 bit)
                Modulus:
                    00:c5:b1:0d:92:ca:e3:48:24:30:e5:13:84:c4:07:
                    be:bb:2d:99:d6:61:0d:6f:35:12:3a:22:b2:70:12:
                    78:94:87:9d:7d:17:0c:91:78:08:59:e2:be:d0:22:
                    b3:e3:5f:20:0f:cb:a6:ba:14:4b:78:c2:3b:0d:66:
                    b1:ca:b9:08:22:6f:d6:a0:3c:ad:9e:0d:cd:71:46:
                    0d:46:dd:96:ef:66:c4:55:73:fe:22:48:65:0a:4a:
                    2e:1f:fd:25:6c:a7:78:62:bc:07:36:14:c0:db:70:
                    7d:0c:e4:69:6a:16:68:71:72:e2:75:4d:f1:33:6d:
                    5d:80:fb:68:f2:14:87:32:4e:31:02:f8:b7:4b:9c:
                    e1:fb:f7:36:71:57:a1:6c:fc:1d:5c:d3:b4:64:9e:
                    c5:7b:6a:2b:ca:a5:fc:eb:1e:3f:5e:c9:32:11:bd:
                    17:34:6e:c3:48:1e:74:a7:80:ea:d5:6a:f7:a7:e8:
                    f8:36:f4:91:79:0c:a5:ff:78:58:17:19:22:fe:cc:
                    85:de:2b:a7:67:a0:15:25:9b:4c:e3:db:8b:cd:88:
                    48:06:cd:c4:20:00:66:a8:d1:04:92:b8:d2:63:e7:
                    0c:e0:01:69:d7:a1:c5:52:8e:94:f7:4e:72:44:84:
                    c3:17:33:b7:61:0b:99:53:a6:39:cf:f7:47:57:24:
                    14:eb
                Exponent: 65537 (0x10001)
        X509v3 extensions:
            X509v3 Basic Constraints: 
                CA:FALSE
            X509v3 Subject Key Identifier: 
                3D:0D:0F:99:1E:CF:9F:07:D4:D3:BA:56:9B:67:20:4F:09:EB:A1:FD
            X509v3 Authority Key Identifier: 
                keyid:8D:42:23:40:29:77:F0:74:49:E1:E2:53:2E:4F:DE:F8:73:6C:E9:87
                DirName:/CN=team435-net
                serial:64:EE:35:56:90:5A:DA:EA:A5:D3:CD:E6:01:C7:11:EE:2B:D1:CB:15

            X509v3 Extended Key Usage: 
                TLS Web Client Authentication
            X509v3 Key Usage: 
                Digital Signature
    Signature Algorithm: sha256WithRSAEncryption
         4b:84:14:0d:a5:fe:81:fc:29:28:72:d5:44:06:26:88:f5:c8:
         eb:9a:d8:f5:74:ee:6d:af:28:e8:d9:ef:51:df:b2:ff:3a:90:
         3d:66:ad:a3:ca:8d:bf:cb:56:9c:23:97:e3:ee:f7:5c:43:7a:
         62:58:cd:b4:cf:4a:93:99:8a:d6:64:a5:7c:71:48:f7:58:68:
         0f:c3:16:a0:88:16:2e:de:92:b5:72:23:9f:3a:7f:93:35:4d:
         4b:28:20:7f:0d:9c:34:14:92:6a:c3:47:fa:4e:2c:2c:1d:78:
         61:2c:7a:48:2d:51:74:22:24:cd:8e:35:4b:c9:b3:d1:fa:33:
         73:23:0e:97:ca:fe:d3:c2:52:c5:f5:fe:2a:2e:3b:ca:ab:0b:
         c7:e3:a5:d9:23:65:02:eb:93:3f:b0:68:e4:1c:96:1b:c3:36:
         ef:21:05:bb:01:d6:32:76:a3:bc:52:8b:47:3c:06:34:6c:0a:
         6a:ef:a9:36:83:10:e7:9b:5f:24:cc:2c:51:0d:fc:d8:7c:6c:
         9a:24:82:fa:23:eb:3b:58:19:ab:d9:5a:4f:20:b0:b6:10:91:
         b9:3c:37:3a:9a:d3:32:18:77:20:60:6a:22:55:82:b0:14:cb:
         15:1c:e2:36:69:a0:6f:55:c5:da:0a:8b:17:38:e8:10:cb:d9:
         4e:3b:51:6a
-----BEGIN CERTIFICATE-----
MIIDXDCCAkSgAwIBAgIQee+L8entLOlLjo/scudTdDANBgkqhkiG9w0BAQsFADAW
MRQwEgYDVQQDDAt0ZWFtNDM1LW5ldDAeFw0yMTA5MTMwMjM0MzhaFw0yNDA4Mjgw
MjM0MzhaMBkxFzAVBgNVBAMMDnRlYW00MzUtY2xpZW50MIIBIjANBgkqhkiG9w0B
AQEFAAOCAQ8AMIIBCgKCAQEAxbENksrjSCQw5ROExAe+uy2Z1mENbzUSOiKycBJ4
lIedfRcMkXgIWeK+0CKz418gD8umuhRLeMI7DWaxyrkIIm/WoDytng3NcUYNRt2W
72bEVXP+IkhlCkouH/0lbKd4YrwHNhTA23B9DORpahZocXLidU3xM21dgPto8hSH
Mk4xAvi3S5zh+/c2cVehbPwdXNO0ZJ7Fe2oryqX86x4/XskyEb0XNG7DSB50p4Dq
1Wr3p+j4NvSReQyl/3hYFxki/syF3iunZ6AVJZtM49uLzYhIBs3EIABmqNEEkrjS
Y+cM4AFp16HFUo6U905yRITDFzO3YQuZU6Y5z/dHVyQU6wIDAQABo4GiMIGfMAkG
A1UdEwQCMAAwHQYDVR0OBBYEFD0ND5kez58H1NO6VptnIE8J66H9MFEGA1UdIwRK
MEiAFI1CI0Apd/B0SeHiUy5P3vhzbOmHoRqkGDAWMRQwEgYDVQQDDAt0ZWFtNDM1
LW5ldIIUZO41VpBa2uql083mAccR7ivRyxUwEwYDVR0lBAwwCgYIKwYBBQUHAwIw
CwYDVR0PBAQDAgeAMA0GCSqGSIb3DQEBCwUAA4IBAQBLhBQNpf6B/CkoctVEBiaI
9cjrmtj1dO5tryjo2e9R37L/OpA9Zq2jyo2/y1acI5fj7vdcQ3piWM20z0qTmYrW
ZKV8cUj3WGgPwxagiBYu3pK1ciOfOn+TNU1LKCB/DZw0FJJqw0f6TiwsHXhhLHpI
LVF0IiTNjjVLybPR+jNzIw6Xyv7TwlLF9f4qLjvKqwvH46XZI2UC65M/sGjkHJYb
wzbvIQW7AdYydqO8UotHPAY0bApq76k2gxDnm18kzCxRDfzYfGyaJIL6I+s7WBmr
2VpPILC2EJG5PDc6mtMyGHcgYGoiVYKwFMsVHOI2aaBvVcXaCosXOOgQy9lOO1Fq
-----END CERTIFICATE-----
