Certificate:
    Data:
        Version: 3 (0x2)
        Serial Number:
            72:4f:e3:96:3f:0c:8e:16:8f:6c:74:43:30:cc:2c:84
        Signature Algorithm: sha256WithRSAEncryption
        Issuer: CN=team701-net
        Validity
            Not Before: Sep 13 05:22:02 2021 GMT
            Not After : Aug 28 05:22:02 2024 GMT
        Subject: CN=team701-client
        Subject Public Key Info:
            Public Key Algorithm: rsaEncryption
                RSA Public-Key: (2048 bit)
                Modulus:
                    00:b9:59:4c:b5:6d:c4:b8:08:1f:ae:ed:55:9e:05:
                    38:ef:c4:6b:8d:19:8f:ec:06:5e:af:bd:88:85:41:
                    95:6c:13:ab:48:c5:1a:ac:5c:59:cd:5e:83:e7:bf:
                    b5:92:88:9b:67:5d:0f:fb:81:e2:9e:cc:4b:a6:6b:
                    66:53:e5:5a:e6:bf:f2:e4:05:cf:d7:9b:9e:9c:f8:
                    82:63:ed:78:02:ae:5d:87:19:ca:0e:46:15:91:8c:
                    79:05:7e:b1:6c:4f:69:78:b2:aa:a3:59:2a:99:e8:
                    21:c8:f6:6f:bb:b1:b9:de:eb:de:e3:74:4f:5f:60:
                    06:e7:2f:04:a9:e8:12:09:fe:75:45:ab:17:cc:eb:
                    f6:f9:95:69:9f:3e:68:14:ae:b7:f4:1e:91:ea:6e:
                    ee:6a:27:9f:5b:68:07:68:3e:56:1e:10:3d:cb:6e:
                    fd:7b:dd:42:6a:be:6d:6d:73:f2:ab:87:30:0e:f5:
                    cd:99:6e:75:24:a1:12:32:ad:f0:d5:dc:62:f7:f6:
                    28:43:e0:a8:8a:c4:b2:08:95:d3:83:7c:cd:5b:44:
                    53:f2:e0:c6:0c:2e:7a:8c:84:e2:0d:61:bf:ca:91:
                    2a:dc:b9:62:aa:b1:3f:14:7f:e7:35:4a:72:75:9e:
                    28:77:c2:ef:9f:92:f9:df:6c:52:f5:ad:88:19:97:
                    e9:73
                Exponent: 65537 (0x10001)
        X509v3 extensions:
            X509v3 Basic Constraints: 
                CA:FALSE
            X509v3 Subject Key Identifier: 
                09:9E:C5:E7:8A:9F:B7:A7:F6:2C:E7:B0:3A:8D:A4:D3:F0:E2:73:5D
            X509v3 Authority Key Identifier: 
                keyid:FC:CC:56:93:85:8D:2B:29:07:DA:AC:DB:5B:28:4A:B8:AE:48:7A:B2
                DirName:/CN=team701-net
                serial:08:D7:AB:16:48:2D:64:1C:D0:05:27:D7:0F:0D:63:EF:25:52:3E:FC

            X509v3 Extended Key Usage: 
                TLS Web Client Authentication
            X509v3 Key Usage: 
                Digital Signature
    Signature Algorithm: sha256WithRSAEncryption
         80:b7:76:19:c8:27:27:9d:48:56:04:54:aa:02:30:da:ae:c6:
         4f:c8:e6:0e:17:c3:32:f2:2d:ce:6d:2c:44:a7:34:36:90:8c:
         4b:0f:1f:fe:98:2e:a5:69:a1:e1:86:4d:7f:dc:7a:2b:c8:91:
         ca:21:a1:91:2d:db:92:e3:f8:b2:b7:91:7f:40:41:f7:dc:e4:
         2e:de:64:19:8b:af:46:52:7a:62:45:dc:14:54:f5:ee:90:61:
         33:c6:05:2f:c7:cc:c0:c4:09:31:f4:43:80:fb:b3:56:a2:86:
         a4:b0:8c:8a:26:db:55:46:ad:fb:7a:aa:f6:45:9c:cb:da:4f:
         76:2d:b7:e7:d1:e2:f4:56:9d:f5:2d:c1:6b:be:9c:3f:b3:18:
         00:41:02:03:3f:1d:b5:e9:68:f6:b8:40:56:2d:02:90:ae:20:
         80:1e:44:db:9b:77:ac:68:20:a5:4f:28:e4:62:11:50:69:f0:
         e8:25:5e:ac:15:21:9b:fd:3a:a4:79:ce:23:1f:6c:ed:d5:e1:
         a0:7f:36:aa:98:f5:a5:90:9d:0b:e3:59:a4:3e:0c:9c:3a:26:
         a5:b5:0a:b6:74:6d:f3:58:f9:69:20:00:39:16:56:85:f5:a8:
         a8:f1:ec:ae:31:1b:df:61:da:83:f3:b4:4a:73:a1:f3:3a:76:
         0b:42:2d:6b
-----BEGIN CERTIFICATE-----
MIIDXDCCAkSgAwIBAgIQck/jlj8MjhaPbHRDMMwshDANBgkqhkiG9w0BAQsFADAW
MRQwEgYDVQQDDAt0ZWFtNzAxLW5ldDAeFw0yMTA5MTMwNTIyMDJaFw0yNDA4Mjgw
NTIyMDJaMBkxFzAVBgNVBAMMDnRlYW03MDEtY2xpZW50MIIBIjANBgkqhkiG9w0B
AQEFAAOCAQ8AMIIBCgKCAQEAuVlMtW3EuAgfru1VngU478RrjRmP7AZer72IhUGV
bBOrSMUarFxZzV6D57+1koibZ10P+4HinsxLpmtmU+Va5r/y5AXP15uenPiCY+14
Aq5dhxnKDkYVkYx5BX6xbE9peLKqo1kqmeghyPZvu7G53uve43RPX2AG5y8EqegS
Cf51RasXzOv2+ZVpnz5oFK639B6R6m7uaiefW2gHaD5WHhA9y279e91Car5tbXPy
q4cwDvXNmW51JKESMq3w1dxi9/YoQ+CoisSyCJXTg3zNW0RT8uDGDC56jITiDWG/
ypEq3LliqrE/FH/nNUpydZ4od8Lvn5L532xS9a2IGZfpcwIDAQABo4GiMIGfMAkG
A1UdEwQCMAAwHQYDVR0OBBYEFAmexeeKn7en9iznsDqNpNPw4nNdMFEGA1UdIwRK
MEiAFPzMVpOFjSspB9qs21soSriuSHqyoRqkGDAWMRQwEgYDVQQDDAt0ZWFtNzAx
LW5ldIIUCNerFkgtZBzQBSfXDw1j7yVSPvwwEwYDVR0lBAwwCgYIKwYBBQUHAwIw
CwYDVR0PBAQDAgeAMA0GCSqGSIb3DQEBCwUAA4IBAQCAt3YZyCcnnUhWBFSqAjDa
rsZPyOYOF8My8i3ObSxEpzQ2kIxLDx/+mC6laaHhhk1/3HoryJHKIaGRLduS4/iy
t5F/QEH33OQu3mQZi69GUnpiRdwUVPXukGEzxgUvx8zAxAkx9EOA+7NWooaksIyK
JttVRq37eqr2RZzL2k92Lbfn0eL0Vp31LcFrvpw/sxgAQQIDPx216Wj2uEBWLQKQ
riCAHkTbm3esaCClTyjkYhFQafDoJV6sFSGb/Tqkec4jH2zt1eGgfzaqmPWlkJ0L
41mkPgycOialtQq2dG3zWPlpIAA5FlaF9aio8eyuMRvfYdqD87RKc6HzOnYLQi1r
-----END CERTIFICATE-----
