Certificate:
    Data:
        Version: 3 (0x2)
        Serial Number:
            8a:b7:66:90:cc:1f:f0:6d:d7:38:f0:61:ec:45:7a:4c
        Signature Algorithm: sha256WithRSAEncryption
        Issuer: CN=team734-net
        Validity
            Not Before: Sep 13 05:04:43 2021 GMT
            Not After : Aug 28 05:04:43 2024 GMT
        Subject: CN=team734-server
        Subject Public Key Info:
            Public Key Algorithm: rsaEncryption
                RSA Public-Key: (2048 bit)
                Modulus:
                    00:d0:03:e6:7e:37:d8:9e:ad:bc:7a:24:62:9c:5d:
                    ab:2e:ed:fb:b7:61:14:fb:13:77:86:a7:44:26:f3:
                    8e:43:22:aa:5d:ef:fa:75:bb:52:c8:f4:6a:5a:b9:
                    22:1e:41:62:f9:a8:e4:38:d2:21:65:77:ee:e7:03:
                    76:58:42:c8:18:ea:5c:97:be:f9:b3:dc:a2:cc:61:
                    0c:bb:a3:a0:73:8d:ca:11:65:54:f2:3b:2c:08:06:
                    9e:15:49:56:fd:e3:84:09:f7:e6:6e:ed:41:e7:f4:
                    74:0c:cb:c7:24:0e:9c:0c:0a:6f:90:70:90:d6:f6:
                    4c:72:76:f3:4f:47:d2:49:2c:c7:2c:1e:56:05:e7:
                    b2:d8:be:4e:a2:e6:86:0c:6b:cd:57:92:41:c4:d8:
                    79:28:44:fb:da:dc:ae:65:8f:17:e9:5a:87:5b:24:
                    8a:fc:3c:e6:3a:86:88:20:a8:e8:0c:92:9c:5e:10:
                    dd:65:65:4a:5f:0a:89:b9:a2:4b:ee:d9:ad:85:8c:
                    91:6f:a3:a5:27:2b:0f:03:49:02:be:d5:4f:ee:c5:
                    89:21:03:08:3b:c7:18:b8:45:03:47:be:c8:b9:97:
                    35:13:c0:57:62:8e:e1:0e:30:0b:b2:31:be:bd:7d:
                    a0:a9:2a:47:0a:b3:ed:15:7d:95:e2:5c:73:d3:9a:
                    2b:65
                Exponent: 65537 (0x10001)
        X509v3 extensions:
            X509v3 Basic Constraints: 
                CA:FALSE
            X509v3 Subject Key Identifier: 
                42:76:A6:77:E2:AE:28:DD:9E:00:AA:49:47:AB:7F:D9:6C:56:F7:37
            X509v3 Authority Key Identifier: 
                keyid:4D:B9:3F:DC:39:9A:3D:3D:57:C5:9B:57:AC:1F:AB:17:CF:64:05:A6
                DirName:/CN=team734-net
                serial:3D:1C:35:7C:0E:11:E6:72:74:63:BA:6E:70:84:B5:4E:49:45:85:63

            X509v3 Extended Key Usage: 
                TLS Web Server Authentication
            X509v3 Key Usage: 
                Digital Signature, Key Encipherment
            X509v3 Subject Alternative Name: 
                DNS:team734-server
    Signature Algorithm: sha256WithRSAEncryption
         06:80:b4:b5:71:6d:0b:ab:27:8d:a0:99:ad:f6:d2:bf:cf:9f:
         a8:73:b8:3a:7b:1f:82:e4:91:65:84:00:80:c3:5b:7b:a5:62:
         e2:d2:c7:cd:03:06:3e:c3:d5:9b:e3:cb:17:ff:ec:b4:85:20:
         fa:d0:10:a8:bf:6a:98:9e:35:10:d0:4b:e6:e5:81:83:2b:74:
         0e:7f:f8:7d:2c:69:2a:4c:83:95:b7:38:c8:55:06:45:49:22:
         06:17:e5:33:1e:42:c2:91:fe:5c:10:a2:d6:76:77:37:51:75:
         ca:9a:ab:c7:c1:d7:39:df:d4:1f:89:01:f3:ad:60:b1:ed:58:
         d8:c1:31:85:ba:38:49:e6:c4:eb:06:6f:71:a1:55:7e:20:d8:
         d8:d2:a0:1e:5c:44:ba:73:83:d4:62:8a:bb:25:09:d2:21:5b:
         9e:31:5d:3b:e7:50:45:e1:46:29:14:45:db:9d:ac:80:3a:93:
         04:de:aa:77:ae:e4:60:20:c0:a1:78:df:98:c4:0b:98:52:df:
         ab:74:b5:44:3c:c3:30:17:40:fd:52:c9:01:c1:f1:36:82:c6:
         b5:79:4f:9a:a5:46:c6:9a:90:24:94:99:11:6a:62:84:14:94:
         a0:3b:ae:39:a5:3c:9b:55:64:d1:5f:d9:6c:13:54:5b:fb:5e:
         2d:e7:85:8d
-----BEGIN CERTIFICATE-----
MIIDeDCCAmCgAwIBAgIRAIq3ZpDMH/Bt1zjwYexFekwwDQYJKoZIhvcNAQELBQAw
FjEUMBIGA1UEAwwLdGVhbTczNC1uZXQwHhcNMjEwOTEzMDUwNDQzWhcNMjQwODI4
MDUwNDQzWjAZMRcwFQYDVQQDDA50ZWFtNzM0LXNlcnZlcjCCASIwDQYJKoZIhvcN
AQEBBQADggEPADCCAQoCggEBANAD5n432J6tvHokYpxdqy7t+7dhFPsTd4anRCbz
jkMiql3v+nW7Usj0alq5Ih5BYvmo5DjSIWV37ucDdlhCyBjqXJe++bPcosxhDLuj
oHONyhFlVPI7LAgGnhVJVv3jhAn35m7tQef0dAzLxyQOnAwKb5BwkNb2THJ2809H
0kksxyweVgXnsti+TqLmhgxrzVeSQcTYeShE+9rcrmWPF+lah1skivw85jqGiCCo
6AySnF4Q3WVlSl8KibmiS+7ZrYWMkW+jpScrDwNJAr7VT+7FiSEDCDvHGLhFA0e+
yLmXNRPAV2KO4Q4wC7Ixvr19oKkqRwqz7RV9leJcc9OaK2UCAwEAAaOBvTCBujAJ
BgNVHRMEAjAAMB0GA1UdDgQWBBRCdqZ34q4o3Z4AqklHq3/ZbFb3NzBRBgNVHSME
SjBIgBRNuT/cOZo9PVfFm1esH6sXz2QFpqEapBgwFjEUMBIGA1UEAwwLdGVhbTcz
NC1uZXSCFD0cNXwOEeZydGO6bnCEtU5JRYVjMBMGA1UdJQQMMAoGCCsGAQUFBwMB
MAsGA1UdDwQEAwIFoDAZBgNVHREEEjAQgg50ZWFtNzM0LXNlcnZlcjANBgkqhkiG
9w0BAQsFAAOCAQEABoC0tXFtC6snjaCZrfbSv8+fqHO4OnsfguSRZYQAgMNbe6Vi
4tLHzQMGPsPVm+PLF//stIUg+tAQqL9qmJ41ENBL5uWBgyt0Dn/4fSxpKkyDlbc4
yFUGRUkiBhflMx5CwpH+XBCi1nZ3N1F1ypqrx8HXOd/UH4kB861gse1Y2MExhbo4
SebE6wZvcaFVfiDY2NKgHlxEunOD1GKKuyUJ0iFbnjFdO+dQReFGKRRF252sgDqT
BN6qd67kYCDAoXjfmMQLmFLfq3S1RDzDMBdA/VLJAcHxNoLGtXlPmqVGxpqQJJSZ
EWpihBSUoDuuOaU8m1Vk0V/ZbBNUW/teLeeFjQ==
-----END CERTIFICATE-----
