Certificate:
    Data:
        Version: 3 (0x2)
        Serial Number:
            ac:53:da:20:fd:ac:59:46:84:7d:02:20:d6:8d:95:48
        Signature Algorithm: sha256WithRSAEncryption
        Issuer: CN=team131-net
        Validity
            Not Before: Sep 12 23:53:49 2021 GMT
            Not After : Aug 27 23:53:49 2024 GMT
        Subject: CN=team131-client
        Subject Public Key Info:
            Public Key Algorithm: rsaEncryption
                RSA Public-Key: (2048 bit)
                Modulus:
                    00:c1:d1:b7:9a:62:59:59:9f:fd:1b:22:2d:ec:79:
                    56:4d:74:d2:8c:48:e0:e8:3b:b6:a7:ea:79:4b:2e:
                    f2:0c:e3:66:a6:f3:88:60:1b:d7:20:86:33:37:42:
                    2d:cb:a8:f3:b7:bc:b3:b9:86:d9:97:af:28:a8:b9:
                    b8:dc:da:e6:71:d0:05:d2:50:ee:71:9d:22:0b:60:
                    0e:c8:7d:32:c0:d7:56:68:fb:a6:3f:91:c4:d6:51:
                    0a:cc:9a:1c:3a:8e:39:a7:41:3a:97:93:e4:0c:90:
                    e9:d6:b1:06:be:47:e1:5f:f9:51:b6:68:15:31:fd:
                    5c:cc:be:20:bd:6b:3b:ad:d9:ba:2b:54:c8:2b:0d:
                    e9:75:13:67:d9:6e:e6:f7:80:56:66:0f:cd:48:17:
                    92:ac:2b:a8:36:d7:ef:79:64:b2:7e:fb:0e:fb:3a:
                    c6:a9:2a:98:b0:48:00:c7:89:ce:40:0a:51:da:b5:
                    29:08:0f:46:88:6a:79:74:41:ce:51:90:20:86:78:
                    d7:ad:4d:df:d5:14:91:71:20:dc:61:d7:20:ee:78:
                    9e:6f:27:ab:e0:31:da:69:ee:ed:c6:1c:20:bf:72:
                    d1:c4:40:de:d4:ee:12:a0:fe:93:ba:00:8d:50:58:
                    06:54:b3:67:6c:53:b6:65:59:b8:0d:77:20:79:24:
                    97:5b
                Exponent: 65537 (0x10001)
        X509v3 extensions:
            X509v3 Basic Constraints: 
                CA:FALSE
            X509v3 Subject Key Identifier: 
                A3:13:F5:83:4D:2B:EE:C4:88:EE:B3:4F:9A:86:E9:70:A1:EA:CC:55
            X509v3 Authority Key Identifier: 
                keyid:CA:47:3F:6A:19:F7:40:4D:46:ED:08:DC:70:CC:76:EF:C3:DD:F3:29
                DirName:/CN=team131-net
                serial:7B:0D:1C:04:4D:48:68:10:77:C3:0D:25:1B:EA:2E:99:3D:8B:EC:26

            X509v3 Extended Key Usage: 
                TLS Web Client Authentication
            X509v3 Key Usage: 
                Digital Signature
    Signature Algorithm: sha256WithRSAEncryption
         5a:34:ea:c2:e7:72:63:f1:7a:0b:ff:3e:23:04:e6:1a:fb:a2:
         02:e7:5a:91:5c:3c:37:9b:6e:8d:b5:70:86:b9:9b:06:10:5b:
         49:cd:95:32:66:7a:8a:b4:94:02:f5:83:0a:11:88:22:4f:42:
         fa:76:e8:60:cd:0a:b6:51:08:98:05:cc:2a:d7:dc:44:7f:ef:
         d3:20:f7:6d:b4:de:af:c0:5e:b0:6e:7b:45:a6:8b:40:2e:17:
         e6:7b:15:bd:d4:5c:fa:83:5a:28:a1:d8:e0:85:3a:45:65:ed:
         ae:2d:d8:90:ba:d0:46:6f:16:af:7d:c2:15:2f:5d:4e:a8:9b:
         ed:6d:ef:4a:31:ae:e0:27:47:f0:aa:2c:1e:d9:65:1b:21:cd:
         fb:7b:4e:1c:01:a5:87:2f:f4:bf:d3:47:78:10:95:5f:73:0d:
         88:b0:4a:42:5d:02:5d:bf:73:f3:75:48:9e:d4:fd:a9:b3:e1:
         85:6a:23:eb:28:4c:f1:5b:c3:19:c9:a0:f0:21:f6:1e:ae:cc:
         0e:e3:27:43:f6:aa:ca:04:93:51:c6:77:56:dc:e3:b9:17:c3:
         ee:85:4e:74:b7:80:69:83:97:8b:cf:ae:0a:9c:9d:18:96:6f:
         ed:b4:ff:c7:2b:f8:ab:d0:cc:4b:62:0f:d2:92:0e:6f:99:f6:
         ea:50:34:74
-----BEGIN CERTIFICATE-----
MIIDXTCCAkWgAwIBAgIRAKxT2iD9rFlGhH0CINaNlUgwDQYJKoZIhvcNAQELBQAw
FjEUMBIGA1UEAwwLdGVhbTEzMS1uZXQwHhcNMjEwOTEyMjM1MzQ5WhcNMjQwODI3
MjM1MzQ5WjAZMRcwFQYDVQQDDA50ZWFtMTMxLWNsaWVudDCCASIwDQYJKoZIhvcN
AQEBBQADggEPADCCAQoCggEBAMHRt5piWVmf/RsiLex5Vk100oxI4Og7tqfqeUsu
8gzjZqbziGAb1yCGMzdCLcuo87e8s7mG2ZevKKi5uNza5nHQBdJQ7nGdIgtgDsh9
MsDXVmj7pj+RxNZRCsyaHDqOOadBOpeT5AyQ6daxBr5H4V/5UbZoFTH9XMy+IL1r
O63ZuitUyCsN6XUTZ9lu5veAVmYPzUgXkqwrqDbX73lksn77Dvs6xqkqmLBIAMeJ
zkAKUdq1KQgPRohqeXRBzlGQIIZ4161N39UUkXEg3GHXIO54nm8nq+Ax2mnu7cYc
IL9y0cRA3tTuEqD+k7oAjVBYBlSzZ2xTtmVZuA13IHkkl1sCAwEAAaOBojCBnzAJ
BgNVHRMEAjAAMB0GA1UdDgQWBBSjE/WDTSvuxIjus0+ahulwoerMVTBRBgNVHSME
SjBIgBTKRz9qGfdATUbtCNxwzHbvw93zKaEapBgwFjEUMBIGA1UEAwwLdGVhbTEz
MS1uZXSCFHsNHARNSGgQd8MNJRvqLpk9i+wmMBMGA1UdJQQMMAoGCCsGAQUFBwMC
MAsGA1UdDwQEAwIHgDANBgkqhkiG9w0BAQsFAAOCAQEAWjTqwudyY/F6C/8+IwTm
GvuiAudakVw8N5tujbVwhrmbBhBbSc2VMmZ6irSUAvWDChGIIk9C+nboYM0KtlEI
mAXMKtfcRH/v0yD3bbTer8BesG57RaaLQC4X5nsVvdRc+oNaKKHY4IU6RWXtri3Y
kLrQRm8Wr33CFS9dTqib7W3vSjGu4CdH8KosHtllGyHN+3tOHAGlhy/0v9NHeBCV
X3MNiLBKQl0CXb9z83VIntT9qbPhhWoj6yhM8VvDGcmg8CH2Hq7MDuMnQ/aqygST
UcZ3VtzjuRfD7oVOdLeAaYOXi8+uCpydGJZv7bT/xyv4q9DMS2IP0pIOb5n26lA0
dA==
-----END CERTIFICATE-----
