Certificate:
    Data:
        Version: 3 (0x2)
        Serial Number:
            25:45:98:a2:d8:21:b7:d3:07:15:cf:07:82:d2:f1:18
        Signature Algorithm: sha256WithRSAEncryption
        Issuer: CN=team96-net
        Validity
            Not Before: Sep 12 23:35:14 2021 GMT
            Not After : Aug 27 23:35:14 2024 GMT
        Subject: CN=team96-server
        Subject Public Key Info:
            Public Key Algorithm: rsaEncryption
                RSA Public-Key: (2048 bit)
                Modulus:
                    00:b2:51:c0:7c:9a:88:a1:bd:b5:44:da:9a:c1:4f:
                    70:e4:af:7d:ec:0b:8b:e9:6c:3d:75:7b:5b:80:99:
                    0a:ae:5d:3d:ec:cf:ec:e0:7d:40:03:96:ea:05:f1:
                    b7:36:15:3d:fe:d7:c1:49:bb:56:ef:f7:f4:f8:6a:
                    23:61:d9:ff:8e:26:74:ee:18:12:72:36:87:9b:21:
                    2e:17:fc:65:03:42:e8:82:ce:2d:41:69:83:0f:29:
                    50:f7:6b:74:80:c9:18:33:e0:ea:9a:c7:9d:65:58:
                    04:32:26:36:87:3d:bb:a7:a6:ae:1c:92:b8:f6:ee:
                    96:d8:f9:51:e8:97:32:fd:ec:e7:cc:c1:06:30:a7:
                    28:68:5d:df:a4:0d:9f:18:db:c7:68:d9:b3:24:c6:
                    31:20:4c:42:89:1c:c3:21:bf:e2:14:bf:9c:bb:75:
                    ea:b6:6f:20:34:15:39:4c:1f:55:7b:fc:8a:16:cf:
                    7e:40:9d:06:13:b8:0b:b0:c1:a0:e7:ff:a8:c8:e1:
                    d3:0a:dd:28:cf:0f:2d:e5:54:b2:43:f3:08:a2:20:
                    ef:7f:61:2e:50:09:ec:21:70:0a:63:74:48:e0:97:
                    9c:9a:13:f6:cd:5e:8b:bd:a4:8b:7f:84:04:a3:77:
                    75:3b:61:87:92:b4:4e:77:02:54:2d:1e:2a:81:b9:
                    ea:21
                Exponent: 65537 (0x10001)
        X509v3 extensions:
            X509v3 Basic Constraints: 
                CA:FALSE
            X509v3 Subject Key Identifier: 
                77:04:92:6C:69:99:EB:7B:67:76:EA:46:7A:81:88:A9:3C:71:6A:6A
            X509v3 Authority Key Identifier: 
                keyid:AA:63:B0:D8:49:89:4D:03:1A:AB:BC:75:61:42:FC:A0:AF:2F:9A:7F
                DirName:/CN=team96-net
                serial:2C:8D:A6:86:0C:A5:84:AE:41:14:C6:D7:5C:82:C7:BA:0F:89:1B:A3

            X509v3 Extended Key Usage: 
                TLS Web Server Authentication
            X509v3 Key Usage: 
                Digital Signature, Key Encipherment
            X509v3 Subject Alternative Name: 
                DNS:team96-server
    Signature Algorithm: sha256WithRSAEncryption
         32:c0:bb:5b:b6:a0:86:b9:58:d6:50:e2:36:90:19:73:aa:bc:
         96:9b:cb:9c:93:27:54:00:8e:36:62:2d:2c:fa:37:b2:f4:75:
         a2:44:c3:e8:5c:7b:10:9e:3f:b4:24:02:92:c4:4d:04:40:bd:
         23:fa:84:f4:58:f2:a6:73:7e:60:04:ac:7b:48:f2:aa:14:67:
         95:f1:a7:4e:56:4c:b9:5e:be:8b:35:f4:fc:34:bd:d5:92:d4:
         ce:da:33:e8:be:a1:b6:5b:2e:55:c0:24:34:ec:f4:d6:0d:53:
         03:bd:0e:d0:c8:93:47:b6:8d:ea:69:21:4b:d2:c5:c3:93:e7:
         ca:67:a1:58:33:36:1d:fc:c2:5c:e9:b9:41:c8:e7:43:83:50:
         d3:db:3e:a4:fd:6c:7a:ea:cc:86:3a:35:e6:ce:68:5a:52:ae:
         81:22:f0:e8:9f:38:87:53:03:48:67:21:bc:cf:e9:3f:54:e3:
         ca:13:12:bf:c3:f1:b3:6e:b3:6c:df:37:43:f7:d3:1b:20:8d:
         c1:32:38:fa:51:eb:7c:2f:d5:62:6a:76:27:7a:ba:e6:49:12:
         76:e4:48:e4:7f:4c:b5:de:5f:01:62:2b:16:6b:39:b1:69:ab:
         c0:30:05:d9:6b:a3:85:4d:56:16:c5:6b:39:52:dc:38:44:93:
         8c:62:3d:ed
-----BEGIN CERTIFICATE-----
MIIDczCCAlugAwIBAgIQJUWYotght9MHFc8HgtLxGDANBgkqhkiG9w0BAQsFADAV
MRMwEQYDVQQDDAp0ZWFtOTYtbmV0MB4XDTIxMDkxMjIzMzUxNFoXDTI0MDgyNzIz
MzUxNFowGDEWMBQGA1UEAwwNdGVhbTk2LXNlcnZlcjCCASIwDQYJKoZIhvcNAQEB
BQADggEPADCCAQoCggEBALJRwHyaiKG9tUTamsFPcOSvfewLi+lsPXV7W4CZCq5d
PezP7OB9QAOW6gXxtzYVPf7XwUm7Vu/39PhqI2HZ/44mdO4YEnI2h5shLhf8ZQNC
6ILOLUFpgw8pUPdrdIDJGDPg6prHnWVYBDImNoc9u6emrhySuPbultj5UeiXMv3s
58zBBjCnKGhd36QNnxjbx2jZsyTGMSBMQokcwyG/4hS/nLt16rZvIDQVOUwfVXv8
ihbPfkCdBhO4C7DBoOf/qMjh0wrdKM8PLeVUskPzCKIg739hLlAJ7CFwCmN0SOCX
nJoT9s1ei72ki3+EBKN3dTthh5K0TncCVC0eKoG56iECAwEAAaOBuzCBuDAJBgNV
HRMEAjAAMB0GA1UdDgQWBBR3BJJsaZnre2d26kZ6gYipPHFqajBQBgNVHSMESTBH
gBSqY7DYSYlNAxqrvHVhQvygry+af6EZpBcwFTETMBEGA1UEAwwKdGVhbTk2LW5l
dIIULI2mhgylhK5BFMbXXILHug+JG6MwEwYDVR0lBAwwCgYIKwYBBQUHAwEwCwYD
VR0PBAQDAgWgMBgGA1UdEQQRMA+CDXRlYW05Ni1zZXJ2ZXIwDQYJKoZIhvcNAQEL
BQADggEBADLAu1u2oIa5WNZQ4jaQGXOqvJaby5yTJ1QAjjZiLSz6N7L0daJEw+hc
exCeP7QkApLETQRAvSP6hPRY8qZzfmAErHtI8qoUZ5Xxp05WTLlevos19Pw0vdWS
1M7aM+i+obZbLlXAJDTs9NYNUwO9DtDIk0e2jeppIUvSxcOT58pnoVgzNh38wlzp
uUHI50ODUNPbPqT9bHrqzIY6NebOaFpSroEi8OifOIdTA0hnIbzP6T9U48oTEr/D
8bNus2zfN0P30xsgjcEyOPpR63wv1WJqdid6uuZJEnbkSOR/TLXeXwFiKxZrObFp
q8AwBdlro4VNVhbFazlS3DhEk4xiPe0=
-----END CERTIFICATE-----
