Certificate:
    Data:
        Version: 3 (0x2)
        Serial Number:
            6d:4c:fa:d5:68:8d:79:3e:39:c7:16:08:65:60:ce:4d
        Signature Algorithm: sha256WithRSAEncryption
        Issuer: CN=team107-net
        Validity
            Not Before: Sep 12 23:43:38 2021 GMT
            Not After : Aug 27 23:43:38 2024 GMT
        Subject: CN=team107-client
        Subject Public Key Info:
            Public Key Algorithm: rsaEncryption
                RSA Public-Key: (2048 bit)
                Modulus:
                    00:dc:a2:27:08:39:6d:60:9d:46:bc:03:2c:22:0a:
                    68:f8:5f:c4:9d:5d:79:f9:9f:1e:28:b8:6d:e2:b5:
                    5c:63:50:65:7e:e0:af:16:5e:e4:37:32:7f:5f:00:
                    85:da:31:ff:fc:f6:29:08:58:7c:76:25:7a:16:df:
                    40:a0:05:08:e8:2c:dd:3f:4b:12:62:80:9e:5a:a2:
                    20:fa:0e:cd:8e:56:cf:e1:ed:09:13:6e:43:83:91:
                    e9:ab:9c:2c:e4:5c:81:27:ed:96:49:1d:67:bd:b9:
                    8f:68:fc:0d:d4:df:6e:39:76:a7:20:e8:79:3c:17:
                    67:19:5d:e4:bb:47:e1:68:4a:6d:1f:45:cd:31:1b:
                    47:fa:67:7b:8e:3f:66:42:85:16:1f:fb:9c:5f:72:
                    4c:20:39:9a:a4:eb:47:09:94:0e:df:87:38:49:07:
                    2c:c5:c1:c6:e6:15:07:16:68:b2:cb:5e:ec:92:c2:
                    df:bb:c4:bd:d6:75:54:67:f2:e3:9f:47:7e:56:89:
                    f5:21:74:dc:b6:e4:9d:b0:14:a4:7c:a5:12:00:14:
                    df:3c:0a:d8:6c:5d:bf:c3:27:95:26:d6:81:46:c5:
                    dd:d2:23:15:e0:7e:ab:d7:f8:fd:ce:e6:f3:09:e9:
                    db:0f:86:38:b9:b3:c6:8d:b7:f6:9b:15:2c:8b:8e:
                    0f:7d
                Exponent: 65537 (0x10001)
        X509v3 extensions:
            X509v3 Basic Constraints: 
                CA:FALSE
            X509v3 Subject Key Identifier: 
                0F:41:F1:2F:28:10:DA:EA:82:F2:23:99:59:2C:6D:7B:56:74:93:1F
            X509v3 Authority Key Identifier: 
                keyid:E3:EE:51:83:01:88:84:A3:F8:BA:BE:33:2E:BC:19:F7:0C:3C:31:BC
                DirName:/CN=team107-net
                serial:52:8C:B0:A8:B5:AA:5A:1B:94:C9:44:44:13:0D:DD:98:2F:53:BF:F5

            X509v3 Extended Key Usage: 
                TLS Web Client Authentication
            X509v3 Key Usage: 
                Digital Signature
    Signature Algorithm: sha256WithRSAEncryption
         94:db:90:cb:cb:eb:c9:34:f6:ac:f1:bb:54:08:e5:f4:da:23:
         3c:6b:78:c6:46:33:36:4b:34:d5:01:e2:6a:c5:ef:2e:c3:4e:
         88:bb:c4:d5:94:9c:22:02:a7:16:72:86:3f:57:f7:7a:8e:16:
         14:20:fe:90:ba:94:7c:06:68:30:b9:a1:cd:d6:f0:ec:8b:b2:
         f9:72:c3:ac:7e:05:c8:68:d7:df:2c:38:e3:8f:76:f6:6a:7a:
         a4:44:a0:7d:9a:7e:d9:13:9f:da:09:d6:8f:40:3e:2d:9e:4f:
         1d:63:a5:c9:f7:83:9a:a9:98:48:00:a2:d9:0a:8b:33:bb:8e:
         e7:ad:04:32:fb:f3:98:89:15:c8:5a:76:c1:63:98:3a:da:36:
         31:82:a0:b9:67:e4:11:7e:0e:10:96:ad:c5:d7:9e:1b:2b:46:
         b8:32:70:30:58:f1:e9:3c:e8:b9:f8:80:ba:82:cb:86:89:96:
         12:eb:7b:a7:cb:b4:6c:e3:95:e8:7a:1e:03:5f:44:66:77:90:
         5c:32:b7:60:a4:06:6b:43:bb:7a:67:db:1a:1f:10:90:c1:25:
         5d:25:b2:d1:d4:d2:b3:d6:95:c2:35:6a:3b:f7:05:11:72:b2:
         34:58:f9:b2:9a:33:8e:4c:d5:bd:a4:f5:7a:10:2a:8e:07:58:
         9a:ac:07:18
-----BEGIN CERTIFICATE-----
MIIDXDCCAkSgAwIBAgIQbUz61WiNeT45xxYIZWDOTTANBgkqhkiG9w0BAQsFADAW
MRQwEgYDVQQDDAt0ZWFtMTA3LW5ldDAeFw0yMTA5MTIyMzQzMzhaFw0yNDA4Mjcy
MzQzMzhaMBkxFzAVBgNVBAMMDnRlYW0xMDctY2xpZW50MIIBIjANBgkqhkiG9w0B
AQEFAAOCAQ8AMIIBCgKCAQEA3KInCDltYJ1GvAMsIgpo+F/EnV15+Z8eKLht4rVc
Y1BlfuCvFl7kNzJ/XwCF2jH//PYpCFh8diV6Ft9AoAUI6CzdP0sSYoCeWqIg+g7N
jlbP4e0JE25Dg5Hpq5ws5FyBJ+2WSR1nvbmPaPwN1N9uOXanIOh5PBdnGV3ku0fh
aEptH0XNMRtH+md7jj9mQoUWH/ucX3JMIDmapOtHCZQO34c4SQcsxcHG5hUHFmiy
y17sksLfu8S91nVUZ/Ljn0d+Von1IXTctuSdsBSkfKUSABTfPArYbF2/wyeVJtaB
RsXd0iMV4H6r1/j9zubzCenbD4Y4ubPGjbf2mxUsi44PfQIDAQABo4GiMIGfMAkG
A1UdEwQCMAAwHQYDVR0OBBYEFA9B8S8oENrqgvIjmVksbXtWdJMfMFEGA1UdIwRK
MEiAFOPuUYMBiISj+Lq+My68GfcMPDG8oRqkGDAWMRQwEgYDVQQDDAt0ZWFtMTA3
LW5ldIIUUoywqLWqWhuUyUREEw3dmC9Tv/UwEwYDVR0lBAwwCgYIKwYBBQUHAwIw
CwYDVR0PBAQDAgeAMA0GCSqGSIb3DQEBCwUAA4IBAQCU25DLy+vJNPas8btUCOX0
2iM8a3jGRjM2SzTVAeJqxe8uw06Iu8TVlJwiAqcWcoY/V/d6jhYUIP6QupR8Bmgw
uaHN1vDsi7L5csOsfgXIaNffLDjjj3b2anqkRKB9mn7ZE5/aCdaPQD4tnk8dY6XJ
94OaqZhIAKLZCoszu47nrQQy+/OYiRXIWnbBY5g62jYxgqC5Z+QRfg4Qlq3F154b
K0a4MnAwWPHpPOi5+IC6gsuGiZYS63uny7Rs45Xoeh4DX0Rmd5BcMrdgpAZrQ7t6
Z9saHxCQwSVdJbLR1NKz1pXCNWo79wURcrI0WPmymjOOTNW9pPV6ECqOB1iarAcY
-----END CERTIFICATE-----
