Certificate:
    Data:
        Version: 3 (0x2)
        Serial Number:
            16:40:81:56:a5:f6:9b:f3:8a:e3:80:3d:bb:6c:14:92
        Signature Algorithm: sha256WithRSAEncryption
        Issuer: CN=team718-net
        Validity
            Not Before: Sep 13 04:57:57 2021 GMT
            Not After : Aug 28 04:57:57 2024 GMT
        Subject: CN=team718-server
        Subject Public Key Info:
            Public Key Algorithm: rsaEncryption
                RSA Public-Key: (2048 bit)
                Modulus:
                    00:d1:6b:6d:9b:36:a4:3d:01:37:38:c5:8d:97:32:
                    bb:00:ff:0f:1e:28:d7:0d:5d:be:bf:c9:80:74:e2:
                    b7:95:20:91:5e:91:1f:2f:eb:66:06:05:75:3a:28:
                    da:b7:9b:0f:7b:f3:92:0b:82:4b:79:fc:48:cd:23:
                    3a:e9:e4:94:d2:8e:46:59:b9:92:2f:69:91:5e:8c:
                    f6:69:de:57:64:bf:7c:18:20:29:e3:13:7c:59:96:
                    7d:e0:5d:11:c9:e0:9a:ea:9e:6b:e5:57:fd:ba:f8:
                    0b:6f:14:6f:fd:09:6e:e4:30:3d:c4:45:80:bb:14:
                    18:f6:de:ee:90:a0:53:b5:5f:b7:c2:5a:54:00:e1:
                    72:27:d8:d9:a7:a3:a5:62:2d:1e:ad:4b:e1:1e:4f:
                    1e:e6:bf:d0:b0:f9:a0:52:2f:a7:93:95:27:b6:aa:
                    cd:13:f5:7f:a4:05:14:47:f7:03:62:bc:96:e4:3c:
                    48:5e:58:b7:4f:8d:88:b9:b1:03:0c:20:59:9b:d9:
                    ce:66:90:a3:4a:7f:b3:f3:e9:07:13:08:1a:38:98:
                    d1:c0:2e:f9:05:7e:79:59:3b:ae:a5:dd:31:0d:b4:
                    b9:69:0a:4f:09:25:1b:91:60:46:6f:f8:02:7a:c7:
                    ec:dc:38:98:c3:ae:f6:d1:29:13:7b:d3:d9:55:1d:
                    ac:ef
                Exponent: 65537 (0x10001)
        X509v3 extensions:
            X509v3 Basic Constraints: 
                CA:FALSE
            X509v3 Subject Key Identifier: 
                67:7F:F3:0F:CF:2B:08:FA:52:EA:9B:AE:CA:88:08:56:86:D2:CE:44
            X509v3 Authority Key Identifier: 
                keyid:B6:18:0C:4C:84:4C:C2:F3:29:00:40:AF:01:61:55:14:2A:7E:15:00
                DirName:/CN=team718-net
                serial:06:33:0B:A2:73:6B:8C:FF:64:0F:0D:72:57:9C:39:40:E2:14:49:77

            X509v3 Extended Key Usage: 
                TLS Web Server Authentication
            X509v3 Key Usage: 
                Digital Signature, Key Encipherment
            X509v3 Subject Alternative Name: 
                DNS:team718-server
    Signature Algorithm: sha256WithRSAEncryption
         08:c4:d2:1e:e7:f0:be:0b:86:08:aa:5c:98:c5:0d:c4:60:61:
         b8:1f:24:5e:e4:1b:f7:79:cb:fb:cf:c6:db:45:f7:27:9d:92:
         93:4a:e8:04:7f:b3:0a:cc:d0:3d:55:fc:43:9d:b2:c6:f9:f9:
         e6:33:1b:4c:74:63:ec:f0:58:fd:80:65:43:4b:88:52:21:6a:
         dd:7b:05:c6:93:1e:ea:cd:d0:cb:02:57:1c:a0:54:09:13:a9:
         84:44:02:bb:ee:34:b7:20:43:3e:fd:8c:36:f9:8b:50:31:47:
         36:09:65:2b:f3:55:63:33:fa:c8:09:c8:06:5f:ad:73:54:38:
         55:18:c8:fb:71:63:2e:53:41:3c:17:18:df:a3:0e:bc:fa:a2:
         a6:0a:45:60:9c:ce:49:19:72:d5:13:04:7f:a6:0d:a6:3e:e4:
         8b:10:ff:39:50:fc:d2:24:0f:ca:82:68:5b:3a:36:4f:c8:1d:
         01:e6:9d:57:4d:0a:3a:40:de:ec:49:13:9e:2c:b9:f2:24:64:
         56:98:b1:48:a8:52:61:f8:f0:27:26:a8:d0:dc:c3:c3:d6:76:
         71:1f:45:ed:e5:b5:87:fb:50:23:82:73:f9:9f:22:eb:d0:70:
         06:8e:31:b6:aa:5e:7e:2e:56:c2:e3:d8:20:4b:ad:00:d0:c4:
         ea:fb:6d:d3
-----BEGIN CERTIFICATE-----
MIIDdzCCAl+gAwIBAgIQFkCBVqX2m/OK44A9u2wUkjANBgkqhkiG9w0BAQsFADAW
MRQwEgYDVQQDDAt0ZWFtNzE4LW5ldDAeFw0yMTA5MTMwNDU3NTdaFw0yNDA4Mjgw
NDU3NTdaMBkxFzAVBgNVBAMMDnRlYW03MTgtc2VydmVyMIIBIjANBgkqhkiG9w0B
AQEFAAOCAQ8AMIIBCgKCAQEA0WttmzakPQE3OMWNlzK7AP8PHijXDV2+v8mAdOK3
lSCRXpEfL+tmBgV1Oijat5sPe/OSC4JLefxIzSM66eSU0o5GWbmSL2mRXoz2ad5X
ZL98GCAp4xN8WZZ94F0RyeCa6p5r5Vf9uvgLbxRv/Qlu5DA9xEWAuxQY9t7ukKBT
tV+3wlpUAOFyJ9jZp6OlYi0erUvhHk8e5r/QsPmgUi+nk5UntqrNE/V/pAUUR/cD
YryW5DxIXli3T42IubEDDCBZm9nOZpCjSn+z8+kHEwgaOJjRwC75BX55WTuupd0x
DbS5aQpPCSUbkWBGb/gCesfs3DiYw6720SkTe9PZVR2s7wIDAQABo4G9MIG6MAkG
A1UdEwQCMAAwHQYDVR0OBBYEFGd/8w/PKwj6UuqbrsqICFaG0s5EMFEGA1UdIwRK
MEiAFLYYDEyETMLzKQBArwFhVRQqfhUAoRqkGDAWMRQwEgYDVQQDDAt0ZWFtNzE4
LW5ldIIUBjMLonNrjP9kDw1yV5w5QOIUSXcwEwYDVR0lBAwwCgYIKwYBBQUHAwEw
CwYDVR0PBAQDAgWgMBkGA1UdEQQSMBCCDnRlYW03MTgtc2VydmVyMA0GCSqGSIb3
DQEBCwUAA4IBAQAIxNIe5/C+C4YIqlyYxQ3EYGG4HyRe5Bv3ecv7z8bbRfcnnZKT
SugEf7MKzNA9VfxDnbLG+fnmMxtMdGPs8Fj9gGVDS4hSIWrdewXGkx7qzdDLAlcc
oFQJE6mERAK77jS3IEM+/Yw2+YtQMUc2CWUr81VjM/rICcgGX61zVDhVGMj7cWMu
U0E8Fxjfow68+qKmCkVgnM5JGXLVEwR/pg2mPuSLEP85UPzSJA/KgmhbOjZPyB0B
5p1XTQo6QN7sSROeLLnyJGRWmLFIqFJh+PAnJqjQ3MPD1nZxH0Xt5bWH+1AjgnP5
nyLr0HAGjjG2ql5+LlbC49ggS60A0MTq+23T
-----END CERTIFICATE-----
