Certificate:
    Data:
        Version: 3 (0x2)
        Serial Number:
            0a:51:91:22:f8:68:d4:3e:73:76:54:80:79:e0:39:ca
        Signature Algorithm: sha256WithRSAEncryption
        Issuer: CN=team320-net
        Validity
            Not Before: Sep 13 01:38:25 2021 GMT
            Not After : Aug 28 01:38:25 2024 GMT
        Subject: CN=team320-client
        Subject Public Key Info:
            Public Key Algorithm: rsaEncryption
                RSA Public-Key: (2048 bit)
                Modulus:
                    00:a3:00:26:79:e5:95:f0:5c:63:17:7e:65:a6:03:
                    99:a3:5f:23:b7:e8:d8:7a:cd:70:a6:d6:b8:de:bc:
                    71:27:0d:d3:f3:c0:e8:8f:00:0d:d9:d9:2c:bc:96:
                    aa:f1:61:e3:57:39:40:59:74:bd:f4:d0:da:fc:02:
                    98:42:76:5b:6a:a1:02:af:2f:de:cb:85:63:9d:f9:
                    53:e8:eb:a1:df:2b:26:85:12:a6:05:3b:b0:e1:b3:
                    1a:30:e6:19:df:36:26:22:cb:94:c5:e4:1e:f9:6a:
                    a2:4c:e6:8d:b9:33:3f:f2:02:c5:02:b3:a3:c8:56:
                    40:a8:9e:85:aa:61:73:ec:30:6a:f9:f0:a8:ab:67:
                    2e:85:d1:1d:8f:a5:19:56:df:2a:56:a8:85:c6:11:
                    86:a4:15:e8:8e:6f:c8:03:8a:1e:a4:1f:e0:38:0b:
                    93:2b:b1:d6:ff:83:4e:ef:d1:47:f3:be:28:67:fc:
                    33:0f:7c:49:bf:2f:df:b9:2d:7a:7a:e5:64:77:cb:
                    22:37:d2:8c:f4:51:9e:62:8e:9f:07:d4:c7:8d:c3:
                    e0:ec:da:14:58:03:a3:e1:68:79:ab:bb:1b:be:11:
                    87:0a:e8:38:0a:47:ae:2a:a5:e5:9f:a2:2a:b0:bc:
                    d6:11:62:9e:31:53:16:28:c1:45:8d:80:7e:d1:25:
                    2f:81
                Exponent: 65537 (0x10001)
        X509v3 extensions:
            X509v3 Basic Constraints: 
                CA:FALSE
            X509v3 Subject Key Identifier: 
                79:2B:01:DF:97:96:A9:35:49:52:1B:1D:BC:D1:FA:68:E5:73:FA:6E
            X509v3 Authority Key Identifier: 
                keyid:57:8E:46:CE:DB:74:3F:4F:E3:DF:4C:62:AB:76:1E:3F:F0:11:B3:13
                DirName:/CN=team320-net
                serial:51:F8:32:9A:D4:1B:2B:15:14:DC:E2:8E:EE:D0:32:DF:F2:0F:1F:E0

            X509v3 Extended Key Usage: 
                TLS Web Client Authentication
            X509v3 Key Usage: 
                Digital Signature
    Signature Algorithm: sha256WithRSAEncryption
         5e:19:91:65:30:56:32:3d:b6:2c:30:ea:be:38:ed:ce:2e:a7:
         35:2e:30:0b:99:f3:99:77:03:9b:4f:a8:d0:24:36:19:b6:5c:
         0c:83:0b:85:25:5d:dc:ff:2f:3b:66:25:88:4d:ed:79:75:39:
         e5:74:6e:31:71:d1:48:e7:0d:ca:30:fa:1f:6c:40:24:90:35:
         5e:04:b0:7c:87:3e:28:b8:b8:4a:f9:a7:4e:58:cd:61:8f:c9:
         7d:86:5b:ff:03:56:b1:25:c3:12:21:e5:e1:6f:8c:e7:99:5f:
         b0:b0:af:66:ec:bf:62:5c:54:cc:68:43:2d:e2:f2:c6:fd:74:
         2a:30:bd:bd:1a:35:79:83:28:5e:2d:05:2e:08:bb:3c:df:31:
         2a:e5:6c:94:81:52:f3:6c:de:cc:32:85:fd:b9:4f:aa:81:8e:
         46:68:cc:36:cc:37:65:0b:c9:9c:77:3e:ef:fd:9e:3e:74:28:
         77:7b:e9:5d:cf:7c:a0:69:bd:cf:c4:18:ee:b3:83:84:e6:f4:
         8d:ae:44:53:d4:af:ee:00:09:bc:91:1d:b3:80:42:15:8a:da:
         31:e8:bc:a8:bc:3f:3a:6e:61:3a:52:dd:10:ae:7e:48:e6:39:
         a3:0a:52:57:7c:1b:30:8b:de:7f:64:c2:c4:3a:f9:6f:5c:e8:
         5d:67:64:cb
-----BEGIN CERTIFICATE-----
MIIDXDCCAkSgAwIBAgIQClGRIvho1D5zdlSAeeA5yjANBgkqhkiG9w0BAQsFADAW
MRQwEgYDVQQDDAt0ZWFtMzIwLW5ldDAeFw0yMTA5MTMwMTM4MjVaFw0yNDA4Mjgw
MTM4MjVaMBkxFzAVBgNVBAMMDnRlYW0zMjAtY2xpZW50MIIBIjANBgkqhkiG9w0B
AQEFAAOCAQ8AMIIBCgKCAQEAowAmeeWV8FxjF35lpgOZo18jt+jYes1wpta43rxx
Jw3T88DojwAN2dksvJaq8WHjVzlAWXS99NDa/AKYQnZbaqECry/ey4VjnflT6Ouh
3ysmhRKmBTuw4bMaMOYZ3zYmIsuUxeQe+WqiTOaNuTM/8gLFArOjyFZAqJ6FqmFz
7DBq+fCoq2cuhdEdj6UZVt8qVqiFxhGGpBXojm/IA4oepB/gOAuTK7HW/4NO79FH
874oZ/wzD3xJvy/fuS16euVkd8siN9KM9FGeYo6fB9THjcPg7NoUWAOj4Wh5q7sb
vhGHCug4CkeuKqXln6IqsLzWEWKeMVMWKMFFjYB+0SUvgQIDAQABo4GiMIGfMAkG
A1UdEwQCMAAwHQYDVR0OBBYEFHkrAd+Xlqk1SVIbHbzR+mjlc/puMFEGA1UdIwRK
MEiAFFeORs7bdD9P499MYqt2Hj/wEbMToRqkGDAWMRQwEgYDVQQDDAt0ZWFtMzIw
LW5ldIIUUfgymtQbKxUU3OKO7tAy3/IPH+AwEwYDVR0lBAwwCgYIKwYBBQUHAwIw
CwYDVR0PBAQDAgeAMA0GCSqGSIb3DQEBCwUAA4IBAQBeGZFlMFYyPbYsMOq+OO3O
Lqc1LjALmfOZdwObT6jQJDYZtlwMgwuFJV3c/y87ZiWITe15dTnldG4xcdFI5w3K
MPofbEAkkDVeBLB8hz4ouLhK+adOWM1hj8l9hlv/A1axJcMSIeXhb4znmV+wsK9m
7L9iXFTMaEMt4vLG/XQqML29GjV5gyheLQUuCLs83zEq5WyUgVLzbN7MMoX9uU+q
gY5GaMw2zDdlC8mcdz7v/Z4+dCh3e+ldz3ygab3PxBjus4OE5vSNrkRT1K/uAAm8
kR2zgEIVitox6LyovD86bmE6Ut0Qrn5I5jmjClJXfBswi95/ZMLEOvlvXOhdZ2TL
-----END CERTIFICATE-----
