Certificate:
    Data:
        Version: 3 (0x2)
        Serial Number:
            48:67:2e:c7:b3:44:94:55:81:09:a7:a7:cf:47:cb:ba
        Signature Algorithm: sha256WithRSAEncryption
        Issuer: CN=team147-net
        Validity
            Not Before: Sep 13 00:03:48 2021 GMT
            Not After : Aug 28 00:03:48 2024 GMT
        Subject: CN=team147-server
        Subject Public Key Info:
            Public Key Algorithm: rsaEncryption
                RSA Public-Key: (2048 bit)
                Modulus:
                    00:b6:7a:d6:33:54:09:20:75:47:e4:93:44:0d:cc:
                    9f:d9:2e:c0:db:33:45:4a:76:95:e2:2c:f3:1d:08:
                    5c:88:f9:ef:d1:bc:c6:6e:36:52:48:15:f3:ba:9b:
                    ef:29:e6:18:0e:ad:d7:c1:a0:97:1d:dd:ab:c5:df:
                    d9:b5:05:ed:47:6d:39:9a:59:ce:97:43:42:b8:40:
                    93:bb:83:3c:2b:a3:d9:87:44:39:73:30:cb:0c:5b:
                    67:d2:d2:f8:2e:07:a3:23:90:2c:c2:40:bf:ff:53:
                    cc:8b:85:8e:f6:06:ea:23:59:21:2a:56:d5:77:46:
                    66:4f:e4:da:89:d6:a2:4e:9c:02:b9:95:b1:05:f1:
                    21:c6:56:4f:f6:e6:be:3b:47:7b:52:01:90:9d:43:
                    a5:0d:4d:b7:42:cd:a2:b2:e5:6c:d6:c0:f0:1e:a6:
                    cd:ae:7d:14:f4:f3:1b:90:ba:61:25:8b:5c:96:3b:
                    a9:fa:b2:68:1f:b8:0d:3e:a6:61:cd:21:b5:86:29:
                    06:8e:17:6c:68:4a:8f:08:e4:db:fd:49:57:f6:dd:
                    00:78:6b:fe:71:2f:9b:9d:1a:12:95:78:4d:20:e4:
                    ef:3a:4a:56:f7:34:31:e3:8e:87:b4:a4:6a:b3:ec:
                    6d:ef:17:e9:14:a8:9f:7d:d0:28:14:95:37:c0:2e:
                    ff:d5
                Exponent: 65537 (0x10001)
        X509v3 extensions:
            X509v3 Basic Constraints: 
                CA:FALSE
            X509v3 Subject Key Identifier: 
                B3:BA:0A:B4:FF:CC:FD:94:93:23:6C:E2:99:89:94:8E:E5:E9:D7:3A
            X509v3 Authority Key Identifier: 
                keyid:A8:B1:69:BF:62:15:71:79:EC:20:B5:26:9F:06:7E:85:FB:73:E6:B7
                DirName:/CN=team147-net
                serial:42:B9:21:8E:2B:AD:4F:C6:E3:C1:1F:D6:6A:63:4C:C6:A1:65:44:F3

            X509v3 Extended Key Usage: 
                TLS Web Server Authentication
            X509v3 Key Usage: 
                Digital Signature, Key Encipherment
            X509v3 Subject Alternative Name: 
                DNS:team147-server
    Signature Algorithm: sha256WithRSAEncryption
         92:7a:4b:3d:52:59:5a:09:6c:8a:4a:53:ba:1b:09:90:0c:92:
         91:13:29:67:00:ac:eb:5a:8e:10:af:88:a2:3c:ff:9b:3d:b9:
         b8:af:77:e0:25:0e:f0:ad:61:82:b0:da:ca:fa:5e:85:b0:bc:
         3b:3d:69:76:d4:4d:80:2e:8d:f4:97:4e:4a:a1:71:c0:94:c0:
         66:5e:aa:06:86:5e:4e:75:fc:a7:f7:4b:ab:5f:33:00:43:55:
         39:21:98:38:4d:aa:45:a1:be:85:45:b5:9c:43:d4:62:0b:82:
         b5:45:d1:10:8f:9d:b9:b1:67:84:eb:41:9d:c6:e9:ce:cc:89:
         5c:c0:51:69:62:f4:74:05:64:96:fa:f6:79:7f:75:2b:c7:66:
         f0:00:68:40:ed:17:8e:7c:b8:32:31:c5:3b:6f:6c:c4:7f:e4:
         67:1d:c0:37:e9:2d:4d:74:4e:8e:66:4d:f0:92:a7:91:a9:2f:
         92:b6:9f:a8:62:ea:b5:f4:b2:8d:ae:c1:e8:eb:26:ff:6a:44:
         a0:3a:e9:92:6a:ea:06:16:86:03:f2:63:fb:6c:85:a7:41:a2:
         3b:81:fd:f0:2a:49:4f:07:88:86:62:4a:1c:98:fc:23:68:58:
         e9:ea:c3:51:5b:68:2a:d0:cb:f0:a3:91:3a:28:89:34:54:52:
         81:e4:51:12
-----BEGIN CERTIFICATE-----
MIIDdzCCAl+gAwIBAgIQSGcux7NElFWBCaenz0fLujANBgkqhkiG9w0BAQsFADAW
MRQwEgYDVQQDDAt0ZWFtMTQ3LW5ldDAeFw0yMTA5MTMwMDAzNDhaFw0yNDA4Mjgw
MDAzNDhaMBkxFzAVBgNVBAMMDnRlYW0xNDctc2VydmVyMIIBIjANBgkqhkiG9w0B
AQEFAAOCAQ8AMIIBCgKCAQEAtnrWM1QJIHVH5JNEDcyf2S7A2zNFSnaV4izzHQhc
iPnv0bzGbjZSSBXzupvvKeYYDq3XwaCXHd2rxd/ZtQXtR205mlnOl0NCuECTu4M8
K6PZh0Q5czDLDFtn0tL4LgejI5AswkC//1PMi4WO9gbqI1khKlbVd0ZmT+Taidai
TpwCuZWxBfEhxlZP9ua+O0d7UgGQnUOlDU23Qs2isuVs1sDwHqbNrn0U9PMbkLph
JYtcljup+rJoH7gNPqZhzSG1hikGjhdsaEqPCOTb/UlX9t0AeGv+cS+bnRoSlXhN
IOTvOkpW9zQx446HtKRqs+xt7xfpFKiffdAoFJU3wC7/1QIDAQABo4G9MIG6MAkG
A1UdEwQCMAAwHQYDVR0OBBYEFLO6CrT/zP2UkyNs4pmJlI7l6dc6MFEGA1UdIwRK
MEiAFKixab9iFXF57CC1Jp8GfoX7c+a3oRqkGDAWMRQwEgYDVQQDDAt0ZWFtMTQ3
LW5ldIIUQrkhjiutT8bjwR/WamNMxqFlRPMwEwYDVR0lBAwwCgYIKwYBBQUHAwEw
CwYDVR0PBAQDAgWgMBkGA1UdEQQSMBCCDnRlYW0xNDctc2VydmVyMA0GCSqGSIb3
DQEBCwUAA4IBAQCSeks9UllaCWyKSlO6GwmQDJKREylnAKzrWo4Qr4iiPP+bPbm4
r3fgJQ7wrWGCsNrK+l6FsLw7PWl21E2ALo30l05KoXHAlMBmXqoGhl5Odfyn90ur
XzMAQ1U5IZg4TapFob6FRbWcQ9RiC4K1RdEQj525sWeE60GdxunOzIlcwFFpYvR0
BWSW+vZ5f3Urx2bwAGhA7ReOfLgyMcU7b2zEf+RnHcA36S1NdE6OZk3wkqeRqS+S
tp+oYuq19LKNrsHo6yb/akSgOumSauoGFoYD8mP7bIWnQaI7gf3wKklPB4iGYkoc
mPwjaFjp6sNRW2gq0Mvwo5E6KIk0VFKB5FES
-----END CERTIFICATE-----
