Certificate:
    Data:
        Version: 3 (0x2)
        Serial Number:
            12:f6:01:3f:28:0f:aa:0d:db:f9:49:4b:2e:14:14:9d
        Signature Algorithm: sha256WithRSAEncryption
        Issuer: CN=team427-net
        Validity
            Not Before: Sep 13 02:39:28 2021 GMT
            Not After : Aug 28 02:39:28 2024 GMT
        Subject: CN=team427-server
        Subject Public Key Info:
            Public Key Algorithm: rsaEncryption
                RSA Public-Key: (2048 bit)
                Modulus:
                    00:c1:bb:89:3b:70:52:11:5b:0a:13:c4:ee:ec:58:
                    fd:f7:6e:16:e0:96:7a:26:f9:e0:72:e2:c9:79:55:
                    d8:9c:c6:26:5e:c8:a0:69:d0:d7:fe:17:4e:6e:20:
                    78:a1:a4:84:67:ea:d6:a1:34:e6:e1:db:34:29:c8:
                    de:0b:7e:41:30:7b:b9:ce:03:8c:5b:fe:68:38:59:
                    2b:71:00:5f:a6:16:07:02:c3:9c:e7:de:5d:fd:95:
                    af:73:0c:7e:e6:19:29:02:4e:cc:29:5e:1b:3c:ca:
                    b6:14:7b:1a:21:ad:e4:bc:9a:e2:47:40:49:d7:35:
                    ef:f2:6e:ae:6b:87:0a:46:61:9f:86:fb:00:a9:ea:
                    7a:0b:84:15:c0:01:91:6b:74:0d:71:76:83:58:d7:
                    5f:7d:30:9a:e2:7c:46:cc:c3:a1:73:d2:cd:7f:70:
                    2d:e8:d7:a4:6e:ad:15:0a:6c:16:70:9e:50:ae:80:
                    ee:e7:44:bc:0f:11:6a:ba:ca:31:80:5e:e7:12:66:
                    ab:47:02:68:a2:dd:cb:16:3a:49:80:e3:5e:fc:a6:
                    c5:2b:c2:e1:ee:40:50:60:99:f1:d7:61:c7:d1:ef:
                    da:9d:06:0b:5d:80:1e:4c:1d:85:20:a8:3a:da:37:
                    48:b1:39:a1:9c:17:b0:48:4f:0c:df:d4:ce:bd:12:
                    6a:05
                Exponent: 65537 (0x10001)
        X509v3 extensions:
            X509v3 Basic Constraints: 
                CA:FALSE
            X509v3 Subject Key Identifier: 
                27:D5:C1:5D:F2:F5:1A:59:B6:D8:D6:66:1E:B7:7E:D7:E2:6F:84:37
            X509v3 Authority Key Identifier: 
                keyid:8E:52:F9:97:AC:BC:73:59:74:E4:16:2C:05:C6:3F:16:21:40:26:35
                DirName:/CN=team427-net
                serial:66:89:AA:89:76:55:B5:CB:EE:AA:8D:5B:2A:C2:35:7F:C9:89:3A:EE

            X509v3 Extended Key Usage: 
                TLS Web Server Authentication
            X509v3 Key Usage: 
                Digital Signature, Key Encipherment
            X509v3 Subject Alternative Name: 
                DNS:team427-server
    Signature Algorithm: sha256WithRSAEncryption
         58:0f:cd:b8:5f:1c:39:2c:c7:ee:60:7a:b0:73:6d:71:ae:82:
         f8:14:4e:1c:d3:5a:b1:e0:36:b6:9b:72:03:94:eb:5c:02:d1:
         91:f5:98:34:42:d7:ff:8f:c2:0f:bb:df:a5:c2:b8:9b:ea:cd:
         92:d6:93:9d:a5:b5:3a:36:5e:79:6a:ee:7f:b2:ec:85:c4:98:
         45:0d:e4:08:1a:6c:a6:3c:52:88:bc:18:57:2d:27:83:32:1d:
         27:90:9c:ef:8a:ad:ca:af:eb:e6:a8:27:54:1a:4c:5e:25:e0:
         8a:de:6a:7a:f8:d0:fc:52:9a:15:99:34:a9:11:ca:86:3c:b5:
         32:0d:43:eb:ab:b2:cb:f1:59:0c:be:b1:65:6f:cd:e2:39:d6:
         e0:00:dd:7c:77:a4:a3:3c:41:e8:29:be:89:75:af:14:3b:3b:
         5f:9b:9a:7a:34:04:11:97:64:86:61:3b:1f:06:5f:4a:0b:bf:
         21:26:25:c8:6d:c8:37:2c:4c:8f:be:01:46:e3:6f:c5:5a:9a:
         1c:89:97:79:a0:a0:55:e4:f4:ff:4a:90:69:74:40:0a:c9:17:
         1a:62:0d:82:42:00:ac:64:b9:cc:19:c9:c1:a8:0c:90:77:6f:
         e5:d0:f3:90:2f:ae:bd:a0:90:98:ab:e7:32:fe:1b:96:f8:08:
         4e:56:11:5c
-----BEGIN CERTIFICATE-----
MIIDdzCCAl+gAwIBAgIQEvYBPygPqg3b+UlLLhQUnTANBgkqhkiG9w0BAQsFADAW
MRQwEgYDVQQDDAt0ZWFtNDI3LW5ldDAeFw0yMTA5MTMwMjM5MjhaFw0yNDA4Mjgw
MjM5MjhaMBkxFzAVBgNVBAMMDnRlYW00Mjctc2VydmVyMIIBIjANBgkqhkiG9w0B
AQEFAAOCAQ8AMIIBCgKCAQEAwbuJO3BSEVsKE8Tu7Fj9924W4JZ6JvngcuLJeVXY
nMYmXsigadDX/hdObiB4oaSEZ+rWoTTm4ds0KcjeC35BMHu5zgOMW/5oOFkrcQBf
phYHAsOc595d/ZWvcwx+5hkpAk7MKV4bPMq2FHsaIa3kvJriR0BJ1zXv8m6ua4cK
RmGfhvsAqep6C4QVwAGRa3QNcXaDWNdffTCa4nxGzMOhc9LNf3At6Nekbq0VCmwW
cJ5QroDu50S8DxFqusoxgF7nEmarRwJoot3LFjpJgONe/KbFK8Lh7kBQYJnx12HH
0e/anQYLXYAeTB2FIKg62jdIsTmhnBewSE8M39TOvRJqBQIDAQABo4G9MIG6MAkG
A1UdEwQCMAAwHQYDVR0OBBYEFCfVwV3y9RpZttjWZh63ftfib4Q3MFEGA1UdIwRK
MEiAFI5S+ZesvHNZdOQWLAXGPxYhQCY1oRqkGDAWMRQwEgYDVQQDDAt0ZWFtNDI3
LW5ldIIUZomqiXZVtcvuqo1bKsI1f8mJOu4wEwYDVR0lBAwwCgYIKwYBBQUHAwEw
CwYDVR0PBAQDAgWgMBkGA1UdEQQSMBCCDnRlYW00Mjctc2VydmVyMA0GCSqGSIb3
DQEBCwUAA4IBAQBYD824Xxw5LMfuYHqwc21xroL4FE4c01qx4Da2m3IDlOtcAtGR
9Zg0Qtf/j8IPu9+lwrib6s2S1pOdpbU6Nl55au5/suyFxJhFDeQIGmymPFKIvBhX
LSeDMh0nkJzviq3Kr+vmqCdUGkxeJeCK3mp6+ND8UpoVmTSpEcqGPLUyDUPrq7LL
8VkMvrFlb83iOdbgAN18d6SjPEHoKb6Jda8UOztfm5p6NAQRl2SGYTsfBl9KC78h
JiXIbcg3LEyPvgFG42/FWpociZd5oKBV5PT/SpBpdEAKyRcaYg2CQgCsZLnMGcnB
qAyQd2/l0POQL669oJCYq+cy/huW+AhOVhFc
-----END CERTIFICATE-----
