Certificate:
    Data:
        Version: 3 (0x2)
        Serial Number:
            51:ae:ff:d9:6a:2a:d5:9c:c2:73:61:61:85:09:67:08
        Signature Algorithm: sha256WithRSAEncryption
        Issuer: CN=team128-net
        Validity
            Not Before: Sep 12 23:51:24 2021 GMT
            Not After : Aug 27 23:51:24 2024 GMT
        Subject: CN=team128-server
        Subject Public Key Info:
            Public Key Algorithm: rsaEncryption
                RSA Public-Key: (2048 bit)
                Modulus:
                    00:ad:bf:b5:ec:70:4e:df:ba:08:a8:4d:2e:2d:ba:
                    1c:9b:8c:71:78:0e:91:f9:60:8b:a0:ce:ff:ed:f1:
                    45:52:99:74:25:ea:0f:24:c5:cd:9d:f8:31:90:e1:
                    20:91:ba:d9:89:0e:78:fc:08:be:e0:f7:97:a1:81:
                    9e:c4:96:1b:06:cf:2d:92:02:ac:6b:c3:8b:e5:11:
                    a7:15:8b:31:f4:5e:6d:95:76:de:59:22:ea:a0:5d:
                    b5:31:a2:14:3a:8e:1a:03:22:0c:54:c3:66:42:35:
                    cb:4e:27:c6:a9:11:a8:21:a8:bb:05:70:d7:e6:36:
                    f7:fc:38:d6:f0:d3:6a:03:fc:4a:cf:e4:f0:c0:47:
                    60:11:e3:64:d1:24:a7:88:ce:9a:d4:ae:3a:57:2f:
                    ed:69:8a:9d:a7:2e:ae:7c:7d:e5:68:bf:fc:99:a7:
                    99:e5:88:b7:9c:d2:2b:26:3b:a8:73:6c:d1:12:67:
                    1e:16:fa:ba:24:7e:da:53:40:4a:ad:ef:84:b3:cb:
                    77:81:1b:2f:ba:53:50:bc:8d:98:d7:fd:71:e0:1b:
                    67:01:06:f7:87:7a:7a:2f:68:64:3e:e4:a4:01:7c:
                    5f:03:40:85:18:05:5f:7f:b7:3e:65:0b:ef:2b:79:
                    c9:11:70:07:4d:cc:dd:d5:f1:34:f3:41:f4:64:25:
                    4e:db
                Exponent: 65537 (0x10001)
        X509v3 extensions:
            X509v3 Basic Constraints: 
                CA:FALSE
            X509v3 Subject Key Identifier: 
                CE:A7:16:E5:08:40:B1:12:C4:3D:E8:09:A9:F8:13:07:E2:3F:C4:E3
            X509v3 Authority Key Identifier: 
                keyid:14:F4:A8:F9:28:4A:52:C7:F3:94:E8:DA:34:7C:B4:40:2B:D3:52:70
                DirName:/CN=team128-net
                serial:23:C1:76:48:8A:9E:A9:50:95:64:54:D6:DD:1F:71:8B:93:75:F8:75

            X509v3 Extended Key Usage: 
                TLS Web Server Authentication
            X509v3 Key Usage: 
                Digital Signature, Key Encipherment
            X509v3 Subject Alternative Name: 
                DNS:team128-server
    Signature Algorithm: sha256WithRSAEncryption
         90:ea:41:39:ca:af:7a:15:c4:41:33:4f:17:6d:a4:62:8f:45:
         9b:7e:d1:07:ae:2a:b4:d5:93:db:16:57:b9:b6:0c:50:8f:a0:
         86:c4:be:4b:8c:8f:fb:ee:9c:da:4d:a7:83:ca:94:07:b3:0f:
         28:90:d3:34:1a:c3:f8:0c:c0:1c:c0:03:af:b4:3e:a9:8e:54:
         fa:89:a0:bf:44:9f:3f:d9:72:01:75:ac:39:81:f5:ba:d4:3e:
         d3:79:43:15:35:3d:9e:0e:3d:0a:09:94:78:7d:78:5f:b4:c2:
         6b:eb:29:fa:a2:a0:e1:e3:46:54:40:eb:4c:80:b5:07:c9:1b:
         2a:05:e0:5b:7d:b6:26:e4:04:ae:e6:73:63:4f:31:c7:b8:81:
         64:30:5b:fd:22:7a:ff:4f:8b:61:e6:a2:eb:28:cc:ee:83:50:
         00:a7:97:cd:45:6d:57:9e:d0:ed:47:40:99:e6:f4:50:47:5a:
         d5:d1:a1:a3:a9:ff:8c:a2:3b:30:bf:2c:49:fe:3c:ac:1c:22:
         30:15:9f:10:87:f7:92:e1:b5:dd:c3:99:94:ca:c8:96:7c:d5:
         38:84:bb:f9:44:07:3e:bc:7b:8d:11:75:ba:e1:51:3b:f0:b1:
         90:b0:4b:7a:7f:25:e1:d4:9e:d3:83:69:1b:d9:14:9a:c4:a6:
         f3:10:b1:7b
-----BEGIN CERTIFICATE-----
MIIDdzCCAl+gAwIBAgIQUa7/2Woq1ZzCc2FhhQlnCDANBgkqhkiG9w0BAQsFADAW
MRQwEgYDVQQDDAt0ZWFtMTI4LW5ldDAeFw0yMTA5MTIyMzUxMjRaFw0yNDA4Mjcy
MzUxMjRaMBkxFzAVBgNVBAMMDnRlYW0xMjgtc2VydmVyMIIBIjANBgkqhkiG9w0B
AQEFAAOCAQ8AMIIBCgKCAQEArb+17HBO37oIqE0uLbocm4xxeA6R+WCLoM7/7fFF
Upl0JeoPJMXNnfgxkOEgkbrZiQ54/Ai+4PeXoYGexJYbBs8tkgKsa8OL5RGnFYsx
9F5tlXbeWSLqoF21MaIUOo4aAyIMVMNmQjXLTifGqRGoIai7BXDX5jb3/DjW8NNq
A/xKz+TwwEdgEeNk0SSniM6a1K46Vy/taYqdpy6ufH3laL/8maeZ5Yi3nNIrJjuo
c2zREmceFvq6JH7aU0BKre+Es8t3gRsvulNQvI2Y1/1x4BtnAQb3h3p6L2hkPuSk
AXxfA0CFGAVff7c+ZQvvK3nJEXAHTczd1fE080H0ZCVO2wIDAQABo4G9MIG6MAkG
A1UdEwQCMAAwHQYDVR0OBBYEFM6nFuUIQLESxD3oCan4EwfiP8TjMFEGA1UdIwRK
MEiAFBT0qPkoSlLH85To2jR8tEAr01JwoRqkGDAWMRQwEgYDVQQDDAt0ZWFtMTI4
LW5ldIIUI8F2SIqeqVCVZFTW3R9xi5N1+HUwEwYDVR0lBAwwCgYIKwYBBQUHAwEw
CwYDVR0PBAQDAgWgMBkGA1UdEQQSMBCCDnRlYW0xMjgtc2VydmVyMA0GCSqGSIb3
DQEBCwUAA4IBAQCQ6kE5yq96FcRBM08XbaRij0WbftEHriq01ZPbFle5tgxQj6CG
xL5LjI/77pzaTaeDypQHsw8okNM0GsP4DMAcwAOvtD6pjlT6iaC/RJ8/2XIBdaw5
gfW61D7TeUMVNT2eDj0KCZR4fXhftMJr6yn6oqDh40ZUQOtMgLUHyRsqBeBbfbYm
5ASu5nNjTzHHuIFkMFv9Inr/T4th5qLrKMzug1AAp5fNRW1XntDtR0CZ5vRQR1rV
0aGjqf+MojswvyxJ/jysHCIwFZ8Qh/eS4bXdw5mUysiWfNU4hLv5RAc+vHuNEXW6
4VE78LGQsEt6fyXh1J7Tg2kb2RSaxKbzELF7
-----END CERTIFICATE-----
