Certificate:
    Data:
        Version: 3 (0x2)
        Serial Number:
            37:84:92:3b:b4:5e:64:a4:87:64:b0:71:38:36:aa:19
        Signature Algorithm: sha256WithRSAEncryption
        Issuer: CN=team683-net
        Validity
            Not Before: Sep 13 05:09:17 2021 GMT
            Not After : Aug 28 05:09:17 2024 GMT
        Subject: CN=team683-server
        Subject Public Key Info:
            Public Key Algorithm: rsaEncryption
                RSA Public-Key: (2048 bit)
                Modulus:
                    00:ac:a3:90:b7:14:77:f7:47:e4:90:eb:e7:fb:dd:
                    f1:b6:a0:45:22:a6:6b:28:81:f8:1f:49:f3:0a:f5:
                    1c:93:3f:df:f2:b9:02:94:46:80:73:30:73:48:1e:
                    6f:21:b7:0e:ee:54:da:60:76:d4:7a:0e:88:a2:61:
                    48:b7:b4:65:e2:fa:8b:a9:e0:59:ec:a3:3b:b2:55:
                    5d:33:8e:eb:f9:e3:e4:7f:45:0c:44:af:da:b4:48:
                    9e:8c:21:15:62:44:34:1c:c6:05:96:1e:dc:ed:6d:
                    64:c9:94:cb:13:29:78:c4:c3:a4:09:29:ff:9c:73:
                    67:ce:af:1c:af:09:8a:fc:1e:89:52:23:92:ee:85:
                    17:ba:26:ec:70:b0:85:8b:8d:92:87:e4:cf:60:d1:
                    6e:5c:f6:81:45:90:0b:cb:de:5d:df:b0:e8:50:46:
                    cc:aa:d2:e9:e8:2d:e6:07:36:5c:1c:a3:fe:a1:d3:
                    e8:11:9c:87:f0:0b:1a:92:f1:c5:e6:99:ef:ca:9e:
                    75:93:ab:6d:cf:24:f0:a0:07:0c:cc:f1:43:bd:36:
                    53:a1:93:f1:1f:06:64:31:cd:ee:88:3b:3c:7e:26:
                    3a:5c:36:84:31:a6:9d:73:40:63:fd:70:c2:05:01:
                    6b:03:94:ee:cf:0e:8e:8a:22:b8:d7:69:26:e8:6d:
                    e4:41
                Exponent: 65537 (0x10001)
        X509v3 extensions:
            X509v3 Basic Constraints: 
                CA:FALSE
            X509v3 Subject Key Identifier: 
                56:96:36:5D:64:6D:10:5D:D1:98:92:76:D3:0D:44:74:18:78:A1:40
            X509v3 Authority Key Identifier: 
                keyid:D0:63:3E:E5:D2:9F:51:46:53:5C:32:6D:33:F1:89:F3:9D:42:F4:AE
                DirName:/CN=team683-net
                serial:51:45:D6:D4:1A:D1:20:8A:53:8B:3D:02:BF:39:DB:0A:AD:EF:23:6E

            X509v3 Extended Key Usage: 
                TLS Web Server Authentication
            X509v3 Key Usage: 
                Digital Signature, Key Encipherment
            X509v3 Subject Alternative Name: 
                DNS:team683-server
    Signature Algorithm: sha256WithRSAEncryption
         c4:8d:c5:84:50:79:7e:d5:2b:4b:e3:55:33:e1:72:d1:11:65:
         aa:56:34:df:3b:12:da:38:5f:f3:c4:67:08:a1:d1:0a:83:cb:
         80:37:8d:b2:a1:b2:80:b4:54:bf:91:0a:f6:39:e5:f7:0e:1b:
         ca:7f:f5:92:83:b9:fb:15:a1:c5:04:22:39:09:9e:34:cc:ab:
         0d:63:0f:8f:2d:0d:ef:e5:f7:fd:40:5a:23:b8:1e:f0:9c:6e:
         59:71:cf:1e:d7:cf:e3:b0:b1:f5:39:2f:a4:db:26:fa:8a:43:
         17:55:4e:eb:d4:8a:b2:01:5f:52:7a:6a:29:b7:cd:e7:95:2d:
         9f:96:86:83:6b:00:60:90:ca:53:4a:9e:76:f4:40:4e:24:3c:
         ec:cc:44:03:d5:b8:62:de:ce:2b:4a:b4:b9:15:ff:4a:f6:22:
         39:7f:f9:dd:42:4c:35:cc:a1:ac:b5:66:8a:c6:26:09:a6:69:
         73:fb:19:74:b7:aa:fd:50:af:05:70:52:8f:39:d6:02:73:3d:
         bf:d2:9a:8b:ee:5d:dd:14:62:55:31:3e:27:0c:e1:62:35:ac:
         d7:c7:e1:1e:1e:e4:00:27:9b:62:ed:6d:ac:cd:c2:18:77:4c:
         6b:40:dd:4e:24:32:37:44:76:3f:fb:06:de:3d:03:0f:49:17:
         8b:6c:80:49
-----BEGIN CERTIFICATE-----
MIIDdzCCAl+gAwIBAgIQN4SSO7ReZKSHZLBxODaqGTANBgkqhkiG9w0BAQsFADAW
MRQwEgYDVQQDDAt0ZWFtNjgzLW5ldDAeFw0yMTA5MTMwNTA5MTdaFw0yNDA4Mjgw
NTA5MTdaMBkxFzAVBgNVBAMMDnRlYW02ODMtc2VydmVyMIIBIjANBgkqhkiG9w0B
AQEFAAOCAQ8AMIIBCgKCAQEArKOQtxR390fkkOvn+93xtqBFIqZrKIH4H0nzCvUc
kz/f8rkClEaAczBzSB5vIbcO7lTaYHbUeg6IomFIt7Rl4vqLqeBZ7KM7slVdM47r
+ePkf0UMRK/atEiejCEVYkQ0HMYFlh7c7W1kyZTLEyl4xMOkCSn/nHNnzq8crwmK
/B6JUiOS7oUXuibscLCFi42Sh+TPYNFuXPaBRZALy95d37DoUEbMqtLp6C3mBzZc
HKP+odPoEZyH8AsakvHF5pnvyp51k6ttzyTwoAcMzPFDvTZToZPxHwZkMc3uiDs8
fiY6XDaEMaadc0Bj/XDCBQFrA5Tuzw6OiiK412km6G3kQQIDAQABo4G9MIG6MAkG
A1UdEwQCMAAwHQYDVR0OBBYEFFaWNl1kbRBd0ZiSdtMNRHQYeKFAMFEGA1UdIwRK
MEiAFNBjPuXSn1FGU1wybTPxifOdQvSuoRqkGDAWMRQwEgYDVQQDDAt0ZWFtNjgz
LW5ldIIUUUXW1BrRIIpTiz0CvznbCq3vI24wEwYDVR0lBAwwCgYIKwYBBQUHAwEw
CwYDVR0PBAQDAgWgMBkGA1UdEQQSMBCCDnRlYW02ODMtc2VydmVyMA0GCSqGSIb3
DQEBCwUAA4IBAQDEjcWEUHl+1StL41Uz4XLREWWqVjTfOxLaOF/zxGcIodEKg8uA
N42yobKAtFS/kQr2OeX3DhvKf/WSg7n7FaHFBCI5CZ40zKsNYw+PLQ3v5ff9QFoj
uB7wnG5Zcc8e18/jsLH1OS+k2yb6ikMXVU7r1IqyAV9Semopt83nlS2floaDawBg
kMpTSp529EBOJDzszEQD1bhi3s4rSrS5Ff9K9iI5f/ndQkw1zKGstWaKxiYJpmlz
+xl0t6r9UK8FcFKPOdYCcz2/0pqL7l3dFGJVMT4nDOFiNazXx+EeHuQAJ5ti7W2s
zcIYd0xrQN1OJDI3RHY/+wbePQMPSReLbIBJ
-----END CERTIFICATE-----
