Certificate:
    Data:
        Version: 3 (0x2)
        Serial Number:
            8d:33:39:79:16:38:50:b4:ac:c6:10:a0:61:04:58:0f
        Signature Algorithm: sha256WithRSAEncryption
        Issuer: CN=team617-net
        Validity
            Not Before: Sep 13 04:30:46 2021 GMT
            Not After : Aug 28 04:30:46 2024 GMT
        Subject: CN=team617-server
        Subject Public Key Info:
            Public Key Algorithm: rsaEncryption
                RSA Public-Key: (2048 bit)
                Modulus:
                    00:b6:88:a0:00:45:83:4d:65:3d:eb:ed:cc:d8:45:
                    5f:59:84:aa:d4:27:37:af:3f:bd:c8:d7:4d:cb:46:
                    50:2c:d5:37:9f:15:d8:de:d6:5a:92:35:ce:8d:27:
                    4b:72:31:78:16:e4:7d:e7:9e:5b:2d:c9:26:59:3b:
                    76:fb:a3:17:9e:dc:15:db:8a:af:73:ee:d8:f0:43:
                    cb:ce:a4:c9:fe:17:28:a8:2a:4e:80:8d:c2:a2:bb:
                    c4:ab:3c:26:72:e4:a1:58:f0:2b:a2:29:c8:9a:29:
                    e1:e6:d4:9c:13:8e:04:71:93:f2:bf:66:e5:ff:a3:
                    16:50:be:a4:31:7f:5f:09:96:1d:0f:1f:0f:b9:ae:
                    59:aa:19:de:b6:d5:ac:e5:04:ce:7f:af:28:f6:73:
                    10:cf:62:fd:f8:de:b2:57:2d:37:ce:52:31:c9:24:
                    87:7c:78:c4:79:5f:8e:6b:8f:bb:28:9d:6b:aa:ea:
                    91:6b:0a:06:5b:fe:6e:f3:db:40:04:1f:c8:25:c1:
                    7c:62:d2:48:ef:d3:30:d8:d6:da:b4:da:d1:73:9a:
                    3e:70:52:9d:ff:6a:9c:1f:02:03:23:13:30:a9:f5:
                    e6:f4:09:06:4c:ce:1b:fe:6e:89:db:9c:7f:33:0e:
                    4b:46:a6:3d:9d:f6:fe:49:3f:1d:0a:02:dc:71:a9:
                    6d:5b
                Exponent: 65537 (0x10001)
        X509v3 extensions:
            X509v3 Basic Constraints: 
                CA:FALSE
            X509v3 Subject Key Identifier: 
                1C:02:BE:F4:14:1E:F2:1B:EE:00:EF:ED:CA:C2:B5:88:04:89:4C:22
            X509v3 Authority Key Identifier: 
                keyid:0E:11:FC:0A:BF:4C:9C:28:CE:0F:CA:93:BB:1A:9C:A1:F6:8B:33:62
                DirName:/CN=team617-net
                serial:3A:49:EC:1C:F2:FA:2A:A4:0F:9D:AB:80:B6:18:C8:8A:99:EA:79:0E

            X509v3 Extended Key Usage: 
                TLS Web Server Authentication
            X509v3 Key Usage: 
                Digital Signature, Key Encipherment
            X509v3 Subject Alternative Name: 
                DNS:team617-server
    Signature Algorithm: sha256WithRSAEncryption
         33:d6:94:8f:74:21:17:ad:22:00:89:6e:6c:51:32:e2:b9:29:
         b0:c4:0f:51:21:22:d9:b4:e4:16:52:da:b7:9c:a3:4d:4f:d8:
         9d:36:2c:14:63:d8:d6:1f:c8:cb:3b:41:f4:8e:b0:4c:02:e8:
         2c:3f:26:eb:9d:30:43:e1:e2:18:20:31:1e:63:9d:e7:91:a6:
         eb:b6:4b:1c:a2:38:5d:59:45:2e:3c:7e:bb:94:08:e2:6e:69:
         dc:8b:bf:be:65:50:e4:54:50:73:54:71:ae:d8:65:ce:a9:eb:
         9c:53:70:31:62:7e:3b:cc:ea:1d:02:e4:33:91:9d:b6:28:28:
         3c:b6:cd:8f:a0:6c:24:52:d3:1a:18:6b:2a:89:de:d8:a9:35:
         5d:c2:f4:0b:0f:87:56:f1:f6:50:fd:16:ef:b2:df:13:a1:dc:
         af:1b:42:3d:e5:4a:79:3f:30:68:89:0f:79:a0:96:e6:bc:d1:
         64:1e:77:14:64:95:c9:67:59:db:4f:65:8a:fd:52:34:f7:c5:
         9b:11:a6:08:cb:6d:9c:7b:f9:05:3b:c2:d9:07:43:ba:3f:59:
         02:6b:2d:23:27:5a:83:cf:59:29:81:b0:95:3f:9b:e1:e2:50:
         ff:67:a9:5b:cc:dd:ec:e4:5d:6c:e3:74:fa:96:b7:12:eb:03:
         2a:fa:de:98
-----BEGIN CERTIFICATE-----
MIIDeDCCAmCgAwIBAgIRAI0zOXkWOFC0rMYQoGEEWA8wDQYJKoZIhvcNAQELBQAw
FjEUMBIGA1UEAwwLdGVhbTYxNy1uZXQwHhcNMjEwOTEzMDQzMDQ2WhcNMjQwODI4
MDQzMDQ2WjAZMRcwFQYDVQQDDA50ZWFtNjE3LXNlcnZlcjCCASIwDQYJKoZIhvcN
AQEBBQADggEPADCCAQoCggEBALaIoABFg01lPevtzNhFX1mEqtQnN68/vcjXTctG
UCzVN58V2N7WWpI1zo0nS3IxeBbkfeeeWy3JJlk7dvujF57cFduKr3Pu2PBDy86k
yf4XKKgqToCNwqK7xKs8JnLkoVjwK6IpyJop4ebUnBOOBHGT8r9m5f+jFlC+pDF/
XwmWHQ8fD7muWaoZ3rbVrOUEzn+vKPZzEM9i/fjeslctN85SMckkh3x4xHlfjmuP
uyida6rqkWsKBlv+bvPbQAQfyCXBfGLSSO/TMNjW2rTa0XOaPnBSnf9qnB8CAyMT
MKn15vQJBkzOG/5uiducfzMOS0amPZ32/kk/HQoC3HGpbVsCAwEAAaOBvTCBujAJ
BgNVHRMEAjAAMB0GA1UdDgQWBBQcAr70FB7yG+4A7+3KwrWIBIlMIjBRBgNVHSME
SjBIgBQOEfwKv0ycKM4PypO7Gpyh9oszYqEapBgwFjEUMBIGA1UEAwwLdGVhbTYx
Ny1uZXSCFDpJ7Bzy+iqkD52rgLYYyIqZ6nkOMBMGA1UdJQQMMAoGCCsGAQUFBwMB
MAsGA1UdDwQEAwIFoDAZBgNVHREEEjAQgg50ZWFtNjE3LXNlcnZlcjANBgkqhkiG
9w0BAQsFAAOCAQEAM9aUj3QhF60iAIlubFEy4rkpsMQPUSEi2bTkFlLat5yjTU/Y
nTYsFGPY1h/IyztB9I6wTALoLD8m650wQ+HiGCAxHmOd55Gm67ZLHKI4XVlFLjx+
u5QI4m5p3Iu/vmVQ5FRQc1RxrthlzqnrnFNwMWJ+O8zqHQLkM5GdtigoPLbNj6Bs
JFLTGhhrKone2Kk1XcL0Cw+HVvH2UP0W77LfE6HcrxtCPeVKeT8waIkPeaCW5rzR
ZB53FGSVyWdZ209liv1SNPfFmxGmCMttnHv5BTvC2QdDuj9ZAmstIydag89ZKYGw
lT+b4eJQ/2epW8zd7ORdbON0+pa3EusDKvremA==
-----END CERTIFICATE-----
