Certificate:
    Data:
        Version: 3 (0x2)
        Serial Number:
            1b:05:d2:83:24:54:44:89:f4:af:f2:c9:5f:e3:b7:5d
        Signature Algorithm: sha256WithRSAEncryption
        Issuer: CN=team136-net
        Validity
            Not Before: Sep 12 23:57:22 2021 GMT
            Not After : Aug 27 23:57:22 2024 GMT
        Subject: CN=team136-server
        Subject Public Key Info:
            Public Key Algorithm: rsaEncryption
                RSA Public-Key: (2048 bit)
                Modulus:
                    00:c2:98:67:6f:96:07:21:8f:11:78:6f:8d:ed:95:
                    d1:b6:1b:38:a9:b5:ea:37:bc:47:13:ed:ab:61:dc:
                    b4:97:ff:ab:d3:5e:52:ea:11:62:d2:87:48:6a:9b:
                    fc:81:86:0a:10:17:99:a1:c6:62:70:a9:29:b4:cc:
                    d1:39:d5:2e:ac:95:5e:16:a1:71:3f:86:c6:d3:19:
                    7f:01:9e:dc:46:c9:d9:ad:b8:d2:39:96:ae:9c:12:
                    b8:37:17:2d:5a:d0:dc:0a:3b:63:57:38:41:59:34:
                    c5:a3:44:e0:f5:bf:90:8c:7a:1f:84:63:8d:74:04:
                    49:3a:7b:18:9c:e8:7d:ae:40:40:20:a1:af:3e:4d:
                    50:1d:31:04:10:c8:d0:af:8d:79:d7:a9:b2:8b:a0:
                    31:99:89:7f:fb:38:7f:5b:53:a6:b3:b0:77:ae:6c:
                    20:34:d0:c0:d8:1f:8f:08:cd:c2:49:a5:97:26:d2:
                    48:50:59:aa:ab:85:bf:3f:49:ef:9e:3e:0f:88:4d:
                    ff:84:17:b8:10:ab:70:47:cc:2e:54:d4:1b:4d:e5:
                    0c:41:a7:ec:b9:69:7e:2f:52:79:69:de:00:f2:29:
                    fb:99:15:ff:f5:a9:df:0d:89:ff:75:11:3f:14:6c:
                    8f:eb:76:8c:54:3b:7a:11:07:ad:6a:6f:87:d5:89:
                    2e:47
                Exponent: 65537 (0x10001)
        X509v3 extensions:
            X509v3 Basic Constraints: 
                CA:FALSE
            X509v3 Subject Key Identifier: 
                59:3C:B8:A7:A5:E7:58:12:F1:A9:48:85:F8:83:7D:19:BF:55:B4:BF
            X509v3 Authority Key Identifier: 
                keyid:BE:76:DF:15:B4:1F:74:5A:EF:33:B3:15:AE:8A:62:85:BF:C8:E0:4D
                DirName:/CN=team136-net
                serial:79:AA:9F:67:F0:42:99:EE:66:30:07:E3:38:B6:D0:C7:E9:81:43:ED

            X509v3 Extended Key Usage: 
                TLS Web Server Authentication
            X509v3 Key Usage: 
                Digital Signature, Key Encipherment
            X509v3 Subject Alternative Name: 
                DNS:team136-server
    Signature Algorithm: sha256WithRSAEncryption
         0e:48:61:cb:29:af:a4:53:9c:3d:25:53:f2:e0:29:42:8b:d6:
         ce:5f:1c:4f:88:26:d7:fa:33:23:32:8e:e9:d1:8e:96:b5:c3:
         74:a5:36:92:56:71:53:a5:e5:b6:94:9b:02:a7:6e:23:70:11:
         9d:f9:55:c1:11:db:75:cd:c2:51:96:46:56:68:31:3d:6d:77:
         3b:e6:06:58:d3:cf:83:3b:74:2e:31:e9:53:e0:d4:ca:c3:67:
         74:fc:bd:f6:6f:30:4a:6c:d1:f3:99:fb:fc:e6:f4:19:c6:5e:
         c8:5e:5e:78:d6:48:91:04:1a:14:fa:f6:cf:a6:83:80:38:cf:
         87:02:12:6e:c2:f8:1e:c0:6d:6f:94:a6:dc:26:86:8c:ae:79:
         38:1b:8c:37:e9:ed:4c:61:45:22:ed:87:e3:e7:11:c3:5a:f8:
         c3:bf:67:5e:f1:d0:d6:b3:9f:b6:71:1f:97:9c:39:a0:66:97:
         19:d9:36:77:01:7d:e2:b7:a5:48:d5:05:4b:42:04:85:07:06:
         0d:05:88:61:9e:93:4e:3f:71:9e:5c:14:76:ec:59:fc:18:a5:
         0f:64:bd:b8:33:6f:26:26:ed:5a:98:bb:f9:c3:cf:5d:eb:b4:
         f4:54:46:86:fe:b6:e5:b2:f6:24:74:b9:a0:22:3b:79:87:39:
         ce:2f:16:d4
-----BEGIN CERTIFICATE-----
MIIDdzCCAl+gAwIBAgIQGwXSgyRURIn0r/LJX+O3XTANBgkqhkiG9w0BAQsFADAW
MRQwEgYDVQQDDAt0ZWFtMTM2LW5ldDAeFw0yMTA5MTIyMzU3MjJaFw0yNDA4Mjcy
MzU3MjJaMBkxFzAVBgNVBAMMDnRlYW0xMzYtc2VydmVyMIIBIjANBgkqhkiG9w0B
AQEFAAOCAQ8AMIIBCgKCAQEAwphnb5YHIY8ReG+N7ZXRths4qbXqN7xHE+2rYdy0
l/+r015S6hFi0odIapv8gYYKEBeZocZicKkptMzROdUurJVeFqFxP4bG0xl/AZ7c
RsnZrbjSOZaunBK4NxctWtDcCjtjVzhBWTTFo0Tg9b+QjHofhGONdARJOnsYnOh9
rkBAIKGvPk1QHTEEEMjQr41516myi6AxmYl/+zh/W1Oms7B3rmwgNNDA2B+PCM3C
SaWXJtJIUFmqq4W/P0nvnj4PiE3/hBe4EKtwR8wuVNQbTeUMQafsuWl+L1J5ad4A
8in7mRX/9anfDYn/dRE/FGyP63aMVDt6EQetam+H1YkuRwIDAQABo4G9MIG6MAkG
A1UdEwQCMAAwHQYDVR0OBBYEFFk8uKel51gS8alIhfiDfRm/VbS/MFEGA1UdIwRK
MEiAFL523xW0H3Ra7zOzFa6KYoW/yOBNoRqkGDAWMRQwEgYDVQQDDAt0ZWFtMTM2
LW5ldIIUeaqfZ/BCme5mMAfjOLbQx+mBQ+0wEwYDVR0lBAwwCgYIKwYBBQUHAwEw
CwYDVR0PBAQDAgWgMBkGA1UdEQQSMBCCDnRlYW0xMzYtc2VydmVyMA0GCSqGSIb3
DQEBCwUAA4IBAQAOSGHLKa+kU5w9JVPy4ClCi9bOXxxPiCbX+jMjMo7p0Y6WtcN0
pTaSVnFTpeW2lJsCp24jcBGd+VXBEdt1zcJRlkZWaDE9bXc75gZY08+DO3QuMelT
4NTKw2d0/L32bzBKbNHzmfv85vQZxl7IXl541kiRBBoU+vbPpoOAOM+HAhJuwvge
wG1vlKbcJoaMrnk4G4w36e1MYUUi7Yfj5xHDWvjDv2de8dDWs5+2cR+XnDmgZpcZ
2TZ3AX3it6VI1QVLQgSFBwYNBYhhnpNOP3GeXBR27Fn8GKUPZL24M28mJu1amLv5
w89d67T0VEaG/rblsvYkdLmgIjt5hznOLxbU
-----END CERTIFICATE-----
