Certificate:
    Data:
        Version: 3 (0x2)
        Serial Number:
            84:3e:13:d2:42:6e:6b:00:d8:d4:d4:10:0e:71:ca:96
        Signature Algorithm: sha256WithRSAEncryption
        Issuer: CN=team95-net
        Validity
            Not Before: Sep 12 23:32:57 2021 GMT
            Not After : Aug 27 23:32:57 2024 GMT
        Subject: CN=team95-server
        Subject Public Key Info:
            Public Key Algorithm: rsaEncryption
                RSA Public-Key: (2048 bit)
                Modulus:
                    00:b6:34:f6:86:c9:27:cd:3c:31:ab:ab:c4:1b:33:
                    f1:60:ce:a6:39:71:39:14:2d:9c:65:21:f4:80:9b:
                    af:44:be:78:4e:2b:66:e6:f6:aa:2b:78:f0:82:0f:
                    7b:32:16:74:ed:9f:b1:44:e7:d2:ec:97:52:46:95:
                    b3:26:86:6b:b3:17:7d:0f:1e:08:6c:a6:67:72:d2:
                    45:4b:fa:98:26:5b:19:be:6d:8a:78:52:62:09:55:
                    8c:8f:2a:22:16:c5:f2:b4:47:d9:0c:53:8f:1e:93:
                    43:27:0d:5f:7e:f7:81:e8:e4:e1:c0:46:25:c4:66:
                    0e:ea:84:6f:5e:a0:9a:8e:80:a2:b8:1b:60:b3:57:
                    51:09:b0:69:6b:6f:09:d9:34:50:7a:bc:7f:4b:35:
                    b3:3b:1e:a1:ac:03:d8:50:d9:e6:ad:de:18:17:97:
                    88:58:e6:58:ce:0e:be:26:99:74:d8:59:06:6f:52:
                    e1:ad:e5:c8:bb:62:11:55:ea:35:2c:25:1d:c1:44:
                    64:db:24:2a:3f:89:fd:a2:9a:dd:64:b1:fc:a3:8b:
                    4e:03:72:af:e4:5e:5d:f3:aa:e9:17:5b:b6:b5:84:
                    45:b1:ca:29:b4:fe:1c:c5:86:11:9b:7f:84:c6:06:
                    72:b1:1d:e0:5d:ba:cb:e0:42:89:ea:b5:86:83:f9:
                    c3:73
                Exponent: 65537 (0x10001)
        X509v3 extensions:
            X509v3 Basic Constraints: 
                CA:FALSE
            X509v3 Subject Key Identifier: 
                EB:A3:47:BE:93:83:83:C8:3C:2C:AA:3E:04:CA:7C:6A:57:3C:B5:C0
            X509v3 Authority Key Identifier: 
                keyid:9E:57:C3:FB:62:F3:83:53:E1:55:17:24:51:FF:E0:EC:BB:23:13:AF
                DirName:/CN=team95-net
                serial:5A:68:BB:6D:3A:68:BF:0B:4F:59:6A:28:5A:7D:5A:64:66:B8:18:41

            X509v3 Extended Key Usage: 
                TLS Web Server Authentication
            X509v3 Key Usage: 
                Digital Signature, Key Encipherment
            X509v3 Subject Alternative Name: 
                DNS:team95-server
    Signature Algorithm: sha256WithRSAEncryption
         89:8d:b5:17:29:27:f1:a9:03:51:57:27:f1:2d:8d:dd:8f:c8:
         e2:2e:7f:26:a8:58:f7:31:bf:a3:0f:e8:a2:77:b8:67:b3:cc:
         76:8e:fc:23:80:c4:61:c5:d2:cd:9e:7a:66:a3:cf:19:d1:68:
         f1:1c:9f:a3:e7:99:a1:52:4d:34:41:1e:d4:39:24:b2:0b:48:
         86:be:83:f0:f0:b6:07:c3:dd:6d:fe:cc:60:8e:83:75:89:82:
         bc:1a:72:1e:e1:41:09:ac:43:5b:7f:bc:67:f9:c1:8f:a6:82:
         f3:32:52:38:e5:60:0f:01:ac:74:0d:4f:7e:6b:4b:4d:af:f5:
         dc:63:4c:8f:41:33:42:4b:24:93:07:62:c1:40:3f:f5:24:41:
         3f:87:95:b7:73:82:d7:69:b9:fc:4c:fe:8b:4b:b7:78:27:1b:
         88:0a:c5:30:ae:c4:a2:7c:19:56:ea:b0:53:3b:2e:03:b8:ff:
         69:4a:70:50:9b:1a:0d:1a:47:86:f0:7a:e3:a1:1a:72:7e:fe:
         47:06:01:9f:0b:c9:85:0b:53:99:8c:92:1e:09:68:14:7d:80:
         a5:87:71:8d:86:c7:e3:3a:29:e0:a9:6b:5c:2a:fb:a5:5a:d9:
         09:89:b3:90:a2:56:68:c1:c0:6a:8b:a7:c0:e6:d4:fc:7a:83:
         f0:18:de:09
-----BEGIN CERTIFICATE-----
MIIDdDCCAlygAwIBAgIRAIQ+E9JCbmsA2NTUEA5xypYwDQYJKoZIhvcNAQELBQAw
FTETMBEGA1UEAwwKdGVhbTk1LW5ldDAeFw0yMTA5MTIyMzMyNTdaFw0yNDA4Mjcy
MzMyNTdaMBgxFjAUBgNVBAMMDXRlYW05NS1zZXJ2ZXIwggEiMA0GCSqGSIb3DQEB
AQUAA4IBDwAwggEKAoIBAQC2NPaGySfNPDGrq8QbM/FgzqY5cTkULZxlIfSAm69E
vnhOK2bm9qorePCCD3syFnTtn7FE59Lsl1JGlbMmhmuzF30PHghspmdy0kVL+pgm
Wxm+bYp4UmIJVYyPKiIWxfK0R9kMU48ek0MnDV9+94Ho5OHARiXEZg7qhG9eoJqO
gKK4G2CzV1EJsGlrbwnZNFB6vH9LNbM7HqGsA9hQ2eat3hgXl4hY5ljODr4mmXTY
WQZvUuGt5ci7YhFV6jUsJR3BRGTbJCo/if2imt1ksfyji04Dcq/kXl3zqukXW7a1
hEWxyim0/hzFhhGbf4TGBnKxHeBdusvgQonqtYaD+cNzAgMBAAGjgbswgbgwCQYD
VR0TBAIwADAdBgNVHQ4EFgQU66NHvpODg8g8LKo+BMp8alc8tcAwUAYDVR0jBEkw
R4AUnlfD+2Lzg1PhVRckUf/g7LsjE6+hGaQXMBUxEzARBgNVBAMMCnRlYW05NS1u
ZXSCFFpou206aL8LT1lqKFp9WmRmuBhBMBMGA1UdJQQMMAoGCCsGAQUFBwMBMAsG
A1UdDwQEAwIFoDAYBgNVHREEETAPgg10ZWFtOTUtc2VydmVyMA0GCSqGSIb3DQEB
CwUAA4IBAQCJjbUXKSfxqQNRVyfxLY3dj8jiLn8mqFj3Mb+jD+iid7hns8x2jvwj
gMRhxdLNnnpmo88Z0WjxHJ+j55mhUk00QR7UOSSyC0iGvoPw8LYHw91t/sxgjoN1
iYK8GnIe4UEJrENbf7xn+cGPpoLzMlI45WAPAax0DU9+a0tNr/XcY0yPQTNCSyST
B2LBQD/1JEE/h5W3c4LXabn8TP6LS7d4JxuICsUwrsSifBlW6rBTOy4DuP9pSnBQ
mxoNGkeG8HrjoRpyfv5HBgGfC8mFC1OZjJIeCWgUfYClh3GNhsfjOingqWtcKvul
WtkJibOQolZowcBqi6fA5tT8eoPwGN4J
-----END CERTIFICATE-----
