Certificate:
    Data:
        Version: 3 (0x2)
        Serial Number:
            57:61:16:d9:0a:69:5a:43:8c:dd:e0:4a:0f:72:f7:22
        Signature Algorithm: sha256WithRSAEncryption
        Issuer: CN=team385-net
        Validity
            Not Before: Sep 13 02:12:05 2021 GMT
            Not After : Aug 28 02:12:05 2024 GMT
        Subject: CN=team385-client
        Subject Public Key Info:
            Public Key Algorithm: rsaEncryption
                RSA Public-Key: (2048 bit)
                Modulus:
                    00:d6:56:2c:87:9f:e4:a6:f5:32:53:ca:76:40:70:
                    ad:0a:36:5e:81:36:ce:1c:c5:2f:64:73:c4:0d:4d:
                    ec:c2:3a:15:38:43:c2:21:a9:cd:33:17:56:10:7f:
                    87:4e:31:f4:b4:2f:15:13:6a:e1:99:a5:55:d3:7d:
                    8b:9d:69:5d:af:e4:ed:a6:2c:a4:27:34:f0:f4:49:
                    30:1e:19:50:10:c9:f8:ea:9f:58:ca:f3:34:de:af:
                    1d:c4:23:8f:01:f6:c0:f2:07:58:48:68:a9:38:d7:
                    d0:98:80:c7:20:ef:9c:7e:f2:b3:6e:d6:ec:b2:0f:
                    e5:26:20:b9:3c:3c:1e:26:59:c4:8a:c8:2d:0a:c8:
                    09:38:af:06:b7:e9:79:4f:15:89:2b:69:81:59:d4:
                    b1:f3:d3:4c:ce:fe:13:18:93:4d:8d:9f:03:24:7a:
                    2f:44:ff:8c:21:d9:03:d8:76:ee:f9:29:4b:c6:fe:
                    48:43:fc:8b:08:64:17:9b:f0:40:74:b2:ba:a0:64:
                    8b:5c:07:fe:98:91:b4:b8:f2:71:6e:be:29:fb:5d:
                    5c:b6:6d:44:7a:33:7c:0f:20:72:a7:ae:52:d8:e3:
                    9f:00:25:ef:3a:06:52:36:68:f5:50:7b:19:d6:28:
                    91:f9:4f:8e:62:09:98:6a:b8:d8:0a:42:39:20:05:
                    48:3b
                Exponent: 65537 (0x10001)
        X509v3 extensions:
            X509v3 Basic Constraints: 
                CA:FALSE
            X509v3 Subject Key Identifier: 
                55:45:C9:08:3C:A2:72:9E:F4:B6:0E:22:5E:25:BD:0D:06:C4:99:C2
            X509v3 Authority Key Identifier: 
                keyid:62:68:66:4F:B9:C0:B1:47:0E:8F:D2:2E:96:BA:41:66:C7:D8:8E:98
                DirName:/CN=team385-net
                serial:07:F1:5C:DC:1C:1B:9F:58:13:E0:5C:65:2E:7C:B9:0E:3F:9D:A5:5D

            X509v3 Extended Key Usage: 
                TLS Web Client Authentication
            X509v3 Key Usage: 
                Digital Signature
    Signature Algorithm: sha256WithRSAEncryption
         1a:0d:27:87:29:7b:2b:3d:30:01:a4:8b:e8:c8:b0:2b:3f:c1:
         79:e6:0d:a6:c0:fd:ff:40:ce:1c:a7:b0:fc:a5:bd:74:d0:24:
         57:15:f2:a8:26:96:0d:5e:03:93:d1:d2:62:91:ae:4e:df:64:
         8b:8c:4c:ed:84:ff:bf:72:6d:72:2f:d2:64:74:40:c0:88:e3:
         37:a4:cb:31:c4:90:97:9d:a5:78:74:5c:0e:5e:20:52:22:45:
         50:31:19:3e:97:92:54:a9:03:a0:1c:c7:87:9b:a0:07:98:8f:
         77:34:a8:ef:1b:ae:a5:81:06:8e:47:22:5a:0d:31:f5:5d:ec:
         02:db:85:ac:74:2a:5a:69:5d:fd:d3:ee:1d:e1:86:c6:e8:ee:
         65:3e:0f:49:38:0f:58:9f:01:23:6b:c8:83:ca:a4:e4:e4:c1:
         03:e2:6a:2f:00:37:a4:3b:f7:5c:98:d0:ea:ae:68:da:e9:e4:
         a0:d9:5d:bc:6f:e9:49:b4:35:62:b0:ca:f2:93:a7:b0:c7:6e:
         43:6e:b7:a9:01:40:a2:10:66:d7:a2:e7:e5:1a:48:72:64:2d:
         90:f4:71:c3:3a:7b:74:0f:fd:fb:26:1d:30:39:fb:a2:f5:a0:
         60:ac:5a:2e:4a:b2:82:83:e1:17:fe:06:a9:08:82:ce:83:fd:
         bf:dc:2a:a1
-----BEGIN CERTIFICATE-----
MIIDXDCCAkSgAwIBAgIQV2EW2QppWkOM3eBKD3L3IjANBgkqhkiG9w0BAQsFADAW
MRQwEgYDVQQDDAt0ZWFtMzg1LW5ldDAeFw0yMTA5MTMwMjEyMDVaFw0yNDA4Mjgw
MjEyMDVaMBkxFzAVBgNVBAMMDnRlYW0zODUtY2xpZW50MIIBIjANBgkqhkiG9w0B
AQEFAAOCAQ8AMIIBCgKCAQEA1lYsh5/kpvUyU8p2QHCtCjZegTbOHMUvZHPEDU3s
wjoVOEPCIanNMxdWEH+HTjH0tC8VE2rhmaVV032LnWldr+TtpiykJzTw9EkwHhlQ
EMn46p9YyvM03q8dxCOPAfbA8gdYSGipONfQmIDHIO+cfvKzbtbssg/lJiC5PDwe
JlnEisgtCsgJOK8Gt+l5TxWJK2mBWdSx89NMzv4TGJNNjZ8DJHovRP+MIdkD2Hbu
+SlLxv5IQ/yLCGQXm/BAdLK6oGSLXAf+mJG0uPJxbr4p+11ctm1EejN8DyByp65S
2OOfACXvOgZSNmj1UHsZ1iiR+U+OYgmYarjYCkI5IAVIOwIDAQABo4GiMIGfMAkG
A1UdEwQCMAAwHQYDVR0OBBYEFFVFyQg8onKe9LYOIl4lvQ0GxJnCMFEGA1UdIwRK
MEiAFGJoZk+5wLFHDo/SLpa6QWbH2I6YoRqkGDAWMRQwEgYDVQQDDAt0ZWFtMzg1
LW5ldIIUB/Fc3Bwbn1gT4FxlLny5Dj+dpV0wEwYDVR0lBAwwCgYIKwYBBQUHAwIw
CwYDVR0PBAQDAgeAMA0GCSqGSIb3DQEBCwUAA4IBAQAaDSeHKXsrPTABpIvoyLAr
P8F55g2mwP3/QM4cp7D8pb100CRXFfKoJpYNXgOT0dJika5O32SLjEzthP+/cm1y
L9JkdEDAiOM3pMsxxJCXnaV4dFwOXiBSIkVQMRk+l5JUqQOgHMeHm6AHmI93NKjv
G66lgQaORyJaDTH1XewC24WsdCpaaV390+4d4YbG6O5lPg9JOA9YnwEja8iDyqTk
5MED4movADekO/dcmNDqrmja6eSg2V28b+lJtDVisMryk6ewx25DbrepAUCiEGbX
ouflGkhyZC2Q9HHDOnt0D/37Jh0wOfui9aBgrFouSrKCg+EX/gapCILOg/2/3Cqh
-----END CERTIFICATE-----
