Certificate:
    Data:
        Version: 3 (0x2)
        Serial Number:
            b3:70:7a:c5:3f:16:4c:76:1b:00:ac:95:51:04:3b:09
        Signature Algorithm: sha256WithRSAEncryption
        Issuer: CN=team297-net
        Validity
            Not Before: Sep 13 01:24:42 2021 GMT
            Not After : Aug 28 01:24:42 2024 GMT
        Subject: CN=team297-server
        Subject Public Key Info:
            Public Key Algorithm: rsaEncryption
                RSA Public-Key: (2048 bit)
                Modulus:
                    00:cb:c3:13:07:11:48:9f:44:89:ac:ff:5d:32:43:
                    d1:0c:22:24:98:30:98:49:82:7b:b6:8c:59:0a:e3:
                    e8:dc:90:f5:f5:f0:04:18:73:26:aa:53:43:ab:2a:
                    c9:3c:2a:6f:82:25:24:4e:fd:df:fd:81:10:81:f0:
                    0d:b8:a9:a7:0f:9f:e4:c6:f1:5b:fb:92:eb:9a:05:
                    ec:37:89:3f:a2:a1:1f:5f:e7:63:64:2e:10:83:8d:
                    ca:96:07:96:1f:95:a1:7c:64:80:03:5a:3d:85:2a:
                    7b:ba:ba:a5:5d:f7:7c:c0:88:5a:55:ee:f5:fb:48:
                    04:33:d1:f4:4c:ac:b2:96:d9:31:96:d5:40:18:3a:
                    a7:06:4a:3e:35:a0:ab:e7:94:75:fe:e3:09:89:7b:
                    0b:ea:80:24:7f:9a:5d:50:4c:c1:2d:30:4b:fc:ef:
                    5e:23:63:26:aa:cd:79:1e:cf:79:0a:1b:20:9c:17:
                    1b:57:96:c6:1b:52:fd:96:7a:6f:58:ba:11:eb:d5:
                    17:d4:98:30:55:69:c2:4c:be:de:7c:e1:93:fe:00:
                    b6:c0:fe:dc:fd:f5:94:2d:bc:72:fa:78:db:ce:98:
                    90:7d:e5:5c:60:13:4b:07:e1:4e:94:5b:40:cb:e5:
                    7e:92:91:ff:bd:66:0e:42:5e:98:72:a3:b3:cd:c6:
                    a2:bf
                Exponent: 65537 (0x10001)
        X509v3 extensions:
            X509v3 Basic Constraints: 
                CA:FALSE
            X509v3 Subject Key Identifier: 
                35:9C:FA:13:C6:C1:17:9C:47:FA:5B:78:DC:94:F4:34:AB:FE:94:A4
            X509v3 Authority Key Identifier: 
                keyid:9D:B2:61:B5:86:E2:85:21:46:89:D6:3B:CE:D6:78:C1:E9:BB:AE:3B
                DirName:/CN=team297-net
                serial:6B:87:AE:1B:E4:17:3F:0D:E1:F8:2D:2F:52:2A:98:46:6E:42:D6:07

            X509v3 Extended Key Usage: 
                TLS Web Server Authentication
            X509v3 Key Usage: 
                Digital Signature, Key Encipherment
            X509v3 Subject Alternative Name: 
                DNS:team297-server
    Signature Algorithm: sha256WithRSAEncryption
         52:32:8b:e4:37:02:fb:cd:20:7b:ae:23:85:45:fb:e6:0c:4e:
         cb:e1:5f:0b:b6:56:93:bf:e6:29:5b:7a:d8:b2:67:2d:b2:e5:
         44:d6:c9:da:f3:4a:dd:f2:8e:a6:42:e4:dc:4a:87:e7:4a:1b:
         f4:df:b3:19:fb:79:2d:46:03:91:68:44:71:69:1c:b3:da:7b:
         6d:33:46:79:80:66:6c:90:2e:f3:22:74:2c:33:1b:ee:e0:9d:
         44:78:36:ae:b4:13:b6:83:40:8a:64:bf:e3:21:03:63:97:d8:
         f0:16:c1:ce:da:38:a9:71:b0:8f:f7:72:74:4f:1c:79:63:96:
         f6:36:ae:a4:f0:4b:9d:a6:2f:cf:10:54:90:7a:d8:43:18:48:
         13:e7:db:8e:97:ed:f2:8c:ad:61:d8:ef:5c:39:19:bc:36:26:
         59:9b:e4:c1:1e:80:50:ce:d0:a5:0d:26:46:6e:2f:d9:10:cc:
         93:37:3a:7e:24:48:91:10:11:3c:a5:e9:94:f8:80:2d:9d:ed:
         ce:e5:ae:6c:3e:2d:11:a7:52:11:96:84:44:d4:a4:d3:44:05:
         cc:1c:90:07:cf:d6:c9:c6:60:c4:0c:58:a7:97:b5:60:17:30:
         6c:39:d9:b1:de:92:09:76:00:77:3d:73:c6:27:6d:99:97:dc:
         6f:3c:ba:8b
-----BEGIN CERTIFICATE-----
MIIDeDCCAmCgAwIBAgIRALNwesU/Fkx2GwCslVEEOwkwDQYJKoZIhvcNAQELBQAw
FjEUMBIGA1UEAwwLdGVhbTI5Ny1uZXQwHhcNMjEwOTEzMDEyNDQyWhcNMjQwODI4
MDEyNDQyWjAZMRcwFQYDVQQDDA50ZWFtMjk3LXNlcnZlcjCCASIwDQYJKoZIhvcN
AQEBBQADggEPADCCAQoCggEBAMvDEwcRSJ9Eiaz/XTJD0QwiJJgwmEmCe7aMWQrj
6NyQ9fXwBBhzJqpTQ6sqyTwqb4IlJE793/2BEIHwDbippw+f5MbxW/uS65oF7DeJ
P6KhH1/nY2QuEIONypYHlh+VoXxkgANaPYUqe7q6pV33fMCIWlXu9ftIBDPR9Eys
spbZMZbVQBg6pwZKPjWgq+eUdf7jCYl7C+qAJH+aXVBMwS0wS/zvXiNjJqrNeR7P
eQobIJwXG1eWxhtS/ZZ6b1i6EevVF9SYMFVpwky+3nzhk/4AtsD+3P31lC28cvp4
286YkH3lXGATSwfhTpRbQMvlfpKR/71mDkJemHKjs83Gor8CAwEAAaOBvTCBujAJ
BgNVHRMEAjAAMB0GA1UdDgQWBBQ1nPoTxsEXnEf6W3jclPQ0q/6UpDBRBgNVHSME
SjBIgBSdsmG1huKFIUaJ1jvO1njB6buuO6EapBgwFjEUMBIGA1UEAwwLdGVhbTI5
Ny1uZXSCFGuHrhvkFz8N4fgtL1IqmEZuQtYHMBMGA1UdJQQMMAoGCCsGAQUFBwMB
MAsGA1UdDwQEAwIFoDAZBgNVHREEEjAQgg50ZWFtMjk3LXNlcnZlcjANBgkqhkiG
9w0BAQsFAAOCAQEAUjKL5DcC+80ge64jhUX75gxOy+FfC7ZWk7/mKVt62LJnLbLl
RNbJ2vNK3fKOpkLk3EqH50ob9N+zGft5LUYDkWhEcWkcs9p7bTNGeYBmbJAu8yJ0
LDMb7uCdRHg2rrQTtoNAimS/4yEDY5fY8BbBzto4qXGwj/dydE8ceWOW9jaupPBL
naYvzxBUkHrYQxhIE+fbjpft8oytYdjvXDkZvDYmWZvkwR6AUM7QpQ0mRm4v2RDM
kzc6fiRIkRARPKXplPiALZ3tzuWubD4tEadSEZaERNSk00QFzByQB8/WycZgxAxY
p5e1YBcwbDnZsd6SCXYAdz1zxidtmZfcbzy6iw==
-----END CERTIFICATE-----
