Certificate:
    Data:
        Version: 3 (0x2)
        Serial Number:
            2e:f2:3d:c8:74:f8:02:f1:38:e9:08:31:b9:83:d0:60
        Signature Algorithm: sha256WithRSAEncryption
        Issuer: CN=team308-net
        Validity
            Not Before: Sep 13 01:32:14 2021 GMT
            Not After : Aug 28 01:32:14 2024 GMT
        Subject: CN=team308-client
        Subject Public Key Info:
            Public Key Algorithm: rsaEncryption
                RSA Public-Key: (2048 bit)
                Modulus:
                    00:d0:20:a2:59:c3:19:b5:da:54:2b:92:f4:d5:86:
                    5a:e5:de:7d:3a:92:41:8e:ee:0e:0d:b3:f7:dc:f8:
                    84:a6:80:56:36:ab:d8:d6:fc:05:67:96:fb:32:8e:
                    1f:95:c7:61:36:31:10:36:a6:05:80:b9:fc:f6:ec:
                    cd:21:09:33:25:80:4b:d8:dc:26:b6:0d:d8:7b:ce:
                    f5:9b:64:1c:b3:7a:34:27:cc:17:2d:2c:44:20:0a:
                    7a:b5:27:3e:c5:7a:80:8b:09:90:23:d0:a3:90:68:
                    fa:e7:2e:ef:d5:3b:2b:15:63:35:1e:7c:a1:40:d1:
                    30:aa:c5:92:15:65:5c:07:60:c3:89:c2:26:3c:50:
                    94:ab:b0:16:6b:83:1e:f9:0c:e4:91:fa:ed:28:7e:
                    88:72:10:f8:05:28:34:f2:31:05:26:e3:14:bb:fe:
                    5e:9c:a0:33:2d:fc:e6:93:14:c9:09:1d:94:d3:f4:
                    6a:6c:1b:e0:d2:5e:0e:bd:75:25:62:4b:6d:6d:27:
                    29:66:13:a6:be:61:24:4b:4e:ce:d3:a0:1e:ea:6e:
                    6b:85:9a:17:c8:2f:6c:87:a5:cf:b3:9f:4b:b6:12:
                    63:24:18:84:21:11:b5:13:6d:fa:be:35:d7:7a:a8:
                    b1:53:7b:12:ef:50:e1:75:d1:90:8a:d2:86:b5:dd:
                    05:f9
                Exponent: 65537 (0x10001)
        X509v3 extensions:
            X509v3 Basic Constraints: 
                CA:FALSE
            X509v3 Subject Key Identifier: 
                3C:4D:1A:98:34:1D:26:36:3B:86:89:3B:55:A6:39:21:CB:87:D0:D0
            X509v3 Authority Key Identifier: 
                keyid:57:16:DC:EB:CB:FB:C5:07:9C:BF:63:2D:77:DE:64:93:A0:E6:39:C8
                DirName:/CN=team308-net
                serial:52:3D:B8:7C:0C:EB:CC:C6:9A:4B:72:4D:E9:BB:56:4B:92:F6:B7:03

            X509v3 Extended Key Usage: 
                TLS Web Client Authentication
            X509v3 Key Usage: 
                Digital Signature
    Signature Algorithm: sha256WithRSAEncryption
         0a:11:7e:ca:ea:9c:32:f5:d2:a2:88:c9:c2:b0:5b:79:7a:13:
         d1:21:38:13:eb:b0:2f:87:a5:68:66:44:f9:b2:55:e5:05:60:
         c0:40:b8:14:5e:94:03:0e:5a:ae:27:6c:51:97:f5:59:5d:f6:
         12:d0:b5:80:ca:a8:b6:40:d9:d4:f1:5f:89:ca:94:ed:0c:5e:
         fd:fc:7c:06:af:29:93:8e:3a:ef:ed:f9:1e:de:9c:a7:d5:75:
         6d:26:52:15:2a:77:78:98:6c:e7:1f:18:77:10:aa:4d:27:b8:
         b9:8d:f7:6b:5c:d1:af:2b:a2:bd:d7:64:7c:f4:e2:d0:c2:a8:
         c9:a8:10:46:c2:d5:7e:11:06:27:1a:3e:ae:26:e9:92:63:ad:
         ed:73:db:29:ed:7f:02:ce:af:8b:ac:37:ed:81:48:fd:d4:fe:
         01:ca:22:b7:3b:ea:03:1b:66:42:62:30:e6:30:80:67:fe:83:
         18:59:38:41:c2:d0:74:29:83:a1:a2:ad:33:52:21:d6:10:2c:
         2b:65:0b:00:8d:2f:e2:e0:37:76:3e:42:0d:c4:55:58:87:0a:
         dd:04:d1:43:3f:61:9b:a0:b3:93:68:e3:ae:8e:40:08:38:01:
         d5:80:36:24:7a:9a:00:5f:f2:5b:77:3d:aa:31:d7:99:1d:74:
         ab:c7:3d:96
-----BEGIN CERTIFICATE-----
MIIDXDCCAkSgAwIBAgIQLvI9yHT4AvE46QgxuYPQYDANBgkqhkiG9w0BAQsFADAW
MRQwEgYDVQQDDAt0ZWFtMzA4LW5ldDAeFw0yMTA5MTMwMTMyMTRaFw0yNDA4Mjgw
MTMyMTRaMBkxFzAVBgNVBAMMDnRlYW0zMDgtY2xpZW50MIIBIjANBgkqhkiG9w0B
AQEFAAOCAQ8AMIIBCgKCAQEA0CCiWcMZtdpUK5L01YZa5d59OpJBju4ODbP33PiE
poBWNqvY1vwFZ5b7Mo4flcdhNjEQNqYFgLn89uzNIQkzJYBL2Nwmtg3Ye871m2Qc
s3o0J8wXLSxEIAp6tSc+xXqAiwmQI9CjkGj65y7v1TsrFWM1HnyhQNEwqsWSFWVc
B2DDicImPFCUq7AWa4Me+QzkkfrtKH6IchD4BSg08jEFJuMUu/5enKAzLfzmkxTJ
CR2U0/RqbBvg0l4OvXUlYkttbScpZhOmvmEkS07O06Ae6m5rhZoXyC9sh6XPs59L
thJjJBiEIRG1E236vjXXeqixU3sS71DhddGQitKGtd0F+QIDAQABo4GiMIGfMAkG
A1UdEwQCMAAwHQYDVR0OBBYEFDxNGpg0HSY2O4aJO1WmOSHLh9DQMFEGA1UdIwRK
MEiAFFcW3OvL+8UHnL9jLXfeZJOg5jnIoRqkGDAWMRQwEgYDVQQDDAt0ZWFtMzA4
LW5ldIIUUj24fAzrzMaaS3JN6btWS5L2twMwEwYDVR0lBAwwCgYIKwYBBQUHAwIw
CwYDVR0PBAQDAgeAMA0GCSqGSIb3DQEBCwUAA4IBAQAKEX7K6pwy9dKiiMnCsFt5
ehPRITgT67Avh6VoZkT5slXlBWDAQLgUXpQDDlquJ2xRl/VZXfYS0LWAyqi2QNnU
8V+JypTtDF79/HwGrymTjjrv7fke3pyn1XVtJlIVKnd4mGznHxh3EKpNJ7i5jfdr
XNGvK6K912R89OLQwqjJqBBGwtV+EQYnGj6uJumSY63tc9sp7X8Czq+LrDftgUj9
1P4ByiK3O+oDG2ZCYjDmMIBn/oMYWThBwtB0KYOhoq0zUiHWECwrZQsAjS/i4Dd2
PkINxFVYhwrdBNFDP2GboLOTaOOujkAIOAHVgDYkepoAX/Jbdz2qMdeZHXSrxz2W
-----END CERTIFICATE-----
