Certificate:
    Data:
        Version: 3 (0x2)
        Serial Number:
            fc:c2:43:50:94:3c:93:2e:a1:bb:1d:11:2e:89:ff:eb
        Signature Algorithm: sha256WithRSAEncryption
        Issuer: CN=team643-net
        Validity
            Not Before: Sep 13 04:45:39 2021 GMT
            Not After : Aug 28 04:45:39 2024 GMT
        Subject: CN=team643-client
        Subject Public Key Info:
            Public Key Algorithm: rsaEncryption
                RSA Public-Key: (2048 bit)
                Modulus:
                    00:af:de:48:83:56:f4:8c:43:e5:b4:7b:77:fd:c6:
                    69:8d:39:c5:ea:61:ac:83:08:dc:0c:20:1d:db:0f:
                    26:45:91:27:83:42:1c:b1:5a:ec:93:4d:70:25:9a:
                    1e:8a:f7:17:ba:50:87:f6:a9:17:4b:72:a2:f5:9a:
                    95:ee:12:c5:45:41:73:eb:74:db:01:70:c0:34:ad:
                    64:62:b6:1f:28:64:7f:e5:d5:bb:4b:6d:2e:d9:5c:
                    b0:12:72:34:f6:04:e7:8c:50:b3:56:7d:cf:39:b1:
                    81:c3:7e:c7:57:cb:76:83:58:d3:94:a2:9e:9d:0e:
                    9b:d0:d2:c6:19:fe:84:12:e8:31:df:f2:a6:92:cf:
                    c6:af:2a:38:e3:95:fe:bb:63:73:35:e6:5a:ef:1f:
                    5e:ad:a8:0e:18:b8:0a:44:d4:26:b8:ad:fe:89:5a:
                    b9:01:5a:00:ba:d5:e0:5f:06:13:57:11:bb:1b:74:
                    32:de:ef:c9:5a:01:9c:02:07:76:e1:f7:6c:1d:d0:
                    73:66:69:ec:98:55:14:71:83:87:67:6d:93:fc:29:
                    35:d8:6a:14:08:f9:5f:2a:cf:aa:02:2f:ed:0e:8b:
                    f3:06:5a:a2:09:8f:5b:11:c0:3d:f0:96:f3:d8:d6:
                    f2:32:e0:2a:36:90:c8:9d:67:af:93:01:09:53:35:
                    a0:19
                Exponent: 65537 (0x10001)
        X509v3 extensions:
            X509v3 Basic Constraints: 
                CA:FALSE
            X509v3 Subject Key Identifier: 
                A1:8B:01:F9:28:79:BB:57:F5:49:C8:B0:88:EC:67:90:87:91:AA:68
            X509v3 Authority Key Identifier: 
                keyid:15:DE:A9:12:EA:EA:8A:9C:8A:24:5C:A9:67:61:A8:66:97:09:D3:29
                DirName:/CN=team643-net
                serial:34:A5:4F:2C:51:E7:77:19:B2:BB:53:2E:1C:56:A4:AC:4A:57:7B:1D

            X509v3 Extended Key Usage: 
                TLS Web Client Authentication
            X509v3 Key Usage: 
                Digital Signature
    Signature Algorithm: sha256WithRSAEncryption
         8b:d8:da:8a:8d:bc:81:e5:3c:c5:66:bb:e9:f3:6a:13:02:1d:
         ac:5e:31:1d:d6:38:bb:b5:e8:58:03:c0:12:8a:84:0d:df:41:
         f8:6a:12:a4:37:ce:b4:99:1c:50:2c:61:8d:3c:33:48:63:a4:
         f3:e6:9a:30:d4:00:64:59:45:48:da:1f:3b:e9:9c:e9:55:ec:
         b7:15:50:15:39:19:6e:3d:a4:88:d3:bb:91:d5:ef:54:82:01:
         4d:f3:14:31:4d:1c:78:6a:e6:71:4a:6e:15:48:24:96:15:48:
         40:c9:4c:c4:e4:e1:1d:cb:06:40:0b:1d:e8:04:86:04:b5:cf:
         05:f3:c9:1b:4f:b1:c4:da:ba:81:86:0e:75:56:15:f5:e8:0a:
         6d:a8:11:7a:e1:20:88:83:bc:c8:e4:9d:bc:15:be:51:30:32:
         fe:d8:26:02:29:4e:f4:32:ae:e6:1f:b7:d2:b9:89:77:77:05:
         c9:76:d9:d0:31:43:38:d6:81:88:17:42:10:f7:54:c3:d6:aa:
         30:55:b2:44:97:60:ea:8e:26:08:74:68:bc:f9:6c:e2:c5:bf:
         c4:e3:d2:11:d9:c7:f3:a7:37:97:36:ad:8d:ab:4a:f0:14:10:
         be:67:08:8c:59:ae:4b:cb:ed:7f:b7:83:3c:15:e6:a1:b5:21:
         7d:c7:5b:78
-----BEGIN CERTIFICATE-----
MIIDXTCCAkWgAwIBAgIRAPzCQ1CUPJMuobsdES6J/+swDQYJKoZIhvcNAQELBQAw
FjEUMBIGA1UEAwwLdGVhbTY0My1uZXQwHhcNMjEwOTEzMDQ0NTM5WhcNMjQwODI4
MDQ0NTM5WjAZMRcwFQYDVQQDDA50ZWFtNjQzLWNsaWVudDCCASIwDQYJKoZIhvcN
AQEBBQADggEPADCCAQoCggEBAK/eSINW9IxD5bR7d/3GaY05xephrIMI3AwgHdsP
JkWRJ4NCHLFa7JNNcCWaHor3F7pQh/apF0tyovWale4SxUVBc+t02wFwwDStZGK2
Hyhkf+XVu0ttLtlcsBJyNPYE54xQs1Z9zzmxgcN+x1fLdoNY05Sinp0Om9DSxhn+
hBLoMd/yppLPxq8qOOOV/rtjczXmWu8fXq2oDhi4CkTUJrit/olauQFaALrV4F8G
E1cRuxt0Mt7vyVoBnAIHduH3bB3Qc2Zp7JhVFHGDh2dtk/wpNdhqFAj5XyrPqgIv
7Q6L8wZaogmPWxHAPfCW89jW8jLgKjaQyJ1nr5MBCVM1oBkCAwEAAaOBojCBnzAJ
BgNVHRMEAjAAMB0GA1UdDgQWBBShiwH5KHm7V/VJyLCI7GeQh5GqaDBRBgNVHSME
SjBIgBQV3qkS6uqKnIokXKlnYahmlwnTKaEapBgwFjEUMBIGA1UEAwwLdGVhbTY0
My1uZXSCFDSlTyxR53cZsrtTLhxWpKxKV3sdMBMGA1UdJQQMMAoGCCsGAQUFBwMC
MAsGA1UdDwQEAwIHgDANBgkqhkiG9w0BAQsFAAOCAQEAi9jaio28geU8xWa76fNq
EwIdrF4xHdY4u7XoWAPAEoqEDd9B+GoSpDfOtJkcUCxhjTwzSGOk8+aaMNQAZFlF
SNofO+mc6VXstxVQFTkZbj2kiNO7kdXvVIIBTfMUMU0ceGrmcUpuFUgklhVIQMlM
xOThHcsGQAsd6ASGBLXPBfPJG0+xxNq6gYYOdVYV9egKbagReuEgiIO8yOSdvBW+
UTAy/tgmAilO9DKu5h+30rmJd3cFyXbZ0DFDONaBiBdCEPdUw9aqMFWyRJdg6o4m
CHRovPls4sW/xOPSEdnH86c3lzatjatK8BQQvmcIjFmuS8vtf7eDPBXmobUhfcdb
eA==
-----END CERTIFICATE-----
