Certificate:
    Data:
        Version: 3 (0x2)
        Serial Number:
            88:4c:c6:ee:bb:a6:28:95:6b:79:d8:c2:ac:47:74:2b
        Signature Algorithm: sha256WithRSAEncryption
        Issuer: CN=team241-net
        Validity
            Not Before: Sep 13 00:45:38 2021 GMT
            Not After : Aug 28 00:45:38 2024 GMT
        Subject: CN=team241-client
        Subject Public Key Info:
            Public Key Algorithm: rsaEncryption
                RSA Public-Key: (2048 bit)
                Modulus:
                    00:ae:14:a7:d5:88:61:e0:06:79:36:98:f2:2a:4c:
                    cd:7a:f9:ca:ab:d6:be:63:32:93:d5:49:db:95:12:
                    ed:7c:88:9a:0b:8f:94:de:35:17:ae:03:dc:cf:5b:
                    44:62:b4:4e:18:a4:d6:70:e9:d5:6f:67:8d:94:68:
                    85:79:cc:c9:e6:89:2f:5b:88:06:ed:c9:f6:e5:7a:
                    58:60:44:ea:70:c9:d1:fa:98:47:f8:99:48:d3:d6:
                    cf:10:01:24:4d:f1:9f:72:dd:c4:28:28:b2:86:53:
                    79:d7:0b:86:d5:b9:50:aa:e1:79:d3:71:10:9e:f0:
                    06:3a:97:49:01:61:f7:2e:43:11:67:6b:85:19:c4:
                    cb:bc:e6:ba:7d:ed:58:f9:5b:62:d1:0f:51:2f:7e:
                    e8:0b:66:66:13:60:65:84:0d:9a:b9:13:75:b8:05:
                    35:b1:16:6a:0f:72:fe:58:8c:da:f8:00:07:90:9a:
                    fd:32:ef:8e:c4:32:45:80:76:7b:77:fc:d2:82:a0:
                    e2:9f:a0:41:ab:eb:d6:34:cc:0b:c8:54:6b:80:19:
                    b3:32:94:cc:a6:08:09:53:0c:6e:99:7a:88:e9:d4:
                    2c:1c:fb:36:ac:ac:ec:b4:4f:ae:1d:6f:ff:17:29:
                    f7:79:95:77:73:60:8a:49:c1:60:58:0d:ee:3d:b5:
                    ed:0d
                Exponent: 65537 (0x10001)
        X509v3 extensions:
            X509v3 Basic Constraints: 
                CA:FALSE
            X509v3 Subject Key Identifier: 
                43:64:8A:DA:E9:B7:5F:D9:A4:46:B4:79:76:82:FC:E2:67:77:94:20
            X509v3 Authority Key Identifier: 
                keyid:4A:52:AB:02:7D:AB:0D:AB:F2:45:31:37:CD:B9:F3:3F:53:BB:DB:EA
                DirName:/CN=team241-net
                serial:22:EF:C0:14:32:55:10:39:8D:91:F7:15:B5:F0:BB:EF:72:25:96:F4

            X509v3 Extended Key Usage: 
                TLS Web Client Authentication
            X509v3 Key Usage: 
                Digital Signature
    Signature Algorithm: sha256WithRSAEncryption
         30:84:33:c6:60:f0:71:39:6f:67:ef:06:a1:65:05:0b:2b:2a:
         6e:07:a3:ba:b9:e5:7a:81:b3:a0:49:6d:0b:9a:bd:06:b2:ef:
         16:44:94:7a:59:1d:10:08:c8:29:df:1a:6a:3b:fa:76:ee:16:
         64:20:84:b6:a0:13:29:32:82:74:2b:0a:a1:ad:92:bb:1b:e9:
         7e:df:88:3e:fd:ef:09:1a:22:30:e1:31:26:b9:f6:ae:d4:0e:
         87:b6:bd:94:38:48:3b:bd:07:ef:b3:d6:3f:23:f0:b4:ab:7e:
         3a:88:29:ac:ee:38:a6:ee:09:b6:8c:57:6c:0c:c4:42:d1:51:
         89:9c:d6:d1:d7:49:01:fa:38:d6:f9:43:f9:ce:43:75:b7:b9:
         05:57:68:44:77:67:20:66:be:bc:1b:b8:1a:8f:05:ea:7e:c5:
         2a:bb:87:9d:4b:e9:c5:43:f9:b8:ed:3e:f1:1c:2b:70:1f:02:
         da:2a:8f:54:93:b1:57:f0:1e:1b:e4:b1:f9:6c:f4:37:0c:e5:
         85:6e:ee:9c:5b:20:9c:90:00:ae:65:ed:20:59:7c:04:9d:69:
         d1:ab:b3:29:56:fd:f6:78:b7:a0:d8:ec:26:d1:41:ab:73:2b:
         dc:38:8e:23:9e:0e:80:c1:ab:4d:0c:d6:55:ec:08:bf:98:07:
         2a:23:48:e2
-----BEGIN CERTIFICATE-----
MIIDXTCCAkWgAwIBAgIRAIhMxu67piiVa3nYwqxHdCswDQYJKoZIhvcNAQELBQAw
FjEUMBIGA1UEAwwLdGVhbTI0MS1uZXQwHhcNMjEwOTEzMDA0NTM4WhcNMjQwODI4
MDA0NTM4WjAZMRcwFQYDVQQDDA50ZWFtMjQxLWNsaWVudDCCASIwDQYJKoZIhvcN
AQEBBQADggEPADCCAQoCggEBAK4Up9WIYeAGeTaY8ipMzXr5yqvWvmMyk9VJ25US
7XyImguPlN41F64D3M9bRGK0Thik1nDp1W9njZRohXnMyeaJL1uIBu3J9uV6WGBE
6nDJ0fqYR/iZSNPWzxABJE3xn3LdxCgosoZTedcLhtW5UKrhedNxEJ7wBjqXSQFh
9y5DEWdrhRnEy7zmun3tWPlbYtEPUS9+6AtmZhNgZYQNmrkTdbgFNbEWag9y/liM
2vgAB5Ca/TLvjsQyRYB2e3f80oKg4p+gQavr1jTMC8hUa4AZszKUzKYICVMMbpl6
iOnULBz7Nqys7LRPrh1v/xcp93mVd3NgiknBYFgN7j217Q0CAwEAAaOBojCBnzAJ
BgNVHRMEAjAAMB0GA1UdDgQWBBRDZIra6bdf2aRGtHl2gvziZ3eUIDBRBgNVHSME
SjBIgBRKUqsCfasNq/JFMTfNufM/U7vb6qEapBgwFjEUMBIGA1UEAwwLdGVhbTI0
MS1uZXSCFCLvwBQyVRA5jZH3FbXwu+9yJZb0MBMGA1UdJQQMMAoGCCsGAQUFBwMC
MAsGA1UdDwQEAwIHgDANBgkqhkiG9w0BAQsFAAOCAQEAMIQzxmDwcTlvZ+8GoWUF
CysqbgejurnleoGzoEltC5q9BrLvFkSUelkdEAjIKd8aajv6du4WZCCEtqATKTKC
dCsKoa2Suxvpft+IPv3vCRoiMOExJrn2rtQOh7a9lDhIO70H77PWPyPwtKt+Oogp
rO44pu4JtoxXbAzEQtFRiZzW0ddJAfo41vlD+c5Ddbe5BVdoRHdnIGa+vBu4Go8F
6n7FKruHnUvpxUP5uO0+8RwrcB8C2iqPVJOxV/AeG+Sx+Wz0NwzlhW7unFsgnJAA
rmXtIFl8BJ1p0auzKVb99ni3oNjsJtFBq3Mr3DiOI54OgMGrTQzWVewIv5gHKiNI
4g==
-----END CERTIFICATE-----
