Certificate:
    Data:
        Version: 3 (0x2)
        Serial Number:
            b5:94:77:24:bf:37:48:77:6d:f5:16:82:c4:a6:b1:87
        Signature Algorithm: sha256WithRSAEncryption
        Issuer: CN=team241-net
        Validity
            Not Before: Sep 13 00:45:38 2021 GMT
            Not After : Aug 28 00:45:38 2024 GMT
        Subject: CN=team241-server
        Subject Public Key Info:
            Public Key Algorithm: rsaEncryption
                RSA Public-Key: (2048 bit)
                Modulus:
                    00:ce:18:f2:ec:65:aa:e2:32:58:ea:fd:f1:6e:ac:
                    70:d1:6a:7e:7a:00:3e:24:4a:0f:db:f0:18:bc:27:
                    74:c7:a0:5e:40:a3:63:d8:92:77:f2:54:92:da:8e:
                    57:14:0b:22:14:c8:8c:c5:78:5e:ad:63:aa:5e:dc:
                    74:3e:c5:bc:3b:3f:d5:b6:78:8d:12:ec:83:df:22:
                    53:67:e0:14:01:e5:3b:47:fa:ea:d6:4c:6c:8f:3f:
                    9b:23:6f:cc:d8:00:0b:9e:63:e0:05:24:6b:53:85:
                    34:56:0d:9f:6f:88:4e:e8:b0:82:3c:fb:20:aa:be:
                    71:cf:f7:65:fe:38:1d:92:c9:d5:3b:a7:b3:82:d8:
                    9a:9c:08:f6:ad:ba:a8:aa:b0:58:a7:98:fb:ca:cc:
                    99:f0:f2:ac:08:73:8c:c1:e3:75:30:2d:85:80:98:
                    ce:6f:1c:e7:09:e2:0a:2e:b4:6b:31:0a:cd:cf:e2:
                    a2:65:b5:ca:a1:7c:82:b1:1a:66:7f:52:4f:5a:2c:
                    5b:d5:8b:e2:d6:21:09:da:47:dc:47:93:15:da:ec:
                    c4:29:5a:fd:9c:e3:05:0f:a7:ed:25:a9:6e:cd:a3:
                    63:d9:dc:a7:2a:4d:0b:ba:1e:32:d7:ac:18:93:24:
                    19:e4:8b:3d:74:99:60:48:0b:06:0b:3f:6d:bd:ba:
                    3d:cb
                Exponent: 65537 (0x10001)
        X509v3 extensions:
            X509v3 Basic Constraints: 
                CA:FALSE
            X509v3 Subject Key Identifier: 
                8C:4A:8B:5A:1D:65:1E:3D:15:6C:95:8C:40:BB:AA:18:0E:01:CA:40
            X509v3 Authority Key Identifier: 
                keyid:4A:52:AB:02:7D:AB:0D:AB:F2:45:31:37:CD:B9:F3:3F:53:BB:DB:EA
                DirName:/CN=team241-net
                serial:22:EF:C0:14:32:55:10:39:8D:91:F7:15:B5:F0:BB:EF:72:25:96:F4

            X509v3 Extended Key Usage: 
                TLS Web Server Authentication
            X509v3 Key Usage: 
                Digital Signature, Key Encipherment
            X509v3 Subject Alternative Name: 
                DNS:team241-server
    Signature Algorithm: sha256WithRSAEncryption
         61:ed:53:7f:e7:b1:e0:df:66:e8:c6:f1:74:9b:0e:ea:c8:32:
         03:21:c0:03:fc:9d:06:71:3d:b5:a8:38:3d:e1:0a:21:2e:47:
         bf:56:83:72:61:c9:40:33:87:f4:d8:38:ab:96:d1:81:f9:67:
         be:03:c3:fd:b7:8c:f2:c1:a7:b4:30:0b:ef:38:64:d2:00:36:
         13:75:63:f6:62:72:0f:16:0c:15:8f:b6:6a:bd:6c:2d:9b:eb:
         c8:58:19:d7:64:d9:2f:f9:8d:87:cc:fa:72:21:46:54:96:ea:
         64:ff:26:21:5d:e7:55:30:6b:3f:95:4e:2a:13:c8:8f:9c:ab:
         b3:eb:c1:c6:d6:83:3e:87:f2:7d:90:f7:11:8b:c3:6e:5e:d6:
         db:82:ad:7c:a2:cf:f6:87:7d:a8:4b:d7:4f:d4:6c:00:5e:dc:
         ee:d0:ca:a7:8a:bb:e9:2d:a6:b7:21:b7:22:ae:2c:d7:0f:18:
         12:36:62:03:6d:72:ef:1c:03:05:ca:1c:28:71:3d:e2:4d:5c:
         88:99:41:78:94:7e:08:12:fb:2e:c9:21:e3:e6:57:9f:52:93:
         4b:47:ef:31:f7:25:32:15:cb:ea:9a:03:8c:a5:eb:60:f6:92:
         2e:88:18:e9:b4:7a:21:7c:ab:2b:af:1d:5a:c7:60:fe:b5:8a:
         1e:e7:e5:cb
-----BEGIN CERTIFICATE-----
MIIDeDCCAmCgAwIBAgIRALWUdyS/N0h3bfUWgsSmsYcwDQYJKoZIhvcNAQELBQAw
FjEUMBIGA1UEAwwLdGVhbTI0MS1uZXQwHhcNMjEwOTEzMDA0NTM4WhcNMjQwODI4
MDA0NTM4WjAZMRcwFQYDVQQDDA50ZWFtMjQxLXNlcnZlcjCCASIwDQYJKoZIhvcN
AQEBBQADggEPADCCAQoCggEBAM4Y8uxlquIyWOr98W6scNFqfnoAPiRKD9vwGLwn
dMegXkCjY9iSd/JUktqOVxQLIhTIjMV4Xq1jql7cdD7FvDs/1bZ4jRLsg98iU2fg
FAHlO0f66tZMbI8/myNvzNgAC55j4AUka1OFNFYNn2+ITuiwgjz7IKq+cc/3Zf44
HZLJ1Tuns4LYmpwI9q26qKqwWKeY+8rMmfDyrAhzjMHjdTAthYCYzm8c5wniCi60
azEKzc/iomW1yqF8grEaZn9ST1osW9WL4tYhCdpH3EeTFdrsxCla/ZzjBQ+n7SWp
bs2jY9ncpypNC7oeMtesGJMkGeSLPXSZYEgLBgs/bb26PcsCAwEAAaOBvTCBujAJ
BgNVHRMEAjAAMB0GA1UdDgQWBBSMSotaHWUePRVslYxAu6oYDgHKQDBRBgNVHSME
SjBIgBRKUqsCfasNq/JFMTfNufM/U7vb6qEapBgwFjEUMBIGA1UEAwwLdGVhbTI0
MS1uZXSCFCLvwBQyVRA5jZH3FbXwu+9yJZb0MBMGA1UdJQQMMAoGCCsGAQUFBwMB
MAsGA1UdDwQEAwIFoDAZBgNVHREEEjAQgg50ZWFtMjQxLXNlcnZlcjANBgkqhkiG
9w0BAQsFAAOCAQEAYe1Tf+ex4N9m6MbxdJsO6sgyAyHAA/ydBnE9tag4PeEKIS5H
v1aDcmHJQDOH9Ng4q5bRgflnvgPD/beM8sGntDAL7zhk0gA2E3Vj9mJyDxYMFY+2
ar1sLZvryFgZ12TZL/mNh8z6ciFGVJbqZP8mIV3nVTBrP5VOKhPIj5yrs+vBxtaD
PofyfZD3EYvDbl7W24KtfKLP9od9qEvXT9RsAF7c7tDKp4q76S2mtyG3Iq4s1w8Y
EjZiA21y7xwDBcocKHE94k1ciJlBeJR+CBL7Lskh4+ZXn1KTS0fvMfclMhXL6poD
jKXrYPaSLogY6bR6IXyrK68dWsdg/rWKHuflyw==
-----END CERTIFICATE-----
