Certificate:
    Data:
        Version: 3 (0x2)
        Serial Number:
            30:c3:b7:f1:52:72:1d:7d:2d:08:30:ce:5c:98:2e:39
        Signature Algorithm: sha256WithRSAEncryption
        Issuer: CN=team712-net
        Validity
            Not Before: Sep 13 04:54:14 2021 GMT
            Not After : Aug 28 04:54:14 2024 GMT
        Subject: CN=team712-server
        Subject Public Key Info:
            Public Key Algorithm: rsaEncryption
                RSA Public-Key: (2048 bit)
                Modulus:
                    00:e2:b2:fd:92:e2:11:bf:5c:b8:5a:27:2c:05:13:
                    a9:cc:79:b0:93:5a:e0:d4:c9:de:25:5e:0c:6f:a3:
                    de:4c:2e:b4:a9:95:59:5b:11:6b:21:19:db:ed:6c:
                    db:40:98:6f:24:ed:32:ed:06:46:dc:c6:b8:4d:9c:
                    c7:dc:fa:c6:38:46:39:99:1d:a1:fe:b8:46:96:5d:
                    fa:e6:d1:94:39:85:40:a7:98:23:38:c0:69:0b:7b:
                    a5:e8:9b:4b:51:4d:5c:1f:df:b3:9f:6e:c5:eb:f7:
                    e2:71:b9:29:bb:1b:fe:57:e1:b0:51:eb:0e:59:e1:
                    ec:9f:d6:04:ab:47:86:8f:c1:79:d7:bd:7c:c1:56:
                    ab:0e:90:12:b8:6b:ba:e1:fd:b4:f1:7f:90:2f:c3:
                    36:3b:bf:2c:25:df:16:b0:7d:88:d1:de:8e:f4:ee:
                    af:db:d2:21:20:de:5d:03:cf:53:96:42:c2:d0:5f:
                    aa:59:5a:56:72:a2:48:40:4a:9a:ac:b0:c3:37:43:
                    f4:48:b8:3e:1d:c5:bb:d6:66:13:5b:b2:6b:06:b5:
                    b9:5e:ce:8d:5c:ad:11:45:41:77:76:76:1c:a4:60:
                    7a:b1:aa:24:09:3d:37:07:7c:7c:0a:a3:20:cf:41:
                    02:ac:75:e8:51:e0:f7:7b:63:87:98:e0:00:53:10:
                    dd:ad
                Exponent: 65537 (0x10001)
        X509v3 extensions:
            X509v3 Basic Constraints: 
                CA:FALSE
            X509v3 Subject Key Identifier: 
                87:1B:E6:0D:6B:6D:DC:19:7C:A1:1E:F9:49:8E:CC:8E:46:8A:46:BA
            X509v3 Authority Key Identifier: 
                keyid:E2:0F:62:E4:67:8A:AE:90:64:51:EE:4B:95:B0:36:98:06:DA:70:93
                DirName:/CN=team712-net
                serial:69:C3:B6:97:ED:B3:5B:A6:53:A8:4D:12:4B:22:95:19:87:B8:E6:31

            X509v3 Extended Key Usage: 
                TLS Web Server Authentication
            X509v3 Key Usage: 
                Digital Signature, Key Encipherment
            X509v3 Subject Alternative Name: 
                DNS:team712-server
    Signature Algorithm: sha256WithRSAEncryption
         6c:91:e6:f1:65:c2:30:7a:66:4e:3f:48:94:7b:f5:e8:ec:ad:
         84:90:d6:5c:02:1d:6f:9d:2a:85:91:f2:1b:00:53:b0:02:04:
         d8:29:02:09:e2:a3:1c:4b:14:29:fc:37:07:3b:54:c4:94:b4:
         af:ee:d4:42:43:00:6e:a7:a1:12:8a:26:b4:5b:14:29:ec:29:
         0e:51:8e:4d:d4:70:38:ba:19:0b:74:18:ae:cd:cc:e6:a4:21:
         fc:0a:cf:5c:84:2f:a9:b6:ef:22:bd:74:ba:d4:f4:16:ae:2a:
         7d:42:e6:6c:ad:df:74:40:3a:2e:a7:68:53:6b:09:f3:cd:e6:
         aa:6c:03:69:3a:7c:ac:0b:b6:e3:59:82:80:ab:c9:61:8f:ce:
         b9:4c:29:ea:80:1b:ad:52:6f:c4:27:7d:eb:47:60:2f:16:78:
         fe:b0:1e:16:90:70:de:ed:ac:0a:2c:7e:cf:a0:e1:3f:59:b5:
         53:15:73:65:f6:26:9d:48:27:fe:db:2f:c0:fc:12:82:be:45:
         c2:e8:7b:f3:0c:ce:f9:0c:8e:65:57:81:0a:23:1a:25:d7:ee:
         20:4e:e8:bc:ef:9a:b8:74:4c:82:0b:db:91:79:8d:f8:32:c5:
         6c:28:41:07:6a:31:01:b2:57:3b:de:08:fb:77:b3:ad:09:2d:
         5a:23:ca:9f
-----BEGIN CERTIFICATE-----
MIIDdzCCAl+gAwIBAgIQMMO38VJyHX0tCDDOXJguOTANBgkqhkiG9w0BAQsFADAW
MRQwEgYDVQQDDAt0ZWFtNzEyLW5ldDAeFw0yMTA5MTMwNDU0MTRaFw0yNDA4Mjgw
NDU0MTRaMBkxFzAVBgNVBAMMDnRlYW03MTItc2VydmVyMIIBIjANBgkqhkiG9w0B
AQEFAAOCAQ8AMIIBCgKCAQEA4rL9kuIRv1y4WicsBROpzHmwk1rg1MneJV4Mb6Pe
TC60qZVZWxFrIRnb7WzbQJhvJO0y7QZG3Ma4TZzH3PrGOEY5mR2h/rhGll365tGU
OYVAp5gjOMBpC3ul6JtLUU1cH9+zn27F6/ficbkpuxv+V+GwUesOWeHsn9YEq0eG
j8F51718wVarDpASuGu64f208X+QL8M2O78sJd8WsH2I0d6O9O6v29IhIN5dA89T
lkLC0F+qWVpWcqJIQEqarLDDN0P0SLg+HcW71mYTW7JrBrW5Xs6NXK0RRUF3dnYc
pGB6saokCT03B3x8CqMgz0ECrHXoUeD3e2OHmOAAUxDdrQIDAQABo4G9MIG6MAkG
A1UdEwQCMAAwHQYDVR0OBBYEFIcb5g1rbdwZfKEe+UmOzI5Gika6MFEGA1UdIwRK
MEiAFOIPYuRniq6QZFHuS5WwNpgG2nCToRqkGDAWMRQwEgYDVQQDDAt0ZWFtNzEy
LW5ldIIUacO2l+2zW6ZTqE0SSyKVGYe45jEwEwYDVR0lBAwwCgYIKwYBBQUHAwEw
CwYDVR0PBAQDAgWgMBkGA1UdEQQSMBCCDnRlYW03MTItc2VydmVyMA0GCSqGSIb3
DQEBCwUAA4IBAQBskebxZcIwemZOP0iUe/Xo7K2EkNZcAh1vnSqFkfIbAFOwAgTY
KQIJ4qMcSxQp/DcHO1TElLSv7tRCQwBup6ESiia0WxQp7CkOUY5N1HA4uhkLdBiu
zczmpCH8Cs9chC+ptu8ivXS61PQWrip9QuZsrd90QDoup2hTawnzzeaqbANpOnys
C7bjWYKAq8lhj865TCnqgButUm/EJ33rR2AvFnj+sB4WkHDe7awKLH7PoOE/WbVT
FXNl9iadSCf+2y/A/BKCvkXC6HvzDM75DI5lV4EKIxol1+4gTui875q4dEyCC9uR
eY34MsVsKEEHajEBslc73gj7d7OtCS1aI8qf
-----END CERTIFICATE-----
