Certificate:
    Data:
        Version: 3 (0x2)
        Serial Number:
            ea:e1:97:b3:e3:f0:f0:71:08:db:0f:a3:1a:bd:1e:84
        Signature Algorithm: sha256WithRSAEncryption
        Issuer: CN=team614-net
        Validity
            Not Before: Sep 13 04:06:54 2021 GMT
            Not After : Aug 28 04:06:54 2024 GMT
        Subject: CN=team614-client
        Subject Public Key Info:
            Public Key Algorithm: rsaEncryption
                RSA Public-Key: (2048 bit)
                Modulus:
                    00:c8:52:bb:72:c8:a2:a9:74:40:39:c2:e0:6d:29:
                    2e:12:ee:99:4b:a5:80:01:ab:dc:70:fa:df:89:34:
                    bd:66:f1:9b:37:a9:39:5c:9b:e4:17:99:6c:91:20:
                    01:21:39:9c:c0:83:2a:13:e3:75:f5:2d:05:0b:63:
                    ed:3b:3d:55:71:64:72:4a:c6:c6:19:51:eb:1c:20:
                    7e:24:ce:fa:95:b9:dd:4b:a2:f4:65:2c:53:60:45:
                    d4:1f:6e:ba:a4:49:b8:05:9f:84:b8:53:27:99:96:
                    89:ba:65:ac:14:fb:9c:da:08:47:33:09:46:95:7d:
                    5a:0d:7f:38:53:92:e2:4a:85:c4:95:5b:d6:c9:8f:
                    bb:ee:c8:db:ff:5f:e6:8b:b1:58:48:9f:be:10:5d:
                    fd:93:60:6a:07:ab:3b:cf:26:70:da:66:fa:0f:59:
                    4e:63:23:d6:c3:de:cf:8b:9d:70:27:8f:c9:a8:39:
                    89:d4:28:c3:a4:1e:1a:68:74:1f:17:22:d4:6c:d4:
                    c4:d7:79:f5:9f:65:28:be:96:fe:16:c7:d4:12:85:
                    ad:92:5e:ab:64:d3:c5:3e:44:35:b0:9a:67:27:95:
                    bf:64:93:4e:c7:7b:c2:22:c6:80:17:ee:3c:60:29:
                    46:17:32:1f:00:2d:7d:da:58:ce:04:29:8b:4e:07:
                    e6:73
                Exponent: 65537 (0x10001)
        X509v3 extensions:
            X509v3 Basic Constraints: 
                CA:FALSE
            X509v3 Subject Key Identifier: 
                BA:1A:71:BB:E6:42:62:0A:76:8E:4F:8E:19:50:FF:BE:D7:DD:B2:03
            X509v3 Authority Key Identifier: 
                keyid:14:05:69:A7:BA:59:49:D2:4A:43:72:0C:70:12:19:A5:E7:1A:77:0D
                DirName:/CN=team614-net
                serial:55:F6:EA:00:BC:4E:1D:F0:E4:91:25:C7:6D:EE:A4:84:20:50:92:76

            X509v3 Extended Key Usage: 
                TLS Web Client Authentication
            X509v3 Key Usage: 
                Digital Signature
    Signature Algorithm: sha256WithRSAEncryption
         0a:68:d5:1d:8f:d3:5d:a5:67:8e:63:3b:71:22:76:49:ce:6b:
         5e:66:2e:d2:3e:47:bb:6d:80:8e:7b:2f:0f:e2:d0:df:00:67:
         da:79:8a:a7:82:d3:91:fb:9a:85:10:e8:5b:36:39:a7:7b:24:
         be:1e:74:e7:cd:7d:38:78:63:71:17:71:4b:71:73:0a:5a:21:
         9f:9a:d6:3e:84:00:59:1d:1c:87:7b:43:be:74:5b:40:52:ad:
         25:45:2b:b3:23:50:d6:2e:72:81:fb:81:e0:22:8e:1b:e9:73:
         7b:34:e5:0d:c9:b4:bb:3b:53:21:21:ef:8d:57:2f:83:f6:3b:
         e0:0b:e2:f9:92:27:f1:e8:64:5b:8f:f7:d2:ed:84:e8:b7:2b:
         54:f9:9b:3f:6a:a0:8f:4c:ee:d9:06:a5:0a:b9:e3:cd:c8:d4:
         f3:e3:57:0b:fc:4e:3f:ca:8d:3d:c7:70:17:d5:49:80:04:f8:
         cd:e4:a7:96:ee:1a:ba:49:e1:04:52:77:3d:b6:a7:12:51:94:
         41:6f:e0:56:78:4e:44:a5:9f:b6:b8:e0:a5:36:01:eb:a6:32:
         e4:71:cc:e6:e1:24:7a:7e:88:bf:2a:8d:61:17:f5:42:c5:fc:
         ec:69:b3:4b:ac:99:66:35:59:ee:b8:4f:0d:30:5d:b5:ef:67:
         fa:27:97:a8
-----BEGIN CERTIFICATE-----
MIIDXTCCAkWgAwIBAgIRAOrhl7Pj8PBxCNsPoxq9HoQwDQYJKoZIhvcNAQELBQAw
FjEUMBIGA1UEAwwLdGVhbTYxNC1uZXQwHhcNMjEwOTEzMDQwNjU0WhcNMjQwODI4
MDQwNjU0WjAZMRcwFQYDVQQDDA50ZWFtNjE0LWNsaWVudDCCASIwDQYJKoZIhvcN
AQEBBQADggEPADCCAQoCggEBAMhSu3LIoql0QDnC4G0pLhLumUulgAGr3HD634k0
vWbxmzepOVyb5BeZbJEgASE5nMCDKhPjdfUtBQtj7Ts9VXFkckrGxhlR6xwgfiTO
+pW53Uui9GUsU2BF1B9uuqRJuAWfhLhTJ5mWibplrBT7nNoIRzMJRpV9Wg1/OFOS
4kqFxJVb1smPu+7I2/9f5ouxWEifvhBd/ZNgagerO88mcNpm+g9ZTmMj1sPez4ud
cCePyag5idQow6QeGmh0Hxci1GzUxNd59Z9lKL6W/hbH1BKFrZJeq2TTxT5ENbCa
ZyeVv2STTsd7wiLGgBfuPGApRhcyHwAtfdpYzgQpi04H5nMCAwEAAaOBojCBnzAJ
BgNVHRMEAjAAMB0GA1UdDgQWBBS6GnG75kJiCnaOT44ZUP++192yAzBRBgNVHSME
SjBIgBQUBWmnullJ0kpDcgxwEhml5xp3DaEapBgwFjEUMBIGA1UEAwwLdGVhbTYx
NC1uZXSCFFX26gC8Th3w5JElx23upIQgUJJ2MBMGA1UdJQQMMAoGCCsGAQUFBwMC
MAsGA1UdDwQEAwIHgDANBgkqhkiG9w0BAQsFAAOCAQEACmjVHY/TXaVnjmM7cSJ2
Sc5rXmYu0j5Hu22AjnsvD+LQ3wBn2nmKp4LTkfuahRDoWzY5p3skvh505819OHhj
cRdxS3FzClohn5rWPoQAWR0ch3tDvnRbQFKtJUUrsyNQ1i5ygfuB4CKOG+lzezTl
Dcm0uztTISHvjVcvg/Y74Avi+ZIn8ehkW4/30u2E6LcrVPmbP2qgj0zu2QalCrnj
zcjU8+NXC/xOP8qNPcdwF9VJgAT4zeSnlu4auknhBFJ3PbanElGUQW/gVnhORKWf
trjgpTYB66Yy5HHM5uEken6IvyqNYRf1QsX87GmzS6yZZjVZ7rhPDTBdte9n+ieX
qA==
-----END CERTIFICATE-----
