Certificate:
    Data:
        Version: 3 (0x2)
        Serial Number:
            0e:3c:aa:83:49:58:73:00:19:09:86:ff:e4:ea:60:aa
        Signature Algorithm: sha256WithRSAEncryption
        Issuer: CN=team551-net
        Validity
            Not Before: Sep 13 03:31:38 2021 GMT
            Not After : Aug 28 03:31:38 2024 GMT
        Subject: CN=team551-client
        Subject Public Key Info:
            Public Key Algorithm: rsaEncryption
                RSA Public-Key: (2048 bit)
                Modulus:
                    00:bf:fa:a8:10:66:37:21:a7:53:05:df:dd:da:0a:
                    b2:13:d4:0a:7c:75:6d:2e:ab:d9:fd:53:35:d4:55:
                    a6:53:e7:48:84:d6:01:99:af:05:22:6a:b5:a8:c6:
                    9a:cd:eb:0d:50:79:69:57:89:32:7b:c7:2f:7c:62:
                    5c:d9:16:a6:48:3d:af:f9:c9:a1:2f:c7:2d:c0:d1:
                    9f:84:79:72:b3:00:e2:21:30:88:e9:73:16:9f:47:
                    f2:de:7c:84:cb:10:17:24:74:3d:56:8c:6a:a7:e0:
                    78:c6:92:42:cf:7d:c4:66:8c:25:09:3c:de:54:6f:
                    bc:5f:7b:6b:7c:60:9b:b7:13:c2:09:cd:7b:f7:c4:
                    5a:82:a7:95:72:1e:46:9a:4a:b0:7c:39:e2:d9:0c:
                    63:27:c1:c2:64:e6:d5:c4:2a:41:bf:fb:ac:2a:1b:
                    2e:7d:ca:df:67:ac:27:0f:30:c2:b2:78:9a:c6:05:
                    85:db:58:3a:9d:f9:42:04:2f:1a:4d:12:03:8f:98:
                    36:f3:20:ce:40:5f:cc:c3:de:94:c9:8a:26:bb:22:
                    11:1c:66:02:29:6f:f3:9d:43:6a:22:b4:a8:f6:44:
                    86:47:84:56:67:88:e1:55:ca:67:43:79:37:9a:ec:
                    97:20:ad:7e:17:b0:0d:66:43:9f:fa:d0:23:f1:1e:
                    50:9d
                Exponent: 65537 (0x10001)
        X509v3 extensions:
            X509v3 Basic Constraints: 
                CA:FALSE
            X509v3 Subject Key Identifier: 
                A9:EC:C6:48:9C:E3:25:29:20:7C:54:5D:60:15:F8:42:39:EC:F9:E0
            X509v3 Authority Key Identifier: 
                keyid:0D:F3:8B:CA:64:BD:17:8E:BD:24:3D:BD:50:3C:60:A8:39:5A:A4:6D
                DirName:/CN=team551-net
                serial:1C:FC:FA:1B:0D:D4:BA:AB:86:70:A8:D4:9A:4A:49:62:13:98:3A:BB

            X509v3 Extended Key Usage: 
                TLS Web Client Authentication
            X509v3 Key Usage: 
                Digital Signature
    Signature Algorithm: sha256WithRSAEncryption
         93:67:7a:22:52:7c:a8:aa:ea:1c:c4:9f:a3:ce:f6:6b:e9:b9:
         6c:81:b1:e4:22:21:4c:08:38:dd:08:f4:23:88:15:58:0b:a9:
         bb:30:61:74:67:91:9d:b3:c5:74:96:c7:a1:c5:73:ef:58:4c:
         89:83:2e:3c:e5:db:20:41:ce:b6:23:b8:f9:d4:39:5c:b1:f6:
         3c:7a:a0:9d:6c:4d:81:a1:49:40:45:70:aa:57:b4:cc:da:91:
         6e:46:d6:2a:5f:2e:50:99:f7:58:2f:5a:d9:54:3f:59:39:8b:
         9c:c2:3c:fd:c1:97:2e:ce:66:7a:68:16:8f:12:b3:32:f8:74:
         43:c1:93:d3:c2:ea:82:c4:b4:6f:c7:7c:1d:2d:48:84:ce:3a:
         45:5c:9a:91:7e:e6:43:d0:ff:a7:82:97:a4:e9:36:a7:37:f4:
         89:27:5c:41:8f:04:15:c8:0d:b1:9b:43:1b:d2:2f:19:4d:75:
         5c:cb:1c:2a:95:37:15:19:64:92:dc:af:e7:64:05:05:5d:31:
         23:c3:8a:21:9d:55:ad:81:e9:f9:91:87:3b:1a:f5:cd:c2:6f:
         19:9b:d7:d0:8a:6e:47:6b:81:91:17:27:c6:61:20:ee:6d:e9:
         11:1b:da:4c:c3:7f:5d:15:80:7c:19:92:35:4f:c1:34:44:89:
         84:a4:f3:f3
-----BEGIN CERTIFICATE-----
MIIDXDCCAkSgAwIBAgIQDjyqg0lYcwAZCYb/5OpgqjANBgkqhkiG9w0BAQsFADAW
MRQwEgYDVQQDDAt0ZWFtNTUxLW5ldDAeFw0yMTA5MTMwMzMxMzhaFw0yNDA4Mjgw
MzMxMzhaMBkxFzAVBgNVBAMMDnRlYW01NTEtY2xpZW50MIIBIjANBgkqhkiG9w0B
AQEFAAOCAQ8AMIIBCgKCAQEAv/qoEGY3IadTBd/d2gqyE9QKfHVtLqvZ/VM11FWm
U+dIhNYBma8FImq1qMaazesNUHlpV4kye8cvfGJc2RamSD2v+cmhL8ctwNGfhHly
swDiITCI6XMWn0fy3nyEyxAXJHQ9Voxqp+B4xpJCz33EZowlCTzeVG+8X3trfGCb
txPCCc1798RagqeVch5GmkqwfDni2QxjJ8HCZObVxCpBv/usKhsufcrfZ6wnDzDC
sniaxgWF21g6nflCBC8aTRIDj5g28yDOQF/Mw96UyYomuyIRHGYCKW/znUNqIrSo
9kSGR4RWZ4jhVcpnQ3k3muyXIK1+F7ANZkOf+tAj8R5QnQIDAQABo4GiMIGfMAkG
A1UdEwQCMAAwHQYDVR0OBBYEFKnsxkic4yUpIHxUXWAV+EI57PngMFEGA1UdIwRK
MEiAFA3zi8pkvReOvSQ9vVA8YKg5WqRtoRqkGDAWMRQwEgYDVQQDDAt0ZWFtNTUx
LW5ldIIUHPz6Gw3UuquGcKjUmkpJYhOYOrswEwYDVR0lBAwwCgYIKwYBBQUHAwIw
CwYDVR0PBAQDAgeAMA0GCSqGSIb3DQEBCwUAA4IBAQCTZ3oiUnyoquocxJ+jzvZr
6blsgbHkIiFMCDjdCPQjiBVYC6m7MGF0Z5Gds8V0lsehxXPvWEyJgy485dsgQc62
I7j51DlcsfY8eqCdbE2BoUlARXCqV7TM2pFuRtYqXy5QmfdYL1rZVD9ZOYucwjz9
wZcuzmZ6aBaPErMy+HRDwZPTwuqCxLRvx3wdLUiEzjpFXJqRfuZD0P+ngpek6Tan
N/SJJ1xBjwQVyA2xm0Mb0i8ZTXVcyxwqlTcVGWSS3K/nZAUFXTEjw4ohnVWtgen5
kYc7GvXNwm8Zm9fQim5Ha4GRFyfGYSDubekRG9pMw39dFYB8GZI1T8E0RImEpPPz
-----END CERTIFICATE-----
