Certificate:
    Data:
        Version: 3 (0x2)
        Serial Number:
            fe:e6:b9:94:73:10:26:31:67:40:42:c0:ac:8b:14:b0
        Signature Algorithm: sha256WithRSAEncryption
        Issuer: CN=team244-net
        Validity
            Not Before: Sep 13 00:58:54 2021 GMT
            Not After : Aug 28 00:58:54 2024 GMT
        Subject: CN=team244-server
        Subject Public Key Info:
            Public Key Algorithm: rsaEncryption
                RSA Public-Key: (2048 bit)
                Modulus:
                    00:bb:5b:b4:d4:05:85:3a:6c:67:bb:9a:8d:1e:ac:
                    ad:35:b1:f1:38:29:0e:fb:04:e0:da:f8:0d:78:3d:
                    ae:b6:75:23:43:1c:14:33:e0:45:ad:9a:1e:76:8b:
                    b6:cd:c5:5f:7e:1a:39:3b:5c:72:aa:71:ec:2f:8b:
                    90:4a:1e:e9:93:28:ef:8f:66:8c:18:7b:c7:0a:ff:
                    fd:ef:42:46:e8:fd:df:ec:04:a1:fb:48:d1:ba:aa:
                    25:cb:59:b1:f7:a7:04:88:f3:fe:59:98:f0:e1:63:
                    7d:83:09:f4:3a:53:8a:e6:e1:f5:3a:e6:32:d3:43:
                    75:1b:30:ad:e0:68:44:70:b1:1a:a2:a7:40:1e:ce:
                    70:d5:c6:17:69:ad:45:a1:e7:c2:f0:85:ed:78:e2:
                    0e:32:11:a6:fd:23:e2:ee:5f:c8:8e:8e:43:2c:2b:
                    6b:ba:e2:d2:2a:6d:10:12:a1:62:f9:02:82:73:e6:
                    7a:52:2d:77:76:bd:be:83:dc:e4:24:60:f9:be:d1:
                    44:ce:74:10:69:6e:ee:c7:3e:ec:27:85:14:3e:91:
                    4f:33:95:a6:a4:f9:6b:f8:8f:63:0d:f4:b2:aa:21:
                    b6:04:46:46:00:09:f7:4c:08:b8:41:b2:d0:6c:3f:
                    af:62:00:5e:5c:ef:b8:fe:c3:55:d9:05:a9:f0:f0:
                    81:1d
                Exponent: 65537 (0x10001)
        X509v3 extensions:
            X509v3 Basic Constraints: 
                CA:FALSE
            X509v3 Subject Key Identifier: 
                2A:5E:50:DA:99:A4:39:E2:59:1D:4E:8F:18:6B:0E:FC:62:54:7C:D8
            X509v3 Authority Key Identifier: 
                keyid:09:C4:42:AE:CB:A3:82:8F:84:EE:10:D0:DF:31:94:C3:64:3A:18:58
                DirName:/CN=team244-net
                serial:0B:F7:32:5D:33:DD:5B:0A:85:2E:76:C6:B0:3B:F7:4E:D2:FE:D3:9C

            X509v3 Extended Key Usage: 
                TLS Web Server Authentication
            X509v3 Key Usage: 
                Digital Signature, Key Encipherment
            X509v3 Subject Alternative Name: 
                DNS:team244-server
    Signature Algorithm: sha256WithRSAEncryption
         7a:9a:eb:86:15:96:da:db:0f:7e:a9:14:7b:cd:e0:64:0d:e1:
         2c:7a:3d:27:9f:29:75:f5:d7:a6:dd:83:f2:01:e9:f8:00:66:
         e7:9e:fa:b8:b1:2d:d8:90:57:c9:e1:36:42:c3:b5:a5:cc:4c:
         e9:69:e8:ea:26:7a:a2:b0:c5:f7:91:0b:56:45:1b:f6:e9:7e:
         5e:20:71:0a:76:84:b8:2a:df:42:8a:a2:0a:ef:43:92:3f:0b:
         fc:6d:23:0b:f4:8c:e3:81:68:7f:f9:25:33:7e:10:62:d7:87:
         ab:5a:ad:30:cc:6e:1e:27:13:02:e1:9c:61:ab:d1:43:75:41:
         f8:ff:c9:08:bd:2d:bc:03:73:98:97:35:91:2c:1d:4b:80:e6:
         97:6d:b6:b9:a8:05:36:ad:8f:15:b5:76:28:8a:0e:dc:44:07:
         25:f1:67:14:ba:f5:02:f0:05:e6:b3:9b:2a:86:fa:e9:2c:fe:
         c8:e5:5c:79:c7:0b:e3:ea:56:15:42:5f:57:dc:e6:74:29:f5:
         42:ea:dd:9d:3d:22:35:08:6c:61:11:ed:38:11:cd:58:6b:e9:
         77:f7:a6:a4:4e:22:ae:e3:03:08:1e:38:02:4f:2f:39:dc:81:
         59:44:eb:db:42:39:08:b5:19:33:8c:a2:e7:0d:15:78:d3:ad:
         57:81:dc:63
-----BEGIN CERTIFICATE-----
MIIDeDCCAmCgAwIBAgIRAP7muZRzECYxZ0BCwKyLFLAwDQYJKoZIhvcNAQELBQAw
FjEUMBIGA1UEAwwLdGVhbTI0NC1uZXQwHhcNMjEwOTEzMDA1ODU0WhcNMjQwODI4
MDA1ODU0WjAZMRcwFQYDVQQDDA50ZWFtMjQ0LXNlcnZlcjCCASIwDQYJKoZIhvcN
AQEBBQADggEPADCCAQoCggEBALtbtNQFhTpsZ7uajR6srTWx8TgpDvsE4Nr4DXg9
rrZ1I0McFDPgRa2aHnaLts3FX34aOTtccqpx7C+LkEoe6ZMo749mjBh7xwr//e9C
Ruj93+wEoftI0bqqJctZsfenBIjz/lmY8OFjfYMJ9DpTiubh9TrmMtNDdRswreBo
RHCxGqKnQB7OcNXGF2mtRaHnwvCF7XjiDjIRpv0j4u5fyI6OQywra7ri0iptEBKh
YvkCgnPmelItd3a9voPc5CRg+b7RRM50EGlu7sc+7CeFFD6RTzOVpqT5a/iPYw30
sqohtgRGRgAJ90wIuEGy0Gw/r2IAXlzvuP7DVdkFqfDwgR0CAwEAAaOBvTCBujAJ
BgNVHRMEAjAAMB0GA1UdDgQWBBQqXlDamaQ54lkdTo8Yaw78YlR82DBRBgNVHSME
SjBIgBQJxEKuy6OCj4TuENDfMZTDZDoYWKEapBgwFjEUMBIGA1UEAwwLdGVhbTI0
NC1uZXSCFAv3Ml0z3VsKhS52xrA7907S/tOcMBMGA1UdJQQMMAoGCCsGAQUFBwMB
MAsGA1UdDwQEAwIFoDAZBgNVHREEEjAQgg50ZWFtMjQ0LXNlcnZlcjANBgkqhkiG
9w0BAQsFAAOCAQEAeprrhhWW2tsPfqkUe83gZA3hLHo9J58pdfXXpt2D8gHp+ABm
5576uLEt2JBXyeE2QsO1pcxM6Wno6iZ6orDF95ELVkUb9ul+XiBxCnaEuCrfQoqi
Cu9Dkj8L/G0jC/SM44Fof/klM34QYteHq1qtMMxuHicTAuGcYavRQ3VB+P/JCL0t
vANzmJc1kSwdS4Dml222uagFNq2PFbV2KIoO3EQHJfFnFLr1AvAF5rObKob66Sz+
yOVceccL4+pWFUJfV9zmdCn1QurdnT0iNQhsYRHtOBHNWGvpd/empE4iruMDCB44
Ak8vOdyBWUTr20I5CLUZM4yi5w0VeNOtV4HcYw==
-----END CERTIFICATE-----
