Certificate:
    Data:
        Version: 3 (0x2)
        Serial Number:
            42:cc:92:42:11:a1:ec:e4:01:a5:7e:39:ee:94:80:9f
        Signature Algorithm: sha256WithRSAEncryption
        Issuer: CN=team88-net
        Validity
            Not Before: Sep 12 23:29:43 2021 GMT
            Not After : Aug 27 23:29:43 2024 GMT
        Subject: CN=team88-client
        Subject Public Key Info:
            Public Key Algorithm: rsaEncryption
                RSA Public-Key: (2048 bit)
                Modulus:
                    00:b7:d0:f4:d7:ad:8b:d5:f8:1f:b0:c5:d7:53:fb:
                    25:26:dc:8f:34:05:53:38:27:bb:bb:4f:96:a0:9a:
                    d5:64:9b:b2:d0:f5:a6:b7:5a:49:07:d1:59:55:da:
                    f1:39:95:4a:8c:fd:e3:fa:6a:82:23:1c:e4:7b:fc:
                    69:6e:9e:8e:4d:1e:4b:fb:1a:8c:fd:14:a0:b9:24:
                    0a:75:8c:0f:6e:f4:95:3b:c3:4a:71:18:93:8b:77:
                    00:0d:3a:05:fb:c5:d4:b5:3f:0c:7c:22:12:ae:c7:
                    05:a2:bb:02:92:f6:bb:d5:87:99:38:21:5a:4c:ae:
                    9c:d2:2f:b0:5f:3a:36:f3:b5:f2:f5:68:d1:1e:ce:
                    4a:1a:63:60:f7:5b:07:5c:96:6f:41:22:67:32:a2:
                    df:84:ca:cc:47:ad:ce:2c:23:47:f2:00:90:84:c2:
                    fb:40:1b:87:96:3d:23:50:d9:0b:fb:2b:1f:81:27:
                    8a:ee:78:df:2f:6a:f2:56:71:7d:07:9c:9c:0b:75:
                    c9:8a:ca:4d:94:9b:31:00:8c:9f:50:4d:b6:34:b3:
                    b9:c8:37:a3:c6:20:c3:8e:5b:7b:4d:89:18:3d:a2:
                    0b:92:16:6f:9b:33:3a:b3:64:53:da:64:18:15:84:
                    e7:d7:f1:57:6a:fa:92:39:68:0f:7c:7b:6a:6a:45:
                    56:97
                Exponent: 65537 (0x10001)
        X509v3 extensions:
            X509v3 Basic Constraints: 
                CA:FALSE
            X509v3 Subject Key Identifier: 
                D7:A5:31:85:47:6E:3E:FF:5A:55:8E:96:4E:B5:E0:DC:8D:BE:AB:AE
            X509v3 Authority Key Identifier: 
                keyid:05:53:01:59:84:DB:75:DB:F7:76:11:E6:62:6D:2B:E3:8F:CE:EA:39
                DirName:/CN=team88-net
                serial:30:0B:04:32:0D:41:85:EA:82:F2:EE:E5:D7:70:9E:CF:08:09:34:DA

            X509v3 Extended Key Usage: 
                TLS Web Client Authentication
            X509v3 Key Usage: 
                Digital Signature
    Signature Algorithm: sha256WithRSAEncryption
         35:51:0b:c3:f0:e8:f3:df:b3:0f:4d:a7:db:eb:06:3d:e9:5f:
         62:10:6a:83:e9:b8:6c:46:e8:49:cf:f6:b5:54:0e:1e:38:f2:
         2c:d0:46:90:2d:80:5a:08:bd:e1:7d:69:9f:02:99:40:07:d7:
         01:70:f1:ac:4b:d3:7c:2b:c2:33:4c:56:c8:15:f0:a3:a0:3d:
         a7:ca:1d:af:9a:09:54:ae:28:f4:b9:d4:a2:ec:f4:42:3e:38:
         90:93:2f:d6:73:da:b5:76:a3:72:b9:cf:a3:e3:b5:d5:96:9d:
         b9:14:0f:c1:4e:ce:18:96:a8:43:5e:fc:a7:f2:5b:63:0e:6d:
         d6:e0:50:0e:16:22:f1:73:0c:cd:24:77:df:7e:7e:08:46:61:
         bf:71:5a:34:ec:01:9e:b7:bf:96:0a:73:7c:6b:e3:04:c8:ea:
         56:34:21:ff:3c:85:db:8e:46:9d:83:e9:57:41:79:8d:ce:f2:
         83:63:5c:90:3e:a1:65:94:ed:11:43:8c:14:8d:ee:34:dc:7b:
         6e:fa:64:88:e7:fb:b2:72:7b:95:b4:a8:11:ce:9e:cc:9e:de:
         12:25:fc:f6:c8:ce:9e:0f:53:e3:7a:0e:a1:88:60:6d:6d:09:
         e7:8d:07:05:cc:b6:fd:a8:c7:a1:a6:0a:df:89:3a:af:9c:9a:
         1a:48:72:a4
-----BEGIN CERTIFICATE-----
MIIDWTCCAkGgAwIBAgIQQsySQhGh7OQBpX457pSAnzANBgkqhkiG9w0BAQsFADAV
MRMwEQYDVQQDDAp0ZWFtODgtbmV0MB4XDTIxMDkxMjIzMjk0M1oXDTI0MDgyNzIz
Mjk0M1owGDEWMBQGA1UEAwwNdGVhbTg4LWNsaWVudDCCASIwDQYJKoZIhvcNAQEB
BQADggEPADCCAQoCggEBALfQ9Neti9X4H7DF11P7JSbcjzQFUzgnu7tPlqCa1WSb
stD1prdaSQfRWVXa8TmVSoz94/pqgiMc5Hv8aW6ejk0eS/sajP0UoLkkCnWMD270
lTvDSnEYk4t3AA06BfvF1LU/DHwiEq7HBaK7ApL2u9WHmTghWkyunNIvsF86NvO1
8vVo0R7OShpjYPdbB1yWb0EiZzKi34TKzEetziwjR/IAkITC+0Abh5Y9I1DZC/sr
H4Eniu543y9q8lZxfQecnAt1yYrKTZSbMQCMn1BNtjSzucg3o8Ygw45be02JGD2i
C5IWb5szOrNkU9pkGBWE59fxV2r6kjloD3x7ampFVpcCAwEAAaOBoTCBnjAJBgNV
HRMEAjAAMB0GA1UdDgQWBBTXpTGFR24+/1pVjpZOteDcjb6rrjBQBgNVHSMESTBH
gBQFUwFZhNt12/d2EeZibSvjj87qOaEZpBcwFTETMBEGA1UEAwwKdGVhbTg4LW5l
dIIUMAsEMg1BheqC8u7l13CezwgJNNowEwYDVR0lBAwwCgYIKwYBBQUHAwIwCwYD
VR0PBAQDAgeAMA0GCSqGSIb3DQEBCwUAA4IBAQA1UQvD8Ojz37MPTafb6wY96V9i
EGqD6bhsRuhJz/a1VA4eOPIs0EaQLYBaCL3hfWmfAplAB9cBcPGsS9N8K8IzTFbI
FfCjoD2nyh2vmglUrij0udSi7PRCPjiQky/Wc9q1dqNyuc+j47XVlp25FA/BTs4Y
lqhDXvyn8ltjDm3W4FAOFiLxcwzNJHfffn4IRmG/cVo07AGet7+WCnN8a+MEyOpW
NCH/PIXbjkadg+lXQXmNzvKDY1yQPqFllO0RQ4wUje403Htu+mSI5/uycnuVtKgR
zp7Mnt4SJfz2yM6eD1Pjeg6hiGBtbQnnjQcFzLb9qMehpgrfiTqvnJoaSHKk
-----END CERTIFICATE-----
