Certificate:
    Data:
        Version: 3 (0x2)
        Serial Number:
            48:cc:c7:5f:8b:25:a6:56:da:fc:4c:98:85:54:f1:d4
        Signature Algorithm: sha256WithRSAEncryption
        Issuer: CN=team416-net
        Validity
            Not Before: Sep 13 02:26:47 2021 GMT
            Not After : Aug 28 02:26:47 2024 GMT
        Subject: CN=team416-client
        Subject Public Key Info:
            Public Key Algorithm: rsaEncryption
                RSA Public-Key: (2048 bit)
                Modulus:
                    00:e9:cc:ac:bb:f3:31:e6:44:7e:3c:8d:f5:29:18:
                    a4:30:40:0f:4e:88:09:f9:44:d7:08:c6:35:0f:b6:
                    bb:f6:5a:82:86:bd:c4:a1:8e:5b:d5:20:ed:69:70:
                    19:24:2b:4b:bd:3a:fa:12:49:84:54:8f:a8:5a:fe:
                    c4:93:62:20:45:08:5a:27:b3:42:68:1e:e6:db:9e:
                    ed:dc:5e:6a:a6:ca:eb:e4:c8:da:f5:83:a9:e9:46:
                    ff:c0:45:1e:23:84:4c:a9:ce:fd:87:85:86:ed:7e:
                    06:8d:89:b3:ad:6a:1d:7e:28:10:68:3f:15:c4:3a:
                    29:3f:a7:b9:a8:77:3d:7f:7d:7a:d7:61:1c:7f:f2:
                    84:aa:73:76:ef:4b:50:7c:50:7d:df:72:09:dc:b8:
                    d4:78:6b:1b:a0:5c:28:b1:65:74:72:de:07:62:f5:
                    63:83:83:57:05:07:c1:ce:73:26:e3:ca:ff:03:bb:
                    72:0f:84:95:9f:f9:a2:26:a3:cf:fd:e3:76:e3:0a:
                    48:af:59:7a:76:df:e2:02:12:1a:2e:08:4b:6e:2d:
                    86:79:c0:32:3f:b6:97:2f:f3:14:3f:3f:e6:15:56:
                    3e:38:a4:cd:7f:f7:23:d2:49:77:ee:69:8a:22:4e:
                    29:9c:4a:7d:53:a0:01:c7:08:e4:ae:3a:51:b8:90:
                    4e:ed
                Exponent: 65537 (0x10001)
        X509v3 extensions:
            X509v3 Basic Constraints: 
                CA:FALSE
            X509v3 Subject Key Identifier: 
                7C:0E:93:BB:EF:78:D9:46:1B:50:55:30:85:7C:59:60:2D:81:74:52
            X509v3 Authority Key Identifier: 
                keyid:84:66:C3:42:C1:DC:E5:7F:9E:2A:58:1E:FF:A9:1D:89:29:25:33:30
                DirName:/CN=team416-net
                serial:31:03:8D:C2:DB:B5:85:2A:91:05:02:71:01:C7:01:C3:B3:53:AC:FE

            X509v3 Extended Key Usage: 
                TLS Web Client Authentication
            X509v3 Key Usage: 
                Digital Signature
    Signature Algorithm: sha256WithRSAEncryption
         cd:06:5b:04:7a:28:eb:d0:8a:52:bc:3a:11:41:f6:18:c9:07:
         cb:42:35:a3:d2:03:69:ec:08:c9:50:1a:cc:4d:99:3c:18:ef:
         f8:6d:b4:96:47:97:96:50:f6:7b:7e:90:c8:35:3c:e8:3a:e3:
         3f:b1:6f:e0:13:33:8f:37:b4:4c:44:36:47:94:c7:1d:d2:70:
         1f:8c:85:6e:c3:b7:07:66:e1:85:fb:9b:3d:0f:9c:e2:24:be:
         90:fd:cf:6c:00:47:de:5f:d3:ab:f9:cf:eb:f3:5e:a1:df:ec:
         73:81:82:83:11:4d:81:84:03:43:a1:c9:51:5a:a4:bf:c6:a2:
         f7:7b:4f:62:78:77:5f:f4:ff:f3:7c:f2:48:d8:cc:e6:39:bd:
         0b:ec:86:fe:41:ad:cf:16:c7:7d:79:df:74:22:ec:ef:18:22:
         22:09:92:04:90:c7:6b:ac:a5:2f:db:ed:3a:c8:9d:66:2a:75:
         39:40:52:84:7c:52:fd:ca:61:6b:89:c9:b9:18:bc:8d:65:ed:
         82:ee:fe:00:7d:c7:0d:96:dd:f6:72:20:be:85:2a:40:28:57:
         da:1c:68:60:fc:c7:b5:e5:3f:ac:e9:69:bd:3a:7c:2c:34:93:
         aa:cb:66:0b:b9:f0:6d:88:f5:c1:23:0d:e6:78:2e:20:1a:40:
         eb:41:af:10
-----BEGIN CERTIFICATE-----
MIIDXDCCAkSgAwIBAgIQSMzHX4slplba/EyYhVTx1DANBgkqhkiG9w0BAQsFADAW
MRQwEgYDVQQDDAt0ZWFtNDE2LW5ldDAeFw0yMTA5MTMwMjI2NDdaFw0yNDA4Mjgw
MjI2NDdaMBkxFzAVBgNVBAMMDnRlYW00MTYtY2xpZW50MIIBIjANBgkqhkiG9w0B
AQEFAAOCAQ8AMIIBCgKCAQEA6cysu/Mx5kR+PI31KRikMEAPTogJ+UTXCMY1D7a7
9lqChr3EoY5b1SDtaXAZJCtLvTr6EkmEVI+oWv7Ek2IgRQhaJ7NCaB7m257t3F5q
psrr5Mja9YOp6Ub/wEUeI4RMqc79h4WG7X4GjYmzrWodfigQaD8VxDopP6e5qHc9
f31612Ecf/KEqnN270tQfFB933IJ3LjUeGsboFwosWV0ct4HYvVjg4NXBQfBznMm
48r/A7tyD4SVn/miJqPP/eN24wpIr1l6dt/iAhIaLghLbi2GecAyP7aXL/MUPz/m
FVY+OKTNf/cj0kl37mmKIk4pnEp9U6ABxwjkrjpRuJBO7QIDAQABo4GiMIGfMAkG
A1UdEwQCMAAwHQYDVR0OBBYEFHwOk7vveNlGG1BVMIV8WWAtgXRSMFEGA1UdIwRK
MEiAFIRmw0LB3OV/nipYHv+pHYkpJTMwoRqkGDAWMRQwEgYDVQQDDAt0ZWFtNDE2
LW5ldIIUMQONwtu1hSqRBQJxAccBw7NTrP4wEwYDVR0lBAwwCgYIKwYBBQUHAwIw
CwYDVR0PBAQDAgeAMA0GCSqGSIb3DQEBCwUAA4IBAQDNBlsEeijr0IpSvDoRQfYY
yQfLQjWj0gNp7AjJUBrMTZk8GO/4bbSWR5eWUPZ7fpDINTzoOuM/sW/gEzOPN7RM
RDZHlMcd0nAfjIVuw7cHZuGF+5s9D5ziJL6Q/c9sAEfeX9Or+c/r816h3+xzgYKD
EU2BhANDoclRWqS/xqL3e09ieHdf9P/zfPJI2MzmOb0L7Ib+Qa3PFsd9ed90Iuzv
GCIiCZIEkMdrrKUv2+06yJ1mKnU5QFKEfFL9ymFricm5GLyNZe2C7v4AfccNlt32
ciC+hSpAKFfaHGhg/Me15T+s6Wm9OnwsNJOqy2YLufBtiPXBIw3meC4gGkDrQa8Q
-----END CERTIFICATE-----
