Certificate:
    Data:
        Version: 3 (0x2)
        Serial Number:
            98:d7:ad:4d:9d:a7:a3:39:92:d3:1a:d5:f9:22:14:c1
        Signature Algorithm: sha256WithRSAEncryption
        Issuer: CN=team46-net
        Validity
            Not Before: Sep 12 23:07:37 2021 GMT
            Not After : Aug 27 23:07:37 2024 GMT
        Subject: CN=team46-client
        Subject Public Key Info:
            Public Key Algorithm: rsaEncryption
                RSA Public-Key: (2048 bit)
                Modulus:
                    00:b2:1b:7e:b1:88:33:3f:4a:74:2e:79:af:79:a0:
                    de:08:ee:e5:4f:55:0d:09:22:77:e2:c4:1f:09:df:
                    da:8b:2a:87:1f:87:b1:3a:78:c8:cb:09:68:98:da:
                    3a:80:25:28:ab:ea:df:37:4b:44:db:63:ea:48:40:
                    e4:b7:21:d0:72:97:66:e1:ab:c5:88:2c:2b:0d:b3:
                    c0:96:fc:64:54:31:c4:1d:d4:59:a3:ba:61:01:30:
                    78:19:f7:93:b3:dd:50:fb:56:4b:39:3a:f8:05:3e:
                    b8:49:04:43:ff:d2:10:af:5e:64:cd:95:0d:c9:59:
                    67:23:39:ad:47:7f:3e:3e:5e:e8:8c:1b:c3:b6:0c:
                    a0:38:7a:21:e7:f6:22:68:04:f9:9c:e1:a6:df:a6:
                    3f:fa:55:4b:ff:3a:be:eb:0f:92:6b:aa:f2:58:68:
                    1d:b0:4c:eb:fb:94:5e:d8:ba:9a:f8:ae:68:56:63:
                    9e:dd:2e:79:4c:f3:e8:e1:8e:a2:9c:43:7d:cf:64:
                    b7:91:f8:28:8f:78:c0:a7:ad:21:99:dd:c4:3c:24:
                    dc:01:63:b9:a5:6d:12:b1:92:0c:9a:ab:cf:d4:07:
                    87:de:d7:34:a5:24:9d:e3:2e:bc:7b:c4:5b:c4:64:
                    3c:e1:34:4d:5f:0b:a5:df:26:50:36:2b:8f:65:60:
                    84:dd
                Exponent: 65537 (0x10001)
        X509v3 extensions:
            X509v3 Basic Constraints: 
                CA:FALSE
            X509v3 Subject Key Identifier: 
                6E:A2:28:96:67:A9:96:0F:4F:A4:3A:BE:35:09:F6:17:1E:20:62:55
            X509v3 Authority Key Identifier: 
                keyid:55:5E:EA:0F:E6:F8:D0:50:F4:36:1E:88:A0:E4:00:61:BE:6A:B4:60
                DirName:/CN=team46-net
                serial:60:78:7F:23:5A:0B:8E:42:33:88:29:A8:10:AF:3D:47:0E:ED:16:F0

            X509v3 Extended Key Usage: 
                TLS Web Client Authentication
            X509v3 Key Usage: 
                Digital Signature
    Signature Algorithm: sha256WithRSAEncryption
         7a:a5:cc:d8:80:0f:1d:9a:0b:fb:02:de:61:68:98:ea:46:95:
         98:60:73:ed:a1:20:9b:cf:b7:42:e0:9a:9a:fc:3e:e9:c8:ea:
         3c:e4:65:11:47:4f:db:e6:9d:40:b1:f3:4c:25:ee:28:4a:00:
         67:a3:83:f9:65:24:3c:c5:6e:40:75:c4:b1:a9:e1:a2:0e:0a:
         d0:4d:d0:78:a2:ec:5e:16:14:16:3f:d0:9c:f2:a0:67:62:0f:
         41:9f:82:51:91:02:7a:34:33:2a:d4:ea:4a:79:f9:09:ac:e9:
         d3:db:41:19:6b:5a:88:8c:20:57:de:e3:e0:ab:7f:0c:87:f5:
         db:36:ca:3c:81:e5:4f:3d:aa:12:1c:2b:46:68:1d:8a:7e:7b:
         54:c0:ae:7e:e5:12:98:3c:ce:a1:0d:b7:08:74:20:a7:04:d6:
         7b:20:d9:ac:65:7b:19:c2:07:27:e1:67:95:fc:0f:32:76:03:
         b7:36:b1:d1:b4:99:94:d9:b2:60:28:3a:99:5f:a0:87:a5:a8:
         54:a2:46:47:95:9e:49:86:87:99:9e:36:d8:6f:42:53:02:21:
         71:99:08:65:19:7c:53:7d:e4:c0:48:b8:be:be:c0:19:c9:94:
         cd:44:75:27:1b:68:97:58:59:7c:67:a4:33:cb:4b:54:b8:e8:
         93:09:83:e6
-----BEGIN CERTIFICATE-----
MIIDWjCCAkKgAwIBAgIRAJjXrU2dp6M5ktMa1fkiFMEwDQYJKoZIhvcNAQELBQAw
FTETMBEGA1UEAwwKdGVhbTQ2LW5ldDAeFw0yMTA5MTIyMzA3MzdaFw0yNDA4Mjcy
MzA3MzdaMBgxFjAUBgNVBAMMDXRlYW00Ni1jbGllbnQwggEiMA0GCSqGSIb3DQEB
AQUAA4IBDwAwggEKAoIBAQCyG36xiDM/SnQuea95oN4I7uVPVQ0JInfixB8J39qL
Kocfh7E6eMjLCWiY2jqAJSir6t83S0TbY+pIQOS3IdByl2bhq8WILCsNs8CW/GRU
McQd1FmjumEBMHgZ95Oz3VD7Vks5OvgFPrhJBEP/0hCvXmTNlQ3JWWcjOa1Hfz4+
XuiMG8O2DKA4eiHn9iJoBPmc4abfpj/6VUv/Or7rD5JrqvJYaB2wTOv7lF7Yupr4
rmhWY57dLnlM8+jhjqKcQ33PZLeR+CiPeMCnrSGZ3cQ8JNwBY7mlbRKxkgyaq8/U
B4fe1zSlJJ3jLrx7xFvEZDzhNE1fC6XfJlA2K49lYITdAgMBAAGjgaEwgZ4wCQYD
VR0TBAIwADAdBgNVHQ4EFgQUbqIolmeplg9PpDq+NQn2Fx4gYlUwUAYDVR0jBEkw
R4AUVV7qD+b40FD0Nh6IoOQAYb5qtGChGaQXMBUxEzARBgNVBAMMCnRlYW00Ni1u
ZXSCFGB4fyNaC45CM4gpqBCvPUcO7RbwMBMGA1UdJQQMMAoGCCsGAQUFBwMCMAsG
A1UdDwQEAwIHgDANBgkqhkiG9w0BAQsFAAOCAQEAeqXM2IAPHZoL+wLeYWiY6kaV
mGBz7aEgm8+3QuCamvw+6cjqPORlEUdP2+adQLHzTCXuKEoAZ6OD+WUkPMVuQHXE
sanhog4K0E3QeKLsXhYUFj/QnPKgZ2IPQZ+CUZECejQzKtTqSnn5Cazp09tBGWta
iIwgV97j4Kt/DIf12zbKPIHlTz2qEhwrRmgdin57VMCufuUSmDzOoQ23CHQgpwTW
eyDZrGV7GcIHJ+FnlfwPMnYDtzax0bSZlNmyYCg6mV+gh6WoVKJGR5WeSYaHmZ42
2G9CUwIhcZkIZRl8U33kwEi4vr7AGcmUzUR1Jxtol1hZfGekM8tLVLjokwmD5g==
-----END CERTIFICATE-----
