Certificate:
    Data:
        Version: 3 (0x2)
        Serial Number:
            ea:8b:c8:ae:d7:ec:4d:62:73:31:d3:80:0d:12:4a:ea
        Signature Algorithm: sha256WithRSAEncryption
        Issuer: CN=team478-net
        Validity
            Not Before: Sep 13 03:04:07 2021 GMT
            Not After : Aug 28 03:04:07 2024 GMT
        Subject: CN=team478-client
        Subject Public Key Info:
            Public Key Algorithm: rsaEncryption
                RSA Public-Key: (2048 bit)
                Modulus:
                    00:b4:7d:65:2d:8c:f1:44:92:8e:4e:72:94:05:19:
                    26:12:42:4c:1b:5c:d3:ee:51:23:21:69:ce:ae:ee:
                    70:70:44:25:01:72:ee:cb:00:2b:b4:8d:3d:73:b9:
                    d6:7e:4f:4f:8d:a5:55:43:ef:86:40:5d:de:e5:43:
                    1b:42:2f:e5:60:40:d9:f3:ae:bd:f8:00:1c:d6:e9:
                    c7:75:d4:13:d5:a2:6d:bc:99:32:9c:26:20:94:88:
                    be:52:24:cd:5d:c2:3a:89:ad:4e:af:f6:46:fd:9b:
                    63:0f:fd:46:b4:4f:7d:0d:5c:12:b0:28:98:a6:c6:
                    b2:e0:e0:b9:e9:6f:12:0c:1b:56:f2:a4:35:4f:f3:
                    8e:ea:ad:fe:b9:61:7e:fd:21:c5:c6:d3:79:02:d6:
                    49:01:67:c2:45:4c:37:74:38:fa:dd:f0:bf:6e:f9:
                    f9:80:e5:30:b1:f7:61:a8:7f:78:54:38:94:91:32:
                    f2:13:e3:64:e4:0e:15:56:3f:a8:74:21:c9:d5:b9:
                    a7:76:2f:94:96:b6:04:67:45:23:63:91:26:36:81:
                    06:40:45:44:c3:b7:fc:8f:16:9b:99:68:99:a8:39:
                    3a:84:49:62:99:2a:33:08:a0:96:6d:96:a7:18:76:
                    43:43:ef:2f:ee:b8:30:bd:4c:a6:c4:16:37:15:2e:
                    f7:b7
                Exponent: 65537 (0x10001)
        X509v3 extensions:
            X509v3 Basic Constraints: 
                CA:FALSE
            X509v3 Subject Key Identifier: 
                99:6F:95:13:3E:3E:35:CC:F8:DE:3B:DC:CB:BB:80:20:1E:FD:CE:4B
            X509v3 Authority Key Identifier: 
                keyid:F3:DA:62:E9:61:7B:C8:2C:C6:87:FD:EC:F5:DD:0F:82:D2:1F:43:A8
                DirName:/CN=team478-net
                serial:6D:19:81:C8:37:B8:D9:AD:1B:0A:FB:78:D5:C3:E3:E6:10:8B:5C:59

            X509v3 Extended Key Usage: 
                TLS Web Client Authentication
            X509v3 Key Usage: 
                Digital Signature
    Signature Algorithm: sha256WithRSAEncryption
         25:4d:2c:83:eb:d3:5f:e5:f5:3f:2e:69:02:60:78:68:5b:84:
         46:a9:e9:79:f5:5d:78:5e:24:95:ad:97:a7:4b:a9:b0:85:73:
         3f:40:2e:b5:82:65:c3:73:57:49:48:d3:b4:97:e2:6d:48:62:
         ee:c7:ad:5d:03:08:86:80:0b:96:9e:f8:d2:80:f7:0c:17:43:
         f4:4c:89:be:60:7f:c7:f5:4e:32:80:ce:d8:0a:5e:59:d0:51:
         6a:0f:e7:ff:65:11:f0:c3:e6:45:0a:0f:32:83:db:6e:1a:d4:
         6d:01:14:58:8b:25:36:d1:47:87:2b:cc:58:3c:7c:0c:fb:24:
         8d:d4:a6:6c:1c:36:45:b4:f7:c3:b9:98:9f:69:62:c1:47:77:
         7d:e3:bf:86:28:5a:ca:3e:f2:8a:ff:71:86:c4:4a:93:43:72:
         35:a2:7f:70:7e:38:99:b6:e9:59:44:fe:94:fc:cc:43:a4:0d:
         21:95:50:ec:a2:89:60:4b:6b:ee:9a:eb:f9:d5:f6:b7:ad:cc:
         2d:ec:ea:33:0b:8a:5b:c4:48:47:ee:e7:71:ad:77:c7:2f:a9:
         21:df:e1:54:f9:47:29:a0:32:de:75:73:86:bf:9c:88:06:bc:
         f0:c4:ea:d8:93:c9:ff:fb:28:89:be:58:89:87:bd:e6:d7:5b:
         7a:60:35:dc
-----BEGIN CERTIFICATE-----
MIIDXTCCAkWgAwIBAgIRAOqLyK7X7E1iczHTgA0SSuowDQYJKoZIhvcNAQELBQAw
FjEUMBIGA1UEAwwLdGVhbTQ3OC1uZXQwHhcNMjEwOTEzMDMwNDA3WhcNMjQwODI4
MDMwNDA3WjAZMRcwFQYDVQQDDA50ZWFtNDc4LWNsaWVudDCCASIwDQYJKoZIhvcN
AQEBBQADggEPADCCAQoCggEBALR9ZS2M8USSjk5ylAUZJhJCTBtc0+5RIyFpzq7u
cHBEJQFy7ssAK7SNPXO51n5PT42lVUPvhkBd3uVDG0Iv5WBA2fOuvfgAHNbpx3XU
E9WibbyZMpwmIJSIvlIkzV3COomtTq/2Rv2bYw/9RrRPfQ1cErAomKbGsuDguelv
EgwbVvKkNU/zjuqt/rlhfv0hxcbTeQLWSQFnwkVMN3Q4+t3wv275+YDlMLH3Yah/
eFQ4lJEy8hPjZOQOFVY/qHQhydW5p3YvlJa2BGdFI2ORJjaBBkBFRMO3/I8Wm5lo
mag5OoRJYpkqMwiglm2Wpxh2Q0PvL+64ML1MpsQWNxUu97cCAwEAAaOBojCBnzAJ
BgNVHRMEAjAAMB0GA1UdDgQWBBSZb5UTPj41zPjeO9zLu4AgHv3OSzBRBgNVHSME
SjBIgBTz2mLpYXvILMaH/ez13Q+C0h9DqKEapBgwFjEUMBIGA1UEAwwLdGVhbTQ3
OC1uZXSCFG0Zgcg3uNmtGwr7eNXD4+YQi1xZMBMGA1UdJQQMMAoGCCsGAQUFBwMC
MAsGA1UdDwQEAwIHgDANBgkqhkiG9w0BAQsFAAOCAQEAJU0sg+vTX+X1Py5pAmB4
aFuERqnpefVdeF4kla2Xp0upsIVzP0AutYJlw3NXSUjTtJfibUhi7setXQMIhoAL
lp740oD3DBdD9EyJvmB/x/VOMoDO2ApeWdBRag/n/2UR8MPmRQoPMoPbbhrUbQEU
WIslNtFHhyvMWDx8DPskjdSmbBw2RbT3w7mYn2liwUd3feO/hihayj7yiv9xhsRK
k0NyNaJ/cH44mbbpWUT+lPzMQ6QNIZVQ7KKJYEtr7prr+dX2t63MLezqMwuKW8RI
R+7nca13xy+pId/hVPlHKaAy3nVzhr+ciAa88MTq2JPJ//soib5YiYe95tdbemA1
3A==
-----END CERTIFICATE-----
