Certificate:
    Data:
        Version: 3 (0x2)
        Serial Number:
            5d:d1:a6:bb:f8:1a:95:3d:0a:f8:37:81:60:be:d6:73
        Signature Algorithm: sha256WithRSAEncryption
        Issuer: CN=team452-net
        Validity
            Not Before: Sep 13 02:52:30 2021 GMT
            Not After : Aug 28 02:52:30 2024 GMT
        Subject: CN=team452-server
        Subject Public Key Info:
            Public Key Algorithm: rsaEncryption
                RSA Public-Key: (2048 bit)
                Modulus:
                    00:c3:5f:12:9e:61:9d:92:3f:39:0a:e1:5b:5b:d8:
                    84:0c:75:e7:b5:59:0f:5f:fd:94:f3:35:2d:80:a4:
                    f9:b6:8f:c9:cd:ae:50:d9:00:ad:4c:97:bb:b3:d7:
                    16:31:68:c9:89:e2:8f:76:82:61:01:b1:1b:b5:45:
                    fc:5d:93:15:30:f3:dd:c1:0d:be:3f:0a:85:9b:81:
                    64:75:7b:97:3c:c4:90:b9:af:84:08:76:79:82:f1:
                    9c:83:28:dd:bb:0c:b4:aa:8a:95:a6:84:f1:5a:46:
                    20:9e:db:23:cc:7d:81:4b:b7:45:21:97:cc:a8:de:
                    57:26:bb:8b:35:33:56:05:42:99:7d:1c:03:08:29:
                    52:02:b4:ab:75:5f:41:09:8e:56:d0:8c:17:aa:48:
                    91:ae:9b:63:03:6b:85:b0:19:c2:6c:eb:67:19:04:
                    8c:fe:1a:74:6d:5f:ea:b9:0d:68:8f:31:a2:2a:7b:
                    e5:b4:86:26:46:73:f0:0c:ec:52:7b:bb:69:87:80:
                    e5:f4:04:54:8c:a9:e6:94:38:ad:04:5d:5d:08:24:
                    2e:36:62:b7:80:29:05:6c:f2:00:9c:d8:ae:ce:a0:
                    57:b9:32:0d:ee:ef:c8:22:30:d6:86:ae:54:57:94:
                    db:c3:e1:8e:b1:77:bb:d2:1c:ba:bb:3f:e1:84:ea:
                    d6:eb
                Exponent: 65537 (0x10001)
        X509v3 extensions:
            X509v3 Basic Constraints: 
                CA:FALSE
            X509v3 Subject Key Identifier: 
                0E:E7:31:39:B5:C3:7D:C3:C6:DB:DC:B6:00:92:C1:16:E0:B6:BF:9D
            X509v3 Authority Key Identifier: 
                keyid:BB:99:FD:A4:7C:2F:57:1F:B4:2E:E9:C5:37:2D:85:EA:6F:E2:31:3C
                DirName:/CN=team452-net
                serial:79:E4:7E:E1:6F:50:8B:B1:F2:66:FE:B7:4B:3D:42:4B:C9:D6:7D:D7

            X509v3 Extended Key Usage: 
                TLS Web Server Authentication
            X509v3 Key Usage: 
                Digital Signature, Key Encipherment
            X509v3 Subject Alternative Name: 
                DNS:team452-server
    Signature Algorithm: sha256WithRSAEncryption
         b5:b8:db:0c:74:2c:56:90:1a:36:76:90:30:ff:fd:7a:4d:3a:
         53:03:12:9e:96:3f:2a:92:61:3a:95:9f:09:43:0b:5c:4f:9f:
         00:52:fe:23:eb:e7:8d:11:f1:f1:33:61:b6:b9:e0:ee:af:55:
         67:41:b6:81:1e:e1:82:bd:8e:88:72:38:fa:0c:1b:2a:09:b0:
         05:a2:5c:b1:38:56:09:d4:97:20:1b:d9:db:f2:74:51:6c:69:
         5c:89:45:96:96:48:b9:ef:bf:8b:37:17:49:c3:56:9b:ab:fc:
         c9:17:37:7b:8a:d2:dd:4c:88:f0:14:64:61:72:59:2f:78:45:
         5a:4f:6f:57:44:be:a1:4b:c4:07:50:5b:4d:e9:43:f9:be:70:
         55:fa:8c:2d:17:56:6a:5a:70:55:47:bf:19:97:a5:d4:fc:2d:
         42:8b:49:6b:e3:61:d9:83:06:d8:62:21:1f:50:35:c0:4c:60:
         e8:03:89:66:4f:90:a8:4e:5e:d9:ca:18:fd:83:93:37:ef:7f:
         88:a5:80:18:6e:c6:44:ef:c6:4d:28:ec:ec:3f:30:ad:7b:63:
         f8:e5:dc:41:45:17:b1:1c:8b:f1:95:b0:f2:ed:62:e2:3f:2c:
         74:2f:84:ba:ca:a0:41:60:d7:9d:b8:81:ba:13:39:4a:2f:a4:
         d2:20:81:64
-----BEGIN CERTIFICATE-----
MIIDdzCCAl+gAwIBAgIQXdGmu/galT0K+DeBYL7WczANBgkqhkiG9w0BAQsFADAW
MRQwEgYDVQQDDAt0ZWFtNDUyLW5ldDAeFw0yMTA5MTMwMjUyMzBaFw0yNDA4Mjgw
MjUyMzBaMBkxFzAVBgNVBAMMDnRlYW00NTItc2VydmVyMIIBIjANBgkqhkiG9w0B
AQEFAAOCAQ8AMIIBCgKCAQEAw18SnmGdkj85CuFbW9iEDHXntVkPX/2U8zUtgKT5
to/Jza5Q2QCtTJe7s9cWMWjJieKPdoJhAbEbtUX8XZMVMPPdwQ2+PwqFm4FkdXuX
PMSQua+ECHZ5gvGcgyjduwy0qoqVpoTxWkYgntsjzH2BS7dFIZfMqN5XJruLNTNW
BUKZfRwDCClSArSrdV9BCY5W0IwXqkiRrptjA2uFsBnCbOtnGQSM/hp0bV/quQ1o
jzGiKnvltIYmRnPwDOxSe7tph4Dl9ARUjKnmlDitBF1dCCQuNmK3gCkFbPIAnNiu
zqBXuTIN7u/IIjDWhq5UV5Tbw+GOsXe70hy6uz/hhOrW6wIDAQABo4G9MIG6MAkG
A1UdEwQCMAAwHQYDVR0OBBYEFA7nMTm1w33DxtvctgCSwRbgtr+dMFEGA1UdIwRK
MEiAFLuZ/aR8L1cftC7pxTcthepv4jE8oRqkGDAWMRQwEgYDVQQDDAt0ZWFtNDUy
LW5ldIIUeeR+4W9Qi7HyZv63Sz1CS8nWfdcwEwYDVR0lBAwwCgYIKwYBBQUHAwEw
CwYDVR0PBAQDAgWgMBkGA1UdEQQSMBCCDnRlYW00NTItc2VydmVyMA0GCSqGSIb3
DQEBCwUAA4IBAQC1uNsMdCxWkBo2dpAw//16TTpTAxKelj8qkmE6lZ8JQwtcT58A
Uv4j6+eNEfHxM2G2ueDur1VnQbaBHuGCvY6Icjj6DBsqCbAFolyxOFYJ1JcgG9nb
8nRRbGlciUWWlki577+LNxdJw1abq/zJFzd7itLdTIjwFGRhclkveEVaT29XRL6h
S8QHUFtN6UP5vnBV+owtF1ZqWnBVR78Zl6XU/C1Ci0lr42HZgwbYYiEfUDXATGDo
A4lmT5CoTl7Zyhj9g5M373+IpYAYbsZE78ZNKOzsPzCte2P45dxBRRexHIvxlbDy
7WLiPyx0L4S6yqBBYNeduIG6EzlKL6TSIIFk
-----END CERTIFICATE-----
