Certificate:
    Data:
        Version: 3 (0x2)
        Serial Number:
            3e:04:35:a6:76:40:26:4b:db:69:0d:84:7f:b8:f5:e6
        Signature Algorithm: sha256WithRSAEncryption
        Issuer: CN=team321-net
        Validity
            Not Before: Sep 13 01:38:32 2021 GMT
            Not After : Aug 28 01:38:32 2024 GMT
        Subject: CN=team321-server
        Subject Public Key Info:
            Public Key Algorithm: rsaEncryption
                RSA Public-Key: (2048 bit)
                Modulus:
                    00:9f:77:77:16:1f:70:0d:d4:71:d1:06:3b:4e:f7:
                    f0:85:54:fb:33:5b:b8:e7:00:b9:25:74:3b:81:ff:
                    bb:d4:91:42:be:50:14:8c:ed:34:af:ea:d8:62:f8:
                    c5:c4:77:43:1e:b4:cb:90:42:b7:a4:38:bf:a1:58:
                    3e:a3:c4:13:f3:13:0e:bf:20:c8:14:55:66:b7:2d:
                    e5:23:2f:83:fd:12:fa:fa:06:b7:3e:71:30:26:59:
                    e6:42:ac:a3:71:58:71:99:1c:09:bb:09:88:ed:ee:
                    46:00:03:ef:ad:a7:78:8d:5a:31:36:2b:aa:44:87:
                    03:1c:22:f6:a2:e2:87:d2:4b:b8:1d:5b:f6:31:96:
                    2c:cc:68:7c:73:91:6f:a4:bf:3f:cb:69:78:d8:e8:
                    e4:fb:a2:e9:48:bd:e2:ed:d6:ae:57:6b:17:39:66:
                    49:8e:d7:13:81:48:87:32:ad:c3:04:32:69:41:67:
                    8c:8f:45:ad:95:22:48:ed:04:ac:11:3b:ab:96:1b:
                    08:23:5b:b7:6c:c1:72:7c:98:98:cc:ae:89:cc:87:
                    5f:78:92:a3:77:14:7f:7f:13:11:26:98:19:66:59:
                    f4:ec:09:73:ca:92:7a:11:ca:4d:90:a4:33:dd:d8:
                    ef:88:c7:a2:18:92:3e:c6:e8:5d:06:f6:df:d9:1e:
                    4c:93
                Exponent: 65537 (0x10001)
        X509v3 extensions:
            X509v3 Basic Constraints: 
                CA:FALSE
            X509v3 Subject Key Identifier: 
                D1:7A:05:70:1E:D4:82:59:CD:88:1D:DA:C1:39:30:A6:B6:0B:90:7E
            X509v3 Authority Key Identifier: 
                keyid:45:55:48:13:CE:34:D8:F2:5D:4F:58:D4:DF:15:32:DC:0B:95:A8:F3
                DirName:/CN=team321-net
                serial:29:A3:C2:7A:F2:CB:60:2B:51:2B:58:32:8C:FC:58:62:85:E5:5F:20

            X509v3 Extended Key Usage: 
                TLS Web Server Authentication
            X509v3 Key Usage: 
                Digital Signature, Key Encipherment
            X509v3 Subject Alternative Name: 
                DNS:team321-server
    Signature Algorithm: sha256WithRSAEncryption
         4c:50:1c:29:b2:d5:82:bd:62:96:62:76:2b:48:df:ed:98:90:
         3c:86:57:95:9a:3e:53:14:82:81:8c:0d:03:83:1a:40:e2:8e:
         da:45:f7:8d:76:e9:66:ee:f2:8a:37:75:f5:6c:49:da:68:b2:
         39:e7:b7:da:8d:5c:f7:80:67:70:e4:ed:4f:21:b0:b9:8a:78:
         0e:52:d7:af:fe:f3:d3:a6:36:14:11:7b:8c:c4:3c:bd:cd:a9:
         4a:50:10:01:9e:c6:b8:ff:6b:12:11:29:c2:1e:a9:a1:58:a4:
         e3:ac:c6:19:3f:50:46:98:06:3d:2a:2d:fc:06:e0:50:5a:d2:
         b7:dc:e2:69:1a:cb:ec:7b:a5:5c:eb:7d:42:69:46:ff:e2:e1:
         a3:1a:93:c3:52:7a:8d:2a:eb:8a:2b:81:a0:fa:b1:bd:e9:2e:
         e7:15:7c:68:47:aa:38:48:75:25:48:16:17:2c:00:05:b1:6a:
         25:18:bf:78:63:93:35:7d:3c:a6:b0:16:8c:53:cc:6b:ce:87:
         e8:c0:26:ca:ad:97:3d:43:40:a7:66:47:e1:82:a9:88:fc:89:
         26:f7:03:78:30:18:84:0d:c9:13:a5:4c:17:47:9b:3d:05:c6:
         d4:9a:b4:aa:7c:7f:7b:f2:f1:2e:ab:b3:80:8f:4b:7f:e2:d8:
         99:42:59:6d
-----BEGIN CERTIFICATE-----
MIIDdzCCAl+gAwIBAgIQPgQ1pnZAJkvbaQ2Ef7j15jANBgkqhkiG9w0BAQsFADAW
MRQwEgYDVQQDDAt0ZWFtMzIxLW5ldDAeFw0yMTA5MTMwMTM4MzJaFw0yNDA4Mjgw
MTM4MzJaMBkxFzAVBgNVBAMMDnRlYW0zMjEtc2VydmVyMIIBIjANBgkqhkiG9w0B
AQEFAAOCAQ8AMIIBCgKCAQEAn3d3Fh9wDdRx0QY7TvfwhVT7M1u45wC5JXQ7gf+7
1JFCvlAUjO00r+rYYvjFxHdDHrTLkEK3pDi/oVg+o8QT8xMOvyDIFFVmty3lIy+D
/RL6+ga3PnEwJlnmQqyjcVhxmRwJuwmI7e5GAAPvrad4jVoxNiuqRIcDHCL2ouKH
0ku4HVv2MZYszGh8c5FvpL8/y2l42Ojk+6LpSL3i7dauV2sXOWZJjtcTgUiHMq3D
BDJpQWeMj0WtlSJI7QSsETurlhsII1u3bMFyfJiYzK6JzIdfeJKjdxR/fxMRJpgZ
Zln07AlzypJ6EcpNkKQz3djviMeiGJI+xuhdBvbf2R5MkwIDAQABo4G9MIG6MAkG
A1UdEwQCMAAwHQYDVR0OBBYEFNF6BXAe1IJZzYgd2sE5MKa2C5B+MFEGA1UdIwRK
MEiAFEVVSBPONNjyXU9Y1N8VMtwLlajzoRqkGDAWMRQwEgYDVQQDDAt0ZWFtMzIx
LW5ldIIUKaPCevLLYCtRK1gyjPxYYoXlXyAwEwYDVR0lBAwwCgYIKwYBBQUHAwEw
CwYDVR0PBAQDAgWgMBkGA1UdEQQSMBCCDnRlYW0zMjEtc2VydmVyMA0GCSqGSIb3
DQEBCwUAA4IBAQBMUBwpstWCvWKWYnYrSN/tmJA8hleVmj5TFIKBjA0DgxpA4o7a
RfeNdulm7vKKN3X1bEnaaLI557fajVz3gGdw5O1PIbC5ingOUtev/vPTpjYUEXuM
xDy9zalKUBABnsa4/2sSESnCHqmhWKTjrMYZP1BGmAY9Ki38BuBQWtK33OJpGsvs
e6Vc631CaUb/4uGjGpPDUnqNKuuKK4Gg+rG96S7nFXxoR6o4SHUlSBYXLAAFsWol
GL94Y5M1fTymsBaMU8xrzofowCbKrZc9Q0CnZkfhgqmI/Ikm9wN4MBiEDckTpUwX
R5s9BcbUmrSqfH978vEuq7OAj0t/4tiZQllt
-----END CERTIFICATE-----
