Certificate:
    Data:
        Version: 3 (0x2)
        Serial Number:
            6d:ee:57:37:1d:ae:1a:a8:62:e4:fb:de:39:7b:2b:2c
        Signature Algorithm: sha256WithRSAEncryption
        Issuer: CN=team475-net
        Validity
            Not Before: Sep 13 02:56:48 2021 GMT
            Not After : Aug 28 02:56:48 2024 GMT
        Subject: CN=team475-server
        Subject Public Key Info:
            Public Key Algorithm: rsaEncryption
                RSA Public-Key: (2048 bit)
                Modulus:
                    00:c8:88:76:35:e8:60:86:ed:1b:7f:6d:96:f3:71:
                    50:54:b8:d9:74:ff:fa:87:b0:4b:ad:3f:bb:85:30:
                    57:a0:49:f9:f9:f2:7c:d0:02:da:b3:24:a3:b5:94:
                    aa:ae:d1:4f:29:f5:89:9e:b0:e4:c6:bc:e7:b1:89:
                    2f:2b:f0:f1:25:bb:22:94:60:5a:0c:2c:3c:d2:ec:
                    51:8b:1d:b5:78:0a:bb:40:5b:ea:dd:ad:90:a8:5b:
                    ef:98:e7:12:b4:04:de:ee:43:06:19:12:06:2d:07:
                    da:2f:e5:9a:a9:9a:9a:ed:c1:a1:b6:b8:2f:db:72:
                    24:86:cd:5a:d0:c5:d4:47:45:8b:6e:1d:0e:d8:cd:
                    8e:b6:ba:91:15:e7:ed:e6:b5:56:27:e1:a4:36:5b:
                    ca:89:fa:fb:70:a8:a7:d5:6b:f0:34:c4:ba:a4:8f:
                    a2:f3:86:06:57:dd:81:8e:ed:cc:61:a0:0b:72:a8:
                    b3:1f:dc:1f:16:58:56:88:e0:70:f1:a0:00:51:6f:
                    c5:80:d3:03:0a:fd:01:13:1f:9b:91:82:3d:ee:a7:
                    ba:e3:dd:f3:e5:7c:9b:1b:b3:95:7f:25:19:78:35:
                    88:77:ef:b2:ea:9f:38:ac:80:be:3b:0d:8f:8a:a0:
                    72:3d:47:26:a3:d0:03:4d:08:be:0a:62:3d:41:9c:
                    f7:17
                Exponent: 65537 (0x10001)
        X509v3 extensions:
            X509v3 Basic Constraints: 
                CA:FALSE
            X509v3 Subject Key Identifier: 
                24:BC:9C:6C:11:88:B5:71:9E:D6:DE:A1:B0:A6:84:81:5C:1F:A3:3E
            X509v3 Authority Key Identifier: 
                keyid:52:AC:B8:10:79:E1:16:03:8B:43:44:13:5D:06:CC:71:08:15:0B:87
                DirName:/CN=team475-net
                serial:79:26:11:65:48:3D:64:F5:4A:81:13:08:5A:78:92:D3:22:7F:12:6C

            X509v3 Extended Key Usage: 
                TLS Web Server Authentication
            X509v3 Key Usage: 
                Digital Signature, Key Encipherment
            X509v3 Subject Alternative Name: 
                DNS:team475-server
    Signature Algorithm: sha256WithRSAEncryption
         40:a9:06:23:f4:1e:37:74:56:d7:35:30:09:eb:95:45:98:57:
         07:c1:f4:02:76:e1:41:97:ea:55:34:06:81:83:ae:07:91:c7:
         29:5d:17:a8:5d:ee:7e:cb:93:f3:3b:41:b0:0a:c2:6b:0f:ec:
         d4:18:2d:54:46:13:23:2c:b2:4e:e9:08:6e:08:96:f2:e8:98:
         44:a1:6f:f1:69:3e:f4:d1:a4:66:0f:20:fd:5e:c9:f6:32:00:
         28:d3:b0:5a:f3:c8:d0:77:d0:f5:7f:c2:9b:ef:3c:86:48:33:
         e1:30:fa:03:ef:71:7e:69:35:67:91:8b:d9:0c:c8:80:7b:94:
         95:5c:af:b2:5a:19:a8:e7:28:b0:fd:a9:6d:df:77:2d:bb:4b:
         38:12:28:92:3e:40:1c:44:52:2c:dc:34:8b:a9:4e:da:a9:19:
         42:0d:9c:49:9e:9b:8a:1a:b1:89:b1:c8:a4:fe:08:e6:05:3f:
         b9:9f:57:df:5c:cb:0b:ee:c6:f1:83:16:1d:36:fc:51:6b:c0:
         36:17:f3:af:eb:ab:c1:52:1b:10:0c:9c:6e:b4:13:a8:5a:2e:
         db:19:7e:29:97:b2:90:25:11:9c:c9:51:f3:35:28:fa:f6:06:
         cc:e6:b0:6e:5a:56:e2:a8:40:58:7a:d1:ea:9f:93:4a:e6:16:
         13:ab:a5:dc
-----BEGIN CERTIFICATE-----
MIIDdzCCAl+gAwIBAgIQbe5XNx2uGqhi5PveOXsrLDANBgkqhkiG9w0BAQsFADAW
MRQwEgYDVQQDDAt0ZWFtNDc1LW5ldDAeFw0yMTA5MTMwMjU2NDhaFw0yNDA4Mjgw
MjU2NDhaMBkxFzAVBgNVBAMMDnRlYW00NzUtc2VydmVyMIIBIjANBgkqhkiG9w0B
AQEFAAOCAQ8AMIIBCgKCAQEAyIh2Nehghu0bf22W83FQVLjZdP/6h7BLrT+7hTBX
oEn5+fJ80ALasySjtZSqrtFPKfWJnrDkxrznsYkvK/DxJbsilGBaDCw80uxRix21
eAq7QFvq3a2QqFvvmOcStATe7kMGGRIGLQfaL+WaqZqa7cGhtrgv23Ikhs1a0MXU
R0WLbh0O2M2OtrqRFeft5rVWJ+GkNlvKifr7cKin1WvwNMS6pI+i84YGV92Bju3M
YaALcqizH9wfFlhWiOBw8aAAUW/FgNMDCv0BEx+bkYI97qe6493z5XybG7OVfyUZ
eDWId++y6p84rIC+Ow2PiqByPUcmo9ADTQi+CmI9QZz3FwIDAQABo4G9MIG6MAkG
A1UdEwQCMAAwHQYDVR0OBBYEFCS8nGwRiLVxntbeobCmhIFcH6M+MFEGA1UdIwRK
MEiAFFKsuBB54RYDi0NEE10GzHEIFQuHoRqkGDAWMRQwEgYDVQQDDAt0ZWFtNDc1
LW5ldIIUeSYRZUg9ZPVKgRMIWniS0yJ/EmwwEwYDVR0lBAwwCgYIKwYBBQUHAwEw
CwYDVR0PBAQDAgWgMBkGA1UdEQQSMBCCDnRlYW00NzUtc2VydmVyMA0GCSqGSIb3
DQEBCwUAA4IBAQBAqQYj9B43dFbXNTAJ65VFmFcHwfQCduFBl+pVNAaBg64Hkccp
XReoXe5+y5PzO0GwCsJrD+zUGC1URhMjLLJO6QhuCJby6JhEoW/xaT700aRmDyD9
Xsn2MgAo07Ba88jQd9D1f8Kb7zyGSDPhMPoD73F+aTVnkYvZDMiAe5SVXK+yWhmo
5yiw/alt33ctu0s4EiiSPkAcRFIs3DSLqU7aqRlCDZxJnpuKGrGJscik/gjmBT+5
n1ffXMsL7sbxgxYdNvxRa8A2F/Ov66vBUhsQDJxutBOoWi7bGX4pl7KQJRGcyVHz
NSj69gbM5rBuWlbiqEBYetHqn5NK5hYTq6Xc
-----END CERTIFICATE-----
