Certificate:
    Data:
        Version: 3 (0x2)
        Serial Number:
            0e:db:c4:73:a7:5d:0d:1b:1c:e8:6c:64:c5:86:e6:c3
        Signature Algorithm: sha256WithRSAEncryption
        Issuer: CN=team498-net
        Validity
            Not Before: Sep 13 03:16:55 2021 GMT
            Not After : Aug 28 03:16:55 2024 GMT
        Subject: CN=team498-server
        Subject Public Key Info:
            Public Key Algorithm: rsaEncryption
                RSA Public-Key: (2048 bit)
                Modulus:
                    00:ae:0d:31:61:22:7d:18:59:21:ce:5c:82:a0:7e:
                    81:c9:8a:a1:81:13:99:db:f0:f7:1e:9b:ec:59:0d:
                    d2:0c:a7:d9:76:95:5d:ec:9c:0a:90:5b:bb:2c:f3:
                    9d:8b:32:31:7c:ff:da:86:b8:d4:c3:dc:14:6e:10:
                    b5:f7:d5:fb:6a:fc:a5:6b:78:70:7c:82:9b:a7:3e:
                    4a:e4:f1:3c:2c:5e:50:e5:d5:b9:88:8d:ba:c8:4e:
                    a1:e4:34:f2:ff:df:95:d7:2d:c2:8a:64:5a:4c:5e:
                    c2:16:13:85:3c:78:05:bf:7e:f5:66:22:3b:a3:e0:
                    10:04:f3:7f:2d:b8:52:40:7f:e2:a9:9a:63:77:98:
                    7c:08:43:ec:99:59:bd:df:fd:aa:fa:00:33:d6:36:
                    d4:dd:1b:7a:e5:aa:79:dc:cb:fc:62:62:c0:50:86:
                    c4:9e:ba:a9:10:22:c5:b3:89:b0:d3:66:db:d6:92:
                    07:f8:04:45:f6:38:a8:cb:71:ff:19:4d:e7:68:da:
                    27:1d:5a:f5:7c:21:d8:c2:42:29:10:d8:46:27:55:
                    66:e5:62:1f:e4:8a:39:d1:f7:d9:15:8d:09:b8:d3:
                    fc:bd:f4:68:70:9a:c2:b3:6a:46:a5:97:d6:db:72:
                    be:74:0c:8f:09:6e:b5:5c:96:13:33:22:61:14:da:
                    23:35
                Exponent: 65537 (0x10001)
        X509v3 extensions:
            X509v3 Basic Constraints: 
                CA:FALSE
            X509v3 Subject Key Identifier: 
                6F:DA:87:6E:74:F1:38:98:84:FA:15:94:90:14:6B:55:6D:78:FC:91
            X509v3 Authority Key Identifier: 
                keyid:D8:E4:39:41:CF:A7:F0:C2:E8:38:22:C4:07:23:E9:EA:60:E7:D4:16
                DirName:/CN=team498-net
                serial:46:6D:A6:E4:79:EF:3E:8C:AF:B4:80:3C:23:CD:A5:06:AC:9B:D7:42

            X509v3 Extended Key Usage: 
                TLS Web Server Authentication
            X509v3 Key Usage: 
                Digital Signature, Key Encipherment
            X509v3 Subject Alternative Name: 
                DNS:team498-server
    Signature Algorithm: sha256WithRSAEncryption
         36:07:c4:b2:d7:8b:49:22:f6:f0:ef:70:3d:eb:3b:bb:84:bd:
         c0:25:60:db:b6:61:84:c1:05:d1:6f:8b:b5:c3:39:39:b5:b2:
         6b:5a:38:e4:b3:fd:9f:6a:a8:86:8b:c3:f3:09:87:9f:54:57:
         75:03:40:2f:fe:2e:01:0c:5b:e4:d1:b5:d3:7f:8e:b1:d2:46:
         aa:43:5a:d4:1a:24:2b:14:97:48:5e:59:c6:a4:21:62:70:d8:
         c4:01:a1:de:5b:92:32:45:39:0b:f8:eb:c1:49:f4:cc:ae:1e:
         e8:a0:d6:e6:26:a0:00:cd:19:5a:f2:90:73:d4:41:fd:4a:05:
         31:26:60:ed:b1:8b:8f:bb:a2:0c:70:ad:ab:0b:ba:82:53:cd:
         0c:23:43:2d:32:48:84:ef:b4:ed:e0:a1:b6:6c:83:da:61:be:
         60:61:7c:45:99:90:84:9e:b1:0f:63:f5:95:e1:28:7f:4d:6c:
         a3:af:13:11:5b:4e:8b:d1:f2:5c:9f:b6:ba:55:fc:9a:6f:36:
         d8:a8:a7:ae:2a:7c:a2:c1:35:38:6b:95:42:fd:a4:9f:43:b9:
         bd:43:d2:df:e3:84:26:d2:d6:d8:bb:12:f7:9f:45:c4:b2:0d:
         4e:33:69:62:80:e3:92:4f:90:8a:e3:8e:a1:80:4c:08:c9:4a:
         a8:34:ea:ac
-----BEGIN CERTIFICATE-----
MIIDdzCCAl+gAwIBAgIQDtvEc6ddDRsc6GxkxYbmwzANBgkqhkiG9w0BAQsFADAW
MRQwEgYDVQQDDAt0ZWFtNDk4LW5ldDAeFw0yMTA5MTMwMzE2NTVaFw0yNDA4Mjgw
MzE2NTVaMBkxFzAVBgNVBAMMDnRlYW00OTgtc2VydmVyMIIBIjANBgkqhkiG9w0B
AQEFAAOCAQ8AMIIBCgKCAQEArg0xYSJ9GFkhzlyCoH6ByYqhgROZ2/D3HpvsWQ3S
DKfZdpVd7JwKkFu7LPOdizIxfP/ahrjUw9wUbhC199X7avyla3hwfIKbpz5K5PE8
LF5Q5dW5iI26yE6h5DTy/9+V1y3CimRaTF7CFhOFPHgFv371ZiI7o+AQBPN/LbhS
QH/iqZpjd5h8CEPsmVm93/2q+gAz1jbU3Rt65ap53Mv8YmLAUIbEnrqpECLFs4mw
02bb1pIH+ARF9jioy3H/GU3naNonHVr1fCHYwkIpENhGJ1Vm5WIf5Io50ffZFY0J
uNP8vfRocJrCs2pGpZfW23K+dAyPCW61XJYTMyJhFNojNQIDAQABo4G9MIG6MAkG
A1UdEwQCMAAwHQYDVR0OBBYEFG/ah2508TiYhPoVlJAUa1VtePyRMFEGA1UdIwRK
MEiAFNjkOUHPp/DC6DgixAcj6epg59QWoRqkGDAWMRQwEgYDVQQDDAt0ZWFtNDk4
LW5ldIIURm2m5HnvPoyvtIA8I82lBqyb10IwEwYDVR0lBAwwCgYIKwYBBQUHAwEw
CwYDVR0PBAQDAgWgMBkGA1UdEQQSMBCCDnRlYW00OTgtc2VydmVyMA0GCSqGSIb3
DQEBCwUAA4IBAQA2B8Sy14tJIvbw73A96zu7hL3AJWDbtmGEwQXRb4u1wzk5tbJr
Wjjks/2faqiGi8PzCYefVFd1A0Av/i4BDFvk0bXTf46x0kaqQ1rUGiQrFJdIXlnG
pCFicNjEAaHeW5IyRTkL+OvBSfTMrh7ooNbmJqAAzRla8pBz1EH9SgUxJmDtsYuP
u6IMcK2rC7qCU80MI0MtMkiE77Tt4KG2bIPaYb5gYXxFmZCEnrEPY/WV4Sh/TWyj
rxMRW06L0fJcn7a6VfyabzbYqKeuKnyiwTU4a5VC/aSfQ7m9Q9Lf44Qm0tbYuxL3
n0XEsg1OM2ligOOST5CK446hgEwIyUqoNOqs
-----END CERTIFICATE-----
