Certificate:
    Data:
        Version: 3 (0x2)
        Serial Number:
            4a:77:cc:30:e1:d7:65:fb:0f:d5:76:49:fd:e2:89:9c
        Signature Algorithm: sha256WithRSAEncryption
        Issuer: CN=team431-net
        Validity
            Not Before: Sep 13 02:33:24 2021 GMT
            Not After : Aug 28 02:33:24 2024 GMT
        Subject: CN=team431-server
        Subject Public Key Info:
            Public Key Algorithm: rsaEncryption
                RSA Public-Key: (2048 bit)
                Modulus:
                    00:d3:a7:16:7c:fb:00:c7:9e:65:14:4c:46:8d:87:
                    09:2b:e9:93:2d:f6:11:ed:08:a0:04:2e:56:cc:1d:
                    62:cb:dc:b5:c1:ff:5f:69:f6:d2:00:b0:42:d4:d2:
                    c9:ee:e0:43:83:3d:50:be:2e:c2:e9:e4:85:7d:3b:
                    f6:89:bf:ec:2b:05:86:9f:bc:cf:2b:1c:13:a0:e5:
                    05:38:4d:ab:c1:d7:fb:a9:60:c7:f8:a8:f1:41:ab:
                    7d:f6:60:d8:95:c6:77:61:b1:f2:f2:55:ad:67:20:
                    08:cc:45:b4:9d:d5:09:31:98:95:c4:42:37:15:c3:
                    83:da:b6:17:2b:25:56:f6:0a:0a:5f:e7:4d:6e:07:
                    47:b8:38:70:54:b4:80:d2:b7:78:65:6b:a1:bd:9d:
                    a1:a6:e9:23:0a:a4:b3:9c:07:29:2f:37:29:b3:7c:
                    c9:5b:d3:35:79:44:0b:8d:47:85:be:2f:0e:90:1c:
                    e7:16:54:e3:ad:a0:73:94:d5:5e:a4:e6:cb:a1:bd:
                    71:65:60:80:b6:84:8b:25:43:19:d3:aa:66:d8:81:
                    41:f0:fb:e2:59:92:38:b5:c9:ff:0d:57:43:24:53:
                    95:02:0f:2b:57:7d:65:12:4d:e1:98:36:42:e1:5c:
                    cc:fa:46:60:ed:09:6f:a9:e0:6f:7b:a9:c4:4f:dd:
                    b1:b3
                Exponent: 65537 (0x10001)
        X509v3 extensions:
            X509v3 Basic Constraints: 
                CA:FALSE
            X509v3 Subject Key Identifier: 
                BB:42:A1:DA:AC:54:09:BE:6D:63:B5:3D:A6:55:9F:C6:9E:1C:82:72
            X509v3 Authority Key Identifier: 
                keyid:E2:C8:D9:EC:4C:06:9B:3D:6F:B9:E4:19:B3:DB:25:0E:FC:3E:4D:92
                DirName:/CN=team431-net
                serial:13:E9:A1:89:C1:01:95:B9:0B:E6:42:54:48:0F:BA:15:9B:B7:90:16

            X509v3 Extended Key Usage: 
                TLS Web Server Authentication
            X509v3 Key Usage: 
                Digital Signature, Key Encipherment
            X509v3 Subject Alternative Name: 
                DNS:team431-server
    Signature Algorithm: sha256WithRSAEncryption
         90:73:fd:50:9f:cd:fd:91:ff:69:6d:ad:bc:ef:2c:ea:c0:f9:
         64:c6:84:c9:4a:12:5e:71:14:14:ef:b3:9d:b6:28:e9:07:57:
         8d:63:ff:16:db:d6:9c:2a:40:b3:2c:77:b3:86:5c:10:dd:29:
         98:77:9c:fd:bf:3f:a0:d1:66:c5:38:5b:dc:7b:34:46:cb:1e:
         0c:09:26:04:36:34:50:3a:e6:7a:54:db:8f:90:20:aa:7d:3b:
         3d:6f:56:4e:13:d6:23:3f:18:83:81:c5:35:00:7d:d4:89:bf:
         5b:8d:be:85:a8:bd:48:61:03:c8:be:a9:64:06:26:f3:8e:48:
         c6:ce:8b:9e:60:c3:5d:e8:2e:37:1d:53:fd:a7:53:97:7b:6a:
         a6:88:20:af:38:b2:05:54:de:1d:bc:14:46:18:ef:f6:e4:91:
         69:84:be:fc:0f:85:db:09:81:ca:a8:6c:2b:6f:4c:1c:af:45:
         61:df:11:04:fc:ef:db:4b:18:d8:a5:7b:ed:46:3c:eb:2d:8c:
         74:ab:1f:a9:27:2f:4a:8f:29:1c:b8:c0:89:88:71:13:87:6f:
         8b:8c:6f:8a:2a:14:1f:9b:ec:7d:1d:94:7f:b1:38:1c:e7:5a:
         10:43:f0:bc:9f:65:e4:49:3b:79:70:0c:6c:ca:a9:63:a3:67:
         44:3a:eb:8c
-----BEGIN CERTIFICATE-----
MIIDdzCCAl+gAwIBAgIQSnfMMOHXZfsP1XZJ/eKJnDANBgkqhkiG9w0BAQsFADAW
MRQwEgYDVQQDDAt0ZWFtNDMxLW5ldDAeFw0yMTA5MTMwMjMzMjRaFw0yNDA4Mjgw
MjMzMjRaMBkxFzAVBgNVBAMMDnRlYW00MzEtc2VydmVyMIIBIjANBgkqhkiG9w0B
AQEFAAOCAQ8AMIIBCgKCAQEA06cWfPsAx55lFExGjYcJK+mTLfYR7QigBC5WzB1i
y9y1wf9fafbSALBC1NLJ7uBDgz1Qvi7C6eSFfTv2ib/sKwWGn7zPKxwToOUFOE2r
wdf7qWDH+KjxQat99mDYlcZ3YbHy8lWtZyAIzEW0ndUJMZiVxEI3FcOD2rYXKyVW
9goKX+dNbgdHuDhwVLSA0rd4ZWuhvZ2hpukjCqSznAcpLzcps3zJW9M1eUQLjUeF
vi8OkBznFlTjraBzlNVepObLob1xZWCAtoSLJUMZ06pm2IFB8PviWZI4tcn/DVdD
JFOVAg8rV31lEk3hmDZC4VzM+kZg7QlvqeBve6nET92xswIDAQABo4G9MIG6MAkG
A1UdEwQCMAAwHQYDVR0OBBYEFLtCodqsVAm+bWO1PaZVn8aeHIJyMFEGA1UdIwRK
MEiAFOLI2exMBps9b7nkGbPbJQ78Pk2SoRqkGDAWMRQwEgYDVQQDDAt0ZWFtNDMx
LW5ldIIUE+mhicEBlbkL5kJUSA+6FZu3kBYwEwYDVR0lBAwwCgYIKwYBBQUHAwEw
CwYDVR0PBAQDAgWgMBkGA1UdEQQSMBCCDnRlYW00MzEtc2VydmVyMA0GCSqGSIb3
DQEBCwUAA4IBAQCQc/1Qn839kf9pba287yzqwPlkxoTJShJecRQU77OdtijpB1eN
Y/8W29acKkCzLHezhlwQ3SmYd5z9vz+g0WbFOFvcezRGyx4MCSYENjRQOuZ6VNuP
kCCqfTs9b1ZOE9YjPxiDgcU1AH3Uib9bjb6FqL1IYQPIvqlkBibzjkjGzoueYMNd
6C43HVP9p1OXe2qmiCCvOLIFVN4dvBRGGO/25JFphL78D4XbCYHKqGwrb0wcr0Vh
3xEE/O/bSxjYpXvtRjzrLYx0qx+pJy9KjykcuMCJiHETh2+LjG+KKhQfm+x9HZR/
sTgc51oQQ/C8n2XkSTt5cAxsyqljo2dEOuuM
-----END CERTIFICATE-----
