Certificate:
    Data:
        Version: 3 (0x2)
        Serial Number:
            75:fe:5a:e3:94:2d:29:e8:c9:9c:06:0d:78:59:81:f4
        Signature Algorithm: sha256WithRSAEncryption
        Issuer: CN=team621-net
        Validity
            Not Before: Sep 13 04:10:41 2021 GMT
            Not After : Aug 28 04:10:41 2024 GMT
        Subject: CN=team621-client
        Subject Public Key Info:
            Public Key Algorithm: rsaEncryption
                RSA Public-Key: (2048 bit)
                Modulus:
                    00:be:df:50:20:c5:38:78:5b:c8:9c:d0:0d:c0:39:
                    53:2c:bc:79:b4:1c:6b:a7:f4:75:81:a7:7f:2b:fa:
                    18:24:ea:cb:c8:4c:46:f6:dd:a3:0e:e4:d9:76:1d:
                    25:b2:11:76:4d:41:21:12:4c:4c:17:48:69:04:06:
                    de:5c:ae:e0:36:54:3b:f8:ca:01:38:2a:8c:b9:34:
                    e7:b7:69:7e:df:48:98:4e:c9:66:49:57:4f:0c:a7:
                    da:85:f0:f9:2a:ef:7e:e2:b8:61:75:be:54:c6:b2:
                    e6:44:f4:16:aa:81:67:14:00:58:09:6b:d8:53:2b:
                    2e:e6:e4:96:41:9e:6a:11:c7:78:b6:d6:b3:c9:8d:
                    bc:e9:12:5f:b5:1f:04:25:b3:0b:d9:3b:8a:b4:37:
                    cd:3b:19:10:32:4f:2a:13:4d:e0:b7:79:8c:cc:af:
                    73:f4:d3:19:e6:bb:90:41:c5:c6:19:c3:05:ea:5f:
                    99:78:d9:8f:71:50:c4:61:e6:9b:83:a7:9d:2b:67:
                    87:c9:aa:bd:d4:b2:94:ec:98:d4:b5:1c:10:95:c8:
                    2f:d6:52:6f:a2:a8:c5:33:6b:2e:4e:68:0b:7d:58:
                    07:46:b2:2b:3b:64:d1:5c:b1:d8:97:ea:27:bb:36:
                    f1:79:0f:62:2e:fc:5e:2e:37:4f:6a:79:e9:d5:cf:
                    fd:ab
                Exponent: 65537 (0x10001)
        X509v3 extensions:
            X509v3 Basic Constraints: 
                CA:FALSE
            X509v3 Subject Key Identifier: 
                AD:07:B7:B1:85:62:CF:24:00:F8:9A:F8:2B:85:8C:DB:1F:E7:9A:0D
            X509v3 Authority Key Identifier: 
                keyid:BC:D1:FE:9A:B9:33:23:C1:03:D5:25:83:7C:41:51:76:53:6A:15:CA
                DirName:/CN=team621-net
                serial:51:D1:22:D5:F7:36:16:1E:FA:B3:D5:62:96:AD:20:CC:8F:7F:6C:14

            X509v3 Extended Key Usage: 
                TLS Web Client Authentication
            X509v3 Key Usage: 
                Digital Signature
    Signature Algorithm: sha256WithRSAEncryption
         18:34:75:08:ac:4c:c3:c7:d4:de:f4:65:8b:cd:16:ee:ec:65:
         7d:6a:71:8d:75:e9:c5:b9:32:7a:4d:bd:cc:e5:f4:b1:0c:46:
         41:2c:d2:8f:da:e2:34:61:6c:81:9f:0f:28:6d:40:d2:d4:18:
         02:db:35:08:c2:6f:06:df:b6:2a:16:ca:46:46:2a:14:96:55:
         9d:10:6b:02:d2:62:3c:c5:9a:b3:26:e6:06:54:95:d5:6b:ba:
         68:a0:3a:b9:f3:cc:0e:7c:87:d1:f3:d5:40:c4:d6:7e:c0:db:
         d2:55:36:ee:d2:88:3c:d2:51:74:8a:6d:9a:15:9f:df:29:cb:
         9f:2c:67:44:b3:24:86:87:52:9b:78:42:17:df:76:ee:41:3c:
         98:e8:ea:41:d3:98:43:03:7b:88:ec:dd:7c:06:7c:90:ba:49:
         9c:3d:d1:ba:2c:67:30:41:a4:9c:0c:f8:e0:65:6a:af:c4:54:
         a4:57:d7:f3:21:1d:4b:f8:b7:34:5e:ca:ea:2d:9f:94:bf:73:
         ff:a3:88:39:09:45:0f:43:ce:c4:18:57:78:2b:b1:58:c3:d6:
         aa:97:76:90:f6:61:55:59:24:0f:8a:8f:c8:48:b1:5f:c1:72:
         73:98:b3:03:80:de:33:e3:95:ff:dc:54:c3:ec:e9:27:1d:51:
         15:5e:6d:5d
-----BEGIN CERTIFICATE-----
MIIDXDCCAkSgAwIBAgIQdf5a45QtKejJnAYNeFmB9DANBgkqhkiG9w0BAQsFADAW
MRQwEgYDVQQDDAt0ZWFtNjIxLW5ldDAeFw0yMTA5MTMwNDEwNDFaFw0yNDA4Mjgw
NDEwNDFaMBkxFzAVBgNVBAMMDnRlYW02MjEtY2xpZW50MIIBIjANBgkqhkiG9w0B
AQEFAAOCAQ8AMIIBCgKCAQEAvt9QIMU4eFvInNANwDlTLLx5tBxrp/R1gad/K/oY
JOrLyExG9t2jDuTZdh0lshF2TUEhEkxMF0hpBAbeXK7gNlQ7+MoBOCqMuTTnt2l+
30iYTslmSVdPDKfahfD5Ku9+4rhhdb5UxrLmRPQWqoFnFABYCWvYUysu5uSWQZ5q
Ecd4ttazyY286RJftR8EJbML2TuKtDfNOxkQMk8qE03gt3mMzK9z9NMZ5ruQQcXG
GcMF6l+ZeNmPcVDEYeabg6edK2eHyaq91LKU7JjUtRwQlcgv1lJvoqjFM2suTmgL
fVgHRrIrO2TRXLHYl+onuzbxeQ9iLvxeLjdPannp1c/9qwIDAQABo4GiMIGfMAkG
A1UdEwQCMAAwHQYDVR0OBBYEFK0Ht7GFYs8kAPia+CuFjNsf55oNMFEGA1UdIwRK
MEiAFLzR/pq5MyPBA9Ulg3xBUXZTahXKoRqkGDAWMRQwEgYDVQQDDAt0ZWFtNjIx
LW5ldIIUUdEi1fc2Fh76s9Vilq0gzI9/bBQwEwYDVR0lBAwwCgYIKwYBBQUHAwIw
CwYDVR0PBAQDAgeAMA0GCSqGSIb3DQEBCwUAA4IBAQAYNHUIrEzDx9Te9GWLzRbu
7GV9anGNdenFuTJ6Tb3M5fSxDEZBLNKP2uI0YWyBnw8obUDS1BgC2zUIwm8G37Yq
FspGRioUllWdEGsC0mI8xZqzJuYGVJXVa7pooDq588wOfIfR89VAxNZ+wNvSVTbu
0og80lF0im2aFZ/fKcufLGdEsySGh1KbeEIX33buQTyY6OpB05hDA3uI7N18BnyQ
ukmcPdG6LGcwQaScDPjgZWqvxFSkV9fzIR1L+Lc0XsrqLZ+Uv3P/o4g5CUUPQ87E
GFd4K7FYw9aql3aQ9mFVWSQPio/ISLFfwXJzmLMDgN4z45X/3FTD7OknHVEVXm1d
-----END CERTIFICATE-----
