Certificate:
    Data:
        Version: 3 (0x2)
        Serial Number:
            1a:7a:59:90:8a:c4:52:c7:eb:97:d3:e1:fd:19:46:b5
        Signature Algorithm: sha256WithRSAEncryption
        Issuer: CN=team558-net
        Validity
            Not Before: Sep 13 03:52:54 2021 GMT
            Not After : Aug 28 03:52:54 2024 GMT
        Subject: CN=team558-client
        Subject Public Key Info:
            Public Key Algorithm: rsaEncryption
                RSA Public-Key: (2048 bit)
                Modulus:
                    00:d2:e5:22:58:7d:ac:ff:00:8a:cc:dd:4d:f6:c1:
                    cd:c3:0d:bb:05:88:3d:62:37:51:f4:7a:5f:07:e7:
                    cf:14:39:0c:f3:5e:73:15:5c:03:61:77:fe:5d:f4:
                    45:4c:0c:d8:6d:63:2a:cf:3c:4d:bd:01:a6:cf:f7:
                    e6:12:e0:7b:b2:33:a2:90:49:12:82:c8:3d:3f:af:
                    cd:76:5e:9a:9c:7e:77:f1:12:10:da:43:24:ef:8b:
                    c9:56:28:0c:a7:be:4b:d3:96:74:75:59:36:73:35:
                    4c:6e:97:a7:9c:9b:dd:6c:48:47:88:97:27:2d:d5:
                    90:56:b6:37:f6:7d:b6:2f:4b:7d:fb:b0:43:07:5e:
                    08:52:65:62:95:27:1b:8b:20:11:dd:f7:9d:69:fd:
                    a8:b4:2c:b3:4f:53:c6:cf:25:53:87:fc:3a:82:17:
                    df:3b:6f:a8:d8:8c:49:ee:a6:61:e6:9e:d0:60:31:
                    18:43:7d:1c:f8:2f:2f:4f:0e:b6:8f:cc:6f:a1:5c:
                    bf:93:2a:19:fa:5d:4b:29:3b:5e:a1:35:62:07:01:
                    4c:4e:6e:10:52:98:14:24:28:49:09:bd:37:28:2e:
                    43:42:63:e0:51:32:fd:fb:ea:61:23:fa:e4:91:97:
                    9b:9c:4c:7e:16:9c:ec:fa:c1:af:c3:b7:b9:73:a7:
                    d3:dd
                Exponent: 65537 (0x10001)
        X509v3 extensions:
            X509v3 Basic Constraints: 
                CA:FALSE
            X509v3 Subject Key Identifier: 
                0B:F8:81:2D:11:DE:16:32:DA:D1:36:1D:11:43:38:06:8C:14:7F:6F
            X509v3 Authority Key Identifier: 
                keyid:41:D9:C6:3A:D7:B8:95:B2:92:3A:44:73:19:4B:7E:EA:DA:0B:F9:81
                DirName:/CN=team558-net
                serial:21:1D:F9:F3:D0:16:65:83:8B:01:A5:3E:76:C1:90:CE:34:50:F8:26

            X509v3 Extended Key Usage: 
                TLS Web Client Authentication
            X509v3 Key Usage: 
                Digital Signature
    Signature Algorithm: sha256WithRSAEncryption
         56:f7:c0:8e:32:c9:7d:bc:c2:b8:55:a5:5f:f8:be:d4:f4:5f:
         68:42:61:c2:e2:89:e7:f9:34:29:87:d7:46:63:82:80:6a:fc:
         d8:3e:d4:81:cf:ce:de:12:b1:2e:a5:d5:83:f7:f9:37:d8:e2:
         be:14:c4:8e:bb:2e:1a:d1:ee:0d:58:55:c2:12:00:34:2c:5a:
         ce:7a:03:3d:c3:c7:e8:9b:5a:26:48:89:29:f2:d2:2c:96:91:
         20:bc:0e:fb:41:a1:90:20:e0:f9:91:5d:14:b5:41:c0:57:a2:
         11:ff:f8:ab:c4:7a:8a:ac:d9:77:06:34:ce:86:9c:ba:5b:33:
         41:c4:9c:4b:da:5b:a2:9c:f9:d3:b3:fa:b1:0f:7f:90:7c:5f:
         13:5c:66:d5:9d:f0:94:21:23:c1:4e:40:22:56:d2:56:fe:ef:
         88:74:10:d8:ec:e0:af:71:50:0a:e1:dc:da:b0:ec:fd:c2:29:
         f4:d3:53:46:c7:9a:4c:a6:a3:74:c6:2e:8d:1b:36:6f:3d:99:
         a5:6b:19:73:b6:c9:a4:1c:fd:79:f1:e6:42:f6:32:9b:8e:b9:
         0d:2e:07:51:27:2a:9b:a7:b5:cb:97:6c:9a:36:b3:5c:6f:28:
         e8:ab:0f:7b:29:0f:12:5e:ab:1b:c9:a4:a8:94:00:34:2a:f3:
         c7:5b:d1:58
-----BEGIN CERTIFICATE-----
MIIDXDCCAkSgAwIBAgIQGnpZkIrEUsfrl9Ph/RlGtTANBgkqhkiG9w0BAQsFADAW
MRQwEgYDVQQDDAt0ZWFtNTU4LW5ldDAeFw0yMTA5MTMwMzUyNTRaFw0yNDA4Mjgw
MzUyNTRaMBkxFzAVBgNVBAMMDnRlYW01NTgtY2xpZW50MIIBIjANBgkqhkiG9w0B
AQEFAAOCAQ8AMIIBCgKCAQEA0uUiWH2s/wCKzN1N9sHNww27BYg9YjdR9HpfB+fP
FDkM815zFVwDYXf+XfRFTAzYbWMqzzxNvQGmz/fmEuB7sjOikEkSgsg9P6/Ndl6a
nH538RIQ2kMk74vJVigMp75L05Z0dVk2czVMbpennJvdbEhHiJcnLdWQVrY39n22
L0t9+7BDB14IUmVilScbiyAR3fedaf2otCyzT1PGzyVTh/w6ghffO2+o2IxJ7qZh
5p7QYDEYQ30c+C8vTw62j8xvoVy/kyoZ+l1LKTteoTViBwFMTm4QUpgUJChJCb03
KC5DQmPgUTL9++phI/rkkZebnEx+Fpzs+sGvw7e5c6fT3QIDAQABo4GiMIGfMAkG
A1UdEwQCMAAwHQYDVR0OBBYEFAv4gS0R3hYy2tE2HRFDOAaMFH9vMFEGA1UdIwRK
MEiAFEHZxjrXuJWykjpEcxlLfuraC/mBoRqkGDAWMRQwEgYDVQQDDAt0ZWFtNTU4
LW5ldIIUIR3589AWZYOLAaU+dsGQzjRQ+CYwEwYDVR0lBAwwCgYIKwYBBQUHAwIw
CwYDVR0PBAQDAgeAMA0GCSqGSIb3DQEBCwUAA4IBAQBW98COMsl9vMK4VaVf+L7U
9F9oQmHC4onn+TQph9dGY4KAavzYPtSBz87eErEupdWD9/k32OK+FMSOuy4a0e4N
WFXCEgA0LFrOegM9w8fom1omSIkp8tIslpEgvA77QaGQIOD5kV0UtUHAV6IR//ir
xHqKrNl3BjTOhpy6WzNBxJxL2luinPnTs/qxD3+QfF8TXGbVnfCUISPBTkAiVtJW
/u+IdBDY7OCvcVAK4dzasOz9win001NGx5pMpqN0xi6NGzZvPZmlaxlztsmkHP15
8eZC9jKbjrkNLgdRJyqbp7XLl2yaNrNcbyjoqw97KQ8SXqsbyaSolAA0KvPHW9FY
-----END CERTIFICATE-----
