Certificate:
    Data:
        Version: 3 (0x2)
        Serial Number:
            b2:76:64:4b:88:49:2d:74:f9:fc:97:7d:9d:d3:88:56
        Signature Algorithm: sha256WithRSAEncryption
        Issuer: CN=team655-net
        Validity
            Not Before: Sep 13 04:52:38 2021 GMT
            Not After : Aug 28 04:52:38 2024 GMT
        Subject: CN=team655-client
        Subject Public Key Info:
            Public Key Algorithm: rsaEncryption
                RSA Public-Key: (2048 bit)
                Modulus:
                    00:d7:42:52:d5:ce:07:08:0a:a3:86:62:a4:50:1f:
                    3e:39:07:37:a4:56:9c:75:00:5e:3b:36:04:fc:5b:
                    5a:4f:6e:b2:d4:ad:28:79:4c:ea:ac:3d:dd:c2:df:
                    04:7f:ec:45:81:89:00:7d:6f:67:38:14:9b:03:35:
                    50:b2:25:07:5e:38:57:92:42:d0:f9:d1:a3:f1:d7:
                    1c:51:63:a0:7b:f5:c8:2d:d3:63:d5:90:04:96:36:
                    7e:91:10:95:c1:7d:d7:ac:23:1f:96:66:f2:83:59:
                    c1:6b:38:a3:40:5e:53:8f:81:91:ef:6c:b7:36:97:
                    ae:3f:e9:5e:8e:1d:55:9d:fe:c8:ab:6e:7b:02:ca:
                    a5:cf:b4:be:b2:35:9f:1e:4d:e3:b8:19:e9:03:85:
                    d2:8a:a9:98:d9:7f:59:82:9d:21:2e:d9:54:34:2d:
                    6b:1a:6e:f6:fd:c8:57:74:c1:e6:49:ab:c1:fe:90:
                    1e:63:3f:89:2c:51:e8:e6:cf:73:e8:46:0d:cf:ca:
                    08:b3:34:99:57:3c:ca:f8:59:93:77:19:b2:8f:39:
                    95:7e:ae:26:32:ea:88:ff:95:14:1d:1a:96:54:3f:
                    e2:46:da:18:2a:40:c2:d8:07:43:b5:65:b8:b7:29:
                    3a:50:0d:63:d6:dc:dd:c3:b0:1e:60:70:2f:6b:b8:
                    8b:3f
                Exponent: 65537 (0x10001)
        X509v3 extensions:
            X509v3 Basic Constraints: 
                CA:FALSE
            X509v3 Subject Key Identifier: 
                E9:18:F3:51:B6:5A:20:EC:CF:D6:61:CA:49:8B:55:F2:A9:96:AE:B6
            X509v3 Authority Key Identifier: 
                keyid:93:98:0C:CA:49:38:72:40:6E:81:35:60:1C:16:0C:15:D4:0C:D7:00
                DirName:/CN=team655-net
                serial:41:84:49:3F:CF:3B:A2:D8:7B:B9:82:E7:0F:66:58:EB:EB:C3:0D:13

            X509v3 Extended Key Usage: 
                TLS Web Client Authentication
            X509v3 Key Usage: 
                Digital Signature
    Signature Algorithm: sha256WithRSAEncryption
         20:21:7f:e1:80:f0:ed:91:4b:18:d6:b7:f3:e5:69:b5:4d:8f:
         35:59:48:31:2c:30:8b:a6:3c:6f:73:96:32:28:59:3f:6a:02:
         b8:90:76:a3:2f:2b:93:6f:b7:13:61:c4:fc:f7:92:a7:65:4e:
         19:53:ec:89:c0:1f:d6:94:61:70:fb:b8:19:f3:2c:3d:57:d5:
         04:16:cd:08:77:96:a0:26:07:c8:b5:fc:03:f9:06:c2:df:8f:
         2f:f3:76:b0:b2:a8:a8:5b:b2:4a:66:f4:42:52:6b:dd:84:53:
         43:6b:2f:67:bb:05:60:55:9f:41:25:39:49:a7:ea:40:4d:11:
         8c:bc:55:56:64:a0:51:e4:cf:f0:fd:b4:8c:04:00:be:c3:44:
         67:76:62:95:2c:80:b2:1c:28:dc:6f:cc:45:57:b6:45:62:4d:
         8d:41:2a:ad:aa:f0:40:72:16:f2:95:6c:d3:15:ce:5f:ff:6f:
         14:ac:08:51:fd:2a:4e:3d:12:3f:c0:5f:19:06:72:74:25:e9:
         34:e6:53:23:25:8a:95:b8:e9:99:af:ec:bc:06:b9:2a:29:02:
         0a:71:28:23:e3:14:1c:c9:19:14:8c:4a:eb:d2:e6:6b:db:71:
         e1:90:90:7e:92:6e:5e:c5:70:8e:32:3f:35:a4:e0:f1:7e:3d:
         45:76:1c:e4
-----BEGIN CERTIFICATE-----
MIIDXTCCAkWgAwIBAgIRALJ2ZEuISS10+fyXfZ3TiFYwDQYJKoZIhvcNAQELBQAw
FjEUMBIGA1UEAwwLdGVhbTY1NS1uZXQwHhcNMjEwOTEzMDQ1MjM4WhcNMjQwODI4
MDQ1MjM4WjAZMRcwFQYDVQQDDA50ZWFtNjU1LWNsaWVudDCCASIwDQYJKoZIhvcN
AQEBBQADggEPADCCAQoCggEBANdCUtXOBwgKo4ZipFAfPjkHN6RWnHUAXjs2BPxb
Wk9ustStKHlM6qw93cLfBH/sRYGJAH1vZzgUmwM1ULIlB144V5JC0PnRo/HXHFFj
oHv1yC3TY9WQBJY2fpEQlcF916wjH5Zm8oNZwWs4o0BeU4+Bke9stzaXrj/pXo4d
VZ3+yKtuewLKpc+0vrI1nx5N47gZ6QOF0oqpmNl/WYKdIS7ZVDQtaxpu9v3IV3TB
5kmrwf6QHmM/iSxR6ObPc+hGDc/KCLM0mVc8yvhZk3cZso85lX6uJjLqiP+VFB0a
llQ/4kbaGCpAwtgHQ7VluLcpOlANY9bc3cOwHmBwL2u4iz8CAwEAAaOBojCBnzAJ
BgNVHRMEAjAAMB0GA1UdDgQWBBTpGPNRtlog7M/WYcpJi1XyqZautjBRBgNVHSME
SjBIgBSTmAzKSThyQG6BNWAcFgwV1AzXAKEapBgwFjEUMBIGA1UEAwwLdGVhbTY1
NS1uZXSCFEGEST/PO6LYe7mC5w9mWOvrww0TMBMGA1UdJQQMMAoGCCsGAQUFBwMC
MAsGA1UdDwQEAwIHgDANBgkqhkiG9w0BAQsFAAOCAQEAICF/4YDw7ZFLGNa38+Vp
tU2PNVlIMSwwi6Y8b3OWMihZP2oCuJB2oy8rk2+3E2HE/PeSp2VOGVPsicAf1pRh
cPu4GfMsPVfVBBbNCHeWoCYHyLX8A/kGwt+PL/N2sLKoqFuySmb0QlJr3YRTQ2sv
Z7sFYFWfQSU5SafqQE0RjLxVVmSgUeTP8P20jAQAvsNEZ3ZilSyAshwo3G/MRVe2
RWJNjUEqrarwQHIW8pVs0xXOX/9vFKwIUf0qTj0SP8BfGQZydCXpNOZTIyWKlbjp
ma/svAa5KikCCnEoI+MUHMkZFIxK69Lma9tx4ZCQfpJuXsVwjjI/NaTg8X49RXYc
5A==
-----END CERTIFICATE-----
