Certificate:
    Data:
        Version: 3 (0x2)
        Serial Number:
            7b:25:9d:f5:d2:be:b4:ad:28:d5:f1:c8:8d:9e:76:b8
        Signature Algorithm: sha256WithRSAEncryption
        Issuer: CN=team503-net
        Validity
            Not Before: Sep 13 03:09:24 2021 GMT
            Not After : Aug 28 03:09:24 2024 GMT
        Subject: CN=team503-server
        Subject Public Key Info:
            Public Key Algorithm: rsaEncryption
                RSA Public-Key: (2048 bit)
                Modulus:
                    00:92:af:9f:ad:b7:01:81:7b:8a:04:79:e1:4b:ab:
                    72:22:ef:a9:60:b6:c5:44:cb:a6:53:f8:39:da:33:
                    ea:f2:8f:93:fb:ec:85:12:01:64:51:f3:97:78:ee:
                    85:9f:dc:44:09:ba:95:6c:60:2e:3c:7a:91:6d:12:
                    d4:8f:b1:10:33:38:55:8c:1d:97:c4:d9:11:c0:c1:
                    2d:ea:8d:86:59:4e:b3:b8:f3:13:0c:42:eb:03:0f:
                    bb:70:00:c6:e4:60:82:bf:33:b0:37:ae:a7:56:bd:
                    bd:98:eb:8b:e8:8d:6d:b6:10:0e:9b:72:0b:e1:c9:
                    80:02:87:36:d9:84:38:45:6e:1f:a7:c4:6b:2b:45:
                    59:07:f6:3d:3f:d2:c6:fc:a5:84:4a:ae:09:03:10:
                    32:5a:03:d8:91:98:f6:66:57:66:34:65:41:58:48:
                    94:ad:44:0f:b8:50:ad:be:aa:72:d1:a3:08:c8:58:
                    7b:ff:ba:6f:84:4a:56:5a:37:cd:f2:4a:e0:a9:e0:
                    55:1e:39:24:53:4e:b6:98:7c:6f:9d:47:09:0f:5c:
                    00:12:f6:2e:c2:dd:0a:a0:fe:2d:d5:13:07:d7:42:
                    0f:75:54:17:13:3f:17:d9:32:6e:bf:25:cb:e5:bd:
                    b3:e9:6e:ec:72:d2:03:e8:56:fb:9c:8e:8f:72:fc:
                    38:3f
                Exponent: 65537 (0x10001)
        X509v3 extensions:
            X509v3 Basic Constraints: 
                CA:FALSE
            X509v3 Subject Key Identifier: 
                44:1C:33:1F:69:E3:D3:8E:F6:AB:F7:37:81:2C:7F:67:12:FF:DE:9F
            X509v3 Authority Key Identifier: 
                keyid:72:3C:A3:94:45:76:35:67:4D:F4:4D:1C:CC:54:8A:FA:09:CE:13:7B
                DirName:/CN=team503-net
                serial:4C:A5:D2:F0:02:77:C6:50:E1:FF:11:86:54:25:41:D4:6A:C4:31:D2

            X509v3 Extended Key Usage: 
                TLS Web Server Authentication
            X509v3 Key Usage: 
                Digital Signature, Key Encipherment
            X509v3 Subject Alternative Name: 
                DNS:team503-server
    Signature Algorithm: sha256WithRSAEncryption
         6d:fa:fd:b9:fe:cf:e7:07:15:69:41:e1:0e:82:cc:5d:c6:59:
         51:cc:24:a6:2d:ae:87:70:23:cd:12:57:d4:66:8b:10:b5:34:
         ab:9b:69:5b:5b:f6:87:97:b1:ce:34:d4:3d:1a:32:a8:be:df:
         f3:5a:66:2b:0b:8b:12:55:ce:33:6a:56:a4:00:4d:43:5d:02:
         77:ca:06:88:37:b7:d5:34:28:a4:00:de:1a:99:7c:64:1f:4e:
         0b:d8:0d:7b:98:66:cf:d7:15:ab:f2:c5:ff:e5:cd:0e:36:dd:
         79:b4:30:b5:62:29:a1:86:44:8e:2f:8f:82:87:37:16:90:bc:
         2c:ad:9c:a3:6a:39:99:8a:03:dd:78:3d:0c:fb:b0:ac:82:3c:
         ef:89:49:41:7c:5c:ca:3d:7d:54:d7:7e:11:8d:18:3e:08:ee:
         02:3b:1a:6d:95:48:8a:67:d5:01:0a:c5:ab:3e:76:e3:b9:8c:
         a7:05:22:b9:87:05:48:5b:82:8e:69:9d:8b:6f:ba:27:c0:3a:
         08:21:98:d3:d7:31:bd:4d:fb:4d:54:5d:c9:a3:b2:89:3c:9f:
         0c:86:8b:e8:93:6a:09:e9:9b:f8:12:97:07:5e:32:24:a9:87:
         60:6f:9f:f4:2b:3b:ea:f1:20:1d:8d:1a:76:ea:fa:68:41:3e:
         89:97:66:9a
-----BEGIN CERTIFICATE-----
MIIDdzCCAl+gAwIBAgIQeyWd9dK+tK0o1fHIjZ52uDANBgkqhkiG9w0BAQsFADAW
MRQwEgYDVQQDDAt0ZWFtNTAzLW5ldDAeFw0yMTA5MTMwMzA5MjRaFw0yNDA4Mjgw
MzA5MjRaMBkxFzAVBgNVBAMMDnRlYW01MDMtc2VydmVyMIIBIjANBgkqhkiG9w0B
AQEFAAOCAQ8AMIIBCgKCAQEAkq+frbcBgXuKBHnhS6tyIu+pYLbFRMumU/g52jPq
8o+T++yFEgFkUfOXeO6Fn9xECbqVbGAuPHqRbRLUj7EQMzhVjB2XxNkRwMEt6o2G
WU6zuPMTDELrAw+7cADG5GCCvzOwN66nVr29mOuL6I1tthAOm3IL4cmAAoc22YQ4
RW4fp8RrK0VZB/Y9P9LG/KWESq4JAxAyWgPYkZj2ZldmNGVBWEiUrUQPuFCtvqpy
0aMIyFh7/7pvhEpWWjfN8krgqeBVHjkkU062mHxvnUcJD1wAEvYuwt0KoP4t1RMH
10IPdVQXEz8X2TJuvyXL5b2z6W7sctID6Fb7nI6Pcvw4PwIDAQABo4G9MIG6MAkG
A1UdEwQCMAAwHQYDVR0OBBYEFEQcMx9p49OO9qv3N4Esf2cS/96fMFEGA1UdIwRK
MEiAFHI8o5RFdjVnTfRNHMxUivoJzhN7oRqkGDAWMRQwEgYDVQQDDAt0ZWFtNTAz
LW5ldIIUTKXS8AJ3xlDh/xGGVCVB1GrEMdIwEwYDVR0lBAwwCgYIKwYBBQUHAwEw
CwYDVR0PBAQDAgWgMBkGA1UdEQQSMBCCDnRlYW01MDMtc2VydmVyMA0GCSqGSIb3
DQEBCwUAA4IBAQBt+v25/s/nBxVpQeEOgsxdxllRzCSmLa6HcCPNElfUZosQtTSr
m2lbW/aHl7HONNQ9GjKovt/zWmYrC4sSVc4zalakAE1DXQJ3ygaIN7fVNCikAN4a
mXxkH04L2A17mGbP1xWr8sX/5c0ONt15tDC1YimhhkSOL4+ChzcWkLwsrZyjajmZ
igPdeD0M+7CsgjzviUlBfFzKPX1U134RjRg+CO4COxptlUiKZ9UBCsWrPnbjuYyn
BSK5hwVIW4KOaZ2Lb7onwDoIIZjT1zG9TftNVF3Jo7KJPJ8Mhovok2oJ6Zv4EpcH
XjIkqYdgb5/0Kzvq8SAdjRp26vpoQT6Jl2aa
-----END CERTIFICATE-----
