Certificate:
    Data:
        Version: 3 (0x2)
        Serial Number:
            1c:eb:d2:ef:25:25:0c:b3:1d:c4:3a:d6:a4:0a:ca:76
        Signature Algorithm: sha256WithRSAEncryption
        Issuer: CN=team675-net
        Validity
            Not Before: Sep 13 04:34:22 2021 GMT
            Not After : Aug 28 04:34:22 2024 GMT
        Subject: CN=team675-client
        Subject Public Key Info:
            Public Key Algorithm: rsaEncryption
                RSA Public-Key: (2048 bit)
                Modulus:
                    00:b2:25:81:30:38:c3:d7:18:8f:29:07:ec:54:37:
                    c0:a9:ab:67:bc:da:07:68:ea:5d:4f:0f:b3:ea:56:
                    79:ab:15:2c:15:ea:88:ba:d3:ee:31:ac:c8:99:87:
                    4d:67:7e:c1:03:84:79:26:0d:28:df:2e:3b:47:5a:
                    d2:8a:ba:21:c0:0c:8d:fd:3e:2b:82:39:db:f8:fa:
                    c3:21:12:c9:b5:6d:97:68:26:1c:b9:83:6e:05:f1:
                    0e:25:dd:6c:c7:2b:8e:3d:7d:34:91:2e:4e:27:fb:
                    4b:49:d8:c0:32:fd:83:e9:7d:b7:d3:07:f6:22:2d:
                    aa:9b:39:94:df:c9:5d:0b:ab:ba:e8:8e:c1:55:5c:
                    c6:f4:e1:d8:bb:c1:a7:f1:fd:65:47:71:15:ab:c3:
                    4f:0e:b3:70:d0:b0:0a:10:9c:df:eb:a2:49:ea:a6:
                    8e:f5:f3:07:c4:01:b7:06:64:2d:b0:ee:e9:97:3f:
                    02:13:f5:31:b7:de:f9:36:a8:fd:b7:2f:5b:75:cf:
                    88:3e:b4:b2:7d:75:25:bc:73:8c:46:d0:c7:f2:06:
                    7a:67:52:5b:43:6f:48:13:25:f3:b8:6f:07:73:98:
                    14:e3:a4:f7:a8:a5:98:70:d3:d1:3a:11:ca:b0:d1:
                    e8:ee:a6:ed:25:ea:65:1d:25:f4:c7:75:99:3a:fd:
                    35:43
                Exponent: 65537 (0x10001)
        X509v3 extensions:
            X509v3 Basic Constraints: 
                CA:FALSE
            X509v3 Subject Key Identifier: 
                C6:46:74:C4:45:70:0D:C0:AB:59:5C:C3:63:E6:3D:80:00:E7:6B:89
            X509v3 Authority Key Identifier: 
                keyid:B2:1E:EE:FD:00:06:E7:30:C1:AA:A7:5B:00:63:ED:15:82:CF:A0:C9
                DirName:/CN=team675-net
                serial:51:15:79:E9:E3:36:D9:63:37:40:1C:DB:96:20:CE:E8:49:D9:93:88

            X509v3 Extended Key Usage: 
                TLS Web Client Authentication
            X509v3 Key Usage: 
                Digital Signature
    Signature Algorithm: sha256WithRSAEncryption
         be:f5:aa:1e:de:88:6d:2e:e4:88:70:c3:71:d0:f9:81:63:24:
         b7:35:34:f2:b4:a9:25:70:b3:8f:2b:c7:84:f9:ef:4e:56:45:
         90:d7:40:90:fa:f3:b1:f3:bc:cf:6a:46:b5:fe:dc:9b:d8:84:
         22:7f:2a:a2:c0:b6:91:d4:11:37:af:f3:3e:f8:90:8f:86:eb:
         68:59:79:3c:f9:22:15:6f:f8:2e:7e:b4:83:a0:9a:b7:4f:a3:
         4a:f0:08:4f:da:6d:a7:4c:cf:11:98:de:57:28:cb:dd:21:5c:
         a6:45:1a:c2:0d:77:8e:9d:fd:dd:00:d3:39:15:12:20:5e:d5:
         c6:ca:39:a5:6b:81:dc:ec:bb:e9:f6:9d:35:3e:e0:a7:eb:07:
         f1:b2:b0:ef:ee:c8:fc:5d:26:a5:bd:3b:d8:31:7b:a7:53:16:
         bf:a3:45:a8:5d:76:da:52:a6:a3:6a:26:ed:a9:16:c4:ea:f4:
         28:87:90:2b:7e:cd:37:53:c2:53:cc:4d:77:8d:96:71:40:93:
         8d:28:2d:c0:70:5b:70:d1:82:54:42:12:7a:d0:5f:e8:15:c6:
         b1:b0:24:af:44:71:a8:9f:05:19:b5:6b:85:1f:b6:7d:6d:8d:
         7e:44:44:96:b3:e6:3f:f9:00:89:4a:d9:70:7f:ff:3c:0f:7a:
         47:35:18:52
-----BEGIN CERTIFICATE-----
MIIDXDCCAkSgAwIBAgIQHOvS7yUlDLMdxDrWpArKdjANBgkqhkiG9w0BAQsFADAW
MRQwEgYDVQQDDAt0ZWFtNjc1LW5ldDAeFw0yMTA5MTMwNDM0MjJaFw0yNDA4Mjgw
NDM0MjJaMBkxFzAVBgNVBAMMDnRlYW02NzUtY2xpZW50MIIBIjANBgkqhkiG9w0B
AQEFAAOCAQ8AMIIBCgKCAQEAsiWBMDjD1xiPKQfsVDfAqatnvNoHaOpdTw+z6lZ5
qxUsFeqIutPuMazImYdNZ37BA4R5Jg0o3y47R1rSirohwAyN/T4rgjnb+PrDIRLJ
tW2XaCYcuYNuBfEOJd1sxyuOPX00kS5OJ/tLSdjAMv2D6X230wf2Ii2qmzmU38ld
C6u66I7BVVzG9OHYu8Gn8f1lR3EVq8NPDrNw0LAKEJzf66JJ6qaO9fMHxAG3BmQt
sO7plz8CE/Uxt975Nqj9ty9bdc+IPrSyfXUlvHOMRtDH8gZ6Z1JbQ29IEyXzuG8H
c5gU46T3qKWYcNPROhHKsNHo7qbtJeplHSX0x3WZOv01QwIDAQABo4GiMIGfMAkG
A1UdEwQCMAAwHQYDVR0OBBYEFMZGdMRFcA3Aq1lcw2PmPYAA52uJMFEGA1UdIwRK
MEiAFLIe7v0ABucwwaqnWwBj7RWCz6DJoRqkGDAWMRQwEgYDVQQDDAt0ZWFtNjc1
LW5ldIIUURV56eM22WM3QBzbliDO6EnZk4gwEwYDVR0lBAwwCgYIKwYBBQUHAwIw
CwYDVR0PBAQDAgeAMA0GCSqGSIb3DQEBCwUAA4IBAQC+9aoe3ohtLuSIcMNx0PmB
YyS3NTTytKklcLOPK8eE+e9OVkWQ10CQ+vOx87zPaka1/tyb2IQifyqiwLaR1BE3
r/M++JCPhutoWXk8+SIVb/gufrSDoJq3T6NK8AhP2m2nTM8RmN5XKMvdIVymRRrC
DXeOnf3dANM5FRIgXtXGyjmla4Hc7Lvp9p01PuCn6wfxsrDv7sj8XSalvTvYMXun
Uxa/o0WoXXbaUqajaibtqRbE6vQoh5Arfs03U8JTzE13jZZxQJONKC3AcFtw0YJU
QhJ60F/oFcaxsCSvRHGonwUZtWuFH7Z9bY1+RESWs+Y/+QCJStlwf/88D3pHNRhS
-----END CERTIFICATE-----
