Certificate:
    Data:
        Version: 3 (0x2)
        Serial Number:
            0a:d0:04:cc:26:87:64:b7:e5:0c:cf:02:4b:27:b2:a2
        Signature Algorithm: sha256WithRSAEncryption
        Issuer: CN=team286-net
        Validity
            Not Before: Sep 13 01:21:33 2021 GMT
            Not After : Aug 28 01:21:33 2024 GMT
        Subject: CN=team286-server
        Subject Public Key Info:
            Public Key Algorithm: rsaEncryption
                RSA Public-Key: (2048 bit)
                Modulus:
                    00:cc:7c:ed:ed:f0:13:8e:18:e3:57:7f:28:3c:15:
                    ab:1a:f3:7a:60:ab:05:09:ee:c6:a0:b4:71:94:b7:
                    41:9e:8a:8f:93:ec:89:f9:c0:7f:8b:6c:f9:e7:5e:
                    b7:3e:82:64:4d:d7:c7:70:94:d2:c0:62:8a:9f:b6:
                    7c:ea:f7:ab:bb:aa:ce:af:e3:ee:83:31:76:65:bb:
                    8c:fd:12:3b:72:ff:a0:3c:cc:8e:fc:40:5e:56:82:
                    d0:19:18:e6:ae:7c:90:56:de:14:0a:96:5c:2d:b8:
                    8b:69:23:ce:5f:ca:e3:3d:4f:ca:fa:58:5e:a6:4d:
                    70:92:72:ac:c4:a5:bb:1e:80:18:af:3c:83:bc:5a:
                    a5:82:89:bb:3a:8d:8a:46:24:6c:87:5a:29:78:d5:
                    fa:1f:a3:23:ab:6c:ea:ce:b5:1a:47:77:b3:b2:c7:
                    fd:1e:dd:e6:20:11:bb:cd:0c:e1:7b:22:a3:d4:5b:
                    88:95:ea:dd:f3:d7:17:35:b5:c6:5f:41:69:34:ba:
                    72:31:38:42:22:44:f4:70:1d:9d:fb:c1:f2:9b:8c:
                    fc:66:17:a8:18:98:bc:4f:d4:5b:05:f9:e2:d9:f7:
                    dd:bd:22:fe:a2:a6:29:79:fe:30:98:42:a0:21:58:
                    48:f8:8b:4c:c6:a7:1e:9c:57:40:6e:b5:af:2f:5b:
                    d6:f9
                Exponent: 65537 (0x10001)
        X509v3 extensions:
            X509v3 Basic Constraints: 
                CA:FALSE
            X509v3 Subject Key Identifier: 
                B0:92:D2:FE:32:E7:39:8F:43:2E:A9:67:61:43:A0:30:EA:5B:1A:01
            X509v3 Authority Key Identifier: 
                keyid:C1:94:21:74:FD:01:BD:01:C8:98:33:71:CF:37:25:6C:9F:9F:C1:C1
                DirName:/CN=team286-net
                serial:23:56:A1:D4:57:4B:70:95:12:B2:D7:71:CD:49:CA:0E:84:A0:88:3E

            X509v3 Extended Key Usage: 
                TLS Web Server Authentication
            X509v3 Key Usage: 
                Digital Signature, Key Encipherment
            X509v3 Subject Alternative Name: 
                DNS:team286-server
    Signature Algorithm: sha256WithRSAEncryption
         50:28:5e:7e:54:15:43:e7:df:f6:6e:ea:0a:c0:da:c9:2a:e1:
         e4:0e:02:c5:60:e0:d1:68:32:2b:19:ad:01:82:38:d9:bf:e6:
         1b:b9:5b:93:5b:58:9e:69:8f:11:a1:e3:f1:e4:51:b4:37:41:
         dd:2c:b6:3b:3c:b6:ed:0d:1d:ae:3f:d6:8d:f1:ad:bb:d1:9d:
         bf:02:7d:cb:7a:ed:6e:e1:a4:f0:95:63:d9:d6:17:40:31:cb:
         c4:5b:cb:3d:c2:fd:25:06:5c:1e:24:ca:0b:d3:90:a7:dc:27:
         ae:3d:e0:06:36:e7:ac:c3:41:0f:d1:27:95:83:5c:75:a6:46:
         46:31:71:4b:19:a5:d2:2e:e7:3d:a5:73:a5:84:b7:62:e0:81:
         91:fe:86:b7:fb:9a:db:ff:f8:4b:8d:a7:8f:c8:b5:b7:7f:c4:
         87:f2:57:34:c1:76:9a:b8:64:0f:4c:9d:86:12:ed:13:99:ed:
         93:ef:34:61:0e:41:fb:d3:fb:ea:23:b7:c1:49:65:8a:95:30:
         25:38:94:e1:3d:79:16:bf:ca:b1:28:c3:94:cc:f4:2a:9a:6c:
         f5:ac:40:d4:dd:1f:71:29:e4:2a:79:e9:83:c3:cc:1b:14:95:
         7c:9b:82:b8:5e:66:e5:62:07:a8:e1:05:0d:41:39:eb:13:1a:
         8d:b2:66:2c
-----BEGIN CERTIFICATE-----
MIIDdzCCAl+gAwIBAgIQCtAEzCaHZLflDM8CSyeyojANBgkqhkiG9w0BAQsFADAW
MRQwEgYDVQQDDAt0ZWFtMjg2LW5ldDAeFw0yMTA5MTMwMTIxMzNaFw0yNDA4Mjgw
MTIxMzNaMBkxFzAVBgNVBAMMDnRlYW0yODYtc2VydmVyMIIBIjANBgkqhkiG9w0B
AQEFAAOCAQ8AMIIBCgKCAQEAzHzt7fATjhjjV38oPBWrGvN6YKsFCe7GoLRxlLdB
noqPk+yJ+cB/i2z55163PoJkTdfHcJTSwGKKn7Z86veru6rOr+PugzF2ZbuM/RI7
cv+gPMyO/EBeVoLQGRjmrnyQVt4UCpZcLbiLaSPOX8rjPU/K+lhepk1wknKsxKW7
HoAYrzyDvFqlgom7Oo2KRiRsh1opeNX6H6Mjq2zqzrUaR3ezssf9Ht3mIBG7zQzh
eyKj1FuIlerd89cXNbXGX0FpNLpyMThCIkT0cB2d+8Hym4z8ZheoGJi8T9RbBfni
2ffdvSL+oqYpef4wmEKgIVhI+ItMxqcenFdAbrWvL1vW+QIDAQABo4G9MIG6MAkG
A1UdEwQCMAAwHQYDVR0OBBYEFLCS0v4y5zmPQy6pZ2FDoDDqWxoBMFEGA1UdIwRK
MEiAFMGUIXT9Ab0ByJgzcc83JWyfn8HBoRqkGDAWMRQwEgYDVQQDDAt0ZWFtMjg2
LW5ldIIUI1ah1FdLcJUSstdxzUnKDoSgiD4wEwYDVR0lBAwwCgYIKwYBBQUHAwEw
CwYDVR0PBAQDAgWgMBkGA1UdEQQSMBCCDnRlYW0yODYtc2VydmVyMA0GCSqGSIb3
DQEBCwUAA4IBAQBQKF5+VBVD59/2buoKwNrJKuHkDgLFYODRaDIrGa0BgjjZv+Yb
uVuTW1ieaY8RoePx5FG0N0HdLLY7PLbtDR2uP9aN8a270Z2/An3Leu1u4aTwlWPZ
1hdAMcvEW8s9wv0lBlweJMoL05Cn3CeuPeAGNuesw0EP0SeVg1x1pkZGMXFLGaXS
Luc9pXOlhLdi4IGR/oa3+5rb//hLjaePyLW3f8SH8lc0wXaauGQPTJ2GEu0Tme2T
7zRhDkH70/vqI7fBSWWKlTAlOJThPXkWv8qxKMOUzPQqmmz1rEDU3R9xKeQqeemD
w8wbFJV8m4K4XmblYgeo4QUNQTnrExqNsmYs
-----END CERTIFICATE-----
