Certificate:
    Data:
        Version: 3 (0x2)
        Serial Number:
            cb:ae:b1:9d:e0:b3:52:b7:b0:41:e4:0e:f5:0a:f8:76
        Signature Algorithm: sha256WithRSAEncryption
        Issuer: CN=team286-net
        Validity
            Not Before: Sep 13 01:21:33 2021 GMT
            Not After : Aug 28 01:21:33 2024 GMT
        Subject: CN=team286-client
        Subject Public Key Info:
            Public Key Algorithm: rsaEncryption
                RSA Public-Key: (2048 bit)
                Modulus:
                    00:af:bd:4d:36:39:77:93:7e:6f:b1:81:6b:38:91:
                    48:86:56:ac:e8:f9:3f:76:57:7b:26:53:8d:31:3a:
                    67:8d:06:2a:4f:29:d7:a7:6c:62:91:37:d7:6f:18:
                    a6:14:57:f1:9c:5f:25:0c:ff:b1:fc:22:13:8a:2a:
                    67:71:6f:70:b7:61:93:f5:16:1f:68:84:0d:8c:3e:
                    31:3a:e2:e4:6d:50:c6:ca:23:ab:60:28:eb:15:aa:
                    a4:85:ee:60:ad:c3:4b:77:22:e3:51:cd:90:5e:13:
                    a0:4a:77:4f:85:a8:77:9b:0c:96:32:6b:ff:50:e6:
                    f9:41:11:06:0a:0b:7d:05:d2:ee:98:a0:76:ea:79:
                    f8:cd:73:bb:d5:d9:32:ba:cf:0c:05:6d:43:03:74:
                    be:c9:1a:d3:2b:21:a1:a1:a4:85:fe:ea:27:90:cb:
                    ef:66:9a:c4:98:c0:f1:ad:56:49:0f:c9:bb:86:83:
                    5b:95:4b:ee:35:fd:a8:5c:cf:d6:8d:26:77:9d:fa:
                    c0:d8:83:2d:3f:03:9a:4c:64:a4:20:05:8c:4e:47:
                    78:71:cb:05:a7:01:0c:b3:61:b7:b7:da:51:c2:2a:
                    77:02:3e:22:e4:e3:0f:41:47:29:e2:fe:af:44:52:
                    d7:5a:3b:42:81:cc:7b:b5:25:49:cd:f2:b5:37:b6:
                    1a:0b
                Exponent: 65537 (0x10001)
        X509v3 extensions:
            X509v3 Basic Constraints: 
                CA:FALSE
            X509v3 Subject Key Identifier: 
                9A:04:C4:D9:F5:2B:31:18:FE:A1:34:22:44:8D:EC:A1:93:13:4E:65
            X509v3 Authority Key Identifier: 
                keyid:C1:94:21:74:FD:01:BD:01:C8:98:33:71:CF:37:25:6C:9F:9F:C1:C1
                DirName:/CN=team286-net
                serial:23:56:A1:D4:57:4B:70:95:12:B2:D7:71:CD:49:CA:0E:84:A0:88:3E

            X509v3 Extended Key Usage: 
                TLS Web Client Authentication
            X509v3 Key Usage: 
                Digital Signature
    Signature Algorithm: sha256WithRSAEncryption
         35:39:7b:c2:8e:a0:36:62:6a:41:95:ee:6e:bf:b9:c9:80:f2:
         27:bd:99:9d:97:da:ea:e5:7c:e0:78:e9:4d:11:d9:f3:33:ea:
         a9:8f:20:7a:3e:e6:70:1a:fb:8c:4d:c9:0e:2d:55:60:67:72:
         46:23:99:cb:b1:f9:c5:bf:db:69:cb:7d:35:df:ef:eb:eb:01:
         53:e3:b3:26:e9:47:ba:dc:44:12:b0:35:d4:f2:c2:31:50:c1:
         9d:1f:3c:39:70:4a:aa:ff:d8:58:74:34:45:bd:59:6e:95:d9:
         3f:e4:dc:bb:ee:6c:1e:5a:29:f8:e4:41:3b:6c:3e:4b:13:58:
         74:5e:6b:cc:e9:7b:39:75:e2:c8:cd:db:ab:5d:df:28:06:eb:
         ac:f4:18:43:44:ec:68:3a:6a:b5:ab:86:8b:33:7f:1b:3c:2f:
         a1:eb:ac:cf:f1:96:b8:de:38:2e:8b:be:22:b8:5e:36:77:a8:
         d7:5e:61:9f:27:b6:86:7d:96:40:21:5e:f6:58:d5:46:d4:f9:
         c0:b6:e7:f5:4e:52:b1:fd:29:76:9b:d0:0a:b6:b7:15:94:1a:
         3e:9a:fd:93:34:26:50:51:1c:41:97:c3:1b:86:e6:6a:97:fe:
         a5:26:34:66:0e:66:8c:e5:b7:5c:44:d1:f3:99:22:0d:5a:4c:
         ec:8f:f2:30
-----BEGIN CERTIFICATE-----
MIIDXTCCAkWgAwIBAgIRAMuusZ3gs1K3sEHkDvUK+HYwDQYJKoZIhvcNAQELBQAw
FjEUMBIGA1UEAwwLdGVhbTI4Ni1uZXQwHhcNMjEwOTEzMDEyMTMzWhcNMjQwODI4
MDEyMTMzWjAZMRcwFQYDVQQDDA50ZWFtMjg2LWNsaWVudDCCASIwDQYJKoZIhvcN
AQEBBQADggEPADCCAQoCggEBAK+9TTY5d5N+b7GBaziRSIZWrOj5P3ZXeyZTjTE6
Z40GKk8p16dsYpE3128YphRX8ZxfJQz/sfwiE4oqZ3FvcLdhk/UWH2iEDYw+MTri
5G1Qxsojq2Ao6xWqpIXuYK3DS3ci41HNkF4ToEp3T4Wod5sMljJr/1Dm+UERBgoL
fQXS7pigdup5+M1zu9XZMrrPDAVtQwN0vska0yshoaGkhf7qJ5DL72aaxJjA8a1W
SQ/Ju4aDW5VL7jX9qFzP1o0md536wNiDLT8DmkxkpCAFjE5HeHHLBacBDLNht7fa
UcIqdwI+IuTjD0FHKeL+r0RS11o7QoHMe7UlSc3ytTe2GgsCAwEAAaOBojCBnzAJ
BgNVHRMEAjAAMB0GA1UdDgQWBBSaBMTZ9SsxGP6hNCJEjeyhkxNOZTBRBgNVHSME
SjBIgBTBlCF0/QG9AciYM3HPNyVsn5/BwaEapBgwFjEUMBIGA1UEAwwLdGVhbTI4
Ni1uZXSCFCNWodRXS3CVErLXcc1Jyg6EoIg+MBMGA1UdJQQMMAoGCCsGAQUFBwMC
MAsGA1UdDwQEAwIHgDANBgkqhkiG9w0BAQsFAAOCAQEANTl7wo6gNmJqQZXubr+5
yYDyJ72ZnZfa6uV84HjpTRHZ8zPqqY8gej7mcBr7jE3JDi1VYGdyRiOZy7H5xb/b
act9Nd/v6+sBU+OzJulHutxEErA11PLCMVDBnR88OXBKqv/YWHQ0Rb1ZbpXZP+Tc
u+5sHlop+ORBO2w+SxNYdF5rzOl7OXXiyM3bq13fKAbrrPQYQ0TsaDpqtauGizN/
Gzwvoeusz/GWuN44Lou+IrheNneo115hnye2hn2WQCFe9ljVRtT5wLbn9U5Ssf0p
dpvQCra3FZQaPpr9kzQmUFEcQZfDG4bmapf+pSY0Zg5mjOW3XETR85kiDVpM7I/y
MA==
-----END CERTIFICATE-----
