Certificate:
    Data:
        Version: 3 (0x2)
        Serial Number:
            52:3e:0c:f4:a0:86:f2:2f:bc:bb:55:5a:34:64:d7:db
        Signature Algorithm: sha256WithRSAEncryption
        Issuer: CN=team524-net
        Validity
            Not Before: Sep 13 03:17:30 2021 GMT
            Not After : Aug 28 03:17:30 2024 GMT
        Subject: CN=team524-client
        Subject Public Key Info:
            Public Key Algorithm: rsaEncryption
                RSA Public-Key: (2048 bit)
                Modulus:
                    00:cb:69:67:e4:f7:d9:d9:06:7e:c9:07:e0:2f:63:
                    23:16:39:d9:61:73:35:d5:3f:33:ff:cb:b7:09:e2:
                    cf:3a:f5:00:8f:5d:53:97:ab:6c:de:df:4a:db:3f:
                    b8:e2:6e:97:51:d6:40:a9:99:79:71:88:1f:6b:33:
                    69:13:e9:ba:c3:94:39:d7:bc:1c:43:f7:49:d1:16:
                    53:3e:38:9b:12:81:80:64:bc:c3:a2:6f:8c:75:53:
                    8b:87:bf:81:a6:81:2b:26:18:61:6a:43:20:d6:f2:
                    ff:73:e5:e0:e6:bd:8c:a2:fb:6f:5e:59:2d:51:ce:
                    6f:50:af:0c:31:41:dc:0f:19:59:d0:9b:03:98:76:
                    d3:d7:6f:cc:40:7a:10:af:c6:5e:bc:b8:07:52:f3:
                    6c:27:59:c9:95:9b:53:48:1c:06:24:90:3d:99:14:
                    65:d4:78:30:8f:e0:b7:3e:95:8c:43:77:06:a6:73:
                    65:83:2c:58:8c:c6:18:ba:b2:b7:62:49:cf:b6:4a:
                    57:8e:3c:1c:ee:b1:b3:d0:1a:11:5b:ab:28:47:d5:
                    e5:3b:22:70:2c:b5:08:93:7e:d1:51:67:f3:5e:4b:
                    a5:07:b1:b3:57:f8:9a:c5:6c:90:63:91:8e:40:1a:
                    d9:78:7c:00:64:3c:cf:73:ea:e6:13:82:d6:7c:eb:
                    e5:63
                Exponent: 65537 (0x10001)
        X509v3 extensions:
            X509v3 Basic Constraints: 
                CA:FALSE
            X509v3 Subject Key Identifier: 
                F7:82:E9:5A:8B:91:92:2E:7C:50:CF:7C:50:D7:34:98:A9:63:81:6F
            X509v3 Authority Key Identifier: 
                keyid:5A:AB:18:4D:43:6E:8A:3F:FE:33:BC:CE:68:61:5B:FC:A7:0D:25:ED
                DirName:/CN=team524-net
                serial:28:4A:D6:27:55:F3:8B:05:EF:21:5F:E9:BB:42:97:FC:88:5D:85:F4

            X509v3 Extended Key Usage: 
                TLS Web Client Authentication
            X509v3 Key Usage: 
                Digital Signature
    Signature Algorithm: sha256WithRSAEncryption
         0a:b8:d4:9b:1b:60:2c:13:f5:eb:77:8d:8a:e3:e9:80:e3:be:
         16:14:53:df:dd:53:e0:cf:20:bb:84:0b:4e:4a:b5:94:98:14:
         84:0c:25:cd:18:d7:31:18:05:be:34:a9:fd:64:60:bc:4f:d4:
         05:36:a0:82:ae:98:5d:3a:dc:71:6c:97:93:e4:36:63:60:59:
         a8:d8:7e:7a:ef:e7:0f:cf:ca:4e:5c:bb:f9:1f:a4:ab:05:53:
         69:1f:88:b4:c0:85:78:25:f2:e9:ef:34:eb:c2:c7:aa:c7:c1:
         54:57:b1:0e:d3:34:ec:4d:1e:99:a4:03:7e:9d:d1:da:15:99:
         e7:f4:b2:d2:33:47:f2:eb:c1:68:fa:9b:c4:bd:77:43:b7:57:
         fa:38:95:ed:af:14:f1:7a:e9:13:98:1e:0b:ba:d3:71:84:8c:
         df:c8:06:7a:48:0b:97:a3:14:db:d0:bd:3d:3b:5a:fb:d4:6b:
         21:9d:66:33:b9:2e:3b:b9:aa:09:ee:31:fe:d4:fe:c3:82:56:
         92:28:86:b4:2b:75:7f:6e:ed:f5:cd:e4:1b:56:e1:00:f8:7e:
         2c:39:4b:72:1a:46:9f:8b:53:a9:37:0f:4d:5f:db:cc:d6:67:
         56:00:92:23:93:49:6b:f8:9c:7f:25:85:91:ff:c0:32:48:23:
         2d:d0:4e:eb
-----BEGIN CERTIFICATE-----
MIIDXDCCAkSgAwIBAgIQUj4M9KCG8i+8u1VaNGTX2zANBgkqhkiG9w0BAQsFADAW
MRQwEgYDVQQDDAt0ZWFtNTI0LW5ldDAeFw0yMTA5MTMwMzE3MzBaFw0yNDA4Mjgw
MzE3MzBaMBkxFzAVBgNVBAMMDnRlYW01MjQtY2xpZW50MIIBIjANBgkqhkiG9w0B
AQEFAAOCAQ8AMIIBCgKCAQEAy2ln5PfZ2QZ+yQfgL2MjFjnZYXM11T8z/8u3CeLP
OvUAj11Tl6ts3t9K2z+44m6XUdZAqZl5cYgfazNpE+m6w5Q517wcQ/dJ0RZTPjib
EoGAZLzDom+MdVOLh7+BpoErJhhhakMg1vL/c+Xg5r2MovtvXlktUc5vUK8MMUHc
DxlZ0JsDmHbT12/MQHoQr8ZevLgHUvNsJ1nJlZtTSBwGJJA9mRRl1Hgwj+C3PpWM
Q3cGpnNlgyxYjMYYurK3YknPtkpXjjwc7rGz0BoRW6soR9XlOyJwLLUIk37RUWfz
XkulB7GzV/iaxWyQY5GOQBrZeHwAZDzPc+rmE4LWfOvlYwIDAQABo4GiMIGfMAkG
A1UdEwQCMAAwHQYDVR0OBBYEFPeC6VqLkZIufFDPfFDXNJipY4FvMFEGA1UdIwRK
MEiAFFqrGE1Dboo//jO8zmhhW/ynDSXtoRqkGDAWMRQwEgYDVQQDDAt0ZWFtNTI0
LW5ldIIUKErWJ1XziwXvIV/pu0KX/IhdhfQwEwYDVR0lBAwwCgYIKwYBBQUHAwIw
CwYDVR0PBAQDAgeAMA0GCSqGSIb3DQEBCwUAA4IBAQAKuNSbG2AsE/Xrd42K4+mA
474WFFPf3VPgzyC7hAtOSrWUmBSEDCXNGNcxGAW+NKn9ZGC8T9QFNqCCrphdOtxx
bJeT5DZjYFmo2H567+cPz8pOXLv5H6SrBVNpH4i0wIV4JfLp7zTrwseqx8FUV7EO
0zTsTR6ZpAN+ndHaFZnn9LLSM0fy68Fo+pvEvXdDt1f6OJXtrxTxeukTmB4LutNx
hIzfyAZ6SAuXoxTb0L09O1r71GshnWYzuS47uaoJ7jH+1P7DglaSKIa0K3V/bu31
zeQbVuEA+H4sOUtyGkafi1OpNw9NX9vM1mdWAJIjk0lr+Jx/JYWR/8AySCMt0E7r
-----END CERTIFICATE-----
