Certificate:
    Data:
        Version: 3 (0x2)
        Serial Number:
            1c:99:57:57:c8:16:8a:1a:04:b5:ce:f9:28:c0:ae:e0
        Signature Algorithm: sha256WithRSAEncryption
        Issuer: CN=team583-net
        Validity
            Not Before: Sep 13 03:52:01 2021 GMT
            Not After : Aug 28 03:52:01 2024 GMT
        Subject: CN=team583-server
        Subject Public Key Info:
            Public Key Algorithm: rsaEncryption
                RSA Public-Key: (2048 bit)
                Modulus:
                    00:ba:a0:25:73:fa:31:93:37:6a:55:26:b3:ee:19:
                    29:bd:3f:3d:35:33:ea:a5:2c:7e:af:72:c9:73:29:
                    7a:68:9b:51:3f:e4:96:ab:71:7b:f0:51:05:47:b3:
                    0e:be:5b:25:b5:92:96:e7:87:be:ea:9d:7c:ef:49:
                    da:99:d9:e3:96:ba:85:aa:ff:0c:c5:a7:9a:2f:2b:
                    71:06:8d:70:86:d1:5e:6c:a9:bc:cc:56:e0:58:47:
                    7f:6e:79:e1:08:03:e8:03:6e:36:61:03:0b:14:bc:
                    23:88:db:c3:bc:d7:a7:e2:2d:2f:94:dc:c2:7f:23:
                    85:fe:72:ef:6e:9f:17:8b:1f:2e:ad:d4:88:82:96:
                    d1:c3:62:ae:16:a3:0a:a5:97:ae:fa:a2:cd:43:4f:
                    d8:bb:8b:94:ab:c8:9f:1f:9a:0c:20:c2:10:46:12:
                    e2:2e:bc:6f:c5:b5:53:0a:50:0e:c2:ec:53:84:36:
                    f0:5b:6a:65:c8:15:d6:be:61:51:f9:2a:cf:99:43:
                    d7:b1:2a:9d:4e:8d:e3:2f:44:6e:70:8c:c9:6b:c1:
                    d8:4a:e2:1f:3c:36:cc:3c:68:6c:e7:1a:58:25:77:
                    50:50:64:94:4f:7d:b3:94:ae:fe:5c:16:cf:64:f5:
                    80:e2:23:29:24:49:45:df:95:ba:e8:cb:45:22:00:
                    b7:df
                Exponent: 65537 (0x10001)
        X509v3 extensions:
            X509v3 Basic Constraints: 
                CA:FALSE
            X509v3 Subject Key Identifier: 
                E4:11:37:ED:4A:3E:E1:C2:36:C5:69:0C:47:79:BB:EF:1C:3C:51:7C
            X509v3 Authority Key Identifier: 
                keyid:9B:9D:BB:C8:CC:FE:BC:45:7C:5A:3E:EE:E1:6A:A5:20:34:D0:D9:EA
                DirName:/CN=team583-net
                serial:71:E4:0A:80:44:D9:1E:F0:92:3B:C3:8A:62:ED:1F:56:F7:E3:76:7F

            X509v3 Extended Key Usage: 
                TLS Web Server Authentication
            X509v3 Key Usage: 
                Digital Signature, Key Encipherment
            X509v3 Subject Alternative Name: 
                DNS:team583-server
    Signature Algorithm: sha256WithRSAEncryption
         6d:4d:12:21:67:7d:89:05:71:d1:a4:0e:25:e4:47:ef:8b:0f:
         4b:e2:12:2b:02:7b:15:71:07:32:4f:ac:4e:c9:6d:61:6c:80:
         5d:8b:91:6e:77:a6:2e:7a:fc:5c:da:1a:37:71:0d:67:f7:99:
         46:5e:64:b4:40:ce:9d:a7:d7:bc:0c:9f:14:95:ac:ba:d5:0b:
         60:72:02:6a:e4:f4:41:73:8c:2d:98:ae:37:d1:06:5f:3e:92:
         a1:08:86:fc:67:e3:bc:7c:5e:c2:bd:b8:bf:50:02:7d:73:c5:
         a4:47:c5:bf:b2:d9:09:ec:ee:9c:27:b5:1d:2a:ed:57:59:2d:
         46:9b:e6:ba:59:16:c3:48:f4:10:a5:03:8e:56:cc:df:d7:17:
         b0:7f:7d:c1:34:0a:a4:cf:6a:9d:0f:ab:98:88:87:08:a4:69:
         a7:ac:9d:0f:0e:73:0d:5a:d5:71:fe:7a:fb:da:c9:14:4c:6d:
         2c:8e:51:58:f7:46:02:3e:fc:90:96:f0:5b:7f:fa:3b:a0:2e:
         81:98:55:ce:16:71:b4:c4:45:ab:46:22:07:a4:b1:bf:e8:08:
         b5:37:07:06:12:b5:1b:6b:ac:68:c3:a1:ff:92:cd:e6:31:6f:
         4c:b2:fe:ef:d9:1c:f7:61:53:32:27:95:e3:ae:8c:0a:70:87:
         fc:1b:be:56
-----BEGIN CERTIFICATE-----
MIIDdzCCAl+gAwIBAgIQHJlXV8gWihoEtc75KMCu4DANBgkqhkiG9w0BAQsFADAW
MRQwEgYDVQQDDAt0ZWFtNTgzLW5ldDAeFw0yMTA5MTMwMzUyMDFaFw0yNDA4Mjgw
MzUyMDFaMBkxFzAVBgNVBAMMDnRlYW01ODMtc2VydmVyMIIBIjANBgkqhkiG9w0B
AQEFAAOCAQ8AMIIBCgKCAQEAuqAlc/oxkzdqVSaz7hkpvT89NTPqpSx+r3LJcyl6
aJtRP+SWq3F78FEFR7MOvlsltZKW54e+6p1870namdnjlrqFqv8MxaeaLytxBo1w
htFebKm8zFbgWEd/bnnhCAPoA242YQMLFLwjiNvDvNen4i0vlNzCfyOF/nLvbp8X
ix8urdSIgpbRw2KuFqMKpZeu+qLNQ0/Yu4uUq8ifH5oMIMIQRhLiLrxvxbVTClAO
wuxThDbwW2plyBXWvmFR+SrPmUPXsSqdTo3jL0RucIzJa8HYSuIfPDbMPGhs5xpY
JXdQUGSUT32zlK7+XBbPZPWA4iMpJElF35W66MtFIgC33wIDAQABo4G9MIG6MAkG
A1UdEwQCMAAwHQYDVR0OBBYEFOQRN+1KPuHCNsVpDEd5u+8cPFF8MFEGA1UdIwRK
MEiAFJudu8jM/rxFfFo+7uFqpSA00NnqoRqkGDAWMRQwEgYDVQQDDAt0ZWFtNTgz
LW5ldIIUceQKgETZHvCSO8OKYu0fVvfjdn8wEwYDVR0lBAwwCgYIKwYBBQUHAwEw
CwYDVR0PBAQDAgWgMBkGA1UdEQQSMBCCDnRlYW01ODMtc2VydmVyMA0GCSqGSIb3
DQEBCwUAA4IBAQBtTRIhZ32JBXHRpA4l5Efviw9L4hIrAnsVcQcyT6xOyW1hbIBd
i5Fud6Yuevxc2ho3cQ1n95lGXmS0QM6dp9e8DJ8Ulay61QtgcgJq5PRBc4wtmK43
0QZfPpKhCIb8Z+O8fF7Cvbi/UAJ9c8WkR8W/stkJ7O6cJ7UdKu1XWS1Gm+a6WRbD
SPQQpQOOVszf1xewf33BNAqkz2qdD6uYiIcIpGmnrJ0PDnMNWtVx/nr72skUTG0s
jlFY90YCPvyQlvBbf/o7oC6BmFXOFnG0xEWrRiIHpLG/6Ai1NwcGErUba6xow6H/
ks3mMW9Msv7v2Rz3YVMyJ5XjrowKcIf8G75W
-----END CERTIFICATE-----
