Certificate:
    Data:
        Version: 3 (0x2)
        Serial Number:
            b5:8d:54:61:21:65:9b:b3:0f:cf:51:9c:60:6c:72:5c
        Signature Algorithm: sha256WithRSAEncryption
        Issuer: CN=team246-net
        Validity
            Not Before: Sep 13 00:48:31 2021 GMT
            Not After : Aug 28 00:48:31 2024 GMT
        Subject: CN=team246-client
        Subject Public Key Info:
            Public Key Algorithm: rsaEncryption
                RSA Public-Key: (2048 bit)
                Modulus:
                    00:de:45:b6:7b:93:49:d4:3a:98:20:61:ac:fd:08:
                    b7:85:13:9f:f6:76:3f:dc:7d:21:3f:a1:be:31:f7:
                    1c:9c:ec:22:94:2f:2b:da:36:1a:24:ea:70:03:43:
                    26:75:ae:17:82:00:d6:7e:54:7d:cd:ae:93:d8:60:
                    e4:93:71:91:70:9e:85:e4:c6:6a:fe:24:fd:fe:54:
                    91:51:3d:65:0c:ea:a7:10:06:77:0d:34:2c:d3:90:
                    ff:71:a0:a1:72:9b:c0:1c:47:b9:5d:9b:7b:db:e2:
                    b6:b7:9e:72:38:86:d3:82:dd:47:a1:e8:74:a3:6a:
                    d4:e7:a9:42:b9:48:4d:21:1c:72:a3:09:20:90:bc:
                    ef:e1:ca:67:35:ab:d5:54:9d:b0:56:46:e7:b1:fd:
                    68:ae:fe:46:d2:3b:e3:f1:f9:a6:0c:43:4e:80:cd:
                    16:a9:4a:1b:d3:14:84:e0:fa:93:96:4b:00:84:61:
                    18:e1:1d:bd:7e:37:7b:f8:08:3a:50:ea:9d:53:42:
                    e9:4d:a6:19:73:f2:d1:ce:68:fa:98:31:4b:d1:fd:
                    e7:c2:bd:ed:e9:e3:dc:85:7b:79:e2:37:68:6b:d1:
                    43:02:c6:ab:6e:84:d7:9b:9d:4e:38:18:32:25:f6:
                    6e:8c:a0:c0:7e:ad:4b:cb:e7:c8:a7:4d:ae:0a:6e:
                    b7:95
                Exponent: 65537 (0x10001)
        X509v3 extensions:
            X509v3 Basic Constraints: 
                CA:FALSE
            X509v3 Subject Key Identifier: 
                6B:9B:25:8A:2F:BD:A3:36:6C:C7:0D:5E:24:86:9E:67:F9:C2:48:20
            X509v3 Authority Key Identifier: 
                keyid:09:77:C6:2F:12:49:30:07:FD:5B:62:C7:7F:36:AE:1A:51:05:E5:29
                DirName:/CN=team246-net
                serial:0D:E9:B3:7B:BD:5F:F1:12:05:E2:61:D3:AC:F1:8E:BA:EC:1D:43:51

            X509v3 Extended Key Usage: 
                TLS Web Client Authentication
            X509v3 Key Usage: 
                Digital Signature
    Signature Algorithm: sha256WithRSAEncryption
         1e:12:aa:0c:30:b4:8d:ab:ae:60:45:d8:1d:8a:24:9b:d9:9e:
         6e:4f:e0:6b:6b:21:2b:be:cf:43:3e:c9:24:b4:13:be:07:e3:
         c6:f0:70:0d:01:f3:23:13:de:28:30:65:c5:e4:96:17:c7:85:
         8b:9f:00:06:61:7a:ee:0f:bc:5c:bc:98:21:38:71:44:19:73:
         9c:d7:42:14:f1:62:39:a6:f2:ba:4d:f6:be:27:d6:36:d0:63:
         b8:67:8d:67:b5:33:51:04:7b:d3:26:95:c7:42:87:46:5e:c9:
         2a:7a:e0:79:61:cb:f1:7e:bf:a6:22:74:7c:ad:f6:d6:fe:1e:
         af:a1:31:f8:be:fb:30:e6:40:31:b8:64:1d:ca:91:b0:40:e8:
         c8:cc:9a:56:e1:7d:ce:79:0e:15:d1:41:ef:23:da:ff:c5:4e:
         b6:6c:8b:9f:36:c2:44:29:ae:7e:0a:17:fe:26:d6:64:ba:67:
         84:8f:af:56:76:6a:c6:89:14:3e:03:01:3a:72:a3:83:08:88:
         3e:77:9e:2f:52:bb:4f:4b:52:8f:a2:cf:8a:23:38:9f:69:96:
         24:bc:7e:17:f2:66:10:6e:96:71:95:7d:18:45:9e:c1:9e:66:
         9c:6f:e5:d6:b8:aa:33:23:fc:72:e1:45:0a:de:3b:29:96:96:
         c5:4f:fd:49
-----BEGIN CERTIFICATE-----
MIIDXTCCAkWgAwIBAgIRALWNVGEhZZuzD89RnGBsclwwDQYJKoZIhvcNAQELBQAw
FjEUMBIGA1UEAwwLdGVhbTI0Ni1uZXQwHhcNMjEwOTEzMDA0ODMxWhcNMjQwODI4
MDA0ODMxWjAZMRcwFQYDVQQDDA50ZWFtMjQ2LWNsaWVudDCCASIwDQYJKoZIhvcN
AQEBBQADggEPADCCAQoCggEBAN5FtnuTSdQ6mCBhrP0It4UTn/Z2P9x9IT+hvjH3
HJzsIpQvK9o2GiTqcANDJnWuF4IA1n5Ufc2uk9hg5JNxkXCeheTGav4k/f5UkVE9
ZQzqpxAGdw00LNOQ/3GgoXKbwBxHuV2be9vitreecjiG04LdR6HodKNq1OepQrlI
TSEccqMJIJC87+HKZzWr1VSdsFZG57H9aK7+RtI74/H5pgxDToDNFqlKG9MUhOD6
k5ZLAIRhGOEdvX43e/gIOlDqnVNC6U2mGXPy0c5o+pgxS9H958K97enj3IV7eeI3
aGvRQwLGq26E15udTjgYMiX2boygwH6tS8vnyKdNrgput5UCAwEAAaOBojCBnzAJ
BgNVHRMEAjAAMB0GA1UdDgQWBBRrmyWKL72jNmzHDV4khp5n+cJIIDBRBgNVHSME
SjBIgBQJd8YvEkkwB/1bYsd/Nq4aUQXlKaEapBgwFjEUMBIGA1UEAwwLdGVhbTI0
Ni1uZXSCFA3ps3u9X/ESBeJh06zxjrrsHUNRMBMGA1UdJQQMMAoGCCsGAQUFBwMC
MAsGA1UdDwQEAwIHgDANBgkqhkiG9w0BAQsFAAOCAQEAHhKqDDC0jauuYEXYHYok
m9mebk/ga2shK77PQz7JJLQTvgfjxvBwDQHzIxPeKDBlxeSWF8eFi58ABmF67g+8
XLyYIThxRBlznNdCFPFiOabyuk32vifWNtBjuGeNZ7UzUQR70yaVx0KHRl7JKnrg
eWHL8X6/piJ0fK321v4er6Ex+L77MOZAMbhkHcqRsEDoyMyaVuF9znkOFdFB7yPa
/8VOtmyLnzbCRCmufgoX/ibWZLpnhI+vVnZqxokUPgMBOnKjgwiIPneeL1K7T0tS
j6LPiiM4n2mWJLx+F/JmEG6WcZV9GEWewZ5mnG/l1riqMyP8cuFFCt47KZaWxU/9
SQ==
-----END CERTIFICATE-----
