Certificate:
    Data:
        Version: 3 (0x2)
        Serial Number:
            df:c2:7d:3c:8c:e8:80:7a:b4:37:97:72:de:8f:82:d0
        Signature Algorithm: sha256WithRSAEncryption
        Issuer: CN=team246-net
        Validity
            Not Before: Sep 13 00:48:31 2021 GMT
            Not After : Aug 28 00:48:31 2024 GMT
        Subject: CN=team246-server
        Subject Public Key Info:
            Public Key Algorithm: rsaEncryption
                RSA Public-Key: (2048 bit)
                Modulus:
                    00:c1:b7:6e:d1:cd:63:b0:b0:84:99:69:5e:5f:4c:
                    af:fb:97:97:9c:aa:26:3c:5c:19:e8:b6:8d:d4:21:
                    1b:88:6a:f0:4f:de:8e:ff:27:de:e9:79:59:51:c1:
                    e4:ff:52:d1:9c:ec:1b:83:15:db:22:15:fa:8e:69:
                    38:30:74:33:51:a6:95:45:a5:91:39:69:24:37:45:
                    e2:38:49:be:08:93:b0:80:d3:f7:d8:7a:92:10:5d:
                    8f:82:b6:8e:47:40:54:df:03:52:27:63:a2:0b:a3:
                    91:43:ee:04:d1:cb:cc:19:89:d7:58:f0:70:69:fb:
                    ad:90:3d:92:89:ab:30:89:c8:5c:1e:1d:d1:1a:46:
                    57:d6:c2:2e:c5:5d:26:c7:4b:15:30:20:a4:eb:a4:
                    12:9c:22:b6:55:d2:00:e9:76:2a:1d:22:cb:36:de:
                    9d:8f:4e:a2:c9:ca:cc:e1:08:94:48:b6:ec:f3:58:
                    19:23:3b:4a:92:74:08:ea:bb:db:0b:e6:8b:7c:e5:
                    71:59:2f:49:8a:e5:39:25:3d:0f:c5:4d:d5:c2:b7:
                    b0:ac:6a:74:27:ea:c6:52:1c:95:c8:d4:75:b9:f9:
                    ae:55:0d:44:f6:fd:3b:80:fb:33:5a:6e:9c:9f:3f:
                    0d:e9:d4:53:18:65:a4:80:12:43:63:c7:ee:cb:ae:
                    50:5b
                Exponent: 65537 (0x10001)
        X509v3 extensions:
            X509v3 Basic Constraints: 
                CA:FALSE
            X509v3 Subject Key Identifier: 
                4D:DA:16:3E:71:F1:BD:18:0B:01:50:46:1E:B8:91:DE:C5:8C:F8:77
            X509v3 Authority Key Identifier: 
                keyid:09:77:C6:2F:12:49:30:07:FD:5B:62:C7:7F:36:AE:1A:51:05:E5:29
                DirName:/CN=team246-net
                serial:0D:E9:B3:7B:BD:5F:F1:12:05:E2:61:D3:AC:F1:8E:BA:EC:1D:43:51

            X509v3 Extended Key Usage: 
                TLS Web Server Authentication
            X509v3 Key Usage: 
                Digital Signature, Key Encipherment
            X509v3 Subject Alternative Name: 
                DNS:team246-server
    Signature Algorithm: sha256WithRSAEncryption
         1b:0d:9c:5c:f9:31:36:d3:18:8e:d1:46:ec:21:f5:3e:e6:7c:
         93:69:f5:a6:fe:88:f3:3d:02:56:f4:3f:9c:c5:12:c4:98:36:
         a5:69:6b:1b:f9:2d:bf:0b:da:ad:27:6b:93:7c:78:56:b0:5f:
         60:a4:fc:3f:a2:70:9b:6b:bd:6a:fa:c3:34:9f:22:42:59:7d:
         00:d1:2d:41:d8:c2:20:53:59:b1:86:39:7f:c7:76:05:0a:b8:
         87:57:84:c8:70:42:f7:d9:1a:eb:81:c0:15:04:78:e6:04:53:
         83:d0:ad:a4:7e:c9:aa:9c:9e:1c:49:b9:55:64:2a:33:ba:03:
         b1:b4:b0:97:03:ac:fc:75:1d:21:9f:40:d6:58:34:ee:54:8a:
         96:75:87:6a:bd:bc:ae:1d:85:24:0f:2a:8f:cf:5f:05:5d:15:
         63:74:c2:af:b9:62:ac:d2:0e:d1:fc:58:f7:38:28:0b:16:a8:
         89:2a:e6:6a:d0:4f:ce:bd:56:30:b7:0b:53:f0:9c:26:01:56:
         0c:3d:ef:93:33:f1:b1:95:6a:84:58:1e:55:f9:be:61:88:08:
         ef:7f:c0:7a:ca:a9:a4:f4:e9:01:27:8a:f2:77:ec:4f:52:39:
         41:2f:e5:b1:ea:be:72:a6:ab:a0:60:34:df:f5:65:91:17:8a:
         45:f8:b7:f3
-----BEGIN CERTIFICATE-----
MIIDeDCCAmCgAwIBAgIRAN/CfTyM6IB6tDeXct6PgtAwDQYJKoZIhvcNAQELBQAw
FjEUMBIGA1UEAwwLdGVhbTI0Ni1uZXQwHhcNMjEwOTEzMDA0ODMxWhcNMjQwODI4
MDA0ODMxWjAZMRcwFQYDVQQDDA50ZWFtMjQ2LXNlcnZlcjCCASIwDQYJKoZIhvcN
AQEBBQADggEPADCCAQoCggEBAMG3btHNY7CwhJlpXl9Mr/uXl5yqJjxcGei2jdQh
G4hq8E/ejv8n3ul5WVHB5P9S0ZzsG4MV2yIV+o5pODB0M1GmlUWlkTlpJDdF4jhJ
vgiTsIDT99h6khBdj4K2jkdAVN8DUidjogujkUPuBNHLzBmJ11jwcGn7rZA9komr
MInIXB4d0RpGV9bCLsVdJsdLFTAgpOukEpwitlXSAOl2Kh0iyzbenY9OosnKzOEI
lEi27PNYGSM7SpJ0COq72wvmi3zlcVkvSYrlOSU9D8VN1cK3sKxqdCfqxlIclcjU
dbn5rlUNRPb9O4D7M1punJ8/DenUUxhlpIASQ2PH7suuUFsCAwEAAaOBvTCBujAJ
BgNVHRMEAjAAMB0GA1UdDgQWBBRN2hY+cfG9GAsBUEYeuJHexYz4dzBRBgNVHSME
SjBIgBQJd8YvEkkwB/1bYsd/Nq4aUQXlKaEapBgwFjEUMBIGA1UEAwwLdGVhbTI0
Ni1uZXSCFA3ps3u9X/ESBeJh06zxjrrsHUNRMBMGA1UdJQQMMAoGCCsGAQUFBwMB
MAsGA1UdDwQEAwIFoDAZBgNVHREEEjAQgg50ZWFtMjQ2LXNlcnZlcjANBgkqhkiG
9w0BAQsFAAOCAQEAGw2cXPkxNtMYjtFG7CH1PuZ8k2n1pv6I8z0CVvQ/nMUSxJg2
pWlrG/ktvwvarSdrk3x4VrBfYKT8P6Jwm2u9avrDNJ8iQll9ANEtQdjCIFNZsYY5
f8d2BQq4h1eEyHBC99ka64HAFQR45gRTg9CtpH7JqpyeHEm5VWQqM7oDsbSwlwOs
/HUdIZ9A1lg07lSKlnWHar28rh2FJA8qj89fBV0VY3TCr7lirNIO0fxY9zgoCxao
iSrmatBPzr1WMLcLU/CcJgFWDD3vkzPxsZVqhFgeVfm+YYgI73/AesqppPTpASeK
8nfsT1I5QS/lseq+cqaroGA03/VlkReKRfi38w==
-----END CERTIFICATE-----
