Certificate:
    Data:
        Version: 3 (0x2)
        Serial Number:
            4b:96:a0:2a:9a:da:81:6d:fb:a7:df:f0:88:d7:ec:17
        Signature Algorithm: sha256WithRSAEncryption
        Issuer: CN=team207-net
        Validity
            Not Before: Sep 13 00:40:10 2021 GMT
            Not After : Aug 28 00:40:10 2024 GMT
        Subject: CN=team207-client
        Subject Public Key Info:
            Public Key Algorithm: rsaEncryption
                RSA Public-Key: (2048 bit)
                Modulus:
                    00:a1:cd:24:20:1e:c2:e7:2a:49:ab:ef:61:49:f4:
                    52:ed:1d:ca:36:e6:a4:fc:31:c7:86:e4:db:73:43:
                    ff:83:98:77:04:74:95:44:a0:30:e5:b2:ee:6d:9d:
                    94:8a:e1:82:6b:b1:30:e9:9e:45:65:24:88:ee:1e:
                    8a:43:c4:b3:f3:23:76:df:74:ef:f2:15:4e:3c:9d:
                    b6:17:3c:cb:8e:63:0f:68:1e:69:6a:6c:2a:87:61:
                    d9:eb:8b:ce:b5:6e:ea:ba:db:1d:f1:9d:79:a8:32:
                    c1:05:66:9f:16:57:b5:d7:04:de:79:16:11:53:eb:
                    67:3c:27:37:59:34:6e:0f:05:3c:f7:c7:f6:d8:99:
                    f9:a6:5a:05:da:60:0d:1a:e9:51:97:08:58:88:c7:
                    ae:c2:48:ab:b7:9b:ff:a8:67:e5:f7:c1:10:af:91:
                    ac:a8:02:2b:b5:ac:fb:fb:df:75:f2:66:a9:3e:a1:
                    25:e4:54:21:88:8c:e6:06:01:bb:68:c9:76:2a:f7:
                    dc:14:a2:7e:be:55:7c:67:9d:34:dd:a3:2b:d9:0b:
                    71:69:b9:4d:87:1d:5c:3f:a8:b1:cc:98:e4:56:c6:
                    cf:56:3a:3e:21:46:28:ed:6b:ae:d8:75:05:01:ca:
                    bf:7a:b4:be:b1:fc:2e:e2:3d:39:74:83:dd:ba:b0:
                    29:0b
                Exponent: 65537 (0x10001)
        X509v3 extensions:
            X509v3 Basic Constraints: 
                CA:FALSE
            X509v3 Subject Key Identifier: 
                59:07:78:5C:B6:C8:D0:92:65:70:EA:D6:7A:24:D1:3A:5F:25:45:D1
            X509v3 Authority Key Identifier: 
                keyid:B1:C3:0B:F5:22:E7:DB:50:88:EC:EF:65:98:86:C1:31:D4:3F:C8:66
                DirName:/CN=team207-net
                serial:3C:8F:88:BC:86:27:92:41:BA:DD:A4:99:D3:BB:E5:00:3E:DE:77:5B

            X509v3 Extended Key Usage: 
                TLS Web Client Authentication
            X509v3 Key Usage: 
                Digital Signature
    Signature Algorithm: sha256WithRSAEncryption
         69:d0:2d:b8:43:f2:70:f9:14:39:43:ea:b5:91:15:8e:ac:4c:
         ec:89:7e:a1:8c:50:dd:2c:df:18:6f:98:2d:d2:8e:dd:e2:60:
         a3:a1:17:4b:89:ca:c0:b5:22:3f:fc:12:7c:79:8c:e3:2c:92:
         e5:6b:19:79:7d:15:58:35:a0:70:a8:ae:dc:30:e0:c8:7f:47:
         89:51:8b:f1:0e:9f:1d:52:fc:1d:c5:ad:a3:0f:05:35:df:3e:
         6e:37:75:47:c4:39:55:1c:90:3b:4e:28:ee:68:b3:01:71:e3:
         fb:65:14:f3:66:32:95:fa:0d:fe:ef:4a:bf:3d:cf:22:26:52:
         b6:14:0c:3b:44:93:80:67:eb:e9:58:ce:fc:20:fa:f0:0a:d9:
         6d:04:26:c6:9c:ff:54:6d:4d:d1:d4:22:67:8b:b5:ad:60:cc:
         08:2e:6d:78:92:71:d6:b1:06:63:fa:41:f8:d7:25:a5:66:58:
         bf:40:a3:9f:87:10:33:a0:9d:2c:e0:25:18:05:6e:b5:da:e8:
         8e:80:f7:3e:51:12:dd:7c:b3:30:6c:b9:d9:c5:10:d0:11:91:
         2a:1d:33:0c:7f:33:be:30:9d:47:70:30:a0:3f:4a:72:3f:d0:
         d2:be:3c:00:ce:d8:db:6d:3f:64:18:9d:1f:11:2e:d4:da:2a:
         fc:f9:80:00
-----BEGIN CERTIFICATE-----
MIIDXDCCAkSgAwIBAgIQS5agKpragW37p9/wiNfsFzANBgkqhkiG9w0BAQsFADAW
MRQwEgYDVQQDDAt0ZWFtMjA3LW5ldDAeFw0yMTA5MTMwMDQwMTBaFw0yNDA4Mjgw
MDQwMTBaMBkxFzAVBgNVBAMMDnRlYW0yMDctY2xpZW50MIIBIjANBgkqhkiG9w0B
AQEFAAOCAQ8AMIIBCgKCAQEAoc0kIB7C5ypJq+9hSfRS7R3KNuak/DHHhuTbc0P/
g5h3BHSVRKAw5bLubZ2UiuGCa7Ew6Z5FZSSI7h6KQ8Sz8yN233Tv8hVOPJ22FzzL
jmMPaB5pamwqh2HZ64vOtW7qutsd8Z15qDLBBWafFle11wTeeRYRU+tnPCc3WTRu
DwU898f22Jn5ploF2mANGulRlwhYiMeuwkirt5v/qGfl98EQr5GsqAIrtaz7+991
8mapPqEl5FQhiIzmBgG7aMl2KvfcFKJ+vlV8Z5003aMr2QtxablNhx1cP6ixzJjk
VsbPVjo+IUYo7Wuu2HUFAcq/erS+sfwu4j05dIPdurApCwIDAQABo4GiMIGfMAkG
A1UdEwQCMAAwHQYDVR0OBBYEFFkHeFy2yNCSZXDq1nok0TpfJUXRMFEGA1UdIwRK
MEiAFLHDC/Ui59tQiOzvZZiGwTHUP8hmoRqkGDAWMRQwEgYDVQQDDAt0ZWFtMjA3
LW5ldIIUPI+IvIYnkkG63aSZ07vlAD7ed1swEwYDVR0lBAwwCgYIKwYBBQUHAwIw
CwYDVR0PBAQDAgeAMA0GCSqGSIb3DQEBCwUAA4IBAQBp0C24Q/Jw+RQ5Q+q1kRWO
rEzsiX6hjFDdLN8Yb5gt0o7d4mCjoRdLicrAtSI//BJ8eYzjLJLlaxl5fRVYNaBw
qK7cMODIf0eJUYvxDp8dUvwdxa2jDwU13z5uN3VHxDlVHJA7TijuaLMBceP7ZRTz
ZjKV+g3+70q/Pc8iJlK2FAw7RJOAZ+vpWM78IPrwCtltBCbGnP9UbU3R1CJni7Wt
YMwILm14knHWsQZj+kH41yWlZli/QKOfhxAzoJ0s4CUYBW612uiOgPc+URLdfLMw
bLnZxRDQEZEqHTMMfzO+MJ1HcDCgP0pyP9DSvjwAztjbbT9kGJ0fES7U2ir8+YAA
-----END CERTIFICATE-----
