Certificate:
    Data:
        Version: 3 (0x2)
        Serial Number:
            25:9a:0b:d6:bc:51:63:67:77:8b:71:79:b8:e9:e5:34
        Signature Algorithm: sha256WithRSAEncryption
        Issuer: CN=team704-net
        Validity
            Not Before: Sep 13 04:52:06 2021 GMT
            Not After : Aug 28 04:52:06 2024 GMT
        Subject: CN=team704-server
        Subject Public Key Info:
            Public Key Algorithm: rsaEncryption
                RSA Public-Key: (2048 bit)
                Modulus:
                    00:bd:77:95:0a:a9:e3:04:6a:a3:ff:5c:65:e4:a4:
                    a9:52:15:cd:27:3e:07:b9:ad:24:8c:b0:d1:3d:2f:
                    9c:88:06:c6:06:2e:5b:3f:0f:40:6e:4d:6f:a1:97:
                    34:2e:1d:85:1f:15:47:d1:4b:a5:67:d0:0a:3c:5d:
                    cc:5f:39:28:b3:7b:09:70:9a:6b:5d:f3:a4:29:27:
                    d9:48:c9:33:cb:d0:70:7c:d0:5a:66:b1:98:5e:d3:
                    3f:93:d4:87:6a:bd:7a:ea:89:8d:b7:c1:be:79:f6:
                    b9:6f:97:60:d3:e9:79:15:8e:88:92:8c:1f:ae:0f:
                    95:1e:5c:e0:07:fb:19:e0:c2:87:26:0f:ae:09:35:
                    fc:55:67:fd:ce:66:b1:aa:da:34:43:cb:ad:00:d0:
                    73:12:c0:b4:99:b0:13:c9:f4:f7:1f:47:21:ac:b0:
                    48:1f:55:6c:7b:d3:23:57:81:01:a1:07:d3:07:70:
                    4a:97:8b:2b:6c:cd:18:c7:dd:6a:50:7f:ac:c7:48:
                    0e:76:69:40:b5:f3:03:85:f3:e9:b4:37:0d:de:14:
                    9d:c9:d6:44:16:17:fe:57:b5:28:45:5f:bf:3d:39:
                    ce:57:d4:00:8f:84:74:74:bc:32:3f:75:61:e6:30:
                    d6:67:a7:28:d4:33:fe:f7:a5:7a:73:76:bb:96:5c:
                    75:59
                Exponent: 65537 (0x10001)
        X509v3 extensions:
            X509v3 Basic Constraints: 
                CA:FALSE
            X509v3 Subject Key Identifier: 
                76:5D:F9:2E:25:94:38:46:41:16:11:F8:D5:B3:22:B3:55:C8:E3:F4
            X509v3 Authority Key Identifier: 
                keyid:E3:6C:69:97:D1:82:EE:26:C5:D1:FD:7B:CE:89:9C:D6:E4:0B:A6:03
                DirName:/CN=team704-net
                serial:53:7E:24:34:F9:3C:FF:8A:C6:F3:98:A7:A4:02:D8:51:D5:75:E9:2E

            X509v3 Extended Key Usage: 
                TLS Web Server Authentication
            X509v3 Key Usage: 
                Digital Signature, Key Encipherment
            X509v3 Subject Alternative Name: 
                DNS:team704-server
    Signature Algorithm: sha256WithRSAEncryption
         be:5c:b4:53:97:45:7b:e1:1d:65:dc:9e:e2:d5:34:c6:14:95:
         0a:d8:b7:6f:07:d1:89:24:6a:7b:a1:de:d6:94:e9:cf:17:59:
         3d:61:96:a5:b5:40:b1:bb:16:f7:7d:86:ba:ce:85:b7:95:53:
         b0:2f:ac:1f:b8:3b:6f:be:0f:44:1f:73:a3:e0:57:a6:8a:fe:
         4e:39:b4:97:e2:c1:c7:26:48:67:f0:11:4e:23:9f:b4:67:83:
         ae:30:1d:97:61:48:b5:28:c7:51:81:6b:0b:6d:45:99:96:ca:
         ca:00:e4:bc:52:0b:2e:87:a1:4a:92:f4:0e:96:e8:93:e1:70:
         3d:78:0b:b2:cb:13:fd:db:11:8c:b5:7c:d1:5f:e7:91:11:db:
         1f:83:5c:a7:7f:b4:15:07:b3:d0:4f:91:f6:05:68:46:cc:a9:
         13:43:1c:f6:f2:47:58:b8:db:d6:eb:2b:54:70:f2:4d:36:86:
         71:67:eb:79:6d:68:c1:44:59:4a:73:eb:f9:17:17:39:ef:5f:
         ed:b2:ad:25:69:92:b5:00:98:af:fb:6d:09:69:d3:44:18:82:
         ce:0a:be:77:d0:87:0e:d6:d1:f4:a9:50:98:bf:02:82:79:06:
         a2:49:57:82:70:ed:01:e8:45:e7:1f:af:7f:a2:5c:21:79:1c:
         b0:da:4b:d3
-----BEGIN CERTIFICATE-----
MIIDdzCCAl+gAwIBAgIQJZoL1rxRY2d3i3F5uOnlNDANBgkqhkiG9w0BAQsFADAW
MRQwEgYDVQQDDAt0ZWFtNzA0LW5ldDAeFw0yMTA5MTMwNDUyMDZaFw0yNDA4Mjgw
NDUyMDZaMBkxFzAVBgNVBAMMDnRlYW03MDQtc2VydmVyMIIBIjANBgkqhkiG9w0B
AQEFAAOCAQ8AMIIBCgKCAQEAvXeVCqnjBGqj/1xl5KSpUhXNJz4Hua0kjLDRPS+c
iAbGBi5bPw9Abk1voZc0Lh2FHxVH0UulZ9AKPF3MXzkos3sJcJprXfOkKSfZSMkz
y9BwfNBaZrGYXtM/k9SHar166omNt8G+efa5b5dg0+l5FY6Ikowfrg+VHlzgB/sZ
4MKHJg+uCTX8VWf9zmaxqto0Q8utANBzEsC0mbATyfT3H0chrLBIH1Vse9MjV4EB
oQfTB3BKl4srbM0Yx91qUH+sx0gOdmlAtfMDhfPptDcN3hSdydZEFhf+V7UoRV+/
PTnOV9QAj4R0dLwyP3Vh5jDWZ6co1DP+96V6c3a7llx1WQIDAQABo4G9MIG6MAkG
A1UdEwQCMAAwHQYDVR0OBBYEFHZd+S4llDhGQRYR+NWzIrNVyOP0MFEGA1UdIwRK
MEiAFONsaZfRgu4mxdH9e86JnNbkC6YDoRqkGDAWMRQwEgYDVQQDDAt0ZWFtNzA0
LW5ldIIUU34kNPk8/4rG85inpALYUdV16S4wEwYDVR0lBAwwCgYIKwYBBQUHAwEw
CwYDVR0PBAQDAgWgMBkGA1UdEQQSMBCCDnRlYW03MDQtc2VydmVyMA0GCSqGSIb3
DQEBCwUAA4IBAQC+XLRTl0V74R1l3J7i1TTGFJUK2LdvB9GJJGp7od7WlOnPF1k9
YZaltUCxuxb3fYa6zoW3lVOwL6wfuDtvvg9EH3Oj4Femiv5OObSX4sHHJkhn8BFO
I5+0Z4OuMB2XYUi1KMdRgWsLbUWZlsrKAOS8Ugsuh6FKkvQOluiT4XA9eAuyyxP9
2xGMtXzRX+eREdsfg1ynf7QVB7PQT5H2BWhGzKkTQxz28kdYuNvW6ytUcPJNNoZx
Z+t5bWjBRFlKc+v5Fxc571/tsq0laZK1AJiv+20JadNEGILOCr530IcO1tH0qVCY
vwKCeQaiSVeCcO0B6EXnH69/olwheRyw2kvT
-----END CERTIFICATE-----
