Certificate:
    Data:
        Version: 3 (0x2)
        Serial Number:
            71:18:08:ad:d1:be:cf:b8:82:7f:35:50:20:97:59:b1
        Signature Algorithm: sha256WithRSAEncryption
        Issuer: CN=team80-net
        Validity
            Not Before: Sep 12 23:24:36 2021 GMT
            Not After : Aug 27 23:24:36 2024 GMT
        Subject: CN=team80-client
        Subject Public Key Info:
            Public Key Algorithm: rsaEncryption
                RSA Public-Key: (2048 bit)
                Modulus:
                    00:e5:1c:2b:1e:f9:d7:4b:b1:4d:6f:1c:39:d3:4f:
                    b1:6b:b7:a7:67:41:b2:3d:55:f7:bf:3b:01:c3:80:
                    68:33:01:ea:d6:87:39:1c:b6:4c:40:74:8f:ec:06:
                    5a:e3:5b:2a:a2:88:d2:bd:46:de:90:d4:91:17:62:
                    47:d5:a2:38:16:e9:ed:a1:7b:20:22:12:2e:48:74:
                    24:3b:96:72:f8:a0:c1:6e:34:d9:8e:7a:2e:47:d7:
                    b3:23:d1:66:be:a8:7b:59:e1:e5:0d:61:d0:ad:39:
                    10:e6:eb:05:e8:4d:96:ed:c8:38:75:e3:5d:d8:fa:
                    2e:5e:97:0c:56:48:ed:d1:c2:1e:c6:ad:b5:28:c8:
                    db:2c:c6:8f:18:4e:ff:c8:70:9a:91:54:e4:fe:98:
                    19:df:9d:b3:30:a6:c5:63:cd:60:4e:c9:90:89:38:
                    80:60:8a:1e:d5:d0:ea:7c:d6:19:5d:90:63:4b:03:
                    de:3d:be:82:f9:bd:81:31:45:3d:35:65:a8:2d:99:
                    ac:d2:8a:4b:f7:22:e9:13:42:80:a3:de:dc:b6:2a:
                    01:17:a2:00:20:e2:19:68:da:8c:fc:34:17:dd:08:
                    29:7c:6a:d1:6d:71:68:c2:1e:64:c9:fa:dd:09:e3:
                    b6:fb:f6:15:55:f8:1e:cb:4a:1d:f7:95:68:e7:a5:
                    86:35
                Exponent: 65537 (0x10001)
        X509v3 extensions:
            X509v3 Basic Constraints: 
                CA:FALSE
            X509v3 Subject Key Identifier: 
                5A:15:12:89:C6:D3:55:03:7F:7E:6B:52:E4:74:6A:86:05:EC:69:6B
            X509v3 Authority Key Identifier: 
                keyid:7D:11:16:42:F9:66:55:62:82:10:84:66:A9:1A:2A:EC:FF:0D:57:0E
                DirName:/CN=team80-net
                serial:4C:A8:44:34:74:3E:D8:A3:ED:76:9A:38:C8:EB:FF:AE:41:19:CD:0B

            X509v3 Extended Key Usage: 
                TLS Web Client Authentication
            X509v3 Key Usage: 
                Digital Signature
    Signature Algorithm: sha256WithRSAEncryption
         bb:c0:95:b3:06:3f:83:9e:4a:80:bc:f1:f4:ec:20:ec:28:44:
         79:f6:fd:17:77:ee:c4:f9:da:1c:91:f8:8b:60:bc:04:42:37:
         c6:b9:e8:fc:4c:25:b5:0b:57:f1:fd:0e:a9:dc:b3:7b:76:38:
         2d:5f:da:47:67:7c:ed:cb:74:c8:35:e6:56:f6:8b:fe:57:14:
         4d:0e:31:f5:5c:12:15:9e:b1:bc:d3:0f:fa:36:7a:18:0f:13:
         8c:e7:26:4a:fa:1a:7d:82:d8:ae:37:5a:9b:ea:9d:aa:6a:b1:
         f6:5c:f3:68:bd:15:2d:c4:d8:5a:e0:c4:2b:76:f2:13:37:cd:
         7e:cc:b9:9c:1e:7b:05:9d:2c:5d:d3:9f:f7:6e:d3:10:83:ce:
         62:da:dd:a0:3c:57:96:52:d6:69:9c:fb:ea:e8:e0:1b:e0:6f:
         39:e4:30:c8:b7:8f:27:87:fe:d2:dc:32:64:77:72:a6:b3:af:
         bd:ec:04:a9:77:ea:5c:d5:cb:2b:dc:62:a9:8a:a5:bc:db:73:
         8f:e9:36:b9:63:99:b5:8c:dd:69:8d:bf:cb:37:8f:0c:49:0a:
         e4:5f:dc:d2:9d:78:b3:95:13:04:0b:0b:44:22:b8:da:fc:38:
         d4:c6:89:61:97:03:31:e5:40:ac:0d:99:30:68:b6:6b:f1:fa:
         00:23:1d:23
-----BEGIN CERTIFICATE-----
MIIDWTCCAkGgAwIBAgIQcRgIrdG+z7iCfzVQIJdZsTANBgkqhkiG9w0BAQsFADAV
MRMwEQYDVQQDDAp0ZWFtODAtbmV0MB4XDTIxMDkxMjIzMjQzNloXDTI0MDgyNzIz
MjQzNlowGDEWMBQGA1UEAwwNdGVhbTgwLWNsaWVudDCCASIwDQYJKoZIhvcNAQEB
BQADggEPADCCAQoCggEBAOUcKx7510uxTW8cOdNPsWu3p2dBsj1V9787AcOAaDMB
6taHORy2TEB0j+wGWuNbKqKI0r1G3pDUkRdiR9WiOBbp7aF7ICISLkh0JDuWcvig
wW402Y56LkfXsyPRZr6oe1nh5Q1h0K05EObrBehNlu3IOHXjXdj6Ll6XDFZI7dHC
HsattSjI2yzGjxhO/8hwmpFU5P6YGd+dszCmxWPNYE7JkIk4gGCKHtXQ6nzWGV2Q
Y0sD3j2+gvm9gTFFPTVlqC2ZrNKKS/ci6RNCgKPe3LYqAReiACDiGWjajPw0F90I
KXxq0W1xaMIeZMn63Qnjtvv2FVX4HstKHfeVaOelhjUCAwEAAaOBoTCBnjAJBgNV
HRMEAjAAMB0GA1UdDgQWBBRaFRKJxtNVA39+a1LkdGqGBexpazBQBgNVHSMESTBH
gBR9ERZC+WZVYoIQhGapGirs/w1XDqEZpBcwFTETMBEGA1UEAwwKdGVhbTgwLW5l
dIIUTKhENHQ+2KPtdpo4yOv/rkEZzQswEwYDVR0lBAwwCgYIKwYBBQUHAwIwCwYD
VR0PBAQDAgeAMA0GCSqGSIb3DQEBCwUAA4IBAQC7wJWzBj+DnkqAvPH07CDsKER5
9v0Xd+7E+dockfiLYLwEQjfGuej8TCW1C1fx/Q6p3LN7djgtX9pHZ3zty3TINeZW
9ov+VxRNDjH1XBIVnrG80w/6NnoYDxOM5yZK+hp9gtiuN1qb6p2qarH2XPNovRUt
xNha4MQrdvITN81+zLmcHnsFnSxd05/3btMQg85i2t2gPFeWUtZpnPvq6OAb4G85
5DDIt48nh/7S3DJkd3Kms6+97ASpd+pc1csr3GKpiqW823OP6Ta5Y5m1jN1pjb/L
N48MSQrkX9zSnXizlRMECwtEIrja/DjUxolhlwMx5UCsDZkwaLZr8foAIx0j
-----END CERTIFICATE-----
