Certificate:
    Data:
        Version: 3 (0x2)
        Serial Number:
            37:7f:3f:e7:ed:26:2c:22:49:19:d3:77:13:ae:c7:34
        Signature Algorithm: sha256WithRSAEncryption
        Issuer: CN=team545-net
        Validity
            Not Before: Sep 13 03:28:23 2021 GMT
            Not After : Aug 28 03:28:23 2024 GMT
        Subject: CN=team545-server
        Subject Public Key Info:
            Public Key Algorithm: rsaEncryption
                RSA Public-Key: (2048 bit)
                Modulus:
                    00:d8:a7:08:bd:80:ae:62:2e:13:53:bb:9d:e5:13:
                    6a:c4:61:93:2d:29:2d:72:24:af:9a:08:2f:5c:26:
                    c9:54:3a:b2:b6:3e:89:f9:f3:bc:2f:61:7b:ed:3b:
                    cc:49:b6:0e:b9:af:51:47:90:75:18:03:e3:bb:b8:
                    83:87:e6:73:d7:0b:5b:18:39:07:e1:f2:bd:58:69:
                    47:1c:cf:ce:17:60:73:a3:4b:f0:41:1b:db:28:11:
                    d0:54:1d:a3:df:0a:db:43:d6:07:55:b9:30:a1:f9:
                    3f:76:3a:ce:20:83:bf:36:9d:e7:3a:8c:c2:10:1e:
                    dc:d4:b6:6e:d2:ff:bc:f5:3d:1c:e0:9e:48:fe:65:
                    1e:86:74:0d:e7:fb:78:0f:19:a2:00:5e:6e:94:41:
                    33:53:f8:bc:5d:f9:a0:44:a7:fa:5f:c5:3c:04:d0:
                    d0:73:f1:6d:ac:61:60:41:dd:3a:00:9c:90:85:e4:
                    46:bb:47:0d:14:a9:cc:20:c1:4d:f4:d4:db:b3:c1:
                    b1:68:8c:d8:e1:48:54:bf:66:70:e4:e9:a8:7b:9f:
                    ad:c7:eb:95:00:94:18:8e:33:ec:54:f1:a4:8b:64:
                    de:91:7e:ed:83:71:e9:46:32:21:fd:f2:6e:d2:1a:
                    66:11:dc:70:6b:45:02:00:10:7a:21:24:f2:11:b8:
                    48:db
                Exponent: 65537 (0x10001)
        X509v3 extensions:
            X509v3 Basic Constraints: 
                CA:FALSE
            X509v3 Subject Key Identifier: 
                63:FF:CE:FE:56:88:F3:67:9A:FE:1B:67:62:FC:CA:1A:A5:A3:52:3E
            X509v3 Authority Key Identifier: 
                keyid:C2:B4:AC:F8:E5:BE:31:55:7F:8B:24:8A:9E:0B:A8:DC:60:EE:17:DC
                DirName:/CN=team545-net
                serial:2C:69:16:11:01:49:D7:71:D4:67:76:9B:F0:AC:AA:3A:FD:3B:76:D9

            X509v3 Extended Key Usage: 
                TLS Web Server Authentication
            X509v3 Key Usage: 
                Digital Signature, Key Encipherment
            X509v3 Subject Alternative Name: 
                DNS:team545-server
    Signature Algorithm: sha256WithRSAEncryption
         59:29:14:34:25:90:c9:55:4c:be:cc:c0:55:b9:e0:64:01:3f:
         df:88:4e:cd:ca:24:de:fb:a9:df:09:1a:bd:5e:9e:46:78:00:
         0d:a0:cd:13:95:76:7d:b5:0a:79:c3:9b:d4:6e:e2:1c:9a:63:
         2f:32:12:1e:33:45:15:bd:01:28:3e:d9:e5:e4:a0:1a:9f:6a:
         6c:0c:aa:dd:59:d8:b8:77:e7:66:f5:90:30:db:d3:7e:9a:6a:
         9e:34:cb:48:18:80:6f:9d:35:7f:05:67:0c:fa:7c:08:ec:3b:
         5a:b1:fa:38:fb:4b:65:04:d7:d2:30:7b:11:ab:d1:2a:7b:f9:
         4f:b6:e8:a9:b9:ff:33:eb:2c:51:2d:90:ba:4e:56:84:b3:b6:
         0f:64:da:37:d3:d1:da:e3:42:04:e8:b0:3c:67:36:b4:9f:da:
         90:66:17:6f:12:b0:fd:c9:33:29:81:12:31:0e:99:c9:42:17:
         45:93:56:2c:99:ca:5d:1b:27:b0:71:c3:d4:87:7e:45:d3:30:
         31:97:51:4b:4c:b3:50:c2:7d:74:d5:0d:15:d3:02:5a:d1:dd:
         be:50:b3:95:61:a1:5d:3b:81:7b:dd:9f:68:6b:16:1f:fd:a5:
         8a:0e:28:d2:e6:3c:57:52:0a:58:f6:18:ca:52:b3:a5:77:7d:
         8f:6d:fe:1c
-----BEGIN CERTIFICATE-----
MIIDdzCCAl+gAwIBAgIQN38/5+0mLCJJGdN3E67HNDANBgkqhkiG9w0BAQsFADAW
MRQwEgYDVQQDDAt0ZWFtNTQ1LW5ldDAeFw0yMTA5MTMwMzI4MjNaFw0yNDA4Mjgw
MzI4MjNaMBkxFzAVBgNVBAMMDnRlYW01NDUtc2VydmVyMIIBIjANBgkqhkiG9w0B
AQEFAAOCAQ8AMIIBCgKCAQEA2KcIvYCuYi4TU7ud5RNqxGGTLSktciSvmggvXCbJ
VDqytj6J+fO8L2F77TvMSbYOua9RR5B1GAPju7iDh+Zz1wtbGDkH4fK9WGlHHM/O
F2Bzo0vwQRvbKBHQVB2j3wrbQ9YHVbkwofk/djrOIIO/Np3nOozCEB7c1LZu0v+8
9T0c4J5I/mUehnQN5/t4DxmiAF5ulEEzU/i8XfmgRKf6X8U8BNDQc/FtrGFgQd06
AJyQheRGu0cNFKnMIMFN9NTbs8GxaIzY4UhUv2Zw5Omoe5+tx+uVAJQYjjPsVPGk
i2TekX7tg3HpRjIh/fJu0hpmEdxwa0UCABB6ISTyEbhI2wIDAQABo4G9MIG6MAkG
A1UdEwQCMAAwHQYDVR0OBBYEFGP/zv5WiPNnmv4bZ2L8yhqlo1I+MFEGA1UdIwRK
MEiAFMK0rPjlvjFVf4skip4LqNxg7hfcoRqkGDAWMRQwEgYDVQQDDAt0ZWFtNTQ1
LW5ldIIULGkWEQFJ13HUZ3ab8KyqOv07dtkwEwYDVR0lBAwwCgYIKwYBBQUHAwEw
CwYDVR0PBAQDAgWgMBkGA1UdEQQSMBCCDnRlYW01NDUtc2VydmVyMA0GCSqGSIb3
DQEBCwUAA4IBAQBZKRQ0JZDJVUy+zMBVueBkAT/fiE7NyiTe+6nfCRq9Xp5GeAAN
oM0TlXZ9tQp5w5vUbuIcmmMvMhIeM0UVvQEoPtnl5KAan2psDKrdWdi4d+dm9ZAw
29N+mmqeNMtIGIBvnTV/BWcM+nwI7Dtasfo4+0tlBNfSMHsRq9Eqe/lPtuipuf8z
6yxRLZC6TlaEs7YPZNo309Ha40IE6LA8Zza0n9qQZhdvErD9yTMpgRIxDpnJQhdF
k1YsmcpdGyewccPUh35F0zAxl1FLTLNQwn101Q0V0wJa0d2+ULOVYaFdO4F73Z9o
axYf/aWKDijS5jxXUgpY9hjKUrOld32Pbf4c
-----END CERTIFICATE-----
