Certificate:
    Data:
        Version: 3 (0x2)
        Serial Number:
            ee:f7:61:f3:79:c7:e8:6e:d3:f0:f7:93:b6:8a:f6:9b
        Signature Algorithm: sha256WithRSAEncryption
        Issuer: CN=team609-net
        Validity
            Not Before: Sep 13 04:25:51 2021 GMT
            Not After : Aug 28 04:25:51 2024 GMT
        Subject: CN=team609-server
        Subject Public Key Info:
            Public Key Algorithm: rsaEncryption
                RSA Public-Key: (2048 bit)
                Modulus:
                    00:ed:6b:ad:af:b0:88:ab:6b:35:84:21:52:b1:f7:
                    8a:e2:e0:96:0e:a0:f7:da:5d:13:0e:b9:9f:ae:d7:
                    45:e1:c5:b5:97:f6:7a:73:58:75:67:0a:61:f1:64:
                    b0:15:7c:c0:d9:b9:8a:24:1e:4b:00:dd:f9:fc:69:
                    fd:b7:db:e2:5b:53:07:1d:dc:8d:68:23:67:e3:c8:
                    4f:37:a4:81:75:90:db:c6:14:d7:a0:09:b2:36:dc:
                    fa:e7:6b:64:7e:69:63:47:95:02:65:dc:be:59:40:
                    11:8e:a4:83:fe:af:e7:7c:a8:d5:b2:81:14:e4:1b:
                    f1:69:98:cb:c3:fa:32:3a:60:3f:2f:15:dd:94:9b:
                    d3:fb:1d:20:bf:d2:2f:d5:e3:88:c6:5c:77:07:8e:
                    ed:7d:e0:eb:c0:e7:bb:f6:a1:47:db:0f:9e:e0:b3:
                    04:d8:95:c9:29:4e:d9:a2:f8:51:da:47:d6:8b:98:
                    cb:61:99:fb:48:1f:3f:6e:47:fd:62:7d:6d:c6:0d:
                    0b:3a:a6:fd:a2:91:af:16:5f:e9:38:50:5b:24:2d:
                    4f:e5:b4:73:08:44:2f:6c:8a:2d:dd:df:05:d1:ab:
                    30:9b:af:7d:ce:23:90:27:62:fb:db:06:ed:7e:12:
                    ee:b5:b9:fe:ea:47:b2:38:72:03:98:43:c0:36:a8:
                    b6:2f
                Exponent: 65537 (0x10001)
        X509v3 extensions:
            X509v3 Basic Constraints: 
                CA:FALSE
            X509v3 Subject Key Identifier: 
                9E:E8:D9:85:F1:71:78:10:98:A6:1E:77:E6:F3:54:CA:5A:8F:CB:F2
            X509v3 Authority Key Identifier: 
                keyid:F3:B0:1C:13:FF:5A:F8:45:F3:10:D2:F6:D9:4E:26:13:9C:D4:5F:5D
                DirName:/CN=team609-net
                serial:6C:88:4A:4C:E0:CF:3B:25:C9:1B:E4:CE:60:27:EB:96:72:BB:DC:3A

            X509v3 Extended Key Usage: 
                TLS Web Server Authentication
            X509v3 Key Usage: 
                Digital Signature, Key Encipherment
            X509v3 Subject Alternative Name: 
                DNS:team609-server
    Signature Algorithm: sha256WithRSAEncryption
         56:13:70:e1:91:a6:5b:2e:93:a5:75:7b:fe:40:36:5b:72:5f:
         d7:6e:47:be:ae:5d:1b:29:e7:12:a2:07:8a:ab:62:87:2c:b0:
         dc:9d:21:75:78:ca:55:d2:ae:df:43:aa:17:1e:98:64:61:c7:
         7b:18:67:d2:51:17:55:22:fc:0a:a2:63:a2:a2:9a:ff:93:32:
         be:83:07:1b:78:aa:fa:91:3e:fb:2c:64:a3:18:9a:fc:59:be:
         2c:c3:e1:01:1e:40:60:f8:4e:46:ae:de:a6:48:eb:de:7b:0f:
         54:9f:8a:59:52:7f:19:b5:0b:a7:ee:69:05:e8:cf:c1:84:32:
         1d:44:c6:0e:d0:6f:b4:f3:2f:f6:eb:92:55:83:67:1f:5e:8a:
         7e:ab:0a:86:7f:64:40:2a:fe:a0:04:03:96:5d:3b:a9:75:5d:
         1f:1d:49:ba:55:6b:fb:ad:a1:d4:85:8c:8b:01:8a:60:fb:b0:
         20:8a:78:ab:7a:70:55:8b:b7:0b:e6:fa:bb:60:6a:25:3c:5d:
         81:cf:30:66:99:c9:ac:15:eb:dd:66:2e:aa:13:d3:d5:48:d1:
         de:7b:5d:3a:c8:40:b3:47:76:a9:a9:e9:7c:b7:1b:eb:54:70:
         ee:22:70:64:ce:de:a2:ba:5c:22:95:3a:e3:91:1d:47:fd:3b:
         0d:dd:32:03
-----BEGIN CERTIFICATE-----
MIIDeDCCAmCgAwIBAgIRAO73YfN5x+hu0/D3k7aK9pswDQYJKoZIhvcNAQELBQAw
FjEUMBIGA1UEAwwLdGVhbTYwOS1uZXQwHhcNMjEwOTEzMDQyNTUxWhcNMjQwODI4
MDQyNTUxWjAZMRcwFQYDVQQDDA50ZWFtNjA5LXNlcnZlcjCCASIwDQYJKoZIhvcN
AQEBBQADggEPADCCAQoCggEBAO1rra+wiKtrNYQhUrH3iuLglg6g99pdEw65n67X
ReHFtZf2enNYdWcKYfFksBV8wNm5iiQeSwDd+fxp/bfb4ltTBx3cjWgjZ+PITzek
gXWQ28YU16AJsjbc+udrZH5pY0eVAmXcvllAEY6kg/6v53yo1bKBFOQb8WmYy8P6
MjpgPy8V3ZSb0/sdIL/SL9XjiMZcdweO7X3g68Dnu/ahR9sPnuCzBNiVySlO2aL4
UdpH1ouYy2GZ+0gfP25H/WJ9bcYNCzqm/aKRrxZf6ThQWyQtT+W0cwhEL2yKLd3f
BdGrMJuvfc4jkCdi+9sG7X4S7rW5/upHsjhyA5hDwDaoti8CAwEAAaOBvTCBujAJ
BgNVHRMEAjAAMB0GA1UdDgQWBBSe6NmF8XF4EJimHnfm81TKWo/L8jBRBgNVHSME
SjBIgBTzsBwT/1r4RfMQ0vbZTiYTnNRfXaEapBgwFjEUMBIGA1UEAwwLdGVhbTYw
OS1uZXSCFGyISkzgzzslyRvkzmAn65Zyu9w6MBMGA1UdJQQMMAoGCCsGAQUFBwMB
MAsGA1UdDwQEAwIFoDAZBgNVHREEEjAQgg50ZWFtNjA5LXNlcnZlcjANBgkqhkiG
9w0BAQsFAAOCAQEAVhNw4ZGmWy6TpXV7/kA2W3Jf125Hvq5dGynnEqIHiqtihyyw
3J0hdXjKVdKu30OqFx6YZGHHexhn0lEXVSL8CqJjoqKa/5MyvoMHG3iq+pE++yxk
oxia/Fm+LMPhAR5AYPhORq7epkjr3nsPVJ+KWVJ/GbULp+5pBejPwYQyHUTGDtBv
tPMv9uuSVYNnH16KfqsKhn9kQCr+oAQDll07qXVdHx1JulVr+62h1IWMiwGKYPuw
IIp4q3pwVYu3C+b6u2BqJTxdgc8wZpnJrBXr3WYuqhPT1UjR3ntdOshAs0d2qanp
fLcb61Rw7iJwZM7eorpcIpU645EdR/07Dd0yAw==
-----END CERTIFICATE-----
