Certificate:
    Data:
        Version: 3 (0x2)
        Serial Number:
            af:5c:ad:c4:ce:6a:17:bd:07:e5:55:7b:a4:61:14:0f
        Signature Algorithm: sha256WithRSAEncryption
        Issuer: CN=team378-net
        Validity
            Not Before: Sep 13 02:08:40 2021 GMT
            Not After : Aug 28 02:08:40 2024 GMT
        Subject: CN=team378-server
        Subject Public Key Info:
            Public Key Algorithm: rsaEncryption
                RSA Public-Key: (2048 bit)
                Modulus:
                    00:b2:b5:67:96:b4:c1:4a:9d:57:fe:11:4c:a2:61:
                    3c:59:8c:c5:7e:73:b9:de:01:d2:d4:e5:16:ad:c3:
                    b8:e1:85:a9:d4:ea:55:7c:14:e3:d9:ca:89:4d:bc:
                    45:c9:9e:4e:ed:e9:09:99:fb:60:60:7f:6b:55:1a:
                    65:46:e3:60:1b:18:e2:ed:8d:6f:17:66:55:8b:f4:
                    4f:5f:91:3d:66:da:e6:4a:c0:62:12:82:4b:3e:78:
                    a8:a0:26:ad:aa:4d:f8:77:12:4b:a8:35:bd:57:a5:
                    6b:1d:29:60:fd:0a:f8:04:41:0a:c9:c3:81:4f:b9:
                    b8:61:b9:06:04:80:82:60:0b:8b:1f:d3:41:ff:7d:
                    24:c3:4d:4c:00:70:c2:d7:a1:6a:9a:ab:76:0a:fd:
                    a7:b2:f7:fe:95:60:27:ad:ee:55:0d:d5:3c:14:49:
                    69:fd:1c:ed:5c:e3:f6:e9:39:76:8d:e2:24:3e:b5:
                    68:b3:ba:f3:7e:3a:a7:3f:d0:89:e9:03:55:e7:01:
                    b8:bd:29:4d:55:7b:25:ae:15:5c:37:fc:47:ec:84:
                    8b:33:eb:6b:c1:03:2c:b9:06:e4:54:5c:bc:7b:93:
                    ed:1e:d7:4b:18:15:28:e1:a2:aa:5a:73:c8:ce:f4:
                    1a:42:c4:e5:df:82:3f:b2:7a:ca:f0:f0:b3:db:6d:
                    9c:11
                Exponent: 65537 (0x10001)
        X509v3 extensions:
            X509v3 Basic Constraints: 
                CA:FALSE
            X509v3 Subject Key Identifier: 
                E2:01:4D:FF:59:DA:F8:B7:80:69:6F:1B:58:21:EE:A4:78:F1:D8:D2
            X509v3 Authority Key Identifier: 
                keyid:81:8D:A3:CE:50:AB:38:D0:49:7F:94:07:07:0E:6A:10:D7:AD:35:FE
                DirName:/CN=team378-net
                serial:45:E6:69:13:37:0E:E1:5D:F2:F6:BA:7D:5E:78:5F:C7:F7:B8:0A:0C

            X509v3 Extended Key Usage: 
                TLS Web Server Authentication
            X509v3 Key Usage: 
                Digital Signature, Key Encipherment
            X509v3 Subject Alternative Name: 
                DNS:team378-server
    Signature Algorithm: sha256WithRSAEncryption
         00:93:3c:bd:d3:63:14:c5:26:5e:a0:cf:ce:d5:10:9f:4a:5a:
         94:94:a3:48:c4:46:ec:c6:cd:5b:83:fa:71:4f:2e:ac:c8:d7:
         18:d8:c6:66:76:40:d9:39:c6:d8:da:51:79:4d:4e:72:b4:b0:
         7b:58:83:07:e0:6e:30:78:97:d2:3c:15:b3:1d:4c:01:20:9a:
         e2:32:d0:00:da:d2:9a:0f:39:7f:27:06:e5:d2:ed:d2:cc:dd:
         49:5d:24:9a:98:28:43:ee:d5:a1:e0:8f:5d:5d:67:c0:bd:a1:
         f2:01:73:b7:72:15:e8:ce:78:58:f4:74:dc:d8:21:3b:47:73:
         4c:f6:9a:6e:a2:a7:ac:2a:e5:72:d4:74:b6:9c:72:8f:cf:9b:
         bd:ef:a0:92:00:8f:a8:6a:21:cf:47:2a:6e:0c:2c:79:8e:19:
         5f:df:55:88:93:ba:1a:7b:fe:8e:77:a5:0e:19:01:04:b8:c8:
         4a:85:85:b3:40:e4:88:ef:38:96:36:ae:c7:aa:70:76:1e:ae:
         34:ab:27:76:35:11:d1:55:8b:bd:72:a3:81:56:a1:78:13:93:
         72:40:cb:e6:38:44:43:dc:73:c0:2a:c2:fd:a4:a0:fc:f0:51:
         5a:7d:68:c7:3e:8f:b8:73:d2:77:39:ba:a7:d1:be:a1:2b:35:
         80:2b:ba:f3
-----BEGIN CERTIFICATE-----
MIIDeDCCAmCgAwIBAgIRAK9crcTOahe9B+VVe6RhFA8wDQYJKoZIhvcNAQELBQAw
FjEUMBIGA1UEAwwLdGVhbTM3OC1uZXQwHhcNMjEwOTEzMDIwODQwWhcNMjQwODI4
MDIwODQwWjAZMRcwFQYDVQQDDA50ZWFtMzc4LXNlcnZlcjCCASIwDQYJKoZIhvcN
AQEBBQADggEPADCCAQoCggEBALK1Z5a0wUqdV/4RTKJhPFmMxX5zud4B0tTlFq3D
uOGFqdTqVXwU49nKiU28RcmeTu3pCZn7YGB/a1UaZUbjYBsY4u2NbxdmVYv0T1+R
PWba5krAYhKCSz54qKAmrapN+HcSS6g1vVelax0pYP0K+ARBCsnDgU+5uGG5BgSA
gmALix/TQf99JMNNTABwwtehapqrdgr9p7L3/pVgJ63uVQ3VPBRJaf0c7Vzj9uk5
do3iJD61aLO68346pz/QiekDVecBuL0pTVV7Ja4VXDf8R+yEizPra8EDLLkG5FRc
vHuT7R7XSxgVKOGiqlpzyM70GkLE5d+CP7J6yvDws9ttnBECAwEAAaOBvTCBujAJ
BgNVHRMEAjAAMB0GA1UdDgQWBBTiAU3/Wdr4t4BpbxtYIe6kePHY0jBRBgNVHSME
SjBIgBSBjaPOUKs40El/lAcHDmoQ1601/qEapBgwFjEUMBIGA1UEAwwLdGVhbTM3
OC1uZXSCFEXmaRM3DuFd8va6fV54X8f3uAoMMBMGA1UdJQQMMAoGCCsGAQUFBwMB
MAsGA1UdDwQEAwIFoDAZBgNVHREEEjAQgg50ZWFtMzc4LXNlcnZlcjANBgkqhkiG
9w0BAQsFAAOCAQEAAJM8vdNjFMUmXqDPztUQn0palJSjSMRG7MbNW4P6cU8urMjX
GNjGZnZA2TnG2NpReU1OcrSwe1iDB+BuMHiX0jwVsx1MASCa4jLQANrSmg85fycG
5dLt0szdSV0kmpgoQ+7VoeCPXV1nwL2h8gFzt3IV6M54WPR03NghO0dzTPaabqKn
rCrlctR0tpxyj8+bve+gkgCPqGohz0cqbgwseY4ZX99ViJO6Gnv+jnelDhkBBLjI
SoWFs0DkiO84ljaux6pwdh6uNKsndjUR0VWLvXKjgVaheBOTckDL5jhEQ9xzwCrC
/aSg/PBRWn1oxz6PuHPSdzm6p9G+oSs1gCu68w==
-----END CERTIFICATE-----
