Certificate:
    Data:
        Version: 3 (0x2)
        Serial Number:
            cc:63:7d:86:87:3b:e0:e6:13:85:58:35:84:e5:b2:d1
        Signature Algorithm: sha256WithRSAEncryption
        Issuer: CN=team702-net
        Validity
            Not Before: Sep 13 05:23:35 2021 GMT
            Not After : Aug 28 05:23:35 2024 GMT
        Subject: CN=team702-client
        Subject Public Key Info:
            Public Key Algorithm: rsaEncryption
                RSA Public-Key: (2048 bit)
                Modulus:
                    00:c1:c0:12:bd:56:c7:00:80:c3:07:39:f1:e1:fe:
                    75:12:cc:33:af:d4:da:99:7d:a7:b9:b9:68:85:cb:
                    25:1d:eb:dc:38:3b:91:3e:38:3b:de:48:8d:20:3b:
                    4e:89:bd:fa:82:14:c1:c5:fe:94:5f:d0:07:be:10:
                    d1:29:6e:4a:1b:99:08:37:00:58:ee:d6:fa:f8:6c:
                    86:16:11:0c:15:83:22:87:6a:a1:6f:6a:be:6e:f9:
                    ed:60:56:b5:1f:f3:20:2c:29:70:8b:dc:78:85:41:
                    25:99:49:5d:5d:a2:b4:46:6a:26:c6:ab:7a:54:ae:
                    e1:dc:2f:33:b7:6a:9b:11:cd:4d:8c:02:d0:40:e3:
                    76:96:41:25:0c:08:2b:e9:30:a5:f7:a2:40:ea:4f:
                    85:2a:d6:0e:7e:6b:cf:c9:c7:3b:19:f1:a5:85:57:
                    d8:16:7d:60:fc:90:6c:9e:95:d8:0d:b7:34:a1:e3:
                    da:56:42:5f:51:fd:41:22:0d:84:d1:83:79:57:f4:
                    ea:27:da:0f:91:d8:9a:16:01:ad:08:eb:32:fe:1f:
                    d1:35:71:53:f9:18:26:cc:b3:06:9d:13:9d:9e:db:
                    ad:82:fa:2f:0f:d3:2d:62:4b:88:23:9e:b6:ff:f6:
                    e7:e0:bf:b6:5e:f4:77:b8:90:07:dd:ba:18:f3:7f:
                    78:81
                Exponent: 65537 (0x10001)
        X509v3 extensions:
            X509v3 Basic Constraints: 
                CA:FALSE
            X509v3 Subject Key Identifier: 
                DB:FE:6D:4E:C9:70:7A:6E:1A:FC:89:5B:54:70:75:5B:68:0A:33:98
            X509v3 Authority Key Identifier: 
                keyid:2A:2A:60:CE:E8:9C:6A:46:0D:42:9C:FC:46:8E:FE:25:58:70:1B:36
                DirName:/CN=team702-net
                serial:5C:D2:7A:1B:EE:D2:68:6A:45:BF:2A:05:A9:A3:E7:EA:2D:D0:B5:CE

            X509v3 Extended Key Usage: 
                TLS Web Client Authentication
            X509v3 Key Usage: 
                Digital Signature
    Signature Algorithm: sha256WithRSAEncryption
         51:eb:2e:45:e2:71:bd:cf:c3:78:16:c1:76:22:53:6c:58:94:
         80:14:70:25:95:e4:f0:8f:5b:99:fb:c9:9e:10:b6:46:53:fa:
         e3:95:c1:2e:17:db:47:c5:22:1d:0a:fc:5b:ca:a9:ec:45:2f:
         f4:be:f9:24:ca:eb:b2:17:48:a3:6e:7b:ae:40:a4:14:a2:5d:
         6b:8b:75:de:34:5b:da:21:d9:0c:96:85:70:97:06:81:fc:a3:
         f7:9d:00:97:3e:16:c4:0d:42:65:c3:26:36:5a:98:29:95:fb:
         82:e8:c5:97:1f:7f:9e:db:58:a0:95:18:80:ae:7a:7d:f8:3e:
         10:a7:36:91:79:8c:87:cf:b1:4b:2e:d0:aa:30:8b:72:e7:18:
         fd:22:de:e7:1d:ce:a2:78:02:4d:f5:06:da:bc:17:7a:50:dc:
         5e:65:40:b0:12:1d:8a:30:4d:8f:71:04:44:f8:78:ff:82:43:
         e2:7d:8b:c3:85:39:cd:a4:23:ce:88:a3:5f:b2:6f:9a:12:6b:
         02:ee:eb:2f:a1:14:b6:d5:66:84:c6:af:c2:73:a6:a7:ff:06:
         5e:cb:e3:ff:41:04:8a:a7:c0:c4:e9:ba:7c:2a:d4:23:6f:97:
         f9:e2:03:ee:cb:cf:ff:fe:4f:ec:ad:d6:84:aa:ae:16:eb:be:
         67:38:b7:e6
-----BEGIN CERTIFICATE-----
MIIDXTCCAkWgAwIBAgIRAMxjfYaHO+DmE4VYNYTlstEwDQYJKoZIhvcNAQELBQAw
FjEUMBIGA1UEAwwLdGVhbTcwMi1uZXQwHhcNMjEwOTEzMDUyMzM1WhcNMjQwODI4
MDUyMzM1WjAZMRcwFQYDVQQDDA50ZWFtNzAyLWNsaWVudDCCASIwDQYJKoZIhvcN
AQEBBQADggEPADCCAQoCggEBAMHAEr1WxwCAwwc58eH+dRLMM6/U2pl9p7m5aIXL
JR3r3Dg7kT44O95IjSA7Tom9+oIUwcX+lF/QB74Q0SluShuZCDcAWO7W+vhshhYR
DBWDIodqoW9qvm757WBWtR/zICwpcIvceIVBJZlJXV2itEZqJsarelSu4dwvM7dq
mxHNTYwC0EDjdpZBJQwIK+kwpfeiQOpPhSrWDn5rz8nHOxnxpYVX2BZ9YPyQbJ6V
2A23NKHj2lZCX1H9QSINhNGDeVf06ifaD5HYmhYBrQjrMv4f0TVxU/kYJsyzBp0T
nZ7brYL6Lw/TLWJLiCOetv/25+C/tl70d7iQB926GPN/eIECAwEAAaOBojCBnzAJ
BgNVHRMEAjAAMB0GA1UdDgQWBBTb/m1OyXB6bhr8iVtUcHVbaAozmDBRBgNVHSME
SjBIgBQqKmDO6JxqRg1CnPxGjv4lWHAbNqEapBgwFjEUMBIGA1UEAwwLdGVhbTcw
Mi1uZXSCFFzSehvu0mhqRb8qBamj5+ot0LXOMBMGA1UdJQQMMAoGCCsGAQUFBwMC
MAsGA1UdDwQEAwIHgDANBgkqhkiG9w0BAQsFAAOCAQEAUesuReJxvc/DeBbBdiJT
bFiUgBRwJZXk8I9bmfvJnhC2RlP645XBLhfbR8UiHQr8W8qp7EUv9L75JMrrshdI
o257rkCkFKJda4t13jRb2iHZDJaFcJcGgfyj950Alz4WxA1CZcMmNlqYKZX7gujF
lx9/nttYoJUYgK56ffg+EKc2kXmMh8+xSy7QqjCLcucY/SLe5x3OongCTfUG2rwX
elDcXmVAsBIdijBNj3EERPh4/4JD4n2Lw4U5zaQjzoijX7JvmhJrAu7rL6EUttVm
hMavwnOmp/8GXsvj/0EEiqfAxOm6fCrUI2+X+eID7svP//5P7K3WhKquFuu+Zzi3
5g==
-----END CERTIFICATE-----
