Certificate:
    Data:
        Version: 3 (0x2)
        Serial Number:
            0f:e3:2b:7e:8f:28:0f:2d:05:82:92:f3:74:c4:e4:a2
        Signature Algorithm: sha256WithRSAEncryption
        Issuer: CN=team35-net
        Validity
            Not Before: Sep 12 23:03:32 2021 GMT
            Not After : Aug 27 23:03:32 2024 GMT
        Subject: CN=team35-server
        Subject Public Key Info:
            Public Key Algorithm: rsaEncryption
                RSA Public-Key: (2048 bit)
                Modulus:
                    00:9e:e6:c5:68:a4:52:78:13:c3:40:39:b2:ec:6d:
                    47:0c:d4:94:2a:47:d9:39:3c:01:6c:16:32:d3:af:
                    6d:c6:89:ec:d2:2d:bc:5d:ba:28:90:3c:91:62:c7:
                    83:d8:75:c0:30:d6:31:2d:f9:9a:d8:e4:8d:9d:dc:
                    81:76:ce:49:41:56:fd:6e:a3:b7:7e:76:2d:2d:91:
                    65:e8:6a:b4:b5:35:bd:ae:35:c3:ca:f0:f2:4f:f7:
                    1a:aa:19:e4:d8:9d:d5:0b:f2:54:1e:b0:7a:b5:75:
                    0e:a3:28:4c:c8:f0:77:62:72:bf:2f:93:49:4a:bf:
                    8b:4f:c2:22:50:e9:15:f4:4f:f0:a3:2b:ea:1b:be:
                    e4:b7:b6:03:07:0e:fc:64:1e:fc:96:b8:1b:a5:19:
                    54:c7:c3:88:02:42:57:04:5c:a8:34:6a:4a:69:1d:
                    c7:02:4d:48:76:15:65:46:ef:90:1a:c1:7b:c5:51:
                    9c:bc:8d:88:a8:a6:6a:65:1a:2b:74:24:ab:74:a8:
                    15:4a:5a:63:d8:fd:dd:91:b1:c7:8c:ab:72:4f:2d:
                    df:f8:35:35:ec:bd:59:b5:9a:9f:b9:8b:3c:3a:22:
                    4a:15:d4:35:40:96:90:44:bd:64:c7:49:d6:a8:ab:
                    cd:41:fd:d6:4a:98:e8:ae:39:23:1e:b9:24:0e:cf:
                    de:d5
                Exponent: 65537 (0x10001)
        X509v3 extensions:
            X509v3 Basic Constraints: 
                CA:FALSE
            X509v3 Subject Key Identifier: 
                19:47:A0:AA:C7:51:08:F0:8C:09:08:D3:37:40:22:A3:AE:9F:86:D2
            X509v3 Authority Key Identifier: 
                keyid:E1:0F:AD:52:3E:23:A3:52:7D:57:49:AA:F0:7B:56:FB:AF:23:7C:7A
                DirName:/CN=team35-net
                serial:42:0E:32:FB:02:AC:C0:22:D9:D1:D9:5B:D2:9B:25:AE:11:5C:AA:F8

            X509v3 Extended Key Usage: 
                TLS Web Server Authentication
            X509v3 Key Usage: 
                Digital Signature, Key Encipherment
            X509v3 Subject Alternative Name: 
                DNS:team35-server
    Signature Algorithm: sha256WithRSAEncryption
         a8:dc:b6:73:81:08:5f:6b:90:bc:14:5a:6d:b4:9c:bd:6e:f2:
         bd:37:53:23:b2:83:46:2e:d4:eb:04:dc:c2:df:d3:e8:55:35:
         a8:b4:70:15:04:03:fd:26:3e:5c:86:39:33:d9:2e:55:b4:57:
         be:6d:e5:55:ac:c8:f3:15:87:02:07:53:e3:da:a6:09:15:1b:
         24:73:a1:39:20:b7:4e:cc:fb:23:b6:25:55:f6:13:a7:0a:9c:
         e9:fd:3b:76:cf:70:99:cb:bc:08:2b:f4:21:5c:6f:81:63:24:
         6b:b2:a4:f2:bb:8c:f7:35:f2:2e:71:58:95:51:d0:3e:b3:54:
         9f:90:af:b9:03:4d:f9:48:12:94:a9:79:2b:ca:ef:72:35:c2:
         1f:ca:45:19:a4:02:9a:85:5d:d3:61:28:ee:6b:33:79:45:17:
         d7:8a:2f:c7:a8:b4:bd:32:14:6b:7f:55:84:fb:1d:f1:9a:07:
         b8:2f:d9:c9:3b:7a:e1:2a:3c:f3:a1:e2:84:99:97:bd:03:1b:
         31:66:c0:e1:f0:c9:c8:74:6f:5c:6c:8a:64:b6:f3:0e:0f:ac:
         c3:5f:8c:26:d8:d2:dc:37:12:cb:04:22:aa:83:9d:1d:22:af:
         24:6f:f2:e9:e1:3f:59:e1:60:ef:67:c4:da:ac:62:3d:1b:00:
         2c:6a:81:ff
-----BEGIN CERTIFICATE-----
MIIDczCCAlugAwIBAgIQD+Mrfo8oDy0FgpLzdMTkojANBgkqhkiG9w0BAQsFADAV
MRMwEQYDVQQDDAp0ZWFtMzUtbmV0MB4XDTIxMDkxMjIzMDMzMloXDTI0MDgyNzIz
MDMzMlowGDEWMBQGA1UEAwwNdGVhbTM1LXNlcnZlcjCCASIwDQYJKoZIhvcNAQEB
BQADggEPADCCAQoCggEBAJ7mxWikUngTw0A5suxtRwzUlCpH2Tk8AWwWMtOvbcaJ
7NItvF26KJA8kWLHg9h1wDDWMS35mtjkjZ3cgXbOSUFW/W6jt352LS2RZehqtLU1
va41w8rw8k/3GqoZ5Nid1QvyVB6werV1DqMoTMjwd2Jyvy+TSUq/i0/CIlDpFfRP
8KMr6hu+5Le2AwcO/GQe/Ja4G6UZVMfDiAJCVwRcqDRqSmkdxwJNSHYVZUbvkBrB
e8VRnLyNiKimamUaK3Qkq3SoFUpaY9j93ZGxx4yrck8t3/g1Ney9WbWan7mLPDoi
ShXUNUCWkES9ZMdJ1qirzUH91kqY6K45Ix65JA7P3tUCAwEAAaOBuzCBuDAJBgNV
HRMEAjAAMB0GA1UdDgQWBBQZR6Cqx1EI8IwJCNM3QCKjrp+G0jBQBgNVHSMESTBH
gBThD61SPiOjUn1XSarwe1b7ryN8eqEZpBcwFTETMBEGA1UEAwwKdGVhbTM1LW5l
dIIUQg4y+wKswCLZ0dlb0pslrhFcqvgwEwYDVR0lBAwwCgYIKwYBBQUHAwEwCwYD
VR0PBAQDAgWgMBgGA1UdEQQRMA+CDXRlYW0zNS1zZXJ2ZXIwDQYJKoZIhvcNAQEL
BQADggEBAKjctnOBCF9rkLwUWm20nL1u8r03UyOyg0Yu1OsE3MLf0+hVNai0cBUE
A/0mPlyGOTPZLlW0V75t5VWsyPMVhwIHU+PapgkVGyRzoTkgt07M+yO2JVX2E6cK
nOn9O3bPcJnLvAgr9CFcb4FjJGuypPK7jPc18i5xWJVR0D6zVJ+Qr7kDTflIEpSp
eSvK73I1wh/KRRmkApqFXdNhKO5rM3lFF9eKL8eotL0yFGt/VYT7HfGaB7gv2ck7
euEqPPOh4oSZl70DGzFmwOHwych0b1xsimS28w4PrMNfjCbY0tw3EssEIqqDnR0i
ryRv8unhP1nhYO9nxNqsYj0bACxqgf8=
-----END CERTIFICATE-----
