Certificate:
    Data:
        Version: 3 (0x2)
        Serial Number:
            5e:64:f1:55:19:59:cd:73:ad:42:19:73:d1:23:34:46
        Signature Algorithm: sha256WithRSAEncryption
        Issuer: CN=team220-net
        Validity
            Not Before: Sep 13 00:49:35 2021 GMT
            Not After : Aug 28 00:49:35 2024 GMT
        Subject: CN=team220-server
        Subject Public Key Info:
            Public Key Algorithm: rsaEncryption
                RSA Public-Key: (2048 bit)
                Modulus:
                    00:b1:ec:98:0c:7a:dd:05:29:7b:2e:57:27:90:4e:
                    0e:1c:03:20:b7:a9:f6:ed:4b:9a:90:c5:9f:d8:6e:
                    19:c4:22:f4:fa:0d:68:c6:da:ac:a8:85:e1:ab:ad:
                    04:52:62:69:c3:38:07:32:2f:5c:2d:dc:50:72:7e:
                    63:8b:f5:9b:bc:37:9c:b9:ff:15:b5:3f:66:2f:e5:
                    fd:2d:30:8b:6c:e1:69:01:02:b8:4c:28:f5:ea:c0:
                    aa:8a:72:98:6d:0f:1c:78:72:a3:5e:57:f2:32:2e:
                    fc:ac:bc:cd:7a:8e:8f:21:cf:cf:01:e9:e5:5f:85:
                    91:a0:1a:66:33:b3:b4:59:06:9c:b5:f7:e7:9e:0e:
                    e0:5e:b9:0c:d6:82:46:03:ec:07:6c:e1:a7:2d:e2:
                    66:ae:9a:18:0c:e7:34:55:77:30:a8:b7:dd:d3:d2:
                    d7:5d:69:93:4c:52:1f:54:89:e1:25:33:eb:6a:81:
                    14:4c:73:84:3c:15:e3:97:88:8f:3c:5f:37:58:95:
                    01:d1:d4:a9:23:8a:91:19:da:f5:7a:ea:a6:50:0a:
                    d9:6c:69:ec:36:46:e6:56:1c:6f:ea:ee:c1:03:92:
                    81:c7:46:01:8a:97:10:3b:38:77:02:a7:98:c6:c0:
                    54:c7:f9:15:87:88:40:d5:13:f9:12:c1:9c:7d:8e:
                    dd:03
                Exponent: 65537 (0x10001)
        X509v3 extensions:
            X509v3 Basic Constraints: 
                CA:FALSE
            X509v3 Subject Key Identifier: 
                F5:87:93:3C:E7:D7:10:D0:9B:2A:8E:B0:3A:36:01:B8:6E:5C:AB:B8
            X509v3 Authority Key Identifier: 
                keyid:6D:17:EF:CD:8A:A2:7D:94:48:D7:8B:E4:C5:F1:A1:4B:D4:0A:EF:BA
                DirName:/CN=team220-net
                serial:52:52:3F:92:63:1D:07:98:81:A4:A9:9F:86:34:B7:E0:0A:AD:7A:F0

            X509v3 Extended Key Usage: 
                TLS Web Server Authentication
            X509v3 Key Usage: 
                Digital Signature, Key Encipherment
            X509v3 Subject Alternative Name: 
                DNS:team220-server
    Signature Algorithm: sha256WithRSAEncryption
         d8:3a:ee:82:6f:e5:7e:21:88:34:16:75:57:19:d4:00:48:2c:
         07:c9:de:b2:fe:8e:a8:cf:f9:09:c5:b6:a5:38:8f:dd:35:7f:
         4b:71:5d:81:9e:f9:6d:cc:e7:fc:52:65:6c:b1:14:9f:58:e6:
         7d:8a:84:6b:a7:f3:5b:53:d2:b2:37:8b:19:5d:71:69:6e:4c:
         88:f1:01:af:7a:bd:9f:9c:33:7d:24:cf:6b:e2:c2:36:f7:25:
         f3:d0:a7:b9:c5:ef:cf:fc:fd:a8:57:04:47:b1:b5:d8:b9:d5:
         81:4d:78:f3:14:75:0b:fd:7e:82:57:66:75:04:c7:86:26:aa:
         6e:0c:e9:81:75:2e:16:6b:7b:dd:4b:a7:be:ae:ea:e2:dc:2e:
         d1:02:6e:60:fb:d2:f9:9a:5d:94:22:3a:15:db:0b:50:cb:e8:
         c2:33:11:48:b1:23:2a:8a:bc:51:23:2b:21:49:d6:1f:33:c6:
         29:01:88:b3:14:3b:ec:54:af:a4:fd:a5:cf:fb:4f:f4:e5:0c:
         3e:49:8f:8a:07:80:4b:96:ef:ae:c1:11:f3:38:bb:76:1c:36:
         9a:ab:52:4e:20:1b:9e:ac:c8:ab:f7:20:7d:26:76:84:02:f4:
         9d:6f:b1:81:7b:35:07:fb:dc:59:82:3b:22:60:72:e1:fb:00:
         a7:88:63:21
-----BEGIN CERTIFICATE-----
MIIDdzCCAl+gAwIBAgIQXmTxVRlZzXOtQhlz0SM0RjANBgkqhkiG9w0BAQsFADAW
MRQwEgYDVQQDDAt0ZWFtMjIwLW5ldDAeFw0yMTA5MTMwMDQ5MzVaFw0yNDA4Mjgw
MDQ5MzVaMBkxFzAVBgNVBAMMDnRlYW0yMjAtc2VydmVyMIIBIjANBgkqhkiG9w0B
AQEFAAOCAQ8AMIIBCgKCAQEAseyYDHrdBSl7LlcnkE4OHAMgt6n27UuakMWf2G4Z
xCL0+g1oxtqsqIXhq60EUmJpwzgHMi9cLdxQcn5ji/WbvDecuf8VtT9mL+X9LTCL
bOFpAQK4TCj16sCqinKYbQ8ceHKjXlfyMi78rLzNeo6PIc/PAenlX4WRoBpmM7O0
WQactffnng7gXrkM1oJGA+wHbOGnLeJmrpoYDOc0VXcwqLfd09LXXWmTTFIfVInh
JTPraoEUTHOEPBXjl4iPPF83WJUB0dSpI4qRGdr1euqmUArZbGnsNkbmVhxv6u7B
A5KBx0YBipcQOzh3AqeYxsBUx/kVh4hA1RP5EsGcfY7dAwIDAQABo4G9MIG6MAkG
A1UdEwQCMAAwHQYDVR0OBBYEFPWHkzzn1xDQmyqOsDo2AbhuXKu4MFEGA1UdIwRK
MEiAFG0X782Kon2USNeL5MXxoUvUCu+6oRqkGDAWMRQwEgYDVQQDDAt0ZWFtMjIw
LW5ldIIUUlI/kmMdB5iBpKmfhjS34AqtevAwEwYDVR0lBAwwCgYIKwYBBQUHAwEw
CwYDVR0PBAQDAgWgMBkGA1UdEQQSMBCCDnRlYW0yMjAtc2VydmVyMA0GCSqGSIb3
DQEBCwUAA4IBAQDYOu6Cb+V+IYg0FnVXGdQASCwHyd6y/o6oz/kJxbalOI/dNX9L
cV2BnvltzOf8UmVssRSfWOZ9ioRrp/NbU9KyN4sZXXFpbkyI8QGver2fnDN9JM9r
4sI29yXz0Ke5xe/P/P2oVwRHsbXYudWBTXjzFHUL/X6CV2Z1BMeGJqpuDOmBdS4W
a3vdS6e+ruri3C7RAm5g+9L5ml2UIjoV2wtQy+jCMxFIsSMqirxRIyshSdYfM8Yp
AYizFDvsVK+k/aXP+0/05Qw+SY+KB4BLlu+uwRHzOLt2HDaaq1JOIBuerMir9yB9
JnaEAvSdb7GBezUH+9xZgjsiYHLh+wCniGMh
-----END CERTIFICATE-----
