Certificate:
    Data:
        Version: 3 (0x2)
        Serial Number:
            ac:53:5f:1b:de:27:71:55:96:54:61:85:d4:2c:b5:f2
        Signature Algorithm: sha256WithRSAEncryption
        Issuer: CN=team220-net
        Validity
            Not Before: Sep 13 00:49:35 2021 GMT
            Not After : Aug 28 00:49:35 2024 GMT
        Subject: CN=team220-client
        Subject Public Key Info:
            Public Key Algorithm: rsaEncryption
                RSA Public-Key: (2048 bit)
                Modulus:
                    00:b8:4d:75:f1:7c:25:70:59:3f:80:62:76:cc:c5:
                    a1:e5:63:c9:5d:80:c7:fe:12:54:b7:49:c5:af:12:
                    0b:66:99:5f:bd:49:96:d6:04:37:a8:26:28:8c:b7:
                    16:cf:68:f1:af:1a:e9:3f:a1:93:61:5e:46:8d:b4:
                    8b:f7:ce:07:ff:6c:32:f3:20:1f:86:ba:77:bd:b3:
                    7f:5d:bf:7b:42:17:58:3e:ff:bd:3f:e2:24:72:a8:
                    c9:b1:a4:e5:3d:b2:82:44:17:3b:c7:04:fb:c5:1a:
                    a6:34:da:80:00:fe:db:b3:73:5c:a0:d3:83:bf:ca:
                    27:68:8f:39:86:fa:98:67:ab:e0:38:1b:20:02:3c:
                    3e:c8:6e:df:69:39:cc:5e:59:67:cd:3f:56:3f:d6:
                    e4:55:e2:dd:3f:0f:81:25:68:0e:e9:ef:bf:7c:5d:
                    35:fd:28:59:95:2e:c5:02:6f:7a:70:00:d5:a8:ed:
                    c7:2d:83:06:77:a4:f2:a1:c9:07:15:3b:81:ba:84:
                    d3:68:3a:62:b0:c4:4e:bb:d0:30:52:94:09:24:a5:
                    90:1e:9c:4c:c5:ac:13:7f:a6:b9:58:f4:12:01:81:
                    5c:c3:5e:0c:18:08:aa:35:33:99:71:87:6f:d7:a5:
                    c2:c6:7e:21:15:28:a1:c8:82:71:cf:aa:e5:03:04:
                    e1:bd
                Exponent: 65537 (0x10001)
        X509v3 extensions:
            X509v3 Basic Constraints: 
                CA:FALSE
            X509v3 Subject Key Identifier: 
                77:F1:48:E5:6E:37:92:D4:1F:3E:52:E1:0A:25:C1:0E:EE:9B:5B:F4
            X509v3 Authority Key Identifier: 
                keyid:6D:17:EF:CD:8A:A2:7D:94:48:D7:8B:E4:C5:F1:A1:4B:D4:0A:EF:BA
                DirName:/CN=team220-net
                serial:52:52:3F:92:63:1D:07:98:81:A4:A9:9F:86:34:B7:E0:0A:AD:7A:F0

            X509v3 Extended Key Usage: 
                TLS Web Client Authentication
            X509v3 Key Usage: 
                Digital Signature
    Signature Algorithm: sha256WithRSAEncryption
         33:57:b4:b1:9c:97:07:31:13:b5:c5:4c:6d:c2:db:a4:1b:5d:
         ed:8a:24:e1:50:58:e8:57:f1:da:19:17:fa:dd:a1:ac:e6:4d:
         9e:f9:7e:eb:33:22:d6:0d:de:d1:c3:fe:46:7b:f9:a7:a4:7c:
         26:d0:85:e9:c0:8c:54:08:0d:21:65:ba:41:70:93:2e:9a:34:
         f2:cd:c9:3d:7c:e8:61:d2:7b:30:39:cb:f9:c2:56:49:ba:98:
         62:e5:4a:b4:5e:a3:69:e6:0a:6e:63:98:36:53:4e:de:6e:7b:
         55:f0:0a:38:ba:2c:d8:ea:a8:61:60:04:60:7c:91:96:40:4d:
         6e:16:b8:7e:89:ae:93:5d:cc:d8:1a:32:b5:a5:cf:64:f3:85:
         50:88:1f:e5:88:2a:d6:a9:c8:79:15:69:d0:96:ff:a2:94:c7:
         50:fd:e6:30:17:dd:dc:45:92:7d:77:3e:d5:99:41:7b:82:f8:
         d8:65:5d:e2:3a:4e:cc:b3:11:e2:08:f4:54:f9:87:83:3b:1d:
         90:c4:36:b3:97:77:4f:a0:9a:da:b0:b5:33:a5:4c:36:08:10:
         66:e5:56:df:b9:df:75:7b:d5:2d:5f:7f:d8:40:a2:9f:fd:3e:
         b0:ad:52:fd:58:90:04:83:2f:77:82:bf:33:a7:e2:83:e1:09:
         d3:17:63:a0
-----BEGIN CERTIFICATE-----
MIIDXTCCAkWgAwIBAgIRAKxTXxveJ3FVllRhhdQstfIwDQYJKoZIhvcNAQELBQAw
FjEUMBIGA1UEAwwLdGVhbTIyMC1uZXQwHhcNMjEwOTEzMDA0OTM1WhcNMjQwODI4
MDA0OTM1WjAZMRcwFQYDVQQDDA50ZWFtMjIwLWNsaWVudDCCASIwDQYJKoZIhvcN
AQEBBQADggEPADCCAQoCggEBALhNdfF8JXBZP4BidszFoeVjyV2Ax/4SVLdJxa8S
C2aZX71JltYEN6gmKIy3Fs9o8a8a6T+hk2FeRo20i/fOB/9sMvMgH4a6d72zf12/
e0IXWD7/vT/iJHKoybGk5T2ygkQXO8cE+8UapjTagAD+27NzXKDTg7/KJ2iPOYb6
mGer4DgbIAI8Pshu32k5zF5ZZ80/Vj/W5FXi3T8PgSVoDunvv3xdNf0oWZUuxQJv
enAA1ajtxy2DBnek8qHJBxU7gbqE02g6YrDETrvQMFKUCSSlkB6cTMWsE3+muVj0
EgGBXMNeDBgIqjUzmXGHb9elwsZ+IRUoociCcc+q5QME4b0CAwEAAaOBojCBnzAJ
BgNVHRMEAjAAMB0GA1UdDgQWBBR38UjlbjeS1B8+UuEKJcEO7ptb9DBRBgNVHSME
SjBIgBRtF+/NiqJ9lEjXi+TF8aFL1ArvuqEapBgwFjEUMBIGA1UEAwwLdGVhbTIy
MC1uZXSCFFJSP5JjHQeYgaSpn4Y0t+AKrXrwMBMGA1UdJQQMMAoGCCsGAQUFBwMC
MAsGA1UdDwQEAwIHgDANBgkqhkiG9w0BAQsFAAOCAQEAM1e0sZyXBzETtcVMbcLb
pBtd7Yok4VBY6Ffx2hkX+t2hrOZNnvl+6zMi1g3e0cP+Rnv5p6R8JtCF6cCMVAgN
IWW6QXCTLpo08s3JPXzoYdJ7MDnL+cJWSbqYYuVKtF6jaeYKbmOYNlNO3m57VfAK
OLos2OqoYWAEYHyRlkBNbha4fomuk13M2BoytaXPZPOFUIgf5Ygq1qnIeRVp0Jb/
opTHUP3mMBfd3EWSfXc+1ZlBe4L42GVd4jpOzLMR4gj0VPmHgzsdkMQ2s5d3T6Ca
2rC1M6VMNggQZuVW37nfdXvVLV9/2ECin/0+sK1S/ViQBIMvd4K/M6fig+EJ0xdj
oA==
-----END CERTIFICATE-----
