Certificate:
    Data:
        Version: 3 (0x2)
        Serial Number:
            59:e8:c2:38:fd:4a:d4:ab:f4:23:c6:f9:65:31:f6:37
        Signature Algorithm: sha256WithRSAEncryption
        Issuer: CN=team661-net
        Validity
            Not Before: Sep 13 04:28:21 2021 GMT
            Not After : Aug 28 04:28:21 2024 GMT
        Subject: CN=team661-client
        Subject Public Key Info:
            Public Key Algorithm: rsaEncryption
                RSA Public-Key: (2048 bit)
                Modulus:
                    00:b4:7c:2f:83:74:a3:cd:3a:1e:d7:6e:4a:43:77:
                    c6:13:ba:6b:72:05:35:74:00:cc:31:f4:87:96:31:
                    85:5f:95:9a:a6:cb:14:f1:d1:80:60:16:2d:9d:44:
                    d2:8e:71:c8:84:bb:f8:4f:33:ca:4f:1a:b5:c2:2d:
                    0b:22:c2:38:21:39:56:61:fd:2a:e6:2a:bd:c5:0d:
                    89:61:26:5c:56:5a:59:79:43:6a:27:55:33:84:f6:
                    22:00:54:88:62:27:16:48:ce:69:c0:3b:14:35:a4:
                    18:a5:80:27:81:d4:be:09:ba:22:cf:7c:52:d1:ef:
                    4b:ad:c9:2a:34:7e:7a:96:05:5c:c6:b1:06:25:3e:
                    ab:21:ab:55:e2:20:7f:d6:89:3c:33:ed:a1:ae:0b:
                    7d:72:8c:3b:7a:2f:5f:cd:b9:8c:0e:f4:77:a2:59:
                    e7:c4:d7:99:db:44:21:be:b3:4f:27:3a:0d:00:72:
                    3f:5e:05:c0:31:5a:2c:7a:ac:36:5d:0f:a8:6d:f8:
                    95:b8:7c:5f:58:e0:30:43:40:59:ad:cb:74:ff:cc:
                    d5:e3:47:36:46:77:8f:ab:7a:e2:8e:16:fc:ea:2d:
                    30:a2:a7:d6:96:ac:ea:d5:84:a0:5a:2c:13:23:ce:
                    53:33:64:f9:dc:9d:69:92:1e:b6:02:38:9f:c7:c4:
                    06:31
                Exponent: 65537 (0x10001)
        X509v3 extensions:
            X509v3 Basic Constraints: 
                CA:FALSE
            X509v3 Subject Key Identifier: 
                B7:7B:DE:FD:A6:21:69:A2:A0:2A:D1:06:D6:15:98:6D:40:A2:9D:9D
            X509v3 Authority Key Identifier: 
                keyid:B5:14:7C:3F:2E:6B:AD:BD:BA:6F:FB:3C:32:AF:7D:68:BE:BD:08:28
                DirName:/CN=team661-net
                serial:15:5E:9A:A2:50:1C:A6:99:4C:95:3D:A4:C0:F2:9A:D5:81:47:81:80

            X509v3 Extended Key Usage: 
                TLS Web Client Authentication
            X509v3 Key Usage: 
                Digital Signature
    Signature Algorithm: sha256WithRSAEncryption
         48:e7:77:0a:8d:34:b2:66:0d:29:f4:92:b5:31:5c:37:77:3a:
         f9:0d:c5:05:a5:9e:40:c4:d3:c3:76:6a:59:38:4a:28:bc:7a:
         65:48:bc:b5:d7:3d:c1:6d:86:f8:b0:7a:fc:e7:df:be:72:c1:
         df:55:40:8d:fa:b3:7c:4b:7e:3b:22:b1:f6:dc:33:8a:23:33:
         f9:c5:34:7b:c6:f8:5c:87:e6:0c:c4:be:ec:a8:85:20:ad:fe:
         63:0e:30:da:54:22:5e:b9:14:bd:76:c9:28:2b:72:48:8e:25:
         3f:c0:77:a4:06:98:f9:23:07:fd:75:c0:b1:97:4a:3c:98:ad:
         99:2c:9d:0b:57:9f:3a:4c:ee:0d:fe:4e:f5:44:ec:23:04:64:
         75:fb:30:a5:d6:c9:d8:85:e2:d1:17:74:fe:93:bb:af:06:41:
         a6:4b:a0:72:26:59:6a:49:fe:d1:3b:a3:a6:89:ad:f5:b0:e2:
         a4:c9:b8:35:7f:52:80:3d:f7:3b:3e:11:51:b5:5c:35:a2:2f:
         5f:d9:89:6a:45:a8:56:60:20:d7:f8:28:a1:f3:60:18:63:c5:
         14:5f:f4:23:3e:5d:93:d6:62:e3:06:d1:42:2e:cc:cd:95:d0:
         20:c3:63:1d:11:23:bd:ef:f6:7f:37:c8:f2:2d:18:2e:9e:3a:
         a1:da:67:5b
-----BEGIN CERTIFICATE-----
MIIDXDCCAkSgAwIBAgIQWejCOP1K1Kv0I8b5ZTH2NzANBgkqhkiG9w0BAQsFADAW
MRQwEgYDVQQDDAt0ZWFtNjYxLW5ldDAeFw0yMTA5MTMwNDI4MjFaFw0yNDA4Mjgw
NDI4MjFaMBkxFzAVBgNVBAMMDnRlYW02NjEtY2xpZW50MIIBIjANBgkqhkiG9w0B
AQEFAAOCAQ8AMIIBCgKCAQEAtHwvg3SjzToe125KQ3fGE7prcgU1dADMMfSHljGF
X5WapssU8dGAYBYtnUTSjnHIhLv4TzPKTxq1wi0LIsI4ITlWYf0q5iq9xQ2JYSZc
VlpZeUNqJ1UzhPYiAFSIYicWSM5pwDsUNaQYpYAngdS+Cboiz3xS0e9LrckqNH56
lgVcxrEGJT6rIatV4iB/1ok8M+2hrgt9cow7ei9fzbmMDvR3olnnxNeZ20QhvrNP
JzoNAHI/XgXAMVoseqw2XQ+obfiVuHxfWOAwQ0BZrct0/8zV40c2RnePq3rijhb8
6i0woqfWlqzq1YSgWiwTI85TM2T53J1pkh62Ajifx8QGMQIDAQABo4GiMIGfMAkG
A1UdEwQCMAAwHQYDVR0OBBYEFLd73v2mIWmioCrRBtYVmG1Aop2dMFEGA1UdIwRK
MEiAFLUUfD8ua629um/7PDKvfWi+vQgooRqkGDAWMRQwEgYDVQQDDAt0ZWFtNjYx
LW5ldIIUFV6aolAcpplMlT2kwPKa1YFHgYAwEwYDVR0lBAwwCgYIKwYBBQUHAwIw
CwYDVR0PBAQDAgeAMA0GCSqGSIb3DQEBCwUAA4IBAQBI53cKjTSyZg0p9JK1MVw3
dzr5DcUFpZ5AxNPDdmpZOEoovHplSLy11z3BbYb4sHr859++csHfVUCN+rN8S347
IrH23DOKIzP5xTR7xvhch+YMxL7sqIUgrf5jDjDaVCJeuRS9dskoK3JIjiU/wHek
Bpj5Iwf9dcCxl0o8mK2ZLJ0LV586TO4N/k71ROwjBGR1+zCl1snYheLRF3T+k7uv
BkGmS6ByJllqSf7RO6Omia31sOKkybg1f1KAPfc7PhFRtVw1oi9f2YlqRahWYCDX
+Cih82AYY8UUX/QjPl2T1mLjBtFCLszNldAgw2MdESO97/Z/N8jyLRgunjqh2mdb
-----END CERTIFICATE-----
