Certificate:
    Data:
        Version: 3 (0x2)
        Serial Number:
            3e:23:3d:62:04:2a:81:26:f3:e4:4d:d8:eb:13:06:da
        Signature Algorithm: sha256WithRSAEncryption
        Issuer: CN=team404-net
        Validity
            Not Before: Sep 13 02:20:29 2021 GMT
            Not After : Aug 28 02:20:29 2024 GMT
        Subject: CN=team404-server
        Subject Public Key Info:
            Public Key Algorithm: rsaEncryption
                RSA Public-Key: (2048 bit)
                Modulus:
                    00:d1:d8:93:49:80:ea:bb:88:19:ab:4e:fc:7c:f1:
                    64:75:10:e2:51:9b:6b:0e:03:f1:b8:d3:11:59:bf:
                    d4:7a:97:f1:28:77:3b:e6:3c:3b:11:a8:c7:63:0d:
                    bb:a5:4d:25:56:10:cc:5b:d1:d3:7b:a6:5b:5c:2a:
                    84:90:be:7b:94:94:95:2f:50:29:14:d4:c6:96:17:
                    d0:34:4f:bb:06:a4:7d:70:d0:8d:d6:3b:0a:db:a4:
                    b7:8c:a1:f1:0d:94:4b:5a:5f:11:32:46:71:ec:48:
                    1e:61:26:82:8d:5a:31:75:33:ea:8d:cd:bd:75:2e:
                    03:14:aa:33:7b:7b:d5:e7:90:9c:21:70:79:f3:2f:
                    d5:e3:2f:2b:ed:e2:ec:64:06:4b:8e:ff:12:4b:28:
                    d0:e6:45:0b:6d:a2:19:f3:e2:91:6c:92:d7:b6:1d:
                    93:64:4b:51:ba:73:d3:e6:f9:1f:23:eb:64:da:83:
                    7b:0b:66:73:a2:97:04:a5:0f:19:50:e8:ea:5a:d8:
                    35:c7:88:d2:b8:dc:44:33:66:db:ba:14:1c:bb:36:
                    5d:10:2b:bc:92:7e:cd:8c:9c:c9:b8:4b:45:72:ff:
                    11:4a:eb:e8:23:36:af:76:b2:51:7d:05:95:71:9f:
                    94:a3:59:8f:d9:db:7f:a1:34:2b:6c:6c:92:a4:26:
                    86:dd
                Exponent: 65537 (0x10001)
        X509v3 extensions:
            X509v3 Basic Constraints: 
                CA:FALSE
            X509v3 Subject Key Identifier: 
                9B:B5:C4:14:27:27:BA:61:E0:8B:5C:57:56:39:6D:C2:60:40:39:3D
            X509v3 Authority Key Identifier: 
                keyid:73:2C:D1:C0:B5:4E:68:1E:7A:54:AE:E0:DC:7E:2E:A0:D5:DD:3A:FE
                DirName:/CN=team404-net
                serial:65:46:25:0A:6A:4B:6F:E8:5C:7C:D8:96:6B:E0:B0:F6:45:32:0F:95

            X509v3 Extended Key Usage: 
                TLS Web Server Authentication
            X509v3 Key Usage: 
                Digital Signature, Key Encipherment
            X509v3 Subject Alternative Name: 
                DNS:team404-server
    Signature Algorithm: sha256WithRSAEncryption
         7b:e1:ed:3a:91:86:e1:45:02:01:8f:97:52:ca:a2:46:ee:48:
         ea:6a:76:7f:de:96:a9:54:8e:16:17:3f:3d:82:cf:fe:e7:ef:
         74:89:5c:7a:f6:b7:fd:9f:ec:89:78:2c:e2:20:63:a3:d8:8a:
         c5:29:fe:f6:c9:e7:1d:4c:42:6c:fb:ae:83:74:35:73:c4:b5:
         2f:9c:c8:ed:dc:80:44:6d:3a:6b:f1:31:30:c7:dc:c1:d7:55:
         21:0a:5d:5f:ec:d4:f7:0f:5a:ae:da:e2:c9:5c:69:6a:84:bf:
         8f:91:44:2c:03:15:75:53:f0:98:b8:d8:ad:ef:cb:b9:49:42:
         8b:70:7e:93:01:66:21:e8:5b:ad:fd:e1:e9:a0:45:77:7f:0d:
         16:79:ed:cc:53:3e:6c:ea:79:f4:c5:7d:43:cb:68:6a:7d:ce:
         3d:c6:e1:52:09:3b:70:7a:0e:1e:69:1b:22:71:7f:8d:3e:33:
         26:7e:01:b8:16:1e:82:2a:24:9a:dd:a4:8b:80:a9:65:79:4d:
         1e:5d:71:86:f6:ad:87:c4:0b:df:54:06:6c:46:41:95:26:cb:
         32:58:8d:0b:27:c4:2e:fc:b2:ff:d2:c9:bb:18:76:e6:31:45:
         a0:e4:9c:e9:fa:4d:2b:db:f7:4b:07:96:f9:6f:87:83:b5:27:
         e2:e1:23:81
-----BEGIN CERTIFICATE-----
MIIDdzCCAl+gAwIBAgIQPiM9YgQqgSbz5E3Y6xMG2jANBgkqhkiG9w0BAQsFADAW
MRQwEgYDVQQDDAt0ZWFtNDA0LW5ldDAeFw0yMTA5MTMwMjIwMjlaFw0yNDA4Mjgw
MjIwMjlaMBkxFzAVBgNVBAMMDnRlYW00MDQtc2VydmVyMIIBIjANBgkqhkiG9w0B
AQEFAAOCAQ8AMIIBCgKCAQEA0diTSYDqu4gZq078fPFkdRDiUZtrDgPxuNMRWb/U
epfxKHc75jw7EajHYw27pU0lVhDMW9HTe6ZbXCqEkL57lJSVL1ApFNTGlhfQNE+7
BqR9cNCN1jsK26S3jKHxDZRLWl8RMkZx7EgeYSaCjVoxdTPqjc29dS4DFKoze3vV
55CcIXB58y/V4y8r7eLsZAZLjv8SSyjQ5kULbaIZ8+KRbJLXth2TZEtRunPT5vkf
I+tk2oN7C2ZzopcEpQ8ZUOjqWtg1x4jSuNxEM2bbuhQcuzZdECu8kn7NjJzJuEtF
cv8RSuvoIzavdrJRfQWVcZ+Uo1mP2dt/oTQrbGySpCaG3QIDAQABo4G9MIG6MAkG
A1UdEwQCMAAwHQYDVR0OBBYEFJu1xBQnJ7ph4ItcV1Y5bcJgQDk9MFEGA1UdIwRK
MEiAFHMs0cC1TmgeelSu4Nx+LqDV3Tr+oRqkGDAWMRQwEgYDVQQDDAt0ZWFtNDA0
LW5ldIIUZUYlCmpLb+hcfNiWa+Cw9kUyD5UwEwYDVR0lBAwwCgYIKwYBBQUHAwEw
CwYDVR0PBAQDAgWgMBkGA1UdEQQSMBCCDnRlYW00MDQtc2VydmVyMA0GCSqGSIb3
DQEBCwUAA4IBAQB74e06kYbhRQIBj5dSyqJG7kjqanZ/3papVI4WFz89gs/+5+90
iVx69rf9n+yJeCziIGOj2IrFKf72yecdTEJs+66DdDVzxLUvnMjt3IBEbTpr8TEw
x9zB11UhCl1f7NT3D1qu2uLJXGlqhL+PkUQsAxV1U/CYuNit78u5SUKLcH6TAWYh
6Fut/eHpoEV3fw0Wee3MUz5s6nn0xX1Dy2hqfc49xuFSCTtweg4eaRsicX+NPjMm
fgG4Fh6CKiSa3aSLgKlleU0eXXGG9q2HxAvfVAZsRkGVJssyWI0LJ8Qu/LL/0sm7
GHbmMUWg5Jzp+k0r2/dLB5b5b4eDtSfi4SOB
-----END CERTIFICATE-----
