Certificate:
    Data:
        Version: 3 (0x2)
        Serial Number:
            15:a0:a8:cb:09:b0:32:1c:c4:73:81:8f:cc:56:24:f3
        Signature Algorithm: sha256WithRSAEncryption
        Issuer: CN=team673-net
        Validity
            Not Before: Sep 13 05:04:19 2021 GMT
            Not After : Aug 28 05:04:19 2024 GMT
        Subject: CN=team673-server
        Subject Public Key Info:
            Public Key Algorithm: rsaEncryption
                RSA Public-Key: (2048 bit)
                Modulus:
                    00:e4:8d:f4:38:c0:b5:50:c5:c8:5b:18:30:63:2d:
                    fc:1b:83:f0:b3:8d:c8:61:79:10:a1:96:1a:98:1b:
                    62:6d:34:e5:61:e6:09:f7:0f:dd:30:aa:cf:51:b7:
                    b2:7c:1d:3a:29:a8:82:95:07:df:1d:db:ae:b8:4c:
                    45:80:ad:6b:c6:08:ad:32:bc:f0:fc:06:d5:73:26:
                    02:37:ea:90:95:f2:40:d0:e8:87:ef:00:88:9b:73:
                    6c:94:6f:51:1a:88:a2:e5:84:fb:96:3f:b8:39:0d:
                    ec:f7:dc:f7:6d:b0:65:db:76:04:d4:b3:78:5f:71:
                    7a:b7:68:52:00:00:37:f0:6e:1e:1b:9b:c5:35:22:
                    e7:c2:57:5a:e6:c9:2d:b2:74:78:48:33:a8:4a:50:
                    cf:76:77:3d:55:5a:4e:ff:84:22:de:a2:64:55:1f:
                    c2:18:8d:ac:39:48:a6:88:98:3d:32:99:db:7c:b0:
                    0f:92:cf:f1:28:fa:b7:92:67:d0:c9:65:df:44:34:
                    3c:56:84:9e:16:c1:85:03:7e:c8:df:79:ac:25:8a:
                    ae:07:b1:97:62:1b:58:39:6e:d1:73:8a:c6:99:a4:
                    80:d9:f3:bf:03:c6:7a:dd:24:6c:95:54:ab:db:2d:
                    92:09:10:96:0c:a0:84:7f:f9:22:fa:67:12:8d:30:
                    ed:7d
                Exponent: 65537 (0x10001)
        X509v3 extensions:
            X509v3 Basic Constraints: 
                CA:FALSE
            X509v3 Subject Key Identifier: 
                77:48:8E:20:F8:DD:E0:97:89:8A:C4:DC:A0:4A:64:04:C3:43:DB:31
            X509v3 Authority Key Identifier: 
                keyid:AB:7E:77:E8:11:4D:5C:02:BB:BD:4A:20:73:B7:68:21:45:22:5E:96
                DirName:/CN=team673-net
                serial:66:5A:31:52:B9:67:78:C2:A3:D9:76:C4:F1:C5:8E:FE:E3:48:13:3B

            X509v3 Extended Key Usage: 
                TLS Web Server Authentication
            X509v3 Key Usage: 
                Digital Signature, Key Encipherment
            X509v3 Subject Alternative Name: 
                DNS:team673-server
    Signature Algorithm: sha256WithRSAEncryption
         21:d4:89:88:da:2e:bb:c2:05:ef:a6:d0:93:27:fa:3b:6e:79:
         69:25:7e:87:ee:88:91:51:67:10:0c:f9:e3:30:97:e4:c1:c1:
         bb:6c:b9:62:02:bf:de:54:ac:f5:05:ef:31:7c:10:b0:cb:ca:
         41:fe:af:eb:78:55:46:7f:f7:1f:99:cf:1a:2d:58:01:b0:d3:
         5b:10:b4:b0:2e:b9:42:71:f1:4d:42:7c:bf:c3:da:8b:e5:66:
         40:50:32:4b:0f:db:17:5b:87:2e:23:d9:e2:7e:a0:88:33:b9:
         5a:b6:b4:98:a7:05:0c:53:48:bc:82:bc:a1:e9:73:1c:7a:09:
         7c:2b:8d:67:78:77:cb:6a:b4:68:e8:59:2c:5b:e4:cb:ab:0a:
         c4:69:06:65:f9:7f:91:cf:5d:b8:21:a0:63:f3:80:66:fa:95:
         57:bd:58:72:b6:6d:52:ec:6c:fe:33:43:e4:54:da:e9:98:26:
         6b:99:cd:c2:e4:71:fc:ee:cc:dd:f9:d0:7d:66:15:a1:39:00:
         a3:16:3d:53:b5:77:bb:fe:45:69:4f:21:2d:24:ec:b3:8f:15:
         c5:98:52:d1:b0:6a:3b:b1:50:6a:52:5a:69:b5:69:57:cb:c2:
         34:0f:e9:32:36:31:3d:ce:8d:30:84:c9:be:1d:e1:43:25:fe:
         0a:46:15:47
-----BEGIN CERTIFICATE-----
MIIDdzCCAl+gAwIBAgIQFaCoywmwMhzEc4GPzFYk8zANBgkqhkiG9w0BAQsFADAW
MRQwEgYDVQQDDAt0ZWFtNjczLW5ldDAeFw0yMTA5MTMwNTA0MTlaFw0yNDA4Mjgw
NTA0MTlaMBkxFzAVBgNVBAMMDnRlYW02NzMtc2VydmVyMIIBIjANBgkqhkiG9w0B
AQEFAAOCAQ8AMIIBCgKCAQEA5I30OMC1UMXIWxgwYy38G4Pws43IYXkQoZYamBti
bTTlYeYJ9w/dMKrPUbeyfB06KaiClQffHduuuExFgK1rxgitMrzw/AbVcyYCN+qQ
lfJA0OiH7wCIm3NslG9RGoii5YT7lj+4OQ3s99z3bbBl23YE1LN4X3F6t2hSAAA3
8G4eG5vFNSLnwlda5sktsnR4SDOoSlDPdnc9VVpO/4Qi3qJkVR/CGI2sOUimiJg9
MpnbfLAPks/xKPq3kmfQyWXfRDQ8VoSeFsGFA37I33msJYquB7GXYhtYOW7Rc4rG
maSA2fO/A8Z63SRslVSr2y2SCRCWDKCEf/ki+mcSjTDtfQIDAQABo4G9MIG6MAkG
A1UdEwQCMAAwHQYDVR0OBBYEFHdIjiD43eCXiYrE3KBKZATDQ9sxMFEGA1UdIwRK
MEiAFKt+d+gRTVwCu71KIHO3aCFFIl6WoRqkGDAWMRQwEgYDVQQDDAt0ZWFtNjcz
LW5ldIIUZloxUrlneMKj2XbE8cWO/uNIEzswEwYDVR0lBAwwCgYIKwYBBQUHAwEw
CwYDVR0PBAQDAgWgMBkGA1UdEQQSMBCCDnRlYW02NzMtc2VydmVyMA0GCSqGSIb3
DQEBCwUAA4IBAQAh1ImI2i67wgXvptCTJ/o7bnlpJX6H7oiRUWcQDPnjMJfkwcG7
bLliAr/eVKz1Be8xfBCwy8pB/q/reFVGf/cfmc8aLVgBsNNbELSwLrlCcfFNQny/
w9qL5WZAUDJLD9sXW4cuI9nifqCIM7latrSYpwUMU0i8gryh6XMcegl8K41neHfL
arRo6FksW+TLqwrEaQZl+X+Rz124IaBj84Bm+pVXvVhytm1S7Gz+M0PkVNrpmCZr
mc3C5HH87szd+dB9ZhWhOQCjFj1TtXe7/kVpTyEtJOyzjxXFmFLRsGo7sVBqUlpp
tWlXy8I0D+kyNjE9zo0whMm+HeFDJf4KRhVH
-----END CERTIFICATE-----
