Certificate:
    Data:
        Version: 3 (0x2)
        Serial Number:
            f3:3d:3f:30:4e:e0:a9:09:fd:cf:ae:fe:86:a1:19:8f
        Signature Algorithm: sha256WithRSAEncryption
        Issuer: CN=team684-net
        Validity
            Not Before: Sep 13 04:39:57 2021 GMT
            Not After : Aug 28 04:39:57 2024 GMT
        Subject: CN=team684-server
        Subject Public Key Info:
            Public Key Algorithm: rsaEncryption
                RSA Public-Key: (2048 bit)
                Modulus:
                    00:a7:a9:f5:12:7b:69:31:69:2a:38:91:e4:08:e5:
                    7c:f0:34:4d:2c:da:54:0b:ed:aa:61:a1:89:6a:27:
                    5f:80:95:a0:0f:d1:af:8c:fa:90:15:29:2d:ff:a6:
                    8f:c8:13:2c:27:91:67:fc:49:01:13:8e:27:68:03:
                    d4:51:b1:fb:95:c0:ee:ec:4d:ab:13:ac:fc:17:1c:
                    fe:c9:7c:b4:88:9f:d9:95:43:e1:5e:07:97:28:e0:
                    c7:6c:42:d1:6a:90:a6:41:cd:21:93:93:44:90:c2:
                    2a:b4:66:9f:29:d9:c6:42:c5:40:53:f5:90:01:02:
                    6e:4b:28:c4:13:f1:48:b2:58:15:5b:d3:f6:cf:85:
                    9d:1f:50:18:f3:25:40:58:54:84:73:25:fb:0e:15:
                    e2:71:b2:9c:dd:d6:af:9b:7c:ed:f9:ff:c8:83:e3:
                    30:b2:fd:61:89:c0:31:44:ca:1e:ad:4a:87:fb:78:
                    70:5e:c3:0c:e8:81:9e:bd:70:35:bf:c0:3f:5b:f4:
                    62:92:3b:6c:6e:8c:84:3e:29:de:54:69:5c:bf:1f:
                    3b:ef:6a:05:4d:c0:c6:e8:cf:0b:1e:26:e2:2c:ca:
                    ea:68:ef:85:d8:e1:ed:5f:a7:c5:b6:84:78:6b:f9:
                    a5:ba:a5:3f:c0:af:83:d3:39:b3:97:61:a4:6b:f7:
                    ee:73
                Exponent: 65537 (0x10001)
        X509v3 extensions:
            X509v3 Basic Constraints: 
                CA:FALSE
            X509v3 Subject Key Identifier: 
                84:72:76:86:A0:98:E1:F6:3E:D9:EC:52:E3:4E:CF:12:BB:A4:6A:C1
            X509v3 Authority Key Identifier: 
                keyid:33:16:16:40:1C:8F:42:B6:AC:46:B9:32:FA:DC:2A:40:C8:D1:4C:47
                DirName:/CN=team684-net
                serial:5B:80:8D:09:15:65:91:A9:C1:73:DD:D7:99:9A:D9:C4:47:40:2F:10

            X509v3 Extended Key Usage: 
                TLS Web Server Authentication
            X509v3 Key Usage: 
                Digital Signature, Key Encipherment
            X509v3 Subject Alternative Name: 
                DNS:team684-server
    Signature Algorithm: sha256WithRSAEncryption
         3d:29:a1:51:28:9e:60:2a:30:08:15:71:b5:c1:d8:de:18:cc:
         b1:0a:16:2c:82:2d:72:2a:3f:a9:2c:94:17:13:0c:1b:72:0a:
         36:99:ca:77:83:b1:d5:af:1f:a4:b1:aa:11:b0:21:26:fa:d6:
         08:c4:7d:8f:1a:23:7b:42:04:51:01:76:d7:02:6d:40:ef:65:
         c7:ed:b8:56:1e:89:4f:ac:d6:4f:ad:03:d9:75:34:9b:7d:11:
         88:e1:8e:4d:c8:8a:2f:3c:1b:55:fe:ed:39:ac:90:92:5f:1e:
         29:ba:ce:1d:27:45:25:55:68:e7:d0:92:18:81:38:83:9c:1c:
         eb:88:55:8f:e1:41:dd:5c:74:3b:bd:54:69:33:a5:e0:82:72:
         19:93:3f:bc:76:bf:40:56:1b:eb:5a:29:53:b8:03:5b:31:d5:
         76:75:be:93:10:de:15:ec:e3:d0:a5:fa:73:7d:6a:76:7b:d0:
         db:7e:80:c9:6e:14:6c:7d:fb:a7:68:61:b7:79:8a:56:1f:d9:
         f5:f4:3b:d3:0c:71:af:64:d8:37:57:5b:f6:f1:37:62:bb:4d:
         9c:ab:0e:7a:b3:7a:d1:1c:d0:dc:dd:2c:56:d3:c3:ab:d9:6d:
         be:9d:aa:ef:f0:8e:ab:00:2a:0d:14:13:ed:fe:17:a3:bd:fc:
         54:a4:b6:ce
-----BEGIN CERTIFICATE-----
MIIDeDCCAmCgAwIBAgIRAPM9PzBO4KkJ/c+u/oahGY8wDQYJKoZIhvcNAQELBQAw
FjEUMBIGA1UEAwwLdGVhbTY4NC1uZXQwHhcNMjEwOTEzMDQzOTU3WhcNMjQwODI4
MDQzOTU3WjAZMRcwFQYDVQQDDA50ZWFtNjg0LXNlcnZlcjCCASIwDQYJKoZIhvcN
AQEBBQADggEPADCCAQoCggEBAKep9RJ7aTFpKjiR5AjlfPA0TSzaVAvtqmGhiWon
X4CVoA/Rr4z6kBUpLf+mj8gTLCeRZ/xJAROOJ2gD1FGx+5XA7uxNqxOs/Bcc/sl8
tIif2ZVD4V4Hlyjgx2xC0WqQpkHNIZOTRJDCKrRmnynZxkLFQFP1kAECbksoxBPx
SLJYFVvT9s+FnR9QGPMlQFhUhHMl+w4V4nGynN3Wr5t87fn/yIPjMLL9YYnAMUTK
Hq1Kh/t4cF7DDOiBnr1wNb/AP1v0YpI7bG6MhD4p3lRpXL8fO+9qBU3AxujPCx4m
4izK6mjvhdjh7V+nxbaEeGv5pbqlP8Cvg9M5s5dhpGv37nMCAwEAAaOBvTCBujAJ
BgNVHRMEAjAAMB0GA1UdDgQWBBSEcnaGoJjh9j7Z7FLjTs8Su6RqwTBRBgNVHSME
SjBIgBQzFhZAHI9CtqxGuTL63CpAyNFMR6EapBgwFjEUMBIGA1UEAwwLdGVhbTY4
NC1uZXSCFFuAjQkVZZGpwXPd15ma2cRHQC8QMBMGA1UdJQQMMAoGCCsGAQUFBwMB
MAsGA1UdDwQEAwIFoDAZBgNVHREEEjAQgg50ZWFtNjg0LXNlcnZlcjANBgkqhkiG
9w0BAQsFAAOCAQEAPSmhUSieYCowCBVxtcHY3hjMsQoWLIItcio/qSyUFxMMG3IK
NpnKd4Ox1a8fpLGqEbAhJvrWCMR9jxoje0IEUQF21wJtQO9lx+24Vh6JT6zWT60D
2XU0m30RiOGOTciKLzwbVf7tOayQkl8eKbrOHSdFJVVo59CSGIE4g5wc64hVj+FB
3Vx0O71UaTOl4IJyGZM/vHa/QFYb61opU7gDWzHVdnW+kxDeFezj0KX6c31qdnvQ
236AyW4UbH37p2hht3mKVh/Z9fQ70wxxr2TYN1db9vE3YrtNnKsOerN60RzQ3N0s
VtPDq9ltvp2q7/COqwAqDRQT7f4Xo738VKS2zg==
-----END CERTIFICATE-----
