Certificate:
    Data:
        Version: 3 (0x2)
        Serial Number:
            a5:33:f0:0b:34:18:97:d8:59:5e:c4:c1:91:bb:8a:0b
        Signature Algorithm: sha256WithRSAEncryption
        Issuer: CN=team398-net
        Validity
            Not Before: Sep 13 02:16:19 2021 GMT
            Not After : Aug 28 02:16:19 2024 GMT
        Subject: CN=team398-server
        Subject Public Key Info:
            Public Key Algorithm: rsaEncryption
                RSA Public-Key: (2048 bit)
                Modulus:
                    00:c0:0a:63:87:f8:6e:62:12:d3:66:59:bc:65:de:
                    b5:ab:c8:89:69:14:cc:c0:eb:15:3c:22:88:6c:a1:
                    bc:17:6a:92:83:ed:1b:a1:bb:18:c0:c9:eb:90:07:
                    39:69:6b:ff:03:f2:cf:3e:42:e6:e7:49:ba:a6:f4:
                    bd:bd:03:43:0c:73:19:e9:ad:1c:29:6b:1a:b3:89:
                    a6:c2:ce:ad:ae:4b:26:de:09:ad:b1:94:a8:90:19:
                    c4:e2:3e:be:4b:23:c4:1f:fb:97:c4:9f:71:e9:58:
                    2c:13:c9:c7:71:61:91:16:06:76:7f:07:90:f3:a4:
                    02:b2:0a:de:df:29:f3:76:ba:52:70:74:1a:a0:4e:
                    34:13:0f:58:c8:56:7a:72:43:ef:74:66:7e:b1:6a:
                    e2:4d:f7:09:41:65:6f:28:bc:2a:18:3a:3e:65:9e:
                    5e:47:c4:27:1f:e8:e0:78:13:3d:4b:3f:76:52:33:
                    01:1e:d2:57:f6:a8:22:04:a8:30:de:1d:24:4d:68:
                    82:9d:a4:4b:7b:a1:c8:d4:2b:41:95:ee:2d:8c:3e:
                    d8:da:46:52:1a:5b:fd:82:e7:84:a0:d4:9d:e9:bf:
                    5d:5a:b2:08:b4:98:8c:b6:06:fa:fc:3f:2f:ae:31:
                    45:b8:09:27:21:a0:f0:9a:f0:fc:ab:ad:97:78:16:
                    3a:5b
                Exponent: 65537 (0x10001)
        X509v3 extensions:
            X509v3 Basic Constraints: 
                CA:FALSE
            X509v3 Subject Key Identifier: 
                D1:25:E9:66:40:9A:D1:2A:C3:80:6E:E4:FB:A0:0B:FA:2A:87:B1:B2
            X509v3 Authority Key Identifier: 
                keyid:75:FC:71:9E:6A:8E:54:21:AC:62:9A:21:FF:22:2E:E7:BC:43:B8:48
                DirName:/CN=team398-net
                serial:03:11:8F:24:A2:86:9A:A3:ED:55:35:E5:3B:FD:A3:A7:E9:01:91:2C

            X509v3 Extended Key Usage: 
                TLS Web Server Authentication
            X509v3 Key Usage: 
                Digital Signature, Key Encipherment
            X509v3 Subject Alternative Name: 
                DNS:team398-server
    Signature Algorithm: sha256WithRSAEncryption
         29:95:b4:52:6b:f6:11:5b:6b:b6:d9:e8:22:74:7d:a1:d9:74:
         0f:9d:7c:67:1b:20:85:6e:fc:5d:8a:e0:43:7e:65:64:b4:a1:
         aa:a8:bc:15:0e:c0:7d:8c:df:89:f1:b1:51:7a:58:49:10:ae:
         b3:8a:eb:ac:9b:43:9d:d7:f8:e8:6e:56:04:9d:98:ab:fc:a3:
         a8:71:f2:5f:e7:f9:af:64:c5:92:f7:39:22:b4:e0:dc:ea:af:
         f3:4e:1a:a6:fc:49:47:86:34:45:ee:4e:57:01:7b:5c:08:54:
         ce:ae:ea:e7:d3:b1:42:3f:0c:c2:5c:64:00:2c:36:8e:c9:ed:
         d4:fe:5d:3f:89:e5:c7:b7:90:f3:64:19:f1:9c:af:e9:3b:c4:
         d0:78:1b:d6:44:d4:16:0b:b9:30:5e:1d:69:e8:7b:69:6d:6f:
         0a:78:94:48:e5:e4:0b:34:94:5f:a1:7e:0e:82:30:94:a9:87:
         14:8f:70:1c:10:e9:4b:13:22:7b:43:6c:9e:13:5b:7f:42:5f:
         b5:56:48:40:87:8c:44:29:39:5b:65:dc:51:8d:57:a6:70:26:
         fe:e3:97:06:06:8e:db:51:36:cb:c5:bc:c1:4d:e9:da:1c:15:
         73:3c:3e:75:f8:e0:83:01:3f:64:65:a2:ab:c8:8c:c4:a8:13:
         f5:7d:90:d2
-----BEGIN CERTIFICATE-----
MIIDeDCCAmCgAwIBAgIRAKUz8As0GJfYWV7EwZG7igswDQYJKoZIhvcNAQELBQAw
FjEUMBIGA1UEAwwLdGVhbTM5OC1uZXQwHhcNMjEwOTEzMDIxNjE5WhcNMjQwODI4
MDIxNjE5WjAZMRcwFQYDVQQDDA50ZWFtMzk4LXNlcnZlcjCCASIwDQYJKoZIhvcN
AQEBBQADggEPADCCAQoCggEBAMAKY4f4bmIS02ZZvGXetavIiWkUzMDrFTwiiGyh
vBdqkoPtG6G7GMDJ65AHOWlr/wPyzz5C5udJuqb0vb0DQwxzGemtHClrGrOJpsLO
ra5LJt4JrbGUqJAZxOI+vksjxB/7l8SfcelYLBPJx3FhkRYGdn8HkPOkArIK3t8p
83a6UnB0GqBONBMPWMhWenJD73RmfrFq4k33CUFlbyi8Khg6PmWeXkfEJx/o4HgT
PUs/dlIzAR7SV/aoIgSoMN4dJE1ogp2kS3uhyNQrQZXuLYw+2NpGUhpb/YLnhKDU
nem/XVqyCLSYjLYG+vw/L64xRbgJJyGg8Jrw/Kutl3gWOlsCAwEAAaOBvTCBujAJ
BgNVHRMEAjAAMB0GA1UdDgQWBBTRJelmQJrRKsOAbuT7oAv6KoexsjBRBgNVHSME
SjBIgBR1/HGeao5UIaximiH/Ii7nvEO4SKEapBgwFjEUMBIGA1UEAwwLdGVhbTM5
OC1uZXSCFAMRjySihpqj7VU15Tv9o6fpAZEsMBMGA1UdJQQMMAoGCCsGAQUFBwMB
MAsGA1UdDwQEAwIFoDAZBgNVHREEEjAQgg50ZWFtMzk4LXNlcnZlcjANBgkqhkiG
9w0BAQsFAAOCAQEAKZW0Umv2EVtrttnoInR9odl0D518ZxsghW78XYrgQ35lZLSh
qqi8FQ7AfYzfifGxUXpYSRCus4rrrJtDndf46G5WBJ2Yq/yjqHHyX+f5r2TFkvc5
IrTg3Oqv804apvxJR4Y0Re5OVwF7XAhUzq7q59OxQj8MwlxkACw2jsnt1P5dP4nl
x7eQ82QZ8Zyv6TvE0Hgb1kTUFgu5MF4daeh7aW1vCniUSOXkCzSUX6F+DoIwlKmH
FI9wHBDpSxMie0NsnhNbf0JftVZIQIeMRCk5W2XcUY1XpnAm/uOXBgaO21E2y8W8
wU3p2hwVczw+dfjggwE/ZGWiq8iMxKgT9X2Q0g==
-----END CERTIFICATE-----
