Certificate:
    Data:
        Version: 3 (0x2)
        Serial Number:
            41:8f:a2:f3:f3:f0:d7:85:c3:85:01:0c:0e:00:8e:12
        Signature Algorithm: sha256WithRSAEncryption
        Issuer: CN=team357-net
        Validity
            Not Before: Sep 13 02:01:00 2021 GMT
            Not After : Aug 28 02:01:00 2024 GMT
        Subject: CN=team357-client
        Subject Public Key Info:
            Public Key Algorithm: rsaEncryption
                RSA Public-Key: (2048 bit)
                Modulus:
                    00:f7:56:aa:c2:3a:5f:d8:fd:89:4f:ca:e6:41:92:
                    f2:af:05:0d:02:50:26:36:6e:ef:8f:81:7d:10:b7:
                    04:fb:8a:0c:a7:bc:03:d0:67:c7:79:b2:c4:0c:7e:
                    4b:e5:5c:14:79:88:02:79:e2:c6:f2:b7:0a:dc:be:
                    27:1b:31:7a:2b:95:96:41:03:38:52:c7:d9:25:a0:
                    fd:19:64:07:63:a6:5f:70:b3:c6:3d:99:77:08:72:
                    f9:b5:4b:04:cd:09:84:4d:56:e2:c8:48:4f:51:af:
                    f8:e2:df:b6:e8:9d:b6:a5:53:ca:ba:b3:d4:d9:2b:
                    d2:e6:0c:a9:52:07:14:de:96:0f:57:31:b0:08:d4:
                    6c:24:aa:d8:17:8b:41:86:34:d9:bb:4b:c3:d5:a0:
                    a5:58:5b:60:3f:82:0b:fc:b7:a3:73:c0:b3:d0:95:
                    15:d9:4b:b1:46:bc:1d:fd:1a:e2:66:7f:00:d3:48:
                    63:8f:85:ba:30:59:b8:de:3c:86:a5:bf:0b:ce:af:
                    25:a5:be:d1:94:2d:9d:be:44:a3:11:45:21:b7:01:
                    17:69:44:aa:cf:06:78:37:c7:d5:08:6b:a6:0e:6e:
                    73:b8:d8:08:af:bb:d2:2a:84:e4:e7:48:ef:63:5d:
                    23:35:3e:5f:b3:45:9e:e0:d3:b0:24:9b:ea:ff:b6:
                    77:0f
                Exponent: 65537 (0x10001)
        X509v3 extensions:
            X509v3 Basic Constraints: 
                CA:FALSE
            X509v3 Subject Key Identifier: 
                84:B4:FA:C3:D9:8A:06:BC:EB:B7:9C:17:E2:91:07:00:5B:0E:55:EE
            X509v3 Authority Key Identifier: 
                keyid:A4:D7:DC:03:C7:E6:BD:C7:62:53:8B:37:3B:09:F7:38:E1:2F:C1:7C
                DirName:/CN=team357-net
                serial:39:00:68:5C:77:47:36:70:A2:DD:C3:F0:34:46:31:07:89:D0:C8:80

            X509v3 Extended Key Usage: 
                TLS Web Client Authentication
            X509v3 Key Usage: 
                Digital Signature
    Signature Algorithm: sha256WithRSAEncryption
         67:12:f7:87:77:32:72:83:b7:27:13:38:09:ac:09:f8:4b:3c:
         5a:88:04:be:3e:c9:be:cb:31:fa:cf:70:ab:6e:9c:c1:25:ea:
         5b:78:52:d1:e0:b9:89:30:ff:c2:6b:ca:9a:6a:8e:7c:09:0c:
         90:f3:a3:2b:c3:7b:21:27:8d:76:86:25:a4:05:16:c8:de:ec:
         b2:9f:a6:c6:5b:ed:b3:8b:87:84:f1:4b:ab:ef:ae:10:f2:c7:
         76:68:4c:c1:4b:70:65:d0:ce:63:a6:a1:e8:ff:03:6d:ef:50:
         5e:19:ac:6b:fc:85:71:59:a9:22:07:a5:04:e5:be:e5:ac:66:
         51:ed:00:bc:1e:82:91:cb:b2:9d:c0:41:39:0d:a6:49:ca:b1:
         2c:e8:d6:d3:1d:57:1e:b4:ac:8a:24:56:f6:c6:91:1e:a7:1c:
         c4:cf:26:70:9a:aa:39:ac:84:10:39:4e:3e:6a:bf:b0:9c:4b:
         44:47:36:11:85:56:aa:1c:dc:45:5e:0c:22:3d:97:e2:55:e4:
         91:7b:35:48:18:f5:16:11:26:3f:b4:00:7e:05:db:f5:cf:3a:
         c9:6c:41:65:89:4e:a3:72:0e:7c:54:0f:1f:2a:af:da:f8:0f:
         23:ba:2c:dd:73:f4:e9:43:9a:65:b5:7c:45:fd:ba:31:dd:83:
         bc:bc:f8:e6
-----BEGIN CERTIFICATE-----
MIIDXDCCAkSgAwIBAgIQQY+i8/Pw14XDhQEMDgCOEjANBgkqhkiG9w0BAQsFADAW
MRQwEgYDVQQDDAt0ZWFtMzU3LW5ldDAeFw0yMTA5MTMwMjAxMDBaFw0yNDA4Mjgw
MjAxMDBaMBkxFzAVBgNVBAMMDnRlYW0zNTctY2xpZW50MIIBIjANBgkqhkiG9w0B
AQEFAAOCAQ8AMIIBCgKCAQEA91aqwjpf2P2JT8rmQZLyrwUNAlAmNm7vj4F9ELcE
+4oMp7wD0GfHebLEDH5L5VwUeYgCeeLG8rcK3L4nGzF6K5WWQQM4UsfZJaD9GWQH
Y6ZfcLPGPZl3CHL5tUsEzQmETVbiyEhPUa/44t+26J22pVPKurPU2SvS5gypUgcU
3pYPVzGwCNRsJKrYF4tBhjTZu0vD1aClWFtgP4IL/Lejc8Cz0JUV2UuxRrwd/Rri
Zn8A00hjj4W6MFm43jyGpb8Lzq8lpb7RlC2dvkSjEUUhtwEXaUSqzwZ4N8fVCGum
Dm5zuNgIr7vSKoTk50jvY10jNT5fs0We4NOwJJvq/7Z3DwIDAQABo4GiMIGfMAkG
A1UdEwQCMAAwHQYDVR0OBBYEFIS0+sPZiga867ecF+KRBwBbDlXuMFEGA1UdIwRK
MEiAFKTX3APH5r3HYlOLNzsJ9zjhL8F8oRqkGDAWMRQwEgYDVQQDDAt0ZWFtMzU3
LW5ldIIUOQBoXHdHNnCi3cPwNEYxB4nQyIAwEwYDVR0lBAwwCgYIKwYBBQUHAwIw
CwYDVR0PBAQDAgeAMA0GCSqGSIb3DQEBCwUAA4IBAQBnEveHdzJyg7cnEzgJrAn4
SzxaiAS+Psm+yzH6z3CrbpzBJepbeFLR4LmJMP/Ca8qaao58CQyQ86Mrw3shJ412
hiWkBRbI3uyyn6bGW+2zi4eE8Uur764Q8sd2aEzBS3Bl0M5jpqHo/wNt71BeGaxr
/IVxWakiB6UE5b7lrGZR7QC8HoKRy7KdwEE5DaZJyrEs6NbTHVcetKyKJFb2xpEe
pxzEzyZwmqo5rIQQOU4+ar+wnEtERzYRhVaqHNxFXgwiPZfiVeSRezVIGPUWESY/
tAB+Bdv1zzrJbEFliU6jcg58VA8fKq/a+A8juizdc/TpQ5pltXxF/box3YO8vPjm
-----END CERTIFICATE-----
