Certificate:
    Data:
        Version: 3 (0x2)
        Serial Number:
            69:77:9b:37:3a:06:4f:29:f6:51:e8:bf:1e:7b:94:ca
        Signature Algorithm: sha256WithRSAEncryption
        Issuer: CN=team10-net
        Validity
            Not Before: Sep 12 22:45:12 2021 GMT
            Not After : Aug 27 22:45:12 2024 GMT
        Subject: CN=team10-server
        Subject Public Key Info:
            Public Key Algorithm: rsaEncryption
                RSA Public-Key: (2048 bit)
                Modulus:
                    00:c2:19:97:f3:c5:d6:d0:6f:38:2b:e5:8c:01:27:
                    9f:ad:4c:43:22:d0:cc:27:fe:d9:35:c6:31:3a:fc:
                    13:41:b2:a7:12:40:97:bd:1a:cb:4c:f5:e6:01:01:
                    d9:23:76:88:47:83:c1:94:f5:e3:01:cc:9f:1c:57:
                    98:0f:a4:2f:e8:e7:4b:2b:9b:2d:86:ce:d5:b7:3e:
                    56:f5:5e:d4:ba:fc:46:07:a6:cf:10:44:4e:50:42:
                    42:3c:10:17:f7:8b:51:ec:c2:e2:a6:3b:c1:18:27:
                    49:d7:4d:2c:68:3e:f9:62:cb:ea:03:dd:bf:51:96:
                    7b:61:be:2b:1f:67:43:34:9b:d2:f2:24:37:86:e2:
                    a7:a9:50:17:88:b2:57:7e:29:44:3f:64:4b:1c:90:
                    48:b9:55:ac:73:40:47:51:60:ad:76:d6:f2:ab:71:
                    b9:a5:08:b2:15:8a:d8:1b:e4:94:f3:d5:ad:4a:8e:
                    16:fd:dc:ad:d4:1c:a7:16:ba:ce:5c:25:50:c7:29:
                    76:0e:85:f4:c5:08:08:b0:2d:68:5f:80:4e:4c:13:
                    14:2d:d3:0f:de:a0:6a:6c:bd:0a:d4:8d:a2:a1:78:
                    59:69:2f:92:33:84:c6:69:fb:a1:b2:15:53:54:4e:
                    d5:ad:51:fa:7e:b3:03:b5:2f:57:ec:51:1a:2e:4c:
                    fa:d5
                Exponent: 65537 (0x10001)
        X509v3 extensions:
            X509v3 Basic Constraints: 
                CA:FALSE
            X509v3 Subject Key Identifier: 
                0C:B5:EE:7A:2D:DE:78:C2:E7:B7:6A:4A:5E:FC:80:50:E5:02:EB:57
            X509v3 Authority Key Identifier: 
                keyid:BC:A1:F9:33:C1:82:16:D8:9B:84:9F:36:8F:55:79:28:43:68:AB:52
                DirName:/CN=team10-net
                serial:6F:02:31:5F:EC:EF:BF:F7:4A:38:6A:D3:77:4B:11:F2:FD:F2:12:1C

            X509v3 Extended Key Usage: 
                TLS Web Server Authentication
            X509v3 Key Usage: 
                Digital Signature, Key Encipherment
            X509v3 Subject Alternative Name: 
                DNS:team10-server
    Signature Algorithm: sha256WithRSAEncryption
         c6:a1:f3:90:4a:d8:b9:e6:27:ce:f9:01:47:56:7f:21:51:5d:
         8c:2d:c2:5b:8c:c1:ef:79:69:42:f5:b4:9f:dc:73:e3:d8:6a:
         d4:09:a5:47:0d:10:a7:28:4b:3f:c0:f2:cb:03:e4:f4:84:a0:
         cf:e9:b7:14:d2:17:67:ba:24:7b:db:67:fd:fb:ce:9c:df:da:
         13:d1:26:c8:5b:af:b3:bd:26:3d:40:89:15:fc:d4:86:61:40:
         eb:16:ee:7f:8c:18:f8:53:db:2e:b1:36:47:4c:20:c4:c7:7e:
         39:4c:c9:d1:ab:8f:ad:88:fa:95:ea:c5:6d:c5:7e:35:0d:61:
         a8:9a:35:0d:dc:0e:b4:c9:ce:44:9e:05:c8:26:a7:87:4f:e8:
         a1:78:92:d7:30:52:be:95:80:98:b8:8d:fb:87:6b:a7:4b:4a:
         ba:49:f1:1e:c1:b2:ac:34:79:6d:0e:0a:23:70:c9:9a:d0:b1:
         dd:3b:0e:c6:95:27:06:6a:d9:0f:1a:dc:25:ae:19:6f:eb:6a:
         95:f9:6d:38:62:27:01:2f:ac:e0:2a:9c:b0:3b:8d:15:44:4d:
         33:90:1d:ad:a4:60:a3:d5:03:a5:62:48:b5:a1:eb:87:a6:c1:
         87:1f:9e:68:7d:20:eb:3d:3c:0c:94:15:e8:6a:07:57:ea:d2:
         a5:c4:50:ba
-----BEGIN CERTIFICATE-----
MIIDczCCAlugAwIBAgIQaXebNzoGTyn2Uei/HnuUyjANBgkqhkiG9w0BAQsFADAV
MRMwEQYDVQQDDAp0ZWFtMTAtbmV0MB4XDTIxMDkxMjIyNDUxMloXDTI0MDgyNzIy
NDUxMlowGDEWMBQGA1UEAwwNdGVhbTEwLXNlcnZlcjCCASIwDQYJKoZIhvcNAQEB
BQADggEPADCCAQoCggEBAMIZl/PF1tBvOCvljAEnn61MQyLQzCf+2TXGMTr8E0Gy
pxJAl70ay0z15gEB2SN2iEeDwZT14wHMnxxXmA+kL+jnSyubLYbO1bc+VvVe1Lr8
RgemzxBETlBCQjwQF/eLUezC4qY7wRgnSddNLGg++WLL6gPdv1GWe2G+Kx9nQzSb
0vIkN4bip6lQF4iyV34pRD9kSxyQSLlVrHNAR1FgrXbW8qtxuaUIshWK2BvklPPV
rUqOFv3crdQcpxa6zlwlUMcpdg6F9MUICLAtaF+ATkwTFC3TD96gamy9CtSNoqF4
WWkvkjOExmn7obIVU1RO1a1R+n6zA7UvV+xRGi5M+tUCAwEAAaOBuzCBuDAJBgNV
HRMEAjAAMB0GA1UdDgQWBBQMte56Ld54wue3akpe/IBQ5QLrVzBQBgNVHSMESTBH
gBS8ofkzwYIW2JuEnzaPVXkoQ2irUqEZpBcwFTETMBEGA1UEAwwKdGVhbTEwLW5l
dIIUbwIxX+zvv/dKOGrTd0sR8v3yEhwwEwYDVR0lBAwwCgYIKwYBBQUHAwEwCwYD
VR0PBAQDAgWgMBgGA1UdEQQRMA+CDXRlYW0xMC1zZXJ2ZXIwDQYJKoZIhvcNAQEL
BQADggEBAMah85BK2LnmJ875AUdWfyFRXYwtwluMwe95aUL1tJ/cc+PYatQJpUcN
EKcoSz/A8ssD5PSEoM/ptxTSF2e6JHvbZ/37zpzf2hPRJshbr7O9Jj1AiRX81IZh
QOsW7n+MGPhT2y6xNkdMIMTHfjlMydGrj62I+pXqxW3FfjUNYaiaNQ3cDrTJzkSe
Bcgmp4dP6KF4ktcwUr6VgJi4jfuHa6dLSrpJ8R7Bsqw0eW0OCiNwyZrQsd07DsaV
JwZq2Q8a3CWuGW/rapX5bThiJwEvrOAqnLA7jRVETTOQHa2kYKPVA6ViSLWh64em
wYcfnmh9IOs9PAyUFehqB1fq0qXEULo=
-----END CERTIFICATE-----
