Certificate:
    Data:
        Version: 3 (0x2)
        Serial Number:
            b6:48:2f:22:16:aa:7e:6f:0e:dd:6c:99:a5:83:9a:5c
        Signature Algorithm: sha256WithRSAEncryption
        Issuer: CN=team595-net
        Validity
            Not Before: Sep 13 04:12:19 2021 GMT
            Not After : Aug 28 04:12:19 2024 GMT
        Subject: CN=team595-server
        Subject Public Key Info:
            Public Key Algorithm: rsaEncryption
                RSA Public-Key: (2048 bit)
                Modulus:
                    00:c6:3f:7c:08:c0:6c:31:6b:d9:2c:24:8a:de:5e:
                    02:72:99:bf:60:d9:6a:db:80:f8:96:46:7a:2f:f3:
                    ba:3f:f1:c0:7b:82:0c:d1:a7:be:af:76:e9:a4:7e:
                    ab:c7:e7:24:52:57:9a:d8:88:8f:1c:eb:c0:76:d8:
                    f2:36:07:43:a9:6b:4a:25:12:41:7c:a5:f1:2a:d8:
                    fc:21:30:f0:97:32:3e:c8:9e:e5:a9:79:22:60:d8:
                    76:af:bb:fc:ff:b5:4c:13:15:c1:10:cf:4b:ae:cc:
                    36:fc:b7:bf:0c:cd:ae:5f:09:b7:fd:96:f3:f0:af:
                    36:c2:1c:05:c4:7b:7c:90:c1:fe:b2:b8:30:56:f3:
                    ca:96:ef:8c:23:5e:41:57:af:87:dc:45:2d:7c:ce:
                    3d:bb:c8:8b:9e:9a:f2:f8:6e:5a:93:55:2d:28:32:
                    6c:32:08:bb:e4:92:75:f9:bb:cc:eb:33:47:44:35:
                    8a:d1:bd:be:f0:23:e6:c9:f3:2f:f4:f0:cf:75:54:
                    76:93:49:ae:9c:4e:f6:c4:ca:c8:29:cd:7a:06:91:
                    61:9b:6b:5c:95:e4:34:e3:82:7f:ed:e3:42:3c:f4:
                    64:cd:73:06:45:69:84:3c:df:79:8e:ce:10:ad:a4:
                    8f:7b:9b:06:64:d6:dd:86:5f:0f:1b:17:22:fe:7f:
                    b0:ab
                Exponent: 65537 (0x10001)
        X509v3 extensions:
            X509v3 Basic Constraints: 
                CA:FALSE
            X509v3 Subject Key Identifier: 
                9E:37:4F:D8:E5:9D:FB:7F:6B:82:89:34:BB:9C:5A:83:22:A8:25:8E
            X509v3 Authority Key Identifier: 
                keyid:8F:A8:BC:34:4C:6A:61:F8:8E:94:6D:8D:A2:72:99:BC:16:23:15:56
                DirName:/CN=team595-net
                serial:63:0E:D2:77:10:19:00:47:9A:80:67:74:EC:C6:67:7B:37:D9:2B:D0

            X509v3 Extended Key Usage: 
                TLS Web Server Authentication
            X509v3 Key Usage: 
                Digital Signature, Key Encipherment
            X509v3 Subject Alternative Name: 
                DNS:team595-server
    Signature Algorithm: sha256WithRSAEncryption
         5f:91:ff:d4:68:4f:9f:5c:f0:07:91:c9:c9:1b:66:91:7d:e6:
         81:29:9b:0c:27:c4:e1:b0:70:24:4f:a6:d9:dd:6c:0b:33:93:
         98:87:bf:c5:fa:9c:67:d3:f9:70:5c:a1:0e:c5:c7:56:38:f6:
         80:3f:9c:f3:1e:c4:d3:72:b3:cf:46:6e:6a:2d:e5:a1:74:dd:
         a6:31:20:07:07:3d:d1:12:7e:bc:5d:da:27:65:48:05:f6:fe:
         66:d2:f2:97:f9:f9:b2:07:2d:75:fd:40:be:47:db:4b:84:db:
         ae:3f:c4:d1:88:cc:3a:0c:63:fb:12:a4:ed:aa:32:4c:ff:46:
         af:69:32:68:ba:bb:32:19:82:8b:55:a3:1c:78:91:30:4e:0b:
         3c:8a:fa:7f:86:48:3e:a3:ae:1b:3a:1a:96:57:60:b4:94:42:
         01:f7:8e:2f:8d:d5:d0:b3:c5:93:9c:6c:5b:66:25:a7:07:3a:
         81:de:99:15:fa:d6:a9:b3:60:75:24:34:73:47:83:04:69:a7:
         24:98:3b:95:e5:7e:05:21:f7:ed:88:9a:14:c1:4a:09:c8:dc:
         87:91:25:29:e7:5e:69:74:5a:63:ee:85:f9:20:1e:a6:84:1b:
         1f:f9:90:e1:28:f5:1b:5e:2f:0d:22:6d:ce:e9:4d:05:60:1c:
         4b:63:cc:7e
-----BEGIN CERTIFICATE-----
MIIDeDCCAmCgAwIBAgIRALZILyIWqn5vDt1smaWDmlwwDQYJKoZIhvcNAQELBQAw
FjEUMBIGA1UEAwwLdGVhbTU5NS1uZXQwHhcNMjEwOTEzMDQxMjE5WhcNMjQwODI4
MDQxMjE5WjAZMRcwFQYDVQQDDA50ZWFtNTk1LXNlcnZlcjCCASIwDQYJKoZIhvcN
AQEBBQADggEPADCCAQoCggEBAMY/fAjAbDFr2Swkit5eAnKZv2DZatuA+JZGei/z
uj/xwHuCDNGnvq926aR+q8fnJFJXmtiIjxzrwHbY8jYHQ6lrSiUSQXyl8SrY/CEw
8JcyPsie5al5ImDYdq+7/P+1TBMVwRDPS67MNvy3vwzNrl8Jt/2W8/CvNsIcBcR7
fJDB/rK4MFbzypbvjCNeQVevh9xFLXzOPbvIi56a8vhuWpNVLSgybDIIu+SSdfm7
zOszR0Q1itG9vvAj5snzL/Twz3VUdpNJrpxO9sTKyCnNegaRYZtrXJXkNOOCf+3j
Qjz0ZM1zBkVphDzfeY7OEK2kj3ubBmTW3YZfDxsXIv5/sKsCAwEAAaOBvTCBujAJ
BgNVHRMEAjAAMB0GA1UdDgQWBBSeN0/Y5Z37f2uCiTS7nFqDIqgljjBRBgNVHSME
SjBIgBSPqLw0TGph+I6UbY2icpm8FiMVVqEapBgwFjEUMBIGA1UEAwwLdGVhbTU5
NS1uZXSCFGMO0ncQGQBHmoBndOzGZ3s32SvQMBMGA1UdJQQMMAoGCCsGAQUFBwMB
MAsGA1UdDwQEAwIFoDAZBgNVHREEEjAQgg50ZWFtNTk1LXNlcnZlcjANBgkqhkiG
9w0BAQsFAAOCAQEAX5H/1GhPn1zwB5HJyRtmkX3mgSmbDCfE4bBwJE+m2d1sCzOT
mIe/xfqcZ9P5cFyhDsXHVjj2gD+c8x7E03Kzz0Zuai3loXTdpjEgBwc90RJ+vF3a
J2VIBfb+ZtLyl/n5sgctdf1AvkfbS4Tbrj/E0YjMOgxj+xKk7aoyTP9Gr2kyaLq7
MhmCi1WjHHiRME4LPIr6f4ZIPqOuGzoalldgtJRCAfeOL43V0LPFk5xsW2Ylpwc6
gd6ZFfrWqbNgdSQ0c0eDBGmnJJg7leV+BSH37YiaFMFKCcjch5ElKedeaXRaY+6F
+SAepoQbH/mQ4Sj1G14vDSJtzulNBWAcS2PMfg==
-----END CERTIFICATE-----
