Certificate:
    Data:
        Version: 3 (0x2)
        Serial Number:
            5c:df:3b:25:01:48:78:e1:19:1c:0f:c0:f9:8b:9e:ac
        Signature Algorithm: sha256WithRSAEncryption
        Issuer: CN=team544-net
        Validity
            Not Before: Sep 13 03:28:03 2021 GMT
            Not After : Aug 28 03:28:03 2024 GMT
        Subject: CN=team544-client
        Subject Public Key Info:
            Public Key Algorithm: rsaEncryption
                RSA Public-Key: (2048 bit)
                Modulus:
                    00:f6:1c:06:dd:8d:2e:fd:f7:13:9c:18:ab:c5:03:
                    c8:42:11:da:fe:78:54:da:8f:8e:3a:73:c4:8e:aa:
                    e7:d9:2f:5b:1c:dd:cc:4a:e3:55:f4:52:26:f5:cc:
                    f1:26:a0:91:9c:31:b7:1d:dd:fc:3d:65:66:d5:57:
                    c1:dc:37:d6:d5:42:81:17:e3:98:e7:7b:eb:b6:16:
                    60:65:6c:64:8a:c1:a2:12:72:28:ee:2e:ac:60:13:
                    67:00:ff:fe:43:75:cf:e9:c2:e3:47:6a:0e:aa:f2:
                    95:ad:ff:e7:c0:30:fc:ee:84:31:b3:40:bf:1d:40:
                    1e:5f:d1:0e:75:2b:0c:79:4f:e5:1f:4a:c9:12:11:
                    c2:8b:c4:4e:f5:32:76:48:88:35:8b:f5:c7:25:9c:
                    14:55:cb:75:e1:fe:51:96:1c:0d:f9:64:f8:48:31:
                    4c:fe:28:ed:dd:34:56:5b:37:a5:c0:ba:a0:66:66:
                    a4:b3:e9:3f:5b:dd:a0:7b:03:42:b3:87:6f:34:25:
                    1c:dc:9c:63:b2:89:68:85:ea:ff:43:91:25:23:02:
                    61:1d:5f:38:53:68:39:04:1c:52:8f:b2:9f:ec:04:
                    71:8a:92:bc:63:80:95:b5:40:3c:96:38:19:8f:df:
                    f7:a6:bd:7f:20:51:7e:a9:07:39:1c:e0:0d:b1:f4:
                    5c:f1
                Exponent: 65537 (0x10001)
        X509v3 extensions:
            X509v3 Basic Constraints: 
                CA:FALSE
            X509v3 Subject Key Identifier: 
                A3:AF:62:4F:F6:34:27:9B:57:10:6F:DC:85:C1:48:98:71:95:23:BD
            X509v3 Authority Key Identifier: 
                keyid:DC:4A:3D:7A:4A:8C:10:FF:74:18:75:7B:86:C7:1D:FD:CF:2F:D7:B2
                DirName:/CN=team544-net
                serial:39:7F:EB:8C:F3:18:E6:67:E3:3E:0E:52:FA:C5:88:43:BE:88:B5:FF

            X509v3 Extended Key Usage: 
                TLS Web Client Authentication
            X509v3 Key Usage: 
                Digital Signature
    Signature Algorithm: sha256WithRSAEncryption
         56:7a:c0:c3:22:60:f5:39:7c:ac:c4:c1:d5:57:ff:4a:b2:3f:
         5a:60:83:e5:23:64:39:a1:ea:b3:fc:71:dd:68:60:63:03:be:
         1b:41:b4:df:e1:fc:60:bc:d1:bd:16:c1:97:e8:52:44:70:59:
         b1:4e:48:18:83:32:03:f2:85:d9:08:d0:1a:95:57:3f:d3:2a:
         bd:2a:8b:b8:47:c5:c5:13:75:b9:23:41:24:04:15:a7:85:80:
         62:e4:0c:65:f0:1f:cb:ec:e4:de:0d:b3:38:51:89:36:18:3e:
         f1:05:d9:11:4a:00:7c:3e:69:33:fd:78:88:f5:e4:ee:c9:9e:
         9a:4a:9b:f9:69:cf:f2:d7:ff:94:41:57:72:04:e8:71:a2:d3:
         51:ed:46:e1:e1:c8:c6:b5:16:f3:1b:2a:a1:14:e8:59:95:c3:
         ff:3e:c0:e3:29:de:7c:da:c3:cd:4d:2c:aa:1e:05:2f:b8:40:
         b8:70:85:7b:33:5d:50:06:06:83:96:5e:61:11:64:81:8a:9d:
         e4:aa:30:51:f2:c0:22:17:1d:ac:7e:3c:26:d3:ef:51:5f:e7:
         9c:b0:d2:3d:59:43:2e:18:9c:9d:0c:3d:32:11:c2:a0:27:c3:
         8c:15:16:81:dc:1e:52:af:c0:a2:e5:4e:07:d8:02:05:0a:2c:
         94:6f:1a:ac
-----BEGIN CERTIFICATE-----
MIIDXDCCAkSgAwIBAgIQXN87JQFIeOEZHA/A+YuerDANBgkqhkiG9w0BAQsFADAW
MRQwEgYDVQQDDAt0ZWFtNTQ0LW5ldDAeFw0yMTA5MTMwMzI4MDNaFw0yNDA4Mjgw
MzI4MDNaMBkxFzAVBgNVBAMMDnRlYW01NDQtY2xpZW50MIIBIjANBgkqhkiG9w0B
AQEFAAOCAQ8AMIIBCgKCAQEA9hwG3Y0u/fcTnBirxQPIQhHa/nhU2o+OOnPEjqrn
2S9bHN3MSuNV9FIm9czxJqCRnDG3Hd38PWVm1VfB3DfW1UKBF+OY53vrthZgZWxk
isGiEnIo7i6sYBNnAP/+Q3XP6cLjR2oOqvKVrf/nwDD87oQxs0C/HUAeX9EOdSsM
eU/lH0rJEhHCi8RO9TJ2SIg1i/XHJZwUVct14f5RlhwN+WT4SDFM/ijt3TRWWzel
wLqgZmaks+k/W92gewNCs4dvNCUc3Jxjsoloher/Q5ElIwJhHV84U2g5BBxSj7Kf
7ARxipK8Y4CVtUA8ljgZj9/3pr1/IFF+qQc5HOANsfRc8QIDAQABo4GiMIGfMAkG
A1UdEwQCMAAwHQYDVR0OBBYEFKOvYk/2NCebVxBv3IXBSJhxlSO9MFEGA1UdIwRK
MEiAFNxKPXpKjBD/dBh1e4bHHf3PL9eyoRqkGDAWMRQwEgYDVQQDDAt0ZWFtNTQ0
LW5ldIIUOX/rjPMY5mfjPg5S+sWIQ76Itf8wEwYDVR0lBAwwCgYIKwYBBQUHAwIw
CwYDVR0PBAQDAgeAMA0GCSqGSIb3DQEBCwUAA4IBAQBWesDDImD1OXysxMHVV/9K
sj9aYIPlI2Q5oeqz/HHdaGBjA74bQbTf4fxgvNG9FsGX6FJEcFmxTkgYgzID8oXZ
CNAalVc/0yq9Kou4R8XFE3W5I0EkBBWnhYBi5Axl8B/L7OTeDbM4UYk2GD7xBdkR
SgB8Pmkz/XiI9eTuyZ6aSpv5ac/y1/+UQVdyBOhxotNR7Ubh4cjGtRbzGyqhFOhZ
lcP/PsDjKd582sPNTSyqHgUvuEC4cIV7M11QBgaDll5hEWSBip3kqjBR8sAiFx2s
fjwm0+9RX+ecsNI9WUMuGJydDD0yEcKgJ8OMFRaB3B5Sr8Ci5U4H2AIFCiyUbxqs
-----END CERTIFICATE-----
