Certificate:
    Data:
        Version: 3 (0x2)
        Serial Number:
            6c:c2:70:e4:73:20:09:ab:7c:2c:a6:5b:ed:f5:c3:84
        Signature Algorithm: sha256WithRSAEncryption
        Issuer: CN=team739-net
        Validity
            Not Before: Sep 13 05:43:23 2021 GMT
            Not After : Aug 28 05:43:23 2024 GMT
        Subject: CN=team739-client
        Subject Public Key Info:
            Public Key Algorithm: rsaEncryption
                RSA Public-Key: (2048 bit)
                Modulus:
                    00:cd:34:dd:51:c8:6f:a8:ec:fc:b0:3a:68:fb:e1:
                    ba:f4:0e:49:77:35:16:17:f0:eb:51:7b:47:14:ab:
                    25:a3:c5:0e:78:e8:e6:5b:63:d1:1e:f9:1c:27:12:
                    1c:c7:85:15:b3:10:3f:b9:77:36:bd:45:59:67:75:
                    bf:f3:2c:18:db:3d:f5:d6:77:07:a3:2f:aa:4f:41:
                    3c:1e:29:26:2e:dc:4d:a2:b1:4a:f1:8b:6b:ad:d4:
                    06:61:1e:f3:ba:ff:98:73:34:b3:41:0e:99:41:ee:
                    e9:4c:86:62:a5:fa:a0:18:1d:28:40:5d:2d:4f:dc:
                    9f:19:b6:80:81:ca:aa:90:d3:33:b7:10:40:55:4c:
                    d6:c8:72:6b:2d:f0:91:3d:57:fa:73:31:64:ab:17:
                    d3:8a:03:2f:9a:a5:e3:fc:cd:7d:88:0d:a9:fc:78:
                    95:94:64:94:07:53:a5:a3:b2:7f:3c:d8:cd:8d:bc:
                    58:4e:9b:dd:23:1a:f7:c3:57:d0:79:b8:69:70:8b:
                    6e:34:32:8c:08:92:75:65:f8:66:e5:53:90:9a:47:
                    58:a0:76:bc:f7:39:19:c4:35:ca:a5:6f:dc:6d:d9:
                    8d:2f:8a:e2:0b:20:a8:17:87:23:a2:dc:af:0b:71:
                    b2:de:c0:8e:b0:4f:4e:63:57:6c:35:13:c5:c5:47:
                    4d:e5
                Exponent: 65537 (0x10001)
        X509v3 extensions:
            X509v3 Basic Constraints: 
                CA:FALSE
            X509v3 Subject Key Identifier: 
                67:CD:6C:47:1D:81:87:E3:9E:14:71:5E:27:83:50:F3:3E:9F:99:3B
            X509v3 Authority Key Identifier: 
                keyid:EF:C0:09:0B:CC:2F:F9:F8:30:CA:99:D5:DD:B0:91:AF:F9:62:2F:2D
                DirName:/CN=team739-net
                serial:3E:A7:77:80:60:35:A4:BA:16:D2:14:87:F2:C1:3E:FC:2A:B7:0A:E1

            X509v3 Extended Key Usage: 
                TLS Web Client Authentication
            X509v3 Key Usage: 
                Digital Signature
    Signature Algorithm: sha256WithRSAEncryption
         01:c9:7b:b3:39:fe:61:1e:53:1c:7e:04:a9:6d:05:ef:a5:2e:
         24:72:bd:cc:9c:06:50:15:28:58:f4:11:5c:d0:ea:f5:65:1e:
         59:49:e1:e8:68:bf:62:81:7e:47:22:d7:9d:50:50:1e:fc:6a:
         29:49:c8:8c:7e:c4:91:7b:06:90:3a:69:a0:18:5e:e8:15:88:
         22:3d:07:fe:75:90:b9:a5:39:49:1d:46:e1:7f:42:ea:ac:90:
         e2:be:6e:b4:e8:0e:78:10:99:8b:91:67:1e:eb:c4:5c:a3:74:
         2f:05:f7:b4:72:c5:ad:0d:69:9a:0c:f5:dc:54:15:ad:c7:17:
         ad:f1:6e:b4:7c:ca:45:1a:88:cb:75:8c:70:dc:23:a5:64:10:
         94:a6:c0:a8:1e:52:e1:9a:bf:b1:6a:45:62:e2:8c:78:bf:7b:
         df:a9:33:bc:50:47:c8:ff:9b:24:f7:2a:43:f7:59:b6:29:84:
         be:dd:50:dd:69:69:41:be:37:f6:79:ed:d3:43:eb:97:56:8c:
         5a:54:75:fd:9b:cc:13:a2:1e:b3:2c:72:1b:4a:93:50:63:1a:
         40:51:5c:4a:e7:a8:a5:4a:f9:23:f4:fe:9a:99:69:b8:e4:76:
         c9:c0:4d:3a:97:10:6f:85:e2:c7:7b:3d:2c:7b:85:93:e1:8c:
         4f:f9:92:43
-----BEGIN CERTIFICATE-----
MIIDXDCCAkSgAwIBAgIQbMJw5HMgCat8LKZb7fXDhDANBgkqhkiG9w0BAQsFADAW
MRQwEgYDVQQDDAt0ZWFtNzM5LW5ldDAeFw0yMTA5MTMwNTQzMjNaFw0yNDA4Mjgw
NTQzMjNaMBkxFzAVBgNVBAMMDnRlYW03MzktY2xpZW50MIIBIjANBgkqhkiG9w0B
AQEFAAOCAQ8AMIIBCgKCAQEAzTTdUchvqOz8sDpo++G69A5JdzUWF/DrUXtHFKsl
o8UOeOjmW2PRHvkcJxIcx4UVsxA/uXc2vUVZZ3W/8ywY2z311ncHoy+qT0E8Hikm
LtxNorFK8YtrrdQGYR7zuv+YczSzQQ6ZQe7pTIZipfqgGB0oQF0tT9yfGbaAgcqq
kNMztxBAVUzWyHJrLfCRPVf6czFkqxfTigMvmqXj/M19iA2p/HiVlGSUB1Olo7J/
PNjNjbxYTpvdIxr3w1fQebhpcItuNDKMCJJ1Zfhm5VOQmkdYoHa89zkZxDXKpW/c
bdmNL4riCyCoF4cjotyvC3Gy3sCOsE9OY1dsNRPFxUdN5QIDAQABo4GiMIGfMAkG
A1UdEwQCMAAwHQYDVR0OBBYEFGfNbEcdgYfjnhRxXieDUPM+n5k7MFEGA1UdIwRK
MEiAFO/ACQvML/n4MMqZ1d2wka/5Yi8toRqkGDAWMRQwEgYDVQQDDAt0ZWFtNzM5
LW5ldIIUPqd3gGA1pLoW0hSH8sE+/Cq3CuEwEwYDVR0lBAwwCgYIKwYBBQUHAwIw
CwYDVR0PBAQDAgeAMA0GCSqGSIb3DQEBCwUAA4IBAQAByXuzOf5hHlMcfgSpbQXv
pS4kcr3MnAZQFShY9BFc0Or1ZR5ZSeHoaL9igX5HItedUFAe/GopSciMfsSRewaQ
OmmgGF7oFYgiPQf+dZC5pTlJHUbhf0LqrJDivm606A54EJmLkWce68Rco3QvBfe0
csWtDWmaDPXcVBWtxxet8W60fMpFGojLdYxw3COlZBCUpsCoHlLhmr+xakVi4ox4
v3vfqTO8UEfI/5sk9ypD91m2KYS+3VDdaWlBvjf2ee3TQ+uXVoxaVHX9m8wToh6z
LHIbSpNQYxpAUVxK56ilSvkj9P6amWm45HbJwE06lxBvheLHez0se4WT4YxP+ZJD
-----END CERTIFICATE-----
