Certificate:
    Data:
        Version: 3 (0x2)
        Serial Number:
            c5:28:fa:4f:52:15:49:0d:c8:37:e4:ce:ba:a2:b9:ef
        Signature Algorithm: sha256WithRSAEncryption
        Issuer: CN=team333-net
        Validity
            Not Before: Sep 13 01:45:46 2021 GMT
            Not After : Aug 28 01:45:46 2024 GMT
        Subject: CN=team333-client
        Subject Public Key Info:
            Public Key Algorithm: rsaEncryption
                RSA Public-Key: (2048 bit)
                Modulus:
                    00:d4:42:22:0e:c1:56:36:28:cc:c6:f5:37:64:a2:
                    0a:d1:14:e3:44:2f:44:67:5a:53:af:9e:e8:d4:30:
                    23:09:2c:3b:dc:7e:53:14:a3:d2:a3:19:27:0e:d3:
                    80:20:b1:f0:b3:b0:d9:28:34:b0:43:6a:fb:05:f0:
                    57:34:12:05:0b:89:9d:e8:f0:33:cd:fe:c5:cd:3f:
                    fd:71:3a:47:56:6e:1d:45:a9:4c:20:c6:25:da:9b:
                    73:b7:be:34:0d:bb:72:18:a7:4c:10:2d:5a:d2:45:
                    9b:72:89:56:72:6c:b6:eb:4d:3b:6f:23:c9:6c:a8:
                    03:7c:a6:95:4e:f2:7a:c5:e7:b5:c4:da:dd:57:64:
                    5a:ca:24:a7:ff:68:a0:91:41:e0:24:24:1d:ac:05:
                    86:5a:6b:39:2f:bd:de:8b:c6:4f:cb:96:5d:56:8f:
                    3d:6b:6b:fb:d8:1f:33:d5:49:63:a2:4c:97:37:17:
                    21:5f:10:bc:c0:b1:c3:7b:e5:96:da:b3:3f:d6:d5:
                    ea:88:b5:5b:92:e2:c0:82:67:77:d2:1d:80:a7:cd:
                    51:b2:82:e3:c7:22:40:e6:64:f8:db:86:49:de:ea:
                    3d:cc:92:4d:2f:79:d3:02:a1:37:9b:92:03:1b:87:
                    a9:15:98:0e:09:c2:eb:00:1f:cc:02:d9:fb:99:80:
                    c7:eb
                Exponent: 65537 (0x10001)
        X509v3 extensions:
            X509v3 Basic Constraints: 
                CA:FALSE
            X509v3 Subject Key Identifier: 
                A0:AC:43:42:3F:EA:E2:33:A9:25:36:F3:E3:D8:97:E2:A4:4F:BE:95
            X509v3 Authority Key Identifier: 
                keyid:AB:F7:1D:5A:CE:97:34:12:C1:39:7C:19:FB:2D:F8:91:BB:96:EF:C4
                DirName:/CN=team333-net
                serial:6C:6B:E3:1D:2C:A5:D4:82:FC:87:9E:B4:D5:11:62:93:94:E2:D8:85

            X509v3 Extended Key Usage: 
                TLS Web Client Authentication
            X509v3 Key Usage: 
                Digital Signature
    Signature Algorithm: sha256WithRSAEncryption
         76:b8:3d:de:35:4e:2b:d9:9c:ad:a0:4c:3f:0b:c3:f5:18:29:
         f1:15:bd:d6:d9:a5:5a:6e:20:44:09:3d:4e:b8:11:41:49:89:
         9e:c4:c1:05:2c:8b:52:df:a7:66:01:55:ec:59:56:96:39:96:
         c7:dd:62:aa:13:4f:ed:4d:82:e2:d1:01:c4:ab:37:be:2e:c7:
         d4:28:76:23:32:3f:4c:75:74:b1:98:8b:65:2a:ff:d2:d9:1f:
         6a:d0:c0:33:71:0a:7a:d7:a2:fe:6e:28:83:4d:c5:97:19:b3:
         98:ef:55:25:be:39:2f:c0:9a:f5:44:39:a7:2f:63:2f:d3:27:
         9b:eb:86:ff:20:f5:0e:75:05:67:3e:d3:57:1f:f0:0a:c3:a2:
         6e:37:26:97:df:49:d6:4d:47:f2:be:a6:f5:1b:a8:d3:07:8b:
         74:2e:ed:41:e6:c2:03:5c:28:8c:e8:39:da:14:ea:29:1a:67:
         10:08:ad:10:38:06:82:9a:8c:bf:f6:9c:88:27:e2:28:e6:78:
         a3:c6:09:72:ae:7e:fa:29:58:75:5a:49:6f:a5:c3:3b:8e:22:
         08:5a:e9:85:59:8b:8a:80:27:fe:70:f1:48:98:b4:e6:79:cb:
         83:ea:51:d9:3d:fe:85:3e:10:7b:aa:c3:b3:99:1b:e5:6a:32:
         3e:3c:b7:02
-----BEGIN CERTIFICATE-----
MIIDXTCCAkWgAwIBAgIRAMUo+k9SFUkNyDfkzrqiue8wDQYJKoZIhvcNAQELBQAw
FjEUMBIGA1UEAwwLdGVhbTMzMy1uZXQwHhcNMjEwOTEzMDE0NTQ2WhcNMjQwODI4
MDE0NTQ2WjAZMRcwFQYDVQQDDA50ZWFtMzMzLWNsaWVudDCCASIwDQYJKoZIhvcN
AQEBBQADggEPADCCAQoCggEBANRCIg7BVjYozMb1N2SiCtEU40QvRGdaU6+e6NQw
IwksO9x+UxSj0qMZJw7TgCCx8LOw2Sg0sENq+wXwVzQSBQuJnejwM83+xc0//XE6
R1ZuHUWpTCDGJdqbc7e+NA27chinTBAtWtJFm3KJVnJstutNO28jyWyoA3ymlU7y
esXntcTa3VdkWsokp/9ooJFB4CQkHawFhlprOS+93ovGT8uWXVaPPWtr+9gfM9VJ
Y6JMlzcXIV8QvMCxw3vlltqzP9bV6oi1W5LiwIJnd9IdgKfNUbKC48ciQOZk+NuG
Sd7qPcySTS950wKhN5uSAxuHqRWYDgnC6wAfzALZ+5mAx+sCAwEAAaOBojCBnzAJ
BgNVHRMEAjAAMB0GA1UdDgQWBBSgrENCP+riM6klNvPj2JfipE++lTBRBgNVHSME
SjBIgBSr9x1azpc0EsE5fBn7LfiRu5bvxKEapBgwFjEUMBIGA1UEAwwLdGVhbTMz
My1uZXSCFGxr4x0spdSC/IeetNURYpOU4tiFMBMGA1UdJQQMMAoGCCsGAQUFBwMC
MAsGA1UdDwQEAwIHgDANBgkqhkiG9w0BAQsFAAOCAQEAdrg93jVOK9mcraBMPwvD
9Rgp8RW91tmlWm4gRAk9TrgRQUmJnsTBBSyLUt+nZgFV7FlWljmWx91iqhNP7U2C
4tEBxKs3vi7H1Ch2IzI/THV0sZiLZSr/0tkfatDAM3EKetei/m4og03FlxmzmO9V
Jb45L8Ca9UQ5py9jL9Mnm+uG/yD1DnUFZz7TVx/wCsOibjcml99J1k1H8r6m9Ruo
0weLdC7tQebCA1wojOg52hTqKRpnEAitEDgGgpqMv/aciCfiKOZ4o8YJcq5++ilY
dVpJb6XDO44iCFrphVmLioAn/nDxSJi05nnLg+pR2T3+hT4Qe6rDs5kb5WoyPjy3
Ag==
-----END CERTIFICATE-----
