Certificate:
    Data:
        Version: 3 (0x2)
        Serial Number:
            9b:8b:01:b8:fe:a5:d1:b5:9e:c0:6d:ab:d9:25:86:1d
        Signature Algorithm: sha256WithRSAEncryption
        Issuer: CN=team251-net
        Validity
            Not Before: Sep 13 01:03:19 2021 GMT
            Not After : Aug 28 01:03:19 2024 GMT
        Subject: CN=team251-server
        Subject Public Key Info:
            Public Key Algorithm: rsaEncryption
                RSA Public-Key: (2048 bit)
                Modulus:
                    00:b9:1e:03:75:b2:14:00:e1:f8:30:78:6a:ac:68:
                    39:a5:03:89:a5:65:80:f5:0f:fa:69:22:d2:8c:d8:
                    37:eb:7f:ad:46:2f:c7:29:33:29:ef:97:18:1e:d4:
                    8e:a9:f9:b8:0d:43:ae:de:44:8b:1d:c6:71:d5:50:
                    cc:b7:91:04:39:c5:d9:51:78:42:a1:a1:01:12:c5:
                    44:b3:86:ba:f7:61:60:ed:e1:be:53:fd:4d:8f:00:
                    eb:03:89:56:34:21:d3:ed:38:ef:82:fd:80:b5:17:
                    aa:e1:68:e5:1f:84:d8:5b:84:b6:52:62:7d:0e:35:
                    68:f8:a9:ca:11:5e:1c:4d:eb:fd:b8:e0:7f:6e:c3:
                    ec:7f:54:56:21:bb:e3:b1:d3:a6:dc:92:dd:90:0c:
                    a8:e5:be:36:03:27:07:29:1c:65:36:20:cb:58:af:
                    59:f8:ef:db:58:56:18:1f:6c:55:02:db:e7:68:ce:
                    13:2d:aa:90:f9:52:e7:0a:4d:7c:61:37:66:32:c9:
                    a5:8a:c1:05:55:47:6b:79:2d:72:e0:57:b0:c0:4c:
                    df:28:61:fe:28:53:b1:98:2f:09:ae:98:d1:f2:3d:
                    b7:b9:6a:27:86:a5:4b:33:9f:da:5a:e7:71:8e:38:
                    0a:68:1b:c7:ca:30:fc:d3:74:3f:13:58:0a:6d:d7:
                    7b:0d
                Exponent: 65537 (0x10001)
        X509v3 extensions:
            X509v3 Basic Constraints: 
                CA:FALSE
            X509v3 Subject Key Identifier: 
                13:F2:AD:63:E0:57:85:0E:39:A8:2C:66:F6:ED:62:37:89:87:1D:36
            X509v3 Authority Key Identifier: 
                keyid:DF:5E:AF:5B:85:19:02:21:BF:5F:9A:39:AE:24:2F:59:81:36:C6:0F
                DirName:/CN=team251-net
                serial:61:87:26:AD:47:5E:9E:7B:D2:4B:F1:76:EC:53:C0:E4:71:13:CE:2B

            X509v3 Extended Key Usage: 
                TLS Web Server Authentication
            X509v3 Key Usage: 
                Digital Signature, Key Encipherment
            X509v3 Subject Alternative Name: 
                DNS:team251-server
    Signature Algorithm: sha256WithRSAEncryption
         aa:8c:cc:1d:c2:22:84:14:c8:f7:e1:16:c7:24:48:82:17:94:
         6c:6c:1a:59:91:80:96:9e:1c:5f:fc:fe:ce:7c:31:9d:b8:c5:
         98:1c:d7:8d:ea:f9:86:24:0f:30:63:d7:ab:ea:51:a1:e2:c3:
         4e:42:c9:38:9d:f1:4c:01:85:b2:70:c1:50:de:1c:e3:04:c5:
         5b:04:b4:e1:e8:7f:44:82:47:6c:3f:58:86:36:2a:05:0d:f0:
         eb:ab:e8:7d:64:67:d8:d4:da:1e:ed:c8:77:73:d9:ed:b5:52:
         df:7a:23:19:14:03:a5:17:c3:d7:73:cd:3e:11:51:67:1b:19:
         93:f9:cb:3e:c2:a6:d3:33:da:99:00:6d:bc:cf:97:76:71:4e:
         03:d7:64:c3:22:87:b6:33:70:ac:40:8f:ee:90:bc:40:10:88:
         1b:0c:8e:76:77:38:2b:09:39:29:ba:ac:0e:e3:27:03:75:c4:
         31:7b:b8:a2:42:91:b1:3e:b2:5e:a1:00:9e:78:05:e3:4a:53:
         c6:2c:8e:33:a9:fc:bc:91:e7:7c:c0:e5:39:34:b7:ba:15:50:
         01:1b:1a:5c:d3:78:1a:50:fa:d2:3d:72:63:be:6c:ea:2b:ba:
         c3:e8:0d:55:52:2d:3c:f5:7d:b3:5e:93:03:92:35:71:21:06:
         c4:90:32:ff
-----BEGIN CERTIFICATE-----
MIIDeDCCAmCgAwIBAgIRAJuLAbj+pdG1nsBtq9klhh0wDQYJKoZIhvcNAQELBQAw
FjEUMBIGA1UEAwwLdGVhbTI1MS1uZXQwHhcNMjEwOTEzMDEwMzE5WhcNMjQwODI4
MDEwMzE5WjAZMRcwFQYDVQQDDA50ZWFtMjUxLXNlcnZlcjCCASIwDQYJKoZIhvcN
AQEBBQADggEPADCCAQoCggEBALkeA3WyFADh+DB4aqxoOaUDiaVlgPUP+mki0ozY
N+t/rUYvxykzKe+XGB7Ujqn5uA1Drt5Eix3GcdVQzLeRBDnF2VF4QqGhARLFRLOG
uvdhYO3hvlP9TY8A6wOJVjQh0+0474L9gLUXquFo5R+E2FuEtlJifQ41aPipyhFe
HE3r/bjgf27D7H9UViG747HTptyS3ZAMqOW+NgMnBykcZTYgy1ivWfjv21hWGB9s
VQLb52jOEy2qkPlS5wpNfGE3ZjLJpYrBBVVHa3ktcuBXsMBM3yhh/ihTsZgvCa6Y
0fI9t7lqJ4alSzOf2lrncY44Cmgbx8ow/NN0PxNYCm3Xew0CAwEAAaOBvTCBujAJ
BgNVHRMEAjAAMB0GA1UdDgQWBBQT8q1j4FeFDjmoLGb27WI3iYcdNjBRBgNVHSME
SjBIgBTfXq9bhRkCIb9fmjmuJC9ZgTbGD6EapBgwFjEUMBIGA1UEAwwLdGVhbTI1
MS1uZXSCFGGHJq1HXp570kvxduxTwORxE84rMBMGA1UdJQQMMAoGCCsGAQUFBwMB
MAsGA1UdDwQEAwIFoDAZBgNVHREEEjAQgg50ZWFtMjUxLXNlcnZlcjANBgkqhkiG
9w0BAQsFAAOCAQEAqozMHcIihBTI9+EWxyRIgheUbGwaWZGAlp4cX/z+znwxnbjF
mBzXjer5hiQPMGPXq+pRoeLDTkLJOJ3xTAGFsnDBUN4c4wTFWwS04eh/RIJHbD9Y
hjYqBQ3w66vofWRn2NTaHu3Id3PZ7bVS33ojGRQDpRfD13PNPhFRZxsZk/nLPsKm
0zPamQBtvM+XdnFOA9dkwyKHtjNwrECP7pC8QBCIGwyOdnc4Kwk5KbqsDuMnA3XE
MXu4okKRsT6yXqEAnngF40pTxiyOM6n8vJHnfMDlOTS3uhVQARsaXNN4GlD60j1y
Y75s6iu6w+gNVVItPPV9s16TA5I1cSEGxJAy/w==
-----END CERTIFICATE-----
