Certificate:
    Data:
        Version: 3 (0x2)
        Serial Number:
            17:c1:05:2c:20:78:c3:8d:ff:00:ee:1a:79:8d:1d:a3
        Signature Algorithm: sha256WithRSAEncryption
        Issuer: CN=team709-net
        Validity
            Not Before: Sep 13 04:54:04 2021 GMT
            Not After : Aug 28 04:54:04 2024 GMT
        Subject: CN=team709-client
        Subject Public Key Info:
            Public Key Algorithm: rsaEncryption
                RSA Public-Key: (2048 bit)
                Modulus:
                    00:cf:98:88:08:1b:0f:37:a7:8e:dc:5d:83:b9:d5:
                    27:26:24:8c:f9:4d:3e:0e:39:69:87:df:30:19:77:
                    f2:3b:ab:ad:d0:63:12:82:2c:99:29:78:69:7d:e4:
                    19:22:5c:e0:12:74:b2:c6:39:a8:d4:d7:d4:03:03:
                    0c:0b:13:0f:52:3b:08:e9:89:4a:a0:04:3c:c6:da:
                    be:5f:03:4b:3c:88:5a:f7:08:61:93:15:79:d7:a5:
                    07:ee:34:85:16:58:cf:6f:8f:89:f4:aa:b0:fb:c5:
                    a5:7f:98:4b:a5:e8:bb:05:d4:66:1d:8b:f8:cb:34:
                    55:bb:2e:17:97:c8:8f:6b:ad:45:f6:75:7e:63:35:
                    14:6a:2c:6d:8c:fb:a8:8a:e5:99:7d:7a:3b:5b:7b:
                    22:bf:b8:58:f4:59:6e:d5:7d:ff:7e:cd:54:ff:b2:
                    ed:94:39:eb:0f:f5:9f:5e:58:57:31:60:05:92:49:
                    4f:8e:b4:30:1d:cc:00:db:6e:f2:8c:0c:40:ff:0e:
                    39:59:93:49:34:6f:26:83:02:32:6d:3e:3d:6e:d4:
                    b4:3d:d2:1e:fc:43:f5:59:61:83:29:ad:a6:1d:ac:
                    22:26:b6:d9:e4:38:e3:4b:eb:d3:54:b2:e2:22:a5:
                    db:bd:13:cd:7b:b1:41:29:aa:06:4c:2e:7a:93:62:
                    cf:25
                Exponent: 65537 (0x10001)
        X509v3 extensions:
            X509v3 Basic Constraints: 
                CA:FALSE
            X509v3 Subject Key Identifier: 
                56:84:54:69:0C:05:7C:B2:38:A0:9F:11:AA:CB:01:AF:2D:29:C7:FC
            X509v3 Authority Key Identifier: 
                keyid:C9:51:5F:FD:5B:98:D3:14:06:25:3E:32:41:7B:2C:CB:BB:0C:B7:67
                DirName:/CN=team709-net
                serial:22:5C:F6:CE:6F:9B:62:31:40:BC:EA:57:BC:3A:7D:7F:79:14:1B:D5

            X509v3 Extended Key Usage: 
                TLS Web Client Authentication
            X509v3 Key Usage: 
                Digital Signature
    Signature Algorithm: sha256WithRSAEncryption
         ab:36:30:79:35:95:8d:e6:02:f5:88:21:d2:94:ac:f5:5e:af:
         8a:f3:6a:40:81:e5:25:1d:45:69:ec:d2:38:6f:6a:de:1f:56:
         a2:a4:19:54:31:e5:1b:0a:52:1e:d4:43:e7:5c:99:a4:da:e1:
         88:87:e9:8d:6b:7d:46:6c:dd:04:5d:90:4a:ca:a5:e7:c4:78:
         b9:c8:6b:e2:75:7d:37:2d:c6:a8:62:bd:82:43:8f:b0:5e:a8:
         48:60:5a:69:0d:27:1f:d1:66:e2:be:41:a3:e9:95:19:fb:e0:
         9b:ec:0e:58:4d:c8:0c:ee:2d:08:bd:d9:86:6e:ad:25:be:79:
         9b:22:70:08:79:49:02:c5:42:3e:da:e2:2f:9b:54:ce:3d:ef:
         a0:22:83:39:5f:f3:a1:32:ad:00:54:65:5d:33:3f:a0:10:b8:
         9f:f6:a7:53:73:03:e4:43:78:a8:c8:8c:d2:2a:d6:11:db:5d:
         35:32:96:ba:c5:3b:81:34:cc:e8:5f:55:9e:d5:c9:5f:f9:45:
         a1:fe:33:bc:b4:46:d4:3e:e1:81:2a:ef:d1:91:68:fb:85:b5:
         fc:2e:ab:83:4b:b6:77:35:84:b1:30:dd:2b:1a:6c:21:21:2e:
         30:e5:8d:e1:08:73:1b:e7:24:49:9b:a4:78:30:79:b0:73:ac:
         5e:7f:1c:75
-----BEGIN CERTIFICATE-----
MIIDXDCCAkSgAwIBAgIQF8EFLCB4w43/AO4aeY0dozANBgkqhkiG9w0BAQsFADAW
MRQwEgYDVQQDDAt0ZWFtNzA5LW5ldDAeFw0yMTA5MTMwNDU0MDRaFw0yNDA4Mjgw
NDU0MDRaMBkxFzAVBgNVBAMMDnRlYW03MDktY2xpZW50MIIBIjANBgkqhkiG9w0B
AQEFAAOCAQ8AMIIBCgKCAQEAz5iICBsPN6eO3F2DudUnJiSM+U0+Djlph98wGXfy
O6ut0GMSgiyZKXhpfeQZIlzgEnSyxjmo1NfUAwMMCxMPUjsI6YlKoAQ8xtq+XwNL
PIha9whhkxV516UH7jSFFljPb4+J9Kqw+8Wlf5hLpei7BdRmHYv4yzRVuy4Xl8iP
a61F9nV+YzUUaixtjPuoiuWZfXo7W3siv7hY9Flu1X3/fs1U/7LtlDnrD/WfXlhX
MWAFkklPjrQwHcwA227yjAxA/w45WZNJNG8mgwIybT49btS0PdIe/EP1WWGDKa2m
HawiJrbZ5DjjS+vTVLLiIqXbvRPNe7FBKaoGTC56k2LPJQIDAQABo4GiMIGfMAkG
A1UdEwQCMAAwHQYDVR0OBBYEFFaEVGkMBXyyOKCfEarLAa8tKcf8MFEGA1UdIwRK
MEiAFMlRX/1bmNMUBiU+MkF7LMu7DLdnoRqkGDAWMRQwEgYDVQQDDAt0ZWFtNzA5
LW5ldIIUIlz2zm+bYjFAvOpXvDp9f3kUG9UwEwYDVR0lBAwwCgYIKwYBBQUHAwIw
CwYDVR0PBAQDAgeAMA0GCSqGSIb3DQEBCwUAA4IBAQCrNjB5NZWN5gL1iCHSlKz1
Xq+K82pAgeUlHUVp7NI4b2reH1aipBlUMeUbClIe1EPnXJmk2uGIh+mNa31GbN0E
XZBKyqXnxHi5yGvidX03LcaoYr2CQ4+wXqhIYFppDScf0WbivkGj6ZUZ++Cb7A5Y
TcgM7i0IvdmGbq0lvnmbInAIeUkCxUI+2uIvm1TOPe+gIoM5X/OhMq0AVGVdMz+g
ELif9qdTcwPkQ3ioyIzSKtYR2101Mpa6xTuBNMzoX1We1clf+UWh/jO8tEbUPuGB
Ku/RkWj7hbX8LquDS7Z3NYSxMN0rGmwhIS4w5Y3hCHMb5yRJm6R4MHmwc6xefxx1
-----END CERTIFICATE-----
