Certificate:
    Data:
        Version: 3 (0x2)
        Serial Number:
            9e:bb:4f:a7:b6:0d:eb:6f:58:b7:61:01:cc:10:17:db
        Signature Algorithm: sha256WithRSAEncryption
        Issuer: CN=team385-net
        Validity
            Not Before: Sep 13 02:15:14 2021 GMT
            Not After : Aug 28 02:15:14 2024 GMT
        Subject: CN=team385-client
        Subject Public Key Info:
            Public Key Algorithm: rsaEncryption
                RSA Public-Key: (2048 bit)
                Modulus:
                    00:b3:02:cb:ce:fe:70:0b:61:f9:f2:a7:41:4d:3c:
                    28:d1:8a:cb:8c:c7:83:8e:87:f1:12:82:71:ce:6e:
                    1c:32:20:b9:24:d4:bf:f3:ab:d0:d0:f7:90:55:06:
                    8b:e5:fe:31:04:e8:17:fd:4d:3f:de:36:81:7e:5d:
                    26:9e:0a:20:94:29:a9:95:54:19:b8:12:e7:cd:42:
                    25:69:49:0e:12:58:d6:f3:a6:c1:ec:ff:1b:60:2e:
                    62:f0:37:e3:f1:13:53:c4:ad:96:66:69:35:40:ed:
                    d6:28:8f:fb:88:d6:53:c0:67:f3:d0:11:d6:55:7a:
                    81:c4:0c:1b:78:a0:e2:49:5e:e4:32:2c:5d:ef:57:
                    75:a3:60:23:7c:c8:f0:0e:ef:fe:df:67:1d:70:83:
                    b6:79:83:4a:56:b6:c5:78:0d:65:c8:4d:91:e8:dc:
                    a2:24:bd:19:18:34:c7:91:18:06:34:55:cb:e3:3c:
                    66:ec:36:12:16:af:10:34:66:80:cb:9d:31:1e:d0:
                    70:a8:ff:9e:d4:2c:78:6d:d1:23:81:74:d4:e4:c1:
                    ae:ce:8d:90:03:e8:82:dd:28:50:f6:07:0d:29:82:
                    cb:4e:eb:84:f3:02:03:56:76:93:91:d1:55:53:fb:
                    32:71:56:4d:a8:e3:af:d6:2b:70:e5:03:aa:78:fd:
                    4b:95
                Exponent: 65537 (0x10001)
        X509v3 extensions:
            X509v3 Basic Constraints: 
                CA:FALSE
            X509v3 Subject Key Identifier: 
                F1:09:8E:7D:5E:54:06:B6:C5:7C:EC:50:4A:07:C7:71:75:B5:59:FB
            X509v3 Authority Key Identifier: 
                keyid:1C:1F:8A:B3:A7:32:37:6A:40:93:A0:DC:01:BD:5E:5A:F1:04:63:8B
                DirName:/CN=team385-net
                serial:4C:60:CF:78:09:2E:0B:A9:CD:67:8F:6E:50:42:EE:CF:9A:B0:DE:0F

            X509v3 Extended Key Usage: 
                TLS Web Client Authentication
            X509v3 Key Usage: 
                Digital Signature
    Signature Algorithm: sha256WithRSAEncryption
         13:8b:b7:ae:75:76:ad:fe:bb:3f:05:5a:25:6f:e7:c4:e3:fb:
         b7:cb:b7:a1:d7:46:12:3b:95:44:ef:b8:e0:a1:1f:8d:0b:5a:
         e7:d2:ad:70:2a:6b:8c:c6:14:42:ff:ad:c9:19:26:20:aa:48:
         fe:24:06:60:eb:de:90:41:90:d8:64:2e:eb:e6:cc:be:b8:ce:
         ce:27:6d:c9:4e:53:12:e4:a7:5e:4f:57:a4:20:91:b1:07:db:
         de:5d:a5:2d:66:a9:05:62:97:d1:12:a3:5d:e4:8c:51:46:55:
         6c:12:ec:00:86:55:b0:f0:a4:be:89:39:6d:05:e1:3d:d2:24:
         ae:1c:c7:8f:4f:ea:e1:b0:77:4b:db:cc:e6:da:58:47:9c:f2:
         4f:22:d8:8e:20:6c:92:1a:62:c5:16:57:4e:ea:50:50:29:95:
         2d:1e:a8:77:71:78:8e:18:84:6d:b0:75:ed:32:ce:9b:ce:42:
         76:8b:df:b9:b3:b3:84:4b:fd:61:16:84:aa:e0:f4:60:1d:99:
         46:7a:8b:78:b3:71:b6:8a:13:82:96:69:0c:24:da:f4:2d:9c:
         ca:fc:47:19:34:20:95:e2:e7:16:2b:e9:35:4f:04:28:21:67:
         84:57:55:bd:fe:fd:32:21:8d:14:e4:63:02:19:07:46:bb:1c:
         0f:f0:46:d1
-----BEGIN CERTIFICATE-----
MIIDXTCCAkWgAwIBAgIRAJ67T6e2DetvWLdhAcwQF9swDQYJKoZIhvcNAQELBQAw
FjEUMBIGA1UEAwwLdGVhbTM4NS1uZXQwHhcNMjEwOTEzMDIxNTE0WhcNMjQwODI4
MDIxNTE0WjAZMRcwFQYDVQQDDA50ZWFtMzg1LWNsaWVudDCCASIwDQYJKoZIhvcN
AQEBBQADggEPADCCAQoCggEBALMCy87+cAth+fKnQU08KNGKy4zHg46H8RKCcc5u
HDIguSTUv/Or0ND3kFUGi+X+MQToF/1NP942gX5dJp4KIJQpqZVUGbgS581CJWlJ
DhJY1vOmwez/G2AuYvA34/ETU8StlmZpNUDt1iiP+4jWU8Bn89AR1lV6gcQMG3ig
4kle5DIsXe9XdaNgI3zI8A7v/t9nHXCDtnmDSla2xXgNZchNkejcoiS9GRg0x5EY
BjRVy+M8Zuw2EhavEDRmgMudMR7QcKj/ntQseG3RI4F01OTBrs6NkAPogt0oUPYH
DSmCy07rhPMCA1Z2k5HRVVP7MnFWTajjr9YrcOUDqnj9S5UCAwEAAaOBojCBnzAJ
BgNVHRMEAjAAMB0GA1UdDgQWBBTxCY59XlQGtsV87FBKB8dxdbVZ+zBRBgNVHSME
SjBIgBQcH4qzpzI3akCToNwBvV5a8QRji6EapBgwFjEUMBIGA1UEAwwLdGVhbTM4
NS1uZXSCFExgz3gJLgupzWePblBC7s+asN4PMBMGA1UdJQQMMAoGCCsGAQUFBwMC
MAsGA1UdDwQEAwIHgDANBgkqhkiG9w0BAQsFAAOCAQEAE4u3rnV2rf67PwVaJW/n
xOP7t8u3oddGEjuVRO+44KEfjQta59KtcCprjMYUQv+tyRkmIKpI/iQGYOvekEGQ
2GQu6+bMvrjOzidtyU5TEuSnXk9XpCCRsQfb3l2lLWapBWKX0RKjXeSMUUZVbBLs
AIZVsPCkvok5bQXhPdIkrhzHj0/q4bB3S9vM5tpYR5zyTyLYjiBskhpixRZXTupQ
UCmVLR6od3F4jhiEbbB17TLOm85CdovfubOzhEv9YRaEquD0YB2ZRnqLeLNxtooT
gpZpDCTa9C2cyvxHGTQgleLnFivpNU8EKCFnhFdVvf79MiGNFORjAhkHRrscD/BG
0Q==
-----END CERTIFICATE-----
