Certificate:
    Data:
        Version: 3 (0x2)
        Serial Number:
            e8:72:3c:59:c9:2d:aa:77:22:56:07:ad:17:d0:e5:4c
        Signature Algorithm: sha256WithRSAEncryption
        Issuer: CN=team653-net
        Validity
            Not Before: Sep 13 04:25:19 2021 GMT
            Not After : Aug 28 04:25:19 2024 GMT
        Subject: CN=team653-client
        Subject Public Key Info:
            Public Key Algorithm: rsaEncryption
                RSA Public-Key: (2048 bit)
                Modulus:
                    00:bf:e4:53:84:6f:ea:1e:70:9a:b5:95:ad:6d:2c:
                    2f:77:75:41:cf:b6:2b:ea:3e:46:42:9a:23:24:db:
                    cd:86:83:fe:cd:63:6e:c3:a0:57:0b:36:6d:a7:06:
                    ab:01:fb:da:6a:6a:67:9b:ba:8d:31:88:63:f3:bf:
                    21:7b:f7:0b:d9:f9:96:79:2a:ff:5f:94:d0:8f:9d:
                    b8:17:af:de:61:11:46:4c:28:57:02:ce:9c:d6:6a:
                    58:7a:b4:0a:f0:e4:26:28:3e:15:4e:76:d8:48:07:
                    2c:2c:02:bd:63:c2:9b:c5:df:f7:d5:8b:c9:22:8b:
                    1c:48:be:6f:12:c7:41:96:57:83:dd:fa:82:a5:2f:
                    16:7d:a1:8a:4d:4d:1f:a4:6b:4a:c1:c0:dc:4c:1a:
                    64:b7:db:bd:f6:b5:25:6f:47:dd:13:0f:e4:10:9e:
                    21:06:2a:63:d2:27:f7:b8:5d:91:d4:28:43:0d:f5:
                    78:81:f9:2c:c9:49:95:6a:81:87:59:1d:4d:ec:b9:
                    5a:96:d1:44:e1:08:14:d4:f3:b4:e2:75:35:98:a3:
                    b7:b8:bb:a8:22:50:5a:00:1b:94:9e:cb:f6:94:d7:
                    dc:8a:9c:3d:17:2b:c1:d8:8d:7e:31:2d:22:70:b8:
                    4d:5c:81:62:97:e1:55:08:5f:e5:90:0f:be:4f:3b:
                    43:d9
                Exponent: 65537 (0x10001)
        X509v3 extensions:
            X509v3 Basic Constraints: 
                CA:FALSE
            X509v3 Subject Key Identifier: 
                25:F6:11:7F:C6:67:BA:C5:83:D5:F2:86:B4:F4:88:A4:42:7A:7F:ED
            X509v3 Authority Key Identifier: 
                keyid:EC:CF:02:5C:AD:E2:52:F2:42:06:CE:9F:0E:FF:98:19:05:DB:EC:78
                DirName:/CN=team653-net
                serial:5C:82:A3:A0:7F:41:5C:9D:D6:99:D9:1A:3C:32:06:BC:01:B4:FD:89

            X509v3 Extended Key Usage: 
                TLS Web Client Authentication
            X509v3 Key Usage: 
                Digital Signature
    Signature Algorithm: sha256WithRSAEncryption
         b8:0d:31:f0:b8:3b:ef:18:f4:bc:70:23:0a:c6:c2:d8:82:23:
         98:27:1f:3a:f0:a8:59:1d:78:3a:71:02:0c:2b:fd:3b:0d:82:
         cd:28:7a:1f:1d:2b:54:61:03:54:9c:48:78:46:13:0b:25:8a:
         12:8e:d7:59:37:5a:b0:dc:90:76:73:05:cd:34:88:89:8f:34:
         af:46:ac:aa:bd:55:b0:a0:f5:8b:d3:c1:27:5e:39:99:75:27:
         6b:46:7e:99:1d:51:c6:d5:be:29:e6:98:5d:95:21:1b:54:20:
         30:ca:0d:1d:af:31:50:14:7f:fe:61:2f:58:3a:e3:30:e0:32:
         f6:c4:e2:bb:ee:46:4e:4d:70:22:4b:c2:a8:40:80:dd:42:d1:
         05:19:f1:f0:05:67:ab:83:75:ff:be:b7:53:3b:7f:29:f3:18:
         c4:18:4b:35:1e:e7:97:af:e0:78:2b:71:81:e5:e1:af:3f:8b:
         21:74:41:a9:84:ef:ce:79:0a:ce:f6:b3:e4:4c:ef:11:5a:ad:
         b2:c1:b2:ad:1e:5c:6f:01:94:32:5e:71:cb:1c:5f:de:d2:89:
         06:89:95:a1:f0:74:2d:ba:60:e1:21:7f:68:97:8e:fd:06:a4:
         ac:b2:e1:f3:b2:15:7a:95:11:14:54:7b:20:09:34:0d:5a:28:
         78:8d:72:c6
-----BEGIN CERTIFICATE-----
MIIDXTCCAkWgAwIBAgIRAOhyPFnJLap3IlYHrRfQ5UwwDQYJKoZIhvcNAQELBQAw
FjEUMBIGA1UEAwwLdGVhbTY1My1uZXQwHhcNMjEwOTEzMDQyNTE5WhcNMjQwODI4
MDQyNTE5WjAZMRcwFQYDVQQDDA50ZWFtNjUzLWNsaWVudDCCASIwDQYJKoZIhvcN
AQEBBQADggEPADCCAQoCggEBAL/kU4Rv6h5wmrWVrW0sL3d1Qc+2K+o+RkKaIyTb
zYaD/s1jbsOgVws2bacGqwH72mpqZ5u6jTGIY/O/IXv3C9n5lnkq/1+U0I+duBev
3mERRkwoVwLOnNZqWHq0CvDkJig+FU522EgHLCwCvWPCm8Xf99WLySKLHEi+bxLH
QZZXg936gqUvFn2hik1NH6RrSsHA3EwaZLfbvfa1JW9H3RMP5BCeIQYqY9In97hd
kdQoQw31eIH5LMlJlWqBh1kdTey5WpbRROEIFNTztOJ1NZijt7i7qCJQWgAblJ7L
9pTX3IqcPRcrwdiNfjEtInC4TVyBYpfhVQhf5ZAPvk87Q9kCAwEAAaOBojCBnzAJ
BgNVHRMEAjAAMB0GA1UdDgQWBBQl9hF/xme6xYPV8oa09IikQnp/7TBRBgNVHSME
SjBIgBTszwJcreJS8kIGzp8O/5gZBdvseKEapBgwFjEUMBIGA1UEAwwLdGVhbTY1
My1uZXSCFFyCo6B/QVyd1pnZGjwyBrwBtP2JMBMGA1UdJQQMMAoGCCsGAQUFBwMC
MAsGA1UdDwQEAwIHgDANBgkqhkiG9w0BAQsFAAOCAQEAuA0x8Lg77xj0vHAjCsbC
2IIjmCcfOvCoWR14OnECDCv9Ow2CzSh6Hx0rVGEDVJxIeEYTCyWKEo7XWTdasNyQ
dnMFzTSIiY80r0asqr1VsKD1i9PBJ145mXUna0Z+mR1RxtW+KeaYXZUhG1QgMMoN
Ha8xUBR//mEvWDrjMOAy9sTiu+5GTk1wIkvCqECA3ULRBRnx8AVnq4N1/763Uzt/
KfMYxBhLNR7nl6/geCtxgeXhrz+LIXRBqYTvznkKzvaz5EzvEVqtssGyrR5cbwGU
Ml5xyxxf3tKJBomVofB0Lbpg4SF/aJeO/QakrLLh87IVepURFFR7IAk0DVooeI1y
xg==
-----END CERTIFICATE-----
