Certificate:
    Data:
        Version: 3 (0x2)
        Serial Number:
            19:8a:cf:d4:30:86:fc:a9:12:60:cb:93:df:b1:43:8d
        Signature Algorithm: sha256WithRSAEncryption
        Issuer: CN=team583-net
        Validity
            Not Before: Sep 13 04:05:03 2021 GMT
            Not After : Aug 28 04:05:03 2024 GMT
        Subject: CN=team583-client
        Subject Public Key Info:
            Public Key Algorithm: rsaEncryption
                RSA Public-Key: (2048 bit)
                Modulus:
                    00:a0:71:05:a3:13:33:c7:e9:b6:02:77:cb:d3:8e:
                    ce:84:b4:b9:41:92:f4:0c:22:9c:b2:0d:74:12:dd:
                    da:42:46:3b:3a:c6:23:aa:1c:91:97:3d:44:ce:72:
                    7e:38:78:10:8f:b9:62:4e:99:30:be:ab:f8:c0:ab:
                    3a:7e:5a:21:88:0c:55:c4:b8:d8:c7:ab:d3:a7:e0:
                    54:89:1c:1d:8c:3b:58:b4:26:fe:16:1f:99:e1:05:
                    8f:45:24:cd:c3:98:bb:b3:62:39:d2:e1:d2:de:fc:
                    2e:e5:c5:23:af:1e:58:e6:c0:4d:0b:5e:ca:28:dd:
                    a9:61:9d:71:0e:0b:19:4d:a7:0a:a7:b2:c2:0a:78:
                    a6:37:dd:76:c8:a5:5f:50:47:98:5d:80:c5:e4:7a:
                    9c:c1:d5:fc:56:35:bc:ed:47:63:0c:74:06:94:8d:
                    d9:5b:1a:cd:1f:b6:8c:c1:b7:98:56:b6:2d:82:9e:
                    5f:f2:e4:7a:37:23:ce:92:ea:a8:c0:46:fa:9e:c9:
                    b0:4b:73:5f:88:12:a9:b3:d4:af:62:56:d3:ab:35:
                    3d:30:be:28:de:f4:f1:5b:d2:7f:1e:80:5c:51:67:
                    a9:1f:aa:35:7c:80:40:f8:5a:3c:a5:6e:07:fb:05:
                    11:a2:f0:0b:67:67:5f:cd:03:01:f5:8f:88:76:95:
                    3a:77
                Exponent: 65537 (0x10001)
        X509v3 extensions:
            X509v3 Basic Constraints: 
                CA:FALSE
            X509v3 Subject Key Identifier: 
                8D:3D:5C:39:A7:7E:27:08:EB:4B:34:C6:6E:CE:8A:9D:EA:0D:2A:85
            X509v3 Authority Key Identifier: 
                keyid:E7:80:57:FC:FD:97:47:91:E8:2B:91:E7:ED:0A:63:97:29:0F:BE:26
                DirName:/CN=team583-net
                serial:66:3E:39:C3:0A:37:CC:34:A3:20:7D:69:56:9E:DB:72:21:D5:B9:01

            X509v3 Extended Key Usage: 
                TLS Web Client Authentication
            X509v3 Key Usage: 
                Digital Signature
    Signature Algorithm: sha256WithRSAEncryption
         1d:9a:6a:53:b8:2f:b2:04:51:8b:c8:a6:48:65:20:cf:40:f0:
         80:20:f9:49:6d:42:9b:f8:f0:17:96:fe:62:94:51:8e:8e:51:
         3e:89:7b:02:e8:a0:c5:33:c9:80:f3:2d:35:f7:0a:7f:0b:08:
         ee:51:00:9b:77:11:f9:3a:c0:cd:70:cb:1c:6a:e5:f2:ca:29:
         10:07:8c:9e:f1:a1:36:45:ae:d0:2c:18:23:2e:61:88:d3:e2:
         b2:ba:42:75:82:82:f8:91:f2:5d:2c:e6:52:ae:a3:a3:c9:9f:
         c6:d5:52:32:6b:84:6e:ca:62:a1:f7:f3:19:7d:8e:4b:38:73:
         e4:8d:0b:4e:49:39:91:92:7d:b8:42:eb:de:36:18:d3:09:e0:
         79:04:d0:2e:af:4c:36:cc:27:f7:97:78:33:c6:5f:0e:3a:29:
         14:c2:ac:3b:4e:d1:ab:74:c3:30:0b:6c:2e:81:aa:bd:36:ef:
         28:ca:c5:fc:8d:29:eb:37:21:9a:29:2e:c9:7b:66:bf:4e:ef:
         58:d4:f3:6c:59:30:74:4a:f9:c9:88:55:0e:d0:8b:ef:98:79:
         f6:db:34:d1:ef:b1:19:0d:23:4c:7f:64:fa:ec:05:71:14:ff:
         f6:6e:a8:9e:06:4e:50:78:a4:61:94:7c:16:e5:75:84:43:8d:
         f0:0b:3f:d1
-----BEGIN CERTIFICATE-----
MIIDXDCCAkSgAwIBAgIQGYrP1DCG/KkSYMuT37FDjTANBgkqhkiG9w0BAQsFADAW
MRQwEgYDVQQDDAt0ZWFtNTgzLW5ldDAeFw0yMTA5MTMwNDA1MDNaFw0yNDA4Mjgw
NDA1MDNaMBkxFzAVBgNVBAMMDnRlYW01ODMtY2xpZW50MIIBIjANBgkqhkiG9w0B
AQEFAAOCAQ8AMIIBCgKCAQEAoHEFoxMzx+m2AnfL047OhLS5QZL0DCKcsg10Et3a
QkY7OsYjqhyRlz1EznJ+OHgQj7liTpkwvqv4wKs6flohiAxVxLjYx6vTp+BUiRwd
jDtYtCb+Fh+Z4QWPRSTNw5i7s2I50uHS3vwu5cUjrx5Y5sBNC17KKN2pYZ1xDgsZ
TacKp7LCCnimN912yKVfUEeYXYDF5HqcwdX8VjW87UdjDHQGlI3ZWxrNH7aMwbeY
VrYtgp5f8uR6NyPOkuqowEb6nsmwS3NfiBKps9SvYlbTqzU9ML4o3vTxW9J/HoBc
UWepH6o1fIBA+Fo8pW4H+wURovALZ2dfzQMB9Y+IdpU6dwIDAQABo4GiMIGfMAkG
A1UdEwQCMAAwHQYDVR0OBBYEFI09XDmnficI60s0xm7Oip3qDSqFMFEGA1UdIwRK
MEiAFOeAV/z9l0eR6CuR5+0KY5cpD74moRqkGDAWMRQwEgYDVQQDDAt0ZWFtNTgz
LW5ldIIUZj45wwo3zDSjIH1pVp7bciHVuQEwEwYDVR0lBAwwCgYIKwYBBQUHAwIw
CwYDVR0PBAQDAgeAMA0GCSqGSIb3DQEBCwUAA4IBAQAdmmpTuC+yBFGLyKZIZSDP
QPCAIPlJbUKb+PAXlv5ilFGOjlE+iXsC6KDFM8mA8y019wp/CwjuUQCbdxH5OsDN
cMscauXyyikQB4ye8aE2Ra7QLBgjLmGI0+KyukJ1goL4kfJdLOZSrqOjyZ/G1VIy
a4RuymKh9/MZfY5LOHPkjQtOSTmRkn24QuveNhjTCeB5BNAur0w2zCf3l3gzxl8O
OikUwqw7TtGrdMMwC2wugaq9Nu8oysX8jSnrNyGaKS7Je2a/Tu9Y1PNsWTB0SvnJ
iFUO0IvvmHn22zTR77EZDSNMf2T67AVxFP/2bqieBk5QeKRhlHwW5XWEQ43wCz/R
-----END CERTIFICATE-----
