Certificate:
    Data:
        Version: 3 (0x2)
        Serial Number:
            6b:09:aa:a9:07:9f:72:d1:a1:5d:50:a1:13:49:8a:bb
        Signature Algorithm: sha256WithRSAEncryption
        Issuer: CN=team24-net
        Validity
            Not Before: Sep 12 22:52:42 2021 GMT
            Not After : Aug 27 22:52:42 2024 GMT
        Subject: CN=team24-client
        Subject Public Key Info:
            Public Key Algorithm: rsaEncryption
                RSA Public-Key: (2048 bit)
                Modulus:
                    00:df:d1:75:77:14:67:d9:e6:75:e2:a7:1a:0b:46:
                    03:b3:95:81:56:80:df:94:a5:2f:d5:1c:6f:2c:09:
                    fd:f1:4f:23:02:1a:ea:65:bf:3a:aa:02:7d:e0:f0:
                    a5:84:c5:de:30:c6:cc:d7:b3:40:cb:95:03:60:7f:
                    8f:ac:39:80:55:38:15:b7:17:ae:16:25:f6:16:cb:
                    e8:60:3f:ac:8b:c5:76:2a:b1:09:07:be:0f:6a:c7:
                    a4:38:83:97:32:24:98:eb:4b:46:ca:86:ec:e4:a7:
                    35:35:a8:ad:73:e2:54:b8:c0:a6:4e:c2:a8:75:92:
                    55:47:b2:e5:2a:af:88:2b:02:d4:f6:5f:c8:f5:16:
                    d2:bc:80:e7:f0:d0:e7:48:50:af:c7:5f:10:15:55:
                    b2:1c:8a:38:14:c5:e5:f4:f2:9e:a0:f0:f5:0b:5c:
                    7f:8a:9a:c1:99:98:87:c5:5f:96:d8:4d:19:da:eb:
                    01:80:9a:90:36:c0:0b:c9:27:58:ca:bb:c6:83:f2:
                    41:ca:df:86:5f:fd:5f:c9:42:ce:34:0f:97:ea:5b:
                    db:fe:74:3d:ce:2e:af:48:3d:a1:77:b7:8d:38:ba:
                    a5:65:73:fb:46:96:9a:f5:b9:d8:6e:03:43:b8:f6:
                    4e:d5:42:1b:bf:63:b0:b4:77:70:2a:1c:b9:a8:eb:
                    83:19
                Exponent: 65537 (0x10001)
        X509v3 extensions:
            X509v3 Basic Constraints: 
                CA:FALSE
            X509v3 Subject Key Identifier: 
                58:4A:08:74:13:FD:69:A0:20:AB:5C:F6:18:14:B8:27:C3:95:E5:5C
            X509v3 Authority Key Identifier: 
                keyid:ED:8C:D7:9C:78:D6:63:A7:E9:15:35:6D:25:12:EB:D2:38:FF:A4:AF
                DirName:/CN=team24-net
                serial:13:3B:A2:26:7D:52:B5:C8:44:82:37:B9:9B:44:89:CF:45:D6:CF:97

            X509v3 Extended Key Usage: 
                TLS Web Client Authentication
            X509v3 Key Usage: 
                Digital Signature
    Signature Algorithm: sha256WithRSAEncryption
         ad:cc:15:48:10:38:b1:04:b6:df:5c:45:1c:5f:8f:16:67:7f:
         db:a5:38:88:c2:42:02:eb:f3:07:51:5f:26:9b:e1:7c:d9:82:
         40:2a:cd:4f:25:67:1c:26:a3:89:dc:ef:4a:8c:05:e9:8c:ca:
         2c:b3:23:4b:6e:33:18:ee:07:1f:98:68:e5:90:4e:66:dd:f6:
         70:f4:36:d8:93:3f:99:7e:6d:00:52:1a:78:ff:43:1e:2c:bd:
         80:46:65:1f:d3:f6:7b:6f:04:f5:11:8a:ce:94:30:5d:f8:78:
         3c:c0:a0:5c:b8:0e:b2:1e:17:fb:45:55:72:5d:2b:ac:98:ca:
         98:79:4a:d2:d4:e9:7e:c6:69:d4:aa:aa:26:83:0e:89:0b:9e:
         30:47:b0:a9:bc:4f:a7:dd:4e:1d:0f:47:45:eb:64:bb:27:5d:
         17:30:6f:7c:21:83:bb:03:ec:98:00:04:6f:f8:1c:aa:da:db:
         f7:e6:da:01:b8:61:84:43:bb:45:7f:3b:7c:51:c2:b9:46:ed:
         cc:34:25:23:c7:c5:53:ce:e1:4c:62:d1:26:57:5e:74:21:28:
         fa:95:c3:06:19:74:f6:2c:2e:fb:8a:05:0c:49:9e:b1:09:1c:
         c4:5a:51:1c:1b:cf:dd:d1:1f:9c:d4:38:79:20:d1:b2:69:51:
         a3:f6:2b:b2
-----BEGIN CERTIFICATE-----
MIIDWTCCAkGgAwIBAgIQawmqqQefctGhXVChE0mKuzANBgkqhkiG9w0BAQsFADAV
MRMwEQYDVQQDDAp0ZWFtMjQtbmV0MB4XDTIxMDkxMjIyNTI0MloXDTI0MDgyNzIy
NTI0MlowGDEWMBQGA1UEAwwNdGVhbTI0LWNsaWVudDCCASIwDQYJKoZIhvcNAQEB
BQADggEPADCCAQoCggEBAN/RdXcUZ9nmdeKnGgtGA7OVgVaA35SlL9UcbywJ/fFP
IwIa6mW/OqoCfeDwpYTF3jDGzNezQMuVA2B/j6w5gFU4FbcXrhYl9hbL6GA/rIvF
diqxCQe+D2rHpDiDlzIkmOtLRsqG7OSnNTWorXPiVLjApk7CqHWSVUey5SqviCsC
1PZfyPUW0ryA5/DQ50hQr8dfEBVVshyKOBTF5fTynqDw9Qtcf4qawZmYh8VflthN
GdrrAYCakDbAC8knWMq7xoPyQcrfhl/9X8lCzjQPl+pb2/50Pc4ur0g9oXe3jTi6
pWVz+0aWmvW52G4DQ7j2TtVCG79jsLR3cCocuajrgxkCAwEAAaOBoTCBnjAJBgNV
HRMEAjAAMB0GA1UdDgQWBBRYSgh0E/1poCCrXPYYFLgnw5XlXDBQBgNVHSMESTBH
gBTtjNeceNZjp+kVNW0lEuvSOP+kr6EZpBcwFTETMBEGA1UEAwwKdGVhbTI0LW5l
dIIUEzuiJn1StchEgje5m0SJz0XWz5cwEwYDVR0lBAwwCgYIKwYBBQUHAwIwCwYD
VR0PBAQDAgeAMA0GCSqGSIb3DQEBCwUAA4IBAQCtzBVIEDixBLbfXEUcX48WZ3/b
pTiIwkIC6/MHUV8mm+F82YJAKs1PJWccJqOJ3O9KjAXpjMossyNLbjMY7gcfmGjl
kE5m3fZw9DbYkz+Zfm0AUhp4/0MeLL2ARmUf0/Z7bwT1EYrOlDBd+Hg8wKBcuA6y
Hhf7RVVyXSusmMqYeUrS1Ol+xmnUqqomgw6JC54wR7CpvE+n3U4dD0dF62S7J10X
MG98IYO7A+yYAARv+Byq2tv35toBuGGEQ7tFfzt8UcK5Ru3MNCUjx8VTzuFMYtEm
V150ISj6lcMGGXT2LC77igUMSZ6xCRzEWlEcG8/d0R+c1Dh5INGyaVGj9iuy
-----END CERTIFICATE-----
