Certificate:
    Data:
        Version: 3 (0x2)
        Serial Number:
            49:c1:e1:2d:8c:17:ff:95:c4:2f:44:5d:eb:39:4e:7e
        Signature Algorithm: sha256WithRSAEncryption
        Issuer: CN=team13-net
        Validity
            Not Before: Sep 12 22:48:47 2021 GMT
            Not After : Aug 27 22:48:47 2024 GMT
        Subject: CN=team13-client
        Subject Public Key Info:
            Public Key Algorithm: rsaEncryption
                RSA Public-Key: (2048 bit)
                Modulus:
                    00:93:67:8a:89:3d:a5:a6:ea:90:b6:b0:f9:6d:11:
                    e6:c2:81:e4:ba:2e:b2:28:fa:be:c9:0b:ed:1f:cb:
                    11:d4:8d:af:4c:51:0d:f8:4f:08:f5:1d:df:ea:8d:
                    92:54:d1:a6:cf:5e:14:da:24:28:f1:3d:f0:59:15:
                    d6:4f:3b:71:ca:d1:01:1e:4c:bb:ca:1a:93:39:9a:
                    c3:43:47:99:cf:7e:03:d5:7c:30:d3:a6:37:b0:46:
                    fb:a5:a8:98:ae:b5:7f:a3:9f:49:65:4d:d1:18:68:
                    dc:6d:51:41:1b:4e:50:df:6b:a0:47:cb:40:f7:2d:
                    ca:f2:0d:8e:c9:bc:62:02:18:b3:c6:e2:d1:ad:7e:
                    28:ac:9a:e4:d1:ed:f6:0b:e4:b9:ee:cb:e4:6a:14:
                    1b:85:fb:b3:35:77:7a:6d:d5:9b:72:d7:ba:3c:d6:
                    7e:e0:25:fb:49:e2:ea:5e:d5:12:3c:6c:f6:dc:b4:
                    52:90:fb:08:6b:17:00:09:15:e3:5a:0c:6f:67:a9:
                    b4:36:26:1d:64:80:09:97:24:92:28:be:8c:2c:ff:
                    37:ca:c0:56:4b:3d:c2:9b:66:e2:11:68:7f:19:99:
                    17:d2:6f:5c:99:1d:25:e6:86:be:99:4a:f6:43:24:
                    5f:0c:ec:04:91:29:8d:ed:cd:cf:5b:04:a1:06:14:
                    de:fd
                Exponent: 65537 (0x10001)
        X509v3 extensions:
            X509v3 Basic Constraints: 
                CA:FALSE
            X509v3 Subject Key Identifier: 
                1D:51:82:B8:92:ED:A2:24:A0:15:F7:DB:70:38:99:89:2E:C8:7C:10
            X509v3 Authority Key Identifier: 
                keyid:DE:3C:CE:FC:18:FD:27:93:FC:97:B6:3F:6C:CD:B7:AD:56:B7:05:9F
                DirName:/CN=team13-net
                serial:57:97:81:10:08:A0:0F:C1:0B:28:D6:47:68:B3:6B:D8:71:4B:6C:0D

            X509v3 Extended Key Usage: 
                TLS Web Client Authentication
            X509v3 Key Usage: 
                Digital Signature
    Signature Algorithm: sha256WithRSAEncryption
         1a:de:97:29:6e:54:66:14:bd:fc:8e:43:11:b7:e4:f4:87:34:
         36:11:38:28:dc:aa:ca:89:77:72:c9:a1:9a:6d:57:7b:14:35:
         94:d6:9c:b0:ec:55:5b:3d:d9:d7:c1:9a:cd:45:dc:f8:31:41:
         4a:6e:42:0f:a4:56:21:26:9e:b2:ee:73:ef:67:74:57:1b:de:
         65:cf:23:39:73:5c:78:6e:3d:52:b4:37:4c:8a:8c:f1:43:9c:
         e0:b0:f4:54:10:ca:19:98:3c:f2:0e:57:bb:20:2c:42:65:0d:
         a1:2d:0e:1b:47:51:b2:77:73:92:ae:fd:b1:66:2f:b2:90:ea:
         ae:a5:3a:c7:bf:1e:d9:98:7f:43:9a:a6:77:8a:67:7f:b7:72:
         d9:dd:41:42:3a:db:57:3b:e6:92:a8:79:a6:84:74:3f:11:18:
         d8:b9:b1:d0:8e:40:7f:2c:d7:47:4c:71:3c:f7:17:47:ff:52:
         9d:bd:70:d0:55:d5:71:b9:61:09:16:a4:60:cb:84:c5:66:f1:
         73:60:73:42:fd:38:14:cc:00:27:cf:50:4b:be:fd:f1:8e:c3:
         8d:cf:45:63:f2:1f:a6:a4:40:72:64:38:ef:bc:42:e1:24:57:
         72:1b:4c:87:21:ac:05:6e:67:f9:86:51:34:b5:96:b2:c0:ce:
         5b:dd:01:b6
-----BEGIN CERTIFICATE-----
MIIDWTCCAkGgAwIBAgIQScHhLYwX/5XEL0Rd6zlOfjANBgkqhkiG9w0BAQsFADAV
MRMwEQYDVQQDDAp0ZWFtMTMtbmV0MB4XDTIxMDkxMjIyNDg0N1oXDTI0MDgyNzIy
NDg0N1owGDEWMBQGA1UEAwwNdGVhbTEzLWNsaWVudDCCASIwDQYJKoZIhvcNAQEB
BQADggEPADCCAQoCggEBAJNniok9pabqkLaw+W0R5sKB5Lousij6vskL7R/LEdSN
r0xRDfhPCPUd3+qNklTRps9eFNokKPE98FkV1k87ccrRAR5Mu8oakzmaw0NHmc9+
A9V8MNOmN7BG+6WomK61f6OfSWVN0Rho3G1RQRtOUN9roEfLQPctyvINjsm8YgIY
s8bi0a1+KKya5NHt9gvkue7L5GoUG4X7szV3em3Vm3LXujzWfuAl+0ni6l7VEjxs
9ty0UpD7CGsXAAkV41oMb2eptDYmHWSACZckkii+jCz/N8rAVks9wptm4hFofxmZ
F9JvXJkdJeaGvplK9kMkXwzsBJEpje3Nz1sEoQYU3v0CAwEAAaOBoTCBnjAJBgNV
HRMEAjAAMB0GA1UdDgQWBBQdUYK4ku2iJKAV99twOJmJLsh8EDBQBgNVHSMESTBH
gBTePM78GP0nk/yXtj9szbetVrcFn6EZpBcwFTETMBEGA1UEAwwKdGVhbTEzLW5l
dIIUV5eBEAigD8ELKNZHaLNr2HFLbA0wEwYDVR0lBAwwCgYIKwYBBQUHAwIwCwYD
VR0PBAQDAgeAMA0GCSqGSIb3DQEBCwUAA4IBAQAa3pcpblRmFL38jkMRt+T0hzQ2
ETgo3KrKiXdyyaGabVd7FDWU1pyw7FVbPdnXwZrNRdz4MUFKbkIPpFYhJp6y7nPv
Z3RXG95lzyM5c1x4bj1StDdMiozxQ5zgsPRUEMoZmDzyDle7ICxCZQ2hLQ4bR1Gy
d3OSrv2xZi+ykOqupTrHvx7ZmH9DmqZ3imd/t3LZ3UFCOttXO+aSqHmmhHQ/ERjY
ubHQjkB/LNdHTHE89xdH/1KdvXDQVdVxuWEJFqRgy4TFZvFzYHNC/TgUzAAnz1BL
vv3xjsONz0Vj8h+mpEByZDjvvELhJFdyG0yHIawFbmf5hlE0tZaywM5b3QG2
-----END CERTIFICATE-----
