Certificate:
    Data:
        Version: 3 (0x2)
        Serial Number:
            a8:54:8f:9f:03:e5:5b:73:df:7d:30:14:e2:17:de:0b
        Signature Algorithm: sha256WithRSAEncryption
        Issuer: CN=team203-net
        Validity
            Not Before: Sep 13 00:38:00 2021 GMT
            Not After : Aug 28 00:38:00 2024 GMT
        Subject: CN=team203-server
        Subject Public Key Info:
            Public Key Algorithm: rsaEncryption
                RSA Public-Key: (2048 bit)
                Modulus:
                    00:ab:fa:df:e7:67:88:ac:88:c5:13:83:6b:4f:1e:
                    62:bf:d5:8d:ed:54:ad:85:29:02:70:c5:4d:af:4a:
                    da:57:17:34:92:18:7a:f7:c0:7d:0e:6e:d3:cb:fc:
                    55:fa:a8:f8:0b:72:6b:7b:9a:25:67:ee:08:73:e1:
                    59:84:50:bc:89:62:39:e6:a2:23:02:c7:44:bc:9d:
                    6f:a0:5e:f6:ed:5a:b4:a9:d4:cc:14:c1:06:d8:67:
                    7f:e2:58:94:31:dd:22:ed:8a:29:f5:92:da:4b:38:
                    50:bf:9d:e7:3d:7c:fe:eb:43:aa:63:e7:34:27:21:
                    d8:92:96:1e:38:d9:c0:77:41:e6:bc:a1:78:2f:a8:
                    31:c1:2a:1f:a6:76:9c:c4:3b:64:d5:ff:54:1d:f1:
                    14:86:bb:09:64:62:16:c7:d7:0d:bd:3e:9a:73:43:
                    8c:5e:0b:f5:68:ba:b2:17:fe:19:e6:7f:bb:2a:19:
                    c4:e6:72:40:b8:18:7b:d9:d0:89:34:38:e4:2f:3b:
                    77:bb:8b:db:16:85:24:83:35:79:19:07:fd:7d:b0:
                    db:86:39:36:cd:e0:bd:e3:3e:e5:bd:5b:31:fe:cd:
                    4f:08:2f:44:fd:40:c4:7d:33:09:72:d3:bd:17:94:
                    ca:80:b5:30:9e:75:ac:71:77:cf:d0:6d:90:d3:e8:
                    89:a1
                Exponent: 65537 (0x10001)
        X509v3 extensions:
            X509v3 Basic Constraints: 
                CA:FALSE
            X509v3 Subject Key Identifier: 
                BC:69:8E:E6:97:70:8A:38:10:21:1F:8B:7E:68:BA:D9:8B:11:60:14
            X509v3 Authority Key Identifier: 
                keyid:3C:3D:78:44:B4:44:B6:71:E1:41:A8:7B:63:09:10:17:E0:1E:3A:01
                DirName:/CN=team203-net
                serial:09:06:B8:50:E3:9C:2A:BF:A7:B1:13:CF:AA:5D:38:FB:E9:62:50:FF

            X509v3 Extended Key Usage: 
                TLS Web Server Authentication
            X509v3 Key Usage: 
                Digital Signature, Key Encipherment
            X509v3 Subject Alternative Name: 
                DNS:team203-server
    Signature Algorithm: sha256WithRSAEncryption
         30:0b:3f:db:70:07:d1:cf:c8:c8:67:e1:5f:f5:86:c8:8c:2d:
         e6:61:87:29:c7:09:84:62:b8:b6:1c:7c:e6:c4:61:10:90:b7:
         69:6f:0f:ea:99:f4:d3:73:ce:ef:79:fc:55:1a:02:d3:21:27:
         b9:fb:e2:49:a6:cf:7a:77:ad:05:54:3a:25:9e:cb:f9:ec:ab:
         21:c6:61:2b:fc:68:72:12:ac:df:b8:49:0b:34:f8:e2:41:9f:
         a2:64:8a:d1:d1:bf:c4:a6:70:45:2a:22:f2:16:84:92:83:bd:
         e5:e6:bb:3e:bd:41:71:e4:60:97:62:02:fb:4c:af:ab:c6:4c:
         41:e2:97:07:c0:66:77:98:05:94:f5:a5:69:91:19:80:bf:ac:
         29:2f:a0:c4:3c:a4:cc:ef:21:62:44:c3:73:34:02:98:37:2e:
         96:61:e5:79:18:df:e2:51:06:ba:57:01:9e:05:3c:09:7c:72:
         56:9a:36:55:13:56:a4:4f:2d:47:db:41:e1:e6:8f:81:a4:e4:
         2b:46:43:f1:d2:33:35:c6:9e:ee:77:53:b7:6b:0f:32:86:35:
         c0:e3:74:b2:7a:6c:f9:4d:bb:e1:c9:72:1e:4f:52:17:88:7c:
         ed:4f:8c:e6:99:29:ed:ee:2a:a2:9e:ec:7e:4c:e5:eb:3d:8d:
         57:18:41:42
-----BEGIN CERTIFICATE-----
MIIDeDCCAmCgAwIBAgIRAKhUj58D5Vtz330wFOIX3gswDQYJKoZIhvcNAQELBQAw
FjEUMBIGA1UEAwwLdGVhbTIwMy1uZXQwHhcNMjEwOTEzMDAzODAwWhcNMjQwODI4
MDAzODAwWjAZMRcwFQYDVQQDDA50ZWFtMjAzLXNlcnZlcjCCASIwDQYJKoZIhvcN
AQEBBQADggEPADCCAQoCggEBAKv63+dniKyIxRODa08eYr/Vje1UrYUpAnDFTa9K
2lcXNJIYevfAfQ5u08v8Vfqo+Atya3uaJWfuCHPhWYRQvIliOeaiIwLHRLydb6Be
9u1atKnUzBTBBthnf+JYlDHdIu2KKfWS2ks4UL+d5z18/utDqmPnNCch2JKWHjjZ
wHdB5ryheC+oMcEqH6Z2nMQ7ZNX/VB3xFIa7CWRiFsfXDb0+mnNDjF4L9Wi6shf+
GeZ/uyoZxOZyQLgYe9nQiTQ45C87d7uL2xaFJIM1eRkH/X2w24Y5Ns3gveM+5b1b
Mf7NTwgvRP1AxH0zCXLTvReUyoC1MJ51rHF3z9BtkNPoiaECAwEAAaOBvTCBujAJ
BgNVHRMEAjAAMB0GA1UdDgQWBBS8aY7ml3CKOBAhH4t+aLrZixFgFDBRBgNVHSME
SjBIgBQ8PXhEtES2ceFBqHtjCRAX4B46AaEapBgwFjEUMBIGA1UEAwwLdGVhbTIw
My1uZXSCFAkGuFDjnCq/p7ETz6pdOPvpYlD/MBMGA1UdJQQMMAoGCCsGAQUFBwMB
MAsGA1UdDwQEAwIFoDAZBgNVHREEEjAQgg50ZWFtMjAzLXNlcnZlcjANBgkqhkiG
9w0BAQsFAAOCAQEAMAs/23AH0c/IyGfhX/WGyIwt5mGHKccJhGK4thx85sRhEJC3
aW8P6pn003PO73n8VRoC0yEnufviSabPenetBVQ6JZ7L+eyrIcZhK/xochKs37hJ
CzT44kGfomSK0dG/xKZwRSoi8haEkoO95ea7Pr1BceRgl2IC+0yvq8ZMQeKXB8Bm
d5gFlPWlaZEZgL+sKS+gxDykzO8hYkTDczQCmDculmHleRjf4lEGulcBngU8CXxy
Vpo2VRNWpE8tR9tB4eaPgaTkK0ZD8dIzNcae7ndTt2sPMoY1wON0snps+U274cly
Hk9SF4h87U+M5pkp7e4qop7sfkzl6z2NVxhBQg==
-----END CERTIFICATE-----
