Certificate:
    Data:
        Version: 3 (0x2)
        Serial Number:
            4b:9c:10:10:4a:f5:2f:cc:ca:28:2c:0e:53:b7:31:ee
        Signature Algorithm: sha256WithRSAEncryption
        Issuer: CN=team36-net
        Validity
            Not Before: Sep 12 23:02:38 2021 GMT
            Not After : Aug 27 23:02:38 2024 GMT
        Subject: CN=team36-server
        Subject Public Key Info:
            Public Key Algorithm: rsaEncryption
                RSA Public-Key: (2048 bit)
                Modulus:
                    00:dd:2a:a1:f2:c3:27:e7:cb:7d:3c:b5:ff:02:28:
                    44:7f:f5:17:fa:f7:e1:32:e2:45:b7:ec:ab:c5:2c:
                    8c:db:a3:4a:5c:df:72:dd:22:a5:4e:38:a1:58:04:
                    f8:df:0c:34:fa:8e:6a:05:56:1e:92:c1:40:2c:68:
                    f4:8e:0a:9a:6b:ad:f1:df:ca:be:51:bf:84:8c:c1:
                    cc:00:4b:f6:e8:f2:84:b0:ab:4f:c6:dd:85:f6:f3:
                    6c:a1:e9:ea:11:b7:ae:ab:85:d5:f5:b5:54:12:be:
                    85:70:1d:bb:d4:fd:16:9b:76:c5:52:dc:59:5d:bf:
                    0d:6e:9b:1d:3b:4f:6f:e2:97:6c:dd:b9:7a:a1:ac:
                    de:3c:93:91:3d:b3:a8:ed:1a:9d:eb:de:dc:8f:3c:
                    c9:d2:5e:ae:fb:f4:0b:75:6a:99:7f:02:05:3d:ff:
                    7e:bd:cb:24:c2:38:ca:9e:e6:6a:b3:f4:f4:58:fe:
                    76:c3:76:fe:5f:ab:4c:63:c2:d7:4c:2b:75:11:21:
                    4c:ce:47:31:f3:ed:ec:e0:9e:18:db:24:1f:01:d9:
                    79:0e:97:68:22:18:7e:a9:c1:9a:78:9d:fe:6d:58:
                    c8:b4:19:eb:3a:61:3a:8e:c1:19:82:0d:d2:1b:9c:
                    d5:1c:51:5d:e5:f0:f8:70:78:9e:5c:84:96:55:b1:
                    e8:09
                Exponent: 65537 (0x10001)
        X509v3 extensions:
            X509v3 Basic Constraints: 
                CA:FALSE
            X509v3 Subject Key Identifier: 
                8E:F5:99:97:A3:D8:1E:30:5F:BA:65:38:35:06:A6:91:4A:C3:71:4D
            X509v3 Authority Key Identifier: 
                keyid:2D:EC:81:00:83:8F:E0:7A:13:81:BB:BD:96:FC:B1:68:AA:0B:15:1A
                DirName:/CN=team36-net
                serial:56:19:3F:EA:5A:88:8F:2A:8F:BA:03:D2:E2:CC:2A:18:94:51:BF:CC

            X509v3 Extended Key Usage: 
                TLS Web Server Authentication
            X509v3 Key Usage: 
                Digital Signature, Key Encipherment
            X509v3 Subject Alternative Name: 
                DNS:team36-server
    Signature Algorithm: sha256WithRSAEncryption
         1b:38:3b:60:2c:41:89:b2:5c:45:62:d3:7e:e3:67:c8:2f:88:
         b0:6d:43:8a:c9:29:a0:94:35:c1:d9:0c:b9:78:59:b7:09:e2:
         24:61:e7:d0:d0:be:23:88:3b:8a:bc:b8:56:0d:c1:a9:b2:8e:
         df:ee:eb:31:fc:a4:e0:9a:66:0f:5b:37:46:de:f6:9f:07:e6:
         dc:02:1d:e5:93:25:4e:4e:45:f6:40:d5:8a:b7:75:cc:eb:fc:
         6d:0f:86:62:91:dc:64:03:91:b4:5d:18:1f:a6:5e:c0:1b:4e:
         e1:f0:4c:64:6f:98:06:d1:69:22:44:b8:01:4c:28:68:1f:d4:
         29:47:e6:3e:02:70:71:62:3e:6f:fe:8c:43:14:12:e3:4e:76:
         00:52:63:e2:f2:34:b2:a3:20:0c:ed:96:e0:08:a0:15:67:25:
         b5:46:3a:ba:5b:ca:0f:93:b1:3c:38:1d:05:69:1c:bf:c7:dc:
         18:3f:c0:9a:6e:af:de:cb:62:d5:df:c9:76:d8:f0:31:0f:c9:
         4d:70:bc:1f:64:9e:49:96:a8:23:37:e5:14:ca:bd:85:10:36:
         74:95:56:61:0f:35:5b:b9:cd:02:32:16:e2:bd:3b:d1:36:84:
         99:d3:2f:7a:2d:2e:dd:ee:ef:ad:f9:15:01:e6:7b:85:dd:eb:
         c2:8c:6b:d4
-----BEGIN CERTIFICATE-----
MIIDczCCAlugAwIBAgIQS5wQEEr1L8zKKCwOU7cx7jANBgkqhkiG9w0BAQsFADAV
MRMwEQYDVQQDDAp0ZWFtMzYtbmV0MB4XDTIxMDkxMjIzMDIzOFoXDTI0MDgyNzIz
MDIzOFowGDEWMBQGA1UEAwwNdGVhbTM2LXNlcnZlcjCCASIwDQYJKoZIhvcNAQEB
BQADggEPADCCAQoCggEBAN0qofLDJ+fLfTy1/wIoRH/1F/r34TLiRbfsq8UsjNuj
Slzfct0ipU44oVgE+N8MNPqOagVWHpLBQCxo9I4Kmmut8d/KvlG/hIzBzABL9ujy
hLCrT8bdhfbzbKHp6hG3rquF1fW1VBK+hXAdu9T9Fpt2xVLcWV2/DW6bHTtPb+KX
bN25eqGs3jyTkT2zqO0aneve3I88ydJervv0C3VqmX8CBT3/fr3LJMI4yp7marP0
9Fj+dsN2/l+rTGPC10wrdREhTM5HMfPt7OCeGNskHwHZeQ6XaCIYfqnBmnid/m1Y
yLQZ6zphOo7BGYIN0huc1RxRXeXw+HB4nlyEllWx6AkCAwEAAaOBuzCBuDAJBgNV
HRMEAjAAMB0GA1UdDgQWBBSO9ZmXo9geMF+6ZTg1BqaRSsNxTTBQBgNVHSMESTBH
gBQt7IEAg4/gehOBu72W/LFoqgsVGqEZpBcwFTETMBEGA1UEAwwKdGVhbTM2LW5l
dIIUVhk/6lqIjyqPugPS4swqGJRRv8wwEwYDVR0lBAwwCgYIKwYBBQUHAwEwCwYD
VR0PBAQDAgWgMBgGA1UdEQQRMA+CDXRlYW0zNi1zZXJ2ZXIwDQYJKoZIhvcNAQEL
BQADggEBABs4O2AsQYmyXEVi037jZ8gviLBtQ4rJKaCUNcHZDLl4WbcJ4iRh59DQ
viOIO4q8uFYNwamyjt/u6zH8pOCaZg9bN0be9p8H5twCHeWTJU5ORfZA1Yq3dczr
/G0PhmKR3GQDkbRdGB+mXsAbTuHwTGRvmAbRaSJEuAFMKGgf1ClH5j4CcHFiPm/+
jEMUEuNOdgBSY+LyNLKjIAztluAIoBVnJbVGOrpbyg+TsTw4HQVpHL/H3Bg/wJpu
r97LYtXfyXbY8DEPyU1wvB9knkmWqCM35RTKvYUQNnSVVmEPNVu5zQIyFuK9O9E2
hJnTL3otLt3u7635FQHme4Xd68KMa9Q=
-----END CERTIFICATE-----
