Certificate:
    Data:
        Version: 3 (0x2)
        Serial Number:
            3d:fd:0c:87:36:ff:e9:60:60:78:22:8f:2f:49:d3:86
        Signature Algorithm: sha256WithRSAEncryption
        Issuer: CN=team132-net
        Validity
            Not Before: Sep 12 23:54:17 2021 GMT
            Not After : Aug 27 23:54:17 2024 GMT
        Subject: CN=team132-client
        Subject Public Key Info:
            Public Key Algorithm: rsaEncryption
                RSA Public-Key: (2048 bit)
                Modulus:
                    00:cf:c5:c7:d5:c7:1f:ac:8a:cb:84:4b:14:ea:0e:
                    31:32:cf:e0:60:d3:26:35:5f:63:42:8a:b7:b9:e0:
                    43:8f:76:b5:31:8d:31:96:ee:3a:b8:67:ab:d0:3b:
                    40:4e:54:67:47:3b:05:57:24:bf:e0:6a:95:1c:19:
                    70:85:9f:8a:c0:3c:b3:6f:aa:88:69:27:92:3b:69:
                    33:ed:2e:38:03:25:29:9b:d2:76:05:58:2a:a2:d9:
                    4f:de:04:ff:9b:33:b3:39:09:3a:4d:f6:d2:f4:12:
                    9a:4b:a4:09:c3:b9:1e:f5:b5:13:d6:91:ab:c7:66:
                    85:f1:08:c4:2c:16:a5:2d:5a:7f:ea:57:e7:3f:60:
                    88:4c:ab:ff:e0:ad:57:63:22:07:ea:9e:7d:91:5f:
                    fd:0d:07:f6:bc:fa:16:42:23:6d:7a:8e:7d:2f:cc:
                    aa:05:95:90:14:61:1c:cd:ab:28:3e:08:95:6b:90:
                    75:32:cd:27:06:02:42:02:71:00:30:f8:2c:2b:90:
                    1d:9e:7d:82:56:01:17:fe:f5:3f:a5:c8:c9:a7:be:
                    f1:ca:88:d7:b0:61:91:a6:80:bb:a8:69:1c:e9:36:
                    d5:ed:03:4f:12:5e:2e:d7:02:57:d3:97:10:7b:4f:
                    8e:9c:e0:5a:e1:4c:fa:fc:60:9d:95:a5:e6:63:df:
                    5b:53
                Exponent: 65537 (0x10001)
        X509v3 extensions:
            X509v3 Basic Constraints: 
                CA:FALSE
            X509v3 Subject Key Identifier: 
                82:6C:CD:59:01:89:05:DA:77:CD:B8:72:D2:B1:81:A6:09:18:95:84
            X509v3 Authority Key Identifier: 
                keyid:D7:60:5D:40:5E:4D:3F:A1:97:16:9D:33:10:14:42:91:26:08:F8:C1
                DirName:/CN=team132-net
                serial:35:A8:ED:E7:AA:5A:1E:7E:60:6B:EC:8F:92:CF:EA:77:50:FE:26:8F

            X509v3 Extended Key Usage: 
                TLS Web Client Authentication
            X509v3 Key Usage: 
                Digital Signature
    Signature Algorithm: sha256WithRSAEncryption
         4a:fb:e3:e7:7d:15:3f:6c:a8:5c:fa:d1:07:47:70:61:3d:cc:
         7f:63:1a:b3:77:52:69:81:6e:3f:c2:e3:0c:e0:4c:f1:b4:db:
         22:08:93:d5:a9:1f:83:88:cd:d9:b5:f6:28:4a:cb:b1:c4:f1:
         d5:cd:68:2f:68:3b:4c:63:70:d2:95:eb:b6:40:c0:84:3c:a5:
         f0:c8:9b:aa:23:32:eb:2a:ad:ff:e8:e5:00:6a:bf:ef:62:15:
         cc:32:48:6c:f7:94:63:60:30:59:a1:c6:b3:ff:52:1c:1b:62:
         4a:08:b6:12:7f:d4:e4:0c:e7:02:01:b3:c7:c2:a3:e9:22:e2:
         24:4a:8c:0d:d7:4b:40:e9:88:05:4f:53:eb:17:5e:2a:df:d1:
         c5:d8:cc:53:9f:13:ef:76:82:4e:59:09:73:d7:58:98:8e:2f:
         cd:e6:cb:50:4b:18:d5:40:b7:55:54:98:2a:89:ed:cf:48:5d:
         30:39:ec:5c:d9:6b:76:db:52:f9:1a:31:91:e7:cb:9a:1b:e0:
         ae:d1:1c:7d:52:07:ac:1e:f3:3c:80:74:11:d0:39:63:01:4d:
         6f:20:64:4b:42:61:f1:30:64:76:cb:1d:6c:8e:45:2d:d6:76:
         f4:f6:ae:52:05:34:f4:3d:07:a8:c9:92:28:ee:c0:35:39:2f:
         75:c8:b9:9f
-----BEGIN CERTIFICATE-----
MIIDXDCCAkSgAwIBAgIQPf0Mhzb/6WBgeCKPL0nThjANBgkqhkiG9w0BAQsFADAW
MRQwEgYDVQQDDAt0ZWFtMTMyLW5ldDAeFw0yMTA5MTIyMzU0MTdaFw0yNDA4Mjcy
MzU0MTdaMBkxFzAVBgNVBAMMDnRlYW0xMzItY2xpZW50MIIBIjANBgkqhkiG9w0B
AQEFAAOCAQ8AMIIBCgKCAQEAz8XH1ccfrIrLhEsU6g4xMs/gYNMmNV9jQoq3ueBD
j3a1MY0xlu46uGer0DtATlRnRzsFVyS/4GqVHBlwhZ+KwDyzb6qIaSeSO2kz7S44
AyUpm9J2BVgqotlP3gT/mzOzOQk6TfbS9BKaS6QJw7ke9bUT1pGrx2aF8QjELBal
LVp/6lfnP2CITKv/4K1XYyIH6p59kV/9DQf2vPoWQiNteo59L8yqBZWQFGEczaso
PgiVa5B1Ms0nBgJCAnEAMPgsK5Adnn2CVgEX/vU/pcjJp77xyojXsGGRpoC7qGkc
6TbV7QNPEl4u1wJX05cQe0+OnOBa4Uz6/GCdlaXmY99bUwIDAQABo4GiMIGfMAkG
A1UdEwQCMAAwHQYDVR0OBBYEFIJszVkBiQXad824ctKxgaYJGJWEMFEGA1UdIwRK
MEiAFNdgXUBeTT+hlxadMxAUQpEmCPjBoRqkGDAWMRQwEgYDVQQDDAt0ZWFtMTMy
LW5ldIIUNajt56paHn5ga+yPks/qd1D+Jo8wEwYDVR0lBAwwCgYIKwYBBQUHAwIw
CwYDVR0PBAQDAgeAMA0GCSqGSIb3DQEBCwUAA4IBAQBK++PnfRU/bKhc+tEHR3Bh
Pcx/Yxqzd1JpgW4/wuMM4EzxtNsiCJPVqR+DiM3ZtfYoSsuxxPHVzWgvaDtMY3DS
leu2QMCEPKXwyJuqIzLrKq3/6OUAar/vYhXMMkhs95RjYDBZocaz/1IcG2JKCLYS
f9TkDOcCAbPHwqPpIuIkSowN10tA6YgFT1PrF14q39HF2MxTnxPvdoJOWQlz11iY
ji/N5stQSxjVQLdVVJgqie3PSF0wOexc2Wt221L5GjGR58uaG+Cu0Rx9UgesHvM8
gHQR0DljAU1vIGRLQmHxMGR2yx1sjkUt1nb09q5SBTT0PQeoyZIo7sA1OS91yLmf
-----END CERTIFICATE-----
