Certificate:
    Data:
        Version: 3 (0x2)
        Serial Number:
            f2:4e:c3:fb:28:fa:22:72:59:3d:34:85:81:90:13:83
        Signature Algorithm: sha256WithRSAEncryption
        Issuer: CN=team456-net
        Validity
            Not Before: Sep 13 02:53:32 2021 GMT
            Not After : Aug 28 02:53:32 2024 GMT
        Subject: CN=team456-client
        Subject Public Key Info:
            Public Key Algorithm: rsaEncryption
                RSA Public-Key: (2048 bit)
                Modulus:
                    00:dc:c9:95:2d:61:3c:0e:e5:03:2f:c9:b0:5f:60:
                    34:4d:63:16:de:36:2f:4e:12:82:f2:21:9c:52:af:
                    ea:43:94:ea:48:7e:86:bd:1d:c2:26:52:3e:da:8a:
                    9b:bb:75:ec:d7:36:c8:04:c7:f9:44:c2:4a:7d:41:
                    04:1c:d1:95:57:f3:21:f4:c1:0f:45:a6:aa:b6:41:
                    14:fb:28:12:40:c3:a9:df:9e:08:95:6d:c4:c9:27:
                    67:22:90:aa:17:4c:45:ec:91:ac:fc:88:9a:62:44:
                    10:b6:b7:ce:fd:5f:41:8f:47:81:d4:bf:16:cb:e2:
                    61:e3:84:00:a7:77:82:97:9f:7f:43:8c:94:1c:05:
                    b5:32:22:89:a5:1b:68:9a:f0:db:05:4c:3c:69:f3:
                    7e:26:20:58:2e:ee:81:f4:bd:d3:40:98:17:ac:10:
                    41:1b:84:20:19:ae:12:c4:32:b3:a4:06:c6:6d:4a:
                    15:43:db:44:0a:01:3d:3a:e6:4f:5d:4e:c1:41:64:
                    8f:32:64:27:9b:b8:08:6d:05:d8:2a:d3:b7:13:9c:
                    c0:6e:20:33:f1:6d:2a:c1:14:1c:ff:6c:76:4d:d4:
                    f6:60:b5:a5:75:b3:25:9c:ef:dd:7f:3f:bf:f2:0b:
                    3b:1c:c1:12:ac:b0:77:d8:09:d8:97:1b:66:0b:b9:
                    b5:47
                Exponent: 65537 (0x10001)
        X509v3 extensions:
            X509v3 Basic Constraints: 
                CA:FALSE
            X509v3 Subject Key Identifier: 
                5A:96:C2:FB:F0:AB:F8:ED:D7:5F:FD:E3:CB:16:DF:D1:FB:9E:20:5E
            X509v3 Authority Key Identifier: 
                keyid:DB:9C:14:96:86:C7:0D:8D:DE:0F:97:3A:16:DB:DE:9D:85:95:27:88
                DirName:/CN=team456-net
                serial:32:E2:93:D4:2D:64:C0:16:91:95:D8:DD:50:79:11:34:67:7B:5B:8A

            X509v3 Extended Key Usage: 
                TLS Web Client Authentication
            X509v3 Key Usage: 
                Digital Signature
    Signature Algorithm: sha256WithRSAEncryption
         b4:8f:42:09:0e:68:fa:3d:8e:da:98:16:31:dc:5c:d3:1a:fb:
         6a:75:a2:ad:6c:57:8f:6d:e5:44:5f:ff:50:a1:ab:9e:94:64:
         5a:55:9e:26:6e:03:98:93:66:4c:de:02:66:16:4e:43:29:6a:
         aa:1a:2e:72:33:e6:de:46:ab:9c:3a:04:d9:58:49:3e:bc:9c:
         af:bb:33:7a:7b:87:d1:06:14:82:e7:bd:9e:b4:b4:81:b7:e7:
         cc:72:90:84:1c:63:c7:86:08:05:ff:74:0f:08:66:50:3f:21:
         cd:f3:2d:0e:cd:08:c5:3f:c6:ad:53:ce:68:96:dc:1a:a5:c7:
         2b:45:0b:f3:6b:d3:f6:9b:8a:fa:df:43:25:a6:7c:eb:62:d8:
         fd:3f:9b:06:48:37:16:78:83:16:a1:75:7e:25:5a:91:2e:1e:
         44:af:06:1e:f6:d4:18:65:19:85:66:a2:f8:b4:63:0f:d8:39:
         bd:f8:96:0f:16:f6:96:35:b9:86:eb:c9:29:df:7e:c3:62:5a:
         6c:62:ff:7b:3e:f8:cf:d4:32:ef:02:fc:e6:8c:9e:68:77:2f:
         ce:b4:97:4d:f8:fd:5c:1c:08:fd:8e:1d:4c:f0:ff:8d:e4:6b:
         ac:12:31:a5:5c:18:3c:fe:be:e6:90:53:09:30:d6:68:fc:1c:
         3c:52:02:e5
-----BEGIN CERTIFICATE-----
MIIDXTCCAkWgAwIBAgIRAPJOw/so+iJyWT00hYGQE4MwDQYJKoZIhvcNAQELBQAw
FjEUMBIGA1UEAwwLdGVhbTQ1Ni1uZXQwHhcNMjEwOTEzMDI1MzMyWhcNMjQwODI4
MDI1MzMyWjAZMRcwFQYDVQQDDA50ZWFtNDU2LWNsaWVudDCCASIwDQYJKoZIhvcN
AQEBBQADggEPADCCAQoCggEBANzJlS1hPA7lAy/JsF9gNE1jFt42L04SgvIhnFKv
6kOU6kh+hr0dwiZSPtqKm7t17Nc2yATH+UTCSn1BBBzRlVfzIfTBD0WmqrZBFPso
EkDDqd+eCJVtxMknZyKQqhdMReyRrPyImmJEELa3zv1fQY9HgdS/FsviYeOEAKd3
gpeff0OMlBwFtTIiiaUbaJrw2wVMPGnzfiYgWC7ugfS900CYF6wQQRuEIBmuEsQy
s6QGxm1KFUPbRAoBPTrmT11OwUFkjzJkJ5u4CG0F2CrTtxOcwG4gM/FtKsEUHP9s
dk3U9mC1pXWzJZzv3X8/v/ILOxzBEqywd9gJ2JcbZgu5tUcCAwEAAaOBojCBnzAJ
BgNVHRMEAjAAMB0GA1UdDgQWBBRalsL78Kv47ddf/ePLFt/R+54gXjBRBgNVHSME
SjBIgBTbnBSWhscNjd4PlzoW296dhZUniKEapBgwFjEUMBIGA1UEAwwLdGVhbTQ1
Ni1uZXSCFDLik9QtZMAWkZXY3VB5ETRne1uKMBMGA1UdJQQMMAoGCCsGAQUFBwMC
MAsGA1UdDwQEAwIHgDANBgkqhkiG9w0BAQsFAAOCAQEAtI9CCQ5o+j2O2pgWMdxc
0xr7anWirWxXj23lRF//UKGrnpRkWlWeJm4DmJNmTN4CZhZOQylqqhoucjPm3kar
nDoE2VhJPrycr7szenuH0QYUgue9nrS0gbfnzHKQhBxjx4YIBf90DwhmUD8hzfMt
Ds0IxT/GrVPOaJbcGqXHK0UL82vT9puK+t9DJaZ862LY/T+bBkg3FniDFqF1fiVa
kS4eRK8GHvbUGGUZhWai+LRjD9g5vfiWDxb2ljW5huvJKd9+w2JabGL/ez74z9Qy
7wL85oyeaHcvzrSXTfj9XBwI/Y4dTPD/jeRrrBIxpVwYPP6+5pBTCTDWaPwcPFIC
5Q==
-----END CERTIFICATE-----
