Certificate:
    Data:
        Version: 3 (0x2)
        Serial Number:
            5d:ce:49:48:bc:ce:fd:d9:0b:b7:91:44:eb:0e:a8:8e
        Signature Algorithm: sha256WithRSAEncryption
        Issuer: CN=team150-net
        Validity
            Not Before: Sep 13 00:10:45 2021 GMT
            Not After : Aug 28 00:10:45 2024 GMT
        Subject: CN=team150-client
        Subject Public Key Info:
            Public Key Algorithm: rsaEncryption
                RSA Public-Key: (2048 bit)
                Modulus:
                    00:e5:31:15:9a:62:92:e8:2e:07:31:f1:bd:77:94:
                    33:c4:03:03:77:7b:37:8f:a4:50:06:1b:72:13:1b:
                    00:95:31:b6:36:eb:2a:77:98:4d:54:6a:5d:4d:52:
                    d9:e1:c1:93:32:0d:06:41:47:db:1a:66:4b:c0:aa:
                    21:0a:a2:f9:b7:ac:83:b2:01:bd:45:a8:41:8b:08:
                    1a:cf:8d:df:8f:b2:88:b4:f7:f0:c0:df:3e:61:50:
                    e3:2b:f6:45:8d:cd:87:08:0e:36:7b:6a:d0:b8:28:
                    94:8d:e5:50:65:c0:01:9d:28:5b:e7:bd:dc:81:9b:
                    60:fe:d3:c2:3b:78:c3:61:19:9f:d8:8f:cc:25:53:
                    0a:2a:6c:44:c1:66:1d:72:d4:36:47:ef:6e:a5:22:
                    8d:c3:82:cf:bd:6b:73:d9:dc:70:0e:97:c3:b6:94:
                    6c:c0:f7:59:0c:53:f9:4d:79:85:d2:fb:ec:92:f0:
                    fb:28:19:fc:eb:fb:7a:d3:7b:e7:16:82:e8:a4:25:
                    57:00:b8:bc:99:21:4b:c9:bc:ed:dc:f7:82:14:a7:
                    eb:64:d6:63:cd:62:b5:16:12:51:be:6f:d1:20:73:
                    20:80:2c:e6:a8:db:24:1c:10:7c:3b:f2:28:f5:e8:
                    ae:c4:78:ce:5c:1a:68:93:3c:f0:15:04:29:3e:b7:
                    ba:97
                Exponent: 65537 (0x10001)
        X509v3 extensions:
            X509v3 Basic Constraints: 
                CA:FALSE
            X509v3 Subject Key Identifier: 
                42:D0:4C:42:98:84:C7:82:B8:22:64:78:A9:E8:6D:65:6F:6A:9E:48
            X509v3 Authority Key Identifier: 
                keyid:60:64:87:2E:BB:C2:63:8D:6E:BD:58:E2:22:2E:67:84:21:F6:BF:6C
                DirName:/CN=team150-net
                serial:6D:B7:09:3D:A6:FD:2B:C7:CA:01:34:04:7A:DD:1F:A3:74:CE:03:03

            X509v3 Extended Key Usage: 
                TLS Web Client Authentication
            X509v3 Key Usage: 
                Digital Signature
    Signature Algorithm: sha256WithRSAEncryption
         a5:0a:8b:7f:ea:5d:e2:b9:90:09:40:3f:b2:d8:1e:bf:82:ec:
         75:15:26:7c:a7:c8:d0:46:10:e2:2a:57:0e:c9:68:bb:55:69:
         67:39:9e:b6:ba:cd:d9:91:47:69:db:b5:42:30:9b:11:54:22:
         0b:be:5d:d1:1f:5f:a2:cb:c2:50:90:fa:48:17:4f:42:3e:81:
         ae:3c:e5:df:06:9f:8f:bc:ae:aa:72:de:73:85:c9:be:68:14:
         b2:ad:f2:9b:4f:ff:4f:80:ff:64:48:1d:29:05:e8:f7:a4:5d:
         7e:81:95:72:1a:da:95:3f:de:cb:cc:e9:0c:32:64:ed:fa:e3:
         3c:c3:07:2d:67:8a:59:93:fe:56:32:0b:b9:d6:a9:bd:19:c0:
         6a:47:17:08:aa:ae:53:37:8b:dc:d7:5b:a4:bc:f2:65:8c:50:
         5b:1b:4e:ab:13:9c:9a:99:9d:f7:67:66:0a:ae:7f:87:e5:06:
         f4:24:be:1f:fb:f0:3d:3e:8f:19:a3:f8:a3:31:94:4c:6f:63:
         84:2a:27:54:9a:a1:27:33:62:89:f8:77:ad:f5:a1:5b:60:fe:
         f9:4d:7b:dd:9f:6a:89:4b:4e:dd:33:bd:3f:c6:fb:cf:a9:ab:
         fa:27:3b:35:ee:fb:d7:ad:ca:d4:f4:3c:a7:4d:5d:10:de:96:
         c6:94:6a:df
-----BEGIN CERTIFICATE-----
MIIDXDCCAkSgAwIBAgIQXc5JSLzO/dkLt5FE6w6ojjANBgkqhkiG9w0BAQsFADAW
MRQwEgYDVQQDDAt0ZWFtMTUwLW5ldDAeFw0yMTA5MTMwMDEwNDVaFw0yNDA4Mjgw
MDEwNDVaMBkxFzAVBgNVBAMMDnRlYW0xNTAtY2xpZW50MIIBIjANBgkqhkiG9w0B
AQEFAAOCAQ8AMIIBCgKCAQEA5TEVmmKS6C4HMfG9d5QzxAMDd3s3j6RQBhtyExsA
lTG2Nusqd5hNVGpdTVLZ4cGTMg0GQUfbGmZLwKohCqL5t6yDsgG9RahBiwgaz43f
j7KItPfwwN8+YVDjK/ZFjc2HCA42e2rQuCiUjeVQZcABnShb573cgZtg/tPCO3jD
YRmf2I/MJVMKKmxEwWYdctQ2R+9upSKNw4LPvWtz2dxwDpfDtpRswPdZDFP5TXmF
0vvskvD7KBn86/t603vnFoLopCVXALi8mSFLybzt3PeCFKfrZNZjzWK1FhJRvm/R
IHMggCzmqNskHBB8O/Io9eiuxHjOXBpokzzwFQQpPre6lwIDAQABo4GiMIGfMAkG
A1UdEwQCMAAwHQYDVR0OBBYEFELQTEKYhMeCuCJkeKnobWVvap5IMFEGA1UdIwRK
MEiAFGBkhy67wmONbr1Y4iIuZ4Qh9r9soRqkGDAWMRQwEgYDVQQDDAt0ZWFtMTUw
LW5ldIIUbbcJPab9K8fKATQEet0fo3TOAwMwEwYDVR0lBAwwCgYIKwYBBQUHAwIw
CwYDVR0PBAQDAgeAMA0GCSqGSIb3DQEBCwUAA4IBAQClCot/6l3iuZAJQD+y2B6/
gux1FSZ8p8jQRhDiKlcOyWi7VWlnOZ62us3ZkUdp27VCMJsRVCILvl3RH1+iy8JQ
kPpIF09CPoGuPOXfBp+PvK6qct5zhcm+aBSyrfKbT/9PgP9kSB0pBej3pF1+gZVy
GtqVP97LzOkMMmTt+uM8wwctZ4pZk/5WMgu51qm9GcBqRxcIqq5TN4vc11ukvPJl
jFBbG06rE5yamZ33Z2YKrn+H5Qb0JL4f+/A9Po8Zo/ijMZRMb2OEKidUmqEnM2KJ
+Het9aFbYP75TXvdn2qJS07dM70/xvvPqav6Jzs17vvXrcrU9DynTV0Q3pbGlGrf
-----END CERTIFICATE-----
