Certificate:
    Data:
        Version: 3 (0x2)
        Serial Number:
            86:d5:ee:cb:17:84:53:90:29:e1:68:7d:2b:d0:0a:41
        Signature Algorithm: sha256WithRSAEncryption
        Issuer: CN=team109-net
        Validity
            Not Before: Sep 12 23:43:58 2021 GMT
            Not After : Aug 27 23:43:58 2024 GMT
        Subject: CN=team109-client
        Subject Public Key Info:
            Public Key Algorithm: rsaEncryption
                RSA Public-Key: (2048 bit)
                Modulus:
                    00:c1:ec:80:2d:3a:f8:de:28:e7:4a:b6:a8:da:ae:
                    71:49:45:64:aa:68:98:6f:57:b1:a9:12:2a:1e:89:
                    52:90:4f:56:87:2b:4b:84:ab:6a:29:86:49:a3:49:
                    47:c4:9c:33:2b:e3:14:7e:ae:b3:70:f6:93:b3:08:
                    26:9a:f3:bb:25:66:a6:aa:68:49:c5:32:e4:07:5a:
                    91:21:04:55:23:83:8e:ea:dc:7b:60:56:64:b4:83:
                    4e:c0:53:f3:a8:51:cb:2c:bd:89:64:88:2d:24:e7:
                    a0:b6:93:be:87:d9:59:60:65:85:32:13:33:5c:15:
                    f9:b0:f7:35:b9:a7:d6:b7:b8:62:31:84:85:74:64:
                    f8:d0:c9:57:40:6a:39:ff:4c:9c:ad:fd:9e:25:43:
                    3c:f7:1f:89:70:9b:3f:8b:4e:f3:19:cf:ba:45:5b:
                    f3:4a:1e:ee:a5:85:08:e9:5f:a0:06:a3:e8:47:fd:
                    9d:7f:7d:e3:ad:ae:48:ad:ff:c9:fd:03:e2:73:46:
                    87:d7:32:39:90:28:74:44:89:d3:2f:d5:7e:d6:6e:
                    19:f6:17:1d:ba:c1:33:10:ba:1c:fa:06:e9:73:db:
                    86:7b:19:43:df:94:cf:d2:93:53:b0:f5:f6:52:9d:
                    b8:b4:6c:6e:5d:27:55:a5:cd:88:d6:26:5e:3e:dd:
                    1c:79
                Exponent: 65537 (0x10001)
        X509v3 extensions:
            X509v3 Basic Constraints: 
                CA:FALSE
            X509v3 Subject Key Identifier: 
                42:0F:09:9D:B5:54:D2:EE:50:93:EE:43:AC:26:95:BA:1A:03:44:0E
            X509v3 Authority Key Identifier: 
                keyid:50:52:2D:43:E5:51:A7:52:6D:D7:8A:B0:E5:90:87:27:8C:15:A5:CB
                DirName:/CN=team109-net
                serial:75:21:80:BE:A5:6D:43:17:4D:EE:4F:16:87:DC:14:CE:AB:88:CE:9C

            X509v3 Extended Key Usage: 
                TLS Web Client Authentication
            X509v3 Key Usage: 
                Digital Signature
    Signature Algorithm: sha256WithRSAEncryption
         57:a5:ee:c3:10:2a:25:25:42:23:22:16:e9:ce:33:91:e7:de:
         6e:7a:fa:8a:54:d9:21:40:d1:4e:26:c5:83:fb:da:9b:d0:39:
         a3:f1:8a:2b:93:f5:9b:5f:16:a5:89:24:50:e5:28:e6:4f:42:
         11:1d:25:8d:24:34:0b:a1:26:60:c3:ae:2f:84:79:ba:4e:79:
         79:1e:e8:2e:04:e6:f1:1a:66:40:1e:78:df:75:a9:42:76:2e:
         0a:f1:6a:0f:b9:b0:9d:3b:b7:80:96:11:f6:32:16:bc:cc:f2:
         ac:3f:65:a1:53:11:84:e1:53:26:5f:22:09:c0:ef:26:23:bd:
         e0:3d:19:be:e0:b9:2f:fa:03:1a:a5:4b:b9:fe:db:70:2d:fa:
         69:16:1b:29:29:3d:f9:74:51:fd:56:63:85:ce:18:41:72:16:
         be:cb:66:af:8a:0a:f2:09:fe:dc:41:bc:14:dd:ad:de:83:2e:
         bf:dd:f3:9b:86:eb:6b:5b:63:65:67:ee:62:c4:02:ab:65:17:
         23:2b:6c:53:52:0b:60:5f:8d:32:06:ea:a2:b9:f8:b4:a1:b3:
         7b:7f:11:3d:9c:d3:b3:8f:f1:ce:3d:ad:52:aa:71:85:94:de:
         c4:ab:76:a1:9f:47:5b:51:9a:01:c6:7d:2e:3a:00:00:a9:44:
         19:0c:d7:bb
-----BEGIN CERTIFICATE-----
MIIDXTCCAkWgAwIBAgIRAIbV7ssXhFOQKeFofSvQCkEwDQYJKoZIhvcNAQELBQAw
FjEUMBIGA1UEAwwLdGVhbTEwOS1uZXQwHhcNMjEwOTEyMjM0MzU4WhcNMjQwODI3
MjM0MzU4WjAZMRcwFQYDVQQDDA50ZWFtMTA5LWNsaWVudDCCASIwDQYJKoZIhvcN
AQEBBQADggEPADCCAQoCggEBAMHsgC06+N4o50q2qNqucUlFZKpomG9XsakSKh6J
UpBPVocrS4SraimGSaNJR8ScMyvjFH6us3D2k7MIJprzuyVmpqpoScUy5AdakSEE
VSODjurce2BWZLSDTsBT86hRyyy9iWSILSTnoLaTvofZWWBlhTITM1wV+bD3Nbmn
1re4YjGEhXRk+NDJV0BqOf9MnK39niVDPPcfiXCbP4tO8xnPukVb80oe7qWFCOlf
oAaj6Ef9nX99462uSK3/yf0D4nNGh9cyOZAodESJ0y/VftZuGfYXHbrBMxC6HPoG
6XPbhnsZQ9+Uz9KTU7D19lKduLRsbl0nVaXNiNYmXj7dHHkCAwEAAaOBojCBnzAJ
BgNVHRMEAjAAMB0GA1UdDgQWBBRCDwmdtVTS7lCT7kOsJpW6GgNEDjBRBgNVHSME
SjBIgBRQUi1D5VGnUm3XirDlkIcnjBWly6EapBgwFjEUMBIGA1UEAwwLdGVhbTEw
OS1uZXSCFHUhgL6lbUMXTe5PFofcFM6riM6cMBMGA1UdJQQMMAoGCCsGAQUFBwMC
MAsGA1UdDwQEAwIHgDANBgkqhkiG9w0BAQsFAAOCAQEAV6XuwxAqJSVCIyIW6c4z
kefebnr6ilTZIUDRTibFg/vam9A5o/GKK5P1m18WpYkkUOUo5k9CER0ljSQ0C6Em
YMOuL4R5uk55eR7oLgTm8RpmQB5433WpQnYuCvFqD7mwnTu3gJYR9jIWvMzyrD9l
oVMRhOFTJl8iCcDvJiO94D0ZvuC5L/oDGqVLuf7bcC36aRYbKSk9+XRR/VZjhc4Y
QXIWvstmr4oK8gn+3EG8FN2t3oMuv93zm4bra1tjZWfuYsQCq2UXIytsU1ILYF+N
Mgbqorn4tKGze38RPZzTs4/xzj2tUqpxhZTexKt2oZ9HW1GaAcZ9LjoAAKlEGQzX
uw==
-----END CERTIFICATE-----
