Certificate:
    Data:
        Version: 3 (0x2)
        Serial Number:
            1f:d5:df:00:37:fc:f8:be:ec:c1:df:8c:2a:3b:cf:81
        Signature Algorithm: sha256WithRSAEncryption
        Issuer: CN=team506-net
        Validity
            Not Before: Sep 13 03:21:49 2021 GMT
            Not After : Aug 28 03:21:49 2024 GMT
        Subject: CN=team506-server
        Subject Public Key Info:
            Public Key Algorithm: rsaEncryption
                RSA Public-Key: (2048 bit)
                Modulus:
                    00:a5:9a:b5:d3:72:b3:f3:2d:a8:6a:c0:fd:30:34:
                    f5:d3:2a:0a:d0:10:74:a0:75:cd:19:d0:ee:fd:7d:
                    71:96:01:f0:48:e9:a8:a8:06:88:4b:fa:b6:73:ae:
                    ed:ae:7f:2b:dc:ff:b7:a2:ad:8a:4a:6e:6b:68:98:
                    a0:e2:7d:ce:80:d0:2a:00:28:0b:30:b9:7a:00:30:
                    b8:29:71:ec:04:74:26:37:50:97:d0:1e:d4:35:95:
                    61:66:a7:84:e3:e4:69:ed:25:1e:29:32:06:34:c8:
                    76:d0:54:01:f8:cf:80:a7:91:60:e4:ed:73:3c:91:
                    47:0c:01:41:61:09:df:7a:49:42:fc:cd:74:ef:03:
                    dc:de:20:41:f6:4d:05:71:bf:d9:67:f2:99:0f:43:
                    1b:0b:47:a5:2e:b7:eb:7d:ca:d0:73:c9:d7:a9:7d:
                    ae:83:4c:88:68:b6:b4:a7:6a:0b:df:aa:0e:8d:ec:
                    14:5a:76:21:39:27:db:c3:6e:9c:b4:c0:2f:dc:57:
                    f4:8b:a5:f1:f9:06:88:fe:dc:4c:6c:ce:dc:1c:79:
                    82:57:fb:86:60:21:d1:09:35:73:dc:07:ec:cd:1b:
                    f0:e1:23:ea:30:bf:11:9d:aa:d2:90:d0:bc:84:17:
                    ee:68:7c:7c:56:da:0f:73:af:a6:2c:8f:d3:fe:b2:
                    4b:a9
                Exponent: 65537 (0x10001)
        X509v3 extensions:
            X509v3 Basic Constraints: 
                CA:FALSE
            X509v3 Subject Key Identifier: 
                72:35:AD:AA:7A:7F:0C:4F:B2:E3:F5:85:18:9A:A3:70:62:FF:E1:3A
            X509v3 Authority Key Identifier: 
                keyid:EB:8B:EC:F5:90:97:EC:C8:4E:D9:93:AC:89:F9:82:4C:A0:83:83:A6
                DirName:/CN=team506-net
                serial:44:AB:2C:F6:B0:C0:55:0E:82:BE:95:96:C2:6C:62:1A:53:3C:0F:FE

            X509v3 Extended Key Usage: 
                TLS Web Server Authentication
            X509v3 Key Usage: 
                Digital Signature, Key Encipherment
            X509v3 Subject Alternative Name: 
                DNS:team506-server
    Signature Algorithm: sha256WithRSAEncryption
         63:7e:bc:44:0b:7e:fb:4c:a9:14:b4:87:a1:6e:3a:ed:f1:bc:
         e0:80:bc:3d:db:5e:36:76:d9:bb:da:26:6e:be:fe:13:62:98:
         4f:ea:58:97:21:0b:df:1a:bc:a7:e5:1d:29:dd:e3:bf:88:33:
         6d:75:0b:6d:43:61:14:69:fd:1b:29:f2:cf:8c:c1:23:b0:be:
         11:58:2c:e2:20:c2:32:ec:ab:4a:fe:62:7a:a5:36:cf:80:7f:
         c4:df:38:4e:e0:9c:0c:4b:1b:f5:72:25:e9:75:92:d2:19:08:
         21:53:3d:78:5e:dd:4d:5e:94:eb:1b:8d:e5:08:20:dc:9b:1e:
         2c:d0:1e:95:ff:41:d3:93:30:f2:1b:84:03:8c:4e:84:19:e0:
         09:e3:0c:b2:ec:9a:1d:3f:95:d7:78:7a:88:44:d2:63:72:f0:
         03:c9:b9:f6:c8:1c:c3:f3:95:35:41:5f:80:b3:29:19:0e:97:
         92:cd:8e:60:d4:d7:2e:00:69:55:eb:79:50:ac:b2:1b:d7:47:
         43:f0:17:34:cf:e5:c3:b8:34:56:60:f2:13:7e:17:45:fd:b3:
         ac:4a:e8:88:b3:2f:58:7b:c7:f7:5e:3c:56:f9:82:e5:9e:7f:
         1a:ee:7f:b7:64:05:24:f3:a0:5c:d5:45:4f:d2:45:05:b9:1b:
         f1:0d:f2:15
-----BEGIN CERTIFICATE-----
MIIDdzCCAl+gAwIBAgIQH9XfADf8+L7swd+MKjvPgTANBgkqhkiG9w0BAQsFADAW
MRQwEgYDVQQDDAt0ZWFtNTA2LW5ldDAeFw0yMTA5MTMwMzIxNDlaFw0yNDA4Mjgw
MzIxNDlaMBkxFzAVBgNVBAMMDnRlYW01MDYtc2VydmVyMIIBIjANBgkqhkiG9w0B
AQEFAAOCAQ8AMIIBCgKCAQEApZq103Kz8y2oasD9MDT10yoK0BB0oHXNGdDu/X1x
lgHwSOmoqAaIS/q2c67trn8r3P+3oq2KSm5raJig4n3OgNAqACgLMLl6ADC4KXHs
BHQmN1CX0B7UNZVhZqeE4+Rp7SUeKTIGNMh20FQB+M+Ap5Fg5O1zPJFHDAFBYQnf
eklC/M107wPc3iBB9k0Fcb/ZZ/KZD0MbC0elLrfrfcrQc8nXqX2ug0yIaLa0p2oL
36oOjewUWnYhOSfbw26ctMAv3Ff0i6Xx+QaI/txMbM7cHHmCV/uGYCHRCTVz3Afs
zRvw4SPqML8RnarSkNC8hBfuaHx8VtoPc6+mLI/T/rJLqQIDAQABo4G9MIG6MAkG
A1UdEwQCMAAwHQYDVR0OBBYEFHI1rap6fwxPsuP1hRiao3Bi/+E6MFEGA1UdIwRK
MEiAFOuL7PWQl+zITtmTrIn5gkygg4OmoRqkGDAWMRQwEgYDVQQDDAt0ZWFtNTA2
LW5ldIIURKss9rDAVQ6CvpWWwmxiGlM8D/4wEwYDVR0lBAwwCgYIKwYBBQUHAwEw
CwYDVR0PBAQDAgWgMBkGA1UdEQQSMBCCDnRlYW01MDYtc2VydmVyMA0GCSqGSIb3
DQEBCwUAA4IBAQBjfrxEC377TKkUtIehbjrt8bzggLw92142dtm72iZuvv4TYphP
6liXIQvfGryn5R0p3eO/iDNtdQttQ2EUaf0bKfLPjMEjsL4RWCziIMIy7KtK/mJ6
pTbPgH/E3zhO4JwMSxv1ciXpdZLSGQghUz14Xt1NXpTrG43lCCDcmx4s0B6V/0HT
kzDyG4QDjE6EGeAJ4wyy7JodP5XXeHqIRNJjcvADybn2yBzD85U1QV+AsykZDpeS
zY5g1NcuAGlV63lQrLIb10dD8Bc0z+XDuDRWYPITfhdF/bOsSuiIsy9Ye8f3XjxW
+YLlnn8a7n+3ZAUk86Bc1UVP0kUFuRvxDfIV
-----END CERTIFICATE-----
