Certificate:
    Data:
        Version: 3 (0x2)
        Serial Number:
            48:fe:1b:50:e1:c1:d1:48:45:6e:a6:39:e0:51:38:e3
        Signature Algorithm: sha256WithRSAEncryption
        Issuer: CN=team25-net
        Validity
            Not Before: Sep 12 22:53:17 2021 GMT
            Not After : Aug 27 22:53:17 2024 GMT
        Subject: CN=team25-server
        Subject Public Key Info:
            Public Key Algorithm: rsaEncryption
                RSA Public-Key: (2048 bit)
                Modulus:
                    00:b9:7f:67:f5:5c:54:b0:4e:b0:74:e3:44:9e:9a:
                    75:57:eb:5c:6e:3d:e5:39:fc:3d:38:43:f8:3b:f1:
                    ac:f0:1d:28:36:24:ae:52:59:9a:b8:ea:4b:e3:f7:
                    ca:0e:c1:14:59:ae:9b:89:14:da:96:41:ab:fb:6d:
                    e5:e8:7a:42:10:c1:0a:6d:ab:69:1f:b6:fb:1b:55:
                    79:92:76:f5:fb:7d:d0:c8:e1:d0:12:54:1d:37:f4:
                    62:4c:12:98:bf:b0:02:44:13:19:2a:f5:29:e4:e0:
                    37:43:b8:23:19:d6:7a:11:bb:41:6d:3c:3c:fd:ac:
                    43:a1:f2:95:09:44:1e:29:2c:1a:dc:81:1a:78:65:
                    65:7c:04:db:52:8a:5d:cb:6d:98:a9:ef:40:e4:0b:
                    f3:3d:fb:76:24:93:75:0e:42:4c:bf:e1:17:a4:95:
                    b1:4f:26:04:52:69:d1:08:15:35:59:9e:92:ff:bc:
                    53:31:9c:8c:e4:90:7e:25:e0:4e:3f:4c:a6:15:ad:
                    58:1e:f1:1c:36:d3:ff:d2:cd:b5:33:c2:c4:d3:c9:
                    fb:7f:ac:fd:72:a4:43:1d:0b:60:bd:45:af:7c:ba:
                    b8:ea:7f:f5:35:10:91:e9:a8:f4:27:b6:16:b8:df:
                    bb:e8:f5:aa:f1:27:14:07:de:fd:e8:f6:a0:17:34:
                    e8:bb
                Exponent: 65537 (0x10001)
        X509v3 extensions:
            X509v3 Basic Constraints: 
                CA:FALSE
            X509v3 Subject Key Identifier: 
                7A:CA:CA:C2:C7:E6:F1:E1:21:15:0E:6F:1D:31:F2:60:6B:B5:52:09
            X509v3 Authority Key Identifier: 
                keyid:33:98:20:DB:02:73:A7:25:C5:D8:7A:DB:8C:D8:0E:C3:7A:2F:68:41
                DirName:/CN=team25-net
                serial:1B:EA:38:4B:C5:56:3A:39:68:7D:BD:C3:12:69:A6:FF:64:14:A6:E7

            X509v3 Extended Key Usage: 
                TLS Web Server Authentication
            X509v3 Key Usage: 
                Digital Signature, Key Encipherment
            X509v3 Subject Alternative Name: 
                DNS:team25-server
    Signature Algorithm: sha256WithRSAEncryption
         af:d9:02:d2:a2:73:8b:55:92:8d:2a:06:b9:7f:0d:aa:b1:e1:
         92:78:cc:39:88:ae:4b:c8:9f:b6:cf:c0:ce:bf:57:28:fb:74:
         ba:95:bb:8c:14:97:6d:b4:24:f8:8d:9b:41:f9:8d:2d:ba:22:
         8b:38:2f:ed:23:ed:21:16:7d:38:ad:ac:2b:15:28:1e:ba:c3:
         87:f1:e0:7b:c5:2f:cd:7e:2e:4f:8b:a8:10:1a:76:da:6e:9f:
         dc:c8:f8:db:d3:72:5c:64:25:c7:fc:a2:86:f7:34:89:54:45:
         7b:89:05:fb:9b:c2:a0:40:bf:56:95:88:94:d5:bc:62:21:00:
         7d:50:51:85:87:ab:fa:c6:07:f6:17:67:b1:d1:2e:1b:0f:ad:
         40:98:84:d0:0a:26:14:d5:4d:8c:32:03:bb:70:02:b5:18:77:
         74:3a:ba:05:69:09:1b:a1:e5:94:29:57:04:c6:fd:32:56:85:
         ed:76:12:3d:97:6c:96:86:9d:60:08:f3:b3:5f:a3:06:41:bf:
         ed:b8:03:b4:83:52:ed:31:64:1f:d3:00:31:3b:42:33:05:09:
         0f:4d:3c:7e:a8:c9:b5:28:d1:7a:fa:18:00:9b:2f:32:75:81:
         e2:6a:8a:ab:12:2c:e6:c3:d0:71:34:e5:2e:3a:05:fd:80:9a:
         e2:13:d0:ee
-----BEGIN CERTIFICATE-----
MIIDczCCAlugAwIBAgIQSP4bUOHB0UhFbqY54FE44zANBgkqhkiG9w0BAQsFADAV
MRMwEQYDVQQDDAp0ZWFtMjUtbmV0MB4XDTIxMDkxMjIyNTMxN1oXDTI0MDgyNzIy
NTMxN1owGDEWMBQGA1UEAwwNdGVhbTI1LXNlcnZlcjCCASIwDQYJKoZIhvcNAQEB
BQADggEPADCCAQoCggEBALl/Z/VcVLBOsHTjRJ6adVfrXG495Tn8PThD+DvxrPAd
KDYkrlJZmrjqS+P3yg7BFFmum4kU2pZBq/tt5eh6QhDBCm2raR+2+xtVeZJ29ft9
0Mjh0BJUHTf0YkwSmL+wAkQTGSr1KeTgN0O4IxnWehG7QW08PP2sQ6HylQlEHiks
GtyBGnhlZXwE21KKXcttmKnvQOQL8z37diSTdQ5CTL/hF6SVsU8mBFJp0QgVNVme
kv+8UzGcjOSQfiXgTj9MphWtWB7xHDbT/9LNtTPCxNPJ+3+s/XKkQx0LYL1Fr3y6
uOp/9TUQkemo9Ce2Frjfu+j1qvEnFAfe/ej2oBc06LsCAwEAAaOBuzCBuDAJBgNV
HRMEAjAAMB0GA1UdDgQWBBR6ysrCx+bx4SEVDm8dMfJga7VSCTBQBgNVHSMESTBH
gBQzmCDbAnOnJcXYetuM2A7Dei9oQaEZpBcwFTETMBEGA1UEAwwKdGVhbTI1LW5l
dIIUG+o4S8VWOjlofb3DEmmm/2QUpucwEwYDVR0lBAwwCgYIKwYBBQUHAwEwCwYD
VR0PBAQDAgWgMBgGA1UdEQQRMA+CDXRlYW0yNS1zZXJ2ZXIwDQYJKoZIhvcNAQEL
BQADggEBAK/ZAtKic4tVko0qBrl/Daqx4ZJ4zDmIrkvIn7bPwM6/Vyj7dLqVu4wU
l220JPiNm0H5jS26Ios4L+0j7SEWfTitrCsVKB66w4fx4HvFL81+Lk+LqBAadtpu
n9zI+NvTclxkJcf8oob3NIlURXuJBfubwqBAv1aViJTVvGIhAH1QUYWHq/rGB/YX
Z7HRLhsPrUCYhNAKJhTVTYwyA7twArUYd3Q6ugVpCRuh5ZQpVwTG/TJWhe12Ej2X
bJaGnWAI87NfowZBv+24A7SDUu0xZB/TADE7QjMFCQ9NPH6oybUo0Xr6GACbLzJ1
geJqiqsSLObD0HE05S46Bf2AmuIT0O4=
-----END CERTIFICATE-----
