Certificate:
    Data:
        Version: 3 (0x2)
        Serial Number:
            fa:ce:8c:e4:ec:5a:75:c1:ec:31:2f:43:57:f0:08:e5
        Signature Algorithm: sha256WithRSAEncryption
        Issuer: CN=team577-net
        Validity
            Not Before: Sep 13 03:43:23 2021 GMT
            Not After : Aug 28 03:43:23 2024 GMT
        Subject: CN=team577-server
        Subject Public Key Info:
            Public Key Algorithm: rsaEncryption
                RSA Public-Key: (2048 bit)
                Modulus:
                    00:c0:0f:e0:47:e5:13:cf:4f:ac:dd:3b:76:1e:6f:
                    41:f5:16:de:6c:7c:c8:78:5d:89:de:83:8f:bb:6d:
                    14:53:02:6e:30:23:fb:b0:11:c6:be:8f:02:7d:9c:
                    14:df:8f:81:0e:82:ad:9d:0d:95:6e:0e:6e:87:93:
                    d1:06:ee:dc:f9:0d:1f:23:12:a7:43:20:72:1f:2f:
                    f0:83:2a:32:16:70:98:07:f8:3e:2e:ee:c1:8a:8a:
                    2d:0c:8b:0d:05:9a:43:73:b3:b4:85:18:c0:18:34:
                    96:9a:3c:1e:42:a6:5f:92:44:6e:f2:e8:32:43:ec:
                    21:ff:29:d1:9f:14:d3:09:38:20:d9:ef:4d:99:42:
                    45:51:27:43:ca:dc:f6:1e:fc:b2:af:7d:43:a6:9e:
                    a7:08:93:19:1d:18:61:d0:ae:33:34:5a:45:f8:d6:
                    f2:65:c1:ef:01:69:87:50:c5:d7:6c:c3:92:22:61:
                    1a:83:5d:3c:df:64:c2:91:5f:62:b6:bd:25:cd:36:
                    a2:94:e8:0f:7f:b7:99:1e:79:86:a2:f5:a6:65:8c:
                    53:68:58:20:9d:9e:62:a3:36:03:2e:8d:c5:50:8b:
                    62:d7:c0:f3:68:39:a0:6c:30:81:6f:a7:b0:5b:a4:
                    6a:a0:67:6c:f9:e9:0d:c0:c9:9b:da:c5:5e:a1:e6:
                    b3:37
                Exponent: 65537 (0x10001)
        X509v3 extensions:
            X509v3 Basic Constraints: 
                CA:FALSE
            X509v3 Subject Key Identifier: 
                CB:B1:F5:73:55:F5:5D:E1:A8:5F:72:BA:A9:FF:AE:B8:14:65:A0:46
            X509v3 Authority Key Identifier: 
                keyid:76:78:A1:A8:A6:51:F0:11:B1:D5:D0:2F:DC:AD:D0:1A:5E:D1:C3:7F
                DirName:/CN=team577-net
                serial:02:81:0E:44:79:08:A4:2E:37:92:CF:6C:15:63:61:FD:76:42:DB:45

            X509v3 Extended Key Usage: 
                TLS Web Server Authentication
            X509v3 Key Usage: 
                Digital Signature, Key Encipherment
            X509v3 Subject Alternative Name: 
                DNS:team577-server
    Signature Algorithm: sha256WithRSAEncryption
         0f:c0:7c:86:14:4b:fa:37:78:90:1a:02:a3:1e:fc:41:fa:b4:
         b7:64:55:49:28:f7:12:0c:53:36:33:c2:db:69:0b:3a:8a:2e:
         33:cf:72:1f:86:9a:3b:52:06:9c:a9:73:6a:20:29:e7:76:23:
         44:38:95:f0:9a:5f:c1:2b:ed:61:5b:4e:92:01:9f:18:65:58:
         da:53:2a:4e:3e:27:5c:da:91:7e:01:ca:eb:3d:fd:70:fe:cd:
         ac:51:24:b5:e2:87:2a:b2:0e:73:2d:17:ea:b8:98:ea:0d:4d:
         ab:e4:5a:d0:e9:25:1e:ce:b8:94:90:26:fc:bd:20:4f:45:ee:
         19:f3:18:14:73:b1:fd:44:26:2d:67:bc:69:30:a0:b9:34:10:
         02:e7:31:ed:02:d3:58:92:55:cd:a4:17:8d:28:ff:8a:d3:0d:
         e9:f8:ca:70:0e:82:2d:fb:52:1c:9a:8e:30:3c:0b:d5:c0:87:
         31:a6:4e:b4:e6:e1:28:36:bd:db:98:f7:06:24:90:df:3c:58:
         59:22:cd:d5:fb:cd:1c:17:43:03:2f:d4:88:7c:9d:2e:6e:ea:
         a0:88:5f:a9:61:b1:ac:3e:74:09:77:a2:99:82:3d:44:fd:ff:
         82:f7:73:c3:75:6f:97:aa:ad:92:d5:4b:d4:48:e8:33:e7:b4:
         7d:9e:75:10
-----BEGIN CERTIFICATE-----
MIIDeDCCAmCgAwIBAgIRAPrOjOTsWnXB7DEvQ1fwCOUwDQYJKoZIhvcNAQELBQAw
FjEUMBIGA1UEAwwLdGVhbTU3Ny1uZXQwHhcNMjEwOTEzMDM0MzIzWhcNMjQwODI4
MDM0MzIzWjAZMRcwFQYDVQQDDA50ZWFtNTc3LXNlcnZlcjCCASIwDQYJKoZIhvcN
AQEBBQADggEPADCCAQoCggEBAMAP4EflE89PrN07dh5vQfUW3mx8yHhdid6Dj7tt
FFMCbjAj+7ARxr6PAn2cFN+PgQ6CrZ0NlW4OboeT0Qbu3PkNHyMSp0Mgch8v8IMq
MhZwmAf4Pi7uwYqKLQyLDQWaQ3OztIUYwBg0lpo8HkKmX5JEbvLoMkPsIf8p0Z8U
0wk4INnvTZlCRVEnQ8rc9h78sq99Q6aepwiTGR0YYdCuMzRaRfjW8mXB7wFph1DF
12zDkiJhGoNdPN9kwpFfYra9Jc02opToD3+3mR55hqL1pmWMU2hYIJ2eYqM2Ay6N
xVCLYtfA82g5oGwwgW+nsFukaqBnbPnpDcDJm9rFXqHmszcCAwEAAaOBvTCBujAJ
BgNVHRMEAjAAMB0GA1UdDgQWBBTLsfVzVfVd4ahfcrqp/664FGWgRjBRBgNVHSME
SjBIgBR2eKGoplHwEbHV0C/crdAaXtHDf6EapBgwFjEUMBIGA1UEAwwLdGVhbTU3
Ny1uZXSCFAKBDkR5CKQuN5LPbBVjYf12QttFMBMGA1UdJQQMMAoGCCsGAQUFBwMB
MAsGA1UdDwQEAwIFoDAZBgNVHREEEjAQgg50ZWFtNTc3LXNlcnZlcjANBgkqhkiG
9w0BAQsFAAOCAQEAD8B8hhRL+jd4kBoCox78Qfq0t2RVSSj3EgxTNjPC22kLOoou
M89yH4aaO1IGnKlzaiAp53YjRDiV8JpfwSvtYVtOkgGfGGVY2lMqTj4nXNqRfgHK
6z39cP7NrFEkteKHKrIOcy0X6riY6g1Nq+Ra0OklHs64lJAm/L0gT0XuGfMYFHOx
/UQmLWe8aTCguTQQAucx7QLTWJJVzaQXjSj/itMN6fjKcA6CLftSHJqOMDwL1cCH
MaZOtObhKDa925j3BiSQ3zxYWSLN1fvNHBdDAy/UiHydLm7qoIhfqWGxrD50CXei
mYI9RP3/gvdzw3Vvl6qtktVL1EjoM+e0fZ51EA==
-----END CERTIFICATE-----
