Certificate:
    Data:
        Version: 3 (0x2)
        Serial Number:
            11:2e:01:06:6e:f3:d2:d7:57:b1:45:22:2f:e8:8b:ec
        Signature Algorithm: sha256WithRSAEncryption
        Issuer: CN=team211-net
        Validity
            Not Before: Sep 13 00:32:02 2021 GMT
            Not After : Aug 28 00:32:02 2024 GMT
        Subject: CN=team211-server
        Subject Public Key Info:
            Public Key Algorithm: rsaEncryption
                RSA Public-Key: (2048 bit)
                Modulus:
                    00:a4:1b:50:51:fe:ff:24:34:c3:37:27:8b:e5:73:
                    f7:c4:9f:45:1e:1c:ce:8a:b0:d8:c9:8a:8c:67:89:
                    7d:1f:96:84:e8:50:ad:79:cb:60:43:35:91:87:44:
                    61:da:f2:ae:b0:28:72:af:96:2f:75:44:0b:a3:25:
                    21:08:cc:17:87:32:30:d4:8e:ee:3f:c8:26:99:14:
                    db:bd:fd:90:5d:dc:5b:30:de:fd:3f:03:00:44:5f:
                    cb:91:6b:af:71:0d:f6:db:d2:20:0c:58:da:ea:0c:
                    80:c5:9b:cb:54:82:6b:71:c9:de:a7:f4:7c:2e:b9:
                    67:9f:97:75:9e:8a:f3:fb:56:11:e0:32:28:8f:d7:
                    ae:13:f3:75:4e:fe:e8:43:eb:07:57:ec:4c:57:35:
                    74:20:e1:0f:16:05:5f:2e:be:8c:7f:4d:60:e6:55:
                    55:7d:9c:c0:34:cb:41:8e:37:4d:90:c8:59:1c:d7:
                    8f:e3:de:e7:e5:a2:75:e9:91:3a:3b:00:5a:55:e9:
                    9d:e1:06:b2:79:0b:59:6e:e4:8f:7e:b1:8a:4e:24:
                    42:9b:81:76:12:c8:bc:c5:72:08:f4:72:d7:98:81:
                    77:be:9c:da:74:8c:64:d1:8f:12:95:d0:58:8e:e6:
                    92:76:9a:ef:8a:21:30:47:76:12:53:9a:6b:09:a7:
                    01:b9
                Exponent: 65537 (0x10001)
        X509v3 extensions:
            X509v3 Basic Constraints: 
                CA:FALSE
            X509v3 Subject Key Identifier: 
                00:CF:B1:13:42:87:EF:1F:DA:93:9E:02:EB:29:FE:16:17:FD:E9:38
            X509v3 Authority Key Identifier: 
                keyid:F5:CD:4C:3E:24:77:93:7C:BB:86:B3:21:52:74:D8:D0:AE:72:E2:C5
                DirName:/CN=team211-net
                serial:67:BF:42:32:C3:96:A6:1E:1C:B0:90:EA:F5:A0:74:E0:44:95:FB:AC

            X509v3 Extended Key Usage: 
                TLS Web Server Authentication
            X509v3 Key Usage: 
                Digital Signature, Key Encipherment
            X509v3 Subject Alternative Name: 
                DNS:team211-server
    Signature Algorithm: sha256WithRSAEncryption
         4b:c4:92:fb:a2:0b:4e:4b:ef:93:20:ee:03:8c:aa:6e:40:1a:
         6c:97:3d:de:a3:31:8e:76:c1:d0:24:64:b3:c8:78:94:d8:64:
         42:2b:bf:34:05:71:0c:e8:f0:c3:b3:7b:58:a0:66:ed:98:47:
         f1:15:80:5f:d4:cd:d5:9f:3e:2a:25:af:d7:c5:b3:51:ee:eb:
         bc:b0:c0:7c:fd:84:95:6a:27:33:ab:c6:1d:24:9f:86:04:ba:
         9e:3a:5c:ef:9e:5c:4e:96:16:46:1b:0c:9e:ee:d9:7d:39:5a:
         87:82:ea:4b:f0:25:40:56:e0:79:c2:c9:72:b2:ff:c4:5d:4a:
         18:5a:2d:bf:e3:4c:13:85:c4:33:45:4a:2c:67:9f:21:32:ff:
         28:93:b1:bd:43:97:d4:17:fb:1a:f9:31:83:10:e1:53:e8:d1:
         61:db:50:f4:8d:4a:22:91:28:0b:47:d2:30:c4:3d:52:91:38:
         c0:9c:93:d4:b9:a7:16:bb:97:bb:90:02:5f:d0:67:af:82:06:
         df:83:78:3b:0f:f3:69:a4:03:48:6c:0c:28:d7:4f:ef:bf:a3:
         8d:34:54:16:93:54:a6:3c:2b:d1:45:d1:b5:ee:07:92:a3:84:
         18:51:2a:2e:40:a3:be:f6:4e:82:cc:67:6e:c2:db:8e:b8:81:
         58:89:8e:51
-----BEGIN CERTIFICATE-----
MIIDdzCCAl+gAwIBAgIQES4BBm7z0tdXsUUiL+iL7DANBgkqhkiG9w0BAQsFADAW
MRQwEgYDVQQDDAt0ZWFtMjExLW5ldDAeFw0yMTA5MTMwMDMyMDJaFw0yNDA4Mjgw
MDMyMDJaMBkxFzAVBgNVBAMMDnRlYW0yMTEtc2VydmVyMIIBIjANBgkqhkiG9w0B
AQEFAAOCAQ8AMIIBCgKCAQEApBtQUf7/JDTDNyeL5XP3xJ9FHhzOirDYyYqMZ4l9
H5aE6FCtectgQzWRh0Rh2vKusChyr5YvdUQLoyUhCMwXhzIw1I7uP8gmmRTbvf2Q
XdxbMN79PwMARF/LkWuvcQ3229IgDFja6gyAxZvLVIJrccnep/R8Lrlnn5d1norz
+1YR4DIoj9euE/N1Tv7oQ+sHV+xMVzV0IOEPFgVfLr6Mf01g5lVVfZzANMtBjjdN
kMhZHNeP497n5aJ16ZE6OwBaVemd4QayeQtZbuSPfrGKTiRCm4F2Esi8xXII9HLX
mIF3vpzadIxk0Y8SldBYjuaSdprviiEwR3YSU5prCacBuQIDAQABo4G9MIG6MAkG
A1UdEwQCMAAwHQYDVR0OBBYEFADPsRNCh+8f2pOeAusp/hYX/ek4MFEGA1UdIwRK
MEiAFPXNTD4kd5N8u4azIVJ02NCucuLFoRqkGDAWMRQwEgYDVQQDDAt0ZWFtMjEx
LW5ldIIUZ79CMsOWph4csJDq9aB04ESV+6wwEwYDVR0lBAwwCgYIKwYBBQUHAwEw
CwYDVR0PBAQDAgWgMBkGA1UdEQQSMBCCDnRlYW0yMTEtc2VydmVyMA0GCSqGSIb3
DQEBCwUAA4IBAQBLxJL7ogtOS++TIO4DjKpuQBpslz3eozGOdsHQJGSzyHiU2GRC
K780BXEM6PDDs3tYoGbtmEfxFYBf1M3Vnz4qJa/XxbNR7uu8sMB8/YSVaiczq8Yd
JJ+GBLqeOlzvnlxOlhZGGwye7tl9OVqHgupL8CVAVuB5wslysv/EXUoYWi2/40wT
hcQzRUosZ58hMv8ok7G9Q5fUF/sa+TGDEOFT6NFh21D0jUoikSgLR9IwxD1SkTjA
nJPUuacWu5e7kAJf0Gevggbfg3g7D/NppANIbAwo10/vv6ONNFQWk1SmPCvRRdG1
7geSo4QYUSouQKO+9k6CzGduwtuOuIFYiY5R
-----END CERTIFICATE-----
