Certificate:
    Data:
        Version: 3 (0x2)
        Serial Number:
            77:1e:08:8f:bc:97:d5:48:b2:04:1d:43:14:61:c0:13
        Signature Algorithm: sha256WithRSAEncryption
        Issuer: CN=team211-net
        Validity
            Not Before: Sep 13 00:32:01 2021 GMT
            Not After : Aug 28 00:32:01 2024 GMT
        Subject: CN=team211-client
        Subject Public Key Info:
            Public Key Algorithm: rsaEncryption
                RSA Public-Key: (2048 bit)
                Modulus:
                    00:ec:82:85:1d:d3:c7:90:8f:f1:20:d1:aa:f4:e9:
                    09:ce:8b:af:ea:14:3d:f2:60:73:ec:b1:32:22:55:
                    c0:34:8d:ea:15:d1:49:9f:3c:72:d4:0e:cb:be:08:
                    6d:89:7d:34:e8:41:11:8b:81:e8:d5:86:7b:4d:3a:
                    47:30:25:35:e0:df:12:f4:d9:30:18:b0:1a:4b:77:
                    89:cb:65:66:5e:2e:9a:8e:b2:04:f1:68:f5:44:f0:
                    f0:9b:7b:52:68:8f:2f:28:d5:1f:2e:f2:7f:b5:a3:
                    7a:d0:67:21:dd:c1:a9:84:6d:a7:85:8e:90:be:51:
                    e0:20:ed:7c:b6:fd:9a:fb:12:1a:ca:35:1f:e6:74:
                    c4:65:49:75:26:dc:ae:5b:9b:f9:38:e0:f1:af:00:
                    b2:db:96:22:df:64:f2:04:0f:fb:aa:02:85:ec:fe:
                    24:49:a0:a1:c1:0e:70:03:02:e8:d6:b8:c5:0b:2d:
                    99:0a:ac:dc:51:ee:54:e7:f0:99:4e:b9:ae:4e:cb:
                    d8:99:23:98:a8:07:29:c8:8d:c3:da:24:0e:28:28:
                    11:95:fb:d8:de:4d:1b:d7:95:aa:5e:7d:b9:bb:93:
                    be:13:b0:0d:64:4e:87:c4:d2:96:2e:63:0b:03:8a:
                    2f:e4:70:6e:5b:74:32:d0:21:57:51:25:3c:b9:0a:
                    cb:95
                Exponent: 65537 (0x10001)
        X509v3 extensions:
            X509v3 Basic Constraints: 
                CA:FALSE
            X509v3 Subject Key Identifier: 
                CA:59:09:75:A1:F5:32:BF:07:AC:B2:E7:94:E5:DE:88:60:BF:07:5E
            X509v3 Authority Key Identifier: 
                keyid:F5:CD:4C:3E:24:77:93:7C:BB:86:B3:21:52:74:D8:D0:AE:72:E2:C5
                DirName:/CN=team211-net
                serial:67:BF:42:32:C3:96:A6:1E:1C:B0:90:EA:F5:A0:74:E0:44:95:FB:AC

            X509v3 Extended Key Usage: 
                TLS Web Client Authentication
            X509v3 Key Usage: 
                Digital Signature
    Signature Algorithm: sha256WithRSAEncryption
         4e:3c:c5:fe:38:1b:b9:2d:db:f2:98:05:12:91:05:73:12:bd:
         ab:e2:75:9d:c9:b0:31:56:ba:b7:f4:8a:1c:b2:02:cb:64:21:
         79:29:3f:44:aa:1d:23:d9:7e:a3:e0:27:17:64:95:b1:b4:68:
         9a:aa:1e:12:64:b7:d6:36:4e:06:56:ef:ed:c6:3e:e3:9c:a8:
         ce:06:43:9a:37:46:4e:b5:a1:4e:58:f1:6f:54:13:68:80:ce:
         2d:c0:a4:ab:99:b2:90:93:e7:e5:28:e2:d1:89:20:e7:c3:3d:
         1f:7e:e9:ce:8e:fc:02:8d:3e:d3:ac:66:36:0e:05:37:99:22:
         6f:2d:a4:15:8b:89:53:84:ee:79:56:ad:7b:d9:23:d1:6d:30:
         63:bd:61:ad:c1:f6:20:10:b3:c4:ca:eb:99:fe:77:03:56:5a:
         26:d3:f2:1c:d0:b2:54:c4:41:80:95:f9:ca:6c:b5:35:2e:00:
         c8:5d:f7:01:2a:bb:7c:0d:d7:64:a8:1d:73:57:da:a4:eb:5e:
         ef:99:0c:7d:9c:d0:1d:01:61:9a:c6:d5:7d:ec:ab:12:43:ce:
         c8:a9:1d:d9:7d:96:a8:56:a2:83:c4:77:9d:a3:a3:64:a6:aa:
         58:68:9f:c5:f6:1e:ca:c8:e5:8e:18:e4:b4:22:8f:ca:83:d8:
         7f:58:e1:e0
-----BEGIN CERTIFICATE-----
MIIDXDCCAkSgAwIBAgIQdx4Ij7yX1UiyBB1DFGHAEzANBgkqhkiG9w0BAQsFADAW
MRQwEgYDVQQDDAt0ZWFtMjExLW5ldDAeFw0yMTA5MTMwMDMyMDFaFw0yNDA4Mjgw
MDMyMDFaMBkxFzAVBgNVBAMMDnRlYW0yMTEtY2xpZW50MIIBIjANBgkqhkiG9w0B
AQEFAAOCAQ8AMIIBCgKCAQEA7IKFHdPHkI/xINGq9OkJzouv6hQ98mBz7LEyIlXA
NI3qFdFJnzxy1A7LvghtiX006EERi4Ho1YZ7TTpHMCU14N8S9NkwGLAaS3eJy2Vm
Xi6ajrIE8Wj1RPDwm3tSaI8vKNUfLvJ/taN60Gch3cGphG2nhY6QvlHgIO18tv2a
+xIayjUf5nTEZUl1JtyuW5v5OODxrwCy25Yi32TyBA/7qgKF7P4kSaChwQ5wAwLo
1rjFCy2ZCqzcUe5U5/CZTrmuTsvYmSOYqAcpyI3D2iQOKCgRlfvY3k0b15WqXn25
u5O+E7ANZE6HxNKWLmMLA4ov5HBuW3Qy0CFXUSU8uQrLlQIDAQABo4GiMIGfMAkG
A1UdEwQCMAAwHQYDVR0OBBYEFMpZCXWh9TK/B6yy55Tl3ohgvwdeMFEGA1UdIwRK
MEiAFPXNTD4kd5N8u4azIVJ02NCucuLFoRqkGDAWMRQwEgYDVQQDDAt0ZWFtMjEx
LW5ldIIUZ79CMsOWph4csJDq9aB04ESV+6wwEwYDVR0lBAwwCgYIKwYBBQUHAwIw
CwYDVR0PBAQDAgeAMA0GCSqGSIb3DQEBCwUAA4IBAQBOPMX+OBu5LdvymAUSkQVz
Er2r4nWdybAxVrq39IocsgLLZCF5KT9Eqh0j2X6j4CcXZJWxtGiaqh4SZLfWNk4G
Vu/txj7jnKjOBkOaN0ZOtaFOWPFvVBNogM4twKSrmbKQk+flKOLRiSDnwz0ffunO
jvwCjT7TrGY2DgU3mSJvLaQVi4lThO55Vq172SPRbTBjvWGtwfYgELPEyuuZ/ncD
Vlom0/Ic0LJUxEGAlfnKbLU1LgDIXfcBKrt8DddkqB1zV9qk617vmQx9nNAdAWGa
xtV97KsSQ87IqR3ZfZaoVqKDxHedo6NkpqpYaJ/F9h7KyOWOGOS0Io/Kg9h/WOHg
-----END CERTIFICATE-----
