Certificate:
    Data:
        Version: 3 (0x2)
        Serial Number:
            f4:88:0c:2a:8a:e7:c6:ee:70:cf:28:4d:50:bd:f8:97
        Signature Algorithm: sha256WithRSAEncryption
        Issuer: CN=team318-net
        Validity
            Not Before: Sep 13 01:37:24 2021 GMT
            Not After : Aug 28 01:37:24 2024 GMT
        Subject: CN=team318-client
        Subject Public Key Info:
            Public Key Algorithm: rsaEncryption
                RSA Public-Key: (2048 bit)
                Modulus:
                    00:b9:70:57:70:28:1a:3a:74:b1:12:d0:e6:61:bf:
                    7f:40:34:82:46:c6:94:51:04:c8:76:79:e7:a2:58:
                    7d:50:5e:0b:fa:9d:21:54:91:76:08:14:e0:1d:20:
                    c9:d9:c9:13:11:a9:1a:96:8f:3d:dd:2f:7d:20:c5:
                    e5:44:c8:cf:4e:c6:e9:1e:95:05:6d:d4:2f:d5:21:
                    93:23:86:20:cc:2c:96:fa:f7:99:aa:3f:be:d8:a2:
                    57:0b:6f:9e:77:0f:8e:bb:32:9a:3d:89:03:c6:e4:
                    21:a9:29:e2:e4:2a:c0:51:ff:f6:3a:a8:84:c4:19:
                    ff:63:1c:73:a4:a4:38:83:2d:8f:cd:6d:3e:0c:18:
                    4d:21:ab:9e:1d:ca:0b:74:25:4e:a4:69:f5:5d:11:
                    43:63:03:f1:fa:fa:33:91:12:b7:68:09:83:64:ee:
                    49:07:ff:a3:04:3f:56:3c:52:27:93:d6:69:6a:c2:
                    2f:b4:d9:cc:ae:f8:7f:31:77:a3:5d:ab:92:0c:49:
                    d3:3c:6b:ba:c4:25:3e:c0:3a:d0:2b:27:9a:6e:e8:
                    59:01:3e:41:cb:f9:6c:37:33:ea:7c:39:77:0c:ce:
                    86:53:39:18:30:b4:f3:8e:dd:fe:d9:7a:ea:5a:88:
                    46:62:cc:c3:ff:05:f4:20:6e:64:c9:f3:e8:09:3d:
                    64:c7
                Exponent: 65537 (0x10001)
        X509v3 extensions:
            X509v3 Basic Constraints: 
                CA:FALSE
            X509v3 Subject Key Identifier: 
                91:92:A7:E4:6F:2C:17:21:EF:D3:F7:78:78:0F:34:0C:51:96:90:CD
            X509v3 Authority Key Identifier: 
                keyid:5D:83:B9:22:ED:E3:C9:69:CD:32:74:B3:E6:D0:20:20:BE:F6:C8:56
                DirName:/CN=team318-net
                serial:1A:84:19:AC:E6:9E:81:93:73:C8:95:A0:56:17:91:C9:14:3F:22:49

            X509v3 Extended Key Usage: 
                TLS Web Client Authentication
            X509v3 Key Usage: 
                Digital Signature
    Signature Algorithm: sha256WithRSAEncryption
         41:d9:ba:ff:de:9d:86:02:9e:8e:58:36:94:52:ab:4d:f5:02:
         9c:e9:b3:03:09:99:f0:3c:ad:2b:ee:8d:98:81:14:8b:8f:a9:
         e2:67:b8:12:55:64:dc:bc:36:8a:9c:80:75:e4:85:c4:27:20:
         91:e9:08:1d:ff:92:6e:ef:bc:62:01:d7:5f:e1:41:34:f5:ae:
         60:b9:ce:f5:28:32:fe:3c:0c:89:3c:01:9e:84:41:4f:b3:5b:
         a9:4f:ec:1b:5a:0c:8f:83:ac:18:27:4c:c0:26:52:b0:73:18:
         20:ff:ec:7f:a6:0b:a4:6f:8f:db:27:0a:07:64:aa:e3:86:de:
         5f:bc:ed:6e:e8:90:be:5f:2a:b8:4a:c4:b4:e2:e7:c5:a8:04:
         c4:83:80:b6:cc:a2:51:28:05:d0:ec:13:f1:ce:af:c2:b4:1d:
         d5:d6:63:fe:aa:52:0b:99:37:f0:7b:b6:27:8e:98:4b:5b:98:
         d9:5a:23:d6:9f:e5:cf:24:ae:1f:de:76:9b:21:8a:bc:d7:12:
         ab:24:7f:6b:c4:71:06:cd:d8:82:20:75:fb:4d:14:5a:5c:8c:
         fe:7a:8a:0c:3f:14:08:64:b5:33:5d:74:f9:20:96:0b:48:26:
         04:12:69:09:55:8f:a1:eb:c1:91:d7:ff:9f:a5:79:52:c3:69:
         b7:d8:4f:d9
-----BEGIN CERTIFICATE-----
MIIDXTCCAkWgAwIBAgIRAPSIDCqK58bucM8oTVC9+JcwDQYJKoZIhvcNAQELBQAw
FjEUMBIGA1UEAwwLdGVhbTMxOC1uZXQwHhcNMjEwOTEzMDEzNzI0WhcNMjQwODI4
MDEzNzI0WjAZMRcwFQYDVQQDDA50ZWFtMzE4LWNsaWVudDCCASIwDQYJKoZIhvcN
AQEBBQADggEPADCCAQoCggEBALlwV3AoGjp0sRLQ5mG/f0A0gkbGlFEEyHZ556JY
fVBeC/qdIVSRdggU4B0gydnJExGpGpaPPd0vfSDF5UTIz07G6R6VBW3UL9UhkyOG
IMwslvr3mao/vtiiVwtvnncPjrsymj2JA8bkIakp4uQqwFH/9jqohMQZ/2Mcc6Sk
OIMtj81tPgwYTSGrnh3KC3QlTqRp9V0RQ2MD8fr6M5ESt2gJg2TuSQf/owQ/VjxS
J5PWaWrCL7TZzK74fzF3o12rkgxJ0zxrusQlPsA60Csnmm7oWQE+Qcv5bDcz6nw5
dwzOhlM5GDC0847d/tl66lqIRmLMw/8F9CBuZMnz6Ak9ZMcCAwEAAaOBojCBnzAJ
BgNVHRMEAjAAMB0GA1UdDgQWBBSRkqfkbywXIe/T93h4DzQMUZaQzTBRBgNVHSME
SjBIgBRdg7ki7ePJac0ydLPm0CAgvvbIVqEapBgwFjEUMBIGA1UEAwwLdGVhbTMx
OC1uZXSCFBqEGazmnoGTc8iVoFYXkckUPyJJMBMGA1UdJQQMMAoGCCsGAQUFBwMC
MAsGA1UdDwQEAwIHgDANBgkqhkiG9w0BAQsFAAOCAQEAQdm6/96dhgKejlg2lFKr
TfUCnOmzAwmZ8DytK+6NmIEUi4+p4me4ElVk3Lw2ipyAdeSFxCcgkekIHf+Sbu+8
YgHXX+FBNPWuYLnO9Sgy/jwMiTwBnoRBT7NbqU/sG1oMj4OsGCdMwCZSsHMYIP/s
f6YLpG+P2ycKB2Sq44beX7ztbuiQvl8quErEtOLnxagExIOAtsyiUSgF0OwT8c6v
wrQd1dZj/qpSC5k38Hu2J46YS1uY2Voj1p/lzySuH952myGKvNcSqyR/a8RxBs3Y
giB1+00UWlyM/nqKDD8UCGS1M110+SCWC0gmBBJpCVWPoevBkdf/n6V5UsNpt9hP
2Q==
-----END CERTIFICATE-----
