Certificate:
    Data:
        Version: 3 (0x2)
        Serial Number:
            d8:69:a1:9b:25:f3:6d:e3:32:fc:a8:c6:83:02:83:ce
        Signature Algorithm: sha256WithRSAEncryption
        Issuer: CN=team318-net
        Validity
            Not Before: Sep 13 01:37:25 2021 GMT
            Not After : Aug 28 01:37:25 2024 GMT
        Subject: CN=team318-server
        Subject Public Key Info:
            Public Key Algorithm: rsaEncryption
                RSA Public-Key: (2048 bit)
                Modulus:
                    00:d7:59:fc:0e:2e:85:0f:3e:f6:08:cd:69:54:3f:
                    3b:3c:6d:cf:31:6d:9f:58:0e:6b:d3:a7:e2:2d:b9:
                    3a:43:bb:ec:e5:ad:17:95:58:61:31:ec:56:67:2c:
                    95:5f:21:9f:18:66:5f:8c:9e:3f:8c:03:79:a7:76:
                    ff:53:a0:a8:f0:a4:e0:75:ed:3f:7f:06:26:95:29:
                    5f:d9:f3:8e:31:37:49:ac:df:d5:c8:25:c8:f6:94:
                    5e:dc:81:5d:a6:77:52:27:2b:1e:b4:38:4f:8f:2c:
                    31:6c:56:8b:16:c6:92:7e:c7:52:04:d1:fb:c8:da:
                    59:ab:cb:c7:b2:8a:1f:51:ed:26:a4:b5:2f:29:67:
                    2a:6c:c6:ae:2c:b1:43:ff:1a:1a:d1:09:3b:45:5e:
                    d0:92:91:60:c1:e9:03:27:b4:9c:19:c0:eb:c6:3e:
                    d6:cb:82:f1:c5:2f:de:16:38:ea:80:2d:82:7d:ef:
                    a8:55:56:c1:74:08:25:13:aa:07:07:e5:31:e3:40:
                    3e:9c:d7:2d:75:38:c6:be:a6:7c:7d:ea:d1:1e:9c:
                    1e:ee:e5:28:7f:b3:40:02:82:7a:2f:68:04:18:23:
                    60:e2:d0:8d:f8:6e:d2:a6:1b:7b:26:c7:67:77:df:
                    10:a3:97:c3:5c:1e:05:a4:fe:e4:16:54:76:6a:59:
                    ab:87
                Exponent: 65537 (0x10001)
        X509v3 extensions:
            X509v3 Basic Constraints: 
                CA:FALSE
            X509v3 Subject Key Identifier: 
                CB:29:2F:15:ED:01:A2:9B:D7:0F:18:0A:D4:64:F4:2C:E2:99:AE:03
            X509v3 Authority Key Identifier: 
                keyid:5D:83:B9:22:ED:E3:C9:69:CD:32:74:B3:E6:D0:20:20:BE:F6:C8:56
                DirName:/CN=team318-net
                serial:1A:84:19:AC:E6:9E:81:93:73:C8:95:A0:56:17:91:C9:14:3F:22:49

            X509v3 Extended Key Usage: 
                TLS Web Server Authentication
            X509v3 Key Usage: 
                Digital Signature, Key Encipherment
            X509v3 Subject Alternative Name: 
                DNS:team318-server
    Signature Algorithm: sha256WithRSAEncryption
         91:04:f9:b0:63:e6:99:d1:a8:16:8a:f2:2c:18:71:ee:a1:46:
         18:b7:22:46:74:54:61:74:12:8b:a3:b6:97:02:98:23:7e:ab:
         75:7d:4b:47:01:2d:55:a4:28:0f:16:59:bf:63:33:92:03:6b:
         0c:75:08:e2:26:69:ec:79:ca:c9:45:da:02:94:cb:4d:4c:e8:
         37:96:24:7b:00:ef:a9:28:cf:c7:41:42:d2:a3:22:b8:c1:c5:
         3a:18:c0:89:d0:2f:a4:18:ad:d2:b5:47:17:8c:cd:9d:84:4a:
         65:63:03:67:e0:73:39:8f:bd:8a:ec:5b:af:1c:f5:1c:24:a8:
         7e:b9:c8:23:93:c2:a6:20:de:bf:f3:ff:f3:ae:32:ab:57:d1:
         ff:4c:25:3b:ab:4c:a1:fa:d1:eb:24:1c:24:2e:a2:1b:29:fb:
         26:02:f8:53:01:89:40:a5:dc:7a:04:98:ba:c0:e1:74:73:68:
         c0:e7:c8:90:01:84:76:90:61:54:ac:ff:88:9f:94:6a:2b:8d:
         62:7b:19:8d:ec:eb:ad:8b:02:68:a9:2d:94:62:82:6e:8f:42:
         8a:61:97:2b:41:eb:ce:74:c0:9d:c9:3b:d9:ee:e1:20:00:bb:
         ab:a5:7d:37:38:ab:72:29:47:3c:ad:b6:f0:97:55:81:04:88:
         8e:a2:7b:bd
-----BEGIN CERTIFICATE-----
MIIDeDCCAmCgAwIBAgIRANhpoZsl823jMvyoxoMCg84wDQYJKoZIhvcNAQELBQAw
FjEUMBIGA1UEAwwLdGVhbTMxOC1uZXQwHhcNMjEwOTEzMDEzNzI1WhcNMjQwODI4
MDEzNzI1WjAZMRcwFQYDVQQDDA50ZWFtMzE4LXNlcnZlcjCCASIwDQYJKoZIhvcN
AQEBBQADggEPADCCAQoCggEBANdZ/A4uhQ8+9gjNaVQ/OzxtzzFtn1gOa9On4i25
OkO77OWtF5VYYTHsVmcslV8hnxhmX4yeP4wDead2/1OgqPCk4HXtP38GJpUpX9nz
jjE3Sazf1cglyPaUXtyBXaZ3UicrHrQ4T48sMWxWixbGkn7HUgTR+8jaWavLx7KK
H1HtJqS1LylnKmzGriyxQ/8aGtEJO0Ve0JKRYMHpAye0nBnA68Y+1suC8cUv3hY4
6oAtgn3vqFVWwXQIJROqBwflMeNAPpzXLXU4xr6mfH3q0R6cHu7lKH+zQAKCei9o
BBgjYOLQjfhu0qYbeybHZ3ffEKOXw1weBaT+5BZUdmpZq4cCAwEAAaOBvTCBujAJ
BgNVHRMEAjAAMB0GA1UdDgQWBBTLKS8V7QGim9cPGArUZPQs4pmuAzBRBgNVHSME
SjBIgBRdg7ki7ePJac0ydLPm0CAgvvbIVqEapBgwFjEUMBIGA1UEAwwLdGVhbTMx
OC1uZXSCFBqEGazmnoGTc8iVoFYXkckUPyJJMBMGA1UdJQQMMAoGCCsGAQUFBwMB
MAsGA1UdDwQEAwIFoDAZBgNVHREEEjAQgg50ZWFtMzE4LXNlcnZlcjANBgkqhkiG
9w0BAQsFAAOCAQEAkQT5sGPmmdGoForyLBhx7qFGGLciRnRUYXQSi6O2lwKYI36r
dX1LRwEtVaQoDxZZv2MzkgNrDHUI4iZp7HnKyUXaApTLTUzoN5YkewDvqSjPx0FC
0qMiuMHFOhjAidAvpBit0rVHF4zNnYRKZWMDZ+BzOY+9iuxbrxz1HCSofrnII5PC
piDev/P/864yq1fR/0wlO6tMofrR6yQcJC6iGyn7JgL4UwGJQKXcegSYusDhdHNo
wOfIkAGEdpBhVKz/iJ+UaiuNYnsZjezrrYsCaKktlGKCbo9CimGXK0HrznTAnck7
2e7hIAC7q6V9NzircilHPK228JdVgQSIjqJ7vQ==
-----END CERTIFICATE-----
