Certificate:
    Data:
        Version: 3 (0x2)
        Serial Number:
            0c:ab:86:e9:bc:f7:5a:fb:bd:dc:7b:18:8d:5a:bd:30
        Signature Algorithm: sha256WithRSAEncryption
        Issuer: CN=team461-net
        Validity
            Not Before: Sep 13 02:48:27 2021 GMT
            Not After : Aug 28 02:48:27 2024 GMT
        Subject: CN=team461-server
        Subject Public Key Info:
            Public Key Algorithm: rsaEncryption
                RSA Public-Key: (2048 bit)
                Modulus:
                    00:c8:f5:10:d8:0b:ae:f5:46:f8:0b:eb:e4:4b:4b:
                    d4:67:dc:20:5d:12:be:d5:1d:ed:c7:33:af:88:27:
                    74:5e:fe:11:c2:d3:41:30:47:37:79:30:57:97:54:
                    3a:77:50:74:f9:9e:b5:d8:d6:d1:9b:ed:05:36:f5:
                    23:0d:40:d7:a1:0a:bf:ce:6a:a0:9e:fa:67:29:b6:
                    08:25:25:2a:35:92:88:57:0e:a8:7e:a6:ef:97:68:
                    8c:d1:9c:f5:b0:9e:22:96:38:a4:67:99:67:e6:be:
                    43:c3:c4:a8:c7:3d:80:be:46:71:d1:c1:24:03:06:
                    a5:c5:c1:9e:e3:4e:dd:02:f6:e1:5a:68:a1:5c:ab:
                    b9:28:5a:cc:af:a1:1a:c9:95:c9:ce:e9:b8:b9:7a:
                    d8:a1:54:f6:e8:e3:b9:be:51:26:63:ae:d9:b0:1b:
                    c3:12:a8:a2:fe:8c:16:c9:4e:ec:97:61:32:dd:08:
                    49:e5:fc:76:d5:b3:e5:d5:57:32:fb:73:3e:ce:44:
                    ce:b1:1e:1a:57:6b:cf:9c:c8:67:61:e8:92:87:09:
                    2f:a9:55:df:df:47:6a:dd:f7:e6:59:df:dd:c8:05:
                    7b:ef:bb:45:71:fd:64:1c:cd:9a:eb:50:25:7d:81:
                    c5:64:52:49:1b:4d:f0:8f:46:d9:ce:b0:be:80:49:
                    3a:d5
                Exponent: 65537 (0x10001)
        X509v3 extensions:
            X509v3 Basic Constraints: 
                CA:FALSE
            X509v3 Subject Key Identifier: 
                79:DF:B4:D9:AF:BF:6D:5B:7B:74:DA:C7:37:2A:DE:90:1B:2D:D2:53
            X509v3 Authority Key Identifier: 
                keyid:50:F7:C7:0B:A6:ED:11:4D:8E:B7:F0:3B:E0:D1:B7:8B:C6:05:15:C4
                DirName:/CN=team461-net
                serial:55:36:8A:82:15:9E:CC:D8:20:DA:22:7D:91:C2:22:2E:6B:9A:5B:2D

            X509v3 Extended Key Usage: 
                TLS Web Server Authentication
            X509v3 Key Usage: 
                Digital Signature, Key Encipherment
            X509v3 Subject Alternative Name: 
                DNS:team461-server
    Signature Algorithm: sha256WithRSAEncryption
         01:db:d0:58:0a:0f:1d:3b:47:50:9f:35:80:cf:63:4b:4b:f3:
         d4:0f:0d:2c:43:6c:34:5f:aa:a8:38:38:5a:a1:50:6e:3b:c6:
         44:17:3d:8c:80:31:d5:a2:49:5e:18:61:bf:08:ec:f4:6a:5f:
         a5:b0:97:26:26:75:bb:3b:bb:ab:74:e6:be:7a:95:d1:17:5e:
         93:fa:93:f9:1f:03:0a:46:a4:42:b7:4a:25:e9:b5:c0:15:29:
         af:e3:1a:bc:ed:54:82:b7:2b:c8:19:ef:43:78:e5:61:8f:6d:
         07:01:94:89:d4:ca:0a:ae:09:71:50:87:c6:4c:9b:b7:74:0c:
         9e:1e:b6:76:30:d5:f4:2b:ad:8c:3e:de:93:13:2a:17:5d:5f:
         c1:25:bb:61:4a:fd:83:a9:71:fc:97:37:9d:68:4a:67:7b:e1:
         c4:3a:52:89:9b:a7:07:5c:d4:5b:ad:1f:e3:d3:f9:fc:6c:32:
         ed:1c:5c:2d:bb:c5:93:13:bc:2f:a3:d5:b7:2f:3a:4a:ac:c9:
         01:2c:d3:d0:20:13:f7:29:0d:cd:a5:87:da:20:0e:a3:65:48:
         e7:d4:27:d3:5d:f4:91:fa:8d:51:95:cb:cc:6f:ba:0b:62:ef:
         69:12:37:88:af:d6:ee:d0:00:70:d2:84:2f:9d:82:50:92:71:
         0b:d1:04:67
-----BEGIN CERTIFICATE-----
MIIDdzCCAl+gAwIBAgIQDKuG6bz3Wvu93HsYjVq9MDANBgkqhkiG9w0BAQsFADAW
MRQwEgYDVQQDDAt0ZWFtNDYxLW5ldDAeFw0yMTA5MTMwMjQ4MjdaFw0yNDA4Mjgw
MjQ4MjdaMBkxFzAVBgNVBAMMDnRlYW00NjEtc2VydmVyMIIBIjANBgkqhkiG9w0B
AQEFAAOCAQ8AMIIBCgKCAQEAyPUQ2Auu9Ub4C+vkS0vUZ9wgXRK+1R3txzOviCd0
Xv4RwtNBMEc3eTBXl1Q6d1B0+Z612NbRm+0FNvUjDUDXoQq/zmqgnvpnKbYIJSUq
NZKIVw6ofqbvl2iM0Zz1sJ4iljikZ5ln5r5Dw8Soxz2AvkZx0cEkAwalxcGe407d
AvbhWmihXKu5KFrMr6EayZXJzum4uXrYoVT26OO5vlEmY67ZsBvDEqii/owWyU7s
l2Ey3QhJ5fx21bPl1Vcy+3M+zkTOsR4aV2vPnMhnYeiShwkvqVXf30dq3ffmWd/d
yAV777tFcf1kHM2a61AlfYHFZFJJG03wj0bZzrC+gEk61QIDAQABo4G9MIG6MAkG
A1UdEwQCMAAwHQYDVR0OBBYEFHnftNmvv21be3Taxzcq3pAbLdJTMFEGA1UdIwRK
MEiAFFD3xwum7RFNjrfwO+DRt4vGBRXEoRqkGDAWMRQwEgYDVQQDDAt0ZWFtNDYx
LW5ldIIUVTaKghWezNgg2iJ9kcIiLmuaWy0wEwYDVR0lBAwwCgYIKwYBBQUHAwEw
CwYDVR0PBAQDAgWgMBkGA1UdEQQSMBCCDnRlYW00NjEtc2VydmVyMA0GCSqGSIb3
DQEBCwUAA4IBAQAB29BYCg8dO0dQnzWAz2NLS/PUDw0sQ2w0X6qoODhaoVBuO8ZE
Fz2MgDHVokleGGG/COz0al+lsJcmJnW7O7urdOa+epXRF16T+pP5HwMKRqRCt0ol
6bXAFSmv4xq87VSCtyvIGe9DeOVhj20HAZSJ1MoKrglxUIfGTJu3dAyeHrZ2MNX0
K62MPt6TEyoXXV/BJbthSv2DqXH8lzedaEpne+HEOlKJm6cHXNRbrR/j0/n8bDLt
HFwtu8WTE7wvo9W3LzpKrMkBLNPQIBP3KQ3NpYfaIA6jZUjn1CfTXfSR+o1RlcvM
b7oLYu9pEjeIr9bu0ABw0oQvnYJQknEL0QRn
-----END CERTIFICATE-----
