Certificate:
    Data:
        Version: 3 (0x2)
        Serial Number:
            23:3c:a4:8a:d0:c6:8f:0c:97:d6:72:47:f5:31:6b:c0
        Signature Algorithm: sha256WithRSAEncryption
        Issuer: CN=team751-net
        Validity
            Not Before: Sep 13 05:56:18 2021 GMT
            Not After : Aug 28 05:56:18 2024 GMT
        Subject: CN=team751-client
        Subject Public Key Info:
            Public Key Algorithm: rsaEncryption
                RSA Public-Key: (2048 bit)
                Modulus:
                    00:ee:e1:ff:67:09:80:16:c1:7c:b2:ce:d7:51:42:
                    a7:37:d4:9b:ef:b6:c7:c4:c7:22:1e:f5:6e:b5:3a:
                    91:c9:7a:d7:03:1a:db:0c:62:7e:8b:b0:56:18:43:
                    34:ce:f8:20:a9:f7:87:38:27:76:b7:e5:07:bd:81:
                    25:d2:10:8c:a0:40:da:8e:65:a2:7c:6a:ac:fc:b2:
                    5c:7c:59:65:49:17:09:05:4b:dd:f3:ed:9e:cb:53:
                    58:e0:42:09:da:51:19:7c:73:a8:52:9f:d6:9b:2b:
                    dd:e9:40:ab:b5:91:96:c6:c6:33:d5:62:08:8a:e1:
                    27:de:f0:8e:6b:d5:f6:e4:76:29:86:9f:4d:61:aa:
                    01:9d:00:8e:af:13:6b:06:e2:d2:1f:dc:e3:4b:3c:
                    dc:e4:5e:eb:bd:c3:77:fd:99:58:f2:b8:b3:1c:d0:
                    b2:64:f0:2d:04:18:63:38:51:db:2b:8f:4b:8f:c4:
                    0f:c4:f1:ab:37:e8:62:6d:3d:23:9a:cf:45:9f:93:
                    e3:6e:bc:29:0f:4c:a1:4e:70:f4:86:df:71:83:06:
                    d8:f7:6b:1b:83:b9:c7:b3:6f:01:ee:9a:5a:2b:dc:
                    70:ee:16:b2:30:25:63:02:aa:9d:2a:90:2a:df:99:
                    e5:b8:2e:7e:a9:78:46:f6:e6:a3:e3:c2:9f:7a:a2:
                    96:bf
                Exponent: 65537 (0x10001)
        X509v3 extensions:
            X509v3 Basic Constraints: 
                CA:FALSE
            X509v3 Subject Key Identifier: 
                D6:9B:11:EC:0B:0D:01:FB:48:75:05:61:CF:76:11:7F:E6:D0:A0:4E
            X509v3 Authority Key Identifier: 
                keyid:CA:AB:07:9C:01:76:E8:84:D1:6C:F6:19:88:6C:6B:05:9B:F7:50:0D
                DirName:/CN=team751-net
                serial:08:A7:10:1B:60:61:C7:E6:86:3D:E9:7D:6B:B6:25:28:80:27:77:89

            X509v3 Extended Key Usage: 
                TLS Web Client Authentication
            X509v3 Key Usage: 
                Digital Signature
    Signature Algorithm: sha256WithRSAEncryption
         0b:57:52:14:ea:fc:b0:1c:30:ad:be:1e:3b:d3:10:b3:71:4d:
         f1:0d:e3:e2:8e:1e:68:41:b2:38:f2:fe:ac:ea:03:4f:ca:e0:
         26:18:25:64:40:5d:e2:f1:73:6d:44:f6:a5:10:80:5d:6d:82:
         14:c9:c2:46:e7:a3:7c:25:17:bd:16:d0:1b:b2:a4:94:98:25:
         b1:cd:cd:f3:d3:77:27:3d:10:e8:d2:0e:0e:2c:0c:76:8c:3c:
         d4:d0:16:fe:cf:fb:a8:7b:01:60:5d:9a:43:8f:b2:8e:b8:f1:
         ab:4b:9a:10:df:97:46:e0:b4:f5:5e:cb:d0:03:0c:54:47:7f:
         42:01:d7:af:00:02:83:a0:b0:7d:2d:4e:79:4e:ae:46:de:b8:
         c2:c8:9b:85:fb:5f:fe:0d:4c:b7:37:8e:11:72:7f:57:18:f4:
         cb:e5:37:1e:a2:a9:f9:fe:bb:6f:71:c1:bb:01:46:cd:bd:8d:
         28:0c:b3:1a:82:4b:be:10:e6:5e:c1:e9:00:4b:4e:44:62:fe:
         b1:0c:72:0c:52:0b:5e:c8:13:f2:53:1a:4c:95:8f:3f:e3:1f:
         50:e1:f0:70:1f:c8:5f:17:f5:3a:a4:c4:b9:61:34:f8:ee:ff:
         d5:f3:a1:92:92:c9:8a:5f:ac:40:24:04:fb:f8:de:00:9e:72:
         2a:4d:3e:9a
-----BEGIN CERTIFICATE-----
MIIDXDCCAkSgAwIBAgIQIzykitDGjwyX1nJH9TFrwDANBgkqhkiG9w0BAQsFADAW
MRQwEgYDVQQDDAt0ZWFtNzUxLW5ldDAeFw0yMTA5MTMwNTU2MThaFw0yNDA4Mjgw
NTU2MThaMBkxFzAVBgNVBAMMDnRlYW03NTEtY2xpZW50MIIBIjANBgkqhkiG9w0B
AQEFAAOCAQ8AMIIBCgKCAQEA7uH/ZwmAFsF8ss7XUUKnN9Sb77bHxMciHvVutTqR
yXrXAxrbDGJ+i7BWGEM0zvggqfeHOCd2t+UHvYEl0hCMoEDajmWifGqs/LJcfFll
SRcJBUvd8+2ey1NY4EIJ2lEZfHOoUp/Wmyvd6UCrtZGWxsYz1WIIiuEn3vCOa9X2
5HYphp9NYaoBnQCOrxNrBuLSH9zjSzzc5F7rvcN3/ZlY8rizHNCyZPAtBBhjOFHb
K49Lj8QPxPGrN+hibT0jms9Fn5PjbrwpD0yhTnD0ht9xgwbY92sbg7nHs28B7ppa
K9xw7hayMCVjAqqdKpAq35nluC5+qXhG9uaj48KfeqKWvwIDAQABo4GiMIGfMAkG
A1UdEwQCMAAwHQYDVR0OBBYEFNabEewLDQH7SHUFYc92EX/m0KBOMFEGA1UdIwRK
MEiAFMqrB5wBduiE0Wz2GYhsawWb91ANoRqkGDAWMRQwEgYDVQQDDAt0ZWFtNzUx
LW5ldIIUCKcQG2Bhx+aGPel9a7YlKIAnd4kwEwYDVR0lBAwwCgYIKwYBBQUHAwIw
CwYDVR0PBAQDAgeAMA0GCSqGSIb3DQEBCwUAA4IBAQALV1IU6vywHDCtvh470xCz
cU3xDePijh5oQbI48v6s6gNPyuAmGCVkQF3i8XNtRPalEIBdbYIUycJG56N8JRe9
FtAbsqSUmCWxzc3z03cnPRDo0g4OLAx2jDzU0Bb+z/uoewFgXZpDj7KOuPGrS5oQ
35dG4LT1XsvQAwxUR39CAdevAAKDoLB9LU55Tq5G3rjCyJuF+1/+DUy3N44Rcn9X
GPTL5Tceoqn5/rtvccG7AUbNvY0oDLMagku+EOZewekAS05EYv6xDHIMUgteyBPy
UxpMlY8/4x9Q4fBwH8hfF/U6pMS5YTT47v/V86GSksmKX6xAJAT7+N4AnnIqTT6a
-----END CERTIFICATE-----
