Certificate:
    Data:
        Version: 3 (0x2)
        Serial Number:
            99:a4:00:f3:79:7b:1c:df:fd:96:39:83:57:d6:98:5f
        Signature Algorithm: sha256WithRSAEncryption
        Issuer: CN=team751-net
        Validity
            Not Before: Sep 13 05:56:19 2021 GMT
            Not After : Aug 28 05:56:19 2024 GMT
        Subject: CN=team751-server
        Subject Public Key Info:
            Public Key Algorithm: rsaEncryption
                RSA Public-Key: (2048 bit)
                Modulus:
                    00:b3:7e:cc:cd:5b:9f:41:f3:c4:3e:ff:3c:9a:6b:
                    4c:2f:9b:78:34:03:07:08:c1:9a:3f:ff:5e:9e:af:
                    45:a8:d0:cc:d2:3d:01:3f:78:74:d2:aa:69:f4:e9:
                    23:e9:93:2f:87:9b:4d:21:0b:ee:11:a5:1e:9e:1f:
                    60:08:28:b8:7b:77:18:73:33:35:25:e9:94:ad:52:
                    92:84:c4:e1:80:a9:e9:ea:48:30:58:f8:71:1e:79:
                    09:ab:75:c9:79:53:82:ad:6a:af:ab:9b:02:93:09:
                    1e:9c:98:b5:36:cf:ba:5c:fa:38:18:eb:66:c2:a2:
                    72:a2:fd:a8:5e:a0:6e:11:82:27:3c:ea:80:be:ac:
                    7f:ac:ff:69:32:40:61:53:29:02:bd:6f:ca:a9:26:
                    48:db:44:6b:f9:b6:58:71:21:4d:03:54:1c:76:fa:
                    ab:e4:cf:e5:25:6e:9e:ae:7b:1c:87:74:08:ea:c4:
                    39:2c:6f:19:1f:e8:6a:a2:65:92:3b:20:fd:fb:e0:
                    f8:b0:eb:a0:3c:70:f7:12:d3:e3:27:1e:0d:02:49:
                    43:a1:23:f2:a3:57:fe:ae:1c:e2:6f:5f:7d:ac:7c:
                    2b:40:02:98:cf:01:7f:2d:93:8e:a6:2c:bf:cb:52:
                    35:b2:2e:7c:ae:83:67:5a:ad:62:82:bb:43:f3:06:
                    19:09
                Exponent: 65537 (0x10001)
        X509v3 extensions:
            X509v3 Basic Constraints: 
                CA:FALSE
            X509v3 Subject Key Identifier: 
                F0:43:4A:86:2D:18:2C:B6:46:84:44:B7:3E:FE:4D:62:F9:1D:B4:A5
            X509v3 Authority Key Identifier: 
                keyid:CA:AB:07:9C:01:76:E8:84:D1:6C:F6:19:88:6C:6B:05:9B:F7:50:0D
                DirName:/CN=team751-net
                serial:08:A7:10:1B:60:61:C7:E6:86:3D:E9:7D:6B:B6:25:28:80:27:77:89

            X509v3 Extended Key Usage: 
                TLS Web Server Authentication
            X509v3 Key Usage: 
                Digital Signature, Key Encipherment
            X509v3 Subject Alternative Name: 
                DNS:team751-server
    Signature Algorithm: sha256WithRSAEncryption
         1a:a9:af:fd:cf:af:f4:a3:e6:18:b5:f6:1d:85:ff:61:03:dd:
         b8:3d:74:46:a6:ad:a9:77:63:70:8e:d4:c7:b8:e1:24:55:df:
         bb:85:2a:45:11:52:a0:1d:53:0b:7b:5d:67:24:64:6a:5a:1d:
         65:a7:bd:ab:b7:06:00:d0:ac:fe:61:a5:f9:c0:76:a0:ea:8b:
         4f:43:25:bb:dd:09:2c:c5:9d:b6:9f:9f:bb:00:ef:a7:a2:41:
         d2:12:b5:32:0d:5e:62:c2:a4:fe:82:59:a7:6d:da:f1:c9:3c:
         0c:f2:99:91:aa:a8:f7:47:23:9d:09:b5:ce:9c:d6:89:0d:15:
         c1:f3:36:41:3d:1d:12:fb:9b:b2:e6:2e:e5:e6:7b:0d:46:7b:
         4b:bd:e3:12:53:58:c6:46:5c:0a:da:49:15:de:3a:a1:b8:e5:
         d7:ff:5c:6f:1f:4f:6e:cd:72:91:d6:1c:7e:fe:d2:6a:49:19:
         85:ff:f4:21:3b:8e:a4:59:cd:11:fe:4d:01:51:e7:44:38:1f:
         49:cd:70:9d:eb:2f:77:a2:2d:ab:e4:05:40:20:3e:ae:11:c3:
         06:18:ff:2c:06:fb:a6:9d:2e:f6:21:1c:cd:aa:34:4d:67:80:
         0f:75:77:25:90:20:29:a0:f1:e3:b5:0b:34:bb:1f:eb:83:9c:
         95:e7:54:3c
-----BEGIN CERTIFICATE-----
MIIDeDCCAmCgAwIBAgIRAJmkAPN5exzf/ZY5g1fWmF8wDQYJKoZIhvcNAQELBQAw
FjEUMBIGA1UEAwwLdGVhbTc1MS1uZXQwHhcNMjEwOTEzMDU1NjE5WhcNMjQwODI4
MDU1NjE5WjAZMRcwFQYDVQQDDA50ZWFtNzUxLXNlcnZlcjCCASIwDQYJKoZIhvcN
AQEBBQADggEPADCCAQoCggEBALN+zM1bn0HzxD7/PJprTC+beDQDBwjBmj//Xp6v
RajQzNI9AT94dNKqafTpI+mTL4ebTSEL7hGlHp4fYAgouHt3GHMzNSXplK1SkoTE
4YCp6epIMFj4cR55Cat1yXlTgq1qr6ubApMJHpyYtTbPulz6OBjrZsKicqL9qF6g
bhGCJzzqgL6sf6z/aTJAYVMpAr1vyqkmSNtEa/m2WHEhTQNUHHb6q+TP5SVunq57
HId0COrEOSxvGR/oaqJlkjsg/fvg+LDroDxw9xLT4yceDQJJQ6Ej8qNX/q4c4m9f
fax8K0ACmM8Bfy2TjqYsv8tSNbIufK6DZ1qtYoK7Q/MGGQkCAwEAAaOBvTCBujAJ
BgNVHRMEAjAAMB0GA1UdDgQWBBTwQ0qGLRgstkaERLc+/k1i+R20pTBRBgNVHSME
SjBIgBTKqwecAXbohNFs9hmIbGsFm/dQDaEapBgwFjEUMBIGA1UEAwwLdGVhbTc1
MS1uZXSCFAinEBtgYcfmhj3pfWu2JSiAJ3eJMBMGA1UdJQQMMAoGCCsGAQUFBwMB
MAsGA1UdDwQEAwIFoDAZBgNVHREEEjAQgg50ZWFtNzUxLXNlcnZlcjANBgkqhkiG
9w0BAQsFAAOCAQEAGqmv/c+v9KPmGLX2HYX/YQPduD10RqatqXdjcI7Ux7jhJFXf
u4UqRRFSoB1TC3tdZyRkalodZae9q7cGANCs/mGl+cB2oOqLT0Mlu90JLMWdtp+f
uwDvp6JB0hK1Mg1eYsKk/oJZp23a8ck8DPKZkaqo90cjnQm1zpzWiQ0VwfM2QT0d
EvubsuYu5eZ7DUZ7S73jElNYxkZcCtpJFd46objl1/9cbx9Pbs1ykdYcfv7SakkZ
hf/0ITuOpFnNEf5NAVHnRDgfSc1wnesvd6Itq+QFQCA+rhHDBhj/LAb7pp0u9iEc
zao0TWeAD3V3JZAgKaDx47ULNLsf64OcledUPA==
-----END CERTIFICATE-----
