Certificate:
    Data:
        Version: 3 (0x2)
        Serial Number:
            77:08:38:43:54:54:51:47:8f:18:69:0c:f2:d3:e0:67
        Signature Algorithm: sha256WithRSAEncryption
        Issuer: CN=team625-net
        Validity
            Not Before: Sep 13 04:11:29 2021 GMT
            Not After : Aug 28 04:11:29 2024 GMT
        Subject: CN=team625-client
        Subject Public Key Info:
            Public Key Algorithm: rsaEncryption
                RSA Public-Key: (2048 bit)
                Modulus:
                    00:d0:87:12:5f:98:58:1d:43:bc:ae:f2:e9:07:e7:
                    fa:e2:4e:b3:54:4c:78:49:c4:69:cc:ca:a2:6d:6b:
                    81:29:f0:10:e4:89:ab:9e:9b:35:c3:73:08:05:8c:
                    3f:8c:ff:11:49:99:3f:51:7e:8b:62:0d:71:46:1a:
                    1e:70:b3:98:ab:ba:ca:9a:ed:05:f7:1e:1e:0a:30:
                    93:70:76:b2:6d:c6:30:cb:25:85:2b:03:09:52:9f:
                    48:17:99:0f:c7:99:22:b7:c9:a1:fa:bb:e7:ad:c9:
                    f1:18:76:c9:60:f9:52:7e:6a:0f:c5:fa:36:f9:c7:
                    56:59:81:ca:15:c9:92:33:59:6c:33:f4:32:a9:5e:
                    6a:aa:a9:ec:76:89:9f:f0:ad:61:7f:54:82:98:3a:
                    ea:bc:a2:46:fb:81:17:04:36:e3:6d:4c:1d:99:e7:
                    79:bb:5b:bb:4a:00:45:1f:9f:53:bf:66:3b:64:46:
                    c9:81:3a:24:43:93:df:04:c3:2d:6f:34:9a:01:bd:
                    1a:9c:84:8c:3d:14:02:a7:75:5b:b1:bd:d1:10:f0:
                    51:a6:20:f5:d3:c5:40:57:1a:c2:57:a2:1a:79:15:
                    59:8b:32:b4:5a:24:1c:71:8f:68:fb:7b:a7:0d:ce:
                    1d:34:58:b7:ef:18:00:e2:00:20:62:46:b9:d6:be:
                    85:25
                Exponent: 65537 (0x10001)
        X509v3 extensions:
            X509v3 Basic Constraints: 
                CA:FALSE
            X509v3 Subject Key Identifier: 
                F9:5C:51:08:DF:AA:E7:ED:FB:DB:78:E5:D4:4F:E1:0C:95:86:5A:FB
            X509v3 Authority Key Identifier: 
                keyid:23:D2:B5:06:27:D0:8D:72:F9:C9:36:BF:99:13:71:FD:70:5E:48:8A
                DirName:/CN=team625-net
                serial:2F:98:0C:F8:BE:43:75:40:EF:9A:2D:52:C3:5F:36:C2:6A:D6:57:13

            X509v3 Extended Key Usage: 
                TLS Web Client Authentication
            X509v3 Key Usage: 
                Digital Signature
    Signature Algorithm: sha256WithRSAEncryption
         4c:e2:32:f7:3d:ff:53:e3:3a:65:40:99:60:95:f4:d1:4f:30:
         23:41:f7:9f:67:b2:23:28:41:5e:a6:3a:05:5b:08:4b:7b:cc:
         f2:ce:60:00:df:42:eb:df:e2:49:aa:9a:94:75:03:ec:db:47:
         de:e7:0c:2a:16:af:99:29:4b:da:0b:a0:aa:1f:4e:27:dd:ba:
         04:18:46:16:eb:73:c7:48:c1:14:6b:19:b1:59:6f:b0:9b:5c:
         60:ad:7f:4f:be:0d:cf:79:d8:84:34:61:54:cf:61:da:cc:73:
         31:02:c8:0e:05:34:12:e1:83:6f:10:ac:75:d1:28:4a:95:c0:
         1f:e5:75:5e:31:a0:42:fa:ab:d4:7f:fb:d4:b8:c0:49:f2:e6:
         de:78:03:fa:26:98:07:1c:98:e2:ed:e1:ca:18:64:16:e5:8d:
         72:80:f7:f2:99:48:61:f2:3c:cd:c6:1f:f8:76:ea:ad:5b:66:
         c5:62:38:0c:a0:a2:63:fd:e4:35:64:a0:a1:f9:00:08:c1:b9:
         ae:27:8f:5e:e8:ea:b4:4a:1d:9c:99:b8:67:87:ee:f0:4e:83:
         f1:43:0f:f7:d0:65:28:90:27:1b:6e:98:56:ae:11:88:c8:00:
         5f:e5:d8:4c:b4:8e:28:80:07:3b:4e:c0:3d:15:c6:e1:9b:0a:
         8b:1e:93:81
-----BEGIN CERTIFICATE-----
MIIDXDCCAkSgAwIBAgIQdwg4Q1RUUUePGGkM8tPgZzANBgkqhkiG9w0BAQsFADAW
MRQwEgYDVQQDDAt0ZWFtNjI1LW5ldDAeFw0yMTA5MTMwNDExMjlaFw0yNDA4Mjgw
NDExMjlaMBkxFzAVBgNVBAMMDnRlYW02MjUtY2xpZW50MIIBIjANBgkqhkiG9w0B
AQEFAAOCAQ8AMIIBCgKCAQEA0IcSX5hYHUO8rvLpB+f64k6zVEx4ScRpzMqibWuB
KfAQ5Imrnps1w3MIBYw/jP8RSZk/UX6LYg1xRhoecLOYq7rKmu0F9x4eCjCTcHay
bcYwyyWFKwMJUp9IF5kPx5kit8mh+rvnrcnxGHbJYPlSfmoPxfo2+cdWWYHKFcmS
M1lsM/QyqV5qqqnsdomf8K1hf1SCmDrqvKJG+4EXBDbjbUwdmed5u1u7SgBFH59T
v2Y7ZEbJgTokQ5PfBMMtbzSaAb0anISMPRQCp3Vbsb3REPBRpiD108VAVxrCV6Ia
eRVZizK0WiQccY9o+3unDc4dNFi37xgA4gAgYka51r6FJQIDAQABo4GiMIGfMAkG
A1UdEwQCMAAwHQYDVR0OBBYEFPlcUQjfquft+9t45dRP4QyVhlr7MFEGA1UdIwRK
MEiAFCPStQYn0I1y+ck2v5kTcf1wXkiKoRqkGDAWMRQwEgYDVQQDDAt0ZWFtNjI1
LW5ldIIUL5gM+L5DdUDvmi1Sw182wmrWVxMwEwYDVR0lBAwwCgYIKwYBBQUHAwIw
CwYDVR0PBAQDAgeAMA0GCSqGSIb3DQEBCwUAA4IBAQBM4jL3Pf9T4zplQJlglfTR
TzAjQfefZ7IjKEFepjoFWwhLe8zyzmAA30Lr3+JJqpqUdQPs20fe5wwqFq+ZKUva
C6CqH04n3boEGEYW63PHSMEUaxmxWW+wm1xgrX9Pvg3PediENGFUz2HazHMxAsgO
BTQS4YNvEKx10ShKlcAf5XVeMaBC+qvUf/vUuMBJ8ubeeAP6JpgHHJji7eHKGGQW
5Y1ygPfymUhh8jzNxh/4duqtW2bFYjgMoKJj/eQ1ZKCh+QAIwbmuJ49e6Oq0Sh2c
mbhnh+7wToPxQw/30GUokCcbbphWrhGIyABf5dhMtI4ogAc7TsA9FcbhmwqLHpOB
-----END CERTIFICATE-----
