Certificate:
    Data:
        Version: 3 (0x2)
        Serial Number:
            1b:d0:b2:14:a3:9d:ab:88:5d:d7:fd:10:c0:34:4a:f8
        Signature Algorithm: sha256WithRSAEncryption
        Issuer: CN=team580-net
        Validity
            Not Before: Sep 13 04:04:17 2021 GMT
            Not After : Aug 28 04:04:17 2024 GMT
        Subject: CN=team580-server
        Subject Public Key Info:
            Public Key Algorithm: rsaEncryption
                RSA Public-Key: (2048 bit)
                Modulus:
                    00:b6:0b:5a:64:44:42:15:a2:ee:fc:66:2d:40:75:
                    5a:2c:52:6c:4f:65:25:89:68:8e:61:21:61:6e:33:
                    2f:2a:0b:db:76:90:ab:73:f0:14:74:5f:eb:02:01:
                    eb:76:a4:6e:33:da:83:f0:20:d5:4e:ef:36:36:f4:
                    07:69:fd:25:dc:af:bb:b6:ba:85:6c:3d:24:da:97:
                    fa:bf:33:e4:76:f9:16:26:75:af:14:57:e5:8d:7c:
                    8f:01:99:67:0c:b8:53:cf:55:fb:45:e3:f4:d8:86:
                    84:4a:de:ba:be:96:77:5b:12:30:37:50:c5:e2:66:
                    99:eb:c5:d5:56:57:37:b4:66:fb:15:a3:c8:55:45:
                    f7:0a:26:f9:c5:54:ab:d4:c4:e8:bb:04:68:11:04:
                    7d:9a:d3:94:99:fd:6c:7f:81:7f:71:b6:93:d5:8f:
                    c3:bb:bb:6e:f0:44:8d:ab:71:e6:de:35:78:58:ec:
                    c9:59:40:8d:72:0a:2f:eb:5d:a8:5b:88:4d:0a:ec:
                    da:dd:a4:c1:07:80:7a:ec:b7:49:fe:cf:e8:a0:05:
                    3f:7d:23:01:87:39:ff:ba:1f:7c:3d:4f:2a:ec:40:
                    ec:d1:a9:bf:79:d7:d3:44:de:e2:dc:c7:e1:b5:21:
                    1f:6a:cd:0e:7a:52:6b:2c:8a:87:64:21:b6:bc:cb:
                    5e:27
                Exponent: 65537 (0x10001)
        X509v3 extensions:
            X509v3 Basic Constraints: 
                CA:FALSE
            X509v3 Subject Key Identifier: 
                0B:45:7C:39:8E:00:11:24:F8:0B:E1:32:94:7C:10:3F:2E:4A:47:CD
            X509v3 Authority Key Identifier: 
                keyid:9E:95:BA:9E:9C:5E:75:B9:0B:02:B8:9E:F1:61:B4:0B:38:A0:05:1A
                DirName:/CN=team580-net
                serial:27:33:1F:72:37:26:CE:8A:7F:5F:6B:CE:66:C5:71:2B:E0:54:17:26

            X509v3 Extended Key Usage: 
                TLS Web Server Authentication
            X509v3 Key Usage: 
                Digital Signature, Key Encipherment
            X509v3 Subject Alternative Name: 
                DNS:team580-server
    Signature Algorithm: sha256WithRSAEncryption
         c2:8b:f0:5b:c2:5b:55:74:5d:7f:73:51:89:1f:a2:49:0b:b7:
         c4:8c:21:fa:50:53:bf:90:c3:1b:59:42:6a:c6:e8:d0:ea:26:
         57:3d:ac:98:0c:9f:ba:a0:1e:36:b4:d3:46:4c:0d:6b:1d:34:
         19:06:60:ab:ee:d0:64:ba:93:98:28:79:4c:49:51:03:d5:69:
         ff:c6:f3:ad:93:6a:a7:73:bc:ed:dd:fb:a0:e3:53:32:b8:8b:
         5b:65:ea:e5:c6:31:18:9b:11:d9:18:92:5e:22:20:fd:87:2f:
         ef:80:b3:2b:bb:15:d6:f7:08:c2:a1:60:b4:ae:58:ce:53:ab:
         9b:f4:ab:60:85:2c:e6:c4:d9:12:69:82:ef:0b:b7:04:8a:16:
         85:6c:32:fb:b3:70:ec:09:07:d9:bb:5f:07:73:72:6f:80:22:
         8d:83:ee:58:1a:44:8c:1c:de:f9:6e:62:3d:59:28:96:d7:08:
         b5:7e:29:ea:e6:4c:5a:3c:2f:0d:38:d4:c7:21:36:ae:34:40:
         20:8a:dc:1b:ca:60:84:1e:1c:a6:78:d6:d7:cf:41:f8:98:4f:
         55:fa:64:b7:85:39:27:80:bd:38:c3:c3:d3:de:d8:24:94:19:
         7b:89:f4:c2:98:9d:09:bc:fa:14:94:ec:6f:7c:7f:08:32:fa:
         cf:19:97:bf
-----BEGIN CERTIFICATE-----
MIIDdzCCAl+gAwIBAgIQG9CyFKOdq4hd1/0QwDRK+DANBgkqhkiG9w0BAQsFADAW
MRQwEgYDVQQDDAt0ZWFtNTgwLW5ldDAeFw0yMTA5MTMwNDA0MTdaFw0yNDA4Mjgw
NDA0MTdaMBkxFzAVBgNVBAMMDnRlYW01ODAtc2VydmVyMIIBIjANBgkqhkiG9w0B
AQEFAAOCAQ8AMIIBCgKCAQEAtgtaZERCFaLu/GYtQHVaLFJsT2UliWiOYSFhbjMv
KgvbdpCrc/AUdF/rAgHrdqRuM9qD8CDVTu82NvQHaf0l3K+7trqFbD0k2pf6vzPk
dvkWJnWvFFfljXyPAZlnDLhTz1X7ReP02IaESt66vpZ3WxIwN1DF4maZ68XVVlc3
tGb7FaPIVUX3Cib5xVSr1MTouwRoEQR9mtOUmf1sf4F/cbaT1Y/Du7tu8ESNq3Hm
3jV4WOzJWUCNcgov612oW4hNCuza3aTBB4B67LdJ/s/ooAU/fSMBhzn/uh98PU8q
7EDs0am/edfTRN7i3MfhtSEfas0OelJrLIqHZCG2vMteJwIDAQABo4G9MIG6MAkG
A1UdEwQCMAAwHQYDVR0OBBYEFAtFfDmOABEk+AvhMpR8ED8uSkfNMFEGA1UdIwRK
MEiAFJ6Vup6cXnW5CwK4nvFhtAs4oAUaoRqkGDAWMRQwEgYDVQQDDAt0ZWFtNTgw
LW5ldIIUJzMfcjcmzop/X2vOZsVxK+BUFyYwEwYDVR0lBAwwCgYIKwYBBQUHAwEw
CwYDVR0PBAQDAgWgMBkGA1UdEQQSMBCCDnRlYW01ODAtc2VydmVyMA0GCSqGSIb3
DQEBCwUAA4IBAQDCi/BbwltVdF1/c1GJH6JJC7fEjCH6UFO/kMMbWUJqxujQ6iZX
PayYDJ+6oB42tNNGTA1rHTQZBmCr7tBkupOYKHlMSVED1Wn/xvOtk2qnc7zt3fug
41MyuItbZerlxjEYmxHZGJJeIiD9hy/vgLMruxXW9wjCoWC0rljOU6ub9KtghSzm
xNkSaYLvC7cEihaFbDL7s3DsCQfZu18Hc3JvgCKNg+5YGkSMHN75bmI9WSiW1wi1
finq5kxaPC8NONTHITauNEAgitwbymCEHhymeNbXz0H4mE9V+mS3hTkngL04w8PT
3tgklBl7ifTCmJ0JvPoUlOxvfH8IMvrPGZe/
-----END CERTIFICATE-----
