Certificate:
    Data:
        Version: 3 (0x2)
        Serial Number:
            91:e3:b0:36:0b:bf:4d:58:86:63:82:16:2e:fc:64:ce
        Signature Algorithm: sha256WithRSAEncryption
        Issuer: CN=team580-net
        Validity
            Not Before: Sep 13 04:04:17 2021 GMT
            Not After : Aug 28 04:04:17 2024 GMT
        Subject: CN=team580-client
        Subject Public Key Info:
            Public Key Algorithm: rsaEncryption
                RSA Public-Key: (2048 bit)
                Modulus:
                    00:bc:4b:ff:9b:d1:14:e4:0c:48:ab:1c:36:91:ab:
                    00:68:f1:6c:ff:02:6d:be:c8:ff:c8:4b:6d:b9:c8:
                    f4:84:d4:a7:c4:be:c8:16:55:dc:e8:69:f5:da:05:
                    00:ac:ae:a9:2d:a9:9f:97:8b:fc:61:4c:3b:d5:81:
                    f5:60:d6:62:07:fe:41:c9:44:89:09:e2:16:2a:e9:
                    f4:6b:b5:32:95:f3:f7:54:91:51:5c:4e:d6:5a:f6:
                    9a:1e:d7:22:92:eb:40:0c:f5:15:c9:82:91:5c:b5:
                    91:f4:29:de:09:4d:15:e9:3b:25:2f:f7:0d:33:86:
                    48:f1:40:be:b5:78:55:b6:3f:58:27:8f:c3:03:fd:
                    49:f8:2b:44:9c:da:31:63:2d:42:35:bf:1a:45:67:
                    66:42:5b:c8:59:2e:ae:89:c6:e3:22:50:dc:f7:63:
                    b0:83:fb:b3:16:6d:18:93:ab:f2:cd:de:d1:6f:6f:
                    bf:59:78:54:c5:7c:e5:6c:a7:5a:82:de:79:8c:26:
                    0b:b0:9f:5d:85:a8:1f:7c:71:83:4f:0a:df:87:75:
                    fe:1f:29:f9:0e:70:c5:cc:99:e6:96:72:3e:04:12:
                    dd:d6:2b:16:56:28:7c:42:13:a0:dc:ac:4c:3a:91:
                    44:36:b9:cf:dc:5e:8a:eb:31:21:f2:76:23:a8:71:
                    d6:8d
                Exponent: 65537 (0x10001)
        X509v3 extensions:
            X509v3 Basic Constraints: 
                CA:FALSE
            X509v3 Subject Key Identifier: 
                23:53:C6:2A:7F:84:42:DC:18:D3:09:7B:B8:09:28:A6:A0:67:89:64
            X509v3 Authority Key Identifier: 
                keyid:9E:95:BA:9E:9C:5E:75:B9:0B:02:B8:9E:F1:61:B4:0B:38:A0:05:1A
                DirName:/CN=team580-net
                serial:27:33:1F:72:37:26:CE:8A:7F:5F:6B:CE:66:C5:71:2B:E0:54:17:26

            X509v3 Extended Key Usage: 
                TLS Web Client Authentication
            X509v3 Key Usage: 
                Digital Signature
    Signature Algorithm: sha256WithRSAEncryption
         b0:46:4f:01:90:cc:90:63:60:b8:fe:88:58:8f:88:6a:6f:70:
         e1:5b:35:22:e2:db:0f:b2:55:97:bd:a2:33:88:c7:51:7d:bb:
         52:f8:f5:f0:81:3c:7a:a4:91:9f:53:52:5f:78:fa:36:b4:9e:
         8e:d0:52:ad:e9:6b:96:e9:01:5f:d1:21:e6:9f:77:6d:b2:eb:
         3b:ce:a7:bf:0f:cb:20:4a:40:aa:43:b6:b5:73:33:1e:97:e4:
         67:e2:50:33:ec:44:89:e3:c2:05:73:cf:bc:bb:06:1d:f4:93:
         68:f8:f5:23:d7:a2:79:df:3e:cd:84:33:64:df:de:5a:88:c4:
         bd:c8:7a:14:a8:8b:ae:00:9e:21:9f:e4:31:35:13:47:57:68:
         94:00:27:fd:1c:49:6a:f0:52:c9:0d:5f:b3:5a:a7:ce:bf:48:
         df:f7:f3:61:41:63:33:5e:81:1a:21:7b:ad:4f:e3:df:ea:48:
         76:67:35:d5:a3:e6:5f:62:04:97:0a:a9:60:3a:2e:9c:3e:92:
         c4:01:87:50:8a:77:d4:2a:dd:10:97:03:a7:42:93:e9:1a:e7:
         b2:7d:88:66:6f:57:7e:50:8d:6a:6a:76:c1:b2:5d:23:26:ff:
         c0:8f:1e:ab:7c:09:83:4f:9f:91:1d:fa:02:92:b7:42:40:28:
         6a:c5:77:6b
-----BEGIN CERTIFICATE-----
MIIDXTCCAkWgAwIBAgIRAJHjsDYLv01YhmOCFi78ZM4wDQYJKoZIhvcNAQELBQAw
FjEUMBIGA1UEAwwLdGVhbTU4MC1uZXQwHhcNMjEwOTEzMDQwNDE3WhcNMjQwODI4
MDQwNDE3WjAZMRcwFQYDVQQDDA50ZWFtNTgwLWNsaWVudDCCASIwDQYJKoZIhvcN
AQEBBQADggEPADCCAQoCggEBALxL/5vRFOQMSKscNpGrAGjxbP8Cbb7I/8hLbbnI
9ITUp8S+yBZV3Ohp9doFAKyuqS2pn5eL/GFMO9WB9WDWYgf+QclEiQniFirp9Gu1
MpXz91SRUVxO1lr2mh7XIpLrQAz1FcmCkVy1kfQp3glNFek7JS/3DTOGSPFAvrV4
VbY/WCePwwP9SfgrRJzaMWMtQjW/GkVnZkJbyFkuronG4yJQ3PdjsIP7sxZtGJOr
8s3e0W9vv1l4VMV85WynWoLeeYwmC7CfXYWoH3xxg08K34d1/h8p+Q5wxcyZ5pZy
PgQS3dYrFlYofEIToNysTDqRRDa5z9xeiusxIfJ2I6hx1o0CAwEAAaOBojCBnzAJ
BgNVHRMEAjAAMB0GA1UdDgQWBBQjU8Yqf4RC3BjTCXu4CSimoGeJZDBRBgNVHSME
SjBIgBSelbqenF51uQsCuJ7xYbQLOKAFGqEapBgwFjEUMBIGA1UEAwwLdGVhbTU4
MC1uZXSCFCczH3I3Js6Kf19rzmbFcSvgVBcmMBMGA1UdJQQMMAoGCCsGAQUFBwMC
MAsGA1UdDwQEAwIHgDANBgkqhkiG9w0BAQsFAAOCAQEAsEZPAZDMkGNguP6IWI+I
am9w4Vs1IuLbD7JVl72iM4jHUX27Uvj18IE8eqSRn1NSX3j6NrSejtBSrelrlukB
X9Eh5p93bbLrO86nvw/LIEpAqkO2tXMzHpfkZ+JQM+xEiePCBXPPvLsGHfSTaPj1
I9eied8+zYQzZN/eWojEvch6FKiLrgCeIZ/kMTUTR1dolAAn/RxJavBSyQ1fs1qn
zr9I3/fzYUFjM16BGiF7rU/j3+pIdmc11aPmX2IElwqpYDounD6SxAGHUIp31Crd
EJcDp0KT6Rrnsn2IZm9XflCNamp2wbJdIyb/wI8eq3wJg0+fkR36ApK3QkAoasV3
aw==
-----END CERTIFICATE-----
