Certificate:
    Data:
        Version: 3 (0x2)
        Serial Number:
            d8:44:f1:95:7d:89:a9:c6:a1:b7:8a:12:3c:d7:30:8b
        Signature Algorithm: sha256WithRSAEncryption
        Issuer: CN=team433-net
        Validity
            Not Before: Sep 13 02:42:21 2021 GMT
            Not After : Aug 28 02:42:21 2024 GMT
        Subject: CN=team433-server
        Subject Public Key Info:
            Public Key Algorithm: rsaEncryption
                RSA Public-Key: (2048 bit)
                Modulus:
                    00:c5:5d:31:9a:52:8d:7c:b4:fc:ca:ee:07:7c:d3:
                    82:da:6f:99:4c:a2:4b:85:7d:b1:3c:a3:13:19:e8:
                    cf:dd:02:63:fe:f5:3c:20:fc:0b:85:42:4c:0f:99:
                    28:d9:8d:c6:7e:97:d1:ca:31:5d:e9:c7:64:3e:d1:
                    88:2a:f5:67:b4:27:0c:44:f1:3c:c5:22:c9:48:5a:
                    71:de:69:f2:44:46:44:39:7c:67:75:9d:38:6f:77:
                    29:62:8c:6d:86:41:d5:4d:21:b4:1d:bc:d3:19:7d:
                    27:83:2e:d0:bc:30:fe:17:01:a1:cb:5e:af:1e:e2:
                    fd:ce:5c:48:f5:d0:92:04:a4:3c:19:0d:e9:fd:38:
                    be:9c:b8:60:36:15:a0:98:14:92:f7:b7:7f:ca:5c:
                    d0:e4:48:dd:e2:56:78:2a:f8:46:84:36:f6:0a:9f:
                    05:03:49:ac:45:28:64:15:6b:3e:a8:ed:87:56:6f:
                    1a:a8:9b:03:a6:8f:36:7f:87:b1:1d:12:3f:be:8c:
                    8f:16:fc:3a:5c:ca:5e:39:18:f1:a2:ec:11:07:55:
                    d7:08:b5:ea:ce:5e:4e:c6:ba:b5:c5:50:71:ac:04:
                    3a:8a:21:14:39:e7:bb:31:77:4d:54:78:76:6b:9a:
                    88:08:48:02:5b:9f:59:96:52:2a:97:c8:fb:25:ba:
                    af:23
                Exponent: 65537 (0x10001)
        X509v3 extensions:
            X509v3 Basic Constraints: 
                CA:FALSE
            X509v3 Subject Key Identifier: 
                D8:47:B9:A1:01:8F:6E:6C:1C:D6:80:0C:AD:C7:92:F3:D2:35:05:F6
            X509v3 Authority Key Identifier: 
                keyid:38:A8:06:8C:9B:D7:82:CD:8A:5A:E4:14:BF:E7:6C:EF:46:A2:D7:0E
                DirName:/CN=team433-net
                serial:45:5E:36:76:7D:14:F9:4F:C5:40:CE:C5:ED:9B:17:C5:10:48:1E:99

            X509v3 Extended Key Usage: 
                TLS Web Server Authentication
            X509v3 Key Usage: 
                Digital Signature, Key Encipherment
            X509v3 Subject Alternative Name: 
                DNS:team433-server
    Signature Algorithm: sha256WithRSAEncryption
         42:51:8b:54:17:3b:07:a8:c5:ef:0a:c8:bf:e2:c9:2d:76:1e:
         53:9c:56:0c:53:90:94:e3:3d:9c:81:80:ee:0c:5e:6a:d9:5a:
         9e:9f:60:bc:b9:9e:ca:bc:98:39:8b:1b:80:14:e5:22:0e:43:
         fb:7f:0b:67:15:39:5d:c5:bd:10:1d:20:af:d5:49:2b:a8:71:
         a4:3d:fa:07:4b:61:e7:5a:78:df:a1:77:97:c1:02:e5:f4:c4:
         38:fc:35:00:66:69:20:d8:61:07:84:aa:a0:d1:17:e7:e4:a6:
         00:3a:8c:fc:51:5e:b1:99:0f:c1:56:09:4d:85:3b:37:22:31:
         56:33:57:5e:03:7f:ae:ad:ca:75:95:e1:8f:81:ac:7d:eb:93:
         c0:90:e5:ab:b7:33:57:27:84:99:c8:3a:f7:2a:e9:9e:c7:7f:
         6d:73:be:63:6d:f5:ee:70:ec:9c:73:93:87:f8:da:58:36:ea:
         9b:48:22:74:5e:64:57:c0:3e:4e:09:6a:9c:5b:70:3f:8d:0f:
         e9:cd:94:86:f3:c3:4a:ac:01:d0:fb:e1:d3:35:00:f8:a2:7e:
         5c:23:1e:a9:b1:1d:5a:06:8c:d1:cc:42:62:d1:c9:4f:8d:73:
         87:98:26:7b:ff:46:51:59:28:46:f5:8f:ba:2c:4a:aa:0d:0d:
         4b:ad:bc:2a
-----BEGIN CERTIFICATE-----
MIIDeDCCAmCgAwIBAgIRANhE8ZV9ianGobeKEjzXMIswDQYJKoZIhvcNAQELBQAw
FjEUMBIGA1UEAwwLdGVhbTQzMy1uZXQwHhcNMjEwOTEzMDI0MjIxWhcNMjQwODI4
MDI0MjIxWjAZMRcwFQYDVQQDDA50ZWFtNDMzLXNlcnZlcjCCASIwDQYJKoZIhvcN
AQEBBQADggEPADCCAQoCggEBAMVdMZpSjXy0/MruB3zTgtpvmUyiS4V9sTyjExno
z90CY/71PCD8C4VCTA+ZKNmNxn6X0coxXenHZD7RiCr1Z7QnDETxPMUiyUhacd5p
8kRGRDl8Z3WdOG93KWKMbYZB1U0htB280xl9J4Mu0Lww/hcBocterx7i/c5cSPXQ
kgSkPBkN6f04vpy4YDYVoJgUkve3f8pc0ORI3eJWeCr4RoQ29gqfBQNJrEUoZBVr
Pqjth1ZvGqibA6aPNn+HsR0SP76Mjxb8OlzKXjkY8aLsEQdV1wi16s5eTsa6tcVQ
cawEOoohFDnnuzF3TVR4dmuaiAhIAlufWZZSKpfI+yW6ryMCAwEAAaOBvTCBujAJ
BgNVHRMEAjAAMB0GA1UdDgQWBBTYR7mhAY9ubBzWgAytx5Lz0jUF9jBRBgNVHSME
SjBIgBQ4qAaMm9eCzYpa5BS/52zvRqLXDqEapBgwFjEUMBIGA1UEAwwLdGVhbTQz
My1uZXSCFEVeNnZ9FPlPxUDOxe2bF8UQSB6ZMBMGA1UdJQQMMAoGCCsGAQUFBwMB
MAsGA1UdDwQEAwIFoDAZBgNVHREEEjAQgg50ZWFtNDMzLXNlcnZlcjANBgkqhkiG
9w0BAQsFAAOCAQEAQlGLVBc7B6jF7wrIv+LJLXYeU5xWDFOQlOM9nIGA7gxeatla
np9gvLmeyryYOYsbgBTlIg5D+38LZxU5XcW9EB0gr9VJK6hxpD36B0th51p436F3
l8EC5fTEOPw1AGZpINhhB4SqoNEX5+SmADqM/FFesZkPwVYJTYU7NyIxVjNXXgN/
rq3KdZXhj4GsfeuTwJDlq7czVyeEmcg69yrpnsd/bXO+Y2317nDsnHOTh/jaWDbq
m0gidF5kV8A+TglqnFtwP40P6c2UhvPDSqwB0Pvh0zUA+KJ+XCMeqbEdWgaM0cxC
YtHJT41zh5gme/9GUVkoRvWPuixKqg0NS628Kg==
-----END CERTIFICATE-----
