Certificate:
    Data:
        Version: 3 (0x2)
        Serial Number:
            64:10:a1:89:c6:8e:29:53:a0:f8:5a:b8:65:93:84:f4
        Signature Algorithm: sha256WithRSAEncryption
        Issuer: CN=team560-net
        Validity
            Not Before: Sep 13 03:53:14 2021 GMT
            Not After : Aug 28 03:53:14 2024 GMT
        Subject: CN=team560-server
        Subject Public Key Info:
            Public Key Algorithm: rsaEncryption
                RSA Public-Key: (2048 bit)
                Modulus:
                    00:d4:5c:bc:f8:7e:50:ce:8e:d3:66:59:b6:54:eb:
                    e7:2c:83:4e:00:fa:5b:30:63:4c:25:61:95:cb:84:
                    33:db:cb:f2:58:b9:36:b0:94:ad:0f:a7:21:87:92:
                    76:c0:af:c5:04:34:68:2b:f4:27:0e:d3:00:02:a9:
                    06:3a:b2:e5:3c:e9:c4:8e:af:41:a1:9f:4a:7e:19:
                    7d:ff:8b:40:8a:5d:08:c1:50:ec:50:6f:2e:26:69:
                    26:b1:b4:81:f0:4b:bd:49:52:63:23:84:df:36:b5:
                    97:99:28:ed:5c:7f:dd:8c:42:9c:00:bc:f7:20:7e:
                    7b:f0:16:d0:4d:97:2a:20:2d:74:8e:b7:40:a4:89:
                    42:31:44:b3:a7:c6:f2:82:b4:7e:21:91:ba:66:ed:
                    f9:1f:c8:be:85:dd:91:b3:4b:b7:6a:82:83:07:a6:
                    c3:0e:c2:cf:2a:6c:3e:62:bc:3b:20:01:9a:17:24:
                    5b:02:8b:08:9d:d8:25:44:e0:38:73:65:a7:30:16:
                    f2:25:09:ca:59:a1:8b:4a:a8:92:0a:d5:f5:d9:1b:
                    63:e4:1c:6f:53:6b:e9:06:d2:d3:5e:6f:37:24:7d:
                    5c:d9:a7:18:17:10:0e:7c:3c:ce:c5:93:54:57:85:
                    b3:f2:c3:db:e1:aa:78:9d:1e:51:45:e0:56:dd:06:
                    88:0d
                Exponent: 65537 (0x10001)
        X509v3 extensions:
            X509v3 Basic Constraints: 
                CA:FALSE
            X509v3 Subject Key Identifier: 
                AB:AE:01:FF:4C:5A:26:EC:E6:87:5E:5C:10:9D:2F:CF:31:81:61:EB
            X509v3 Authority Key Identifier: 
                keyid:50:71:35:71:39:E8:24:1B:C5:C1:0C:F5:68:C2:88:31:57:91:4F:69
                DirName:/CN=team560-net
                serial:5D:EB:EE:DF:38:16:69:83:FA:D0:FA:D4:C8:8D:8F:90:13:E4:BB:7D

            X509v3 Extended Key Usage: 
                TLS Web Server Authentication
            X509v3 Key Usage: 
                Digital Signature, Key Encipherment
            X509v3 Subject Alternative Name: 
                DNS:team560-server
    Signature Algorithm: sha256WithRSAEncryption
         6a:de:76:72:84:71:5d:84:8e:4f:cd:ad:a5:09:17:08:39:0f:
         f1:83:3c:f1:d2:9f:e5:af:1c:8e:bf:e4:b4:57:62:5a:a7:94:
         98:b6:a6:20:1a:37:c8:e3:6d:88:5f:f1:7d:98:0c:75:aa:1c:
         8f:d5:4e:47:77:fb:b9:e4:17:fc:b2:bc:2d:69:4e:22:61:2f:
         a4:64:01:66:5d:4f:fe:69:eb:95:da:aa:9d:33:c9:b3:97:90:
         0b:fb:2f:48:3c:ab:de:c1:2a:5b:5c:43:c7:b4:6a:87:85:2b:
         52:57:ad:48:e4:70:41:15:ae:e7:9c:b0:69:33:31:fa:32:62:
         4d:fd:7a:54:0d:48:d7:7d:0a:00:75:04:96:ff:67:65:ca:93:
         6e:57:ca:c4:97:49:05:45:ba:ac:bb:ce:90:af:6d:8b:8f:0d:
         df:3a:82:66:01:17:29:16:2e:88:51:24:f0:4a:25:25:24:5b:
         90:c3:06:d0:38:99:1b:af:e2:93:80:96:d8:60:bc:1a:3d:6d:
         9f:c2:86:a5:26:89:79:11:89:d2:af:44:52:e2:91:e0:36:28:
         a9:9e:a5:29:89:9e:ea:8b:aa:ed:11:21:c5:15:c7:92:6a:1d:
         e0:75:ce:82:c0:0a:09:0f:f8:a9:10:24:40:71:d8:33:a8:12:
         4a:2f:91:ac
-----BEGIN CERTIFICATE-----
MIIDdzCCAl+gAwIBAgIQZBChicaOKVOg+Fq4ZZOE9DANBgkqhkiG9w0BAQsFADAW
MRQwEgYDVQQDDAt0ZWFtNTYwLW5ldDAeFw0yMTA5MTMwMzUzMTRaFw0yNDA4Mjgw
MzUzMTRaMBkxFzAVBgNVBAMMDnRlYW01NjAtc2VydmVyMIIBIjANBgkqhkiG9w0B
AQEFAAOCAQ8AMIIBCgKCAQEA1Fy8+H5Qzo7TZlm2VOvnLINOAPpbMGNMJWGVy4Qz
28vyWLk2sJStD6chh5J2wK/FBDRoK/QnDtMAAqkGOrLlPOnEjq9BoZ9Kfhl9/4tA
il0IwVDsUG8uJmkmsbSB8Eu9SVJjI4TfNrWXmSjtXH/djEKcALz3IH578BbQTZcq
IC10jrdApIlCMUSzp8bygrR+IZG6Zu35H8i+hd2Rs0u3aoKDB6bDDsLPKmw+Yrw7
IAGaFyRbAosIndglROA4c2WnMBbyJQnKWaGLSqiSCtX12Rtj5BxvU2vpBtLTXm83
JH1c2acYFxAOfDzOxZNUV4Wz8sPb4ap4nR5RReBW3QaIDQIDAQABo4G9MIG6MAkG
A1UdEwQCMAAwHQYDVR0OBBYEFKuuAf9MWibs5odeXBCdL88xgWHrMFEGA1UdIwRK
MEiAFFBxNXE56CQbxcEM9WjCiDFXkU9poRqkGDAWMRQwEgYDVQQDDAt0ZWFtNTYw
LW5ldIIUXevu3zgWaYP60PrUyI2PkBPku30wEwYDVR0lBAwwCgYIKwYBBQUHAwEw
CwYDVR0PBAQDAgWgMBkGA1UdEQQSMBCCDnRlYW01NjAtc2VydmVyMA0GCSqGSIb3
DQEBCwUAA4IBAQBq3nZyhHFdhI5Pza2lCRcIOQ/xgzzx0p/lrxyOv+S0V2Jap5SY
tqYgGjfI422IX/F9mAx1qhyP1U5Hd/u55Bf8srwtaU4iYS+kZAFmXU/+aeuV2qqd
M8mzl5AL+y9IPKvewSpbXEPHtGqHhStSV61I5HBBFa7nnLBpMzH6MmJN/XpUDUjX
fQoAdQSW/2dlypNuV8rEl0kFRbqsu86Qr22Ljw3fOoJmARcpFi6IUSTwSiUlJFuQ
wwbQOJkbr+KTgJbYYLwaPW2fwoalJol5EYnSr0RS4pHgNiipnqUpiZ7qi6rtESHF
FceSah3gdc6CwAoJD/ipECRAcdgzqBJKL5Gs
-----END CERTIFICATE-----
