Certificate:
    Data:
        Version: 3 (0x2)
        Serial Number:
            01:6c:e5:d6:d7:53:60:80:ce:14:06:9e:7f:d2:9d:dc
        Signature Algorithm: sha256WithRSAEncryption
        Issuer: CN=team502-net
        Validity
            Not Before: Sep 13 03:19:50 2021 GMT
            Not After : Aug 28 03:19:50 2024 GMT
        Subject: CN=team502-server
        Subject Public Key Info:
            Public Key Algorithm: rsaEncryption
                RSA Public-Key: (2048 bit)
                Modulus:
                    00:b3:31:cc:ef:10:65:37:f4:48:33:29:45:f1:93:
                    f5:00:8c:5a:6e:77:2a:b4:6c:4e:e9:a9:44:a0:d2:
                    8e:92:64:96:47:54:fb:c1:ba:41:fc:5b:9d:f5:61:
                    2e:0e:15:7b:62:18:39:7a:41:62:4c:3d:0d:11:23:
                    7a:d7:24:fc:f4:17:69:72:44:e4:30:e3:ff:b5:5c:
                    2f:9f:aa:cc:51:a7:f6:b4:c9:41:df:e9:4e:cc:22:
                    03:f7:51:85:f9:e6:c1:f7:2e:cb:6e:9b:fd:3e:55:
                    ac:cb:a2:d5:6c:c4:8b:aa:f2:a3:45:34:79:d1:91:
                    89:75:5f:06:b3:4c:27:35:7d:94:c4:63:0d:d0:83:
                    6c:45:ba:0c:7a:45:da:97:59:32:04:2a:8f:c1:c9:
                    e9:18:fc:ab:45:9a:63:90:2f:e7:85:9a:ef:e7:b8:
                    b9:3e:04:cf:58:9b:8b:0f:0e:78:fd:19:29:da:d5:
                    b9:96:a8:25:c7:04:80:97:50:de:96:32:fb:af:1f:
                    d1:c1:0d:bf:fd:ce:76:41:59:0c:f5:9e:86:d0:a3:
                    9e:95:75:54:5c:8c:24:9b:e4:de:2e:82:6f:22:5d:
                    95:e3:0a:76:2a:6e:60:93:75:38:d7:e3:59:98:9c:
                    af:d5:57:01:a8:d7:b9:4d:18:02:d6:7e:9f:61:60:
                    fe:45
                Exponent: 65537 (0x10001)
        X509v3 extensions:
            X509v3 Basic Constraints: 
                CA:FALSE
            X509v3 Subject Key Identifier: 
                77:F9:93:7E:45:1F:F1:D2:BD:4C:6F:AF:C3:BB:95:8C:4A:0B:9C:2C
            X509v3 Authority Key Identifier: 
                keyid:05:F1:54:E8:3A:A2:18:AB:12:0F:35:E5:D3:AA:B1:98:9D:DB:F5:F3
                DirName:/CN=team502-net
                serial:21:ED:0E:16:B2:04:2F:C6:FB:AC:F6:89:88:63:04:11:0C:3D:AF:92

            X509v3 Extended Key Usage: 
                TLS Web Server Authentication
            X509v3 Key Usage: 
                Digital Signature, Key Encipherment
            X509v3 Subject Alternative Name: 
                DNS:team502-server
    Signature Algorithm: sha256WithRSAEncryption
         23:15:7c:1c:0b:0e:b0:a9:6e:85:6c:59:ac:4b:2f:f9:d9:f6:
         23:c3:b9:79:eb:78:eb:ba:d2:2a:f7:f1:62:ca:50:f0:75:e9:
         8d:7a:df:56:47:c5:dc:c4:6f:b2:a3:cc:76:8f:dc:79:34:c9:
         75:86:25:ef:d1:c8:20:1a:3d:91:81:ad:0b:05:70:ed:4b:da:
         b7:29:3a:4f:78:7a:f8:b0:55:7e:f4:e8:e0:1a:02:db:1a:9e:
         4f:1c:23:8a:72:c7:a3:54:6a:ae:a2:b7:28:27:15:cb:cd:af:
         6d:b7:58:2f:f4:38:2e:a5:f5:e8:16:d1:85:f7:cb:c8:7a:43:
         81:e5:38:50:1e:0d:68:23:88:fd:e0:db:df:90:7e:e8:38:dc:
         01:70:5c:1d:8c:01:bb:b9:eb:fd:ed:52:55:9a:2e:2e:e8:0c:
         4f:32:81:7f:de:bf:7b:52:e7:d9:db:8e:72:4b:ac:b5:a7:14:
         4b:d2:17:73:82:ea:92:b4:78:d8:aa:f0:ac:c5:4c:7f:9f:e4:
         02:97:89:90:db:43:c8:f8:30:ef:aa:7a:d6:c4:2d:84:4f:2e:
         d2:07:bf:eb:e4:59:f4:e6:83:4d:6a:4e:c8:c1:27:b8:a5:2b:
         55:f1:b9:1c:07:f8:e8:76:d3:84:59:1b:90:29:b3:fb:3a:38:
         87:e5:cc:34
-----BEGIN CERTIFICATE-----
MIIDdzCCAl+gAwIBAgIQAWzl1tdTYIDOFAaef9Kd3DANBgkqhkiG9w0BAQsFADAW
MRQwEgYDVQQDDAt0ZWFtNTAyLW5ldDAeFw0yMTA5MTMwMzE5NTBaFw0yNDA4Mjgw
MzE5NTBaMBkxFzAVBgNVBAMMDnRlYW01MDItc2VydmVyMIIBIjANBgkqhkiG9w0B
AQEFAAOCAQ8AMIIBCgKCAQEAszHM7xBlN/RIMylF8ZP1AIxabncqtGxO6alEoNKO
kmSWR1T7wbpB/Fud9WEuDhV7Yhg5ekFiTD0NESN61yT89BdpckTkMOP/tVwvn6rM
Uaf2tMlB3+lOzCID91GF+ebB9y7Lbpv9PlWsy6LVbMSLqvKjRTR50ZGJdV8Gs0wn
NX2UxGMN0INsRboMekXal1kyBCqPwcnpGPyrRZpjkC/nhZrv57i5PgTPWJuLDw54
/Rkp2tW5lqglxwSAl1DeljL7rx/RwQ2//c52QVkM9Z6G0KOelXVUXIwkm+TeLoJv
Il2V4wp2Km5gk3U41+NZmJyv1VcBqNe5TRgC1n6fYWD+RQIDAQABo4G9MIG6MAkG
A1UdEwQCMAAwHQYDVR0OBBYEFHf5k35FH/HSvUxvr8O7lYxKC5wsMFEGA1UdIwRK
MEiAFAXxVOg6ohirEg815dOqsZid2/XzoRqkGDAWMRQwEgYDVQQDDAt0ZWFtNTAy
LW5ldIIUIe0OFrIEL8b7rPaJiGMEEQw9r5IwEwYDVR0lBAwwCgYIKwYBBQUHAwEw
CwYDVR0PBAQDAgWgMBkGA1UdEQQSMBCCDnRlYW01MDItc2VydmVyMA0GCSqGSIb3
DQEBCwUAA4IBAQAjFXwcCw6wqW6FbFmsSy/52fYjw7l563jrutIq9/FiylDwdemN
et9WR8XcxG+yo8x2j9x5NMl1hiXv0cggGj2Rga0LBXDtS9q3KTpPeHr4sFV+9Ojg
GgLbGp5PHCOKcsejVGquorcoJxXLza9tt1gv9DgupfXoFtGF98vIekOB5ThQHg1o
I4j94NvfkH7oONwBcFwdjAG7uev97VJVmi4u6AxPMoF/3r97UufZ245yS6y1pxRL
0hdzguqStHjYqvCsxUx/n+QCl4mQ20PI+DDvqnrWxC2ETy7SB7/r5Fn05oNNak7I
wSe4pStV8bkcB/jodtOEWRuQKbP7OjiH5cw0
-----END CERTIFICATE-----
