Certificate:
    Data:
        Version: 3 (0x2)
        Serial Number:
            03:09:b2:ca:93:bc:b6:c5:b8:f4:15:ad:7f:c2:12:30
        Signature Algorithm: sha256WithRSAEncryption
        Issuer: CN=team654-net
        Validity
            Not Before: Sep 13 04:25:30 2021 GMT
            Not After : Aug 28 04:25:30 2024 GMT
        Subject: CN=team654-server
        Subject Public Key Info:
            Public Key Algorithm: rsaEncryption
                RSA Public-Key: (2048 bit)
                Modulus:
                    00:a3:4c:83:7e:a1:c6:cc:6c:0b:a3:dd:cb:71:a5:
                    f2:05:3a:f1:08:3e:41:8f:c2:6e:08:db:a3:a1:36:
                    48:66:55:23:ea:8b:b2:ba:52:44:51:90:08:a4:57:
                    94:e2:48:b7:65:2b:01:67:da:61:18:cd:34:86:61:
                    06:7b:3f:5f:38:ec:c2:61:62:34:93:6e:b1:7e:f4:
                    b4:09:4b:dd:81:74:ef:5c:cf:b2:52:60:18:e5:54:
                    1e:8a:be:74:ee:ac:8b:47:60:da:1b:0a:76:bb:b6:
                    97:4e:e7:44:3f:f3:a7:0f:c6:e0:9d:ea:c9:b7:ff:
                    cb:ec:a8:fe:93:2c:b6:05:b0:2e:a7:80:5d:59:aa:
                    f6:74:f4:b1:37:2b:fd:c5:fd:9c:df:01:8e:c7:54:
                    0e:0d:ee:61:f3:6f:e8:a4:51:7c:96:8c:fc:1a:f0:
                    b5:56:46:7c:3a:2c:72:11:1f:ff:cd:1a:5b:96:f2:
                    f5:16:33:ea:62:8e:66:94:82:d5:96:d8:f1:52:a6:
                    1b:38:ae:60:7d:bb:11:88:79:ce:7a:61:a8:b0:e3:
                    22:64:54:e2:17:71:f5:0a:0b:f5:34:3c:a7:14:8a:
                    87:80:ea:f0:37:a0:c8:f5:bf:29:56:13:d2:10:84:
                    61:0f:91:23:7b:49:d5:3e:d3:60:16:7c:7b:d0:4b:
                    93:49
                Exponent: 65537 (0x10001)
        X509v3 extensions:
            X509v3 Basic Constraints: 
                CA:FALSE
            X509v3 Subject Key Identifier: 
                11:B4:45:59:DB:C3:05:80:4D:7D:BC:FD:DF:1B:92:B3:00:4A:77:DB
            X509v3 Authority Key Identifier: 
                keyid:16:9B:CA:2F:68:69:C6:08:74:E5:B3:6C:CC:F9:21:DB:31:46:FC:D9
                DirName:/CN=team654-net
                serial:56:9C:00:E9:59:F5:FA:75:51:20:C7:90:CF:39:09:A6:60:61:E7:4C

            X509v3 Extended Key Usage: 
                TLS Web Server Authentication
            X509v3 Key Usage: 
                Digital Signature, Key Encipherment
            X509v3 Subject Alternative Name: 
                DNS:team654-server
    Signature Algorithm: sha256WithRSAEncryption
         6a:36:a0:98:65:b5:95:c1:c1:55:7e:27:15:a5:14:fa:1a:61:
         22:de:2c:b6:6f:a4:da:91:a0:54:31:c4:8d:88:20:cd:fd:37:
         56:9c:bc:ce:31:2d:e8:15:ee:36:92:33:9f:0f:89:5b:12:5a:
         5d:09:e2:0d:c1:cc:b5:4a:0a:22:4b:21:cb:59:67:56:60:26:
         f7:62:2e:15:b0:5f:f8:e6:52:0d:1a:d6:14:28:03:72:90:fa:
         61:d0:25:08:5c:ae:fc:cb:4b:b4:bb:60:ee:f1:81:60:bf:06:
         a1:42:95:7c:ad:7c:e6:6a:29:4e:ad:cc:26:35:66:63:15:d9:
         5d:df:5f:58:a5:18:ab:af:0c:08:de:27:96:68:82:a7:c9:b7:
         4f:8f:81:07:6d:9d:cd:4c:b6:73:4e:e0:ae:7d:b3:49:11:af:
         18:78:77:bb:4a:68:4b:90:03:83:31:d9:15:fd:46:99:cd:91:
         58:6b:bc:1d:bc:d9:05:88:61:9c:ca:01:54:32:b7:3d:d8:62:
         eb:4e:b5:ac:67:ff:60:f3:05:81:0f:ff:3b:77:a9:e3:7c:6d:
         3f:da:ff:71:f1:b2:47:7c:b6:95:95:6a:a9:70:03:3f:47:d8:
         8f:43:3a:c1:a1:af:39:92:55:92:05:1d:20:31:91:d9:9b:77:
         66:6d:53:d5
-----BEGIN CERTIFICATE-----
MIIDdzCCAl+gAwIBAgIQAwmyypO8tsW49BWtf8ISMDANBgkqhkiG9w0BAQsFADAW
MRQwEgYDVQQDDAt0ZWFtNjU0LW5ldDAeFw0yMTA5MTMwNDI1MzBaFw0yNDA4Mjgw
NDI1MzBaMBkxFzAVBgNVBAMMDnRlYW02NTQtc2VydmVyMIIBIjANBgkqhkiG9w0B
AQEFAAOCAQ8AMIIBCgKCAQEAo0yDfqHGzGwLo93LcaXyBTrxCD5Bj8JuCNujoTZI
ZlUj6ouyulJEUZAIpFeU4ki3ZSsBZ9phGM00hmEGez9fOOzCYWI0k26xfvS0CUvd
gXTvXM+yUmAY5VQeir507qyLR2DaGwp2u7aXTudEP/OnD8bgnerJt//L7Kj+kyy2
BbAup4BdWar2dPSxNyv9xf2c3wGOx1QODe5h82/opFF8loz8GvC1VkZ8OixyER//
zRpblvL1FjPqYo5mlILVltjxUqYbOK5gfbsRiHnOemGosOMiZFTiF3H1Cgv1NDyn
FIqHgOrwN6DI9b8pVhPSEIRhD5Eje0nVPtNgFnx70EuTSQIDAQABo4G9MIG6MAkG
A1UdEwQCMAAwHQYDVR0OBBYEFBG0RVnbwwWATX28/d8bkrMASnfbMFEGA1UdIwRK
MEiAFBabyi9oacYIdOWzbMz5IdsxRvzZoRqkGDAWMRQwEgYDVQQDDAt0ZWFtNjU0
LW5ldIIUVpwA6Vn1+nVRIMeQzzkJpmBh50wwEwYDVR0lBAwwCgYIKwYBBQUHAwEw
CwYDVR0PBAQDAgWgMBkGA1UdEQQSMBCCDnRlYW02NTQtc2VydmVyMA0GCSqGSIb3
DQEBCwUAA4IBAQBqNqCYZbWVwcFVficVpRT6GmEi3iy2b6TakaBUMcSNiCDN/TdW
nLzOMS3oFe42kjOfD4lbElpdCeINwcy1SgoiSyHLWWdWYCb3Yi4VsF/45lINGtYU
KANykPph0CUIXK78y0u0u2Du8YFgvwahQpV8rXzmailOrcwmNWZjFdld319YpRir
rwwI3ieWaIKnybdPj4EHbZ3NTLZzTuCufbNJEa8YeHe7SmhLkAODMdkV/UaZzZFY
a7wdvNkFiGGcygFUMrc92GLrTrWsZ/9g8wWBD/87d6njfG0/2v9x8bJHfLaVlWqp
cAM/R9iPQzrBoa85klWSBR0gMZHZm3dmbVPV
-----END CERTIFICATE-----
