Certificate:
    Data:
        Version: 3 (0x2)
        Serial Number:
            45:d8:29:c5:d3:38:d7:39:f8:02:8b:c4:7d:c4:8c:07
        Signature Algorithm: sha256WithRSAEncryption
        Issuer: CN=team654-net
        Validity
            Not Before: Sep 13 04:25:30 2021 GMT
            Not After : Aug 28 04:25:30 2024 GMT
        Subject: CN=team654-client
        Subject Public Key Info:
            Public Key Algorithm: rsaEncryption
                RSA Public-Key: (2048 bit)
                Modulus:
                    00:d7:8c:6e:e3:c9:60:fd:0e:eb:40:ff:17:d6:32:
                    d2:0e:4c:26:c9:ee:20:95:b6:5f:c9:60:fd:1e:27:
                    ba:76:69:c3:1c:ef:72:74:0f:ac:fc:4a:94:37:a8:
                    59:54:51:8b:b7:89:ad:20:66:f6:76:9f:74:96:45:
                    b0:d1:5f:bc:b5:b5:5f:91:21:6a:c1:2c:77:7c:cc:
                    46:8b:d4:46:40:47:7c:a6:77:90:8e:47:a6:5d:0d:
                    59:48:c2:f4:3c:2d:6b:df:c6:87:54:45:79:c5:32:
                    e5:87:9e:8b:e2:e0:79:ef:1c:24:ef:b9:4b:81:f9:
                    64:14:08:fc:93:25:52:ec:a1:c8:09:57:d6:b3:00:
                    ae:7e:5b:4f:34:6a:74:ea:ff:d4:91:b4:39:f8:99:
                    67:25:96:dc:71:f3:c0:7c:d3:ef:2c:d8:de:8f:6c:
                    9a:c1:19:f9:af:d8:ae:6b:58:d8:cf:b7:8a:03:23:
                    8d:e5:f2:5e:5a:12:41:54:d4:5a:11:5b:89:c4:98:
                    9c:18:b3:de:7f:06:ed:30:ba:89:a0:e4:f4:2f:c9:
                    f7:33:45:ec:d4:bb:36:bd:3c:07:56:85:27:b8:92:
                    a6:13:0e:36:9b:3f:2c:2d:66:26:af:cb:a4:0d:aa:
                    a9:79:27:db:9b:8c:f0:a2:65:5e:f2:69:55:3e:73:
                    e9:25
                Exponent: 65537 (0x10001)
        X509v3 extensions:
            X509v3 Basic Constraints: 
                CA:FALSE
            X509v3 Subject Key Identifier: 
                98:9F:63:E3:32:48:83:7A:6E:F5:08:F3:5D:30:DD:F5:6B:1C:37:BC
            X509v3 Authority Key Identifier: 
                keyid:16:9B:CA:2F:68:69:C6:08:74:E5:B3:6C:CC:F9:21:DB:31:46:FC:D9
                DirName:/CN=team654-net
                serial:56:9C:00:E9:59:F5:FA:75:51:20:C7:90:CF:39:09:A6:60:61:E7:4C

            X509v3 Extended Key Usage: 
                TLS Web Client Authentication
            X509v3 Key Usage: 
                Digital Signature
    Signature Algorithm: sha256WithRSAEncryption
         1f:ae:fe:a4:45:6f:55:aa:c1:c6:3f:04:78:0a:65:75:46:1a:
         2f:8a:60:c4:19:08:33:aa:e2:b1:a4:94:a9:3d:41:3e:2c:0c:
         6d:b7:63:2e:67:c2:d2:81:69:1c:3a:43:a1:c4:66:9e:2a:30:
         8b:e9:44:b4:3d:1f:80:ee:10:b0:7a:5f:20:7e:c9:57:46:e2:
         36:d5:b9:93:6e:c0:2d:06:57:00:d6:13:f0:d0:76:9c:5c:ba:
         a9:5a:49:72:82:cf:31:b1:d0:46:c2:0b:fd:09:7d:22:16:68:
         dd:f5:c8:9a:60:3c:5e:0d:08:51:f4:3a:b5:e8:5f:ac:ab:81:
         97:5d:e7:2c:39:95:c9:3c:4b:c9:87:1d:04:fb:46:a8:cf:86:
         4f:c6:62:61:21:f7:11:41:25:56:0c:b3:eb:36:66:89:67:ce:
         54:b6:5e:39:b0:38:32:ec:cf:8f:0f:09:32:2d:2f:8a:5d:b4:
         4a:bb:1f:2e:61:ad:8e:28:04:76:81:2b:e4:c1:52:a6:05:54:
         fc:db:44:6d:33:97:6b:8f:3d:f2:6e:75:5c:5c:ed:4f:c0:2e:
         0b:02:3b:d7:19:43:88:cb:bb:bd:70:8c:d7:b9:ca:cf:4d:b3:
         9e:1d:cb:2c:af:21:4d:8d:b7:d5:f7:6d:d2:c3:4e:75:fd:6a:
         e1:8f:76:fa
-----BEGIN CERTIFICATE-----
MIIDXDCCAkSgAwIBAgIQRdgpxdM41zn4AovEfcSMBzANBgkqhkiG9w0BAQsFADAW
MRQwEgYDVQQDDAt0ZWFtNjU0LW5ldDAeFw0yMTA5MTMwNDI1MzBaFw0yNDA4Mjgw
NDI1MzBaMBkxFzAVBgNVBAMMDnRlYW02NTQtY2xpZW50MIIBIjANBgkqhkiG9w0B
AQEFAAOCAQ8AMIIBCgKCAQEA14xu48lg/Q7rQP8X1jLSDkwmye4glbZfyWD9Hie6
dmnDHO9ydA+s/EqUN6hZVFGLt4mtIGb2dp90lkWw0V+8tbVfkSFqwSx3fMxGi9RG
QEd8pneQjkemXQ1ZSML0PC1r38aHVEV5xTLlh56L4uB57xwk77lLgflkFAj8kyVS
7KHICVfWswCufltPNGp06v/UkbQ5+JlnJZbccfPAfNPvLNjej2yawRn5r9iua1jY
z7eKAyON5fJeWhJBVNRaEVuJxJicGLPefwbtMLqJoOT0L8n3M0Xs1Ls2vTwHVoUn
uJKmEw42mz8sLWYmr8ukDaqpeSfbm4zwomVe8mlVPnPpJQIDAQABo4GiMIGfMAkG
A1UdEwQCMAAwHQYDVR0OBBYEFJifY+MySIN6bvUI810w3fVrHDe8MFEGA1UdIwRK
MEiAFBabyi9oacYIdOWzbMz5IdsxRvzZoRqkGDAWMRQwEgYDVQQDDAt0ZWFtNjU0
LW5ldIIUVpwA6Vn1+nVRIMeQzzkJpmBh50wwEwYDVR0lBAwwCgYIKwYBBQUHAwIw
CwYDVR0PBAQDAgeAMA0GCSqGSIb3DQEBCwUAA4IBAQAfrv6kRW9VqsHGPwR4CmV1
RhovimDEGQgzquKxpJSpPUE+LAxtt2MuZ8LSgWkcOkOhxGaeKjCL6US0PR+A7hCw
el8gfslXRuI21bmTbsAtBlcA1hPw0HacXLqpWklygs8xsdBGwgv9CX0iFmjd9cia
YDxeDQhR9Dq16F+sq4GXXecsOZXJPEvJhx0E+0aoz4ZPxmJhIfcRQSVWDLPrNmaJ
Z85Utl45sDgy7M+PDwkyLS+KXbRKux8uYa2OKAR2gSvkwVKmBVT820RtM5drjz3y
bnVcXO1PwC4LAjvXGUOIy7u9cIzXucrPTbOeHcssryFNjbfV923Sw051/Wrhj3b6
-----END CERTIFICATE-----
