Certificate:
    Data:
        Version: 3 (0x2)
        Serial Number:
            74:65:43:cc:51:f1:10:81:e7:56:91:bf:5d:73:a4:00
        Signature Algorithm: sha256WithRSAEncryption
        Issuer: CN=team640-net
        Validity
            Not Before: Sep 13 04:18:43 2021 GMT
            Not After : Aug 28 04:18:43 2024 GMT
        Subject: CN=team640-client
        Subject Public Key Info:
            Public Key Algorithm: rsaEncryption
                RSA Public-Key: (2048 bit)
                Modulus:
                    00:b2:3a:c3:22:81:b4:c4:e5:21:fb:e7:c3:48:c3:
                    d8:1f:4f:fd:2e:6d:9e:50:5d:c7:de:cc:89:96:47:
                    b0:9f:59:7f:9d:96:ec:e5:73:f0:6a:ca:c9:97:15:
                    7e:d1:59:d8:71:08:0e:43:6a:63:ac:cd:97:10:cd:
                    aa:aa:49:69:b4:bb:77:9d:d2:ef:fe:2e:ed:da:c3:
                    41:33:38:25:cb:df:44:44:51:88:7a:c3:c2:d1:d0:
                    54:cc:93:9e:66:6e:c3:02:7e:7a:cc:ab:9f:28:63:
                    59:c0:9d:06:80:73:70:14:3f:6b:73:9e:11:86:55:
                    24:0d:0c:91:d5:91:45:32:bc:94:ba:43:b9:89:73:
                    1d:34:4c:30:80:71:e2:f0:18:c7:dd:ef:ad:f8:31:
                    f6:c8:70:66:c8:f8:06:2a:d9:37:93:5d:27:ef:e0:
                    43:b2:de:1d:68:19:19:98:7f:0d:29:bd:d0:25:f8:
                    d5:d3:7f:0f:d1:d9:d4:3c:d4:3d:f0:1f:69:be:ff:
                    73:56:28:af:17:da:b5:61:6c:27:f0:7c:b0:5a:11:
                    08:a5:4f:b9:57:7a:6a:13:1c:01:f9:45:20:26:23:
                    67:a0:49:81:12:9e:67:de:ad:e4:36:63:b8:0c:68:
                    21:fa:fa:90:ea:06:63:c5:91:1c:7f:30:bd:aa:a1:
                    ee:45
                Exponent: 65537 (0x10001)
        X509v3 extensions:
            X509v3 Basic Constraints: 
                CA:FALSE
            X509v3 Subject Key Identifier: 
                F4:B2:8A:09:5B:C2:06:98:71:12:36:E5:99:97:EF:1B:EF:9B:30:4A
            X509v3 Authority Key Identifier: 
                keyid:17:FD:9B:72:C2:27:92:60:E7:81:77:46:45:87:E8:EB:6B:EB:45:0E
                DirName:/CN=team640-net
                serial:12:10:08:18:92:DA:A0:84:80:DD:94:C5:03:EC:26:68:C8:C7:20:A7

            X509v3 Extended Key Usage: 
                TLS Web Client Authentication
            X509v3 Key Usage: 
                Digital Signature
    Signature Algorithm: sha256WithRSAEncryption
         66:95:46:dd:c0:61:34:9e:70:91:f1:ae:bb:5a:ad:78:a7:20:
         a9:49:b6:18:77:2f:13:5e:bb:c1:5a:de:14:25:4f:a9:64:ce:
         53:55:10:f5:58:97:79:63:a4:b1:d6:53:8f:99:6a:d0:dd:00:
         03:df:23:9f:25:c2:1e:4e:bd:f6:0c:0e:6d:3c:63:e0:d0:1b:
         cd:48:28:f1:89:a6:00:20:f1:01:6f:2d:61:0f:07:1b:3f:5d:
         e1:72:4a:ed:b2:36:93:65:58:6a:70:89:9f:ff:0d:a4:93:a1:
         83:a9:70:7e:8d:d0:ac:67:04:4e:9a:e9:e4:39:a0:2b:20:f3:
         cd:da:ba:0c:e2:ea:4b:c2:df:80:20:56:4d:78:c5:36:f7:35:
         14:81:ee:03:82:2d:cf:53:17:e1:ee:fb:f2:68:a5:ba:52:9f:
         8f:d7:05:d2:de:d5:ca:df:8f:19:bf:c0:32:97:88:80:b2:d0:
         7d:11:b6:6d:23:6f:a4:b0:f0:8c:a7:74:93:52:0b:a0:ff:fe:
         11:5e:74:6b:3b:1a:e8:dc:66:05:6d:db:c4:ea:1f:50:da:66:
         58:cf:bb:4b:32:b7:de:9a:e9:9c:b4:cf:7b:e0:ad:d3:b6:aa:
         2f:19:71:88:19:62:1a:80:c6:15:bf:4e:3a:68:43:23:4c:83:
         de:14:c9:e6
-----BEGIN CERTIFICATE-----
MIIDXDCCAkSgAwIBAgIQdGVDzFHxEIHnVpG/XXOkADANBgkqhkiG9w0BAQsFADAW
MRQwEgYDVQQDDAt0ZWFtNjQwLW5ldDAeFw0yMTA5MTMwNDE4NDNaFw0yNDA4Mjgw
NDE4NDNaMBkxFzAVBgNVBAMMDnRlYW02NDAtY2xpZW50MIIBIjANBgkqhkiG9w0B
AQEFAAOCAQ8AMIIBCgKCAQEAsjrDIoG0xOUh++fDSMPYH0/9Lm2eUF3H3syJlkew
n1l/nZbs5XPwasrJlxV+0VnYcQgOQ2pjrM2XEM2qqklptLt3ndLv/i7t2sNBMzgl
y99ERFGIesPC0dBUzJOeZm7DAn56zKufKGNZwJ0GgHNwFD9rc54RhlUkDQyR1ZFF
MryUukO5iXMdNEwwgHHi8BjH3e+t+DH2yHBmyPgGKtk3k10n7+BDst4daBkZmH8N
Kb3QJfjV038P0dnUPNQ98B9pvv9zViivF9q1YWwn8HywWhEIpU+5V3pqExwB+UUg
JiNnoEmBEp5n3q3kNmO4DGgh+vqQ6gZjxZEcfzC9qqHuRQIDAQABo4GiMIGfMAkG
A1UdEwQCMAAwHQYDVR0OBBYEFPSyiglbwgaYcRI25ZmX7xvvmzBKMFEGA1UdIwRK
MEiAFBf9m3LCJ5Jg54F3RkWH6Otr60UOoRqkGDAWMRQwEgYDVQQDDAt0ZWFtNjQw
LW5ldIIUEhAIGJLaoISA3ZTFA+wmaMjHIKcwEwYDVR0lBAwwCgYIKwYBBQUHAwIw
CwYDVR0PBAQDAgeAMA0GCSqGSIb3DQEBCwUAA4IBAQBmlUbdwGE0nnCR8a67Wq14
pyCpSbYYdy8TXrvBWt4UJU+pZM5TVRD1WJd5Y6Sx1lOPmWrQ3QAD3yOfJcIeTr32
DA5tPGPg0BvNSCjxiaYAIPEBby1hDwcbP13hckrtsjaTZVhqcImf/w2kk6GDqXB+
jdCsZwROmunkOaArIPPN2roM4upLwt+AIFZNeMU29zUUge4Dgi3PUxfh7vvyaKW6
Up+P1wXS3tXK348Zv8Ayl4iAstB9EbZtI2+ksPCMp3STUgug//4RXnRrOxro3GYF
bdvE6h9Q2mZYz7tLMrfemumctM974K3TtqovGXGIGWIagMYVv046aEMjTIPeFMnm
-----END CERTIFICATE-----
