Certificate:
    Data:
        Version: 3 (0x2)
        Serial Number:
            47:04:d3:b6:03:4d:9f:b9:39:08:6b:91:77:f5:d2:b4
        Signature Algorithm: sha256WithRSAEncryption
        Issuer: CN=team82-net
        Validity
            Not Before: Sep 12 23:25:42 2021 GMT
            Not After : Aug 27 23:25:42 2024 GMT
        Subject: CN=team82-server
        Subject Public Key Info:
            Public Key Algorithm: rsaEncryption
                RSA Public-Key: (2048 bit)
                Modulus:
                    00:c9:a1:f5:d8:45:54:be:d9:3f:70:4e:6c:88:3d:
                    78:ef:17:d0:95:c3:e4:2b:56:63:6f:c0:e5:1f:65:
                    76:a7:1e:db:ba:18:9e:6a:a7:47:71:fb:ed:dc:92:
                    b9:56:8c:71:af:67:e1:6d:38:5b:ac:a2:50:78:c5:
                    9c:70:cd:54:65:ae:de:e0:96:c4:83:37:ba:43:32:
                    7c:e1:19:dd:14:ae:8f:a9:25:41:9e:37:96:ba:d9:
                    e7:48:c2:05:f3:de:84:4b:16:c7:3f:e9:a0:bc:f5:
                    36:6c:c0:27:41:04:20:e0:4a:41:53:50:f2:8a:8e:
                    03:90:e4:56:80:77:97:3f:fd:56:81:c2:cb:93:26:
                    63:d7:cb:b9:6e:bf:59:8b:c2:7e:67:8f:a6:0f:2d:
                    95:13:e3:e4:cc:69:94:a0:54:7e:36:18:13:58:ea:
                    30:85:fe:5b:82:5d:a5:07:e2:ea:b2:d9:59:ba:38:
                    e0:0b:e7:f9:81:91:ac:81:b3:99:f5:46:db:1d:f7:
                    14:97:16:ec:e5:a2:0d:28:45:1e:2c:a1:ba:f8:59:
                    78:25:15:73:82:6f:67:19:3d:51:64:41:46:a0:fb:
                    4f:6b:15:49:40:f7:99:c7:ef:c9:27:49:db:17:65:
                    2f:7a:24:0a:32:3d:65:31:98:44:81:5d:60:9e:f6:
                    bc:1f
                Exponent: 65537 (0x10001)
        X509v3 extensions:
            X509v3 Basic Constraints: 
                CA:FALSE
            X509v3 Subject Key Identifier: 
                A4:30:88:21:F1:F4:2B:EE:35:5C:31:E7:FE:18:D9:90:70:A8:8F:78
            X509v3 Authority Key Identifier: 
                keyid:C6:5F:10:9A:57:A8:6B:5F:94:F8:C2:D7:B3:DB:C5:43:A7:E4:AC:FB
                DirName:/CN=team82-net
                serial:12:DF:14:DE:5F:51:A7:09:7A:25:DA:F4:F8:23:2F:B7:C7:1F:20:76

            X509v3 Extended Key Usage: 
                TLS Web Server Authentication
            X509v3 Key Usage: 
                Digital Signature, Key Encipherment
            X509v3 Subject Alternative Name: 
                DNS:team82-server
    Signature Algorithm: sha256WithRSAEncryption
         35:31:57:5c:5d:a5:68:ea:dc:04:11:a7:a8:ee:c5:2b:3c:6a:
         4a:65:6b:6f:b0:16:e3:ed:32:2a:72:fb:38:93:45:d8:6e:73:
         16:07:9b:1e:95:39:1a:69:d9:63:73:f9:ff:ff:ca:22:0e:2d:
         fb:16:87:5f:9c:62:f4:62:26:68:32:0b:30:f4:a4:ae:94:a0:
         94:7c:36:3c:af:0e:9a:59:7f:a2:49:32:12:27:ae:1f:37:16:
         ba:93:39:2a:ad:02:40:1f:a9:a1:8e:d3:41:98:e8:77:b1:ff:
         2d:ea:90:43:f9:4a:2b:7b:cf:3d:5f:f7:b0:e5:19:a3:41:06:
         47:98:6a:01:01:bc:3d:aa:b6:6c:6e:07:4a:f7:5f:55:88:11:
         cc:49:9a:2d:e8:e4:b2:95:bd:5b:91:98:ee:e7:cb:50:b4:0e:
         b3:44:3a:a3:63:ba:d2:b8:87:c7:4a:1c:a6:4e:12:a9:c6:c8:
         92:0f:ff:38:42:c5:9d:e5:1b:82:be:47:6e:62:a5:5e:7c:3f:
         a7:44:4b:e1:4e:c1:ad:21:88:6a:57:de:1e:61:b8:db:17:19:
         9f:c7:b0:a7:77:eb:27:4b:08:be:24:f1:d5:fd:bf:2d:61:ea:
         27:6b:39:0b:ab:8f:2e:a4:92:32:00:13:d9:d3:d7:7b:39:15:
         d2:37:81:70
-----BEGIN CERTIFICATE-----
MIIDczCCAlugAwIBAgIQRwTTtgNNn7k5CGuRd/XStDANBgkqhkiG9w0BAQsFADAV
MRMwEQYDVQQDDAp0ZWFtODItbmV0MB4XDTIxMDkxMjIzMjU0MloXDTI0MDgyNzIz
MjU0MlowGDEWMBQGA1UEAwwNdGVhbTgyLXNlcnZlcjCCASIwDQYJKoZIhvcNAQEB
BQADggEPADCCAQoCggEBAMmh9dhFVL7ZP3BObIg9eO8X0JXD5CtWY2/A5R9ldqce
27oYnmqnR3H77dySuVaMca9n4W04W6yiUHjFnHDNVGWu3uCWxIM3ukMyfOEZ3RSu
j6klQZ43lrrZ50jCBfPehEsWxz/poLz1NmzAJ0EEIOBKQVNQ8oqOA5DkVoB3lz/9
VoHCy5MmY9fLuW6/WYvCfmePpg8tlRPj5MxplKBUfjYYE1jqMIX+W4JdpQfi6rLZ
Wbo44Avn+YGRrIGzmfVG2x33FJcW7OWiDShFHiyhuvhZeCUVc4JvZxk9UWRBRqD7
T2sVSUD3mcfvySdJ2xdlL3okCjI9ZTGYRIFdYJ72vB8CAwEAAaOBuzCBuDAJBgNV
HRMEAjAAMB0GA1UdDgQWBBSkMIgh8fQr7jVcMef+GNmQcKiPeDBQBgNVHSMESTBH
gBTGXxCaV6hrX5T4wtez28VDp+Ss+6EZpBcwFTETMBEGA1UEAwwKdGVhbTgyLW5l
dIIUEt8U3l9Rpwl6Jdr0+CMvt8cfIHYwEwYDVR0lBAwwCgYIKwYBBQUHAwEwCwYD
VR0PBAQDAgWgMBgGA1UdEQQRMA+CDXRlYW04Mi1zZXJ2ZXIwDQYJKoZIhvcNAQEL
BQADggEBADUxV1xdpWjq3AQRp6juxSs8akpla2+wFuPtMipy+ziTRdhucxYHmx6V
ORpp2WNz+f//yiIOLfsWh1+cYvRiJmgyCzD0pK6UoJR8NjyvDppZf6JJMhInrh83
FrqTOSqtAkAfqaGO00GY6Hex/y3qkEP5Sit7zz1f97DlGaNBBkeYagEBvD2qtmxu
B0r3X1WIEcxJmi3o5LKVvVuRmO7ny1C0DrNEOqNjutK4h8dKHKZOEqnGyJIP/zhC
xZ3lG4K+R25ipV58P6dES+FOwa0hiGpX3h5huNsXGZ/HsKd36ydLCL4k8dX9vy1h
6idrOQurjy6kkjIAE9nT13s5FdI3gXA=
-----END CERTIFICATE-----
