Certificate:
    Data:
        Version: 3 (0x2)
        Serial Number:
            c9:0c:a7:9d:2f:6e:ce:51:85:cc:57:b7:15:b2:25:3f
        Signature Algorithm: sha256WithRSAEncryption
        Issuer: CN=team82-net
        Validity
            Not Before: Sep 12 23:25:42 2021 GMT
            Not After : Aug 27 23:25:42 2024 GMT
        Subject: CN=team82-client
        Subject Public Key Info:
            Public Key Algorithm: rsaEncryption
                RSA Public-Key: (2048 bit)
                Modulus:
                    00:c9:c4:aa:23:cb:98:36:0a:54:b8:b7:9d:bf:e3:
                    a2:54:99:f9:13:6e:15:87:3f:df:c1:86:cf:40:24:
                    2b:7f:3a:eb:60:1b:f4:71:b6:c8:fb:ba:48:c7:8a:
                    aa:c7:a2:80:fd:52:89:14:1e:b9:6c:04:3a:5b:14:
                    91:83:5b:03:5f:17:62:db:11:f8:33:7c:a4:ba:12:
                    62:87:dc:b7:59:44:e9:b3:70:e1:9c:96:75:44:ce:
                    40:6f:58:d3:99:8b:ef:1f:56:bf:43:f1:fc:a0:11:
                    2f:e4:5a:ff:fe:b4:de:c7:e0:89:d9:d8:c4:4e:4a:
                    4e:70:e7:6b:f3:ce:d1:40:93:55:67:13:f9:fe:a4:
                    36:31:be:5f:d3:4f:5b:e4:e6:bf:9d:39:4f:95:1f:
                    9b:bb:95:d0:16:1d:7f:37:98:5c:1a:e6:7a:c5:2e:
                    6f:28:48:fb:39:a5:3b:51:dc:ac:25:c2:b8:2d:b9:
                    b6:4d:00:e0:ca:33:9a:b2:f5:31:29:b7:85:da:f5:
                    b9:0d:f1:9b:3f:0f:81:27:5f:42:28:86:21:2b:7d:
                    2f:49:ac:91:7a:f8:26:a9:23:83:17:4f:43:48:ad:
                    5d:fe:cf:77:ee:2a:e3:33:18:d5:a2:57:9f:92:91:
                    3c:f9:6f:01:9d:42:fe:ab:b8:3d:d6:94:58:20:c3:
                    d3:f3
                Exponent: 65537 (0x10001)
        X509v3 extensions:
            X509v3 Basic Constraints: 
                CA:FALSE
            X509v3 Subject Key Identifier: 
                B4:3F:3A:C7:98:5E:A0:6A:2F:A1:07:D3:25:CF:B4:2B:F6:E6:33:D7
            X509v3 Authority Key Identifier: 
                keyid:C6:5F:10:9A:57:A8:6B:5F:94:F8:C2:D7:B3:DB:C5:43:A7:E4:AC:FB
                DirName:/CN=team82-net
                serial:12:DF:14:DE:5F:51:A7:09:7A:25:DA:F4:F8:23:2F:B7:C7:1F:20:76

            X509v3 Extended Key Usage: 
                TLS Web Client Authentication
            X509v3 Key Usage: 
                Digital Signature
    Signature Algorithm: sha256WithRSAEncryption
         16:66:b4:dd:2a:fd:15:4d:2d:5e:a4:5b:16:27:2f:76:a3:09:
         c5:7f:a7:16:0d:86:c1:3d:de:bb:36:97:c3:24:58:5e:dd:32:
         6e:c9:8f:34:ff:88:c1:e4:41:ba:a5:d1:44:40:b7:1c:c6:f1:
         c1:b3:36:b2:86:cb:32:62:56:54:a5:fb:5c:0a:e5:d4:fd:f0:
         97:57:e1:75:8a:79:a4:e6:64:13:20:d2:9e:b8:0d:7c:6b:85:
         2d:5e:43:70:24:2e:46:2b:fb:7b:b7:1b:79:28:b8:77:79:43:
         ef:36:be:f7:6e:d3:3c:57:5a:6e:0c:73:87:29:dd:54:6d:66:
         94:fc:be:aa:85:9b:84:10:0d:26:d4:43:29:93:ac:4b:9a:b6:
         e9:d5:d8:eb:b5:8e:3b:dc:0f:89:df:e1:95:35:a0:c9:f5:ee:
         88:cf:0a:f4:e6:7c:6c:e8:d6:2c:96:69:bf:03:87:8f:ed:78:
         00:c9:b1:f0:a9:04:73:a8:70:79:9f:9f:34:42:65:a1:99:ee:
         b1:40:c7:cc:82:fb:20:88:60:5d:70:fa:99:f8:71:9c:c5:b9:
         4f:f9:e2:f6:99:cf:50:89:47:07:dd:1c:24:6b:16:d9:60:ad:
         65:46:89:8b:8e:9d:36:f6:f9:b0:9c:5a:c3:3e:59:0e:2e:4e:
         a2:ac:98:64
-----BEGIN CERTIFICATE-----
MIIDWjCCAkKgAwIBAgIRAMkMp50vbs5RhcxXtxWyJT8wDQYJKoZIhvcNAQELBQAw
FTETMBEGA1UEAwwKdGVhbTgyLW5ldDAeFw0yMTA5MTIyMzI1NDJaFw0yNDA4Mjcy
MzI1NDJaMBgxFjAUBgNVBAMMDXRlYW04Mi1jbGllbnQwggEiMA0GCSqGSIb3DQEB
AQUAA4IBDwAwggEKAoIBAQDJxKojy5g2ClS4t52/46JUmfkTbhWHP9/Bhs9AJCt/
OutgG/Rxtsj7ukjHiqrHooD9UokUHrlsBDpbFJGDWwNfF2LbEfgzfKS6EmKH3LdZ
ROmzcOGclnVEzkBvWNOZi+8fVr9D8fygES/kWv/+tN7H4InZ2MROSk5w52vzztFA
k1VnE/n+pDYxvl/TT1vk5r+dOU+VH5u7ldAWHX83mFwa5nrFLm8oSPs5pTtR3Kwl
wrgtubZNAODKM5qy9TEpt4Xa9bkN8Zs/D4EnX0IohiErfS9JrJF6+CapI4MXT0NI
rV3+z3fuKuMzGNWiV5+SkTz5bwGdQv6ruD3WlFggw9PzAgMBAAGjgaEwgZ4wCQYD
VR0TBAIwADAdBgNVHQ4EFgQUtD86x5heoGovoQfTJc+0K/bmM9cwUAYDVR0jBEkw
R4AUxl8Qmleoa1+U+MLXs9vFQ6fkrPuhGaQXMBUxEzARBgNVBAMMCnRlYW04Mi1u
ZXSCFBLfFN5fUacJeiXa9PgjL7fHHyB2MBMGA1UdJQQMMAoGCCsGAQUFBwMCMAsG
A1UdDwQEAwIHgDANBgkqhkiG9w0BAQsFAAOCAQEAFma03Sr9FU0tXqRbFicvdqMJ
xX+nFg2GwT3euzaXwyRYXt0ybsmPNP+IweRBuqXRREC3HMbxwbM2sobLMmJWVKX7
XArl1P3wl1fhdYp5pOZkEyDSnrgNfGuFLV5DcCQuRiv7e7cbeSi4d3lD7za+927T
PFdabgxzhyndVG1mlPy+qoWbhBANJtRDKZOsS5q26dXY67WOO9wPid/hlTWgyfXu
iM8K9OZ8bOjWLJZpvwOHj+14AMmx8KkEc6hweZ+fNEJloZnusUDHzIL7IIhgXXD6
mfhxnMW5T/ni9pnPUIlHB90cJGsW2WCtZUaJi46dNvb5sJxawz5ZDi5OoqyYZA==
-----END CERTIFICATE-----
