Certificate:
    Data:
        Version: 3 (0x2)
        Serial Number:
            e8:20:0a:f4:37:11:35:c4:57:64:b3:d6:9d:e2:43:9c
        Signature Algorithm: sha256WithRSAEncryption
        Issuer: CN=team404-net
        Validity
            Not Before: Sep 13 02:26:26 2021 GMT
            Not After : Aug 28 02:26:26 2024 GMT
        Subject: CN=team404-client
        Subject Public Key Info:
            Public Key Algorithm: rsaEncryption
                RSA Public-Key: (2048 bit)
                Modulus:
                    00:bc:73:bc:f9:aa:2e:9f:d1:aa:f4:67:ed:d3:ca:
                    9d:8c:a7:59:63:f2:42:89:cc:96:c4:e1:f8:b4:bd:
                    90:b6:1d:87:ae:37:ab:06:ef:4e:89:9a:5d:69:5f:
                    fe:5b:9c:18:1a:43:a2:f1:d4:c3:d4:ab:e9:e8:e8:
                    4b:3a:16:bf:4a:8d:63:c6:3b:2d:29:d2:ae:78:1a:
                    9e:36:6b:d6:1d:be:43:1c:62:94:2a:15:48:b6:a5:
                    7d:e8:fb:58:d3:83:9f:97:a3:49:71:ac:e0:e1:1e:
                    d0:77:95:82:23:f7:5d:77:c8:6b:3b:2b:14:55:61:
                    f8:ad:07:a7:7f:6f:64:d7:27:be:26:f3:9c:0d:b0:
                    c2:43:6c:f8:7a:03:6c:1b:12:ef:4a:b1:0d:4f:96:
                    49:ea:96:32:f4:e0:e9:bb:1c:cc:5f:85:5c:ec:81:
                    27:78:74:b5:0b:61:81:dc:ad:a7:06:8f:91:67:90:
                    29:34:36:6b:b7:e6:c6:f9:44:5e:4b:de:a5:29:0f:
                    92:d7:35:d3:0f:7a:7a:6f:c5:5b:0f:a2:91:70:8d:
                    52:0a:92:b5:4a:a1:b5:e9:36:04:f1:94:c5:44:01:
                    d7:6d:e5:53:fd:e0:8a:d3:d1:d9:fd:3e:99:f2:af:
                    b2:2d:d2:47:56:ed:82:fc:4c:a8:95:a6:0d:ae:22:
                    f0:95
                Exponent: 65537 (0x10001)
        X509v3 extensions:
            X509v3 Basic Constraints: 
                CA:FALSE
            X509v3 Subject Key Identifier: 
                47:63:F4:05:18:6C:AE:4F:37:FF:FA:4E:CE:D4:08:E0:50:86:B8:63
            X509v3 Authority Key Identifier: 
                keyid:DB:AD:4B:ED:DF:0D:68:74:E0:84:FF:30:C4:C3:39:E0:85:C4:4C:40
                DirName:/CN=team404-net
                serial:34:B2:AC:9E:1F:7C:40:7F:45:80:4E:4F:C3:FA:94:2E:AE:6C:06:8B

            X509v3 Extended Key Usage: 
                TLS Web Client Authentication
            X509v3 Key Usage: 
                Digital Signature
    Signature Algorithm: sha256WithRSAEncryption
         5e:6c:25:d6:58:1e:2c:e3:7b:9d:e8:35:fe:51:ee:39:a9:8e:
         5b:f1:07:ba:6b:78:a4:7c:d1:7b:4d:98:c1:33:6e:af:ba:f2:
         e8:db:4b:e7:c9:60:56:63:a5:0e:38:40:a3:d5:03:dd:80:a6:
         e8:d5:db:0e:ef:f0:15:ed:f6:d0:72:2a:08:10:8e:e7:24:76:
         65:69:c0:e7:37:61:f9:b1:e0:ca:c4:89:57:67:3b:8b:85:94:
         12:a1:1c:81:fd:17:44:04:7d:89:25:e7:e8:b0:8e:1c:97:98:
         de:2d:fa:e6:11:cf:a1:3b:82:6e:33:88:06:25:fd:be:7a:6f:
         c4:d9:84:bc:63:a5:54:a1:bd:8e:f4:aa:26:aa:38:3b:7b:bb:
         3f:6b:a3:47:72:5e:72:74:99:96:21:87:61:8d:42:05:fa:52:
         99:ad:c3:25:c4:25:df:12:e3:52:72:8a:19:c3:77:e7:c9:cb:
         f7:d7:d6:67:9b:35:51:ff:dd:54:08:24:c7:03:77:88:e9:a4:
         43:c3:34:de:90:11:4c:02:4b:8b:27:58:94:8a:b2:7e:6f:c2:
         83:7f:ab:08:d7:b9:e3:49:ae:c0:81:79:13:a5:29:88:74:9f:
         68:35:e2:96:81:f5:99:1d:3e:f5:b1:44:c0:f1:9a:f7:65:78:
         af:f9:6a:cf
-----BEGIN CERTIFICATE-----
MIIDXTCCAkWgAwIBAgIRAOggCvQ3ETXEV2Sz1p3iQ5wwDQYJKoZIhvcNAQELBQAw
FjEUMBIGA1UEAwwLdGVhbTQwNC1uZXQwHhcNMjEwOTEzMDIyNjI2WhcNMjQwODI4
MDIyNjI2WjAZMRcwFQYDVQQDDA50ZWFtNDA0LWNsaWVudDCCASIwDQYJKoZIhvcN
AQEBBQADggEPADCCAQoCggEBALxzvPmqLp/RqvRn7dPKnYynWWPyQonMlsTh+LS9
kLYdh643qwbvTomaXWlf/lucGBpDovHUw9Sr6ejoSzoWv0qNY8Y7LSnSrnganjZr
1h2+QxxilCoVSLalfej7WNODn5ejSXGs4OEe0HeVgiP3XXfIazsrFFVh+K0Hp39v
ZNcnvibznA2wwkNs+HoDbBsS70qxDU+WSeqWMvTg6bsczF+FXOyBJ3h0tQthgdyt
pwaPkWeQKTQ2a7fmxvlEXkvepSkPktc10w96em/FWw+ikXCNUgqStUqhtek2BPGU
xUQB123lU/3gitPR2f0+mfKvsi3SR1btgvxMqJWmDa4i8JUCAwEAAaOBojCBnzAJ
BgNVHRMEAjAAMB0GA1UdDgQWBBRHY/QFGGyuTzf/+k7O1AjgUIa4YzBRBgNVHSME
SjBIgBTbrUvt3w1odOCE/zDEwznghcRMQKEapBgwFjEUMBIGA1UEAwwLdGVhbTQw
NC1uZXSCFDSyrJ4ffEB/RYBOT8P6lC6ubAaLMBMGA1UdJQQMMAoGCCsGAQUFBwMC
MAsGA1UdDwQEAwIHgDANBgkqhkiG9w0BAQsFAAOCAQEAXmwl1lgeLON7neg1/lHu
OamOW/EHumt4pHzRe02YwTNur7ry6NtL58lgVmOlDjhAo9UD3YCm6NXbDu/wFe32
0HIqCBCO5yR2ZWnA5zdh+bHgysSJV2c7i4WUEqEcgf0XRAR9iSXn6LCOHJeY3i36
5hHPoTuCbjOIBiX9vnpvxNmEvGOlVKG9jvSqJqo4O3u7P2ujR3JecnSZliGHYY1C
BfpSma3DJcQl3xLjUnKKGcN358nL99fWZ5s1Uf/dVAgkxwN3iOmkQ8M03pARTAJL
iydYlIqyfm/Cg3+rCNe540muwIF5E6UpiHSfaDXiloH1mR0+9bFEwPGa92V4r/lq
zw==
-----END CERTIFICATE-----
