Certificate:
    Data:
        Version: 3 (0x2)
        Serial Number:
            c9:5a:83:46:4f:12:96:e6:99:8c:b2:f0:36:f5:ea:94
        Signature Algorithm: sha256WithRSAEncryption
        Issuer: CN=team760-net
        Validity
            Not Before: Sep 13 06:01:09 2021 GMT
            Not After : Aug 28 06:01:09 2024 GMT
        Subject: CN=team760-client
        Subject Public Key Info:
            Public Key Algorithm: rsaEncryption
                RSA Public-Key: (2048 bit)
                Modulus:
                    00:b9:0f:ef:de:70:39:82:7d:1b:7e:00:cb:82:87:
                    8c:77:5c:01:29:35:c9:fd:db:0a:2f:9a:27:6a:99:
                    58:e6:f0:25:d9:4b:de:e6:70:de:19:f2:1c:28:5a:
                    87:12:f0:6a:79:ca:86:7b:9a:ab:37:70:0f:5a:bb:
                    e5:ca:4e:53:74:e1:00:4f:11:2e:72:f2:ea:8b:87:
                    71:66:17:72:fc:9a:38:47:ca:04:6c:15:de:22:aa:
                    a6:bc:40:56:ea:e6:e9:e8:b6:73:23:76:8a:b3:28:
                    46:81:4a:36:dc:3d:01:46:77:4f:77:99:b8:68:82:
                    da:91:cd:d9:02:0c:f3:87:5f:c9:ec:d8:25:c9:03:
                    7f:96:3a:6e:fe:ad:35:d8:08:b5:b9:74:a3:c2:32:
                    9c:2a:c2:d9:42:d7:15:70:25:13:c0:99:f1:49:69:
                    90:f2:e6:3d:eb:0d:b3:a7:42:76:75:5f:52:4d:6c:
                    f0:5b:2a:3c:5e:23:c1:8d:bb:ac:0f:1b:a3:46:b6:
                    3c:6d:ba:d7:68:19:30:77:4c:b9:f4:4e:09:a4:a2:
                    de:fc:6a:82:f0:d5:36:6d:c2:fa:45:17:74:30:6c:
                    b4:ae:4f:e6:71:fe:5e:95:a8:79:3b:2b:f6:45:db:
                    01:a3:31:ce:b5:21:fd:75:44:bc:1b:eb:31:9c:f9:
                    9a:d3
                Exponent: 65537 (0x10001)
        X509v3 extensions:
            X509v3 Basic Constraints: 
                CA:FALSE
            X509v3 Subject Key Identifier: 
                03:F5:30:34:79:79:ED:05:94:92:E4:F4:7A:0C:14:CB:70:3D:8A:15
            X509v3 Authority Key Identifier: 
                keyid:78:AA:7A:21:8B:41:A7:7E:9E:56:A1:57:13:DF:78:52:79:5E:8E:B2
                DirName:/CN=team760-net
                serial:3F:58:BC:D9:AD:90:38:95:89:21:5D:43:98:88:10:BC:72:5D:BC:FD

            X509v3 Extended Key Usage: 
                TLS Web Client Authentication
            X509v3 Key Usage: 
                Digital Signature
    Signature Algorithm: sha256WithRSAEncryption
         d1:98:fb:22:f5:7f:a7:2b:73:81:e6:8b:d0:48:1f:7a:30:7c:
         ef:70:22:cd:b1:fe:56:a3:96:96:79:f5:05:36:4d:11:2a:17:
         76:7b:e9:23:3e:dc:8e:67:25:8b:96:e2:e7:23:ec:3c:a1:8d:
         2e:77:1b:bf:74:bf:eb:60:92:5e:c4:02:6e:a6:a2:51:6d:2e:
         bf:6a:cc:c3:d2:52:63:f5:4f:bc:a3:e8:b5:ce:af:45:82:5c:
         a8:f0:f9:d3:c7:5b:98:83:c2:a2:44:b2:b8:d4:07:be:88:c5:
         85:c9:e1:9a:f9:17:85:29:83:04:8a:b4:25:e5:08:7f:0f:03:
         62:7a:93:f1:59:48:4f:9f:02:cf:79:e3:6e:40:5b:28:b3:4c:
         0d:02:5d:73:bb:3c:67:5b:d9:f6:cd:bd:5b:e1:da:2d:3f:ac:
         5a:26:83:2d:55:71:19:b9:83:8f:ea:ac:2a:2a:e0:9b:3d:49:
         df:06:5a:93:0e:e0:a6:d1:ac:e2:58:95:42:17:ec:f5:39:49:
         61:d5:b5:49:3b:82:95:38:b3:1c:19:a5:12:90:09:8c:dd:8c:
         f4:ab:7a:dd:6d:66:55:ce:64:13:39:84:b7:83:e8:91:c6:1f:
         92:d2:d5:20:70:47:4a:5a:75:a8:60:28:ee:dd:6d:60:a4:6a:
         cb:b2:f1:ee
-----BEGIN CERTIFICATE-----
MIIDXTCCAkWgAwIBAgIRAMlag0ZPEpbmmYyy8Db16pQwDQYJKoZIhvcNAQELBQAw
FjEUMBIGA1UEAwwLdGVhbTc2MC1uZXQwHhcNMjEwOTEzMDYwMTA5WhcNMjQwODI4
MDYwMTA5WjAZMRcwFQYDVQQDDA50ZWFtNzYwLWNsaWVudDCCASIwDQYJKoZIhvcN
AQEBBQADggEPADCCAQoCggEBALkP795wOYJ9G34Ay4KHjHdcASk1yf3bCi+aJ2qZ
WObwJdlL3uZw3hnyHChahxLwannKhnuaqzdwD1q75cpOU3ThAE8RLnLy6ouHcWYX
cvyaOEfKBGwV3iKqprxAVurm6ei2cyN2irMoRoFKNtw9AUZ3T3eZuGiC2pHN2QIM
84dfyezYJckDf5Y6bv6tNdgItbl0o8IynCrC2ULXFXAlE8CZ8UlpkPLmPesNs6dC
dnVfUk1s8FsqPF4jwY27rA8bo0a2PG2612gZMHdMufROCaSi3vxqgvDVNm3C+kUX
dDBstK5P5nH+XpWoeTsr9kXbAaMxzrUh/XVEvBvrMZz5mtMCAwEAAaOBojCBnzAJ
BgNVHRMEAjAAMB0GA1UdDgQWBBQD9TA0eXntBZSS5PR6DBTLcD2KFTBRBgNVHSME
SjBIgBR4qnohi0Gnfp5WoVcT33hSeV6OsqEapBgwFjEUMBIGA1UEAwwLdGVhbTc2
MC1uZXSCFD9YvNmtkDiViSFdQ5iIELxyXbz9MBMGA1UdJQQMMAoGCCsGAQUFBwMC
MAsGA1UdDwQEAwIHgDANBgkqhkiG9w0BAQsFAAOCAQEA0Zj7IvV/pytzgeaL0Egf
ejB873AizbH+VqOWlnn1BTZNESoXdnvpIz7cjmcli5bi5yPsPKGNLncbv3S/62CS
XsQCbqaiUW0uv2rMw9JSY/VPvKPotc6vRYJcqPD508dbmIPCokSyuNQHvojFhcnh
mvkXhSmDBIq0JeUIfw8DYnqT8VlIT58Cz3njbkBbKLNMDQJdc7s8Z1vZ9s29W+Ha
LT+sWiaDLVVxGbmDj+qsKirgmz1J3wZakw7gptGs4liVQhfs9TlJYdW1STuClTiz
HBmlEpAJjN2M9Kt63W1mVc5kEzmEt4PokcYfktLVIHBHSlp1qGAo7t1tYKRqy7Lx
7g==
-----END CERTIFICATE-----
