Certificate:
    Data:
        Version: 3 (0x2)
        Serial Number:
            32:70:58:35:e2:11:33:78:7f:80:18:6f:fb:c2:ca:45
        Signature Algorithm: sha256WithRSAEncryption
        Issuer: CN=team366-net
        Validity
            Not Before: Sep 13 02:02:19 2021 GMT
            Not After : Aug 28 02:02:19 2024 GMT
        Subject: CN=team366-server
        Subject Public Key Info:
            Public Key Algorithm: rsaEncryption
                RSA Public-Key: (2048 bit)
                Modulus:
                    00:df:ac:32:87:12:04:42:13:a9:d1:fc:01:4b:a7:
                    25:d5:75:a1:5a:88:e4:a8:9b:a8:06:c6:1d:e1:c4:
                    3c:7f:cd:73:2f:bb:53:f3:10:28:1a:a1:a2:7b:b6:
                    e6:94:5c:61:8b:87:15:36:40:da:0b:6e:f1:f7:de:
                    20:6b:7f:9e:62:80:da:0c:82:23:ef:ca:bb:c4:a6:
                    84:80:13:fc:75:d6:14:94:dc:5a:e6:59:ff:93:12:
                    91:3d:a3:a6:81:ce:9a:3a:d0:61:63:4f:08:5e:aa:
                    b7:e0:d5:49:5a:0f:40:3a:c6:a7:23:43:30:75:d5:
                    6c:fc:4b:b1:09:0a:27:ce:d0:17:cd:cb:fc:2c:15:
                    55:a1:a3:e9:db:61:17:1c:7f:67:e3:a0:cc:41:db:
                    23:19:7d:dd:05:4d:e3:72:65:fc:d3:4c:cc:63:15:
                    16:bf:5c:51:9f:4f:80:cf:2f:0e:44:21:d0:22:b6:
                    54:02:dd:e3:62:34:55:23:5f:97:06:76:df:73:68:
                    aa:7d:d3:9d:34:fb:22:d9:7e:e5:5d:88:bc:fb:99:
                    ec:72:2e:84:5b:98:01:59:84:59:87:e4:4d:4b:af:
                    4c:2f:75:9b:09:14:8f:5f:3a:2e:a5:b0:4e:84:76:
                    fc:cc:0e:df:38:d1:76:34:06:80:74:d6:f1:1e:d9:
                    e6:bb
                Exponent: 65537 (0x10001)
        X509v3 extensions:
            X509v3 Basic Constraints: 
                CA:FALSE
            X509v3 Subject Key Identifier: 
                FA:00:6D:4F:B6:40:48:40:13:E0:5D:F2:19:A4:A5:D4:2D:E4:86:B0
            X509v3 Authority Key Identifier: 
                keyid:86:16:35:07:C8:D9:ED:95:BB:53:2D:3F:41:B0:87:E0:C3:41:42:86
                DirName:/CN=team366-net
                serial:3E:AA:AF:9A:82:92:EF:C0:1C:3A:F6:A2:C4:E5:72:1C:55:30:6A:68

            X509v3 Extended Key Usage: 
                TLS Web Server Authentication
            X509v3 Key Usage: 
                Digital Signature, Key Encipherment
            X509v3 Subject Alternative Name: 
                DNS:team366-server
    Signature Algorithm: sha256WithRSAEncryption
         7a:76:3d:21:0b:20:e0:c7:da:95:43:f3:66:bb:41:09:a6:59:
         83:5a:8d:90:20:82:fd:99:bb:b5:c0:73:2f:1c:bc:d5:e5:b3:
         6b:15:84:e8:b4:e5:4f:04:b3:2d:9e:4f:a7:c0:12:0b:32:a3:
         b6:c2:ce:2c:de:bb:9f:9b:a5:aa:34:6b:2c:50:a7:e1:0d:ae:
         ed:e9:da:ee:6d:62:d6:89:5d:c6:3d:c4:81:ff:e3:dd:f0:70:
         ad:18:bb:89:ef:92:00:3c:aa:37:1a:0b:41:e4:b3:fe:0f:6a:
         46:f5:10:f1:4e:09:1e:a9:0c:e3:b9:31:e5:66:41:32:fe:bc:
         21:1b:18:7e:fd:34:88:e6:33:de:22:d9:d7:f0:87:9b:fb:be:
         cb:1b:ed:90:ce:99:63:96:e6:51:a3:d4:4f:7b:32:32:21:1b:
         1c:50:13:e2:0d:6a:eb:64:f9:18:d1:72:3b:05:63:72:48:44:
         aa:05:f6:38:a5:69:03:8c:4d:c0:11:85:10:11:4b:0a:65:71:
         a4:50:f2:cf:cb:e4:dd:b9:14:d4:f3:83:41:bb:39:79:01:ea:
         6b:4c:09:48:a5:3d:f2:3d:2c:ff:7e:ef:5a:fe:b8:74:dd:ca:
         89:65:7f:c5:27:04:e5:b8:14:da:2d:20:95:ac:ea:e5:8a:a8:
         bb:58:5b:83
-----BEGIN CERTIFICATE-----
MIIDdzCCAl+gAwIBAgIQMnBYNeIRM3h/gBhv+8LKRTANBgkqhkiG9w0BAQsFADAW
MRQwEgYDVQQDDAt0ZWFtMzY2LW5ldDAeFw0yMTA5MTMwMjAyMTlaFw0yNDA4Mjgw
MjAyMTlaMBkxFzAVBgNVBAMMDnRlYW0zNjYtc2VydmVyMIIBIjANBgkqhkiG9w0B
AQEFAAOCAQ8AMIIBCgKCAQEA36wyhxIEQhOp0fwBS6cl1XWhWojkqJuoBsYd4cQ8
f81zL7tT8xAoGqGie7bmlFxhi4cVNkDaC27x994ga3+eYoDaDIIj78q7xKaEgBP8
ddYUlNxa5ln/kxKRPaOmgc6aOtBhY08IXqq34NVJWg9AOsanI0MwddVs/EuxCQon
ztAXzcv8LBVVoaPp22EXHH9n46DMQdsjGX3dBU3jcmX800zMYxUWv1xRn0+Azy8O
RCHQIrZUAt3jYjRVI1+XBnbfc2iqfdOdNPsi2X7lXYi8+5nsci6EW5gBWYRZh+RN
S69ML3WbCRSPXzoupbBOhHb8zA7fONF2NAaAdNbxHtnmuwIDAQABo4G9MIG6MAkG
A1UdEwQCMAAwHQYDVR0OBBYEFPoAbU+2QEhAE+Bd8hmkpdQt5IawMFEGA1UdIwRK
MEiAFIYWNQfI2e2Vu1MtP0Gwh+DDQUKGoRqkGDAWMRQwEgYDVQQDDAt0ZWFtMzY2
LW5ldIIUPqqvmoKS78AcOvaixOVyHFUwamgwEwYDVR0lBAwwCgYIKwYBBQUHAwEw
CwYDVR0PBAQDAgWgMBkGA1UdEQQSMBCCDnRlYW0zNjYtc2VydmVyMA0GCSqGSIb3
DQEBCwUAA4IBAQB6dj0hCyDgx9qVQ/Nmu0EJplmDWo2QIIL9mbu1wHMvHLzV5bNr
FYTotOVPBLMtnk+nwBILMqO2ws4s3rufm6WqNGssUKfhDa7t6drubWLWiV3GPcSB
/+Pd8HCtGLuJ75IAPKo3GgtB5LP+D2pG9RDxTgkeqQzjuTHlZkEy/rwhGxh+/TSI
5jPeItnX8Ieb+77LG+2QzpljluZRo9RPezIyIRscUBPiDWrrZPkY0XI7BWNySESq
BfY4pWkDjE3AEYUQEUsKZXGkUPLPy+TduRTU84NBuzl5AeprTAlIpT3yPSz/fu9a
/rh03cqJZX/FJwTluBTaLSCVrOrliqi7WFuD
-----END CERTIFICATE-----
