Certificate:
    Data:
        Version: 3 (0x2)
        Serial Number:
            62:2c:42:0c:80:96:55:00:bd:15:d8:cb:c2:61:92:d2
        Signature Algorithm: sha256WithRSAEncryption
        Issuer: CN=team373-net
        Validity
            Not Before: Sep 13 02:05:31 2021 GMT
            Not After : Aug 28 02:05:31 2024 GMT
        Subject: CN=team373-client
        Subject Public Key Info:
            Public Key Algorithm: rsaEncryption
                RSA Public-Key: (2048 bit)
                Modulus:
                    00:d0:6c:b1:17:50:ac:e3:2a:fd:54:10:86:a0:ce:
                    5a:92:40:01:a4:6e:83:93:67:6b:59:a2:c4:c3:75:
                    58:76:37:b7:ed:e8:bc:08:1f:1b:4c:bc:1a:11:13:
                    44:01:58:2e:75:90:84:bd:93:d3:97:cd:44:38:5a:
                    15:bf:ce:c0:45:2f:4f:f1:99:27:78:c3:1b:b5:ae:
                    a7:43:4d:81:df:74:e0:46:76:15:f8:2f:34:2e:50:
                    60:c3:5f:60:e3:f9:73:d0:5b:4b:cb:93:5e:ff:b6:
                    e2:93:e8:fb:3b:83:7f:3e:1b:37:81:a9:b1:35:62:
                    c3:bf:16:96:96:e3:cb:74:ea:0c:6a:8e:ad:22:f9:
                    23:d8:83:65:aa:d7:44:45:38:1c:71:ac:f8:ef:48:
                    cc:b4:d5:ac:87:be:9f:24:dc:84:1f:0d:44:f7:68:
                    b5:7b:68:bf:83:3e:3b:e3:fe:7c:1b:d4:e1:f5:5c:
                    b8:f5:dc:9d:95:96:f7:92:92:03:9d:12:97:36:55:
                    63:da:30:9f:ea:24:87:d4:75:dc:2c:e0:f1:c0:eb:
                    13:b0:ab:62:2b:a0:63:5d:09:0e:94:a8:47:a1:cb:
                    37:6b:45:8c:f2:1e:7c:d6:8d:d0:1f:93:eb:ae:a7:
                    53:0e:7a:3c:80:29:aa:3e:3e:a3:84:d8:85:06:a0:
                    7a:89
                Exponent: 65537 (0x10001)
        X509v3 extensions:
            X509v3 Basic Constraints: 
                CA:FALSE
            X509v3 Subject Key Identifier: 
                9D:EE:2B:B0:A5:50:EE:32:51:6A:02:AE:D7:1A:77:E0:14:E0:A7:2C
            X509v3 Authority Key Identifier: 
                keyid:6A:A2:9F:E4:F8:28:47:1C:96:2B:88:19:A2:49:BE:AE:1C:7D:2D:82
                DirName:/CN=team373-net
                serial:04:23:B1:A9:0D:D8:67:E6:2A:71:D3:B7:D8:FC:B3:35:B6:98:3E:79

            X509v3 Extended Key Usage: 
                TLS Web Client Authentication
            X509v3 Key Usage: 
                Digital Signature
    Signature Algorithm: sha256WithRSAEncryption
         19:07:11:e9:73:fa:a4:78:59:43:c5:91:65:c6:56:f6:db:f3:
         ed:bf:80:89:28:87:8d:f8:7b:92:8b:bc:b9:f6:08:c3:18:91:
         3f:df:0c:72:e5:5e:59:3d:23:86:93:ae:af:be:31:b5:48:6f:
         bf:bc:fe:0d:f3:b2:b7:33:c0:88:f3:e0:81:2b:06:2f:85:1c:
         d7:71:79:ee:fb:05:0a:b0:47:ef:f1:75:21:1f:d0:eb:46:02:
         a4:e6:f3:4a:c5:73:ca:75:b8:38:6c:d0:6d:79:ed:e9:7d:c8:
         66:20:47:3e:2f:4d:90:11:12:6e:c4:d7:49:91:48:fd:65:ea:
         37:3c:b3:d4:3c:b5:52:0b:5b:9e:2a:e8:54:bb:9f:2b:a8:80:
         ba:ea:e7:cd:67:cc:0b:66:de:6d:78:87:e5:a4:da:b7:91:5f:
         81:9a:64:5e:f8:de:e5:60:36:ac:4e:89:45:78:2f:40:21:08:
         a3:63:a0:67:8c:1d:36:4e:31:13:08:58:95:e3:29:a1:fd:55:
         34:77:4a:2d:f4:8b:68:d8:eb:fe:31:8e:6e:ee:53:a9:f4:ea:
         b7:b6:04:93:18:6e:ad:4e:e1:9e:8d:57:ef:03:bd:e7:4c:a2:
         da:22:4b:a7:76:74:3a:53:3a:80:74:d7:5d:b8:19:e6:84:0f:
         23:cb:03:53
-----BEGIN CERTIFICATE-----
MIIDXDCCAkSgAwIBAgIQYixCDICWVQC9FdjLwmGS0jANBgkqhkiG9w0BAQsFADAW
MRQwEgYDVQQDDAt0ZWFtMzczLW5ldDAeFw0yMTA5MTMwMjA1MzFaFw0yNDA4Mjgw
MjA1MzFaMBkxFzAVBgNVBAMMDnRlYW0zNzMtY2xpZW50MIIBIjANBgkqhkiG9w0B
AQEFAAOCAQ8AMIIBCgKCAQEA0GyxF1Cs4yr9VBCGoM5akkABpG6Dk2drWaLEw3VY
dje37ei8CB8bTLwaERNEAVgudZCEvZPTl81EOFoVv87ARS9P8ZkneMMbta6nQ02B
33TgRnYV+C80LlBgw19g4/lz0FtLy5Ne/7bik+j7O4N/Phs3gamxNWLDvxaWluPL
dOoMao6tIvkj2INlqtdERTgccaz470jMtNWsh76fJNyEHw1E92i1e2i/gz474/58
G9Th9Vy49dydlZb3kpIDnRKXNlVj2jCf6iSH1HXcLODxwOsTsKtiK6BjXQkOlKhH
ocs3a0WM8h581o3QH5PrrqdTDno8gCmqPj6jhNiFBqB6iQIDAQABo4GiMIGfMAkG
A1UdEwQCMAAwHQYDVR0OBBYEFJ3uK7ClUO4yUWoCrtcad+AU4KcsMFEGA1UdIwRK
MEiAFGqin+T4KEccliuIGaJJvq4cfS2CoRqkGDAWMRQwEgYDVQQDDAt0ZWFtMzcz
LW5ldIIUBCOxqQ3YZ+YqcdO32PyzNbaYPnkwEwYDVR0lBAwwCgYIKwYBBQUHAwIw
CwYDVR0PBAQDAgeAMA0GCSqGSIb3DQEBCwUAA4IBAQAZBxHpc/qkeFlDxZFlxlb2
2/Ptv4CJKIeN+HuSi7y59gjDGJE/3wxy5V5ZPSOGk66vvjG1SG+/vP4N87K3M8CI
8+CBKwYvhRzXcXnu+wUKsEfv8XUhH9DrRgKk5vNKxXPKdbg4bNBtee3pfchmIEc+
L02QERJuxNdJkUj9Zeo3PLPUPLVSC1ueKuhUu58rqIC66ufNZ8wLZt5teIflpNq3
kV+BmmRe+N7lYDasTolFeC9AIQijY6BnjB02TjETCFiV4ymh/VU0d0ot9Ito2Ov+
MY5u7lOp9Oq3tgSTGG6tTuGejVfvA73nTKLaIkundnQ6UzqAdNdduBnmhA8jywNT
-----END CERTIFICATE-----
