Certificate:
    Data:
        Version: 3 (0x2)
        Serial Number:
            78:dd:ef:e1:0e:11:71:cd:6f:42:b4:cb:f4:fe:2c:b3
        Signature Algorithm: sha256WithRSAEncryption
        Issuer: CN=team382-net
        Validity
            Not Before: Sep 13 02:13:40 2021 GMT
            Not After : Aug 28 02:13:40 2024 GMT
        Subject: CN=team382-server
        Subject Public Key Info:
            Public Key Algorithm: rsaEncryption
                RSA Public-Key: (2048 bit)
                Modulus:
                    00:e4:50:4d:94:09:d1:d9:e8:ea:c3:c8:98:ef:52:
                    73:9b:a0:03:0c:ac:5c:43:c5:a9:4c:13:e6:81:d6:
                    a4:c1:9a:75:ab:89:cf:ea:c3:db:f1:eb:1c:f3:25:
                    71:3e:95:30:53:e6:8d:15:a3:b5:3f:b0:d4:82:6a:
                    74:e2:c5:65:01:e7:3e:3d:c0:ca:7e:31:80:63:c0:
                    01:86:ef:ed:1a:66:72:fe:1b:ad:41:e5:75:a1:e3:
                    28:72:e6:ae:22:fc:14:c1:68:c1:49:5f:3c:de:5a:
                    34:bd:f0:fd:a9:39:3d:15:2a:1d:3a:b4:99:e9:3b:
                    0d:91:59:78:de:f3:27:19:b3:07:d2:06:07:7b:74:
                    af:c8:93:bf:17:65:8c:d1:02:7e:49:8b:da:d9:6e:
                    93:a2:e8:d9:81:6a:a5:a4:8f:1d:2d:2d:58:5f:b6:
                    4c:c2:d4:3b:07:f8:09:7f:46:ed:c7:54:7d:b9:98:
                    25:96:3e:23:ef:90:3f:8a:08:49:7a:54:1c:d7:a0:
                    49:58:30:4d:01:8b:eb:ef:f1:08:b0:9a:94:c7:77:
                    22:e1:be:f3:06:bb:b0:a6:2d:f9:26:71:3e:a9:83:
                    4b:3c:e7:70:5c:0f:47:3b:46:85:18:18:4d:3b:d9:
                    2c:dd:8e:d1:84:f9:98:1d:7f:d6:3a:3a:72:5d:f4:
                    55:49
                Exponent: 65537 (0x10001)
        X509v3 extensions:
            X509v3 Basic Constraints: 
                CA:FALSE
            X509v3 Subject Key Identifier: 
                31:FC:4C:E2:84:74:AE:D4:BC:1D:E0:2E:E0:61:76:47:E3:F6:8C:3C
            X509v3 Authority Key Identifier: 
                keyid:B9:1A:97:BD:7D:88:B2:24:DE:75:A3:01:50:EF:38:72:DA:7F:7D:82
                DirName:/CN=team382-net
                serial:18:20:12:BC:9D:D3:B3:42:19:BA:0E:61:FB:87:6D:A1:5F:0A:80:F2

            X509v3 Extended Key Usage: 
                TLS Web Server Authentication
            X509v3 Key Usage: 
                Digital Signature, Key Encipherment
            X509v3 Subject Alternative Name: 
                DNS:team382-server
    Signature Algorithm: sha256WithRSAEncryption
         53:0a:85:7c:b6:09:8b:ec:03:e2:5b:bd:06:04:dc:ec:d3:9d:
         a8:fe:b9:88:21:05:79:5a:b5:16:03:e9:bf:8a:6d:76:97:d2:
         41:66:90:6e:db:16:be:9e:00:60:34:e9:ff:51:92:e8:c1:55:
         d1:5a:47:99:f9:88:56:f8:bb:84:b5:56:08:76:05:ca:bf:ad:
         39:ea:07:80:45:31:87:1b:2a:42:ec:85:f4:d6:83:48:6f:e9:
         32:ab:f6:0b:85:ef:9a:88:cf:70:de:e7:0c:b0:f1:5d:4e:df:
         e5:a4:44:0b:34:2d:2e:35:c4:29:c1:4b:98:b5:e0:bf:57:ac:
         49:c3:9c:c2:97:fe:3a:65:10:fd:d9:01:b7:a9:b5:b3:52:84:
         d3:b6:5b:7d:a1:72:d5:de:ff:1d:2c:0c:3e:b5:ba:37:3d:b5:
         84:e1:a1:78:81:97:d9:e1:7f:87:61:cf:25:b5:5f:ee:05:9b:
         9c:8d:ed:56:e5:ec:cd:62:80:6b:21:a5:52:3a:0a:02:43:53:
         43:41:e8:d3:e3:76:7b:47:e6:9e:f3:47:79:55:4c:8c:06:30:
         35:25:74:a8:41:48:bc:cc:76:69:ed:d0:cc:70:f7:bd:6d:31:
         b8:c9:55:88:aa:4d:b8:ab:46:18:99:e6:55:ee:5f:62:e5:99:
         35:c6:17:0f
-----BEGIN CERTIFICATE-----
MIIDdzCCAl+gAwIBAgIQeN3v4Q4Rcc1vQrTL9P4sszANBgkqhkiG9w0BAQsFADAW
MRQwEgYDVQQDDAt0ZWFtMzgyLW5ldDAeFw0yMTA5MTMwMjEzNDBaFw0yNDA4Mjgw
MjEzNDBaMBkxFzAVBgNVBAMMDnRlYW0zODItc2VydmVyMIIBIjANBgkqhkiG9w0B
AQEFAAOCAQ8AMIIBCgKCAQEA5FBNlAnR2ejqw8iY71Jzm6ADDKxcQ8WpTBPmgdak
wZp1q4nP6sPb8esc8yVxPpUwU+aNFaO1P7DUgmp04sVlAec+PcDKfjGAY8ABhu/t
GmZy/hutQeV1oeMocuauIvwUwWjBSV883lo0vfD9qTk9FSodOrSZ6TsNkVl43vMn
GbMH0gYHe3SvyJO/F2WM0QJ+SYva2W6ToujZgWqlpI8dLS1YX7ZMwtQ7B/gJf0bt
x1R9uZgllj4j75A/ighJelQc16BJWDBNAYvr7/EIsJqUx3ci4b7zBruwpi35JnE+
qYNLPOdwXA9HO0aFGBhNO9ks3Y7RhPmYHX/WOjpyXfRVSQIDAQABo4G9MIG6MAkG
A1UdEwQCMAAwHQYDVR0OBBYEFDH8TOKEdK7UvB3gLuBhdkfj9ow8MFEGA1UdIwRK
MEiAFLkal719iLIk3nWjAVDvOHLaf32CoRqkGDAWMRQwEgYDVQQDDAt0ZWFtMzgy
LW5ldIIUGCASvJ3Ts0IZug5h+4dtoV8KgPIwEwYDVR0lBAwwCgYIKwYBBQUHAwEw
CwYDVR0PBAQDAgWgMBkGA1UdEQQSMBCCDnRlYW0zODItc2VydmVyMA0GCSqGSIb3
DQEBCwUAA4IBAQBTCoV8tgmL7APiW70GBNzs052o/rmIIQV5WrUWA+m/im12l9JB
ZpBu2xa+ngBgNOn/UZLowVXRWkeZ+YhW+LuEtVYIdgXKv6056geARTGHGypC7IX0
1oNIb+kyq/YLhe+aiM9w3ucMsPFdTt/lpEQLNC0uNcQpwUuYteC/V6xJw5zCl/46
ZRD92QG3qbWzUoTTtlt9oXLV3v8dLAw+tbo3PbWE4aF4gZfZ4X+HYc8ltV/uBZuc
je1W5ezNYoBrIaVSOgoCQ1NDQejT43Z7R+ae80d5VUyMBjA1JXSoQUi8zHZp7dDM
cPe9bTG4yVWIqk24q0YYmeZV7l9i5Zk1xhcP
-----END CERTIFICATE-----
