Certificate:
    Data:
        Version: 3 (0x2)
        Serial Number:
            80:3c:30:40:be:a6:37:76:e6:06:a8:53:e6:fc:a8:ae
        Signature Algorithm: sha256WithRSAEncryption
        Issuer: CN=team710-net
        Validity
            Not Before: Sep 13 04:54:05 2021 GMT
            Not After : Aug 28 04:54:05 2024 GMT
        Subject: CN=team710-server
        Subject Public Key Info:
            Public Key Algorithm: rsaEncryption
                RSA Public-Key: (2048 bit)
                Modulus:
                    00:b7:cf:d2:36:f4:fc:e6:66:dd:37:bf:7b:f3:f5:
                    6b:36:df:8b:b0:7a:84:14:5a:b8:82:16:27:73:b9:
                    3b:54:ea:12:55:88:b8:31:5e:3a:8c:77:33:6f:51:
                    c1:fd:06:17:39:0d:f1:a4:c0:b2:db:9e:5c:e8:4f:
                    f0:6c:d9:0b:b7:df:69:46:63:f0:de:d0:d0:21:c5:
                    5f:74:a1:da:99:59:c9:0c:1f:90:c7:32:5a:d1:67:
                    0d:61:b1:9f:db:e5:a9:68:ac:9f:68:fe:e1:cc:66:
                    fa:4f:48:61:0f:d7:96:ff:97:a7:d3:b4:01:cf:18:
                    98:73:0b:f1:1e:42:e4:c5:21:6f:01:b0:5d:e7:08:
                    6d:cb:12:ca:40:12:d0:dd:ef:0e:f6:59:f2:c7:7c:
                    c2:33:d3:e9:f3:13:e9:6d:af:33:d5:95:57:ad:8d:
                    8f:96:c0:10:d4:c0:7c:c6:3d:df:89:c6:ad:90:39:
                    4a:33:8d:93:fd:3c:65:05:76:8f:61:86:90:d9:f5:
                    e2:17:78:3c:e7:26:5e:59:bd:7e:62:9b:d2:1b:7a:
                    34:27:81:0a:86:a1:a0:47:a7:75:41:2a:1f:8d:37:
                    72:ad:95:90:31:40:8d:42:35:e3:f0:f8:14:4c:61:
                    31:fb:7e:e8:29:82:01:c5:57:bd:ab:41:20:77:ed:
                    c0:65
                Exponent: 65537 (0x10001)
        X509v3 extensions:
            X509v3 Basic Constraints: 
                CA:FALSE
            X509v3 Subject Key Identifier: 
                1C:9D:41:84:DF:32:F6:0D:AB:03:3E:D7:B1:72:69:33:1F:A6:F9:4F
            X509v3 Authority Key Identifier: 
                keyid:EC:1C:42:1E:6E:B2:24:89:F3:17:9F:4A:8F:58:C8:A0:FA:D6:F6:63
                DirName:/CN=team710-net
                serial:7B:25:F7:00:60:36:A0:89:88:76:7C:95:27:C7:0C:5C:FA:5F:C7:EF

            X509v3 Extended Key Usage: 
                TLS Web Server Authentication
            X509v3 Key Usage: 
                Digital Signature, Key Encipherment
            X509v3 Subject Alternative Name: 
                DNS:team710-server
    Signature Algorithm: sha256WithRSAEncryption
         3e:8f:59:81:f4:89:dc:f0:d8:4f:81:aa:a3:1a:44:dd:6c:60:
         bf:90:5a:14:c5:00:55:2c:82:01:de:8d:e2:86:f9:3c:e5:43:
         76:8e:c7:e6:f6:0a:c8:ad:38:19:ea:50:53:2a:8f:bf:24:0f:
         55:30:3e:68:3b:ad:64:9a:01:94:82:bb:a9:82:3c:f6:28:5c:
         76:7b:bb:91:b9:3d:10:ba:ca:ff:57:c9:a5:ec:6e:13:3e:dd:
         7b:38:d1:3d:f8:c1:3b:b8:75:f5:2a:41:75:96:d2:9c:a7:f5:
         6f:f4:5d:15:1f:7b:f0:21:53:31:ca:21:79:39:57:2a:7a:8c:
         9a:13:5c:27:29:bd:bc:4b:5d:79:53:cb:c0:ed:aa:88:2d:e1:
         eb:7d:0a:5e:d3:a8:b2:cf:6d:3f:a0:c6:9e:07:3e:e6:ab:cc:
         b1:cf:c1:f9:4a:f7:f0:a0:0d:a6:88:ec:12:30:24:ef:a3:d7:
         bc:4e:56:98:95:a2:0c:7c:29:75:04:90:dd:13:3a:b5:43:03:
         ae:61:2c:87:e4:80:fb:98:1c:eb:bf:3d:74:12:ba:23:83:2b:
         ee:23:95:ec:2e:ef:a6:48:7f:32:b8:66:63:8d:f0:bf:5b:7f:
         6a:b5:c0:7a:bc:f8:cf:ae:07:bb:82:f2:55:17:fd:bc:2e:a7:
         5d:91:d0:50
-----BEGIN CERTIFICATE-----
MIIDeDCCAmCgAwIBAgIRAIA8MEC+pjd25gaoU+b8qK4wDQYJKoZIhvcNAQELBQAw
FjEUMBIGA1UEAwwLdGVhbTcxMC1uZXQwHhcNMjEwOTEzMDQ1NDA1WhcNMjQwODI4
MDQ1NDA1WjAZMRcwFQYDVQQDDA50ZWFtNzEwLXNlcnZlcjCCASIwDQYJKoZIhvcN
AQEBBQADggEPADCCAQoCggEBALfP0jb0/OZm3Te/e/P1azbfi7B6hBRauIIWJ3O5
O1TqElWIuDFeOox3M29Rwf0GFzkN8aTAstueXOhP8GzZC7ffaUZj8N7Q0CHFX3Sh
2plZyQwfkMcyWtFnDWGxn9vlqWisn2j+4cxm+k9IYQ/Xlv+Xp9O0Ac8YmHML8R5C
5MUhbwGwXecIbcsSykAS0N3vDvZZ8sd8wjPT6fMT6W2vM9WVV62Nj5bAENTAfMY9
34nGrZA5SjONk/08ZQV2j2GGkNn14hd4POcmXlm9fmKb0ht6NCeBCoahoEendUEq
H403cq2VkDFAjUI14/D4FExhMft+6CmCAcVXvatBIHftwGUCAwEAAaOBvTCBujAJ
BgNVHRMEAjAAMB0GA1UdDgQWBBQcnUGE3zL2DasDPtexcmkzH6b5TzBRBgNVHSME
SjBIgBTsHEIebrIkifMXn0qPWMig+tb2Y6EapBgwFjEUMBIGA1UEAwwLdGVhbTcx
MC1uZXSCFHsl9wBgNqCJiHZ8lSfHDFz6X8fvMBMGA1UdJQQMMAoGCCsGAQUFBwMB
MAsGA1UdDwQEAwIFoDAZBgNVHREEEjAQgg50ZWFtNzEwLXNlcnZlcjANBgkqhkiG
9w0BAQsFAAOCAQEAPo9ZgfSJ3PDYT4GqoxpE3Wxgv5BaFMUAVSyCAd6N4ob5POVD
do7H5vYKyK04GepQUyqPvyQPVTA+aDutZJoBlIK7qYI89ihcdnu7kbk9ELrK/1fJ
pexuEz7dezjRPfjBO7h19SpBdZbSnKf1b/RdFR978CFTMcoheTlXKnqMmhNcJym9
vEtdeVPLwO2qiC3h630KXtOoss9tP6DGngc+5qvMsc/B+Ur38KANpojsEjAk76PX
vE5WmJWiDHwpdQSQ3RM6tUMDrmEsh+SA+5gc6789dBK6I4Mr7iOV7C7vpkh/Mrhm
Y43wv1t/arXAerz4z64Hu4LyVRf9vC6nXZHQUA==
-----END CERTIFICATE-----
