Certificate:
    Data:
        Version: 3 (0x2)
        Serial Number:
            ea:7b:9f:49:c5:21:8b:a8:ff:e8:b5:d0:03:7b:a6:37
        Signature Algorithm: sha256WithRSAEncryption
        Issuer: CN=team710-net
        Validity
            Not Before: Sep 13 04:54:05 2021 GMT
            Not After : Aug 28 04:54:05 2024 GMT
        Subject: CN=team710-client
        Subject Public Key Info:
            Public Key Algorithm: rsaEncryption
                RSA Public-Key: (2048 bit)
                Modulus:
                    00:c8:82:48:4c:13:29:56:2c:a2:c8:8d:1f:e4:3c:
                    7a:d8:81:54:db:c9:02:88:c8:9b:83:d4:99:54:cc:
                    03:b8:ee:74:4a:a8:58:40:cc:df:9a:4b:59:60:01:
                    fa:48:17:24:8e:52:0a:2e:55:07:d4:2a:f3:6e:08:
                    af:b5:2f:e1:8e:58:ff:ff:75:55:5e:61:c6:c7:ac:
                    02:43:78:41:9b:e9:92:a1:e2:1b:80:a7:f5:09:5b:
                    5f:d2:c1:65:8e:f8:8b:d2:dd:99:79:90:52:c9:07:
                    9c:88:56:d3:35:23:be:8e:5b:b5:3c:00:7e:a3:a1:
                    c0:4b:57:d7:0a:23:92:08:c6:98:cd:b0:79:83:d6:
                    34:f4:47:6d:42:77:e6:d1:2c:e2:91:ea:ce:2b:d8:
                    18:e8:ae:87:08:93:d0:29:ed:2b:b8:f4:e6:ef:bd:
                    eb:9c:3a:78:2b:0e:08:1b:91:c8:6d:1c:96:92:aa:
                    6e:6d:86:aa:9b:4f:dd:83:03:b7:66:bf:36:7c:08:
                    3a:6f:01:dd:e5:c8:02:d2:5f:df:3e:74:d4:7f:da:
                    5c:14:66:3d:cf:d6:e2:a8:6e:62:82:9c:3c:a1:ee:
                    d0:bf:26:f5:85:cc:f4:34:0e:76:4c:f4:2a:47:ea:
                    64:01:42:7e:15:5b:e6:8a:fa:1c:fc:d6:87:15:7c:
                    1c:e7
                Exponent: 65537 (0x10001)
        X509v3 extensions:
            X509v3 Basic Constraints: 
                CA:FALSE
            X509v3 Subject Key Identifier: 
                F5:D3:4A:E5:5F:86:A0:27:76:DD:22:0B:35:12:04:5E:08:11:43:8C
            X509v3 Authority Key Identifier: 
                keyid:EC:1C:42:1E:6E:B2:24:89:F3:17:9F:4A:8F:58:C8:A0:FA:D6:F6:63
                DirName:/CN=team710-net
                serial:7B:25:F7:00:60:36:A0:89:88:76:7C:95:27:C7:0C:5C:FA:5F:C7:EF

            X509v3 Extended Key Usage: 
                TLS Web Client Authentication
            X509v3 Key Usage: 
                Digital Signature
    Signature Algorithm: sha256WithRSAEncryption
         12:3f:6f:41:a1:b5:1a:c7:11:03:fa:32:4b:6c:96:e4:09:21:
         31:3e:ba:83:ca:5a:c7:7d:02:2e:55:5d:46:8b:c5:97:10:f7:
         5c:97:78:75:d8:1e:6b:86:52:ec:cf:c2:68:a8:c7:62:b6:fd:
         ad:e2:a1:69:ff:88:64:a8:27:11:51:1d:c7:4b:01:f4:8d:cc:
         7b:6b:25:ff:ec:26:35:c2:f3:bc:cf:ed:09:44:c2:39:90:11:
         64:28:34:21:7c:98:95:e4:30:5b:2a:7a:39:2c:c2:7f:95:a6:
         56:cb:40:59:09:60:38:a4:bd:d5:7a:ff:be:71:28:e0:1c:92:
         11:ef:f4:58:a5:eb:e3:e6:e8:18:c5:91:31:5c:4b:28:44:e8:
         1e:e2:e7:c8:39:60:0e:93:2c:59:7b:e9:bb:3c:66:ba:c9:b7:
         08:4f:fb:fa:46:ce:47:02:2b:4d:53:93:59:f8:3a:38:bb:11:
         54:36:da:6e:3b:53:0f:f9:2d:99:0a:ed:a3:df:56:50:0f:93:
         2d:80:a2:5b:6c:87:37:19:88:e7:f9:35:b9:e0:7d:72:f0:15:
         f0:f7:a7:f9:51:d4:d7:46:8d:ca:5e:b2:31:1f:8c:f7:c7:05:
         d3:eb:4a:0b:08:1e:38:96:31:40:6f:0c:96:92:74:c3:41:71:
         f3:d9:9d:b5
-----BEGIN CERTIFICATE-----
MIIDXTCCAkWgAwIBAgIRAOp7n0nFIYuo/+i10AN7pjcwDQYJKoZIhvcNAQELBQAw
FjEUMBIGA1UEAwwLdGVhbTcxMC1uZXQwHhcNMjEwOTEzMDQ1NDA1WhcNMjQwODI4
MDQ1NDA1WjAZMRcwFQYDVQQDDA50ZWFtNzEwLWNsaWVudDCCASIwDQYJKoZIhvcN
AQEBBQADggEPADCCAQoCggEBAMiCSEwTKVYsosiNH+Q8etiBVNvJAojIm4PUmVTM
A7judEqoWEDM35pLWWAB+kgXJI5SCi5VB9Qq824Ir7Uv4Y5Y//91VV5hxsesAkN4
QZvpkqHiG4Cn9QlbX9LBZY74i9LdmXmQUskHnIhW0zUjvo5btTwAfqOhwEtX1woj
kgjGmM2weYPWNPRHbUJ35tEs4pHqzivYGOiuhwiT0CntK7j05u+965w6eCsOCBuR
yG0clpKqbm2GqptP3YMDt2a/NnwIOm8B3eXIAtJf3z501H/aXBRmPc/W4qhuYoKc
PKHu0L8m9YXM9DQOdkz0KkfqZAFCfhVb5or6HPzWhxV8HOcCAwEAAaOBojCBnzAJ
BgNVHRMEAjAAMB0GA1UdDgQWBBT100rlX4agJ3bdIgs1EgReCBFDjDBRBgNVHSME
SjBIgBTsHEIebrIkifMXn0qPWMig+tb2Y6EapBgwFjEUMBIGA1UEAwwLdGVhbTcx
MC1uZXSCFHsl9wBgNqCJiHZ8lSfHDFz6X8fvMBMGA1UdJQQMMAoGCCsGAQUFBwMC
MAsGA1UdDwQEAwIHgDANBgkqhkiG9w0BAQsFAAOCAQEAEj9vQaG1GscRA/oyS2yW
5AkhMT66g8pax30CLlVdRovFlxD3XJd4ddgea4ZS7M/CaKjHYrb9reKhaf+IZKgn
EVEdx0sB9I3Me2sl/+wmNcLzvM/tCUTCOZARZCg0IXyYleQwWyp6OSzCf5WmVstA
WQlgOKS91Xr/vnEo4BySEe/0WKXr4+boGMWRMVxLKEToHuLnyDlgDpMsWXvpuzxm
usm3CE/7+kbORwIrTVOTWfg6OLsRVDbabjtTD/ktmQrto99WUA+TLYCiW2yHNxmI
5/k1ueB9cvAV8Pen+VHU10aNyl6yMR+M98cF0+tKCwgeOJYxQG8MlpJ0w0Fx89md
tQ==
-----END CERTIFICATE-----
