Certificate:
    Data:
        Version: 3 (0x2)
        Serial Number:
            4f:f2:a7:80:a5:92:06:fe:c9:09:cc:a2:ef:cf:a7:60
        Signature Algorithm: sha256WithRSAEncryption
        Issuer: CN=team396-net
        Validity
            Not Before: Sep 13 02:20:21 2021 GMT
            Not After : Aug 28 02:20:21 2024 GMT
        Subject: CN=team396-server
        Subject Public Key Info:
            Public Key Algorithm: rsaEncryption
                RSA Public-Key: (2048 bit)
                Modulus:
                    00:b6:3a:dd:69:42:8a:eb:00:03:ea:5e:98:aa:e5:
                    51:cc:12:dc:d9:e7:d3:11:e9:d4:be:2b:d0:c5:6c:
                    60:46:4b:ad:f5:a8:14:05:d3:d3:42:eb:39:1f:e0:
                    fc:0b:e7:96:d0:c0:10:3c:da:0f:9c:14:89:50:98:
                    99:fd:69:c8:2e:e9:22:14:01:64:5a:95:9d:c8:3d:
                    f2:4c:e5:13:c8:ab:08:13:19:3b:60:ff:38:ad:fd:
                    ab:92:4d:62:a8:c9:d3:2a:b4:b2:f2:08:ba:16:42:
                    95:d4:1e:c8:47:12:16:05:03:86:f1:85:6f:a1:04:
                    99:1b:8b:a3:d2:55:a0:32:18:92:63:15:4b:d0:cc:
                    14:79:ab:f2:56:f9:62:d8:70:85:dc:89:67:3b:11:
                    08:00:f5:88:64:a4:9c:45:04:bf:c0:d6:57:6a:0f:
                    8e:d8:0b:c3:79:c1:90:29:29:ab:69:f5:1c:46:3e:
                    1c:e7:03:fa:84:66:7f:ae:a2:19:b7:2e:49:25:15:
                    07:15:fc:08:a4:b6:68:f9:7f:f9:1c:a7:e2:62:a7:
                    99:ce:b6:9c:aa:b1:86:67:43:93:79:dd:f6:2f:cc:
                    ca:f6:8d:41:c0:21:ce:78:87:69:8e:33:e7:5f:14:
                    8f:60:a4:41:52:77:b5:78:4f:3b:86:ea:ed:f0:8e:
                    2e:51
                Exponent: 65537 (0x10001)
        X509v3 extensions:
            X509v3 Basic Constraints: 
                CA:FALSE
            X509v3 Subject Key Identifier: 
                73:80:60:08:04:AB:22:F7:A9:81:E4:C7:1B:FE:66:26:ED:7B:98:CE
            X509v3 Authority Key Identifier: 
                keyid:55:31:BF:78:BC:33:9B:B3:48:7C:36:F8:5E:14:BC:AA:3E:0F:45:F1
                DirName:/CN=team396-net
                serial:58:82:39:FE:73:DB:E8:C0:EB:D8:93:EC:F3:16:21:6D:61:9C:0C:35

            X509v3 Extended Key Usage: 
                TLS Web Server Authentication
            X509v3 Key Usage: 
                Digital Signature, Key Encipherment
            X509v3 Subject Alternative Name: 
                DNS:team396-server
    Signature Algorithm: sha256WithRSAEncryption
         6c:0c:81:d1:99:c1:48:db:75:5c:87:b0:98:84:50:5f:ae:96:
         6b:af:0a:e1:c7:35:c7:8d:03:cd:c5:30:ff:6f:b4:d8:05:aa:
         53:4c:6d:52:62:79:ef:a0:cc:0d:c6:be:f8:fd:c8:15:98:d8:
         b2:7c:e5:71:78:d5:66:1d:65:53:41:ba:6c:73:34:ca:4f:03:
         86:ff:97:af:c8:20:9d:28:0b:7f:7a:97:6a:01:d0:53:8b:44:
         59:64:66:7a:c8:65:29:4a:28:21:ce:ac:61:ae:d5:c5:3d:b6:
         ba:6c:a7:2a:9e:67:29:45:47:f7:44:ea:2a:eb:ce:3c:e9:3a:
         04:cb:6a:d8:e5:04:15:6a:bc:48:91:ee:0c:54:a6:2f:90:aa:
         d7:0a:c3:73:e4:c5:dc:92:de:2f:ac:1e:6a:01:cd:ce:ca:dc:
         ba:ce:7f:8c:ce:1b:b7:a9:fa:9a:2f:ad:fd:3f:e8:51:e4:5f:
         19:bd:c2:93:e5:a9:86:a1:0a:5d:a8:1e:d2:c5:ad:9a:86:8b:
         16:56:ab:8c:7c:7f:23:c1:c5:e5:30:dc:0e:5b:3f:1b:9c:9d:
         ce:d8:aa:7f:5e:07:73:c7:7d:d0:3d:9b:88:67:ce:b8:09:39:
         7a:96:44:90:9e:81:f6:01:2a:01:86:ea:7f:1f:e4:86:a5:82:
         15:50:18:c9
-----BEGIN CERTIFICATE-----
MIIDdzCCAl+gAwIBAgIQT/KngKWSBv7JCcyi78+nYDANBgkqhkiG9w0BAQsFADAW
MRQwEgYDVQQDDAt0ZWFtMzk2LW5ldDAeFw0yMTA5MTMwMjIwMjFaFw0yNDA4Mjgw
MjIwMjFaMBkxFzAVBgNVBAMMDnRlYW0zOTYtc2VydmVyMIIBIjANBgkqhkiG9w0B
AQEFAAOCAQ8AMIIBCgKCAQEAtjrdaUKK6wAD6l6YquVRzBLc2efTEenUvivQxWxg
Rkut9agUBdPTQus5H+D8C+eW0MAQPNoPnBSJUJiZ/WnILukiFAFkWpWdyD3yTOUT
yKsIExk7YP84rf2rkk1iqMnTKrSy8gi6FkKV1B7IRxIWBQOG8YVvoQSZG4uj0lWg
MhiSYxVL0MwUeavyVvli2HCF3IlnOxEIAPWIZKScRQS/wNZXag+O2AvDecGQKSmr
afUcRj4c5wP6hGZ/rqIZty5JJRUHFfwIpLZo+X/5HKfiYqeZzracqrGGZ0OTed32
L8zK9o1BwCHOeIdpjjPnXxSPYKRBUne1eE87hurt8I4uUQIDAQABo4G9MIG6MAkG
A1UdEwQCMAAwHQYDVR0OBBYEFHOAYAgEqyL3qYHkxxv+Zibte5jOMFEGA1UdIwRK
MEiAFFUxv3i8M5uzSHw2+F4UvKo+D0XxoRqkGDAWMRQwEgYDVQQDDAt0ZWFtMzk2
LW5ldIIUWII5/nPb6MDr2JPs8xYhbWGcDDUwEwYDVR0lBAwwCgYIKwYBBQUHAwEw
CwYDVR0PBAQDAgWgMBkGA1UdEQQSMBCCDnRlYW0zOTYtc2VydmVyMA0GCSqGSIb3
DQEBCwUAA4IBAQBsDIHRmcFI23Vch7CYhFBfrpZrrwrhxzXHjQPNxTD/b7TYBapT
TG1SYnnvoMwNxr74/cgVmNiyfOVxeNVmHWVTQbpsczTKTwOG/5evyCCdKAt/epdq
AdBTi0RZZGZ6yGUpSighzqxhrtXFPba6bKcqnmcpRUf3ROoq68486ToEy2rY5QQV
arxIke4MVKYvkKrXCsNz5MXckt4vrB5qAc3Oyty6zn+Mzhu3qfqaL639P+hR5F8Z
vcKT5amGoQpdqB7Sxa2ahosWVquMfH8jwcXlMNwOWz8bnJ3O2Kp/Xgdzx33QPZuI
Z864CTl6lkSQnoH2ASoBhup/H+SGpYIVUBjJ
-----END CERTIFICATE-----
