Certificate:
    Data:
        Version: 3 (0x2)
        Serial Number:
            13:aa:7b:76:7e:c2:57:08:c7:b3:e1:b4:50:62:69:1b
        Signature Algorithm: sha256WithRSAEncryption
        Issuer: CN=team595-net
        Validity
            Not Before: Sep 13 04:12:18 2021 GMT
            Not After : Aug 28 04:12:18 2024 GMT
        Subject: CN=team595-client
        Subject Public Key Info:
            Public Key Algorithm: rsaEncryption
                RSA Public-Key: (2048 bit)
                Modulus:
                    00:d5:5a:55:f8:2c:2b:82:b2:30:6c:5a:0d:c5:f2:
                    81:17:44:9e:85:ed:6d:1e:f5:ef:d5:9b:d5:0b:42:
                    52:de:97:87:c5:a2:44:e9:e9:24:6d:7b:19:79:e4:
                    48:ba:c8:14:f1:c7:a1:f5:57:6b:39:24:fb:0c:c3:
                    84:de:30:94:88:1f:d0:44:50:f1:2c:24:2d:fc:e3:
                    a9:af:e7:14:2d:2e:d6:67:09:2b:ec:67:fe:2f:a1:
                    9a:1c:1e:20:9f:8e:6e:2b:c8:c5:4c:35:c3:24:91:
                    ff:20:15:58:38:ed:70:43:50:9b:cd:bb:81:60:ca:
                    ed:2f:b7:bc:8a:a7:04:08:20:83:23:63:60:65:57:
                    f2:b1:00:38:98:b8:45:46:f9:fc:41:9e:6a:69:6a:
                    a1:53:49:55:89:21:bf:1c:04:5b:16:62:cf:df:cc:
                    f5:66:83:f6:fb:8a:aa:75:84:79:db:5e:f0:3f:6c:
                    41:94:2f:90:74:04:9c:14:c5:54:32:cf:00:e3:ef:
                    46:a9:36:d2:18:8a:79:77:80:e5:fe:8c:de:ba:54:
                    6e:a6:e1:76:8e:14:9f:49:97:4b:69:ce:20:d3:7f:
                    7f:3d:47:d5:94:91:ae:c7:02:ce:bb:84:d2:47:aa:
                    b5:54:4f:40:e3:07:8d:a4:9e:1f:d5:af:39:ad:40:
                    48:af
                Exponent: 65537 (0x10001)
        X509v3 extensions:
            X509v3 Basic Constraints: 
                CA:FALSE
            X509v3 Subject Key Identifier: 
                56:D2:C4:0B:0D:C2:89:C5:79:0F:BC:18:22:A3:0F:B5:AB:93:98:1E
            X509v3 Authority Key Identifier: 
                keyid:8F:A8:BC:34:4C:6A:61:F8:8E:94:6D:8D:A2:72:99:BC:16:23:15:56
                DirName:/CN=team595-net
                serial:63:0E:D2:77:10:19:00:47:9A:80:67:74:EC:C6:67:7B:37:D9:2B:D0

            X509v3 Extended Key Usage: 
                TLS Web Client Authentication
            X509v3 Key Usage: 
                Digital Signature
    Signature Algorithm: sha256WithRSAEncryption
         92:47:d4:32:b3:96:8d:a3:02:90:dd:89:ca:8d:a1:5d:63:43:
         20:00:f7:5e:24:30:50:f9:ab:38:7a:31:73:b7:14:d1:1b:64:
         8d:a5:18:ff:8f:8c:5d:62:49:90:57:6f:5b:ce:67:a9:6b:a8:
         d6:a4:9b:46:0f:78:e2:20:05:d8:80:d1:ec:fb:34:16:57:55:
         d5:0c:35:7e:5f:76:23:dc:c5:2a:c3:3f:a4:44:9d:07:9d:66:
         02:70:aa:aa:18:aa:fa:db:6c:80:d6:fd:5e:11:9e:6b:65:cf:
         18:0f:19:cf:f1:0e:84:d0:61:e9:ba:81:84:db:e6:a1:60:70:
         4b:dd:0c:e7:35:a4:08:1a:48:08:21:46:82:27:bf:ce:7b:36:
         c8:1c:75:55:6f:70:6a:aa:af:2a:27:e7:5f:3c:18:06:54:3d:
         8f:21:c9:58:3a:3d:a4:f8:d6:7f:b3:6e:33:cc:2a:19:7a:1e:
         09:b2:34:0c:d6:d1:cb:7b:e0:a0:e8:a0:09:0b:e8:6b:fd:65:
         a9:b1:6f:bf:51:57:ae:4f:20:18:15:c5:d1:05:18:26:1a:b1:
         89:f5:49:a1:5a:fb:d0:a8:a3:e2:8f:ce:fd:da:da:44:77:2f:
         07:0c:fa:ee:ab:3b:53:3a:91:09:aa:ee:a2:5d:59:fd:4b:17:
         e6:31:77:10
-----BEGIN CERTIFICATE-----
MIIDXDCCAkSgAwIBAgIQE6p7dn7CVwjHs+G0UGJpGzANBgkqhkiG9w0BAQsFADAW
MRQwEgYDVQQDDAt0ZWFtNTk1LW5ldDAeFw0yMTA5MTMwNDEyMThaFw0yNDA4Mjgw
NDEyMThaMBkxFzAVBgNVBAMMDnRlYW01OTUtY2xpZW50MIIBIjANBgkqhkiG9w0B
AQEFAAOCAQ8AMIIBCgKCAQEA1VpV+CwrgrIwbFoNxfKBF0Sehe1tHvXv1ZvVC0JS
3peHxaJE6ekkbXsZeeRIusgU8ceh9VdrOST7DMOE3jCUiB/QRFDxLCQt/OOpr+cU
LS7WZwkr7Gf+L6GaHB4gn45uK8jFTDXDJJH/IBVYOO1wQ1CbzbuBYMrtL7e8iqcE
CCCDI2NgZVfysQA4mLhFRvn8QZ5qaWqhU0lViSG/HARbFmLP38z1ZoP2+4qqdYR5
217wP2xBlC+QdAScFMVUMs8A4+9GqTbSGIp5d4Dl/ozeulRupuF2jhSfSZdLac4g
039/PUfVlJGuxwLOu4TSR6q1VE9A4weNpJ4f1a85rUBIrwIDAQABo4GiMIGfMAkG
A1UdEwQCMAAwHQYDVR0OBBYEFFbSxAsNwonFeQ+8GCKjD7Wrk5geMFEGA1UdIwRK
MEiAFI+ovDRMamH4jpRtjaJymbwWIxVWoRqkGDAWMRQwEgYDVQQDDAt0ZWFtNTk1
LW5ldIIUYw7SdxAZAEeagGd07MZnezfZK9AwEwYDVR0lBAwwCgYIKwYBBQUHAwIw
CwYDVR0PBAQDAgeAMA0GCSqGSIb3DQEBCwUAA4IBAQCSR9Qys5aNowKQ3YnKjaFd
Y0MgAPdeJDBQ+as4ejFztxTRG2SNpRj/j4xdYkmQV29bzmepa6jWpJtGD3jiIAXY
gNHs+zQWV1XVDDV+X3Yj3MUqwz+kRJ0HnWYCcKqqGKr622yA1v1eEZ5rZc8YDxnP
8Q6E0GHpuoGE2+ahYHBL3QznNaQIGkgIIUaCJ7/OezbIHHVVb3Bqqq8qJ+dfPBgG
VD2PIclYOj2k+NZ/s24zzCoZeh4JsjQM1tHLe+Cg6KAJC+hr/WWpsW+/UVeuTyAY
FcXRBRgmGrGJ9UmhWvvQqKPij8792tpEdy8HDPruqztTOpEJqu6iXVn9SxfmMXcQ
-----END CERTIFICATE-----
