Certificate:
    Data:
        Version: 3 (0x2)
        Serial Number:
            98:a1:0c:2d:c3:b7:b2:6c:39:35:53:17:37:d0:0d:fd
        Signature Algorithm: sha256WithRSAEncryption
        Issuer: CN=team268-net
        Validity
            Not Before: Sep 13 01:04:21 2021 GMT
            Not After : Aug 28 01:04:21 2024 GMT
        Subject: CN=team268-client
        Subject Public Key Info:
            Public Key Algorithm: rsaEncryption
                RSA Public-Key: (2048 bit)
                Modulus:
                    00:ee:47:ee:de:69:93:0c:1b:ca:41:04:f7:78:46:
                    6d:51:e9:e2:08:49:17:64:d8:53:79:1c:b5:10:7c:
                    32:af:87:86:ea:06:aa:0b:c1:a7:b7:ea:60:cc:2f:
                    36:a8:67:d5:50:e6:d4:e6:35:e1:6a:37:65:52:e2:
                    51:b9:b2:a1:38:0f:99:9b:3c:ce:8e:9c:99:86:80:
                    3c:5e:45:ff:0e:fc:8d:dd:df:49:b8:10:48:9b:a4:
                    a0:c0:3d:9f:20:ef:e9:89:bd:4f:a3:9b:31:e2:f7:
                    8e:f0:23:b4:b5:4b:b8:c4:d5:26:ed:a3:6b:d3:d5:
                    43:af:25:56:3f:fc:a8:6c:b5:c1:07:8c:ff:b5:b9:
                    0a:16:fd:45:92:aa:90:e5:42:6d:f6:93:b0:cb:e2:
                    17:1f:3c:6e:55:a3:55:0e:59:8a:50:18:65:0b:f0:
                    ed:39:52:06:64:87:8f:d0:c0:0b:b2:7d:05:47:b6:
                    ac:df:f6:34:e4:9e:be:b5:81:20:c7:dc:a2:59:e5:
                    98:22:22:f2:3f:a1:8b:a9:bf:b9:95:12:ce:b7:dd:
                    08:fe:c6:4a:ce:2f:e8:f3:c6:21:d2:46:19:68:2a:
                    c9:0e:b5:4d:15:b7:2d:c2:bf:72:f6:b9:1a:e6:5b:
                    bd:c3:5a:5c:14:7e:73:b8:d5:48:c8:ed:0b:98:a7:
                    d0:53
                Exponent: 65537 (0x10001)
        X509v3 extensions:
            X509v3 Basic Constraints: 
                CA:FALSE
            X509v3 Subject Key Identifier: 
                76:0E:0E:9A:40:71:A3:EA:C9:42:AE:72:29:B6:3A:AA:7F:C1:2F:79
            X509v3 Authority Key Identifier: 
                keyid:91:05:1D:9D:13:D9:F3:63:23:2B:A7:8D:23:CF:5F:C3:25:33:29:72
                DirName:/CN=team268-net
                serial:14:97:B7:4C:0B:BC:EE:64:25:73:85:A6:F9:DE:2F:43:CE:17:E4:A3

            X509v3 Extended Key Usage: 
                TLS Web Client Authentication
            X509v3 Key Usage: 
                Digital Signature
    Signature Algorithm: sha256WithRSAEncryption
         9c:89:b4:c3:3a:53:ea:5d:dc:13:bb:2b:d9:26:fd:94:32:95:
         8a:50:c5:14:9a:6a:15:8f:a5:5b:80:86:ac:7a:8c:53:95:b9:
         4c:0a:aa:6b:35:63:93:e4:98:09:03:a8:ab:c7:2e:c4:f8:51:
         06:1f:c1:e1:a9:62:d1:08:52:16:76:aa:73:ef:89:f9:ca:84:
         f5:61:64:39:7a:08:2f:23:ee:d5:d2:3d:82:da:b7:d1:9e:b2:
         6b:72:5e:0a:ff:58:42:ee:8c:7a:25:72:4f:8b:b7:15:90:ee:
         24:06:dc:36:57:8e:b8:a8:f1:61:c2:40:a1:62:d0:30:f5:7c:
         58:8b:c9:28:cb:c9:fc:b3:1b:ce:60:ab:81:19:d0:ad:be:aa:
         f9:1d:e8:08:50:09:39:cd:ec:3a:f5:85:2b:87:ec:a4:04:9d:
         16:08:50:fa:61:b5:4d:de:07:0a:8c:99:6b:61:88:b7:ee:e0:
         c1:90:43:1e:0e:de:5d:13:23:e8:40:f9:aa:1f:ab:65:7b:0d:
         8f:28:a4:fc:c3:96:c4:29:5f:ec:82:8e:9c:8f:bc:d3:db:64:
         ab:73:56:6d:b0:98:6f:7d:dd:5d:2c:ac:1e:aa:90:5c:6a:31:
         c9:1d:8b:30:08:6f:6c:0a:a3:dc:9c:36:39:60:bb:1d:01:34:
         d8:4f:47:f5
-----BEGIN CERTIFICATE-----
MIIDXTCCAkWgAwIBAgIRAJihDC3Dt7JsOTVTFzfQDf0wDQYJKoZIhvcNAQELBQAw
FjEUMBIGA1UEAwwLdGVhbTI2OC1uZXQwHhcNMjEwOTEzMDEwNDIxWhcNMjQwODI4
MDEwNDIxWjAZMRcwFQYDVQQDDA50ZWFtMjY4LWNsaWVudDCCASIwDQYJKoZIhvcN
AQEBBQADggEPADCCAQoCggEBAO5H7t5pkwwbykEE93hGbVHp4ghJF2TYU3kctRB8
Mq+HhuoGqgvBp7fqYMwvNqhn1VDm1OY14Wo3ZVLiUbmyoTgPmZs8zo6cmYaAPF5F
/w78jd3fSbgQSJukoMA9nyDv6Ym9T6ObMeL3jvAjtLVLuMTVJu2ja9PVQ68lVj/8
qGy1wQeM/7W5Chb9RZKqkOVCbfaTsMviFx88blWjVQ5ZilAYZQvw7TlSBmSHj9DA
C7J9BUe2rN/2NOSevrWBIMfcolnlmCIi8j+hi6m/uZUSzrfdCP7GSs4v6PPGIdJG
GWgqyQ61TRW3LcK/cva5GuZbvcNaXBR+c7jVSMjtC5in0FMCAwEAAaOBojCBnzAJ
BgNVHRMEAjAAMB0GA1UdDgQWBBR2Dg6aQHGj6slCrnIptjqqf8EveTBRBgNVHSME
SjBIgBSRBR2dE9nzYyMrp40jz1/DJTMpcqEapBgwFjEUMBIGA1UEAwwLdGVhbTI2
OC1uZXSCFBSXt0wLvO5kJXOFpvneL0POF+SjMBMGA1UdJQQMMAoGCCsGAQUFBwMC
MAsGA1UdDwQEAwIHgDANBgkqhkiG9w0BAQsFAAOCAQEAnIm0wzpT6l3cE7sr2Sb9
lDKVilDFFJpqFY+lW4CGrHqMU5W5TAqqazVjk+SYCQOoq8cuxPhRBh/B4ali0QhS
Fnaqc++J+cqE9WFkOXoILyPu1dI9gtq30Z6ya3JeCv9YQu6MeiVyT4u3FZDuJAbc
NleOuKjxYcJAoWLQMPV8WIvJKMvJ/LMbzmCrgRnQrb6q+R3oCFAJOc3sOvWFK4fs
pASdFghQ+mG1Td4HCoyZa2GIt+7gwZBDHg7eXRMj6ED5qh+rZXsNjyik/MOWxClf
7IKOnI+809tkq3NWbbCYb33dXSysHqqQXGoxyR2LMAhvbAqj3Jw2OWC7HQE02E9H
9Q==
-----END CERTIFICATE-----
