Certificate:
    Data:
        Version: 3 (0x2)
        Serial Number:
            47:0f:31:95:61:f1:14:f4:c7:f6:3b:a7:88:ca:b2:d4
        Signature Algorithm: sha256WithRSAEncryption
        Issuer: CN=team364-net
        Validity
            Not Before: Sep 13 02:01:44 2021 GMT
            Not After : Aug 28 02:01:44 2024 GMT
        Subject: CN=team364-server
        Subject Public Key Info:
            Public Key Algorithm: rsaEncryption
                RSA Public-Key: (2048 bit)
                Modulus:
                    00:c3:a9:5f:65:66:74:6a:95:57:cd:17:b2:c1:9b:
                    c6:dd:96:8a:b6:9e:fc:94:16:50:5f:39:8e:a7:69:
                    fc:3f:0f:70:0a:12:79:31:d4:0c:8a:8b:cd:e9:06:
                    86:09:6f:f6:c8:24:a0:e2:02:89:29:fd:6b:b1:bf:
                    18:2f:5a:ba:2b:f7:3a:7e:d6:76:15:fe:7a:7f:3d:
                    bb:18:a9:59:7d:80:2d:a0:0e:33:c0:7a:70:b2:f7:
                    07:58:27:20:59:c0:da:8c:2f:5a:64:c6:95:64:21:
                    9b:6f:d3:4e:35:2b:85:6a:47:6b:85:f6:52:2b:30:
                    00:a9:57:9f:e3:44:9a:75:7b:7a:f8:b6:36:9c:e6:
                    eb:e7:82:5a:f5:44:b9:9d:3f:da:02:83:df:ce:0c:
                    18:83:44:e2:7e:a4:18:e9:f4:29:e7:3a:bc:9a:8e:
                    9f:f8:03:b8:44:3d:3f:97:8f:89:77:59:91:82:d4:
                    bb:a6:ad:ad:bd:99:2c:6f:d5:b7:62:52:bd:1d:25:
                    3b:f0:10:3b:69:0c:a7:a6:c8:dd:f8:23:41:44:44:
                    05:01:db:8f:bc:ba:69:42:a7:50:0c:29:fe:50:04:
                    5d:62:bc:ac:d3:db:82:90:e3:2d:aa:a8:c7:f0:1e:
                    19:d5:a6:a0:36:ef:b0:72:a7:3c:eb:42:51:ac:2d:
                    f1:f7
                Exponent: 65537 (0x10001)
        X509v3 extensions:
            X509v3 Basic Constraints: 
                CA:FALSE
            X509v3 Subject Key Identifier: 
                D8:F8:FE:C2:D2:1C:5B:6E:E7:4A:0A:6B:15:9E:4B:1D:4D:3F:A7:52
            X509v3 Authority Key Identifier: 
                keyid:C1:13:F2:5C:E4:8C:80:85:C3:22:7F:3B:C0:EA:AA:2F:46:38:E4:A3
                DirName:/CN=team364-net
                serial:52:4F:48:94:0C:AF:43:D9:21:CB:5A:1E:6A:21:7B:4D:77:28:C0:E0

            X509v3 Extended Key Usage: 
                TLS Web Server Authentication
            X509v3 Key Usage: 
                Digital Signature, Key Encipherment
            X509v3 Subject Alternative Name: 
                DNS:team364-server
    Signature Algorithm: sha256WithRSAEncryption
         24:e5:3e:9c:76:2b:d6:66:cd:d3:e6:ef:07:d9:f3:1f:02:17:
         d0:8b:e0:d6:3c:a6:6d:28:14:18:b7:4b:d3:a9:bf:63:31:fc:
         4f:60:ca:2e:39:5b:ee:cb:94:9c:31:14:75:5b:87:89:03:94:
         a1:8f:54:ff:49:f5:f1:c1:96:8f:bb:5e:1c:6d:0b:cb:83:6e:
         4a:17:90:68:b5:54:7f:9e:98:d6:e3:3c:29:de:b2:e1:76:83:
         c7:6d:3d:0f:84:d0:00:05:0b:b4:3f:47:f9:b4:76:a3:03:94:
         85:69:d1:21:fc:22:3c:a1:ee:a3:a1:fc:b8:98:60:3e:ab:6d:
         5d:3e:58:25:67:df:e8:3b:0f:e7:8f:98:a0:98:4c:80:c2:bd:
         43:ec:98:74:54:ea:6c:8e:47:b0:96:00:1f:b6:9c:82:fd:1b:
         33:cd:77:31:3f:b5:17:7b:81:5a:b9:12:f1:79:64:5b:6c:f4:
         be:d0:25:6e:7c:75:e5:01:9f:18:a0:b2:88:ac:27:f8:e5:f2:
         7a:26:b9:eb:24:af:5d:46:88:19:77:9c:5c:36:2a:0f:93:fd:
         a3:bf:fb:bd:cd:13:a3:9f:9c:f1:93:24:09:68:03:e8:91:04:
         4f:37:64:2b:d8:4c:e7:9e:0e:fb:af:65:d6:34:53:b9:b9:aa:
         f8:af:69:21
-----BEGIN CERTIFICATE-----
MIIDdzCCAl+gAwIBAgIQRw8xlWHxFPTH9juniMqy1DANBgkqhkiG9w0BAQsFADAW
MRQwEgYDVQQDDAt0ZWFtMzY0LW5ldDAeFw0yMTA5MTMwMjAxNDRaFw0yNDA4Mjgw
MjAxNDRaMBkxFzAVBgNVBAMMDnRlYW0zNjQtc2VydmVyMIIBIjANBgkqhkiG9w0B
AQEFAAOCAQ8AMIIBCgKCAQEAw6lfZWZ0apVXzReywZvG3ZaKtp78lBZQXzmOp2n8
Pw9wChJ5MdQMiovN6QaGCW/2yCSg4gKJKf1rsb8YL1q6K/c6ftZ2Ff56fz27GKlZ
fYAtoA4zwHpwsvcHWCcgWcDajC9aZMaVZCGbb9NONSuFakdrhfZSKzAAqVef40Sa
dXt6+LY2nObr54Ja9US5nT/aAoPfzgwYg0TifqQY6fQp5zq8mo6f+AO4RD0/l4+J
d1mRgtS7pq2tvZksb9W3YlK9HSU78BA7aQynpsjd+CNBREQFAduPvLppQqdQDCn+
UARdYrys09uCkOMtqqjH8B4Z1aagNu+wcqc860JRrC3x9wIDAQABo4G9MIG6MAkG
A1UdEwQCMAAwHQYDVR0OBBYEFNj4/sLSHFtu50oKaxWeSx1NP6dSMFEGA1UdIwRK
MEiAFMET8lzkjICFwyJ/O8Dqqi9GOOSjoRqkGDAWMRQwEgYDVQQDDAt0ZWFtMzY0
LW5ldIIUUk9IlAyvQ9khy1oeaiF7TXcowOAwEwYDVR0lBAwwCgYIKwYBBQUHAwEw
CwYDVR0PBAQDAgWgMBkGA1UdEQQSMBCCDnRlYW0zNjQtc2VydmVyMA0GCSqGSIb3
DQEBCwUAA4IBAQAk5T6cdivWZs3T5u8H2fMfAhfQi+DWPKZtKBQYt0vTqb9jMfxP
YMouOVvuy5ScMRR1W4eJA5Shj1T/SfXxwZaPu14cbQvLg25KF5BotVR/npjW4zwp
3rLhdoPHbT0PhNAABQu0P0f5tHajA5SFadEh/CI8oe6jofy4mGA+q21dPlglZ9/o
Ow/nj5igmEyAwr1D7Jh0VOpsjkewlgAftpyC/RszzXcxP7UXe4FauRLxeWRbbPS+
0CVufHXlAZ8YoLKIrCf45fJ6JrnrJK9dRogZd5xcNioPk/2jv/u9zROjn5zxkyQJ
aAPokQRPN2Qr2Eznng77r2XWNFO5uar4r2kh
-----END CERTIFICATE-----
