Certificate:
    Data:
        Version: 3 (0x2)
        Serial Number:
            0b:fd:8c:04:9c:eb:d7:61:9b:55:4f:79:74:9b:ba:7e
        Signature Algorithm: sha256WithRSAEncryption
        Issuer: CN=team273-net
        Validity
            Not Before: Sep 13 01:09:14 2021 GMT
            Not After : Aug 28 01:09:14 2024 GMT
        Subject: CN=team273-server
        Subject Public Key Info:
            Public Key Algorithm: rsaEncryption
                RSA Public-Key: (2048 bit)
                Modulus:
                    00:cb:ec:c6:68:1b:93:9a:d0:7b:88:f3:d0:a5:e4:
                    7b:70:21:db:f4:c5:cf:4b:d0:0a:4f:15:52:bd:ff:
                    2a:78:27:f5:3f:98:3a:36:fe:5b:c3:e4:58:d4:3a:
                    f7:64:06:48:71:17:a2:dd:ff:fd:da:fe:c3:d6:eb:
                    69:3a:de:95:d5:8a:2c:ca:06:84:94:16:ac:45:f2:
                    6c:e3:ae:15:b2:10:e1:89:44:1a:06:6b:49:3d:4c:
                    cf:6d:0f:87:a4:af:57:b7:3f:4e:43:00:82:77:b7:
                    17:db:e1:14:06:43:78:fd:51:3f:b2:4d:d2:d7:e8:
                    c3:46:e9:07:a6:ec:cf:02:fd:46:74:92:7c:05:e8:
                    ce:76:c4:21:56:ce:4c:fa:50:7e:fd:a7:bb:91:16:
                    e1:af:5a:9f:56:47:bb:0f:ba:41:d2:43:c2:78:ba:
                    5d:6e:ec:0f:57:d0:02:1e:c0:9c:56:2c:9d:b8:f3:
                    b9:79:95:d4:70:91:3d:61:bb:b4:a2:a6:83:6b:b1:
                    29:37:56:7e:0c:12:0f:69:ef:25:2f:10:8f:89:10:
                    b6:81:75:47:18:a1:22:23:30:45:09:1f:60:b4:a3:
                    ec:b0:46:e3:9b:91:9a:a1:07:55:f4:a1:af:f0:fd:
                    82:86:69:7c:b9:82:58:cb:b1:7a:82:be:6e:e7:b2:
                    f7:bb
                Exponent: 65537 (0x10001)
        X509v3 extensions:
            X509v3 Basic Constraints: 
                CA:FALSE
            X509v3 Subject Key Identifier: 
                13:81:75:72:40:5D:9E:8B:86:E8:CF:6D:B8:2A:AF:EF:4C:D4:09:8F
            X509v3 Authority Key Identifier: 
                keyid:F2:B6:5F:80:74:CB:76:9D:70:8E:13:49:CD:FD:74:0B:86:F8:A9:83
                DirName:/CN=team273-net
                serial:28:75:7B:1C:5B:26:CB:88:4B:4F:6C:75:8C:1F:8E:75:53:7C:A6:1C

            X509v3 Extended Key Usage: 
                TLS Web Server Authentication
            X509v3 Key Usage: 
                Digital Signature, Key Encipherment
            X509v3 Subject Alternative Name: 
                DNS:team273-server
    Signature Algorithm: sha256WithRSAEncryption
         8a:74:82:bc:d6:2b:3c:99:04:29:07:3a:50:d7:5e:db:9e:19:
         19:5e:c7:26:29:14:4a:6c:0e:9d:4e:b7:bb:ba:f8:a0:96:86:
         c0:ee:df:f5:04:45:58:05:83:7b:da:7c:7a:5d:8b:9a:10:91:
         70:2a:27:bd:85:52:86:1b:5a:6e:f0:f8:d3:8a:1e:b3:d0:52:
         df:14:9d:56:b3:9f:9a:de:57:37:da:51:9f:71:27:5e:b9:bf:
         6e:e5:4d:51:e5:2b:43:73:01:36:c9:18:0c:90:6a:5c:ae:b1:
         e8:a2:ad:09:a3:90:4c:95:4b:ed:13:18:38:eb:22:ee:78:fb:
         28:1a:d4:03:21:16:64:8a:4a:59:6d:72:ad:77:24:7d:0e:26:
         b0:66:17:08:69:ed:fe:44:67:da:ab:e3:ea:91:a8:bb:86:c3:
         a7:f3:b9:94:54:3f:c7:9a:7d:99:d3:5c:e6:61:3c:d7:23:62:
         ab:64:5a:bf:5c:d5:95:8c:22:05:5d:47:44:7b:e3:f2:bc:ce:
         5e:e6:fb:33:08:52:1b:0c:1c:a6:45:b4:b0:a9:f8:b1:19:d8:
         7a:11:2e:b7:1a:2f:fa:82:55:b0:af:94:90:de:3c:ea:42:61:
         8a:10:27:b9:72:3f:af:49:f7:2b:13:4f:98:dd:a3:80:f5:a2:
         05:bc:ae:f7
-----BEGIN CERTIFICATE-----
MIIDdzCCAl+gAwIBAgIQC/2MBJzr12GbVU95dJu6fjANBgkqhkiG9w0BAQsFADAW
MRQwEgYDVQQDDAt0ZWFtMjczLW5ldDAeFw0yMTA5MTMwMTA5MTRaFw0yNDA4Mjgw
MTA5MTRaMBkxFzAVBgNVBAMMDnRlYW0yNzMtc2VydmVyMIIBIjANBgkqhkiG9w0B
AQEFAAOCAQ8AMIIBCgKCAQEAy+zGaBuTmtB7iPPQpeR7cCHb9MXPS9AKTxVSvf8q
eCf1P5g6Nv5bw+RY1Dr3ZAZIcRei3f/92v7D1utpOt6V1YosygaElBasRfJs464V
shDhiUQaBmtJPUzPbQ+HpK9Xtz9OQwCCd7cX2+EUBkN4/VE/sk3S1+jDRukHpuzP
Av1GdJJ8BejOdsQhVs5M+lB+/ae7kRbhr1qfVke7D7pB0kPCeLpdbuwPV9ACHsCc
ViyduPO5eZXUcJE9Ybu0oqaDa7EpN1Z+DBIPae8lLxCPiRC2gXVHGKEiIzBFCR9g
tKPssEbjm5GaoQdV9KGv8P2Chml8uYJYy7F6gr5u57L3uwIDAQABo4G9MIG6MAkG
A1UdEwQCMAAwHQYDVR0OBBYEFBOBdXJAXZ6LhujPbbgqr+9M1AmPMFEGA1UdIwRK
MEiAFPK2X4B0y3adcI4TSc39dAuG+KmDoRqkGDAWMRQwEgYDVQQDDAt0ZWFtMjcz
LW5ldIIUKHV7HFsmy4hLT2x1jB+OdVN8phwwEwYDVR0lBAwwCgYIKwYBBQUHAwEw
CwYDVR0PBAQDAgWgMBkGA1UdEQQSMBCCDnRlYW0yNzMtc2VydmVyMA0GCSqGSIb3
DQEBCwUAA4IBAQCKdIK81is8mQQpBzpQ117bnhkZXscmKRRKbA6dTre7uviglobA
7t/1BEVYBYN72nx6XYuaEJFwKie9hVKGG1pu8PjTih6z0FLfFJ1Ws5+a3lc32lGf
cSdeub9u5U1R5StDcwE2yRgMkGpcrrHooq0Jo5BMlUvtExg46yLuePsoGtQDIRZk
ikpZbXKtdyR9DiawZhcIae3+RGfaq+Pqkai7hsOn87mUVD/Hmn2Z01zmYTzXI2Kr
ZFq/XNWVjCIFXUdEe+PyvM5e5vszCFIbDBymRbSwqfixGdh6ES63Gi/6glWwr5SQ
3jzqQmGKECe5cj+vSfcrE0+Y3aOA9aIFvK73
-----END CERTIFICATE-----
