Certificate:
    Data:
        Version: 3 (0x2)
        Serial Number:
            80:6b:ee:db:6c:fd:4e:20:f8:a2:96:96:eb:4a:d2:ef
        Signature Algorithm: sha256WithRSAEncryption
        Issuer: CN=team655-net
        Validity
            Not Before: Sep 13 04:25:45 2021 GMT
            Not After : Aug 28 04:25:45 2024 GMT
        Subject: CN=team655-server
        Subject Public Key Info:
            Public Key Algorithm: rsaEncryption
                RSA Public-Key: (2048 bit)
                Modulus:
                    00:b1:42:a6:83:3d:28:65:d4:26:90:14:8d:a5:08:
                    8a:c3:90:45:d1:d3:18:ef:14:74:72:bf:56:58:d1:
                    ff:fd:d6:7a:bc:a8:55:91:d0:2d:d4:3c:1e:00:12:
                    21:80:86:2d:73:1f:e8:a0:6d:90:e4:35:fe:bc:35:
                    21:ec:90:72:13:08:5a:81:90:b6:08:fa:e5:04:37:
                    e2:00:2a:bf:e3:9c:b4:1f:ea:6f:79:55:77:06:f6:
                    ee:10:60:93:98:8e:44:ab:7b:28:bf:a3:d8:fe:10:
                    f3:55:99:a6:96:7e:04:97:a4:75:f1:6d:f8:3e:04:
                    df:28:64:35:9c:f2:f4:a9:e0:76:2b:35:74:0e:70:
                    10:ff:ed:3a:11:b5:d4:ea:a7:94:6f:fc:e3:29:b8:
                    da:f3:c4:15:c5:49:9f:ae:f6:e7:90:ef:86:c5:8f:
                    9a:25:f8:db:8a:68:4e:e6:59:46:b2:71:0a:67:84:
                    f9:d9:12:e8:3c:df:0e:e6:93:e1:63:0a:87:29:6e:
                    3b:a2:86:d1:d2:77:c6:c6:0a:8f:28:66:00:9c:fb:
                    ca:a3:ab:40:59:e4:f6:17:28:07:f7:75:fd:0c:7e:
                    df:9f:38:18:52:3e:5e:16:b8:ae:1f:45:40:2b:d6:
                    fb:33:f5:f0:a2:18:3d:67:e1:dc:c8:5f:c7:38:8b:
                    21:e7
                Exponent: 65537 (0x10001)
        X509v3 extensions:
            X509v3 Basic Constraints: 
                CA:FALSE
            X509v3 Subject Key Identifier: 
                3E:23:B4:65:70:FF:D8:4A:64:E4:45:C1:37:30:8A:03:84:AB:E6:62
            X509v3 Authority Key Identifier: 
                keyid:16:42:FE:57:E1:FA:C5:CF:F5:4B:EF:0A:46:7D:B9:57:9A:CB:33:F5
                DirName:/CN=team655-net
                serial:12:52:31:3F:BE:13:16:88:D3:26:72:0D:9B:BC:21:3D:7D:3D:D8:43

            X509v3 Extended Key Usage: 
                TLS Web Server Authentication
            X509v3 Key Usage: 
                Digital Signature, Key Encipherment
            X509v3 Subject Alternative Name: 
                DNS:team655-server
    Signature Algorithm: sha256WithRSAEncryption
         1a:2d:74:3f:c6:8d:f2:f9:67:9b:23:57:d3:c4:8d:2a:22:46:
         42:41:83:4c:37:2a:89:8f:18:90:95:1e:9c:cd:a5:0b:5b:d1:
         d0:c6:db:c3:67:f0:84:ca:a1:d7:ef:bc:bd:05:29:87:ef:48:
         72:2f:2e:e6:9b:ee:bc:0d:60:9f:e6:98:f9:cd:31:f3:58:7b:
         ca:db:32:52:07:82:80:8e:aa:43:06:06:d0:45:d8:1f:a1:ba:
         5e:8a:e7:4f:96:c1:a7:b8:c6:11:f8:04:d8:d7:e8:84:a0:a0:
         17:b6:af:f0:2c:26:6c:e6:44:08:0d:c7:fc:8e:f6:f0:f0:55:
         df:78:7f:a2:ec:bc:8e:69:ca:a0:d2:43:c3:33:f0:9e:20:b7:
         37:b3:b5:1e:fb:9b:2a:e6:09:63:b7:ea:45:24:c9:b7:cd:c4:
         66:42:62:9f:4f:6c:cf:76:a1:2e:54:42:9e:3a:d3:cf:0e:8a:
         51:36:2d:6f:69:63:da:cb:8c:51:a9:4e:e0:14:9a:dc:85:98:
         dd:c5:3d:4b:02:cd:b1:32:70:2d:17:f1:ba:f7:b4:de:d8:6d:
         a9:ec:7a:b8:dc:e1:f6:40:eb:da:9e:c5:53:1c:85:08:d5:9f:
         5b:8d:8c:28:be:46:ea:b6:e3:fe:be:7c:87:db:2b:c0:37:a6:
         59:e1:82:1f
-----BEGIN CERTIFICATE-----
MIIDeDCCAmCgAwIBAgIRAIBr7tts/U4g+KKWlutK0u8wDQYJKoZIhvcNAQELBQAw
FjEUMBIGA1UEAwwLdGVhbTY1NS1uZXQwHhcNMjEwOTEzMDQyNTQ1WhcNMjQwODI4
MDQyNTQ1WjAZMRcwFQYDVQQDDA50ZWFtNjU1LXNlcnZlcjCCASIwDQYJKoZIhvcN
AQEBBQADggEPADCCAQoCggEBALFCpoM9KGXUJpAUjaUIisOQRdHTGO8UdHK/VljR
//3WeryoVZHQLdQ8HgASIYCGLXMf6KBtkOQ1/rw1IeyQchMIWoGQtgj65QQ34gAq
v+OctB/qb3lVdwb27hBgk5iORKt7KL+j2P4Q81WZppZ+BJekdfFt+D4E3yhkNZzy
9Kngdis1dA5wEP/tOhG11OqnlG/84ym42vPEFcVJn67255DvhsWPmiX424poTuZZ
RrJxCmeE+dkS6DzfDuaT4WMKhyluO6KG0dJ3xsYKjyhmAJz7yqOrQFnk9hcoB/d1
/Qx+3584GFI+Xha4rh9FQCvW+zP18KIYPWfh3MhfxziLIecCAwEAAaOBvTCBujAJ
BgNVHRMEAjAAMB0GA1UdDgQWBBQ+I7RlcP/YSmTkRcE3MIoDhKvmYjBRBgNVHSME
SjBIgBQWQv5X4frFz/VL7wpGfblXmssz9aEapBgwFjEUMBIGA1UEAwwLdGVhbTY1
NS1uZXSCFBJSMT++ExaI0yZyDZu8IT19PdhDMBMGA1UdJQQMMAoGCCsGAQUFBwMB
MAsGA1UdDwQEAwIFoDAZBgNVHREEEjAQgg50ZWFtNjU1LXNlcnZlcjANBgkqhkiG
9w0BAQsFAAOCAQEAGi10P8aN8vlnmyNX08SNKiJGQkGDTDcqiY8YkJUenM2lC1vR
0Mbbw2fwhMqh1++8vQUph+9Ici8u5pvuvA1gn+aY+c0x81h7ytsyUgeCgI6qQwYG
0EXYH6G6XornT5bBp7jGEfgE2NfohKCgF7av8CwmbOZECA3H/I728PBV33h/ouy8
jmnKoNJDwzPwniC3N7O1HvubKuYJY7fqRSTJt83EZkJin09sz3ahLlRCnjrTzw6K
UTYtb2lj2suMUalO4BSa3IWY3cU9SwLNsTJwLRfxuve03thtqex6uNzh9kDr2p7F
UxyFCNWfW42MKL5G6rbj/r58h9srwDemWeGCHw==
-----END CERTIFICATE-----
