Certificate:
    Data:
        Version: 3 (0x2)
        Serial Number:
            ac:e1:6d:ee:c4:bb:88:78:77:c6:52:c2:92:be:3e:7c
        Signature Algorithm: sha256WithRSAEncryption
        Issuer: CN=team445-net
        Validity
            Not Before: Sep 13 02:48:48 2021 GMT
            Not After : Aug 28 02:48:48 2024 GMT
        Subject: CN=team445-server
        Subject Public Key Info:
            Public Key Algorithm: rsaEncryption
                RSA Public-Key: (2048 bit)
                Modulus:
                    00:ad:4e:af:2f:55:5e:cb:f4:50:45:86:ba:31:cd:
                    75:fc:64:1b:1e:5a:81:06:e6:97:16:80:1d:83:22:
                    89:3b:80:5d:8c:ef:c0:a2:01:a5:44:8b:2d:ab:17:
                    d3:87:58:d7:6b:82:75:b5:21:cf:b1:f5:d4:41:aa:
                    b5:eb:d2:23:50:a1:a6:e8:fb:99:ff:43:00:9c:f9:
                    f5:15:13:a4:a7:82:ef:21:24:06:08:88:9d:14:b4:
                    48:5a:a4:67:b4:9b:1e:46:e1:83:44:a9:fe:5b:c0:
                    fa:08:ba:c5:78:8b:aa:c1:e1:a4:6e:e8:e8:aa:ac:
                    44:5c:6b:51:66:56:2c:2a:ec:38:8f:13:e1:52:a0:
                    48:b6:ed:9e:36:57:ab:2b:06:3c:17:96:b4:94:9c:
                    dc:0f:b8:82:b3:d1:6a:79:85:58:a6:59:f0:79:82:
                    b2:07:f5:ad:50:64:e5:b0:4f:44:4e:0f:c8:4a:19:
                    63:10:58:ef:ae:ef:d0:eb:4b:8b:20:a2:37:85:41:
                    5e:97:dd:25:78:86:8a:39:20:c0:0e:91:b7:f5:1b:
                    1d:03:36:25:47:69:0b:b3:00:3d:27:2c:51:98:36:
                    e5:a8:2f:d0:9d:0c:f5:04:71:51:d3:ea:2a:ea:d2:
                    b4:c8:71:5c:90:fb:54:62:af:b7:57:06:a5:b3:77:
                    67:59
                Exponent: 65537 (0x10001)
        X509v3 extensions:
            X509v3 Basic Constraints: 
                CA:FALSE
            X509v3 Subject Key Identifier: 
                6F:9B:67:45:A1:49:9D:6F:46:A4:3D:7D:58:03:3C:A4:BE:E2:04:0D
            X509v3 Authority Key Identifier: 
                keyid:28:07:74:C2:FC:18:C1:8B:D1:0D:04:A5:5D:08:F4:9C:69:DC:88:BD
                DirName:/CN=team445-net
                serial:72:F6:D1:7B:51:B1:F9:63:40:9C:32:12:6B:5E:28:28:24:CD:59:CA

            X509v3 Extended Key Usage: 
                TLS Web Server Authentication
            X509v3 Key Usage: 
                Digital Signature, Key Encipherment
            X509v3 Subject Alternative Name: 
                DNS:team445-server
    Signature Algorithm: sha256WithRSAEncryption
         93:29:d2:2e:34:1a:68:41:c5:b8:e2:1c:54:51:7c:35:c6:69:
         f7:67:25:46:c9:bf:fa:b5:68:e9:16:3f:ec:80:4e:29:91:fd:
         d7:04:ab:8e:bb:32:2e:9f:aa:00:b4:48:2b:c4:83:fa:36:90:
         6e:56:62:91:ab:15:fb:91:70:60:13:7b:81:47:c0:86:c6:ce:
         e0:c3:5e:8f:65:c6:77:46:0c:2a:94:4b:c6:3e:43:4a:9d:50:
         0d:6f:e7:c0:f8:23:e6:e6:9e:f7:e6:1e:e5:f3:77:aa:d5:41:
         60:fb:1c:82:d4:86:82:16:d5:20:d3:b4:3d:f8:6a:36:1f:63:
         98:cd:cc:bf:9d:40:34:08:89:16:54:77:0a:03:84:a0:62:a4:
         c5:00:61:33:4d:c3:1d:65:5b:a0:ea:06:03:aa:96:0f:49:28:
         86:28:e0:10:f9:d5:41:41:0f:b4:d8:a2:e9:09:6e:70:cc:3c:
         bf:96:29:5f:e2:64:42:d6:e8:db:6f:e7:dc:58:40:50:61:e7:
         cb:f2:f7:45:f5:aa:d9:f1:e6:3d:e4:c0:45:da:35:90:33:cf:
         7c:90:49:36:2e:76:ef:36:ce:9b:73:03:2d:45:1e:00:b8:86:
         30:f7:7f:64:13:74:4c:2b:39:fe:66:13:18:ac:d2:c0:8c:c3:
         8c:cd:7b:4c
-----BEGIN CERTIFICATE-----
MIIDeDCCAmCgAwIBAgIRAKzhbe7Eu4h4d8ZSwpK+PnwwDQYJKoZIhvcNAQELBQAw
FjEUMBIGA1UEAwwLdGVhbTQ0NS1uZXQwHhcNMjEwOTEzMDI0ODQ4WhcNMjQwODI4
MDI0ODQ4WjAZMRcwFQYDVQQDDA50ZWFtNDQ1LXNlcnZlcjCCASIwDQYJKoZIhvcN
AQEBBQADggEPADCCAQoCggEBAK1Ory9VXsv0UEWGujHNdfxkGx5agQbmlxaAHYMi
iTuAXYzvwKIBpUSLLasX04dY12uCdbUhz7H11EGqtevSI1Chpuj7mf9DAJz59RUT
pKeC7yEkBgiInRS0SFqkZ7SbHkbhg0Sp/lvA+gi6xXiLqsHhpG7o6KqsRFxrUWZW
LCrsOI8T4VKgSLbtnjZXqysGPBeWtJSc3A+4grPRanmFWKZZ8HmCsgf1rVBk5bBP
RE4PyEoZYxBY767v0OtLiyCiN4VBXpfdJXiGijkgwA6Rt/UbHQM2JUdpC7MAPScs
UZg25agv0J0M9QRxUdPqKurStMhxXJD7VGKvt1cGpbN3Z1kCAwEAAaOBvTCBujAJ
BgNVHRMEAjAAMB0GA1UdDgQWBBRvm2dFoUmdb0akPX1YAzykvuIEDTBRBgNVHSME
SjBIgBQoB3TC/BjBi9ENBKVdCPScadyIvaEapBgwFjEUMBIGA1UEAwwLdGVhbTQ0
NS1uZXSCFHL20XtRsfljQJwyEmteKCgkzVnKMBMGA1UdJQQMMAoGCCsGAQUFBwMB
MAsGA1UdDwQEAwIFoDAZBgNVHREEEjAQgg50ZWFtNDQ1LXNlcnZlcjANBgkqhkiG
9w0BAQsFAAOCAQEAkynSLjQaaEHFuOIcVFF8NcZp92clRsm/+rVo6RY/7IBOKZH9
1wSrjrsyLp+qALRIK8SD+jaQblZikasV+5FwYBN7gUfAhsbO4MNej2XGd0YMKpRL
xj5DSp1QDW/nwPgj5uae9+Ye5fN3qtVBYPscgtSGghbVINO0PfhqNh9jmM3Mv51A
NAiJFlR3CgOEoGKkxQBhM03DHWVboOoGA6qWD0kohijgEPnVQUEPtNii6QlucMw8
v5YpX+JkQtbo22/n3FhAUGHny/L3RfWq2fHmPeTARdo1kDPPfJBJNi527zbOm3MD
LUUeALiGMPd/ZBN0TCs5/mYTGKzSwIzDjM17TA==
-----END CERTIFICATE-----
