Certificate:
    Data:
        Version: 3 (0x2)
        Serial Number:
            e6:ee:2f:74:3c:47:b9:f8:b7:c5:d9:e5:2d:37:b3:79
        Signature Algorithm: sha256WithRSAEncryption
        Issuer: CN=team762-net
        Validity
            Not Before: Sep 13 05:19:34 2021 GMT
            Not After : Aug 28 05:19:34 2024 GMT
        Subject: CN=team762-server
        Subject Public Key Info:
            Public Key Algorithm: rsaEncryption
                RSA Public-Key: (2048 bit)
                Modulus:
                    00:b2:5d:8c:b7:af:c1:f2:14:7d:2f:a7:2f:c8:9b:
                    14:72:61:63:ee:13:78:1c:38:88:79:e5:a9:16:1b:
                    73:77:9c:0b:c0:c0:b5:c7:74:47:f7:c9:20:ab:59:
                    f9:68:d9:7a:cd:1c:f4:fe:e4:76:dd:a8:da:80:b5:
                    ba:35:fe:bc:a6:7a:76:89:c6:10:a8:ec:29:6c:b0:
                    b1:f1:fe:af:65:4e:e8:20:33:9b:ab:f1:7a:de:36:
                    a0:ff:c0:34:fa:20:c1:bb:96:ee:bd:52:28:2c:90:
                    b2:5b:a0:9f:aa:ae:79:04:d6:72:58:92:22:42:28:
                    f3:57:62:d5:f6:81:b2:4a:6f:d0:60:33:f3:a0:4d:
                    1a:9e:15:5f:ed:ec:e8:ae:13:60:f9:13:f5:5b:8e:
                    1f:c3:ce:31:82:46:a1:c2:a3:a4:66:ea:c1:52:5e:
                    0a:e1:4c:19:b3:df:97:62:e4:ba:d4:3e:d3:34:e5:
                    d2:e8:0e:e6:10:4f:d6:82:1c:a5:a9:f3:ac:8c:de:
                    b0:d4:85:43:a7:5d:8e:41:76:61:6b:aa:6a:9a:49:
                    2f:8c:e8:8a:36:7d:e5:84:3e:89:76:e4:eb:64:3b:
                    ac:78:26:25:f8:60:5b:1a:15:1b:06:75:2e:a3:b7:
                    cb:38:c9:93:5b:3a:75:6f:9f:60:82:b6:96:a8:1a:
                    66:8b
                Exponent: 65537 (0x10001)
        X509v3 extensions:
            X509v3 Basic Constraints: 
                CA:FALSE
            X509v3 Subject Key Identifier: 
                BC:8D:CC:BA:D8:5D:FD:75:24:4D:F3:83:E2:47:BA:48:1D:05:F1:DA
            X509v3 Authority Key Identifier: 
                keyid:19:E3:8A:EC:14:ED:37:BD:DE:62:A2:65:64:5C:3E:2D:4E:86:31:D6
                DirName:/CN=team762-net
                serial:D2:B1:6E:EE:B6:90:4D:04:A3:9A:F5:39:C0:EF:DA:D7:BB:3C:3B

            X509v3 Extended Key Usage: 
                TLS Web Server Authentication
            X509v3 Key Usage: 
                Digital Signature, Key Encipherment
            X509v3 Subject Alternative Name: 
                DNS:team762-server
    Signature Algorithm: sha256WithRSAEncryption
         5b:73:e9:a0:b0:d7:c3:44:92:a0:38:57:fb:05:42:db:78:41:
         29:0a:1e:45:9b:98:39:fb:fa:ca:5f:62:c5:5c:fc:1b:ba:a8:
         83:5c:8e:42:32:7d:bd:01:75:16:59:35:49:61:33:22:e7:4c:
         cb:c9:bb:fd:c2:23:51:a8:8e:3d:14:44:14:ad:b6:ae:9e:81:
         34:81:6a:82:f6:c7:63:6d:23:87:0a:02:82:d6:99:c5:01:06:
         8a:cc:29:26:58:25:c7:81:a2:4d:db:60:7a:34:d8:37:32:ec:
         b6:d7:86:fc:c5:25:9e:8f:ce:2f:10:0a:2a:6a:5c:09:1a:53:
         35:3a:e3:5e:02:86:60:82:b5:6e:a8:e4:93:21:c6:8d:cd:72:
         c7:ac:ce:3a:c3:df:c5:49:85:10:fe:e6:e2:8e:0a:0f:1d:cf:
         c4:07:3c:21:f4:32:b3:84:82:b4:7a:89:b3:33:ce:da:99:09:
         13:b2:cb:e6:66:be:9d:11:50:0b:f4:b0:a2:c6:9b:b0:76:3a:
         b7:ad:bc:59:72:56:7a:5e:00:e1:a7:b4:c5:5a:46:af:44:56:
         f3:6f:06:28:d0:18:d4:fe:c1:2f:43:b4:14:06:b9:f1:3d:0e:
         08:91:8d:5e:23:de:3d:0b:5a:1a:d4:e8:1b:6e:1a:55:3d:d7:
         74:0b:07:7b
-----BEGIN CERTIFICATE-----
MIIDeDCCAmCgAwIBAgIRAObuL3Q8R7n4t8XZ5S03s3kwDQYJKoZIhvcNAQELBQAw
FjEUMBIGA1UEAwwLdGVhbTc2Mi1uZXQwHhcNMjEwOTEzMDUxOTM0WhcNMjQwODI4
MDUxOTM0WjAZMRcwFQYDVQQDDA50ZWFtNzYyLXNlcnZlcjCCASIwDQYJKoZIhvcN
AQEBBQADggEPADCCAQoCggEBALJdjLevwfIUfS+nL8ibFHJhY+4TeBw4iHnlqRYb
c3ecC8DAtcd0R/fJIKtZ+WjZes0c9P7kdt2o2oC1ujX+vKZ6donGEKjsKWywsfH+
r2VO6CAzm6vxet42oP/ANPogwbuW7r1SKCyQslugn6queQTWcliSIkIo81di1faB
skpv0GAz86BNGp4VX+3s6K4TYPkT9VuOH8POMYJGocKjpGbqwVJeCuFMGbPfl2Lk
utQ+0zTl0ugO5hBP1oIcpanzrIzesNSFQ6ddjkF2YWuqappJL4zoijZ95YQ+iXbk
62Q7rHgmJfhgWxoVGwZ1LqO3yzjJk1s6dW+fYIK2lqgaZosCAwEAAaOBvTCBujAJ
BgNVHRMEAjAAMB0GA1UdDgQWBBS8jcy62F39dSRN84PiR7pIHQXx2jBRBgNVHSME
SjBIgBQZ44rsFO03vd5iomVkXD4tToYx1qEapBgwFjEUMBIGA1UEAwwLdGVhbTc2
Mi1uZXSCFADSsW7utpBNBKOa9TnA79rXuzw7MBMGA1UdJQQMMAoGCCsGAQUFBwMB
MAsGA1UdDwQEAwIFoDAZBgNVHREEEjAQgg50ZWFtNzYyLXNlcnZlcjANBgkqhkiG
9w0BAQsFAAOCAQEAW3PpoLDXw0SSoDhX+wVC23hBKQoeRZuYOfv6yl9ixVz8G7qo
g1yOQjJ9vQF1Flk1SWEzIudMy8m7/cIjUaiOPRREFK22rp6BNIFqgvbHY20jhwoC
gtaZxQEGiswpJlglx4GiTdtgejTYNzLstteG/MUlno/OLxAKKmpcCRpTNTrjXgKG
YIK1bqjkkyHGjc1yx6zOOsPfxUmFEP7m4o4KDx3PxAc8IfQys4SCtHqJszPO2pkJ
E7LL5ma+nRFQC/SwosabsHY6t628WXJWel4A4ae0xVpGr0RW828GKNAY1P7BL0O0
FAa58T0OCJGNXiPePQtaGtToG24aVT3XdAsHew==
-----END CERTIFICATE-----
