Certificate:
    Data:
        Version: 3 (0x2)
        Serial Number:
            22:43:3b:66:bd:d9:b2:09:82:ab:0f:27:a7:30:ae:e2
        Signature Algorithm: sha256WithRSAEncryption
        Issuer: CN=team450-net
        Validity
            Not Before: Sep 13 02:42:20 2021 GMT
            Not After : Aug 28 02:42:20 2024 GMT
        Subject: CN=team450-client
        Subject Public Key Info:
            Public Key Algorithm: rsaEncryption
                RSA Public-Key: (2048 bit)
                Modulus:
                    00:bd:b0:31:19:6c:67:f1:3b:74:9a:fc:65:ab:ae:
                    32:8c:a2:7d:bb:0b:fa:7c:6c:46:27:a9:00:e7:4d:
                    a3:87:2c:95:29:26:2e:9d:ad:b6:5e:68:24:84:89:
                    b0:d6:51:8b:7f:28:76:4c:b1:4e:55:23:9b:fd:00:
                    d8:72:0a:da:e3:f4:09:0b:30:78:56:23:e1:7a:96:
                    b2:5e:c3:be:34:81:bc:d4:6c:36:52:e8:eb:f1:ab:
                    a4:2f:69:42:f2:d6:0e:7d:ae:81:98:8d:7c:2d:ff:
                    7b:e6:af:f4:2d:36:7f:21:83:32:23:2d:a1:fb:00:
                    69:bf:cf:2f:94:68:a1:43:00:fc:19:4a:e9:07:f1:
                    b0:9a:14:02:0b:d0:55:7d:9e:de:6f:9a:59:f9:45:
                    15:d2:7c:ef:1b:2a:c1:99:87:a0:f0:c3:11:5a:f2:
                    6e:d4:b6:ce:5b:d3:74:ac:7d:25:df:9d:b1:56:02:
                    eb:6a:e5:94:00:02:e8:fb:51:cc:37:ef:7f:4d:52:
                    eb:ed:e9:86:63:64:85:51:b8:1b:71:11:e6:41:11:
                    29:d5:35:18:27:b8:30:6c:56:49:fc:54:cb:0b:e9:
                    d7:72:5d:15:73:d4:a4:66:3f:a1:1c:d6:c9:20:2c:
                    0c:f6:da:08:07:ce:aa:b4:c7:42:18:fb:37:0a:90:
                    67:b9
                Exponent: 65537 (0x10001)
        X509v3 extensions:
            X509v3 Basic Constraints: 
                CA:FALSE
            X509v3 Subject Key Identifier: 
                87:D2:7F:41:53:6A:61:A4:6C:CF:4D:B2:5D:6D:E4:15:EB:45:2E:93
            X509v3 Authority Key Identifier: 
                keyid:3B:A6:26:87:FE:78:5A:E5:7E:76:DC:4C:98:C4:38:E4:4A:5B:DF:25
                DirName:/CN=team450-net
                serial:58:2B:84:77:68:BF:14:80:EF:41:EC:82:C8:D6:6A:A0:BD:ED:0D:5B

            X509v3 Extended Key Usage: 
                TLS Web Client Authentication
            X509v3 Key Usage: 
                Digital Signature
    Signature Algorithm: sha256WithRSAEncryption
         8a:56:0f:2c:17:98:bc:cd:b2:6f:7e:5d:96:c6:9c:aa:2e:d1:
         86:56:3c:c7:aa:44:e8:59:70:04:c9:3e:16:ea:c7:82:02:f5:
         db:26:72:c9:16:27:41:d7:e8:3d:49:39:e5:a5:6e:42:7d:15:
         65:23:63:23:58:9c:7c:86:f4:65:76:1a:5c:b4:5c:ab:be:c2:
         05:09:5f:e4:6e:8c:5d:e9:29:62:d5:40:27:ea:66:1a:1a:60:
         0c:ce:a0:5a:ca:53:ca:e2:71:04:89:11:69:c9:09:a9:97:cb:
         3d:6b:6d:46:c8:dc:ce:53:03:33:d4:67:56:57:c4:0d:93:83:
         b5:71:7b:14:38:b1:05:ff:59:af:54:02:43:1a:cf:c2:f5:67:
         b8:e2:5e:d6:6e:19:2b:31:3b:97:dd:ae:08:ff:d4:38:65:08:
         50:1f:03:de:17:74:0a:4a:a9:b6:4d:a3:39:4a:ff:d5:6c:97:
         36:ed:7c:b9:6f:90:c2:0c:61:43:ef:50:ac:73:e5:4c:ed:09:
         c4:16:64:5c:6c:9b:55:bc:35:9a:10:d8:1d:de:a7:67:c4:14:
         b3:75:d5:65:e9:f6:a7:41:bc:63:36:9e:11:b2:b5:41:3d:d0:
         13:fc:5b:59:27:1f:cc:2b:98:aa:95:3e:d2:c2:75:a3:92:ae:
         73:7e:f2:30
-----BEGIN CERTIFICATE-----
MIIDXDCCAkSgAwIBAgIQIkM7Zr3ZsgmCqw8npzCu4jANBgkqhkiG9w0BAQsFADAW
MRQwEgYDVQQDDAt0ZWFtNDUwLW5ldDAeFw0yMTA5MTMwMjQyMjBaFw0yNDA4Mjgw
MjQyMjBaMBkxFzAVBgNVBAMMDnRlYW00NTAtY2xpZW50MIIBIjANBgkqhkiG9w0B
AQEFAAOCAQ8AMIIBCgKCAQEAvbAxGWxn8Tt0mvxlq64yjKJ9uwv6fGxGJ6kA502j
hyyVKSYuna22XmgkhImw1lGLfyh2TLFOVSOb/QDYcgra4/QJCzB4ViPhepayXsO+
NIG81Gw2Uujr8aukL2lC8tYOfa6BmI18Lf975q/0LTZ/IYMyIy2h+wBpv88vlGih
QwD8GUrpB/GwmhQCC9BVfZ7eb5pZ+UUV0nzvGyrBmYeg8MMRWvJu1LbOW9N0rH0l
352xVgLrauWUAALo+1HMN+9/TVLr7emGY2SFUbgbcRHmQREp1TUYJ7gwbFZJ/FTL
C+nXcl0Vc9SkZj+hHNbJICwM9toIB86qtMdCGPs3CpBnuQIDAQABo4GiMIGfMAkG
A1UdEwQCMAAwHQYDVR0OBBYEFIfSf0FTamGkbM9Nsl1t5BXrRS6TMFEGA1UdIwRK
MEiAFDumJof+eFrlfnbcTJjEOORKW98loRqkGDAWMRQwEgYDVQQDDAt0ZWFtNDUw
LW5ldIIUWCuEd2i/FIDvQeyCyNZqoL3tDVswEwYDVR0lBAwwCgYIKwYBBQUHAwIw
CwYDVR0PBAQDAgeAMA0GCSqGSIb3DQEBCwUAA4IBAQCKVg8sF5i8zbJvfl2Wxpyq
LtGGVjzHqkToWXAEyT4W6seCAvXbJnLJFidB1+g9STnlpW5CfRVlI2MjWJx8hvRl
dhpctFyrvsIFCV/kboxd6Sli1UAn6mYaGmAMzqBaylPK4nEEiRFpyQmpl8s9a21G
yNzOUwMz1GdWV8QNk4O1cXsUOLEF/1mvVAJDGs/C9We44l7WbhkrMTuX3a4I/9Q4
ZQhQHwPeF3QKSqm2TaM5Sv/VbJc27Xy5b5DCDGFD71Csc+VM7QnEFmRcbJtVvDWa
ENgd3qdnxBSzddVl6fanQbxjNp4RsrVBPdAT/FtZJx/MK5iqlT7SwnWjkq5zfvIw
-----END CERTIFICATE-----
