Certificate:
    Data:
        Version: 3 (0x2)
        Serial Number:
            b8:df:3c:58:78:9c:9d:54:d6:ec:da:fb:34:a6:5f:e9
        Signature Algorithm: sha256WithRSAEncryption
        Issuer: CN=team440-net
        Validity
            Not Before: Sep 13 02:35:55 2021 GMT
            Not After : Aug 28 02:35:55 2024 GMT
        Subject: CN=team440-client
        Subject Public Key Info:
            Public Key Algorithm: rsaEncryption
                RSA Public-Key: (2048 bit)
                Modulus:
                    00:bf:d1:04:25:4a:88:97:15:ec:fe:5a:24:2d:a6:
                    cb:f1:15:5b:52:7a:77:52:ab:9e:cc:7f:a0:f0:50:
                    b4:42:9b:64:21:48:b7:3e:58:1d:52:e2:1f:70:6e:
                    a0:76:7b:84:2d:2b:98:43:d2:3f:d6:63:1a:28:9c:
                    0f:1b:7b:b1:b4:04:b6:12:9d:34:2f:d9:b1:78:e0:
                    18:89:d7:a1:41:95:55:1e:f9:b6:23:76:1e:c9:0a:
                    fe:76:21:2e:14:05:c5:83:b9:4b:b2:59:3a:1b:97:
                    a4:8f:95:51:f9:52:f5:cf:d2:cf:16:fd:af:26:97:
                    32:2c:4a:05:2c:00:f1:dd:74:f0:76:20:b2:1b:d8:
                    9a:62:3d:32:b7:b3:5b:9c:da:7f:60:8a:87:5a:53:
                    dd:08:10:38:e5:a2:91:62:ab:42:5b:bd:41:df:b6:
                    63:6b:fe:ad:c3:82:13:da:4c:5f:2f:e6:57:6e:44:
                    26:90:c8:35:bf:83:5e:d1:22:4a:0c:5a:c0:fb:cf:
                    fc:32:e0:6e:59:ac:18:85:23:df:18:22:a5:4a:5a:
                    b6:48:dc:0c:6a:11:36:78:74:4f:67:0e:a6:45:5e:
                    b4:b1:96:3f:04:0b:e7:40:08:0d:0e:da:e5:a6:aa:
                    83:6b:83:80:28:d1:41:84:c2:d6:21:03:49:1a:a0:
                    38:0b
                Exponent: 65537 (0x10001)
        X509v3 extensions:
            X509v3 Basic Constraints: 
                CA:FALSE
            X509v3 Subject Key Identifier: 
                CD:07:9B:97:04:33:CD:75:51:87:61:70:0D:1F:44:A4:DB:88:D7:32
            X509v3 Authority Key Identifier: 
                keyid:8C:01:FD:DE:39:7D:DA:5A:6D:5B:DA:13:8F:A7:FE:01:D3:25:AE:0C
                DirName:/CN=team440-net
                serial:4E:AF:74:CC:35:08:AC:96:72:25:45:31:07:A8:AB:0C:D8:0C:6A:9D

            X509v3 Extended Key Usage: 
                TLS Web Client Authentication
            X509v3 Key Usage: 
                Digital Signature
    Signature Algorithm: sha256WithRSAEncryption
         59:81:72:b5:b1:25:84:bd:fd:6d:c9:7b:4d:12:5e:ab:d9:ac:
         39:6f:80:96:c0:ca:f6:19:47:0e:3b:a1:44:f6:52:a7:29:c6:
         cf:c9:5d:52:67:a0:39:20:87:dd:ed:df:31:b8:d6:3e:dc:3b:
         7b:8c:ba:e6:e7:e6:bf:43:6b:60:51:ce:d6:0d:c7:d5:be:c1:
         c6:31:6d:a8:d4:c1:89:7a:9a:f5:93:2d:5f:e1:b8:d5:7d:b8:
         61:e7:aa:9a:31:93:38:aa:c4:8f:1a:c6:99:9e:fa:4e:3d:08:
         f1:53:30:5f:04:38:c7:f5:23:79:6f:47:76:f8:f8:50:89:3e:
         5a:2a:78:74:f0:ad:e4:0a:e9:2c:a2:1b:fd:7c:6a:47:60:af:
         5e:9f:2d:87:7f:71:34:a6:09:24:be:0d:3b:0c:a2:ec:1f:5b:
         31:dd:fe:79:d8:1e:71:59:46:fa:37:45:6d:c5:f9:dc:6f:97:
         a4:ff:09:27:8a:b4:2b:0f:94:7c:1e:b1:ff:db:b2:f1:64:e4:
         3a:31:5c:74:1c:4f:7d:d3:b2:1f:d8:36:db:05:0a:c3:ed:aa:
         c3:e0:11:8c:54:cc:21:a2:d8:5f:de:b0:43:b5:4f:b3:60:7c:
         9f:16:9d:62:ac:d0:a5:ac:f6:0d:16:6f:1b:b3:ae:fd:9d:d8:
         81:63:fe:aa
-----BEGIN CERTIFICATE-----
MIIDXTCCAkWgAwIBAgIRALjfPFh4nJ1U1uza+zSmX+kwDQYJKoZIhvcNAQELBQAw
FjEUMBIGA1UEAwwLdGVhbTQ0MC1uZXQwHhcNMjEwOTEzMDIzNTU1WhcNMjQwODI4
MDIzNTU1WjAZMRcwFQYDVQQDDA50ZWFtNDQwLWNsaWVudDCCASIwDQYJKoZIhvcN
AQEBBQADggEPADCCAQoCggEBAL/RBCVKiJcV7P5aJC2my/EVW1J6d1Krnsx/oPBQ
tEKbZCFItz5YHVLiH3BuoHZ7hC0rmEPSP9ZjGiicDxt7sbQEthKdNC/ZsXjgGInX
oUGVVR75tiN2HskK/nYhLhQFxYO5S7JZOhuXpI+VUflS9c/Szxb9ryaXMixKBSwA
8d108HYgshvYmmI9MrezW5zaf2CKh1pT3QgQOOWikWKrQlu9Qd+2Y2v+rcOCE9pM
Xy/mV25EJpDINb+DXtEiSgxawPvP/DLgblmsGIUj3xgipUpatkjcDGoRNnh0T2cO
pkVetLGWPwQL50AIDQ7a5aaqg2uDgCjRQYTC1iEDSRqgOAsCAwEAAaOBojCBnzAJ
BgNVHRMEAjAAMB0GA1UdDgQWBBTNB5uXBDPNdVGHYXANH0Sk24jXMjBRBgNVHSME
SjBIgBSMAf3eOX3aWm1b2hOPp/4B0yWuDKEapBgwFjEUMBIGA1UEAwwLdGVhbTQ0
MC1uZXSCFE6vdMw1CKyWciVFMQeoqwzYDGqdMBMGA1UdJQQMMAoGCCsGAQUFBwMC
MAsGA1UdDwQEAwIHgDANBgkqhkiG9w0BAQsFAAOCAQEAWYFytbElhL39bcl7TRJe
q9msOW+AlsDK9hlHDjuhRPZSpynGz8ldUmegOSCH3e3fMbjWPtw7e4y65ufmv0Nr
YFHO1g3H1b7BxjFtqNTBiXqa9ZMtX+G41X24YeeqmjGTOKrEjxrGmZ76Tj0I8VMw
XwQ4x/UjeW9Hdvj4UIk+Wip4dPCt5ArpLKIb/XxqR2CvXp8th39xNKYJJL4NOwyi
7B9bMd3+edgecVlG+jdFbcX53G+XpP8JJ4q0Kw+UfB6x/9uy8WTkOjFcdBxPfdOy
H9g22wUKw+2qw+ARjFTMIaLYX96wQ7VPs2B8nxadYqzQpaz2DRZvG7Ou/Z3YgWP+
qg==
-----END CERTIFICATE-----
