Certificate:
    Data:
        Version: 3 (0x2)
        Serial Number:
            e6:b6:ce:c8:8d:95:10:11:8b:e1:c6:d3:ef:03:6f:53
        Signature Algorithm: sha256WithRSAEncryption
        Issuer: CN=team22-net
        Validity
            Not Before: Sep 12 22:54:31 2021 GMT
            Not After : Aug 27 22:54:31 2024 GMT
        Subject: CN=team22-server
        Subject Public Key Info:
            Public Key Algorithm: rsaEncryption
                RSA Public-Key: (2048 bit)
                Modulus:
                    00:ab:c2:f8:28:24:75:ca:da:b6:31:7b:ec:e2:88:
                    ee:d2:26:6c:6c:ea:43:8d:c4:fa:7d:25:02:5c:9e:
                    d0:03:c7:76:41:03:8e:46:6c:08:ab:e8:00:90:2e:
                    57:9c:f5:be:0e:3e:bf:e8:fd:68:98:4c:b6:56:dc:
                    ae:ad:f7:b2:08:6c:5b:82:9f:e0:ed:b9:34:26:23:
                    57:09:09:89:42:a3:46:53:da:60:a0:21:2a:8b:80:
                    a0:ad:7a:58:82:9d:fe:f8:5e:39:62:9f:61:63:f0:
                    8e:fc:a5:f4:63:c9:8e:4d:c5:be:5a:50:79:5c:3e:
                    ca:e3:6b:97:a0:1f:e6:8b:98:08:e8:0b:e1:db:e6:
                    ff:e7:a1:7a:ea:99:f5:ff:ba:cb:f1:a6:3e:37:d6:
                    ee:9a:5b:76:ba:17:cb:50:9d:bd:67:a5:5d:a5:ec:
                    ea:e1:6e:fe:4b:3b:75:3a:a0:94:9d:de:9c:79:75:
                    12:20:18:ff:d9:54:40:d5:a7:00:cb:f8:64:6a:66:
                    9a:bb:8b:a7:b9:97:86:7e:56:5d:01:10:b3:64:3a:
                    37:e8:82:e9:b2:3c:be:3c:5e:a2:89:84:4e:7a:50:
                    06:49:f6:1a:cd:cd:05:86:f2:f3:8c:4e:fd:e6:e1:
                    52:51:39:97:38:2c:ab:b2:4a:c8:39:ee:9f:8c:44:
                    5f:79
                Exponent: 65537 (0x10001)
        X509v3 extensions:
            X509v3 Basic Constraints: 
                CA:FALSE
            X509v3 Subject Key Identifier: 
                72:F7:59:9B:99:91:14:50:1E:FC:3C:F2:D4:3C:41:4A:68:04:E4:0E
            X509v3 Authority Key Identifier: 
                keyid:D5:2E:3B:97:45:39:4A:F0:F7:EE:EA:40:DE:1A:49:02:73:5D:9A:55
                DirName:/CN=team22-net
                serial:44:7C:27:23:D2:57:6A:16:55:98:C2:CB:B1:E5:37:37:EF:E5:73:F9

            X509v3 Extended Key Usage: 
                TLS Web Server Authentication
            X509v3 Key Usage: 
                Digital Signature, Key Encipherment
            X509v3 Subject Alternative Name: 
                DNS:team22-server
    Signature Algorithm: sha256WithRSAEncryption
         d2:d3:e7:0b:31:a9:42:e6:f7:53:e2:04:9f:a6:25:30:cb:16:
         c2:66:d8:90:03:57:17:69:d7:ef:36:d3:b7:d6:d9:33:f7:58:
         15:12:18:a1:79:c7:02:55:50:75:10:f6:21:c7:88:bd:33:a4:
         85:70:32:00:b6:42:ee:1b:e6:83:81:f9:22:db:c5:b5:57:c3:
         97:ac:dc:b0:f4:85:9c:d0:da:5c:ae:43:7f:86:1b:e9:09:9e:
         40:e2:8e:4c:d4:c3:43:77:53:82:04:8e:46:ec:9c:5a:8d:fe:
         00:f8:29:da:34:e0:58:3d:02:ef:d6:c9:e2:a8:c1:29:72:e4:
         50:e1:aa:f1:1f:41:83:85:74:07:b7:53:08:41:d4:2c:9b:1f:
         47:a1:61:5c:e9:76:63:56:ff:b3:fa:01:74:a3:56:0d:b8:c8:
         e8:01:06:82:8f:e2:ec:5d:34:35:b3:e7:f9:36:95:bc:f6:0c:
         1a:64:a6:38:0d:a3:c5:e8:c6:f9:40:a4:99:e0:af:5d:23:d0:
         dd:4f:a3:6d:f6:f7:97:29:dc:0a:a8:ac:ac:6c:9a:72:f4:30:
         b8:c1:81:de:89:63:32:09:5d:ba:b7:0f:26:b9:4e:ff:4c:46:
         ed:27:0e:53:8c:3d:e7:58:5c:50:54:93:eb:6e:e6:c9:0f:fa:
         0b:c8:2b:f2
-----BEGIN CERTIFICATE-----
MIIDdDCCAlygAwIBAgIRAOa2zsiNlRARi+HG0+8Db1MwDQYJKoZIhvcNAQELBQAw
FTETMBEGA1UEAwwKdGVhbTIyLW5ldDAeFw0yMTA5MTIyMjU0MzFaFw0yNDA4Mjcy
MjU0MzFaMBgxFjAUBgNVBAMMDXRlYW0yMi1zZXJ2ZXIwggEiMA0GCSqGSIb3DQEB
AQUAA4IBDwAwggEKAoIBAQCrwvgoJHXK2rYxe+ziiO7SJmxs6kONxPp9JQJcntAD
x3ZBA45GbAir6ACQLlec9b4OPr/o/WiYTLZW3K6t97IIbFuCn+DtuTQmI1cJCYlC
o0ZT2mCgISqLgKCteliCnf74Xjlin2Fj8I78pfRjyY5Nxb5aUHlcPsrja5egH+aL
mAjoC+Hb5v/noXrqmfX/usvxpj431u6aW3a6F8tQnb1npV2l7Orhbv5LO3U6oJSd
3px5dRIgGP/ZVEDVpwDL+GRqZpq7i6e5l4Z+Vl0BELNkOjfogumyPL48XqKJhE56
UAZJ9hrNzQWG8vOMTv3m4VJROZc4LKuySsg57p+MRF95AgMBAAGjgbswgbgwCQYD
VR0TBAIwADAdBgNVHQ4EFgQUcvdZm5mRFFAe/Dzy1DxBSmgE5A4wUAYDVR0jBEkw
R4AU1S47l0U5SvD37upA3hpJAnNdmlWhGaQXMBUxEzARBgNVBAMMCnRlYW0yMi1u
ZXSCFER8JyPSV2oWVZjCy7HlNzfv5XP5MBMGA1UdJQQMMAoGCCsGAQUFBwMBMAsG
A1UdDwQEAwIFoDAYBgNVHREEETAPgg10ZWFtMjItc2VydmVyMA0GCSqGSIb3DQEB
CwUAA4IBAQDS0+cLMalC5vdT4gSfpiUwyxbCZtiQA1cXadfvNtO31tkz91gVEhih
eccCVVB1EPYhx4i9M6SFcDIAtkLuG+aDgfki28W1V8OXrNyw9IWc0NpcrkN/hhvp
CZ5A4o5M1MNDd1OCBI5G7Jxajf4A+CnaNOBYPQLv1sniqMEpcuRQ4arxH0GDhXQH
t1MIQdQsmx9HoWFc6XZjVv+z+gF0o1YNuMjoAQaCj+LsXTQ1s+f5NpW89gwaZKY4
DaPF6Mb5QKSZ4K9dI9DdT6Nt9veXKdwKqKysbJpy9DC4wYHeiWMyCV26tw8muU7/
TEbtJw5TjD3nWFxQVJPrbubJD/oLyCvy
-----END CERTIFICATE-----
