Certificate:
    Data:
        Version: 3 (0x2)
        Serial Number:
            2f:25:07:80:0d:aa:8f:f6:85:a3:d9:c6:22:00:c5:02
        Signature Algorithm: sha256WithRSAEncryption
        Issuer: CN=team257-net
        Validity
            Not Before: Sep 13 01:06:47 2021 GMT
            Not After : Aug 28 01:06:47 2024 GMT
        Subject: CN=team257-server
        Subject Public Key Info:
            Public Key Algorithm: rsaEncryption
                RSA Public-Key: (2048 bit)
                Modulus:
                    00:dd:d8:8c:82:70:c5:8f:01:47:a8:20:4c:72:b0:
                    87:f7:bf:08:1e:91:6f:20:ba:9a:05:7f:b0:b1:0f:
                    b8:48:d7:d6:ab:56:ff:e8:0f:41:b3:58:88:5d:ba:
                    ea:8d:c4:8a:c0:c6:6a:61:3c:b9:d3:5a:41:07:29:
                    61:29:b1:30:d6:db:f5:0f:a1:dc:f0:a8:87:ef:b3:
                    86:39:da:81:94:10:53:36:20:e2:5b:6d:a3:d7:14:
                    e6:fb:90:8e:c3:ba:b6:81:6d:5a:1e:90:af:90:c9:
                    87:93:d6:2e:c6:f6:e0:a4:c7:97:3f:0b:ea:25:c3:
                    20:31:28:cb:78:3b:0c:96:eb:49:15:e7:3c:f8:6a:
                    d0:b4:0f:87:7d:68:83:71:fa:fe:5d:b0:85:02:8c:
                    7d:cb:63:5b:61:0d:2a:11:2f:cb:8e:bc:69:51:ac:
                    f7:24:62:31:83:0b:83:3f:05:e9:42:76:be:e0:f8:
                    80:95:71:99:5b:f8:e5:f9:79:95:b9:a2:49:9d:72:
                    be:58:4e:84:8d:1f:31:d6:eb:87:43:f3:5d:48:0c:
                    01:0f:76:3b:fa:02:ec:2e:de:2c:50:b7:bf:29:a5:
                    a2:e2:8e:7f:72:91:0a:4b:a9:e0:20:15:87:26:8b:
                    aa:98:b0:ee:97:2e:7d:da:38:1e:90:09:e2:5f:ca:
                    90:27
                Exponent: 65537 (0x10001)
        X509v3 extensions:
            X509v3 Basic Constraints: 
                CA:FALSE
            X509v3 Subject Key Identifier: 
                98:59:03:DB:32:F5:D2:E0:BB:6C:B9:BE:2A:C2:98:EB:A0:69:11:2D
            X509v3 Authority Key Identifier: 
                keyid:DF:11:4B:FB:53:6C:02:32:5C:EB:F0:B1:8A:70:33:45:24:28:74:AC
                DirName:/CN=team257-net
                serial:7D:ED:87:8A:0B:EE:19:3B:A3:C5:13:B5:2E:2A:CB:CF:19:75:6D:91

            X509v3 Extended Key Usage: 
                TLS Web Server Authentication
            X509v3 Key Usage: 
                Digital Signature, Key Encipherment
            X509v3 Subject Alternative Name: 
                DNS:team257-server
    Signature Algorithm: sha256WithRSAEncryption
         5f:41:c4:4a:03:12:67:5c:ac:02:16:40:99:a0:e2:74:d9:b3:
         46:7a:50:50:b9:11:4e:00:c8:60:fa:22:b9:43:ca:17:6f:38:
         7f:0c:cb:93:85:22:20:99:ad:4f:49:14:49:7e:77:db:b5:ed:
         c9:30:5a:44:44:a5:90:0a:e8:81:37:8d:00:11:f7:20:12:52:
         50:11:b6:33:d0:b0:05:af:a2:5f:83:3c:d2:97:30:b5:c5:59:
         b3:30:b3:ab:63:ca:ae:d3:d5:a4:bf:f2:77:f5:d6:02:24:ad:
         ef:38:16:3e:ed:a0:a9:b1:f4:47:1e:41:f8:4f:21:2f:12:44:
         57:52:e8:ca:0f:9a:37:4f:a8:e1:04:0d:78:a3:bc:55:df:5a:
         1e:0d:d6:3b:b1:8f:c8:8e:a0:cb:4f:29:75:5d:82:62:65:c2:
         40:1e:6e:02:83:cd:95:b8:af:d2:02:7a:a1:3b:53:69:e9:99:
         3a:ba:d0:7f:ce:a4:d0:35:e3:cb:00:69:c9:54:16:43:82:17:
         33:4d:16:63:67:1e:81:6b:80:7e:86:4a:ab:16:65:ca:30:60:
         d1:b8:79:c3:33:15:b7:ed:a1:17:3b:1d:1d:92:22:db:3c:af:
         4d:4a:a1:77:58:b8:93:68:ce:fd:75:c6:27:92:5f:d1:8d:e7:
         a7:87:a0:ec
-----BEGIN CERTIFICATE-----
MIIDdzCCAl+gAwIBAgIQLyUHgA2qj/aFo9nGIgDFAjANBgkqhkiG9w0BAQsFADAW
MRQwEgYDVQQDDAt0ZWFtMjU3LW5ldDAeFw0yMTA5MTMwMTA2NDdaFw0yNDA4Mjgw
MTA2NDdaMBkxFzAVBgNVBAMMDnRlYW0yNTctc2VydmVyMIIBIjANBgkqhkiG9w0B
AQEFAAOCAQ8AMIIBCgKCAQEA3diMgnDFjwFHqCBMcrCH978IHpFvILqaBX+wsQ+4
SNfWq1b/6A9Bs1iIXbrqjcSKwMZqYTy501pBBylhKbEw1tv1D6Hc8KiH77OGOdqB
lBBTNiDiW22j1xTm+5COw7q2gW1aHpCvkMmHk9YuxvbgpMeXPwvqJcMgMSjLeDsM
lutJFec8+GrQtA+HfWiDcfr+XbCFAox9y2NbYQ0qES/LjrxpUaz3JGIxgwuDPwXp
Qna+4PiAlXGZW/jl+XmVuaJJnXK+WE6EjR8x1uuHQ/NdSAwBD3Y7+gLsLt4sULe/
KaWi4o5/cpEKS6ngIBWHJouqmLDuly592jgekAniX8qQJwIDAQABo4G9MIG6MAkG
A1UdEwQCMAAwHQYDVR0OBBYEFJhZA9sy9dLgu2y5virCmOugaREtMFEGA1UdIwRK
MEiAFN8RS/tTbAIyXOvwsYpwM0UkKHSsoRqkGDAWMRQwEgYDVQQDDAt0ZWFtMjU3
LW5ldIIUfe2HigvuGTujxRO1LirLzxl1bZEwEwYDVR0lBAwwCgYIKwYBBQUHAwEw
CwYDVR0PBAQDAgWgMBkGA1UdEQQSMBCCDnRlYW0yNTctc2VydmVyMA0GCSqGSIb3
DQEBCwUAA4IBAQBfQcRKAxJnXKwCFkCZoOJ02bNGelBQuRFOAMhg+iK5Q8oXbzh/
DMuThSIgma1PSRRJfnfbte3JMFpERKWQCuiBN40AEfcgElJQEbYz0LAFr6JfgzzS
lzC1xVmzMLOrY8qu09Wkv/J39dYCJK3vOBY+7aCpsfRHHkH4TyEvEkRXUujKD5o3
T6jhBA14o7xV31oeDdY7sY/IjqDLTyl1XYJiZcJAHm4Cg82VuK/SAnqhO1Np6Zk6
utB/zqTQNePLAGnJVBZDghczTRZjZx6Ba4B+hkqrFmXKMGDRuHnDMxW37aEXOx0d
kiLbPK9NSqF3WLiTaM79dcYnkl/Rjeenh6Ds
-----END CERTIFICATE-----
