Certificate:
    Data:
        Version: 3 (0x2)
        Serial Number:
            57:f9:7d:04:71:f2:f3:58:49:7e:51:ed:d6:68:1e:aa
        Signature Algorithm: sha256WithRSAEncryption
        Issuer: CN=team122-net
        Validity
            Not Before: Sep 12 23:49:45 2021 GMT
            Not After : Aug 27 23:49:45 2024 GMT
        Subject: CN=team122-server
        Subject Public Key Info:
            Public Key Algorithm: rsaEncryption
                RSA Public-Key: (2048 bit)
                Modulus:
                    00:b4:9c:a1:46:a7:a0:1f:5d:0a:0e:f9:00:3a:10:
                    49:a4:a6:74:6c:12:d5:fd:96:53:58:d3:92:01:ae:
                    61:6e:18:e7:ab:b7:fa:41:36:4a:7c:84:31:e8:15:
                    8d:b4:ff:73:fb:99:9c:81:7f:48:36:26:65:bf:8e:
                    1b:ae:a8:56:5a:d1:a8:4a:3e:25:62:3e:ab:9c:78:
                    dc:6a:8b:00:15:69:57:ba:e6:ed:d3:32:d5:2d:a8:
                    55:ca:4e:e6:76:b4:0b:72:d0:9d:a7:e1:b9:53:90:
                    76:d3:3b:5f:57:32:65:0a:26:44:73:d6:dd:d9:54:
                    b8:38:46:92:02:23:c7:94:d6:a4:98:f3:de:d0:53:
                    ce:e7:b5:89:61:33:d1:0f:dd:bc:b2:56:cf:c2:12:
                    00:03:f6:07:84:b5:54:29:ef:5e:eb:05:ce:ad:2a:
                    c2:98:23:90:6c:5f:75:ea:bc:78:22:c4:6f:9b:46:
                    f8:b0:6a:2a:88:0c:91:73:84:67:00:f7:31:a8:e7:
                    a0:a1:24:ad:51:99:91:2a:10:c7:ee:3b:25:cc:b3:
                    1f:17:3e:ad:b0:63:fe:db:c6:69:29:3f:2c:16:b9:
                    a3:2c:22:d2:55:c2:77:e6:53:21:95:c3:88:47:19:
                    dd:49:20:b3:c0:1f:03:25:50:7e:b7:54:2e:80:82:
                    dc:05
                Exponent: 65537 (0x10001)
        X509v3 extensions:
            X509v3 Basic Constraints: 
                CA:FALSE
            X509v3 Subject Key Identifier: 
                83:D5:39:4D:88:D8:87:EA:F2:DE:1E:E0:00:6F:4F:B1:78:E6:8B:32
            X509v3 Authority Key Identifier: 
                keyid:C3:23:AF:8F:37:EE:B3:00:EF:17:86:7A:D5:27:9E:54:DE:34:BC:8F
                DirName:/CN=team122-net
                serial:51:FD:26:6B:49:7B:F3:A0:14:F3:21:81:7E:97:8D:64:43:63:E0:AA

            X509v3 Extended Key Usage: 
                TLS Web Server Authentication
            X509v3 Key Usage: 
                Digital Signature, Key Encipherment
            X509v3 Subject Alternative Name: 
                DNS:team122-server
    Signature Algorithm: sha256WithRSAEncryption
         48:06:55:c4:8f:65:d7:57:53:f1:ea:86:f3:a0:b3:c3:79:61:
         79:1e:32:b4:9c:43:c5:42:f6:34:9d:2c:c7:4b:2d:69:31:4c:
         22:92:e8:d3:f0:7d:30:29:13:08:f9:cf:21:cb:ee:51:b7:04:
         b3:32:35:d5:72:32:0a:79:e7:35:9f:88:6f:73:43:69:5d:30:
         8b:7f:c7:65:b6:ee:40:b7:d4:95:59:19:b5:d7:a0:42:bf:0d:
         ab:7c:c1:3b:bc:c8:07:eb:06:c2:ea:f0:fa:40:f4:41:36:9a:
         76:ec:e7:93:f7:2b:4f:f9:ff:d3:d9:b5:4e:c7:05:15:87:07:
         aa:9e:9c:49:ab:32:18:0b:8a:db:59:7a:f2:21:93:bd:46:75:
         20:cf:a4:7c:7d:dc:2f:c3:59:1e:a6:9c:ad:99:e3:11:21:fa:
         b4:80:4c:3e:29:45:22:0f:e7:66:a5:d4:cc:5b:41:36:e0:20:
         76:ab:5e:ec:6d:30:37:16:79:d9:49:43:a1:c6:f6:22:58:ea:
         a4:b8:4e:38:29:c3:f0:a7:df:d4:36:24:23:47:13:db:ae:f8:
         29:c9:10:75:71:e1:f7:38:14:23:39:20:2b:9a:f1:4b:f2:5f:
         a0:5e:6a:a8:d7:40:8a:81:6b:69:98:6b:ad:fb:af:04:7e:f5:
         61:70:03:ea
-----BEGIN CERTIFICATE-----
MIIDdzCCAl+gAwIBAgIQV/l9BHHy81hJflHt1mgeqjANBgkqhkiG9w0BAQsFADAW
MRQwEgYDVQQDDAt0ZWFtMTIyLW5ldDAeFw0yMTA5MTIyMzQ5NDVaFw0yNDA4Mjcy
MzQ5NDVaMBkxFzAVBgNVBAMMDnRlYW0xMjItc2VydmVyMIIBIjANBgkqhkiG9w0B
AQEFAAOCAQ8AMIIBCgKCAQEAtJyhRqegH10KDvkAOhBJpKZ0bBLV/ZZTWNOSAa5h
bhjnq7f6QTZKfIQx6BWNtP9z+5mcgX9INiZlv44brqhWWtGoSj4lYj6rnHjcaosA
FWlXuubt0zLVLahVyk7mdrQLctCdp+G5U5B20ztfVzJlCiZEc9bd2VS4OEaSAiPH
lNakmPPe0FPO57WJYTPRD928slbPwhIAA/YHhLVUKe9e6wXOrSrCmCOQbF916rx4
IsRvm0b4sGoqiAyRc4RnAPcxqOegoSStUZmRKhDH7jslzLMfFz6tsGP+28ZpKT8s
FrmjLCLSVcJ35lMhlcOIRxndSSCzwB8DJVB+t1QugILcBQIDAQABo4G9MIG6MAkG
A1UdEwQCMAAwHQYDVR0OBBYEFIPVOU2I2Ifq8t4e4ABvT7F45osyMFEGA1UdIwRK
MEiAFMMjr4837rMA7xeGetUnnlTeNLyPoRqkGDAWMRQwEgYDVQQDDAt0ZWFtMTIy
LW5ldIIUUf0ma0l786AU8yGBfpeNZENj4KowEwYDVR0lBAwwCgYIKwYBBQUHAwEw
CwYDVR0PBAQDAgWgMBkGA1UdEQQSMBCCDnRlYW0xMjItc2VydmVyMA0GCSqGSIb3
DQEBCwUAA4IBAQBIBlXEj2XXV1Px6obzoLPDeWF5HjK0nEPFQvY0nSzHSy1pMUwi
kujT8H0wKRMI+c8hy+5RtwSzMjXVcjIKeec1n4hvc0NpXTCLf8dltu5At9SVWRm1
16BCvw2rfME7vMgH6wbC6vD6QPRBNpp27OeT9ytP+f/T2bVOxwUVhweqnpxJqzIY
C4rbWXryIZO9RnUgz6R8fdwvw1keppytmeMRIfq0gEw+KUUiD+dmpdTMW0E24CB2
q17sbTA3FnnZSUOhxvYiWOqkuE44KcPwp9/UNiQjRxPbrvgpyRB1ceH3OBQjOSAr
mvFL8l+gXmqo10CKgWtpmGut+68EfvVhcAPq
-----END CERTIFICATE-----
