Certificate:
    Data:
        Version: 3 (0x2)
        Serial Number:
            bc:d4:a0:8a:cc:a7:fe:3f:67:f5:3e:3c:19:d9:a9:c8
        Signature Algorithm: sha256WithRSAEncryption
        Issuer: CN=team154-net
        Validity
            Not Before: Sep 13 00:13:38 2021 GMT
            Not After : Aug 28 00:13:38 2024 GMT
        Subject: CN=team154-client
        Subject Public Key Info:
            Public Key Algorithm: rsaEncryption
                RSA Public-Key: (2048 bit)
                Modulus:
                    00:b7:45:26:5a:59:fc:ec:ff:d3:3d:59:21:b3:1e:
                    1c:fe:35:5f:c4:49:4b:39:a9:d1:13:98:07:b7:b9:
                    63:98:77:c9:47:2f:7d:8a:b6:8d:2e:88:ec:5f:e5:
                    47:40:8a:88:ae:c7:80:db:42:29:cd:93:3e:09:28:
                    7a:de:f1:17:92:bb:63:90:40:7c:cb:07:94:eb:a3:
                    4e:6c:b0:53:8d:7c:c7:05:84:dd:fa:42:b8:46:48:
                    4f:62:e5:e0:1c:67:3e:9e:ac:11:ae:e1:ad:c5:86:
                    54:93:67:8c:de:49:5b:8c:3f:5b:ba:35:25:65:d5:
                    17:a1:4f:c2:d8:d8:b3:4f:68:74:cc:9c:d9:60:59:
                    fe:93:55:03:0e:a8:17:66:9b:0f:1f:fc:f2:93:c6:
                    c5:b3:44:d8:1c:23:9d:37:54:eb:87:fd:e6:42:0b:
                    a0:83:ba:90:98:75:42:87:d4:ba:9d:04:20:59:fb:
                    7f:31:a7:22:c5:9a:06:6a:9d:47:83:27:f7:34:59:
                    04:0d:8d:03:7d:3e:40:b1:4b:7f:ac:66:dc:67:3a:
                    e9:8b:d1:7e:9e:8d:3c:fc:3c:a5:40:1b:15:2c:d9:
                    ed:8f:5a:39:e2:4f:47:5c:cd:a6:04:63:ba:00:b3:
                    3a:79:59:28:20:6c:ea:e0:99:e0:f5:b4:a1:92:a3:
                    07:d5
                Exponent: 65537 (0x10001)
        X509v3 extensions:
            X509v3 Basic Constraints: 
                CA:FALSE
            X509v3 Subject Key Identifier: 
                9F:79:8D:97:1B:6B:C2:27:7C:92:2A:11:A7:A9:EE:29:42:09:EB:01
            X509v3 Authority Key Identifier: 
                keyid:8A:A7:55:DC:C0:8A:8B:3E:3D:3A:F3:68:B9:30:F6:C9:7A:26:8E:D1
                DirName:/CN=team154-net
                serial:72:5E:B8:CD:04:89:64:45:6B:16:91:AD:36:1D:17:63:9E:E6:4E:47

            X509v3 Extended Key Usage: 
                TLS Web Client Authentication
            X509v3 Key Usage: 
                Digital Signature
    Signature Algorithm: sha256WithRSAEncryption
         a5:37:8c:36:87:cb:0c:11:26:6a:ab:6d:a8:1f:7a:e7:df:c0:
         8d:cb:e4:91:1a:4b:38:3d:d9:3f:bb:81:e7:4f:ea:8d:96:80:
         71:2b:3e:e1:cb:7f:ad:4d:1f:56:09:94:56:e2:16:80:63:7b:
         97:b6:18:99:21:7c:b9:bf:c4:f1:e5:89:86:c8:86:37:27:98:
         93:91:f3:5f:a8:e5:4e:88:ef:67:3b:3f:e0:95:82:7c:d5:76:
         1a:64:39:c7:61:a8:f6:27:6d:a4:42:85:c8:f2:1b:95:19:fc:
         39:0b:c9:e9:60:71:d1:43:cc:20:fd:b5:39:12:5a:00:6a:b9:
         8f:c9:92:c4:1c:b2:80:e1:e0:bd:79:22:ea:49:04:57:95:d0:
         74:90:e2:0c:6b:b3:41:4f:fe:2d:d5:f6:b7:ca:93:c1:9b:9d:
         79:9b:d7:e4:68:f4:cf:95:62:f4:cf:03:84:27:68:5d:c2:f3:
         59:8b:60:77:28:24:04:11:31:9e:d6:88:42:b2:28:c4:f7:dd:
         25:61:9c:eb:63:3b:9d:72:7a:d4:0c:6e:98:5e:86:fa:5a:24:
         a9:0b:77:b7:5c:f7:3f:54:33:32:e3:83:1b:07:a5:7d:88:20:
         bd:52:53:4c:dc:fe:0a:be:e1:3c:34:59:34:d3:5f:66:ec:9f:
         08:3d:70:5f
-----BEGIN CERTIFICATE-----
MIIDXTCCAkWgAwIBAgIRALzUoIrMp/4/Z/U+PBnZqcgwDQYJKoZIhvcNAQELBQAw
FjEUMBIGA1UEAwwLdGVhbTE1NC1uZXQwHhcNMjEwOTEzMDAxMzM4WhcNMjQwODI4
MDAxMzM4WjAZMRcwFQYDVQQDDA50ZWFtMTU0LWNsaWVudDCCASIwDQYJKoZIhvcN
AQEBBQADggEPADCCAQoCggEBALdFJlpZ/Oz/0z1ZIbMeHP41X8RJSzmp0ROYB7e5
Y5h3yUcvfYq2jS6I7F/lR0CKiK7HgNtCKc2TPgkoet7xF5K7Y5BAfMsHlOujTmyw
U418xwWE3fpCuEZIT2Ll4BxnPp6sEa7hrcWGVJNnjN5JW4w/W7o1JWXVF6FPwtjY
s09odMyc2WBZ/pNVAw6oF2abDx/88pPGxbNE2BwjnTdU64f95kILoIO6kJh1QofU
up0EIFn7fzGnIsWaBmqdR4Mn9zRZBA2NA30+QLFLf6xm3Gc66YvRfp6NPPw8pUAb
FSzZ7Y9aOeJPR1zNpgRjugCzOnlZKCBs6uCZ4PW0oZKjB9UCAwEAAaOBojCBnzAJ
BgNVHRMEAjAAMB0GA1UdDgQWBBSfeY2XG2vCJ3ySKhGnqe4pQgnrATBRBgNVHSME
SjBIgBSKp1XcwIqLPj0682i5MPbJeiaO0aEapBgwFjEUMBIGA1UEAwwLdGVhbTE1
NC1uZXSCFHJeuM0EiWRFaxaRrTYdF2Oe5k5HMBMGA1UdJQQMMAoGCCsGAQUFBwMC
MAsGA1UdDwQEAwIHgDANBgkqhkiG9w0BAQsFAAOCAQEApTeMNofLDBEmaqttqB96
59/AjcvkkRpLOD3ZP7uB50/qjZaAcSs+4ct/rU0fVgmUVuIWgGN7l7YYmSF8ub/E
8eWJhsiGNyeYk5HzX6jlTojvZzs/4JWCfNV2GmQ5x2Go9idtpEKFyPIblRn8OQvJ
6WBx0UPMIP21ORJaAGq5j8mSxByygOHgvXki6kkEV5XQdJDiDGuzQU/+LdX2t8qT
wZudeZvX5Gj0z5Vi9M8DhCdoXcLzWYtgdygkBBExntaIQrIoxPfdJWGc62M7nXJ6
1AxumF6G+lokqQt3t1z3P1QzMuODGwelfYggvVJTTNz+Cr7hPDRZNNNfZuyfCD1w
Xw==
-----END CERTIFICATE-----
