Certificate:
    Data:
        Version: 3 (0x2)
        Serial Number:
            ea:24:42:68:49:a8:91:33:58:1c:5d:fc:56:04:df:d6
        Signature Algorithm: sha256WithRSAEncryption
        Issuer: CN=team151-net
        Validity
            Not Before: Sep 13 00:10:48 2021 GMT
            Not After : Aug 28 00:10:48 2024 GMT
        Subject: CN=team151-server
        Subject Public Key Info:
            Public Key Algorithm: rsaEncryption
                RSA Public-Key: (2048 bit)
                Modulus:
                    00:cc:0c:88:11:96:ef:87:a5:c9:c5:12:6d:c1:97:
                    ba:d8:82:6e:17:d3:2f:ad:19:99:cb:88:45:a9:bd:
                    f6:e5:91:81:b7:ce:5e:11:12:dc:73:fd:63:6c:69:
                    39:8a:15:ad:44:fe:e6:a7:f2:14:ec:69:6b:aa:b8:
                    ec:76:d8:dd:6c:5a:ef:46:1b:96:a2:c0:16:73:dd:
                    34:60:24:b2:05:76:ec:a3:71:7a:2f:e2:49:37:34:
                    bf:19:88:d4:1e:1f:cd:37:9a:5a:24:43:d5:bd:e3:
                    a5:4c:77:13:30:56:66:65:06:bf:8c:f7:55:d7:bf:
                    20:de:b6:2e:f4:16:af:50:90:b8:f1:63:0b:6b:77:
                    40:41:ca:99:a4:b4:3d:c3:22:0a:b0:6f:db:66:06:
                    f9:6e:63:c3:95:2a:3b:18:6f:5d:bd:67:78:37:58:
                    1b:bb:0b:82:20:ef:b0:3f:22:5d:f7:aa:aa:fa:b7:
                    02:50:42:ca:ca:f3:61:4d:e5:58:63:3a:3c:6f:28:
                    ee:f0:f5:4c:d0:0c:04:46:d7:5e:b2:7b:f2:af:ba:
                    9b:96:e7:f1:99:b4:f6:a5:1a:93:55:70:3c:84:a6:
                    55:7e:07:eb:89:a9:1b:e6:f1:82:97:32:db:8c:dc:
                    32:6f:fa:ce:71:10:7e:e9:17:88:fd:9a:72:05:aa:
                    ab:ab
                Exponent: 65537 (0x10001)
        X509v3 extensions:
            X509v3 Basic Constraints: 
                CA:FALSE
            X509v3 Subject Key Identifier: 
                44:19:0B:2A:57:92:6B:8B:83:85:A0:09:E7:68:EA:7C:4C:08:00:09
            X509v3 Authority Key Identifier: 
                keyid:14:02:FA:DD:BC:0E:82:11:A9:9A:B6:6F:1A:92:7C:FF:91:55:E1:5A
                DirName:/CN=team151-net
                serial:0C:A1:12:A9:B6:FE:E3:DE:0A:80:4C:F9:2E:D8:17:80:6D:0B:35:51

            X509v3 Extended Key Usage: 
                TLS Web Server Authentication
            X509v3 Key Usage: 
                Digital Signature, Key Encipherment
            X509v3 Subject Alternative Name: 
                DNS:team151-server
    Signature Algorithm: sha256WithRSAEncryption
         86:72:29:21:86:bb:0b:ef:49:d0:31:9e:4b:2e:59:99:ae:88:
         af:0f:78:03:57:7f:d5:c9:54:7a:8d:f6:47:9a:a4:ee:a5:ea:
         7a:90:11:fd:f5:44:d5:c5:e2:d3:81:8f:16:99:53:54:22:19:
         9b:0a:5a:b3:d4:b9:35:79:23:ba:ea:c9:7d:6a:a0:67:ba:05:
         d4:b1:c8:34:32:04:c5:f3:af:11:67:e0:b3:5f:c8:0e:8e:cc:
         8f:d6:7f:23:7e:50:27:d7:38:9c:94:2d:48:dc:85:2f:49:a3:
         12:88:4b:46:d6:d3:da:f4:64:4c:26:8b:c1:a3:f6:d0:7e:3d:
         0c:75:de:48:cc:84:a0:3e:3a:17:60:8d:c2:04:38:29:fb:98:
         36:7f:a3:17:a3:7c:a2:a0:23:92:9a:ec:94:66:da:da:67:b8:
         c1:1e:6f:ba:5d:c7:f7:e9:0f:6d:aa:72:aa:07:86:ad:36:ec:
         de:29:4f:bc:86:4c:d7:34:70:71:86:6d:b7:45:2b:71:6a:37:
         cb:c1:ab:71:d8:a4:86:1b:d4:ac:62:8a:5e:6f:58:bb:6d:d0:
         9c:3a:be:fb:d8:b3:ec:e6:46:f6:bd:9e:3b:2b:00:57:7d:86:
         c4:41:3b:ba:5f:d9:d6:3e:41:a5:1f:ad:d0:ee:db:33:3a:4e:
         17:61:f7:8b
-----BEGIN CERTIFICATE-----
MIIDeDCCAmCgAwIBAgIRAOokQmhJqJEzWBxd/FYE39YwDQYJKoZIhvcNAQELBQAw
FjEUMBIGA1UEAwwLdGVhbTE1MS1uZXQwHhcNMjEwOTEzMDAxMDQ4WhcNMjQwODI4
MDAxMDQ4WjAZMRcwFQYDVQQDDA50ZWFtMTUxLXNlcnZlcjCCASIwDQYJKoZIhvcN
AQEBBQADggEPADCCAQoCggEBAMwMiBGW74elycUSbcGXutiCbhfTL60ZmcuIRam9
9uWRgbfOXhES3HP9Y2xpOYoVrUT+5qfyFOxpa6q47HbY3Wxa70YblqLAFnPdNGAk
sgV27KNxei/iSTc0vxmI1B4fzTeaWiRD1b3jpUx3EzBWZmUGv4z3Vde/IN62LvQW
r1CQuPFjC2t3QEHKmaS0PcMiCrBv22YG+W5jw5UqOxhvXb1neDdYG7sLgiDvsD8i
Xfeqqvq3AlBCysrzYU3lWGM6PG8o7vD1TNAMBEbXXrJ78q+6m5bn8Zm09qUak1Vw
PISmVX4H64mpG+bxgpcy24zcMm/6znEQfukXiP2acgWqq6sCAwEAAaOBvTCBujAJ
BgNVHRMEAjAAMB0GA1UdDgQWBBREGQsqV5Jri4OFoAnnaOp8TAgACTBRBgNVHSME
SjBIgBQUAvrdvA6CEamatm8aknz/kVXhWqEapBgwFjEUMBIGA1UEAwwLdGVhbTE1
MS1uZXSCFAyhEqm2/uPeCoBM+S7YF4BtCzVRMBMGA1UdJQQMMAoGCCsGAQUFBwMB
MAsGA1UdDwQEAwIFoDAZBgNVHREEEjAQgg50ZWFtMTUxLXNlcnZlcjANBgkqhkiG
9w0BAQsFAAOCAQEAhnIpIYa7C+9J0DGeSy5Zma6Irw94A1d/1clUeo32R5qk7qXq
epAR/fVE1cXi04GPFplTVCIZmwpas9S5NXkjuurJfWqgZ7oF1LHINDIExfOvEWfg
s1/IDo7Mj9Z/I35QJ9c4nJQtSNyFL0mjEohLRtbT2vRkTCaLwaP20H49DHXeSMyE
oD46F2CNwgQ4KfuYNn+jF6N8oqAjkprslGba2me4wR5vul3H9+kPbapyqgeGrTbs
3ilPvIZM1zRwcYZtt0UrcWo3y8GrcdikhhvUrGKKXm9Yu23QnDq++9iz7OZG9r2e
OysAV32GxEE7ul/Z1j5BpR+t0O7bMzpOF2H3iw==
-----END CERTIFICATE-----
