Certificate:
    Data:
        Version: 3 (0x2)
        Serial Number:
            56:82:f4:d1:64:51:a9:1e:15:33:ba:fa:2b:8b:c7:e8
        Signature Algorithm: sha256WithRSAEncryption
        Issuer: CN=team136-net
        Validity
            Not Before: Sep 12 23:57:21 2021 GMT
            Not After : Aug 27 23:57:21 2024 GMT
        Subject: CN=team136-client
        Subject Public Key Info:
            Public Key Algorithm: rsaEncryption
                RSA Public-Key: (2048 bit)
                Modulus:
                    00:b9:00:3e:ac:3c:82:58:3e:24:e3:20:34:3f:de:
                    ea:bb:ed:a0:ad:ca:57:31:d1:15:fe:28:46:9d:f6:
                    dc:c0:cb:2c:ae:bf:ff:b7:a3:7a:56:43:26:3f:52:
                    14:d9:d8:18:10:5e:9c:41:9f:3a:c4:a8:81:40:e3:
                    1b:e8:70:6a:b9:90:74:ac:87:59:8f:9f:ce:3b:8c:
                    b8:4f:03:b0:8c:9b:9d:72:fd:73:e5:5c:91:68:54:
                    71:13:82:b5:3e:65:62:f1:51:45:06:24:6a:61:cf:
                    94:bd:d9:a8:f8:de:cf:66:2e:22:38:2a:94:24:c0:
                    c6:a1:56:a5:06:88:f6:87:5b:75:61:2e:fb:45:04:
                    59:f1:47:21:44:c6:30:07:2a:b7:b3:ab:9c:8e:f2:
                    3c:7a:e7:c1:1a:84:b8:34:ef:a0:b9:d8:35:a3:9b:
                    71:cf:9f:bd:42:c4:09:1d:9d:2e:e6:6c:cc:99:a6:
                    1f:09:fb:8c:33:43:a1:f6:69:24:33:40:79:10:1d:
                    cd:3d:43:8d:a1:0b:ab:39:8d:a6:f9:63:67:02:01:
                    55:0e:54:12:4f:e6:28:96:ba:a6:54:70:e7:77:75:
                    25:ae:05:fe:7b:65:3e:b5:37:0d:fb:2e:4c:97:d9:
                    3c:d1:58:f9:b8:61:5c:7f:6f:d1:61:7a:b4:b3:d4:
                    63:75
                Exponent: 65537 (0x10001)
        X509v3 extensions:
            X509v3 Basic Constraints: 
                CA:FALSE
            X509v3 Subject Key Identifier: 
                46:C0:76:52:6C:88:79:77:67:D2:19:A5:D6:D9:10:D9:EE:7F:3E:AA
            X509v3 Authority Key Identifier: 
                keyid:BE:76:DF:15:B4:1F:74:5A:EF:33:B3:15:AE:8A:62:85:BF:C8:E0:4D
                DirName:/CN=team136-net
                serial:79:AA:9F:67:F0:42:99:EE:66:30:07:E3:38:B6:D0:C7:E9:81:43:ED

            X509v3 Extended Key Usage: 
                TLS Web Client Authentication
            X509v3 Key Usage: 
                Digital Signature
    Signature Algorithm: sha256WithRSAEncryption
         82:02:90:04:9a:db:6e:cd:5e:7c:25:71:b0:7e:72:e5:0c:e2:
         ce:df:33:22:f7:9b:b0:d5:34:d8:cd:48:21:98:74:c1:a4:c7:
         dc:88:66:46:05:5f:0c:34:63:23:2b:34:02:61:5a:80:19:46:
         ab:09:ea:2a:05:64:e0:08:df:2f:07:4d:80:c0:da:56:15:44:
         93:c4:22:65:b1:62:9b:42:63:24:a4:0f:4e:0d:c4:b5:ea:95:
         da:8f:a5:de:98:68:d2:bc:79:7b:db:6e:36:0f:37:38:66:23:
         8c:78:b1:10:4e:49:98:9e:52:18:12:21:55:ed:50:c8:6f:67:
         24:2f:c6:bd:b1:71:fa:71:84:3b:f7:d6:de:09:65:24:0c:45:
         9c:73:7c:80:1e:0a:ab:d4:4e:93:09:19:e9:b9:10:2c:d0:1c:
         3b:c9:01:32:55:0f:79:35:b6:12:a9:89:96:3a:07:69:fa:f0:
         d3:2d:15:ce:72:a2:63:16:7b:36:42:15:0d:75:04:46:fa:0b:
         25:f5:e6:8f:27:7d:20:c2:4f:6f:45:d7:e9:e0:12:e7:56:84:
         eb:31:06:fd:7a:5e:52:f9:74:6a:11:f7:ef:92:75:b2:75:64:
         49:9d:71:bc:81:4f:31:8c:61:e9:89:b5:73:9a:f7:90:f9:b8:
         58:9f:11:d3
-----BEGIN CERTIFICATE-----
MIIDXDCCAkSgAwIBAgIQVoL00WRRqR4VM7r6K4vH6DANBgkqhkiG9w0BAQsFADAW
MRQwEgYDVQQDDAt0ZWFtMTM2LW5ldDAeFw0yMTA5MTIyMzU3MjFaFw0yNDA4Mjcy
MzU3MjFaMBkxFzAVBgNVBAMMDnRlYW0xMzYtY2xpZW50MIIBIjANBgkqhkiG9w0B
AQEFAAOCAQ8AMIIBCgKCAQEAuQA+rDyCWD4k4yA0P97qu+2grcpXMdEV/ihGnfbc
wMssrr//t6N6VkMmP1IU2dgYEF6cQZ86xKiBQOMb6HBquZB0rIdZj5/OO4y4TwOw
jJudcv1z5VyRaFRxE4K1PmVi8VFFBiRqYc+Uvdmo+N7PZi4iOCqUJMDGoValBoj2
h1t1YS77RQRZ8UchRMYwByq3s6ucjvI8eufBGoS4NO+gudg1o5txz5+9QsQJHZ0u
5mzMmaYfCfuMM0Oh9mkkM0B5EB3NPUONoQurOY2m+WNnAgFVDlQST+YolrqmVHDn
d3UlrgX+e2U+tTcN+y5Ml9k80Vj5uGFcf2/RYXq0s9RjdQIDAQABo4GiMIGfMAkG
A1UdEwQCMAAwHQYDVR0OBBYEFEbAdlJsiHl3Z9IZpdbZENnufz6qMFEGA1UdIwRK
MEiAFL523xW0H3Ra7zOzFa6KYoW/yOBNoRqkGDAWMRQwEgYDVQQDDAt0ZWFtMTM2
LW5ldIIUeaqfZ/BCme5mMAfjOLbQx+mBQ+0wEwYDVR0lBAwwCgYIKwYBBQUHAwIw
CwYDVR0PBAQDAgeAMA0GCSqGSIb3DQEBCwUAA4IBAQCCApAEmttuzV58JXGwfnLl
DOLO3zMi95uw1TTYzUghmHTBpMfciGZGBV8MNGMjKzQCYVqAGUarCeoqBWTgCN8v
B02AwNpWFUSTxCJlsWKbQmMkpA9ODcS16pXaj6XemGjSvHl72242Dzc4ZiOMeLEQ
TkmYnlIYEiFV7VDIb2ckL8a9sXH6cYQ799beCWUkDEWcc3yAHgqr1E6TCRnpuRAs
0Bw7yQEyVQ95NbYSqYmWOgdp+vDTLRXOcqJjFns2QhUNdQRG+gsl9eaPJ30gwk9v
Rdfp4BLnVoTrMQb9el5S+XRqEffvknWydWRJnXG8gU8xjGHpibVzmveQ+bhYnxHT
-----END CERTIFICATE-----
