Certificate:
    Data:
        Version: 3 (0x2)
        Serial Number:
            16:5a:c1:1a:7c:6b:74:6f:60:b0:8f:98:0e:73:e2:74
        Signature Algorithm: sha256WithRSAEncryption
        Issuer: CN=team274-net
        Validity
            Not Before: Sep 13 01:16:09 2021 GMT
            Not After : Aug 28 01:16:09 2024 GMT
        Subject: CN=team274-client
        Subject Public Key Info:
            Public Key Algorithm: rsaEncryption
                RSA Public-Key: (2048 bit)
                Modulus:
                    00:cd:fd:97:23:40:2a:e5:02:7c:60:1c:4e:3b:81:
                    e0:10:af:80:c0:07:14:f8:6b:85:06:11:da:34:fe:
                    36:40:51:7e:b8:11:bd:e7:94:5f:05:30:de:43:4d:
                    bf:90:06:6b:66:5a:49:7d:a0:d0:38:d1:5f:71:06:
                    4f:59:3c:35:b9:4e:14:5d:36:69:9c:a6:1c:3b:33:
                    10:f3:cc:19:6f:80:e3:67:81:00:ad:22:ad:93:3e:
                    c6:b5:e9:96:2f:20:cf:de:0f:68:1c:23:ef:fe:8d:
                    e9:9c:7a:7d:4f:e7:a9:86:de:be:77:5e:66:75:90:
                    5e:b9:ad:4f:c2:f6:1c:d2:80:a3:92:21:f8:01:14:
                    eb:e0:d1:8b:5b:ba:a5:39:35:5d:4a:07:3c:2e:6d:
                    1c:78:8d:81:f9:29:f2:b5:8a:23:32:7e:9d:1f:d2:
                    c7:e1:83:ae:ea:27:0e:83:ce:f8:1d:ca:30:2a:95:
                    fc:9d:58:e8:d6:0c:55:93:84:50:ee:b4:3d:48:73:
                    e1:ff:8d:36:96:06:0f:30:de:24:96:65:fe:47:a2:
                    86:6b:fa:8e:97:2f:4b:a4:f2:e0:49:d9:8e:ad:d0:
                    02:eb:ac:1d:dd:a9:bc:45:9c:4c:70:cb:46:0c:86:
                    08:f8:83:c4:8c:54:58:e3:ed:7d:23:dd:0d:ba:90:
                    66:49
                Exponent: 65537 (0x10001)
        X509v3 extensions:
            X509v3 Basic Constraints: 
                CA:FALSE
            X509v3 Subject Key Identifier: 
                F7:03:C7:8B:4B:89:CD:11:24:08:4B:24:33:EB:A3:89:CE:35:06:D4
            X509v3 Authority Key Identifier: 
                keyid:BE:D2:89:EA:A1:6F:FB:2B:B8:66:8A:3B:2B:82:2C:89:E5:C6:AA:EE
                DirName:/CN=team274-net
                serial:5F:82:E0:46:F2:19:56:D0:BB:D7:CC:47:54:31:30:5A:90:15:1A:8B

            X509v3 Extended Key Usage: 
                TLS Web Client Authentication
            X509v3 Key Usage: 
                Digital Signature
    Signature Algorithm: sha256WithRSAEncryption
         53:3b:eb:a3:a6:a7:68:ef:c8:92:6c:fc:d7:87:0f:08:5c:90:
         96:fd:0d:07:a8:7c:60:19:3b:dd:c8:69:90:0b:5a:9c:14:78:
         4c:7b:68:fc:d5:44:2b:9f:56:c6:f5:85:53:ba:c6:84:b3:1e:
         85:bc:02:e9:32:46:d9:22:e8:8b:d3:14:48:cd:66:2c:24:ab:
         8c:2a:f9:d1:30:1c:bd:b7:81:04:60:97:09:4a:be:05:4c:24:
         54:18:83:fc:31:66:4f:cb:e5:cf:34:ab:90:d1:27:f7:7d:3c:
         20:13:e4:10:a8:49:13:5f:8c:59:0e:d4:b4:2a:62:20:62:c1:
         31:0f:0b:bd:3a:0d:57:13:86:7e:e3:d5:cd:07:ca:19:10:9f:
         6d:93:77:53:9c:a1:cc:69:c3:01:62:e9:d3:ed:27:fe:e8:c3:
         66:f0:49:37:77:c0:35:71:24:3e:b5:ef:41:2e:2b:85:80:27:
         06:7c:11:88:95:34:b8:7e:e6:0e:d6:d0:f9:b4:a5:05:f9:07:
         07:cc:f8:33:94:2a:b0:b2:04:27:bd:32:90:4b:9f:ec:3e:ba:
         b0:b8:b7:4b:c1:95:ee:45:5a:e5:7b:e1:83:ee:b5:da:5a:ec:
         f5:db:23:8f:c2:3e:11:fd:a7:39:08:5f:f4:1f:56:78:06:2a:
         f7:50:2f:8d
-----BEGIN CERTIFICATE-----
MIIDXDCCAkSgAwIBAgIQFlrBGnxrdG9gsI+YDnPidDANBgkqhkiG9w0BAQsFADAW
MRQwEgYDVQQDDAt0ZWFtMjc0LW5ldDAeFw0yMTA5MTMwMTE2MDlaFw0yNDA4Mjgw
MTE2MDlaMBkxFzAVBgNVBAMMDnRlYW0yNzQtY2xpZW50MIIBIjANBgkqhkiG9w0B
AQEFAAOCAQ8AMIIBCgKCAQEAzf2XI0Aq5QJ8YBxOO4HgEK+AwAcU+GuFBhHaNP42
QFF+uBG955RfBTDeQ02/kAZrZlpJfaDQONFfcQZPWTw1uU4UXTZpnKYcOzMQ88wZ
b4DjZ4EArSKtkz7GtemWLyDP3g9oHCPv/o3pnHp9T+epht6+d15mdZBeua1PwvYc
0oCjkiH4ARTr4NGLW7qlOTVdSgc8Lm0ceI2B+SnytYojMn6dH9LH4YOu6icOg874
HcowKpX8nVjo1gxVk4RQ7rQ9SHPh/402lgYPMN4klmX+R6KGa/qOly9LpPLgSdmO
rdAC66wd3am8RZxMcMtGDIYI+IPEjFRY4+19I90NupBmSQIDAQABo4GiMIGfMAkG
A1UdEwQCMAAwHQYDVR0OBBYEFPcDx4tLic0RJAhLJDPro4nONQbUMFEGA1UdIwRK
MEiAFL7Sieqhb/sruGaKOyuCLInlxqruoRqkGDAWMRQwEgYDVQQDDAt0ZWFtMjc0
LW5ldIIUX4LgRvIZVtC718xHVDEwWpAVGoswEwYDVR0lBAwwCgYIKwYBBQUHAwIw
CwYDVR0PBAQDAgeAMA0GCSqGSIb3DQEBCwUAA4IBAQBTO+ujpqdo78iSbPzXhw8I
XJCW/Q0HqHxgGTvdyGmQC1qcFHhMe2j81UQrn1bG9YVTusaEsx6FvALpMkbZIuiL
0xRIzWYsJKuMKvnRMBy9t4EEYJcJSr4FTCRUGIP8MWZPy+XPNKuQ0Sf3fTwgE+QQ
qEkTX4xZDtS0KmIgYsExDwu9Og1XE4Z+49XNB8oZEJ9tk3dTnKHMacMBYunT7Sf+
6MNm8Ek3d8A1cSQ+te9BLiuFgCcGfBGIlTS4fuYO1tD5tKUF+QcHzPgzlCqwsgQn
vTKQS5/sPrqwuLdLwZXuRVrle+GD7rXaWuz12yOPwj4R/ac5CF/0H1Z4Bir3UC+N
-----END CERTIFICATE-----
