Certificate:
    Data:
        Version: 3 (0x2)
        Serial Number:
            9f:a1:b4:3f:2f:21:ca:57:c6:e2:96:ba:09:d6:9b:7d
        Signature Algorithm: sha256WithRSAEncryption
        Issuer: CN=team30-net
        Validity
            Not Before: Sep 12 22:58:29 2021 GMT
            Not After : Aug 27 22:58:29 2024 GMT
        Subject: CN=team30-server
        Subject Public Key Info:
            Public Key Algorithm: rsaEncryption
                RSA Public-Key: (2048 bit)
                Modulus:
                    00:99:39:82:a3:4f:6d:0f:50:8a:77:6d:44:9b:64:
                    67:b1:dd:a8:aa:ca:10:db:48:d3:47:15:9c:d6:0a:
                    2a:77:17:44:eb:fa:e3:d0:c6:91:0d:95:b3:21:65:
                    43:17:67:0d:c2:d4:c2:ab:34:8d:0c:ee:19:6b:aa:
                    3d:dc:2d:ec:db:82:ce:e6:61:ac:e0:94:49:a2:46:
                    00:10:99:f9:fa:59:7b:54:5f:55:33:d0:a9:19:63:
                    c6:31:22:ca:b7:27:ce:4d:2d:11:93:89:46:94:71:
                    93:71:5a:24:a9:e7:23:1b:2e:6a:06:bc:50:cc:17:
                    07:c8:d5:87:a7:7c:d0:85:ab:54:0b:eb:b2:be:56:
                    32:f1:5d:f9:dd:1d:86:36:67:08:95:94:e2:91:97:
                    90:60:e1:01:6a:ac:06:47:e1:46:40:0c:2c:1c:1a:
                    d9:0c:f7:7e:59:a5:a6:e6:b2:22:26:6e:3d:97:00:
                    22:06:28:9f:9f:c6:d6:3f:3a:c7:b3:b2:27:2b:ae:
                    98:d4:11:5e:c7:6f:b6:8c:a3:0e:2c:3b:cb:12:00:
                    dd:00:75:17:1a:9c:f7:d4:5b:92:5d:00:56:dd:b5:
                    02:31:2c:d5:84:f4:50:17:d6:f0:4e:91:50:fa:e6:
                    05:15:6b:2e:95:df:c0:cf:c1:41:7f:01:7c:f7:71:
                    c0:8b
                Exponent: 65537 (0x10001)
        X509v3 extensions:
            X509v3 Basic Constraints: 
                CA:FALSE
            X509v3 Subject Key Identifier: 
                A6:78:E6:BC:26:88:7D:62:6A:F6:27:3C:29:8F:4F:D2:54:B9:D7:06
            X509v3 Authority Key Identifier: 
                keyid:1D:8D:FA:38:AD:CB:39:54:0B:70:FA:32:DA:99:36:6C:5F:F3:1B:5C
                DirName:/CN=team30-net
                serial:2D:BF:75:F9:D9:05:01:0E:A3:02:47:5B:A6:DF:D7:5C:01:04:5A:FD

            X509v3 Extended Key Usage: 
                TLS Web Server Authentication
            X509v3 Key Usage: 
                Digital Signature, Key Encipherment
            X509v3 Subject Alternative Name: 
                DNS:team30-server
    Signature Algorithm: sha256WithRSAEncryption
         00:d6:7d:13:d1:40:bb:7a:70:7f:2d:0f:bc:8f:e5:a5:13:a2:
         52:9a:bd:5a:75:76:fa:44:47:5d:ee:a6:b0:04:46:61:7c:00:
         5d:85:91:01:0b:5f:d2:95:4a:df:84:fa:6d:e8:43:90:0f:0d:
         51:aa:db:b4:95:aa:c2:fe:e5:71:a7:93:64:38:22:b0:4f:6b:
         07:23:d5:0c:87:85:0c:43:c5:4b:66:5b:a5:c3:d8:85:15:c8:
         ad:d5:cd:6b:de:9e:a2:07:95:30:3c:4c:8f:b8:0d:d2:5d:0d:
         3b:2b:e6:df:b4:85:80:b8:60:9d:6c:8e:0e:79:7e:5e:f8:8a:
         dd:27:c8:03:2d:ca:b4:77:0d:b5:65:33:8b:94:02:20:5a:22:
         79:f1:c2:73:6c:f0:b8:9a:c0:63:87:ff:c4:f7:76:8b:e0:f6:
         f2:fc:c9:33:46:46:76:4d:33:ab:e7:b4:db:63:f3:e0:6e:50:
         07:31:7f:cc:58:65:66:70:89:ba:4f:e2:8f:e4:81:8a:55:db:
         94:55:0f:ed:0b:10:95:8c:ba:d0:be:35:d0:7b:d8:5c:93:63:
         9c:5e:17:b2:2d:65:3b:71:c0:08:3b:65:67:ca:79:35:41:0a:
         68:53:21:ac:bd:d1:7d:d8:2c:ff:26:dd:63:5a:33:be:ce:dc:
         91:9a:d7:3a
-----BEGIN CERTIFICATE-----
MIIDdDCCAlygAwIBAgIRAJ+htD8vIcpXxuKWugnWm30wDQYJKoZIhvcNAQELBQAw
FTETMBEGA1UEAwwKdGVhbTMwLW5ldDAeFw0yMTA5MTIyMjU4MjlaFw0yNDA4Mjcy
MjU4MjlaMBgxFjAUBgNVBAMMDXRlYW0zMC1zZXJ2ZXIwggEiMA0GCSqGSIb3DQEB
AQUAA4IBDwAwggEKAoIBAQCZOYKjT20PUIp3bUSbZGex3aiqyhDbSNNHFZzWCip3
F0Tr+uPQxpENlbMhZUMXZw3C1MKrNI0M7hlrqj3cLezbgs7mYazglEmiRgAQmfn6
WXtUX1Uz0KkZY8YxIsq3J85NLRGTiUaUcZNxWiSp5yMbLmoGvFDMFwfI1YenfNCF
q1QL67K+VjLxXfndHYY2ZwiVlOKRl5Bg4QFqrAZH4UZADCwcGtkM935ZpabmsiIm
bj2XACIGKJ+fxtY/OsezsicrrpjUEV7Hb7aMow4sO8sSAN0AdRcanPfUW5JdAFbd
tQIxLNWE9FAX1vBOkVD65gUVay6V38DPwUF/AXz3ccCLAgMBAAGjgbswgbgwCQYD
VR0TBAIwADAdBgNVHQ4EFgQUpnjmvCaIfWJq9ic8KY9P0lS51wYwUAYDVR0jBEkw
R4AUHY36OK3LOVQLcPoy2pk2bF/zG1yhGaQXMBUxEzARBgNVBAMMCnRlYW0zMC1u
ZXSCFC2/dfnZBQEOowJHW6bf11wBBFr9MBMGA1UdJQQMMAoGCCsGAQUFBwMBMAsG
A1UdDwQEAwIFoDAYBgNVHREEETAPgg10ZWFtMzAtc2VydmVyMA0GCSqGSIb3DQEB
CwUAA4IBAQAA1n0T0UC7enB/LQ+8j+WlE6JSmr1adXb6REdd7qawBEZhfABdhZEB
C1/SlUrfhPpt6EOQDw1Rqtu0larC/uVxp5NkOCKwT2sHI9UMh4UMQ8VLZlulw9iF
Fcit1c1r3p6iB5UwPEyPuA3SXQ07K+bftIWAuGCdbI4OeX5e+IrdJ8gDLcq0dw21
ZTOLlAIgWiJ58cJzbPC4msBjh//E93aL4Pby/MkzRkZ2TTOr57TbY/PgblAHMX/M
WGVmcIm6T+KP5IGKVduUVQ/tCxCVjLrQvjXQe9hck2OcXheyLWU7ccAIO2Vnynk1
QQpoUyGsvdF92Cz/Jt1jWjO+ztyRmtc6
-----END CERTIFICATE-----
