Certificate:
    Data:
        Version: 3 (0x2)
        Serial Number:
            e7:bb:57:d9:e7:c9:99:34:b6:22:e7:77:15:27:46:b0
        Signature Algorithm: sha256WithRSAEncryption
        Issuer: CN=team502-net
        Validity
            Not Before: Sep 13 03:09:19 2021 GMT
            Not After : Aug 28 03:09:19 2024 GMT
        Subject: CN=team502-server
        Subject Public Key Info:
            Public Key Algorithm: rsaEncryption
                RSA Public-Key: (2048 bit)
                Modulus:
                    00:d0:4d:3b:d2:3c:98:6d:8b:47:ba:28:62:7c:1f:
                    55:0f:ac:57:72:1c:ea:88:36:c7:d9:ca:f8:eb:27:
                    51:20:b2:77:65:ae:85:bf:b4:1b:9e:5e:32:d1:b2:
                    f5:ff:7e:b5:a0:66:cd:da:2e:8d:39:3e:52:e7:d1:
                    44:64:d6:fd:c1:91:3e:6e:01:e9:03:53:ac:24:51:
                    ad:9b:45:6d:9c:e8:15:8d:da:b1:cb:35:5a:a5:f6:
                    e2:1b:d4:96:04:bf:6e:2f:9a:50:e3:9d:6d:f6:5e:
                    ec:e2:c0:42:32:bd:0e:e3:eb:98:7c:5d:89:19:7f:
                    b9:4b:d6:c6:5a:8c:75:19:9a:ae:e2:6f:5e:50:a3:
                    ff:85:0f:c9:02:de:2c:16:de:04:c2:60:01:99:8e:
                    61:1b:48:18:36:26:af:56:a6:72:1f:a4:f7:fa:e1:
                    67:6d:31:17:6a:2a:5d:56:31:f5:7d:49:01:5e:cc:
                    9d:1d:28:98:e0:44:f3:9d:3d:8f:1f:41:2f:01:10:
                    da:83:1d:c2:03:dd:07:8e:ca:bb:7a:dd:ac:ee:c2:
                    0b:40:c7:c3:55:79:c9:99:5f:c8:4a:8e:b1:d3:c1:
                    02:dc:e9:88:ac:93:21:ad:ce:7f:23:cb:ce:84:8d:
                    41:4b:46:1a:43:b9:57:ac:1e:97:52:e7:92:a9:92:
                    ef:a7
                Exponent: 65537 (0x10001)
        X509v3 extensions:
            X509v3 Basic Constraints: 
                CA:FALSE
            X509v3 Subject Key Identifier: 
                5A:BB:8D:7D:5A:DB:25:B1:E9:64:7A:DB:08:C9:7B:09:65:05:98:E4
            X509v3 Authority Key Identifier: 
                keyid:3E:C5:29:36:7A:C1:9D:92:C0:92:87:31:2D:57:C7:09:09:B1:8C:EA
                DirName:/CN=team502-net
                serial:7C:09:8D:3D:8D:BD:A3:68:3D:95:21:D7:6E:F9:60:99:99:F4:04:AB

            X509v3 Extended Key Usage: 
                TLS Web Server Authentication
            X509v3 Key Usage: 
                Digital Signature, Key Encipherment
            X509v3 Subject Alternative Name: 
                DNS:team502-server
    Signature Algorithm: sha256WithRSAEncryption
         5d:f5:6d:d1:77:03:c6:dc:6f:6f:27:1b:e6:87:1f:b1:15:91:
         c9:43:91:27:fb:db:e1:41:a6:9f:b9:b6:a2:16:0b:c2:a3:f4:
         9b:1b:98:66:6b:a3:0a:af:0d:d4:13:fb:38:5d:d7:6e:f6:fa:
         fc:4e:06:cc:d5:e2:74:47:03:57:08:f5:06:f3:b9:24:a2:64:
         20:a5:14:5e:db:32:2a:d7:88:b2:ee:2b:04:e3:2d:10:39:27:
         5f:2e:ed:54:a1:2c:4c:49:f1:0e:30:75:16:32:17:b3:16:7d:
         1c:bf:04:20:41:b7:55:56:e6:c9:f7:bd:8b:84:99:41:83:8e:
         5b:d3:d7:e4:ef:05:77:a6:ff:d8:bd:89:67:0b:4d:ce:72:9e:
         99:9f:d9:ab:1a:1c:47:a4:61:c0:11:8d:38:d7:54:57:5f:de:
         88:2e:ee:4d:67:65:3d:b4:64:1c:f0:40:a6:24:05:44:ae:e1:
         7c:31:2f:30:a7:94:b6:58:03:6a:3d:de:f8:f6:6f:b1:d7:ee:
         96:25:65:a0:ed:77:0a:c5:2b:1b:b8:06:9d:fa:65:e1:f9:49:
         67:be:a6:05:a7:ff:34:ff:81:7d:d0:6f:49:ef:7a:de:8d:0a:
         a1:46:c4:c7:ad:e2:d4:8b:77:74:0b:ac:8f:7c:2d:fe:62:55:
         11:99:99:62
-----BEGIN CERTIFICATE-----
MIIDeDCCAmCgAwIBAgIRAOe7V9nnyZk0tiLndxUnRrAwDQYJKoZIhvcNAQELBQAw
FjEUMBIGA1UEAwwLdGVhbTUwMi1uZXQwHhcNMjEwOTEzMDMwOTE5WhcNMjQwODI4
MDMwOTE5WjAZMRcwFQYDVQQDDA50ZWFtNTAyLXNlcnZlcjCCASIwDQYJKoZIhvcN
AQEBBQADggEPADCCAQoCggEBANBNO9I8mG2LR7ooYnwfVQ+sV3Ic6og2x9nK+Osn
USCyd2Wuhb+0G55eMtGy9f9+taBmzdoujTk+UufRRGTW/cGRPm4B6QNTrCRRrZtF
bZzoFY3ascs1WqX24hvUlgS/bi+aUOOdbfZe7OLAQjK9DuPrmHxdiRl/uUvWxlqM
dRmaruJvXlCj/4UPyQLeLBbeBMJgAZmOYRtIGDYmr1amch+k9/rhZ20xF2oqXVYx
9X1JAV7MnR0omOBE8509jx9BLwEQ2oMdwgPdB47Ku3rdrO7CC0DHw1V5yZlfyEqO
sdPBAtzpiKyTIa3OfyPLzoSNQUtGGkO5V6wel1LnkqmS76cCAwEAAaOBvTCBujAJ
BgNVHRMEAjAAMB0GA1UdDgQWBBRau419WtslselketsIyXsJZQWY5DBRBgNVHSME
SjBIgBQ+xSk2esGdksCShzEtV8cJCbGM6qEapBgwFjEUMBIGA1UEAwwLdGVhbTUw
Mi1uZXSCFHwJjT2NvaNoPZUh1275YJmZ9ASrMBMGA1UdJQQMMAoGCCsGAQUFBwMB
MAsGA1UdDwQEAwIFoDAZBgNVHREEEjAQgg50ZWFtNTAyLXNlcnZlcjANBgkqhkiG
9w0BAQsFAAOCAQEAXfVt0XcDxtxvbycb5ocfsRWRyUORJ/vb4UGmn7m2ohYLwqP0
mxuYZmujCq8N1BP7OF3Xbvb6/E4GzNXidEcDVwj1BvO5JKJkIKUUXtsyKteIsu4r
BOMtEDknXy7tVKEsTEnxDjB1FjIXsxZ9HL8EIEG3VVbmyfe9i4SZQYOOW9PX5O8F
d6b/2L2JZwtNznKemZ/ZqxocR6RhwBGNONdUV1/eiC7uTWdlPbRkHPBApiQFRK7h
fDEvMKeUtlgDaj3e+PZvsdfuliVloO13CsUrG7gGnfpl4flJZ76mBaf/NP+BfdBv
Se963o0KoUbEx63i1It3dAusj3wt/mJVEZmZYg==
-----END CERTIFICATE-----
