Certificate:
    Data:
        Version: 3 (0x2)
        Serial Number:
            05:4a:22:4a:b3:65:45:5b:76:e1:ad:d5:46:9e:f4:e6
        Signature Algorithm: sha256WithRSAEncryption
        Issuer: CN=team298-net
        Validity
            Not Before: Sep 13 01:25:00 2021 GMT
            Not After : Aug 28 01:25:00 2024 GMT
        Subject: CN=team298-client
        Subject Public Key Info:
            Public Key Algorithm: rsaEncryption
                RSA Public-Key: (2048 bit)
                Modulus:
                    00:de:a9:0c:fe:3b:5a:8c:2f:8d:e6:d0:f5:5a:59:
                    84:ed:d0:ae:c6:90:38:53:b5:06:92:0a:8d:9b:dc:
                    1f:e0:6b:4f:ec:03:9f:fc:65:c7:c2:b4:5d:39:ed:
                    f4:aa:08:6d:22:36:e3:ce:c5:bf:f7:21:51:05:60:
                    b2:97:1b:05:6c:15:e0:eb:43:a6:99:ae:1d:82:80:
                    77:ea:45:19:75:01:57:9a:60:e1:35:94:ad:70:2c:
                    0b:7e:bd:05:34:92:91:c7:d1:9f:be:6b:8d:b6:ef:
                    13:24:6f:4d:be:1f:86:6a:cf:e2:cd:a5:90:a0:f5:
                    5c:a0:0f:b8:7b:ff:b3:5e:dd:d8:aa:a0:50:78:0e:
                    72:2f:b6:a4:00:ff:08:ad:bf:bc:de:25:2e:6a:75:
                    87:56:e5:7d:f5:2a:fc:df:65:63:3c:63:07:33:0d:
                    51:b4:0e:ba:cf:7c:fe:70:d7:1b:2f:db:e0:5c:70:
                    21:a1:80:77:44:18:86:6a:a5:b5:de:81:eb:7e:c8:
                    8a:e5:e3:a7:55:c4:50:3e:0f:05:93:e0:2c:4f:46:
                    fa:c1:9e:de:54:a1:e0:0f:1d:47:bf:49:3d:04:53:
                    7e:0e:6b:37:b9:f5:bf:6f:43:68:05:51:e2:4e:50:
                    4d:4c:51:26:d0:8b:84:20:b0:88:2b:2e:04:41:db:
                    d3:a7
                Exponent: 65537 (0x10001)
        X509v3 extensions:
            X509v3 Basic Constraints: 
                CA:FALSE
            X509v3 Subject Key Identifier: 
                9B:9B:DD:8F:43:26:98:F5:1D:4D:ED:70:8E:A6:94:32:DB:63:58:47
            X509v3 Authority Key Identifier: 
                keyid:7C:86:95:B8:39:1E:ED:B2:FA:88:87:76:FA:A6:9B:54:22:50:11:5A
                DirName:/CN=team298-net
                serial:33:2D:1C:D4:97:B5:28:BC:29:72:2C:24:E0:10:CD:11:13:25:8A:20

            X509v3 Extended Key Usage: 
                TLS Web Client Authentication
            X509v3 Key Usage: 
                Digital Signature
    Signature Algorithm: sha256WithRSAEncryption
         b9:cd:ae:7d:9f:a7:10:08:c5:5c:e5:b9:e5:11:1e:31:00:98:
         51:c4:80:64:90:7e:8b:31:17:c2:10:6f:fe:a5:b5:64:1c:8b:
         b7:84:3b:dd:d1:b8:54:e8:8c:a2:3d:ec:84:b0:8d:27:cb:a6:
         1e:54:07:10:96:8d:7e:10:1b:70:d5:ab:5e:c4:ef:18:62:ee:
         97:f4:8f:1b:a6:7f:fb:d6:90:ce:79:46:a8:8d:3f:07:e3:83:
         ec:0e:2c:15:91:27:3f:34:4a:e3:6a:bd:33:ab:47:6d:6d:0f:
         77:27:aa:8a:53:4b:01:6f:a5:60:e8:6e:23:99:69:6c:fb:79:
         01:f5:d9:6d:f0:f6:82:c6:ba:bb:58:14:0c:53:c3:df:7f:fd:
         19:06:f2:db:04:16:95:94:51:fd:c0:9e:f7:98:86:d6:28:5d:
         7d:61:e2:f5:47:59:b3:3e:4e:28:3c:29:bc:42:2f:4a:f0:d7:
         16:5e:4d:02:bf:4c:28:b1:a8:8c:c5:ce:bb:93:50:01:78:ee:
         51:8a:3d:90:12:15:1a:23:96:4a:8e:34:7f:08:c3:24:43:ef:
         6f:89:ed:3a:1b:04:16:09:65:3a:f4:ba:8b:64:d8:54:d4:a5:
         d3:6f:44:25:da:eb:4b:40:38:27:32:89:08:fd:de:ca:f2:ca:
         be:f4:e3:08
-----BEGIN CERTIFICATE-----
MIIDXDCCAkSgAwIBAgIQBUoiSrNlRVt24a3VRp705jANBgkqhkiG9w0BAQsFADAW
MRQwEgYDVQQDDAt0ZWFtMjk4LW5ldDAeFw0yMTA5MTMwMTI1MDBaFw0yNDA4Mjgw
MTI1MDBaMBkxFzAVBgNVBAMMDnRlYW0yOTgtY2xpZW50MIIBIjANBgkqhkiG9w0B
AQEFAAOCAQ8AMIIBCgKCAQEA3qkM/jtajC+N5tD1WlmE7dCuxpA4U7UGkgqNm9wf
4GtP7AOf/GXHwrRdOe30qghtIjbjzsW/9yFRBWCylxsFbBXg60Omma4dgoB36kUZ
dQFXmmDhNZStcCwLfr0FNJKRx9GfvmuNtu8TJG9Nvh+Gas/izaWQoPVcoA+4e/+z
Xt3YqqBQeA5yL7akAP8Irb+83iUuanWHVuV99Sr832VjPGMHMw1RtA66z3z+cNcb
L9vgXHAhoYB3RBiGaqW13oHrfsiK5eOnVcRQPg8Fk+AsT0b6wZ7eVKHgDx1Hv0k9
BFN+Dms3ufW/b0NoBVHiTlBNTFEm0IuEILCIKy4EQdvTpwIDAQABo4GiMIGfMAkG
A1UdEwQCMAAwHQYDVR0OBBYEFJub3Y9DJpj1HU3tcI6mlDLbY1hHMFEGA1UdIwRK
MEiAFHyGlbg5Hu2y+oiHdvqmm1QiUBFaoRqkGDAWMRQwEgYDVQQDDAt0ZWFtMjk4
LW5ldIIUMy0c1Je1KLwpciwk4BDNERMliiAwEwYDVR0lBAwwCgYIKwYBBQUHAwIw
CwYDVR0PBAQDAgeAMA0GCSqGSIb3DQEBCwUAA4IBAQC5za59n6cQCMVc5bnlER4x
AJhRxIBkkH6LMRfCEG/+pbVkHIu3hDvd0bhU6IyiPeyEsI0ny6YeVAcQlo1+EBtw
1atexO8YYu6X9I8bpn/71pDOeUaojT8H44PsDiwVkSc/NErjar0zq0dtbQ93J6qK
U0sBb6Vg6G4jmWls+3kB9dlt8PaCxrq7WBQMU8Pff/0ZBvLbBBaVlFH9wJ73mIbW
KF19YeL1R1mzPk4oPCm8Qi9K8NcWXk0Cv0wosaiMxc67k1ABeO5Rij2QEhUaI5ZK
jjR/CMMkQ+9vie06GwQWCWU69LqLZNhU1KXTb0Ql2utLQDgnMokI/d7K8sq+9OMI
-----END CERTIFICATE-----
