Certificate:
    Data:
        Version: 3 (0x2)
        Serial Number:
            ba:9c:ec:47:05:34:1a:64:23:84:2d:5a:37:a7:00:f7
        Signature Algorithm: sha256WithRSAEncryption
        Issuer: CN=team43-net
        Validity
            Not Before: Sep 12 23:06:18 2021 GMT
            Not After : Aug 27 23:06:18 2024 GMT
        Subject: CN=team43-server
        Subject Public Key Info:
            Public Key Algorithm: rsaEncryption
                RSA Public-Key: (2048 bit)
                Modulus:
                    00:ba:be:7e:9c:e5:da:3c:d6:9c:0e:a9:c6:5b:fe:
                    68:13:a6:42:2f:45:10:1c:3f:c6:d3:63:19:c0:aa:
                    3c:86:74:11:41:be:42:04:f7:a2:6b:20:6b:82:8c:
                    71:64:22:3c:47:0f:2e:b2:59:82:33:52:8f:dd:6b:
                    cf:60:ba:04:88:21:eb:4c:4e:e4:89:57:66:a3:c7:
                    59:f1:d9:d2:ba:cb:3c:b4:5d:46:79:04:5d:93:c4:
                    eb:17:27:0f:b4:74:d9:ba:85:4c:e8:97:12:b9:38:
                    c9:9f:e7:89:d5:18:b9:06:59:49:0a:8c:94:f1:3b:
                    fd:8d:18:66:a1:6a:50:f8:f6:5d:23:ba:ea:ba:9a:
                    6a:8e:1f:4a:a2:a3:f0:ea:8a:3c:b7:ad:a3:5b:ea:
                    b3:45:43:9a:a6:ac:d5:25:12:be:08:31:99:e0:51:
                    09:b9:85:a7:ea:f1:e7:1e:bf:db:cc:f3:09:ab:d0:
                    9f:68:20:11:e5:02:2a:0d:e3:8a:d1:ba:3c:5d:e6:
                    0b:13:f0:87:bd:a2:4b:be:bb:e4:55:23:d6:05:ca:
                    98:6e:62:d7:fc:90:4a:97:96:91:46:bd:e5:06:ea:
                    88:57:6a:8f:a9:05:7e:ed:75:53:39:f3:15:ad:35:
                    11:78:5c:3a:eb:7e:a9:30:30:43:e2:46:b0:6b:ab:
                    bf:ef
                Exponent: 65537 (0x10001)
        X509v3 extensions:
            X509v3 Basic Constraints: 
                CA:FALSE
            X509v3 Subject Key Identifier: 
                DD:5F:F1:4B:A3:75:83:24:5B:41:2E:2D:14:DF:9B:1B:88:A4:59:DE
            X509v3 Authority Key Identifier: 
                keyid:91:E9:0D:89:35:2B:A9:E7:8C:E8:22:3E:1A:D3:31:C8:70:6E:1E:42
                DirName:/CN=team43-net
                serial:4A:5D:E1:D7:E5:6B:C4:76:CE:4E:E5:59:72:2E:D7:74:0A:CB:08:C9

            X509v3 Extended Key Usage: 
                TLS Web Server Authentication
            X509v3 Key Usage: 
                Digital Signature, Key Encipherment
            X509v3 Subject Alternative Name: 
                DNS:team43-server
    Signature Algorithm: sha256WithRSAEncryption
         69:e0:c5:98:bf:fd:11:07:a6:a7:12:3c:9f:db:74:63:c5:dd:
         e1:67:80:fe:70:11:32:0a:31:6b:e2:9d:bf:0a:2a:64:3c:53:
         e2:4b:40:05:37:43:ba:f6:38:94:b6:eb:b7:fd:2e:bf:dc:cf:
         f7:4b:48:81:9e:2d:e8:6c:64:78:1c:2b:7b:6d:85:7d:b7:d8:
         11:6e:36:a8:77:0e:69:cc:9b:96:3e:4e:4e:f2:fc:ed:9b:5c:
         8e:62:c3:a9:52:8a:8b:ad:d5:ba:e7:65:0a:e6:4e:7c:69:90:
         88:c2:96:4a:2a:04:dd:f6:02:96:49:b0:ec:80:f9:51:6e:1a:
         07:dc:c6:c8:46:d5:a3:20:c8:5f:98:ec:55:c1:0b:e7:5a:05:
         b3:10:28:6d:2a:44:90:34:b0:05:a2:fc:3d:ba:b6:bf:cd:cd:
         7c:bc:5a:37:bb:41:2b:0d:62:91:73:19:d3:65:f5:82:78:2b:
         20:fc:87:db:1d:1b:d0:31:76:16:99:aa:37:08:5b:0c:63:bf:
         a3:3b:5d:d3:ac:7b:39:4e:e3:8d:eb:57:f6:e2:8c:63:29:99:
         d7:08:c9:00:b6:6f:1c:cf:2f:b5:0a:91:98:19:6f:66:b8:af:
         2c:49:cf:f3:53:75:3c:d6:cf:cb:6a:fd:c7:c2:54:39:ed:d0:
         c3:58:de:c3
-----BEGIN CERTIFICATE-----
MIIDdDCCAlygAwIBAgIRALqc7EcFNBpkI4QtWjenAPcwDQYJKoZIhvcNAQELBQAw
FTETMBEGA1UEAwwKdGVhbTQzLW5ldDAeFw0yMTA5MTIyMzA2MThaFw0yNDA4Mjcy
MzA2MThaMBgxFjAUBgNVBAMMDXRlYW00My1zZXJ2ZXIwggEiMA0GCSqGSIb3DQEB
AQUAA4IBDwAwggEKAoIBAQC6vn6c5do81pwOqcZb/mgTpkIvRRAcP8bTYxnAqjyG
dBFBvkIE96JrIGuCjHFkIjxHDy6yWYIzUo/da89gugSIIetMTuSJV2ajx1nx2dK6
yzy0XUZ5BF2TxOsXJw+0dNm6hUzolxK5OMmf54nVGLkGWUkKjJTxO/2NGGahalD4
9l0juuq6mmqOH0qio/Dqijy3raNb6rNFQ5qmrNUlEr4IMZngUQm5hafq8ecev9vM
8wmr0J9oIBHlAioN44rRujxd5gsT8Ie9oku+u+RVI9YFyphuYtf8kEqXlpFGveUG
6ohXao+pBX7tdVM58xWtNRF4XDrrfqkwMEPiRrBrq7/vAgMBAAGjgbswgbgwCQYD
VR0TBAIwADAdBgNVHQ4EFgQU3V/xS6N1gyRbQS4tFN+bG4ikWd4wUAYDVR0jBEkw
R4AUkekNiTUrqeeM6CI+GtMxyHBuHkKhGaQXMBUxEzARBgNVBAMMCnRlYW00My1u
ZXSCFEpd4dfla8R2zk7lWXIu13QKywjJMBMGA1UdJQQMMAoGCCsGAQUFBwMBMAsG
A1UdDwQEAwIFoDAYBgNVHREEETAPgg10ZWFtNDMtc2VydmVyMA0GCSqGSIb3DQEB
CwUAA4IBAQBp4MWYv/0RB6anEjyf23Rjxd3hZ4D+cBEyCjFr4p2/CipkPFPiS0AF
N0O69jiUtuu3/S6/3M/3S0iBni3obGR4HCt7bYV9t9gRbjaodw5pzJuWPk5O8vzt
m1yOYsOpUoqLrdW652UK5k58aZCIwpZKKgTd9gKWSbDsgPlRbhoH3MbIRtWjIMhf
mOxVwQvnWgWzEChtKkSQNLAFovw9ura/zc18vFo3u0ErDWKRcxnTZfWCeCsg/Ifb
HRvQMXYWmao3CFsMY7+jO13TrHs5TuON61f24oxjKZnXCMkAtm8czy+1CpGYGW9m
uK8sSc/zU3U81s/Lav3HwlQ57dDDWN7D
-----END CERTIFICATE-----
