Certificate:
    Data:
        Version: 3 (0x2)
        Serial Number:
            c9:6e:8e:37:74:0c:15:56:c1:b7:d5:7f:09:75:d2:79
        Signature Algorithm: sha256WithRSAEncryption
        Issuer: CN=team300-net
        Validity
            Not Before: Sep 13 01:27:12 2021 GMT
            Not After : Aug 28 01:27:12 2024 GMT
        Subject: CN=team300-server
        Subject Public Key Info:
            Public Key Algorithm: rsaEncryption
                RSA Public-Key: (2048 bit)
                Modulus:
                    00:b7:08:93:7e:b0:be:a6:3a:22:52:49:cf:cc:02:
                    2e:40:75:f7:17:ba:91:fa:d1:72:1f:c3:da:07:f5:
                    a4:df:c4:be:ab:35:d7:24:fc:33:cd:31:3b:41:4a:
                    d1:e0:9b:67:eb:2d:87:7d:d6:03:2b:4f:da:1a:c3:
                    c9:3d:56:57:34:6f:68:9a:50:71:d3:e3:5e:8c:21:
                    91:05:a3:44:b1:b6:54:7f:37:12:1c:4f:dd:5f:78:
                    36:05:b5:fe:df:40:0b:82:9d:ff:a9:b7:c7:6d:37:
                    55:3a:4d:65:ef:d2:98:e2:f6:b9:64:ea:44:f7:54:
                    d5:a1:34:9d:01:5d:1b:8d:6d:2c:3e:5e:81:13:b8:
                    15:7d:e6:66:5b:51:4b:4f:e4:44:50:95:67:87:00:
                    99:0c:b7:70:e8:74:89:dd:32:a9:23:01:e9:03:88:
                    71:ce:c2:d5:4c:76:c4:c2:e1:d4:a4:50:16:02:67:
                    15:3d:58:7b:37:f5:e7:2e:86:c4:fa:b4:00:40:fd:
                    f1:2e:5a:4e:04:9b:3e:9e:37:d3:e7:eb:91:b6:9b:
                    ae:e4:f8:3a:b8:9c:54:ae:ae:33:44:6e:b2:74:2f:
                    d2:1e:40:e7:6f:c8:a6:86:0b:23:36:ab:6e:3a:23:
                    08:e2:98:52:e3:3d:12:b0:d6:07:7b:b4:33:51:0b:
                    8a:6f
                Exponent: 65537 (0x10001)
        X509v3 extensions:
            X509v3 Basic Constraints: 
                CA:FALSE
            X509v3 Subject Key Identifier: 
                98:2C:C8:8B:30:BC:59:AA:91:90:A2:32:66:DA:FE:D4:6A:82:27:C3
            X509v3 Authority Key Identifier: 
                keyid:FF:6A:1D:27:AF:91:15:42:57:09:1B:A8:96:A3:A9:A9:D3:53:4D:7B
                DirName:/CN=team300-net
                serial:75:9E:CB:36:7E:7B:22:6B:C8:2A:36:6D:E7:C4:8C:92:9E:D6:38:D2

            X509v3 Extended Key Usage: 
                TLS Web Server Authentication
            X509v3 Key Usage: 
                Digital Signature, Key Encipherment
            X509v3 Subject Alternative Name: 
                DNS:team300-server
    Signature Algorithm: sha256WithRSAEncryption
         3f:85:2c:68:18:e0:53:90:eb:07:f4:c1:45:80:f8:c1:bd:0b:
         8b:d0:af:84:22:1c:38:54:f4:83:de:c9:64:34:be:29:26:06:
         a1:84:6c:4e:e4:f1:e5:ea:ff:82:69:7f:e4:ec:6b:58:06:cb:
         31:bc:81:bc:ab:a4:d5:eb:88:55:e2:4f:9e:4d:46:5d:3b:9f:
         be:c8:01:ce:00:11:5a:b3:10:d9:51:8e:32:72:5c:bb:d9:f8:
         75:c1:ab:1d:59:03:f1:ac:8b:8d:b4:b4:3e:ce:7a:82:ea:be:
         43:bf:c5:0d:0f:f5:e8:18:09:27:39:79:5a:11:72:ee:7f:38:
         43:34:11:42:d3:1a:38:85:31:52:c7:e7:7a:4e:e7:14:76:16:
         23:1c:d8:7c:7f:c7:d3:d6:8b:7c:2f:53:58:69:14:70:f2:bd:
         d3:d3:5e:0a:3a:ac:e8:20:92:95:6a:c7:37:b1:61:4d:5d:d7:
         81:1e:18:0c:e9:fc:e5:de:d9:d1:55:4c:cb:74:84:8a:c8:b7:
         7b:6e:0e:ae:73:8d:54:46:66:d1:57:6d:2d:09:d2:a3:ef:06:
         79:f2:e0:64:a2:c9:cf:84:6a:98:8b:2d:9c:8a:da:75:29:71:
         96:54:69:70:b6:5b:61:82:bf:46:4a:6f:cd:3e:13:3f:49:1b:
         e8:30:8f:2a
-----BEGIN CERTIFICATE-----
MIIDeDCCAmCgAwIBAgIRAMlujjd0DBVWwbfVfwl10nkwDQYJKoZIhvcNAQELBQAw
FjEUMBIGA1UEAwwLdGVhbTMwMC1uZXQwHhcNMjEwOTEzMDEyNzEyWhcNMjQwODI4
MDEyNzEyWjAZMRcwFQYDVQQDDA50ZWFtMzAwLXNlcnZlcjCCASIwDQYJKoZIhvcN
AQEBBQADggEPADCCAQoCggEBALcIk36wvqY6IlJJz8wCLkB19xe6kfrRch/D2gf1
pN/Evqs11yT8M80xO0FK0eCbZ+sth33WAytP2hrDyT1WVzRvaJpQcdPjXowhkQWj
RLG2VH83EhxP3V94NgW1/t9AC4Kd/6m3x203VTpNZe/SmOL2uWTqRPdU1aE0nQFd
G41tLD5egRO4FX3mZltRS0/kRFCVZ4cAmQy3cOh0id0yqSMB6QOIcc7C1Ux2xMLh
1KRQFgJnFT1Yezf15y6GxPq0AED98S5aTgSbPp430+frkbabruT4OricVK6uM0Ru
snQv0h5A52/IpoYLIzarbjojCOKYUuM9ErDWB3u0M1ELim8CAwEAAaOBvTCBujAJ
BgNVHRMEAjAAMB0GA1UdDgQWBBSYLMiLMLxZqpGQojJm2v7UaoInwzBRBgNVHSME
SjBIgBT/ah0nr5EVQlcJG6iWo6mp01NNe6EapBgwFjEUMBIGA1UEAwwLdGVhbTMw
MC1uZXSCFHWeyzZ+eyJryCo2befEjJKe1jjSMBMGA1UdJQQMMAoGCCsGAQUFBwMB
MAsGA1UdDwQEAwIFoDAZBgNVHREEEjAQgg50ZWFtMzAwLXNlcnZlcjANBgkqhkiG
9w0BAQsFAAOCAQEAP4UsaBjgU5DrB/TBRYD4wb0Li9CvhCIcOFT0g97JZDS+KSYG
oYRsTuTx5er/gml/5OxrWAbLMbyBvKuk1euIVeJPnk1GXTufvsgBzgARWrMQ2VGO
MnJcu9n4dcGrHVkD8ayLjbS0Ps56guq+Q7/FDQ/16BgJJzl5WhFy7n84QzQRQtMa
OIUxUsfnek7nFHYWIxzYfH/H09aLfC9TWGkUcPK909NeCjqs6CCSlWrHN7FhTV3X
gR4YDOn85d7Z0VVMy3SEisi3e24OrnONVEZm0VdtLQnSo+8GefLgZKLJz4RqmIst
nIradSlxllRpcLZbYYK/RkpvzT4TP0kb6DCPKg==
-----END CERTIFICATE-----
