Certificate:
    Data:
        Version: 3 (0x2)
        Serial Number:
            e9:0d:98:92:e7:ed:d3:d1:02:68:14:81:f0:dd:b4:9c
        Signature Algorithm: sha256WithRSAEncryption
        Issuer: CN=team45-net
        Validity
            Not Before: Sep 12 23:07:06 2021 GMT
            Not After : Aug 27 23:07:06 2024 GMT
        Subject: CN=team45-server
        Subject Public Key Info:
            Public Key Algorithm: rsaEncryption
                RSA Public-Key: (2048 bit)
                Modulus:
                    00:a6:e1:33:63:54:05:d9:b6:4b:3a:e2:61:50:f7:
                    39:21:03:4b:07:63:6f:d6:43:8a:d4:55:51:6f:c1:
                    c0:7b:9d:43:af:8c:8d:cf:cb:63:5d:87:44:7d:d3:
                    4f:b8:6d:4a:b6:66:90:95:ea:4b:c7:ec:e5:dd:8b:
                    6b:76:a7:11:16:14:e2:0a:80:7b:ad:8f:89:34:c7:
                    c4:b5:8f:35:3f:aa:a0:79:08:7b:a0:2d:2b:12:9c:
                    7d:c2:fc:d1:1c:52:f2:59:08:ca:c3:72:eb:64:67:
                    47:ec:87:85:01:bd:0d:b1:f8:ec:28:91:6b:3e:b1:
                    14:f0:f8:8e:69:92:c8:ea:35:3d:c7:be:d3:18:05:
                    25:9a:63:0e:9e:96:0f:b0:20:31:66:8a:fd:2a:7d:
                    30:52:a9:28:51:d7:6a:44:cc:03:80:44:a9:de:8f:
                    ef:0f:0f:47:9a:2e:5d:dd:b4:55:66:e4:e2:bc:03:
                    b5:7b:ce:55:46:c4:e4:5e:33:80:8f:7f:5b:90:b1:
                    03:8b:cc:0c:16:51:8c:c6:8d:44:13:7d:82:c4:52:
                    e4:6c:08:fe:19:22:49:d5:cf:b4:20:03:6d:e0:49:
                    ac:a5:f5:e2:3e:59:ef:32:31:e0:63:25:03:43:87:
                    01:d3:c7:df:50:67:ad:c0:26:d3:db:b8:2d:29:1d:
                    d2:11
                Exponent: 65537 (0x10001)
        X509v3 extensions:
            X509v3 Basic Constraints: 
                CA:FALSE
            X509v3 Subject Key Identifier: 
                24:DA:37:9F:C1:41:AF:48:B6:12:24:84:AB:97:46:3D:58:70:01:31
            X509v3 Authority Key Identifier: 
                keyid:02:B0:1C:B2:19:C6:59:81:75:2B:1E:7D:01:74:91:FE:C9:59:7C:1E
                DirName:/CN=team45-net
                serial:09:13:04:53:CA:A9:95:13:28:56:06:FA:1D:52:92:E3:6F:4C:CF:BE

            X509v3 Extended Key Usage: 
                TLS Web Server Authentication
            X509v3 Key Usage: 
                Digital Signature, Key Encipherment
            X509v3 Subject Alternative Name: 
                DNS:team45-server
    Signature Algorithm: sha256WithRSAEncryption
         af:40:c8:66:b4:68:7c:c6:63:d0:48:43:49:5d:cb:59:fe:36:
         ec:e5:a2:fb:6f:53:27:59:20:63:f1:fd:95:83:2a:6c:83:6b:
         05:81:38:7f:d1:f0:52:c0:16:0b:9f:f5:a9:46:1d:82:e5:c3:
         0b:c3:9d:eb:a5:59:87:f1:c6:24:4a:fa:15:5c:a3:47:1e:37:
         c4:f8:a1:53:62:49:ab:9f:62:71:79:a2:48:7b:28:4d:60:20:
         d8:59:b5:3a:c4:07:3c:ee:6e:45:29:ac:3e:77:4b:03:03:a2:
         25:62:52:77:0e:48:df:14:70:de:9c:dc:8d:4e:14:21:e0:e8:
         6d:1c:85:45:9b:5a:c5:ec:86:d0:65:b6:6a:5c:b5:dc:2e:c9:
         15:d7:80:b8:ea:5a:ce:20:4c:52:83:8d:42:c8:d9:a5:b5:47:
         63:99:fa:ec:fe:56:b6:57:b7:8c:cd:28:25:6c:cb:7a:de:d5:
         a3:62:78:62:5a:01:27:63:98:68:f9:34:8e:5c:9d:5e:8f:92:
         d0:62:1c:47:4b:d2:47:df:5a:79:43:ad:12:29:41:bc:01:75:
         b1:31:98:fe:88:9c:85:51:d3:ea:db:e4:8e:f5:5e:4d:bd:31:
         9c:17:ad:df:a5:4e:e2:54:f4:cb:6e:42:13:b4:38:e9:18:b7:
         88:f2:c0:7f
-----BEGIN CERTIFICATE-----
MIIDdDCCAlygAwIBAgIRAOkNmJLn7dPRAmgUgfDdtJwwDQYJKoZIhvcNAQELBQAw
FTETMBEGA1UEAwwKdGVhbTQ1LW5ldDAeFw0yMTA5MTIyMzA3MDZaFw0yNDA4Mjcy
MzA3MDZaMBgxFjAUBgNVBAMMDXRlYW00NS1zZXJ2ZXIwggEiMA0GCSqGSIb3DQEB
AQUAA4IBDwAwggEKAoIBAQCm4TNjVAXZtks64mFQ9zkhA0sHY2/WQ4rUVVFvwcB7
nUOvjI3Py2Ndh0R900+4bUq2ZpCV6kvH7OXdi2t2pxEWFOIKgHutj4k0x8S1jzU/
qqB5CHugLSsSnH3C/NEcUvJZCMrDcutkZ0fsh4UBvQ2x+OwokWs+sRTw+I5pksjq
NT3HvtMYBSWaYw6elg+wIDFmiv0qfTBSqShR12pEzAOARKnej+8PD0eaLl3dtFVm
5OK8A7V7zlVGxOReM4CPf1uQsQOLzAwWUYzGjUQTfYLEUuRsCP4ZIknVz7QgA23g
Sayl9eI+We8yMeBjJQNDhwHTx99QZ63AJtPbuC0pHdIRAgMBAAGjgbswgbgwCQYD
VR0TBAIwADAdBgNVHQ4EFgQUJNo3n8FBr0i2EiSEq5dGPVhwATEwUAYDVR0jBEkw
R4AUArAcshnGWYF1Kx59AXSR/slZfB6hGaQXMBUxEzARBgNVBAMMCnRlYW00NS1u
ZXSCFAkTBFPKqZUTKFYG+h1SkuNvTM++MBMGA1UdJQQMMAoGCCsGAQUFBwMBMAsG
A1UdDwQEAwIFoDAYBgNVHREEETAPgg10ZWFtNDUtc2VydmVyMA0GCSqGSIb3DQEB
CwUAA4IBAQCvQMhmtGh8xmPQSENJXctZ/jbs5aL7b1MnWSBj8f2Vgypsg2sFgTh/
0fBSwBYLn/WpRh2C5cMLw53rpVmH8cYkSvoVXKNHHjfE+KFTYkmrn2JxeaJIeyhN
YCDYWbU6xAc87m5FKaw+d0sDA6IlYlJ3DkjfFHDenNyNThQh4OhtHIVFm1rF7IbQ
ZbZqXLXcLskV14C46lrOIExSg41CyNmltUdjmfrs/la2V7eMzSglbMt63tWjYnhi
WgEnY5ho+TSOXJ1ej5LQYhxHS9JH31p5Q60SKUG8AXWxMZj+iJyFUdPq2+SO9V5N
vTGcF63fpU7iVPTLbkITtDjpGLeI8sB/
-----END CERTIFICATE-----
