Certificate:
    Data:
        Version: 3 (0x2)
        Serial Number:
            6e:94:68:1e:55:92:33:3b:31:88:d6:37:b4:b0:b5:8a
        Signature Algorithm: sha256WithRSAEncryption
        Issuer: CN=team608-net
        Validity
            Not Before: Sep 13 04:05:06 2021 GMT
            Not After : Aug 28 04:05:06 2024 GMT
        Subject: CN=team608-server
        Subject Public Key Info:
            Public Key Algorithm: rsaEncryption
                RSA Public-Key: (2048 bit)
                Modulus:
                    00:b8:ba:73:9b:70:6d:84:99:69:a6:1c:8f:9f:57:
                    77:5d:f3:48:38:95:0e:46:68:2d:4a:71:42:4c:62:
                    3f:46:60:35:6f:e3:0f:61:ee:af:b1:20:df:8c:c4:
                    ec:f2:ca:0d:32:d6:a6:4e:c6:ef:b5:0d:3b:ca:b0:
                    fd:82:d5:b9:63:a7:18:5a:15:5e:f5:4c:2b:a2:53:
                    9f:3c:c0:37:a8:f4:3c:3d:3f:04:4b:00:d1:66:5f:
                    f7:a3:54:05:26:a0:bc:41:1a:9c:cc:a7:80:f9:72:
                    6c:26:44:93:47:6e:5c:bf:93:3c:fb:ea:d5:2f:a9:
                    40:26:9e:5e:77:07:eb:ea:46:33:4f:30:6b:28:b1:
                    d0:57:4c:1e:98:0d:1d:eb:37:58:de:28:b8:d6:49:
                    f6:4b:85:c0:4c:12:e3:46:a1:ef:9f:d3:42:f4:f0:
                    49:55:57:b5:5a:22:a0:7b:db:98:e2:ff:88:45:ea:
                    cf:1c:ab:5f:c5:3c:65:5a:f8:e6:b7:5e:b9:5f:d8:
                    28:59:63:e5:68:2c:0f:a2:a1:f4:da:4f:48:0e:68:
                    4c:49:f7:aa:07:11:07:8a:e1:1e:1d:49:9c:d1:10:
                    c6:23:e0:2f:24:16:55:16:06:51:92:65:fc:41:9f:
                    bd:3f:cb:53:32:b3:8f:13:d3:74:2c:51:f2:4a:eb:
                    b9:71
                Exponent: 65537 (0x10001)
        X509v3 extensions:
            X509v3 Basic Constraints: 
                CA:FALSE
            X509v3 Subject Key Identifier: 
                D2:7E:6F:BC:54:8F:A9:AD:F3:0F:A3:63:02:5C:75:1D:88:36:E6:ED
            X509v3 Authority Key Identifier: 
                keyid:C6:EB:38:0C:21:3F:7A:7F:84:83:61:EC:CC:06:57:D0:B0:61:79:68
                DirName:/CN=team608-net
                serial:4B:C6:A0:38:F5:68:BD:D4:2C:FC:0F:49:92:5A:2B:8A:F3:CD:22:1A

            X509v3 Extended Key Usage: 
                TLS Web Server Authentication
            X509v3 Key Usage: 
                Digital Signature, Key Encipherment
            X509v3 Subject Alternative Name: 
                DNS:team608-server
    Signature Algorithm: sha256WithRSAEncryption
         97:a7:76:18:9c:ab:f4:eb:03:57:de:60:89:6b:f6:fc:3e:63:
         0b:65:f4:81:ce:c4:75:23:81:03:2f:a7:b2:c4:63:ed:f0:94:
         11:45:3c:8a:81:1a:53:94:b1:09:18:06:91:b2:99:65:df:50:
         63:4d:99:2e:d1:79:13:30:09:01:09:57:d5:a9:1d:ec:91:ad:
         c2:77:a2:98:aa:b9:f5:2b:a9:fc:ef:6b:6a:c2:28:29:6e:65:
         05:be:04:98:51:0b:23:9c:32:5a:1c:a2:48:9c:cd:e5:5a:62:
         f9:a7:68:23:92:9f:06:aa:22:f3:bc:24:f0:c1:16:eb:c3:a9:
         fa:63:27:bc:1c:e9:5b:9c:19:7a:ce:9a:bd:74:69:fd:0d:ea:
         ff:9c:95:e7:60:1e:30:8f:fb:e9:a6:c9:51:5a:a3:57:98:89:
         06:c3:b6:09:1e:f9:6c:e3:69:ad:46:bb:58:8f:4c:49:66:4f:
         cc:e5:9f:70:54:89:c4:0c:b7:c8:4a:7b:a8:b2:3a:fb:f0:a1:
         4b:20:b3:2e:8b:a4:46:12:67:60:f0:46:d4:d4:15:43:51:94:
         6a:89:54:e3:ab:8a:e1:20:78:ee:d5:62:3f:ff:52:e3:90:88:
         91:c8:43:62:3a:53:d3:0d:c3:7c:e1:73:75:d9:af:cd:c7:27:
         24:f1:9a:11
-----BEGIN CERTIFICATE-----
MIIDdzCCAl+gAwIBAgIQbpRoHlWSMzsxiNY3tLC1ijANBgkqhkiG9w0BAQsFADAW
MRQwEgYDVQQDDAt0ZWFtNjA4LW5ldDAeFw0yMTA5MTMwNDA1MDZaFw0yNDA4Mjgw
NDA1MDZaMBkxFzAVBgNVBAMMDnRlYW02MDgtc2VydmVyMIIBIjANBgkqhkiG9w0B
AQEFAAOCAQ8AMIIBCgKCAQEAuLpzm3BthJlpphyPn1d3XfNIOJUORmgtSnFCTGI/
RmA1b+MPYe6vsSDfjMTs8soNMtamTsbvtQ07yrD9gtW5Y6cYWhVe9UwrolOfPMA3
qPQ8PT8ESwDRZl/3o1QFJqC8QRqczKeA+XJsJkSTR25cv5M8++rVL6lAJp5edwfr
6kYzTzBrKLHQV0wemA0d6zdY3ii41kn2S4XATBLjRqHvn9NC9PBJVVe1WiKge9uY
4v+IRerPHKtfxTxlWvjmt165X9goWWPlaCwPoqH02k9IDmhMSfeqBxEHiuEeHUmc
0RDGI+AvJBZVFgZRkmX8QZ+9P8tTMrOPE9N0LFHySuu5cQIDAQABo4G9MIG6MAkG
A1UdEwQCMAAwHQYDVR0OBBYEFNJ+b7xUj6mt8w+jYwJcdR2INubtMFEGA1UdIwRK
MEiAFMbrOAwhP3p/hINh7MwGV9CwYXlooRqkGDAWMRQwEgYDVQQDDAt0ZWFtNjA4
LW5ldIIUS8agOPVovdQs/A9JklorivPNIhowEwYDVR0lBAwwCgYIKwYBBQUHAwEw
CwYDVR0PBAQDAgWgMBkGA1UdEQQSMBCCDnRlYW02MDgtc2VydmVyMA0GCSqGSIb3
DQEBCwUAA4IBAQCXp3YYnKv06wNX3mCJa/b8PmMLZfSBzsR1I4EDL6eyxGPt8JQR
RTyKgRpTlLEJGAaRspll31BjTZku0XkTMAkBCVfVqR3ska3Cd6KYqrn1K6n872tq
wigpbmUFvgSYUQsjnDJaHKJInM3lWmL5p2gjkp8GqiLzvCTwwRbrw6n6Yye8HOlb
nBl6zpq9dGn9Der/nJXnYB4wj/vppslRWqNXmIkGw7YJHvls42mtRrtYj0xJZk/M
5Z9wVInEDLfISnuosjr78KFLILMui6RGEmdg8EbU1BVDUZRqiVTjq4rhIHju1WI/
/1LjkIiRyENiOlPTDcN84XN12a/Nxyck8ZoR
-----END CERTIFICATE-----
