Certificate:
    Data:
        Version: 3 (0x2)
        Serial Number:
            7a:9e:42:3f:1a:c4:e3:55:6e:67:ab:14:21:21:fb:f3
        Signature Algorithm: sha256WithRSAEncryption
        Issuer: CN=team196-net
        Validity
            Not Before: Sep 13 00:27:36 2021 GMT
            Not After : Aug 28 00:27:36 2024 GMT
        Subject: CN=team196-client
        Subject Public Key Info:
            Public Key Algorithm: rsaEncryption
                RSA Public-Key: (2048 bit)
                Modulus:
                    00:e2:60:82:f6:b1:5e:63:5a:a7:fc:94:8a:df:1f:
                    13:f7:73:f8:b8:cc:9b:b3:22:be:89:f9:1c:08:36:
                    9b:ea:89:24:ea:29:ec:72:91:49:71:ab:d9:78:3c:
                    3c:f7:03:e9:9d:a5:e7:ab:99:59:d5:5e:67:e7:d8:
                    f6:21:98:aa:ea:98:62:91:b9:ce:37:3d:31:23:54:
                    ee:96:41:fc:51:72:a9:6c:0c:5d:25:e8:8b:dc:46:
                    35:2f:73:1a:f5:4a:9c:20:c1:c2:e8:1f:7d:f3:10:
                    ef:bd:11:fb:2f:81:7d:43:d0:7c:b2:33:7b:f0:4f:
                    e8:66:21:bb:85:f7:f1:97:50:8f:e5:3b:0e:39:1c:
                    f2:f6:35:8e:8d:55:3c:2e:cd:c3:98:78:4c:9d:e3:
                    25:d4:ee:b3:03:3e:f5:a5:0a:5c:eb:48:7e:84:42:
                    6b:ea:f7:ef:d1:91:d9:72:6c:50:43:d0:08:ab:69:
                    fc:8b:6a:82:0e:a8:1b:62:2d:8d:2b:07:83:74:e4:
                    77:ce:0f:0c:0f:2f:39:22:eb:a6:67:0a:92:b4:31:
                    f2:e0:2d:1b:e2:a6:f0:8b:9a:39:0b:e8:33:97:23:
                    fe:eb:f9:65:de:ae:89:f1:a8:89:88:c6:c5:9f:df:
                    b7:51:bd:86:61:3b:22:3d:19:fb:ef:6a:d3:36:82:
                    5c:65
                Exponent: 65537 (0x10001)
        X509v3 extensions:
            X509v3 Basic Constraints: 
                CA:FALSE
            X509v3 Subject Key Identifier: 
                56:8F:2E:84:AA:BA:30:81:2E:11:23:3B:9B:74:C8:F0:98:FC:2D:CA
            X509v3 Authority Key Identifier: 
                keyid:21:59:FB:DC:7C:79:43:1A:89:F2:4D:39:4E:51:54:8B:15:D4:3E:1A
                DirName:/CN=team196-net
                serial:20:B2:A3:55:39:15:C4:02:06:26:D1:51:59:99:CB:E0:31:D3:53:AE

            X509v3 Extended Key Usage: 
                TLS Web Client Authentication
            X509v3 Key Usage: 
                Digital Signature
    Signature Algorithm: sha256WithRSAEncryption
         01:9f:4d:90:e5:89:6f:cc:73:6f:0b:8b:40:ff:8e:1e:70:3b:
         e2:37:92:7a:a0:84:e8:b1:d2:4c:f5:34:88:51:dd:7f:22:e0:
         10:a9:cf:39:11:6b:0d:30:bf:45:81:7d:3c:f5:4a:b0:9d:4f:
         c5:68:65:71:55:5b:14:0a:a6:e6:95:f9:33:7b:ac:45:bc:bd:
         25:45:2a:90:6c:6a:b5:09:83:5f:9a:3e:de:a1:f4:2d:8e:5e:
         5e:cf:5e:35:1a:22:82:5d:5e:88:2f:17:5c:5a:05:9f:39:69:
         d5:6d:ee:44:28:87:bf:18:96:d2:06:f5:d1:b9:be:32:fe:52:
         af:ee:ff:8d:8c:8f:63:63:e2:a7:8a:6b:93:e4:41:63:63:46:
         3f:93:9d:bb:b0:c8:d2:5a:5d:3b:60:4f:34:99:1e:d7:dc:86:
         e1:c3:a3:02:e7:38:73:9c:56:58:bf:2e:19:b9:5a:56:9d:8a:
         35:4f:0d:2d:2f:9d:3e:e0:6f:63:b3:3a:5f:65:ba:33:12:a1:
         4c:5e:06:05:95:5f:f7:44:90:db:7c:99:8d:2f:2b:90:ac:6f:
         70:f0:67:8a:67:98:02:a7:71:e8:a1:a8:bf:82:78:c2:48:55:
         6d:5b:29:d9:4c:32:a2:ae:0a:b7:91:fd:4d:23:81:c0:5c:a7:
         ee:39:4f:ab
-----BEGIN CERTIFICATE-----
MIIDXDCCAkSgAwIBAgIQep5CPxrE41VuZ6sUISH78zANBgkqhkiG9w0BAQsFADAW
MRQwEgYDVQQDDAt0ZWFtMTk2LW5ldDAeFw0yMTA5MTMwMDI3MzZaFw0yNDA4Mjgw
MDI3MzZaMBkxFzAVBgNVBAMMDnRlYW0xOTYtY2xpZW50MIIBIjANBgkqhkiG9w0B
AQEFAAOCAQ8AMIIBCgKCAQEA4mCC9rFeY1qn/JSK3x8T93P4uMybsyK+ifkcCDab
6okk6inscpFJcavZeDw89wPpnaXnq5lZ1V5n59j2IZiq6phikbnONz0xI1TulkH8
UXKpbAxdJeiL3EY1L3Ma9UqcIMHC6B998xDvvRH7L4F9Q9B8sjN78E/oZiG7hffx
l1CP5TsOORzy9jWOjVU8Ls3DmHhMneMl1O6zAz71pQpc60h+hEJr6vfv0ZHZcmxQ
Q9AIq2n8i2qCDqgbYi2NKweDdOR3zg8MDy85IuumZwqStDHy4C0b4qbwi5o5C+gz
lyP+6/ll3q6J8aiJiMbFn9+3Ub2GYTsiPRn772rTNoJcZQIDAQABo4GiMIGfMAkG
A1UdEwQCMAAwHQYDVR0OBBYEFFaPLoSqujCBLhEjO5t0yPCY/C3KMFEGA1UdIwRK
MEiAFCFZ+9x8eUMaifJNOU5RVIsV1D4aoRqkGDAWMRQwEgYDVQQDDAt0ZWFtMTk2
LW5ldIIUILKjVTkVxAIGJtFRWZnL4DHTU64wEwYDVR0lBAwwCgYIKwYBBQUHAwIw
CwYDVR0PBAQDAgeAMA0GCSqGSIb3DQEBCwUAA4IBAQABn02Q5YlvzHNvC4tA/44e
cDviN5J6oITosdJM9TSIUd1/IuAQqc85EWsNML9FgX089UqwnU/FaGVxVVsUCqbm
lfkze6xFvL0lRSqQbGq1CYNfmj7eofQtjl5ez141GiKCXV6ILxdcWgWfOWnVbe5E
KIe/GJbSBvXRub4y/lKv7v+NjI9jY+KnimuT5EFjY0Y/k527sMjSWl07YE80mR7X
3Ibhw6MC5zhznFZYvy4ZuVpWnYo1Tw0tL50+4G9jszpfZbozEqFMXgYFlV/3RJDb
fJmNLyuQrG9w8GeKZ5gCp3Hooai/gnjCSFVtWynZTDKirgq3kf1NI4HAXKfuOU+r
-----END CERTIFICATE-----
