Certificate:
    Data:
        Version: 3 (0x2)
        Serial Number:
            e0:7e:1c:c3:67:40:22:5c:22:36:28:e6:3d:48:31:54
        Signature Algorithm: sha256WithRSAEncryption
        Issuer: CN=team525-net
        Validity
            Not Before: Sep 13 03:34:37 2021 GMT
            Not After : Aug 28 03:34:37 2024 GMT
        Subject: CN=team525-client
        Subject Public Key Info:
            Public Key Algorithm: rsaEncryption
                RSA Public-Key: (2048 bit)
                Modulus:
                    00:b8:df:d3:0c:c1:ad:a2:52:21:b8:60:0b:ee:32:
                    a8:bd:3f:a9:86:61:a7:45:0c:08:4d:30:bc:1d:70:
                    50:7f:02:89:e8:3b:21:54:93:d0:6c:54:94:97:ab:
                    4e:b5:e6:9b:f1:58:c1:33:a6:74:f5:3b:43:a9:05:
                    ee:53:f4:02:4d:5c:bc:87:0e:41:ad:9b:9a:f8:8c:
                    f4:f0:a3:93:d4:20:e1:53:72:ce:3a:06:15:95:19:
                    a1:77:ab:10:f2:88:b5:35:f5:22:7a:56:87:0b:c9:
                    2c:c0:62:e5:00:83:8e:eb:40:82:7b:32:a8:1a:19:
                    dc:94:0f:48:d3:58:ac:bb:80:04:d5:d9:b7:11:87:
                    78:aa:82:79:61:dd:af:ed:aa:a5:e6:b5:ab:b8:98:
                    b1:f2:ff:fe:04:ca:b9:6b:f2:a8:a1:32:d2:fa:4a:
                    09:ae:08:6a:76:8b:10:29:18:df:69:a1:2b:bf:cf:
                    6e:68:bf:7b:0f:a8:0c:e6:2e:fa:1a:73:69:c3:45:
                    1b:93:d9:cd:50:72:bb:44:1c:79:18:d1:71:6b:33:
                    ba:6f:bc:be:ed:0b:e5:5d:ed:61:51:34:b9:d3:60:
                    a4:4c:7d:cc:fb:ee:87:0a:07:34:5d:84:b6:39:da:
                    e2:07:d7:8b:5f:93:b9:21:66:72:26:8a:69:ab:0a:
                    b1:57
                Exponent: 65537 (0x10001)
        X509v3 extensions:
            X509v3 Basic Constraints: 
                CA:FALSE
            X509v3 Subject Key Identifier: 
                10:1B:40:03:25:57:06:9D:F9:B4:BE:F4:56:69:00:F1:FC:FC:0D:FF
            X509v3 Authority Key Identifier: 
                keyid:BB:DF:78:C6:B1:C0:4E:27:A1:E2:E5:6F:2E:21:25:E9:C2:50:70:8A
                DirName:/CN=team525-net
                serial:38:D7:9A:3C:BB:2E:48:8B:9C:21:85:00:3F:41:CE:2B:AB:B5:30:93

            X509v3 Extended Key Usage: 
                TLS Web Client Authentication
            X509v3 Key Usage: 
                Digital Signature
    Signature Algorithm: sha256WithRSAEncryption
         36:07:47:c6:8e:1f:7d:9c:5a:d9:76:49:1c:25:1e:9d:71:c0:
         99:38:6a:f9:fd:34:0e:01:d3:b3:b0:46:3d:49:2b:bb:a3:d2:
         9a:0d:51:67:49:ac:1f:ee:95:62:68:c4:71:79:dc:0e:0c:b1:
         c8:1d:bd:d4:1d:35:8f:8d:78:1d:db:28:4c:d6:f9:29:5a:50:
         59:c0:5f:6a:0b:7e:db:e2:3b:41:d6:30:b6:38:b0:3f:73:e1:
         24:04:6a:2a:f1:e2:a2:07:0b:62:48:25:bd:7b:e6:1e:b2:7d:
         53:47:79:8d:0a:9e:7a:6f:98:70:22:c1:a6:c7:0e:58:80:07:
         2d:b0:0a:8c:64:51:44:72:bd:2d:a5:28:df:41:10:29:7d:a1:
         5c:06:72:11:ed:55:25:76:ab:99:eb:c4:b6:07:50:c2:41:1d:
         d4:cf:90:eb:e6:7c:1f:93:59:cc:c8:db:2c:e6:24:dc:f8:47:
         78:7c:bf:c9:4a:e2:72:f8:03:07:28:f1:33:77:3e:03:14:96:
         0f:4c:6b:1e:d3:79:37:a8:4a:82:70:3a:80:0e:5b:38:ce:59:
         80:0e:7d:c1:94:d2:7c:ad:4a:83:15:5e:6d:3b:32:54:60:0c:
         ed:80:9d:3e:83:d9:7b:fc:9a:15:d1:b1:32:e1:ec:d3:ef:0d:
         13:af:cd:8a
-----BEGIN CERTIFICATE-----
MIIDXTCCAkWgAwIBAgIRAOB+HMNnQCJcIjYo5j1IMVQwDQYJKoZIhvcNAQELBQAw
FjEUMBIGA1UEAwwLdGVhbTUyNS1uZXQwHhcNMjEwOTEzMDMzNDM3WhcNMjQwODI4
MDMzNDM3WjAZMRcwFQYDVQQDDA50ZWFtNTI1LWNsaWVudDCCASIwDQYJKoZIhvcN
AQEBBQADggEPADCCAQoCggEBALjf0wzBraJSIbhgC+4yqL0/qYZhp0UMCE0wvB1w
UH8Cieg7IVST0GxUlJerTrXmm/FYwTOmdPU7Q6kF7lP0Ak1cvIcOQa2bmviM9PCj
k9Qg4VNyzjoGFZUZoXerEPKItTX1InpWhwvJLMBi5QCDjutAgnsyqBoZ3JQPSNNY
rLuABNXZtxGHeKqCeWHdr+2qpea1q7iYsfL//gTKuWvyqKEy0vpKCa4IanaLECkY
32mhK7/Pbmi/ew+oDOYu+hpzacNFG5PZzVByu0QceRjRcWszum+8vu0L5V3tYVE0
udNgpEx9zPvuhwoHNF2Etjna4gfXi1+TuSFmciaKaasKsVcCAwEAAaOBojCBnzAJ
BgNVHRMEAjAAMB0GA1UdDgQWBBQQG0ADJVcGnfm0vvRWaQDx/PwN/zBRBgNVHSME
SjBIgBS733jGscBOJ6Hi5W8uISXpwlBwiqEapBgwFjEUMBIGA1UEAwwLdGVhbTUy
NS1uZXSCFDjXmjy7LkiLnCGFAD9BziurtTCTMBMGA1UdJQQMMAoGCCsGAQUFBwMC
MAsGA1UdDwQEAwIHgDANBgkqhkiG9w0BAQsFAAOCAQEANgdHxo4ffZxa2XZJHCUe
nXHAmThq+f00DgHTs7BGPUkru6PSmg1RZ0msH+6VYmjEcXncDgyxyB291B01j414
HdsoTNb5KVpQWcBfagt+2+I7QdYwtjiwP3PhJARqKvHiogcLYkglvXvmHrJ9U0d5
jQqeem+YcCLBpscOWIAHLbAKjGRRRHK9LaUo30EQKX2hXAZyEe1VJXarmevEtgdQ
wkEd1M+Q6+Z8H5NZzMjbLOYk3PhHeHy/yUricvgDByjxM3c+AxSWD0xrHtN5N6hK
gnA6gA5bOM5ZgA59wZTSfK1KgxVebTsyVGAM7YCdPoPZe/yaFdGxMuHs0+8NE6/N
ig==
-----END CERTIFICATE-----
