Certificate:
    Data:
        Version: 3 (0x2)
        Serial Number:
            fe:ff:ff:36:5e:c9:2c:f7:24:97:7c:a4:d8:cc:1c:d1
        Signature Algorithm: sha256WithRSAEncryption
        Issuer: CN=team681-net
        Validity
            Not Before: Sep 13 04:38:42 2021 GMT
            Not After : Aug 28 04:38:42 2024 GMT
        Subject: CN=team681-server
        Subject Public Key Info:
            Public Key Algorithm: rsaEncryption
                RSA Public-Key: (2048 bit)
                Modulus:
                    00:d0:d4:40:e6:7e:06:4a:a3:88:e1:44:ad:06:75:
                    3b:81:f7:2a:42:1f:6d:52:aa:3c:2b:5c:19:4e:93:
                    03:20:3a:9d:42:ed:2a:30:0f:cd:f4:d0:ad:bc:c2:
                    a0:b6:5b:dd:b8:ec:b9:57:5e:5b:94:d0:70:eb:40:
                    8e:09:87:b4:73:ef:49:f8:b1:75:de:c4:c0:27:00:
                    27:6f:71:cb:07:5e:72:10:a5:f2:39:fd:95:29:d2:
                    89:91:6f:b5:9f:8b:c0:81:b7:4e:8d:16:5b:40:6c:
                    54:be:f1:c8:42:94:ee:7b:bf:9a:be:3d:6b:61:b2:
                    1b:ff:25:26:af:b9:14:85:d7:3d:f8:23:7d:a8:b5:
                    96:71:a2:a6:11:9c:af:00:2f:1e:4f:a2:e6:ef:1b:
                    86:92:90:da:45:b4:bc:24:a3:fa:f6:5b:4b:0c:c6:
                    44:21:47:49:1a:a8:07:4f:ac:91:e1:45:27:c1:25:
                    a7:22:b6:61:7b:dd:af:6e:93:e5:3e:ae:56:32:f4:
                    1c:cc:eb:7b:bf:48:3d:3e:11:d8:a1:54:2b:a3:b9:
                    8c:e9:6f:64:50:d6:df:03:c8:a5:a4:72:96:23:eb:
                    7b:66:c0:a8:dc:04:2f:11:6e:66:0f:e4:21:bb:d1:
                    3b:b0:25:be:9c:da:ec:aa:15:02:29:a9:5c:05:3d:
                    fc:73
                Exponent: 65537 (0x10001)
        X509v3 extensions:
            X509v3 Basic Constraints: 
                CA:FALSE
            X509v3 Subject Key Identifier: 
                EE:FA:C9:D6:61:67:C1:3B:52:4C:17:E4:68:5E:87:33:A7:8A:9B:8A
            X509v3 Authority Key Identifier: 
                keyid:2A:E3:F2:04:0F:80:1A:31:BA:AD:82:49:09:7B:3B:EE:02:A3:D1:4F
                DirName:/CN=team681-net
                serial:4E:A7:51:30:EA:1A:DD:A7:61:EB:BD:84:D1:6B:76:8D:63:5E:3B:6C

            X509v3 Extended Key Usage: 
                TLS Web Server Authentication
            X509v3 Key Usage: 
                Digital Signature, Key Encipherment
            X509v3 Subject Alternative Name: 
                DNS:team681-server
    Signature Algorithm: sha256WithRSAEncryption
         ad:79:84:53:d1:b9:05:51:91:80:ad:da:d3:e2:9b:c9:f3:ae:
         ba:27:c3:63:ac:78:63:9e:32:3c:e3:f1:92:ae:6c:dd:d9:4d:
         61:ac:9c:72:66:62:0e:4f:57:08:b1:ad:f3:44:21:66:08:ef:
         6b:b9:7d:4b:89:b3:59:3d:15:22:45:43:35:50:9d:f4:31:bc:
         cb:d9:71:55:61:81:36:68:8b:84:bb:9e:2b:88:b3:c3:0d:ab:
         ba:06:10:c6:43:b8:1d:cd:40:54:a6:7a:11:7c:f6:7a:86:b4:
         92:6b:c5:d7:56:78:02:0b:40:fa:fc:9e:89:84:60:87:fc:9d:
         85:0f:7e:0a:ab:70:43:ed:df:1d:11:61:77:c1:44:f6:be:82:
         f9:47:2e:2f:35:ed:28:35:d2:3a:86:08:f7:68:e9:bd:94:7d:
         2f:c0:b5:bc:a1:d9:16:f7:71:a2:1c:ab:1d:ce:ed:b4:ae:f3:
         bd:8a:6d:37:2f:f6:ec:f0:26:93:09:ce:6c:cb:42:26:11:f0:
         3d:82:3a:b7:0c:bf:43:57:2f:b3:48:2b:8d:4e:51:e3:78:18:
         02:1d:95:39:07:e3:5a:6d:44:95:26:ff:1e:a9:eb:99:06:9c:
         07:9f:67:e5:4f:f8:23:e5:9e:56:a4:0f:ed:bc:77:fe:71:bf:
         2e:40:b7:0c
-----BEGIN CERTIFICATE-----
MIIDeDCCAmCgAwIBAgIRAP7//zZeySz3JJd8pNjMHNEwDQYJKoZIhvcNAQELBQAw
FjEUMBIGA1UEAwwLdGVhbTY4MS1uZXQwHhcNMjEwOTEzMDQzODQyWhcNMjQwODI4
MDQzODQyWjAZMRcwFQYDVQQDDA50ZWFtNjgxLXNlcnZlcjCCASIwDQYJKoZIhvcN
AQEBBQADggEPADCCAQoCggEBANDUQOZ+BkqjiOFErQZ1O4H3KkIfbVKqPCtcGU6T
AyA6nULtKjAPzfTQrbzCoLZb3bjsuVdeW5TQcOtAjgmHtHPvSfixdd7EwCcAJ29x
ywdechCl8jn9lSnSiZFvtZ+LwIG3To0WW0BsVL7xyEKU7nu/mr49a2GyG/8lJq+5
FIXXPfgjfai1lnGiphGcrwAvHk+i5u8bhpKQ2kW0vCSj+vZbSwzGRCFHSRqoB0+s
keFFJ8ElpyK2YXvdr26T5T6uVjL0HMzre79IPT4R2KFUK6O5jOlvZFDW3wPIpaRy
liPre2bAqNwELxFuZg/kIbvRO7Alvpza7KoVAimpXAU9/HMCAwEAAaOBvTCBujAJ
BgNVHRMEAjAAMB0GA1UdDgQWBBTu+snWYWfBO1JMF+RoXoczp4qbijBRBgNVHSME
SjBIgBQq4/IED4AaMbqtgkkJezvuAqPRT6EapBgwFjEUMBIGA1UEAwwLdGVhbTY4
MS1uZXSCFE6nUTDqGt2nYeu9hNFrdo1jXjtsMBMGA1UdJQQMMAoGCCsGAQUFBwMB
MAsGA1UdDwQEAwIFoDAZBgNVHREEEjAQgg50ZWFtNjgxLXNlcnZlcjANBgkqhkiG
9w0BAQsFAAOCAQEArXmEU9G5BVGRgK3a0+KbyfOuuifDY6x4Y54yPOPxkq5s3dlN
YayccmZiDk9XCLGt80QhZgjva7l9S4mzWT0VIkVDNVCd9DG8y9lxVWGBNmiLhLue
K4izww2rugYQxkO4Hc1AVKZ6EXz2eoa0kmvF11Z4AgtA+vyeiYRgh/ydhQ9+Cqtw
Q+3fHRFhd8FE9r6C+UcuLzXtKDXSOoYI92jpvZR9L8C1vKHZFvdxohyrHc7ttK7z
vYptNy/27PAmkwnObMtCJhHwPYI6twy/Q1cvs0grjU5R43gYAh2VOQfjWm1ElSb/
HqnrmQacB59n5U/4I+WeVqQP7bx3/nG/LkC3DA==
-----END CERTIFICATE-----
