Certificate:
    Data:
        Version: 3 (0x2)
        Serial Number:
            df:59:31:83:1a:e6:82:ee:a3:7d:ba:a4:11:31:c7:7b
        Signature Algorithm: sha256WithRSAEncryption
        Issuer: CN=team174-net
        Validity
            Not Before: Sep 13 00:25:18 2021 GMT
            Not After : Aug 28 00:25:18 2024 GMT
        Subject: CN=team174-server
        Subject Public Key Info:
            Public Key Algorithm: rsaEncryption
                RSA Public-Key: (2048 bit)
                Modulus:
                    00:ea:e6:2c:7e:12:f5:30:69:d6:e4:3d:76:7f:26:
                    bd:56:82:06:e1:cf:3d:88:e3:32:44:aa:e0:72:45:
                    cf:dc:6c:b7:49:a2:d3:f0:f6:89:be:2f:88:a6:77:
                    73:d0:23:80:c3:cb:54:c8:3e:49:25:12:12:b4:e8:
                    c1:6e:45:18:60:29:87:b9:e7:8d:47:e0:a0:f3:06:
                    ff:48:00:62:0e:ec:d4:56:f3:40:8c:e1:36:c5:b2:
                    10:c1:f5:c0:16:59:c6:ed:15:ef:48:f3:55:b8:8c:
                    9c:0e:dd:b5:f2:35:a7:f7:bf:8c:e0:0a:74:cf:92:
                    e3:c1:16:60:13:84:8c:36:07:9b:2f:9a:ac:6d:16:
                    d3:97:7b:6c:bd:f3:7b:e7:1d:7e:66:48:32:7c:5a:
                    ec:54:a6:bf:08:4c:96:fa:57:40:bf:2f:58:86:0f:
                    91:fc:0f:9a:1e:e7:c7:c9:6a:2d:28:86:4a:c3:6f:
                    3d:65:23:d8:76:21:dc:4d:1e:36:78:d5:81:38:10:
                    b7:bb:d2:22:7e:50:3b:91:37:81:da:53:4c:95:ee:
                    c7:97:d3:17:cc:07:0a:42:57:39:59:8f:11:08:67:
                    d1:3a:a5:8d:0b:56:cb:fc:a7:c7:cd:f8:b7:17:bd:
                    6a:62:3b:ca:4a:13:2c:34:f8:50:2b:ba:ce:85:25:
                    0f:b9
                Exponent: 65537 (0x10001)
        X509v3 extensions:
            X509v3 Basic Constraints: 
                CA:FALSE
            X509v3 Subject Key Identifier: 
                E6:93:FB:6F:96:0E:0E:12:AB:7E:0A:4C:8B:6B:DE:91:D6:8D:C4:E8
            X509v3 Authority Key Identifier: 
                keyid:00:AB:A3:90:97:CC:BD:0A:05:CE:D1:1E:A6:C4:4F:E4:8E:ED:61:63
                DirName:/CN=team174-net
                serial:55:75:FB:28:47:4B:A1:35:25:44:F4:D9:F9:73:B9:4A:D2:07:B8:93

            X509v3 Extended Key Usage: 
                TLS Web Server Authentication
            X509v3 Key Usage: 
                Digital Signature, Key Encipherment
            X509v3 Subject Alternative Name: 
                DNS:team174-server
    Signature Algorithm: sha256WithRSAEncryption
         a1:fc:b0:03:d2:5a:50:dc:68:a4:a8:87:df:c9:5e:3d:70:c2:
         00:d0:9d:3e:0c:29:4a:03:f6:52:65:0d:70:43:69:48:e2:0d:
         5c:61:35:80:cd:46:e1:39:c2:7a:77:2f:c9:01:d8:41:9b:e8:
         78:5c:00:52:2d:89:7d:c2:82:71:74:96:08:a9:8f:ff:46:63:
         71:a5:00:54:47:94:eb:a1:2f:c1:1c:30:7c:8b:db:e9:a7:7e:
         af:37:da:36:7f:4c:8e:df:0b:fb:45:27:ac:81:4f:32:9d:f2:
         fb:e4:4a:15:84:1d:9e:67:ab:35:7e:d3:d1:5b:bf:94:51:ae:
         f2:aa:7e:a7:78:30:d2:fc:63:01:e6:69:ed:c3:a0:73:ef:3e:
         8e:58:7c:b0:4f:cd:f7:c4:ea:30:cf:ba:83:42:28:83:ba:a7:
         e1:82:4f:a7:19:4d:98:23:08:fe:23:be:72:23:b9:ad:08:83:
         92:ea:e1:84:f3:e4:e9:f8:4d:fa:4a:a7:bf:cc:13:6a:91:ae:
         42:05:4d:e7:13:55:71:9d:5b:52:91:75:7b:c9:bc:5d:ad:37:
         c5:ef:6e:cc:0a:c5:26:5e:a6:50:2b:a8:5c:20:68:42:f7:46:
         b0:d4:9b:22:66:09:25:35:9c:ee:04:4d:89:b2:69:b1:a8:da:
         1d:bf:cb:d4
-----BEGIN CERTIFICATE-----
MIIDeDCCAmCgAwIBAgIRAN9ZMYMa5oLuo326pBExx3swDQYJKoZIhvcNAQELBQAw
FjEUMBIGA1UEAwwLdGVhbTE3NC1uZXQwHhcNMjEwOTEzMDAyNTE4WhcNMjQwODI4
MDAyNTE4WjAZMRcwFQYDVQQDDA50ZWFtMTc0LXNlcnZlcjCCASIwDQYJKoZIhvcN
AQEBBQADggEPADCCAQoCggEBAOrmLH4S9TBp1uQ9dn8mvVaCBuHPPYjjMkSq4HJF
z9xst0mi0/D2ib4viKZ3c9AjgMPLVMg+SSUSErTowW5FGGAph7nnjUfgoPMG/0gA
Yg7s1FbzQIzhNsWyEMH1wBZZxu0V70jzVbiMnA7dtfI1p/e/jOAKdM+S48EWYBOE
jDYHmy+arG0W05d7bL3ze+cdfmZIMnxa7FSmvwhMlvpXQL8vWIYPkfwPmh7nx8lq
LSiGSsNvPWUj2HYh3E0eNnjVgTgQt7vSIn5QO5E3gdpTTJXux5fTF8wHCkJXOVmP
EQhn0TqljQtWy/ynx834txe9amI7ykoTLDT4UCu6zoUlD7kCAwEAAaOBvTCBujAJ
BgNVHRMEAjAAMB0GA1UdDgQWBBTmk/tvlg4OEqt+CkyLa96R1o3E6DBRBgNVHSME
SjBIgBQAq6OQl8y9CgXO0R6mxE/kju1hY6EapBgwFjEUMBIGA1UEAwwLdGVhbTE3
NC1uZXSCFFV1+yhHS6E1JUT02flzuUrSB7iTMBMGA1UdJQQMMAoGCCsGAQUFBwMB
MAsGA1UdDwQEAwIFoDAZBgNVHREEEjAQgg50ZWFtMTc0LXNlcnZlcjANBgkqhkiG
9w0BAQsFAAOCAQEAofywA9JaUNxopKiH38lePXDCANCdPgwpSgP2UmUNcENpSOIN
XGE1gM1G4TnCencvyQHYQZvoeFwAUi2JfcKCcXSWCKmP/0ZjcaUAVEeU66EvwRww
fIvb6ad+rzfaNn9Mjt8L+0UnrIFPMp3y++RKFYQdnmerNX7T0Vu/lFGu8qp+p3gw
0vxjAeZp7cOgc+8+jlh8sE/N98TqMM+6g0Iog7qn4YJPpxlNmCMI/iO+ciO5rQiD
kurhhPPk6fhN+kqnv8wTapGuQgVN5xNVcZ1bUpF1e8m8Xa03xe9uzArFJl6mUCuo
XCBoQvdGsNSbImYJJTWc7gRNibJpsajaHb/L1A==
-----END CERTIFICATE-----
