Certificate:
    Data:
        Version: 3 (0x2)
        Serial Number:
            b6:de:b4:eb:75:09:eb:67:4d:af:7f:b6:95:05:fe:95
        Signature Algorithm: sha256WithRSAEncryption
        Issuer: CN=team613-net
        Validity
            Not Before: Sep 13 04:06:50 2021 GMT
            Not After : Aug 28 04:06:50 2024 GMT
        Subject: CN=team613-client
        Subject Public Key Info:
            Public Key Algorithm: rsaEncryption
                RSA Public-Key: (2048 bit)
                Modulus:
                    00:c6:ee:f5:f4:bb:5d:fd:33:fd:51:6b:cd:f2:c6:
                    f4:f7:4e:6a:95:bb:c8:31:6a:62:00:b6:96:22:ca:
                    a8:e8:86:6c:c0:e6:91:1b:82:fb:c6:97:be:9a:1d:
                    1a:52:1e:c8:5e:ab:9f:02:89:17:fc:76:a2:19:a3:
                    fe:c6:5d:8a:a5:52:57:fb:d5:d5:24:b6:7c:70:1d:
                    a6:47:6f:18:74:93:55:e3:f8:eb:81:8d:1f:5c:a9:
                    3e:ea:8d:6f:71:27:bf:81:ef:eb:31:70:12:7f:a1:
                    a8:3d:a2:1b:10:26:67:ac:d6:31:e1:7e:3d:c3:89:
                    20:9a:3a:a9:6d:29:18:1e:56:96:9b:6b:01:a4:c4:
                    fb:33:aa:a1:f2:f7:84:c4:09:e0:a5:27:89:bd:b0:
                    0e:5b:2c:5d:9e:10:9d:df:dd:ce:4e:58:64:d1:7c:
                    3a:98:df:7b:b6:c8:d4:1b:37:9a:f7:a1:69:37:d1:
                    38:e2:c8:e9:fd:c5:e9:43:65:68:f6:34:f3:fc:53:
                    9c:38:9b:bb:ea:33:7b:da:1b:ae:f7:09:59:c9:f1:
                    88:ed:38:18:94:32:69:40:f3:99:d9:07:4e:af:6a:
                    28:4a:40:38:45:83:f6:59:65:e3:36:88:fd:6b:25:
                    25:b6:55:87:7d:65:71:21:f0:a0:7c:b2:5b:29:f1:
                    76:7f
                Exponent: 65537 (0x10001)
        X509v3 extensions:
            X509v3 Basic Constraints: 
                CA:FALSE
            X509v3 Subject Key Identifier: 
                6C:04:96:BE:3D:A2:7F:27:79:08:B2:65:EA:90:F9:B9:56:73:0C:BF
            X509v3 Authority Key Identifier: 
                keyid:72:35:8B:B2:F5:A2:95:8F:7F:ED:0A:69:80:E0:A8:ED:24:3D:8C:D7
                DirName:/CN=team613-net
                serial:2B:A9:25:81:58:6B:70:88:B0:5F:4D:FF:82:A5:87:FE:F2:45:81:28

            X509v3 Extended Key Usage: 
                TLS Web Client Authentication
            X509v3 Key Usage: 
                Digital Signature
    Signature Algorithm: sha256WithRSAEncryption
         75:56:f8:c4:f0:6f:9b:36:4f:c6:f0:91:0e:e8:b4:87:c2:4b:
         5c:e8:28:96:71:1c:cb:45:4a:8a:fc:f6:1a:58:4e:55:54:1f:
         c1:ee:ca:cb:f0:86:41:a6:2c:7b:07:93:cf:91:95:b1:e8:e8:
         b5:a2:cb:33:85:46:2d:d9:69:1a:eb:dc:7d:8a:21:0b:62:00:
         3c:20:f5:4c:7e:62:a1:0a:e9:ba:2d:6f:17:f8:99:4c:b2:1a:
         07:55:e0:40:f1:e1:5c:1d:66:89:0d:2a:71:16:6e:95:2d:24:
         d8:5d:7e:4b:7d:c3:27:02:f9:e6:52:63:dc:42:1c:ab:03:64:
         15:5b:72:f1:95:6f:71:ae:62:32:05:1d:38:1c:4b:d3:64:ae:
         5b:b3:fa:86:93:d9:00:30:4b:e6:1d:6e:25:e3:6f:6b:09:cd:
         6a:31:a4:b5:a7:dc:a1:1e:3f:6c:17:5f:27:5c:a9:a1:bc:42:
         5e:50:4a:9b:fe:60:f1:bc:5a:db:3c:a7:15:02:be:89:a4:0b:
         98:ba:8f:55:6e:3d:e5:33:36:c1:cb:94:9f:e6:5d:66:9f:8d:
         c1:50:64:30:f4:66:b4:4d:cc:43:89:1e:e1:48:ae:ef:af:6c:
         69:0d:e1:c5:a7:7b:8e:03:9a:b0:f8:db:b1:81:72:de:64:8e:
         a3:b4:7d:29
-----BEGIN CERTIFICATE-----
MIIDXTCCAkWgAwIBAgIRALbetOt1CetnTa9/tpUF/pUwDQYJKoZIhvcNAQELBQAw
FjEUMBIGA1UEAwwLdGVhbTYxMy1uZXQwHhcNMjEwOTEzMDQwNjUwWhcNMjQwODI4
MDQwNjUwWjAZMRcwFQYDVQQDDA50ZWFtNjEzLWNsaWVudDCCASIwDQYJKoZIhvcN
AQEBBQADggEPADCCAQoCggEBAMbu9fS7Xf0z/VFrzfLG9PdOapW7yDFqYgC2liLK
qOiGbMDmkRuC+8aXvpodGlIeyF6rnwKJF/x2ohmj/sZdiqVSV/vV1SS2fHAdpkdv
GHSTVeP464GNH1ypPuqNb3Env4Hv6zFwEn+hqD2iGxAmZ6zWMeF+PcOJIJo6qW0p
GB5WlptrAaTE+zOqofL3hMQJ4KUnib2wDlssXZ4Qnd/dzk5YZNF8Opjfe7bI1Bs3
mvehaTfROOLI6f3F6UNlaPY08/xTnDibu+oze9obrvcJWcnxiO04GJQyaUDzmdkH
Tq9qKEpAOEWD9lll4zaI/WslJbZVh31lcSHwoHyyWynxdn8CAwEAAaOBojCBnzAJ
BgNVHRMEAjAAMB0GA1UdDgQWBBRsBJa+PaJ/J3kIsmXqkPm5VnMMvzBRBgNVHSME
SjBIgBRyNYuy9aKVj3/tCmmA4KjtJD2M16EapBgwFjEUMBIGA1UEAwwLdGVhbTYx
My1uZXSCFCupJYFYa3CIsF9N/4Klh/7yRYEoMBMGA1UdJQQMMAoGCCsGAQUFBwMC
MAsGA1UdDwQEAwIHgDANBgkqhkiG9w0BAQsFAAOCAQEAdVb4xPBvmzZPxvCRDui0
h8JLXOgolnEcy0VKivz2GlhOVVQfwe7Ky/CGQaYseweTz5GVsejotaLLM4VGLdlp
GuvcfYohC2IAPCD1TH5ioQrpui1vF/iZTLIaB1XgQPHhXB1miQ0qcRZulS0k2F1+
S33DJwL55lJj3EIcqwNkFVty8ZVvca5iMgUdOBxL02SuW7P6hpPZADBL5h1uJeNv
awnNajGktafcoR4/bBdfJ1ypobxCXlBKm/5g8bxa2zynFQK+iaQLmLqPVW495TM2
wcuUn+ZdZp+NwVBkMPRmtE3MQ4ke4Uiu769saQ3hxad7jgOasPjbsYFy3mSOo7R9
KQ==
-----END CERTIFICATE-----
