Certificate:
    Data:
        Version: 3 (0x2)
        Serial Number:
            78:73:3e:bf:f3:de:c7:af:df:9b:17:63:25:67:d1:52
        Signature Algorithm: sha256WithRSAEncryption
        Issuer: CN=team192-net
        Validity
            Not Before: Sep 13 00:33:03 2021 GMT
            Not After : Aug 28 00:33:03 2024 GMT
        Subject: CN=team192-client
        Subject Public Key Info:
            Public Key Algorithm: rsaEncryption
                RSA Public-Key: (2048 bit)
                Modulus:
                    00:b1:5e:72:a2:69:92:2e:6f:6f:22:8d:57:09:6b:
                    a0:8f:07:e5:58:3d:61:ac:a1:ea:15:b6:7e:d3:62:
                    e3:41:35:61:a7:ec:24:36:94:d8:f5:31:7d:bd:78:
                    36:51:93:ed:96:23:db:42:34:93:1a:21:cd:b9:d2:
                    ed:eb:f6:26:09:39:68:f5:93:28:ca:a5:e8:94:c4:
                    52:9a:5c:50:43:0b:bf:3c:b6:7f:8d:a0:f4:5d:20:
                    4d:ee:f1:9c:0e:b7:da:09:3c:f2:f5:1b:84:de:92:
                    77:83:6c:e9:2f:74:07:3c:90:e1:a1:c8:d1:5b:98:
                    47:24:b6:d7:60:81:cd:99:d2:6a:e7:29:50:e0:ad:
                    da:6c:c2:57:9f:cf:6f:00:bb:1d:48:14:f6:62:ee:
                    3e:50:81:c3:79:46:d4:39:cc:95:de:a5:33:11:75:
                    06:d9:e9:c3:a8:72:c9:9a:dd:99:db:5c:6c:d5:3d:
                    92:9b:0e:35:ee:76:14:09:67:89:36:f4:96:2c:81:
                    3d:2b:07:e8:e5:fa:6c:6d:d8:e4:07:e9:6a:ea:11:
                    c5:8b:f1:2a:00:6c:6c:4f:f1:56:7a:51:f9:8c:cc:
                    da:8f:01:49:f2:50:cf:97:f3:f3:91:0f:e7:b9:3e:
                    6f:64:0f:6b:df:99:99:c4:30:ad:f8:da:3d:7a:23:
                    b8:f5
                Exponent: 65537 (0x10001)
        X509v3 extensions:
            X509v3 Basic Constraints: 
                CA:FALSE
            X509v3 Subject Key Identifier: 
                27:BC:31:6B:46:E7:49:75:AA:29:77:DB:20:8F:58:B3:33:96:7A:95
            X509v3 Authority Key Identifier: 
                keyid:D3:CE:5C:68:B3:E3:FD:EC:FF:6D:95:C9:AD:13:68:7E:75:E0:FE:1E
                DirName:/CN=team192-net
                serial:41:BE:3D:23:C2:E6:8D:E6:F9:59:6D:8D:B6:20:4A:D6:46:56:B6:69

            X509v3 Extended Key Usage: 
                TLS Web Client Authentication
            X509v3 Key Usage: 
                Digital Signature
    Signature Algorithm: sha256WithRSAEncryption
         95:82:29:f9:68:95:ff:ea:55:d7:e2:b5:63:75:87:3d:05:82:
         91:76:ca:f8:95:7f:4b:51:6d:8d:34:28:90:a7:37:1b:14:04:
         1a:3c:a9:4d:b2:11:85:22:50:95:30:42:99:ac:de:13:39:2e:
         fe:d6:a8:65:f0:58:6c:2e:31:75:f4:3e:fe:1f:87:fb:1f:61:
         6b:0c:fd:fa:f8:4b:d5:3e:0f:85:86:ae:c9:25:c4:fe:b3:0a:
         f1:44:66:f8:0f:2e:4b:42:85:c7:c4:2b:51:1a:6b:81:a4:31:
         61:ee:7c:d4:0e:c0:67:c8:e3:1e:f7:87:cb:04:84:d7:72:10:
         24:6c:66:18:8d:2a:94:b0:0e:c9:fc:96:8e:cd:c7:47:7c:77:
         3c:cc:ff:c7:e1:f4:3e:1c:c8:11:79:8f:6b:4a:8d:c6:90:34:
         8a:5d:34:ad:03:32:87:9e:66:dd:35:f6:49:2f:66:20:54:70:
         7f:7d:2e:c9:30:d7:d0:e7:04:45:c0:42:f2:dd:5f:69:9b:2a:
         b4:9e:f5:27:c8:1a:3e:b5:c5:67:9a:a2:78:20:14:23:b4:ae:
         21:b4:0f:a0:5e:98:22:4e:26:2c:28:58:de:ac:1f:23:cc:4d:
         d4:5c:7a:2e:eb:d2:f4:2a:a4:c7:ba:91:32:15:e1:2e:60:8b:
         cb:cb:73:1c
-----BEGIN CERTIFICATE-----
MIIDXDCCAkSgAwIBAgIQeHM+v/Pex6/fmxdjJWfRUjANBgkqhkiG9w0BAQsFADAW
MRQwEgYDVQQDDAt0ZWFtMTkyLW5ldDAeFw0yMTA5MTMwMDMzMDNaFw0yNDA4Mjgw
MDMzMDNaMBkxFzAVBgNVBAMMDnRlYW0xOTItY2xpZW50MIIBIjANBgkqhkiG9w0B
AQEFAAOCAQ8AMIIBCgKCAQEAsV5yommSLm9vIo1XCWugjwflWD1hrKHqFbZ+02Lj
QTVhp+wkNpTY9TF9vXg2UZPtliPbQjSTGiHNudLt6/YmCTlo9ZMoyqXolMRSmlxQ
Qwu/PLZ/jaD0XSBN7vGcDrfaCTzy9RuE3pJ3g2zpL3QHPJDhocjRW5hHJLbXYIHN
mdJq5ylQ4K3abMJXn89vALsdSBT2Yu4+UIHDeUbUOcyV3qUzEXUG2enDqHLJmt2Z
21xs1T2Smw417nYUCWeJNvSWLIE9Kwfo5fpsbdjkB+lq6hHFi/EqAGxsT/FWelH5
jMzajwFJ8lDPl/PzkQ/nuT5vZA9r35mZxDCt+No9eiO49QIDAQABo4GiMIGfMAkG
A1UdEwQCMAAwHQYDVR0OBBYEFCe8MWtG50l1qil32yCPWLMzlnqVMFEGA1UdIwRK
MEiAFNPOXGiz4/3s/22Vya0TaH514P4eoRqkGDAWMRQwEgYDVQQDDAt0ZWFtMTky
LW5ldIIUQb49I8Lmjeb5WW2NtiBK1kZWtmkwEwYDVR0lBAwwCgYIKwYBBQUHAwIw
CwYDVR0PBAQDAgeAMA0GCSqGSIb3DQEBCwUAA4IBAQCVgin5aJX/6lXX4rVjdYc9
BYKRdsr4lX9LUW2NNCiQpzcbFAQaPKlNshGFIlCVMEKZrN4TOS7+1qhl8FhsLjF1
9D7+H4f7H2FrDP36+EvVPg+Fhq7JJcT+swrxRGb4Dy5LQoXHxCtRGmuBpDFh7nzU
DsBnyOMe94fLBITXchAkbGYYjSqUsA7J/JaOzcdHfHc8zP/H4fQ+HMgReY9rSo3G
kDSKXTStAzKHnmbdNfZJL2YgVHB/fS7JMNfQ5wRFwELy3V9pmyq0nvUnyBo+tcVn
mqJ4IBQjtK4htA+gXpgiTiYsKFjerB8jzE3UXHou69L0KqTHupEyFeEuYIvLy3Mc
-----END CERTIFICATE-----
