Certificate:
    Data:
        Version: 3 (0x2)
        Serial Number:
            b7:0b:0c:f2:39:bf:e3:7c:28:8d:5e:a1:4a:b4:07:b0
        Signature Algorithm: sha256WithRSAEncryption
        Issuer: CN=team109-net
        Validity
            Not Before: Sep 12 23:43:58 2021 GMT
            Not After : Aug 27 23:43:58 2024 GMT
        Subject: CN=team109-server
        Subject Public Key Info:
            Public Key Algorithm: rsaEncryption
                RSA Public-Key: (2048 bit)
                Modulus:
                    00:d9:cc:cb:9b:73:7b:df:29:6c:64:89:e8:4a:55:
                    09:56:93:ae:6c:78:2a:77:d3:48:18:4e:0b:17:e4:
                    43:14:7c:af:c2:4c:93:4c:f3:2a:19:2b:72:ff:92:
                    ef:03:47:df:cf:95:b2:82:d7:5c:2b:d6:f3:f2:4b:
                    7a:21:cc:a3:42:f9:64:87:71:95:4a:b3:21:d7:c3:
                    8e:d3:b0:89:33:81:0d:d5:c7:bf:bf:be:bb:43:2c:
                    cd:94:da:04:fc:ea:94:b4:ee:32:c4:5e:3a:b0:4c:
                    3b:de:81:39:69:8b:8f:fe:a0:4f:2f:d9:0f:65:bc:
                    61:9e:15:8c:8e:8b:cf:50:0b:f4:4d:95:00:54:92:
                    5d:25:25:21:85:5b:82:dd:f9:18:39:67:ec:09:16:
                    5f:4c:9c:aa:05:3a:60:49:8b:2e:1f:63:c7:20:22:
                    1a:65:f3:20:dd:6a:5d:9f:07:23:16:34:44:e5:b6:
                    3f:9c:f1:b9:34:6c:1f:13:13:b8:72:74:0c:84:ff:
                    fc:78:6e:f6:80:cc:db:31:cd:d6:22:bc:49:d2:af:
                    25:eb:ef:31:bb:f4:3c:4a:c0:5e:10:46:13:7a:4d:
                    09:2c:cc:e9:64:68:21:fc:42:b4:70:df:66:10:f1:
                    56:13:e6:c5:0d:41:dc:4e:67:76:11:f8:df:af:bf:
                    cf:a1
                Exponent: 65537 (0x10001)
        X509v3 extensions:
            X509v3 Basic Constraints: 
                CA:FALSE
            X509v3 Subject Key Identifier: 
                7F:EB:57:56:5E:5E:90:71:5E:1A:A7:84:52:F4:76:E0:26:CB:D3:01
            X509v3 Authority Key Identifier: 
                keyid:50:52:2D:43:E5:51:A7:52:6D:D7:8A:B0:E5:90:87:27:8C:15:A5:CB
                DirName:/CN=team109-net
                serial:75:21:80:BE:A5:6D:43:17:4D:EE:4F:16:87:DC:14:CE:AB:88:CE:9C

            X509v3 Extended Key Usage: 
                TLS Web Server Authentication
            X509v3 Key Usage: 
                Digital Signature, Key Encipherment
            X509v3 Subject Alternative Name: 
                DNS:team109-server
    Signature Algorithm: sha256WithRSAEncryption
         ac:75:e5:a4:cc:0c:14:36:bf:05:4a:c0:6d:eb:62:68:12:57:
         a2:15:d2:18:f3:95:db:df:d2:fc:56:fb:97:df:3c:08:5c:aa:
         c6:fd:ce:68:40:14:60:84:d9:3f:13:f9:19:43:5c:69:eb:a4:
         22:7e:69:58:c7:4c:02:21:bb:0f:9b:40:62:31:f4:5a:e3:11:
         f2:a7:38:01:12:a3:28:8c:86:a6:8f:01:75:62:73:63:de:3a:
         fc:91:27:4c:e3:a4:8a:13:f4:af:14:72:d8:2e:c2:e0:9a:ec:
         2f:a9:30:70:d1:ff:dd:ef:6a:de:82:ce:19:eb:e3:76:4e:24:
         d0:2a:97:66:be:bd:94:d7:4c:73:66:79:df:15:1a:5d:11:43:
         1d:67:dc:ef:23:6e:62:d0:82:5a:57:0e:e6:6c:0b:5b:40:01:
         f4:85:1d:95:d8:89:c1:5c:fc:b3:46:72:ad:59:bc:88:1a:0c:
         1f:30:e1:56:74:ea:66:40:52:fb:b8:49:48:6a:41:6c:9f:55:
         c4:fc:fd:45:74:e8:2a:10:ac:14:54:6f:88:4d:2b:e8:7b:14:
         82:f2:58:95:5b:09:31:22:76:7d:05:b0:3b:d9:2f:f7:2b:f2:
         a1:19:98:13:dc:39:f8:f2:ca:ea:2a:08:af:b4:1b:1c:18:a9:
         b2:e1:b0:ce
-----BEGIN CERTIFICATE-----
MIIDeDCCAmCgAwIBAgIRALcLDPI5v+N8KI1eoUq0B7AwDQYJKoZIhvcNAQELBQAw
FjEUMBIGA1UEAwwLdGVhbTEwOS1uZXQwHhcNMjEwOTEyMjM0MzU4WhcNMjQwODI3
MjM0MzU4WjAZMRcwFQYDVQQDDA50ZWFtMTA5LXNlcnZlcjCCASIwDQYJKoZIhvcN
AQEBBQADggEPADCCAQoCggEBANnMy5tze98pbGSJ6EpVCVaTrmx4KnfTSBhOCxfk
QxR8r8JMk0zzKhkrcv+S7wNH38+VsoLXXCvW8/JLeiHMo0L5ZIdxlUqzIdfDjtOw
iTOBDdXHv7++u0MszZTaBPzqlLTuMsReOrBMO96BOWmLj/6gTy/ZD2W8YZ4VjI6L
z1AL9E2VAFSSXSUlIYVbgt35GDln7AkWX0ycqgU6YEmLLh9jxyAiGmXzIN1qXZ8H
IxY0ROW2P5zxuTRsHxMTuHJ0DIT//Hhu9oDM2zHN1iK8SdKvJevvMbv0PErAXhBG
E3pNCSzM6WRoIfxCtHDfZhDxVhPmxQ1B3E5ndhH436+/z6ECAwEAAaOBvTCBujAJ
BgNVHRMEAjAAMB0GA1UdDgQWBBR/61dWXl6QcV4ap4RS9HbgJsvTATBRBgNVHSME
SjBIgBRQUi1D5VGnUm3XirDlkIcnjBWly6EapBgwFjEUMBIGA1UEAwwLdGVhbTEw
OS1uZXSCFHUhgL6lbUMXTe5PFofcFM6riM6cMBMGA1UdJQQMMAoGCCsGAQUFBwMB
MAsGA1UdDwQEAwIFoDAZBgNVHREEEjAQgg50ZWFtMTA5LXNlcnZlcjANBgkqhkiG
9w0BAQsFAAOCAQEArHXlpMwMFDa/BUrAbetiaBJXohXSGPOV29/S/Fb7l988CFyq
xv3OaEAUYITZPxP5GUNcaeukIn5pWMdMAiG7D5tAYjH0WuMR8qc4ARKjKIyGpo8B
dWJzY946/JEnTOOkihP0rxRy2C7C4JrsL6kwcNH/3e9q3oLOGevjdk4k0CqXZr69
lNdMc2Z53xUaXRFDHWfc7yNuYtCCWlcO5mwLW0AB9IUdldiJwVz8s0ZyrVm8iBoM
HzDhVnTqZkBS+7hJSGpBbJ9VxPz9RXToKhCsFFRviE0r6HsUgvJYlVsJMSJ2fQWw
O9kv9yvyoRmYE9w5+PLK6ioIr7QbHBipsuGwzg==
-----END CERTIFICATE-----
