Certificate:
    Data:
        Version: 3 (0x2)
        Serial Number:
            0f:21:37:de:42:78:fc:5c:2a:c8:1a:0a:74:4a:c9:20
        Signature Algorithm: sha256WithRSAEncryption
        Issuer: CN=team339-net
        Validity
            Not Before: Sep 13 01:54:33 2021 GMT
            Not After : Aug 28 01:54:33 2024 GMT
        Subject: CN=team339-server
        Subject Public Key Info:
            Public Key Algorithm: rsaEncryption
                RSA Public-Key: (2048 bit)
                Modulus:
                    00:c6:3e:2f:19:1b:cc:2a:16:f3:09:fc:8a:c9:de:
                    f8:af:88:02:6b:97:82:25:fb:89:00:d1:1d:8a:05:
                    9a:ca:cc:d7:b7:66:38:1b:e1:a4:76:de:55:8d:31:
                    e6:f1:b1:d6:8a:69:06:88:db:78:a3:bb:1d:22:c1:
                    9b:ec:58:d5:0d:71:51:47:0e:8d:0d:e6:8d:61:e4:
                    5a:1c:1b:8d:21:e0:2e:9e:5d:4f:01:73:31:ae:96:
                    64:8b:53:7d:7e:9f:4f:8b:25:ac:c7:2b:77:e0:1f:
                    74:da:57:80:d2:b6:fd:51:28:88:db:ec:65:74:5a:
                    b0:b1:d9:33:e2:d0:ca:ed:89:9c:39:a7:4d:a1:eb:
                    c5:24:87:d8:f6:4d:3e:d1:96:21:44:b7:4a:0d:86:
                    0b:0d:93:9f:72:6c:b0:79:e0:60:d8:e9:74:e6:92:
                    ff:fe:c0:85:3f:22:6a:4e:05:98:c1:4b:ad:55:7c:
                    f0:ce:8a:95:b8:7f:9e:67:a8:5f:aa:7e:30:a2:d4:
                    50:b6:ab:6e:16:8d:26:84:28:38:da:80:07:fa:f4:
                    62:29:7a:dd:cf:11:94:09:8b:68:e6:0f:c3:7c:30:
                    b6:6f:4e:fc:b5:7e:d8:00:f3:90:28:4e:1a:13:72:
                    f9:66:13:f5:05:5a:2f:22:2c:ed:d0:f0:da:21:f2:
                    3b:5b
                Exponent: 65537 (0x10001)
        X509v3 extensions:
            X509v3 Basic Constraints: 
                CA:FALSE
            X509v3 Subject Key Identifier: 
                6B:B9:27:C7:5B:5D:8E:CC:7F:DC:30:DA:7B:72:3C:0B:B9:3C:21:C2
            X509v3 Authority Key Identifier: 
                keyid:22:66:92:8F:EA:85:3C:CB:0C:4B:9D:5A:04:BE:4F:69:CE:06:FF:D4
                DirName:/CN=team339-net
                serial:5E:4C:B3:A2:9B:3F:7A:67:30:D9:93:38:76:E5:70:F1:FE:47:F2:22

            X509v3 Extended Key Usage: 
                TLS Web Server Authentication
            X509v3 Key Usage: 
                Digital Signature, Key Encipherment
            X509v3 Subject Alternative Name: 
                DNS:team339-server
    Signature Algorithm: sha256WithRSAEncryption
         58:ea:95:7c:81:72:45:bb:8c:00:ee:37:7d:5e:10:e0:0c:28:
         46:8e:c6:0c:10:1b:22:5a:88:5a:2b:6e:7a:fa:8a:b7:2d:3b:
         d3:08:13:6a:d1:20:2d:64:de:90:05:e6:0e:b1:71:14:3c:53:
         fb:9a:0d:ea:00:c9:83:d6:be:d7:c0:be:c8:06:9a:71:76:ee:
         8b:f4:88:8b:67:a3:e9:82:b3:0c:cd:d7:16:7f:82:a7:e7:b9:
         05:65:89:e8:e6:6f:be:d4:4a:19:6f:24:94:f1:66:5f:a0:18:
         ec:9f:5c:8b:88:83:8f:a6:90:55:f8:0d:c2:40:5d:96:8f:c9:
         f0:6e:8e:b1:d1:fb:89:e4:b4:32:be:7f:b3:25:b8:75:75:20:
         f4:c1:93:b1:0f:bd:62:ae:fe:53:12:23:e4:8c:52:23:8f:eb:
         8a:29:c1:3d:c9:6f:74:1d:53:16:21:fd:ad:d6:f2:ee:bf:19:
         ee:48:dc:92:ab:24:83:c9:69:d2:0f:58:25:34:3f:9e:1c:4a:
         ae:94:99:12:c7:10:3f:7a:50:f6:c6:55:94:39:b2:37:2c:c4:
         c5:80:cf:c2:f2:8f:81:27:9a:58:a3:4e:98:93:1d:3f:17:4c:
         9b:f1:25:b6:84:ec:e2:3d:45:9c:d6:be:4a:b0:80:4e:e6:86:
         bb:35:b8:a5
-----BEGIN CERTIFICATE-----
MIIDdzCCAl+gAwIBAgIQDyE33kJ4/FwqyBoKdErJIDANBgkqhkiG9w0BAQsFADAW
MRQwEgYDVQQDDAt0ZWFtMzM5LW5ldDAeFw0yMTA5MTMwMTU0MzNaFw0yNDA4Mjgw
MTU0MzNaMBkxFzAVBgNVBAMMDnRlYW0zMzktc2VydmVyMIIBIjANBgkqhkiG9w0B
AQEFAAOCAQ8AMIIBCgKCAQEAxj4vGRvMKhbzCfyKyd74r4gCa5eCJfuJANEdigWa
yszXt2Y4G+Gkdt5VjTHm8bHWimkGiNt4o7sdIsGb7FjVDXFRRw6NDeaNYeRaHBuN
IeAunl1PAXMxrpZki1N9fp9PiyWsxyt34B902leA0rb9USiI2+xldFqwsdkz4tDK
7YmcOadNoevFJIfY9k0+0ZYhRLdKDYYLDZOfcmyweeBg2Ol05pL//sCFPyJqTgWY
wUutVXzwzoqVuH+eZ6hfqn4wotRQtqtuFo0mhCg42oAH+vRiKXrdzxGUCYto5g/D
fDC2b078tX7YAPOQKE4aE3L5ZhP1BVovIizt0PDaIfI7WwIDAQABo4G9MIG6MAkG
A1UdEwQCMAAwHQYDVR0OBBYEFGu5J8dbXY7Mf9ww2ntyPAu5PCHCMFEGA1UdIwRK
MEiAFCJmko/qhTzLDEudWgS+T2nOBv/UoRqkGDAWMRQwEgYDVQQDDAt0ZWFtMzM5
LW5ldIIUXkyzops/emcw2ZM4duVw8f5H8iIwEwYDVR0lBAwwCgYIKwYBBQUHAwEw
CwYDVR0PBAQDAgWgMBkGA1UdEQQSMBCCDnRlYW0zMzktc2VydmVyMA0GCSqGSIb3
DQEBCwUAA4IBAQBY6pV8gXJFu4wA7jd9XhDgDChGjsYMEBsiWohaK256+oq3LTvT
CBNq0SAtZN6QBeYOsXEUPFP7mg3qAMmD1r7XwL7IBppxdu6L9IiLZ6PpgrMMzdcW
f4Kn57kFZYno5m++1EoZbySU8WZfoBjsn1yLiIOPppBV+A3CQF2Wj8nwbo6x0fuJ
5LQyvn+zJbh1dSD0wZOxD71irv5TEiPkjFIjj+uKKcE9yW90HVMWIf2t1vLuvxnu
SNySqySDyWnSD1glND+eHEqulJkSxxA/elD2xlWUObI3LMTFgM/C8o+BJ5pYo06Y
kx0/F0yb8SW2hOziPUWc1r5KsIBO5oa7Nbil
-----END CERTIFICATE-----
