Certificate:
    Data:
        Version: 3 (0x2)
        Serial Number:
            dc:74:da:75:d9:3a:5b:93:05:30:eb:0b:8b:7b:23:76
        Signature Algorithm: sha256WithRSAEncryption
        Issuer: CN=team163-net
        Validity
            Not Before: Sep 13 00:11:43 2021 GMT
            Not After : Aug 28 00:11:43 2024 GMT
        Subject: CN=team163-server
        Subject Public Key Info:
            Public Key Algorithm: rsaEncryption
                RSA Public-Key: (2048 bit)
                Modulus:
                    00:ee:b1:29:92:dc:c7:4c:e6:93:8f:b0:a9:b5:69:
                    57:b3:a1:36:99:4d:bd:b5:e7:31:11:17:68:d1:75:
                    15:29:3f:9c:fb:77:41:e1:db:64:7f:37:d0:d9:65:
                    bc:21:cc:53:c7:9b:bd:09:cc:62:e3:70:47:18:39:
                    f7:4d:0a:51:f6:2a:ec:0e:b5:74:c0:3a:b6:f6:c6:
                    2e:11:c4:7d:f9:1d:80:cc:5a:c1:d7:f1:8b:c3:fc:
                    4e:f2:9d:8a:8d:97:0c:67:e5:16:ee:4f:f0:cc:1d:
                    7f:33:13:7c:f7:d3:4e:3b:63:29:9e:4d:c3:de:10:
                    37:80:97:f2:2c:bd:c2:0f:61:0b:25:f7:b3:96:70:
                    23:9c:42:5e:c7:f0:94:db:9c:7c:fe:19:f4:69:5c:
                    51:e3:f7:f0:f4:2b:35:2f:b1:43:3e:ea:5a:d7:7b:
                    5c:cb:04:c4:a2:33:57:63:59:59:a8:06:5b:34:cc:
                    c1:28:34:b4:60:39:aa:5a:42:71:df:2a:0b:9f:37:
                    a3:ed:92:4c:3a:13:de:0c:58:60:3a:61:9a:78:1f:
                    bc:e5:2f:4d:7c:f8:0b:f1:f2:5a:29:9b:d6:db:7f:
                    a5:f0:3a:7c:74:50:9a:06:ed:2f:1b:26:2c:7b:aa:
                    20:f4:19:eb:f4:16:0c:c8:11:da:48:30:41:4e:ad:
                    cf:41
                Exponent: 65537 (0x10001)
        X509v3 extensions:
            X509v3 Basic Constraints: 
                CA:FALSE
            X509v3 Subject Key Identifier: 
                AB:62:A1:55:AD:AC:23:3D:AD:16:53:1C:62:D0:9C:F1:69:D3:B7:5A
            X509v3 Authority Key Identifier: 
                keyid:48:16:C3:36:51:9F:66:34:CD:1F:C5:21:94:F8:FF:E2:26:C8:5A:AE
                DirName:/CN=team163-net
                serial:36:C3:E3:40:4D:3A:48:6A:2C:74:8D:11:F1:9D:84:7C:65:E6:AA:C0

            X509v3 Extended Key Usage: 
                TLS Web Server Authentication
            X509v3 Key Usage: 
                Digital Signature, Key Encipherment
            X509v3 Subject Alternative Name: 
                DNS:team163-server
    Signature Algorithm: sha256WithRSAEncryption
         87:69:90:31:b1:62:3e:64:a4:73:f9:c1:ef:9f:58:9e:4b:a5:
         bb:37:f7:d6:15:b9:ef:f5:df:e6:d1:0b:c3:92:9c:16:2d:61:
         12:92:0e:2f:c4:9f:aa:aa:a5:29:a3:17:c6:02:bd:cd:ff:81:
         44:15:ca:50:24:7b:cb:b6:a9:8f:74:50:bf:de:09:6b:8a:d5:
         bb:96:3d:b1:3b:99:b1:1e:c5:d5:67:6c:4f:b5:72:d5:5b:8b:
         c2:dc:08:bf:53:6c:d0:4a:b5:d9:26:f8:3f:5a:b0:bf:30:b5:
         7b:51:84:1e:7a:b7:e0:8f:83:8a:e6:1a:19:e7:8b:4b:3b:01:
         b1:9f:91:1b:e6:f4:f1:8b:c8:42:14:d3:7d:55:d7:e6:da:b3:
         4c:3c:ba:c5:cf:3c:41:49:9b:9c:32:59:f0:90:16:a9:1c:40:
         59:92:14:5e:96:ee:60:f9:4d:20:b6:34:54:87:44:75:de:84:
         91:f9:6e:ef:6b:2f:24:f5:64:8a:c8:74:8e:81:70:41:13:52:
         19:eb:0b:4a:96:66:a1:f2:9e:30:7f:76:e8:a8:4f:4e:0a:71:
         2b:15:0a:15:a0:dc:b1:13:13:bc:15:aa:de:1d:d5:c5:b2:9f:
         b2:b2:9c:78:b2:27:f5:e0:f4:d4:4a:dc:5e:c0:f0:9f:0e:31:
         40:96:da:0b
-----BEGIN CERTIFICATE-----
MIIDeDCCAmCgAwIBAgIRANx02nXZOluTBTDrC4t7I3YwDQYJKoZIhvcNAQELBQAw
FjEUMBIGA1UEAwwLdGVhbTE2My1uZXQwHhcNMjEwOTEzMDAxMTQzWhcNMjQwODI4
MDAxMTQzWjAZMRcwFQYDVQQDDA50ZWFtMTYzLXNlcnZlcjCCASIwDQYJKoZIhvcN
AQEBBQADggEPADCCAQoCggEBAO6xKZLcx0zmk4+wqbVpV7OhNplNvbXnMREXaNF1
FSk/nPt3QeHbZH830NllvCHMU8ebvQnMYuNwRxg5900KUfYq7A61dMA6tvbGLhHE
ffkdgMxawdfxi8P8TvKdio2XDGflFu5P8MwdfzMTfPfTTjtjKZ5Nw94QN4CX8iy9
wg9hCyX3s5ZwI5xCXsfwlNucfP4Z9GlcUeP38PQrNS+xQz7qWtd7XMsExKIzV2NZ
WagGWzTMwSg0tGA5qlpCcd8qC583o+2STDoT3gxYYDphmngfvOUvTXz4C/HyWimb
1tt/pfA6fHRQmgbtLxsmLHuqIPQZ6/QWDMgR2kgwQU6tz0ECAwEAAaOBvTCBujAJ
BgNVHRMEAjAAMB0GA1UdDgQWBBSrYqFVrawjPa0WUxxi0JzxadO3WjBRBgNVHSME
SjBIgBRIFsM2UZ9mNM0fxSGU+P/iJsharqEapBgwFjEUMBIGA1UEAwwLdGVhbTE2
My1uZXSCFDbD40BNOkhqLHSNEfGdhHxl5qrAMBMGA1UdJQQMMAoGCCsGAQUFBwMB
MAsGA1UdDwQEAwIFoDAZBgNVHREEEjAQgg50ZWFtMTYzLXNlcnZlcjANBgkqhkiG
9w0BAQsFAAOCAQEAh2mQMbFiPmSkc/nB759Ynkuluzf31hW57/Xf5tELw5KcFi1h
EpIOL8SfqqqlKaMXxgK9zf+BRBXKUCR7y7apj3RQv94Ja4rVu5Y9sTuZsR7F1Wds
T7Vy1VuLwtwIv1Ns0Eq12Sb4P1qwvzC1e1GEHnq34I+DiuYaGeeLSzsBsZ+RG+b0
8YvIQhTTfVXX5tqzTDy6xc88QUmbnDJZ8JAWqRxAWZIUXpbuYPlNILY0VIdEdd6E
kflu72svJPVkish0joFwQRNSGesLSpZmofKeMH926KhPTgpxKxUKFaDcsRMTvBWq
3h3VxbKfsrKceLIn9eD01ErcXsDwnw4xQJbaCw==
-----END CERTIFICATE-----
