Certificate:
    Data:
        Version: 3 (0x2)
        Serial Number:
            ed:87:6a:ee:3d:32:5c:00:2d:0e:24:aa:d3:e0:a3:82
        Signature Algorithm: sha256WithRSAEncryption
        Issuer: CN=team455-net
        Validity
            Not Before: Sep 13 02:44:44 2021 GMT
            Not After : Aug 28 02:44:44 2024 GMT
        Subject: CN=team455-client
        Subject Public Key Info:
            Public Key Algorithm: rsaEncryption
                RSA Public-Key: (2048 bit)
                Modulus:
                    00:cb:67:db:85:92:cc:89:2e:46:0c:5f:f2:83:54:
                    f6:0d:45:55:e2:3c:c7:ac:65:ca:4d:72:e8:5d:6c:
                    0c:8e:c9:02:69:55:7d:16:bc:d9:58:e3:a2:1c:fa:
                    72:3d:7e:5e:b9:b3:aa:30:a6:ac:05:f4:e8:41:48:
                    e4:8e:a9:7a:e2:53:93:5d:b8:d5:c6:a9:04:9f:8b:
                    f8:20:60:a7:23:57:90:5b:22:54:73:54:dd:7c:28:
                    9e:c4:77:90:ea:fa:76:7e:f5:f9:57:12:94:7e:df:
                    92:ca:9d:21:76:5e:c2:71:72:5d:7c:f4:9e:b3:3d:
                    4f:9b:34:d5:48:b7:f1:40:13:45:63:97:da:61:72:
                    55:0b:79:66:da:22:ae:07:f7:72:a9:ee:d2:fc:bf:
                    98:c5:2c:d8:74:90:fe:c7:b4:7f:94:53:d9:89:10:
                    f4:46:bd:94:b8:f1:b3:41:66:31:41:86:75:0f:e4:
                    e6:94:78:a1:c2:51:ba:f1:50:93:69:31:7d:a4:a4:
                    45:52:e1:69:47:c4:4b:a8:03:e4:e8:7c:e9:25:76:
                    d1:c6:93:09:8f:f3:1a:57:ef:db:fb:70:b0:90:d2:
                    e0:11:58:dd:df:e3:ce:e2:6f:e4:09:6c:8a:60:aa:
                    99:5c:a9:2c:6b:5d:ce:c2:ac:cb:63:e3:f9:b7:f8:
                    4a:03
                Exponent: 65537 (0x10001)
        X509v3 extensions:
            X509v3 Basic Constraints: 
                CA:FALSE
            X509v3 Subject Key Identifier: 
                F8:86:C0:A6:F0:60:B2:F1:B9:73:17:9C:A1:FC:09:56:16:E9:DA:1F
            X509v3 Authority Key Identifier: 
                keyid:A1:34:E0:00:3B:87:11:FF:98:FF:27:18:39:91:30:E6:90:BA:9D:07
                DirName:/CN=team455-net
                serial:3A:92:7E:13:8F:95:9B:05:77:34:BA:8D:8C:80:19:22:F8:B5:81:F7

            X509v3 Extended Key Usage: 
                TLS Web Client Authentication
            X509v3 Key Usage: 
                Digital Signature
    Signature Algorithm: sha256WithRSAEncryption
         9d:3d:ef:33:89:6d:98:6a:5b:4e:2f:0a:e4:51:96:78:b8:b7:
         d3:be:e3:94:56:ad:8f:a3:79:ce:8f:8b:50:06:37:a4:d6:df:
         e5:ea:33:02:05:ea:ff:6d:3e:29:d3:ff:b3:03:81:44:e5:fa:
         45:8f:10:5f:76:b2:53:da:64:ef:88:c7:d5:d6:bb:c1:99:af:
         5d:62:14:a4:5c:cb:f1:ba:67:d1:a3:7e:80:f0:51:aa:d5:09:
         8c:77:9d:e9:db:74:4c:dd:9a:fa:24:ba:2e:9f:86:4b:10:07:
         94:e4:75:47:10:65:ba:4f:cf:b1:4e:62:1b:6e:65:10:bf:33:
         4c:53:01:40:0e:8f:38:67:28:4f:ee:23:4e:6f:4b:7f:3c:ce:
         d6:0d:6d:2c:68:d3:19:f7:92:f9:7d:82:69:ba:fa:e1:11:f3:
         88:e8:a5:5e:51:15:68:fb:b9:db:76:fb:20:a3:4d:ee:f7:f5:
         30:df:31:23:1a:47:ec:4c:7c:6f:0a:22:85:d9:30:dc:a0:70:
         35:a2:15:46:4e:27:b2:7b:6b:8c:4d:c5:46:3b:5a:12:31:a2:
         ec:78:4c:7a:8e:13:c1:43:c5:8c:31:b3:38:97:5b:5c:56:2a:
         d5:5e:72:be:98:32:0d:a6:d4:45:83:51:ff:b3:5a:e5:5d:fa:
         37:39:8e:e0
-----BEGIN CERTIFICATE-----
MIIDXTCCAkWgAwIBAgIRAO2Hau49MlwALQ4kqtPgo4IwDQYJKoZIhvcNAQELBQAw
FjEUMBIGA1UEAwwLdGVhbTQ1NS1uZXQwHhcNMjEwOTEzMDI0NDQ0WhcNMjQwODI4
MDI0NDQ0WjAZMRcwFQYDVQQDDA50ZWFtNDU1LWNsaWVudDCCASIwDQYJKoZIhvcN
AQEBBQADggEPADCCAQoCggEBAMtn24WSzIkuRgxf8oNU9g1FVeI8x6xlyk1y6F1s
DI7JAmlVfRa82Vjjohz6cj1+XrmzqjCmrAX06EFI5I6peuJTk1241capBJ+L+CBg
pyNXkFsiVHNU3XwonsR3kOr6dn71+VcSlH7fksqdIXZewnFyXXz0nrM9T5s01Ui3
8UATRWOX2mFyVQt5Ztoirgf3cqnu0vy/mMUs2HSQ/se0f5RT2YkQ9Ea9lLjxs0Fm
MUGGdQ/k5pR4ocJRuvFQk2kxfaSkRVLhaUfES6gD5Oh86SV20caTCY/zGlfv2/tw
sJDS4BFY3d/jzuJv5AlsimCqmVypLGtdzsKsy2Pj+bf4SgMCAwEAAaOBojCBnzAJ
BgNVHRMEAjAAMB0GA1UdDgQWBBT4hsCm8GCy8blzF5yh/AlWFunaHzBRBgNVHSME
SjBIgBShNOAAO4cR/5j/Jxg5kTDmkLqdB6EapBgwFjEUMBIGA1UEAwwLdGVhbTQ1
NS1uZXSCFDqSfhOPlZsFdzS6jYyAGSL4tYH3MBMGA1UdJQQMMAoGCCsGAQUFBwMC
MAsGA1UdDwQEAwIHgDANBgkqhkiG9w0BAQsFAAOCAQEAnT3vM4ltmGpbTi8K5FGW
eLi3077jlFatj6N5zo+LUAY3pNbf5eozAgXq/20+KdP/swOBROX6RY8QX3ayU9pk
74jH1da7wZmvXWIUpFzL8bpn0aN+gPBRqtUJjHed6dt0TN2a+iS6Lp+GSxAHlOR1
RxBluk/PsU5iG25lEL8zTFMBQA6POGcoT+4jTm9LfzzO1g1tLGjTGfeS+X2Cabr6
4RHziOilXlEVaPu523b7IKNN7vf1MN8xIxpH7Ex8bwoihdkw3KBwNaIVRk4nsntr
jE3FRjtaEjGi7HhMeo4TwUPFjDGzOJdbXFYq1V5yvpgyDabURYNR/7Na5V36NzmO
4A==
-----END CERTIFICATE-----
