Certificate:
    Data:
        Version: 3 (0x2)
        Serial Number:
            c1:bd:4d:8d:61:29:1d:c5:34:0f:09:f9:ab:67:16:4f
        Signature Algorithm: sha256WithRSAEncryption
        Issuer: CN=team676-net
        Validity
            Not Before: Sep 13 05:07:27 2021 GMT
            Not After : Aug 28 05:07:27 2024 GMT
        Subject: CN=team676-client
        Subject Public Key Info:
            Public Key Algorithm: rsaEncryption
                RSA Public-Key: (2048 bit)
                Modulus:
                    00:e6:e6:0c:96:13:2f:19:0e:f3:48:cf:cc:48:94:
                    74:7e:70:3b:b9:b7:96:2c:42:b9:0f:ad:df:33:97:
                    bc:dd:80:bd:a7:d2:13:26:39:58:54:a6:08:4c:4a:
                    54:91:f5:9a:f5:72:6b:86:9f:76:d1:6c:75:89:ef:
                    e1:c8:72:f3:20:60:66:23:a5:e0:9e:43:28:36:58:
                    52:89:0f:70:a2:56:da:00:fa:80:8c:fb:3f:92:8e:
                    f2:db:ce:7c:f7:62:f0:5f:2c:5b:aa:76:c2:4b:1e:
                    1a:c2:c0:2a:d9:3f:46:a1:63:4c:bf:49:f4:e2:c8:
                    db:ac:a3:ff:d8:2e:a7:ef:98:25:db:5f:94:35:ac:
                    0c:dd:8f:8b:e0:ff:75:88:e1:1f:04:86:31:a7:8f:
                    76:1c:96:17:40:c0:b3:29:b3:c6:62:16:21:29:0d:
                    82:f7:99:26:44:a9:ea:1b:bb:a0:f3:cc:ce:b0:c8:
                    dd:0d:60:7a:86:35:1e:43:0c:a2:4e:36:29:16:15:
                    27:ae:b1:0d:c1:90:41:bc:cb:1a:4d:39:12:a0:bb:
                    ac:27:45:b2:e4:83:6a:79:a8:e5:77:9c:30:18:50:
                    3b:92:c7:33:3c:56:10:fb:cf:54:47:9f:7f:87:b4:
                    ff:8d:72:f1:95:8d:06:9e:90:57:27:dd:46:4d:91:
                    dd:fd
                Exponent: 65537 (0x10001)
        X509v3 extensions:
            X509v3 Basic Constraints: 
                CA:FALSE
            X509v3 Subject Key Identifier: 
                96:2E:D3:BA:F4:EE:3B:E3:93:9E:00:CD:C2:C0:FB:B2:05:AC:FF:BC
            X509v3 Authority Key Identifier: 
                keyid:D6:F8:8E:9A:F0:68:FB:E7:7D:FF:A6:7D:73:BC:D2:6E:97:0A:78:4A
                DirName:/CN=team676-net
                serial:71:3B:31:7C:C6:19:4B:50:5D:4A:57:00:E8:F9:2B:AC:F3:C8:80:30

            X509v3 Extended Key Usage: 
                TLS Web Client Authentication
            X509v3 Key Usage: 
                Digital Signature
    Signature Algorithm: sha256WithRSAEncryption
         97:b9:f9:d7:fc:79:b8:29:6e:3f:8a:26:fe:35:38:a8:11:3c:
         f2:d5:0a:1c:6a:3d:61:1b:10:23:1c:be:42:1a:03:f9:c3:ec:
         a0:30:f0:f5:d6:c1:81:98:29:39:cd:f4:89:68:d4:50:33:fc:
         5e:92:3d:f4:31:48:b0:97:b0:87:f2:61:29:5b:28:c4:52:8d:
         73:03:35:e7:be:80:16:b7:07:50:88:a3:d8:36:17:32:cc:b4:
         8e:7f:da:55:20:45:14:a8:93:ae:65:12:6a:c3:8d:8f:89:6d:
         71:68:f3:3e:ef:3e:ce:d0:1d:fa:0b:7b:35:da:b4:50:c9:b8:
         41:87:73:11:a5:6a:76:16:27:aa:fa:7c:7e:c7:2b:42:f3:c0:
         ca:62:3c:0b:91:41:62:9d:01:7e:26:b1:9f:70:73:53:1d:65:
         37:6e:07:22:74:e8:15:da:9d:7e:bc:56:20:74:88:b8:0d:59:
         a2:e2:df:99:e9:f1:e6:89:b6:b5:6c:27:26:66:dd:e6:33:82:
         e5:dc:d2:fc:04:f8:3b:be:b3:5f:0b:f2:58:9b:8d:54:68:49:
         df:25:18:be:17:1a:dd:46:68:f3:aa:b1:ca:6c:f5:93:a1:e1:
         3c:a4:96:e9:39:3b:03:c7:ca:97:d6:3f:f3:40:71:69:5f:26:
         ef:f7:f7:65
-----BEGIN CERTIFICATE-----
MIIDXTCCAkWgAwIBAgIRAMG9TY1hKR3FNA8J+atnFk8wDQYJKoZIhvcNAQELBQAw
FjEUMBIGA1UEAwwLdGVhbTY3Ni1uZXQwHhcNMjEwOTEzMDUwNzI3WhcNMjQwODI4
MDUwNzI3WjAZMRcwFQYDVQQDDA50ZWFtNjc2LWNsaWVudDCCASIwDQYJKoZIhvcN
AQEBBQADggEPADCCAQoCggEBAObmDJYTLxkO80jPzEiUdH5wO7m3lixCuQ+t3zOX
vN2AvafSEyY5WFSmCExKVJH1mvVya4afdtFsdYnv4chy8yBgZiOl4J5DKDZYUokP
cKJW2gD6gIz7P5KO8tvOfPdi8F8sW6p2wkseGsLAKtk/RqFjTL9J9OLI26yj/9gu
p++YJdtflDWsDN2Pi+D/dYjhHwSGMaePdhyWF0DAsymzxmIWISkNgveZJkSp6hu7
oPPMzrDI3Q1geoY1HkMMok42KRYVJ66xDcGQQbzLGk05EqC7rCdFsuSDanmo5Xec
MBhQO5LHMzxWEPvPVEeff4e0/41y8ZWNBp6QVyfdRk2R3f0CAwEAAaOBojCBnzAJ
BgNVHRMEAjAAMB0GA1UdDgQWBBSWLtO69O4745OeAM3CwPuyBaz/vDBRBgNVHSME
SjBIgBTW+I6a8Gj7533/pn1zvNJulwp4SqEapBgwFjEUMBIGA1UEAwwLdGVhbTY3
Ni1uZXSCFHE7MXzGGUtQXUpXAOj5K6zzyIAwMBMGA1UdJQQMMAoGCCsGAQUFBwMC
MAsGA1UdDwQEAwIHgDANBgkqhkiG9w0BAQsFAAOCAQEAl7n51/x5uCluP4om/jU4
qBE88tUKHGo9YRsQIxy+QhoD+cPsoDDw9dbBgZgpOc30iWjUUDP8XpI99DFIsJew
h/JhKVsoxFKNcwM1576AFrcHUIij2DYXMsy0jn/aVSBFFKiTrmUSasONj4ltcWjz
Pu8+ztAd+gt7Ndq0UMm4QYdzEaVqdhYnqvp8fscrQvPAymI8C5FBYp0Bfiaxn3Bz
Ux1lN24HInToFdqdfrxWIHSIuA1ZouLfmenx5om2tWwnJmbd5jOC5dzS/AT4O76z
XwvyWJuNVGhJ3yUYvhca3UZo86qxymz1k6HhPKSW6Tk7A8fKl9Y/80BxaV8m7/f3
ZQ==
-----END CERTIFICATE-----
