Certificate:
    Data:
        Version: 3 (0x2)
        Serial Number:
            3d:b4:75:70:34:e8:a7:6d:bf:21:0d:ce:80:b7:57:c4
        Signature Algorithm: sha256WithRSAEncryption
        Issuer: CN=team45-net
        Validity
            Not Before: Sep 12 23:06:36 2021 GMT
            Not After : Aug 27 23:06:36 2024 GMT
        Subject: CN=team45-server
        Subject Public Key Info:
            Public Key Algorithm: rsaEncryption
                RSA Public-Key: (2048 bit)
                Modulus:
                    00:e5:fe:df:17:b2:09:0c:3d:d3:e0:82:a9:cf:5f:
                    01:6a:f1:6e:63:1c:22:b8:e0:02:21:f7:cf:e3:51:
                    99:37:96:04:52:45:3c:fe:3e:65:5e:fe:88:94:9a:
                    b5:e7:20:da:ac:21:1b:9f:4d:18:c7:10:33:ce:7e:
                    db:e6:89:59:70:43:29:92:40:85:a1:78:3d:d2:8a:
                    7d:f4:0a:b7:e9:04:8e:27:bd:dd:b2:dc:1b:ea:a3:
                    ed:c4:ca:b9:78:02:3c:03:fb:d9:3e:40:5c:69:92:
                    a2:d6:11:d6:15:94:eb:fb:f1:55:af:03:79:31:bd:
                    9d:05:c6:32:c8:1f:9f:0b:4f:b0:7c:36:49:3c:3f:
                    cd:ac:b0:83:47:12:71:87:81:da:de:76:32:06:92:
                    c6:27:73:de:d5:25:b6:52:78:f2:27:ab:4d:3a:fa:
                    80:c8:10:32:e0:04:8e:6b:b3:33:8c:3c:5b:35:1b:
                    b3:39:9a:b0:7a:f3:39:ba:5f:fc:d9:49:ff:a7:e0:
                    6f:a8:b1:ef:19:96:8b:25:bd:a4:ca:3e:82:94:6f:
                    af:39:05:e7:0b:c1:a3:ed:98:eb:4e:31:c2:08:81:
                    c4:a0:92:9e:4b:8e:f1:86:61:9e:fd:72:34:a0:1f:
                    ac:0c:c8:54:21:6b:96:ec:ec:42:e4:27:ea:0d:e9:
                    b8:b1
                Exponent: 65537 (0x10001)
        X509v3 extensions:
            X509v3 Basic Constraints: 
                CA:FALSE
            X509v3 Subject Key Identifier: 
                D2:B3:32:A3:D2:6E:5A:DB:48:71:99:65:F5:05:0F:2E:0F:2A:F9:79
            X509v3 Authority Key Identifier: 
                keyid:67:54:BC:D2:76:B2:94:C8:69:F7:D6:36:34:2B:89:E1:C8:BF:5B:B6
                DirName:/CN=team45-net
                serial:4E:8E:04:45:E7:69:2A:85:D3:7E:47:47:45:DD:7C:85:C1:25:52:6A

            X509v3 Extended Key Usage: 
                TLS Web Server Authentication
            X509v3 Key Usage: 
                Digital Signature, Key Encipherment
            X509v3 Subject Alternative Name: 
                DNS:team45-server
    Signature Algorithm: sha256WithRSAEncryption
         54:4c:54:69:42:77:32:cc:3a:d4:7a:56:21:61:16:dc:5f:c8:
         7b:9d:aa:d2:d7:3c:48:42:b7:40:5c:86:f1:b6:cf:57:77:88:
         b4:d2:d9:46:ab:8d:42:ff:89:9a:36:20:ad:ed:5d:73:39:e4:
         b9:dd:41:cb:f3:01:27:52:c3:bb:c0:58:70:b6:3b:cf:6a:77:
         3f:41:8b:36:a4:72:0f:ea:52:7c:08:6f:3d:d0:3f:a6:06:83:
         42:68:38:db:e6:76:d8:15:9d:08:4d:e4:e0:9c:3c:f2:1e:9c:
         f9:d5:cb:03:0a:f7:68:ee:8c:c3:01:d0:59:1b:20:09:e6:31:
         50:cc:d7:d8:66:47:5b:95:ba:a2:60:96:50:64:7e:ea:9f:aa:
         4c:30:a6:0c:d2:52:d4:d9:48:94:bb:6f:10:84:ff:a7:4a:78:
         06:f3:d5:53:3b:4b:8f:d7:83:a7:41:0c:44:3b:a8:fa:4a:6d:
         e1:e1:27:fe:4f:55:59:d8:ed:ae:d9:fb:de:38:63:b7:4c:20:
         d6:f8:61:ee:1e:ec:81:2c:82:0b:8b:7b:bf:d6:a5:d9:a2:bf:
         58:7b:d8:6d:93:54:38:76:c5:f3:e2:c7:2f:b3:f9:34:bb:36:
         52:47:4f:34:a9:0c:9e:30:fb:03:df:be:9f:a5:39:d1:50:31:
         95:a6:cb:e9
-----BEGIN CERTIFICATE-----
MIIDczCCAlugAwIBAgIQPbR1cDTop22/IQ3OgLdXxDANBgkqhkiG9w0BAQsFADAV
MRMwEQYDVQQDDAp0ZWFtNDUtbmV0MB4XDTIxMDkxMjIzMDYzNloXDTI0MDgyNzIz
MDYzNlowGDEWMBQGA1UEAwwNdGVhbTQ1LXNlcnZlcjCCASIwDQYJKoZIhvcNAQEB
BQADggEPADCCAQoCggEBAOX+3xeyCQw90+CCqc9fAWrxbmMcIrjgAiH3z+NRmTeW
BFJFPP4+ZV7+iJSatecg2qwhG59NGMcQM85+2+aJWXBDKZJAhaF4PdKKffQKt+kE
jie93bLcG+qj7cTKuXgCPAP72T5AXGmSotYR1hWU6/vxVa8DeTG9nQXGMsgfnwtP
sHw2STw/zaywg0cScYeB2t52MgaSxidz3tUltlJ48ierTTr6gMgQMuAEjmuzM4w8
WzUbszmasHrzObpf/NlJ/6fgb6ix7xmWiyW9pMo+gpRvrzkF5wvBo+2Y604xwgiB
xKCSnkuO8YZhnv1yNKAfrAzIVCFrluzsQuQn6g3puLECAwEAAaOBuzCBuDAJBgNV
HRMEAjAAMB0GA1UdDgQWBBTSszKj0m5a20hxmWX1BQ8uDyr5eTBQBgNVHSMESTBH
gBRnVLzSdrKUyGn31jY0K4nhyL9btqEZpBcwFTETMBEGA1UEAwwKdGVhbTQ1LW5l
dIIUTo4ERedpKoXTfkdHRd18hcElUmowEwYDVR0lBAwwCgYIKwYBBQUHAwEwCwYD
VR0PBAQDAgWgMBgGA1UdEQQRMA+CDXRlYW00NS1zZXJ2ZXIwDQYJKoZIhvcNAQEL
BQADggEBAFRMVGlCdzLMOtR6ViFhFtxfyHudqtLXPEhCt0BchvG2z1d3iLTS2Uar
jUL/iZo2IK3tXXM55LndQcvzASdSw7vAWHC2O89qdz9Bizakcg/qUnwIbz3QP6YG
g0JoONvmdtgVnQhN5OCcPPIenPnVywMK92jujMMB0FkbIAnmMVDM19hmR1uVuqJg
llBkfuqfqkwwpgzSUtTZSJS7bxCE/6dKeAbz1VM7S4/Xg6dBDEQ7qPpKbeHhJ/5P
VVnY7a7Z+944Y7dMINb4Ye4e7IEsgguLe7/Wpdmiv1h72G2TVDh2xfPixy+z+TS7
NlJHTzSpDJ4w+wPfvp+lOdFQMZWmy+k=
-----END CERTIFICATE-----
