Certificate:
    Data:
        Version: 3 (0x2)
        Serial Number:
            dd:50:cf:0c:fc:76:ea:4d:a8:10:75:df:e6:ce:ff:d2
        Signature Algorithm: sha256WithRSAEncryption
        Issuer: CN=team436-net
        Validity
            Not Before: Sep 13 02:43:42 2021 GMT
            Not After : Aug 28 02:43:42 2024 GMT
        Subject: CN=team436-client
        Subject Public Key Info:
            Public Key Algorithm: rsaEncryption
                RSA Public-Key: (2048 bit)
                Modulus:
                    00:c6:4b:f5:61:eb:4d:f9:e2:11:9c:59:15:d0:02:
                    56:65:c9:60:da:a1:e3:7d:46:fb:87:df:40:a7:c9:
                    17:ee:52:98:53:3d:80:32:1f:e9:f8:5d:b4:f0:10:
                    d6:a8:40:7e:37:c5:fa:3d:0a:10:36:45:2c:4f:f4:
                    81:ed:5a:f9:07:d9:69:eb:97:8b:1e:85:22:ba:dc:
                    89:c9:a1:f3:5b:6c:95:68:31:a6:3d:16:5e:58:b3:
                    c6:9c:f4:22:f6:6d:a1:ac:b8:33:b6:38:5f:ae:46:
                    7e:92:41:4d:ef:27:69:b0:0f:05:24:f3:33:d5:0f:
                    15:43:51:73:d9:cf:90:9f:6d:73:36:f4:f5:55:01:
                    a1:e2:b1:53:ac:ea:da:36:1e:63:35:e5:64:fe:fd:
                    af:82:44:74:29:37:1f:90:15:6a:4f:5b:b5:18:53:
                    1a:ec:a8:19:6f:4f:76:78:72:cd:9b:67:26:9f:a7:
                    e1:a4:c2:85:72:af:cb:47:34:da:99:30:08:d9:bc:
                    1c:58:2f:94:4d:57:f4:fd:3c:88:57:dd:3a:4c:7c:
                    eb:8f:e1:c2:13:ba:80:26:64:fc:5e:5b:ea:1a:26:
                    bc:b9:70:e7:ad:9d:0f:1a:a1:a3:ec:04:16:57:47:
                    83:7d:8e:d3:4f:12:7f:dc:b7:fa:53:c9:de:cd:2d:
                    f9:e3
                Exponent: 65537 (0x10001)
        X509v3 extensions:
            X509v3 Basic Constraints: 
                CA:FALSE
            X509v3 Subject Key Identifier: 
                35:D4:D2:26:D0:D8:13:0B:7D:3C:90:4A:5D:A5:9D:37:5D:68:98:67
            X509v3 Authority Key Identifier: 
                keyid:75:2E:7B:D5:67:6C:81:92:F2:C0:E1:8B:33:A3:3E:23:53:C7:AA:35
                DirName:/CN=team436-net
                serial:3F:49:19:56:2A:89:13:20:C2:E6:77:36:CD:14:2B:05:72:BE:52:D6

            X509v3 Extended Key Usage: 
                TLS Web Client Authentication
            X509v3 Key Usage: 
                Digital Signature
    Signature Algorithm: sha256WithRSAEncryption
         19:58:1a:0c:23:2d:1f:4c:c1:a4:34:c8:de:57:4f:44:2b:ee:
         48:39:5a:54:a0:f1:1f:64:1f:83:87:9e:19:00:0c:57:62:35:
         80:92:ed:6e:7d:62:cf:37:e0:a3:72:9a:89:f1:af:f5:c8:b0:
         17:c5:6d:93:43:71:44:f1:b9:48:95:bd:dc:d1:b4:c7:a1:55:
         42:99:d5:94:3b:45:8c:4b:b0:fa:d2:d7:36:54:48:c7:86:14:
         47:51:3b:60:f7:25:d7:81:e7:9e:4f:6a:ee:d3:7d:ef:af:dc:
         45:77:33:55:f1:92:6e:06:27:01:5d:27:b8:9b:b9:40:6b:33:
         72:f6:fb:8f:dc:72:70:ee:3c:3f:36:3f:48:ce:78:1a:da:0a:
         0d:57:4c:c9:31:4c:14:c2:95:74:92:c2:1c:cf:cf:88:fe:d3:
         80:03:20:33:43:86:d1:d5:e6:31:7f:9f:59:4e:e5:c9:f1:60:
         93:bb:cb:8c:b4:6f:df:6d:48:6c:f5:ad:9e:95:72:da:e5:50:
         ed:3e:4b:9a:d4:30:3d:a7:60:b3:0b:70:a8:40:78:35:5e:a6:
         5e:06:b6:39:3c:8c:79:67:3e:01:a6:b5:4e:a2:4e:e0:53:a1:
         73:77:52:dc:6d:0d:7a:7a:17:45:39:83:70:fa:28:54:3a:5e:
         77:b9:2c:e6
-----BEGIN CERTIFICATE-----
MIIDXTCCAkWgAwIBAgIRAN1Qzwz8dupNqBB13+bO/9IwDQYJKoZIhvcNAQELBQAw
FjEUMBIGA1UEAwwLdGVhbTQzNi1uZXQwHhcNMjEwOTEzMDI0MzQyWhcNMjQwODI4
MDI0MzQyWjAZMRcwFQYDVQQDDA50ZWFtNDM2LWNsaWVudDCCASIwDQYJKoZIhvcN
AQEBBQADggEPADCCAQoCggEBAMZL9WHrTfniEZxZFdACVmXJYNqh431G+4ffQKfJ
F+5SmFM9gDIf6fhdtPAQ1qhAfjfF+j0KEDZFLE/0ge1a+QfZaeuXix6FIrrcicmh
81tslWgxpj0WXlizxpz0IvZtoay4M7Y4X65GfpJBTe8nabAPBSTzM9UPFUNRc9nP
kJ9tczb09VUBoeKxU6zq2jYeYzXlZP79r4JEdCk3H5AVak9btRhTGuyoGW9Pdnhy
zZtnJp+n4aTChXKvy0c02pkwCNm8HFgvlE1X9P08iFfdOkx864/hwhO6gCZk/F5b
6homvLlw562dDxqho+wEFldHg32O008Sf9y3+lPJ3s0t+eMCAwEAAaOBojCBnzAJ
BgNVHRMEAjAAMB0GA1UdDgQWBBQ11NIm0NgTC308kEpdpZ03XWiYZzBRBgNVHSME
SjBIgBR1LnvVZ2yBkvLA4Yszoz4jU8eqNaEapBgwFjEUMBIGA1UEAwwLdGVhbTQz
Ni1uZXSCFD9JGVYqiRMgwuZ3Ns0UKwVyvlLWMBMGA1UdJQQMMAoGCCsGAQUFBwMC
MAsGA1UdDwQEAwIHgDANBgkqhkiG9w0BAQsFAAOCAQEAGVgaDCMtH0zBpDTI3ldP
RCvuSDlaVKDxH2Qfg4eeGQAMV2I1gJLtbn1izzfgo3KaifGv9ciwF8Vtk0NxRPG5
SJW93NG0x6FVQpnVlDtFjEuw+tLXNlRIx4YUR1E7YPcl14Hnnk9q7tN976/cRXcz
VfGSbgYnAV0nuJu5QGszcvb7j9xycO48PzY/SM54GtoKDVdMyTFMFMKVdJLCHM/P
iP7TgAMgM0OG0dXmMX+fWU7lyfFgk7vLjLRv321IbPWtnpVy2uVQ7T5LmtQwPadg
swtwqEB4NV6mXga2OTyMeWc+Aaa1TqJO4FOhc3dS3G0NenoXRTmDcPooVDped7ks
5g==
-----END CERTIFICATE-----
