Certificate:
    Data:
        Version: 3 (0x2)
        Serial Number:
            4f:6e:68:85:9c:34:8f:ce:d6:37:39:1d:94:2b:ad:16
        Signature Algorithm: sha256WithRSAEncryption
        Issuer: CN=team413-net
        Validity
            Not Before: Sep 13 02:25:36 2021 GMT
            Not After : Aug 28 02:25:36 2024 GMT
        Subject: CN=team413-server
        Subject Public Key Info:
            Public Key Algorithm: rsaEncryption
                RSA Public-Key: (2048 bit)
                Modulus:
                    00:e6:45:83:a6:46:f1:bc:3f:89:b5:a3:92:f3:77:
                    f4:ee:65:23:0f:6b:1c:c1:1f:0b:30:e0:07:48:53:
                    1c:a2:f3:24:d0:17:09:10:08:e8:51:ca:20:ca:1c:
                    da:c2:b2:e1:f8:42:16:d8:7a:3e:18:13:9b:87:c2:
                    1d:88:1b:3a:5a:5d:db:01:d3:17:ae:a8:52:9b:1c:
                    f7:02:05:47:d0:43:6e:47:d3:37:2e:28:89:28:ef:
                    10:2b:8c:37:57:55:5e:17:e3:43:bc:fc:56:ad:15:
                    d9:c1:5a:92:10:7e:cd:9d:5d:02:ae:3a:64:ba:9b:
                    bb:06:88:d7:de:02:fb:10:a2:c0:86:88:72:af:0c:
                    70:14:b2:0a:be:53:98:ee:c8:4b:c0:5d:11:b6:a3:
                    e9:ff:76:de:40:5d:be:e7:25:b2:98:53:0b:d6:8d:
                    61:4b:ca:f6:d0:ab:5a:9d:36:3c:06:72:fb:62:87:
                    23:f6:ae:da:d1:d6:1e:59:87:f8:6c:f0:66:34:d0:
                    c6:66:4a:34:80:d8:53:b3:05:e1:fb:01:dc:87:28:
                    00:35:c4:e4:41:09:c2:6b:6a:e5:a9:13:49:7c:7e:
                    48:a4:14:55:e9:04:33:66:04:a8:a3:f5:2b:6c:f6:
                    03:22:7f:3f:8b:59:4f:df:50:c6:37:47:e5:af:9a:
                    72:e3
                Exponent: 65537 (0x10001)
        X509v3 extensions:
            X509v3 Basic Constraints: 
                CA:FALSE
            X509v3 Subject Key Identifier: 
                73:75:73:6F:5D:9A:53:09:BD:28:21:BF:75:B4:BA:32:62:C4:B6:61
            X509v3 Authority Key Identifier: 
                keyid:8E:B4:5C:69:2D:7D:A4:D1:84:8E:CE:EB:5D:35:38:37:02:1D:54:89
                DirName:/CN=team413-net
                serial:63:93:5E:DA:CD:52:E5:A3:FE:3E:2E:B5:57:5C:00:0B:09:28:8B:F9

            X509v3 Extended Key Usage: 
                TLS Web Server Authentication
            X509v3 Key Usage: 
                Digital Signature, Key Encipherment
            X509v3 Subject Alternative Name: 
                DNS:team413-server
    Signature Algorithm: sha256WithRSAEncryption
         28:8d:b4:50:55:bc:ac:89:1c:40:bd:2d:71:12:b5:dc:e0:3c:
         cc:9c:62:f4:5a:f7:8b:ba:f9:0c:ce:7f:86:3c:e7:1a:98:ab:
         a4:39:e3:ee:e7:6c:fb:ed:17:ef:4d:64:d9:91:34:ac:49:c9:
         6f:a7:c8:c5:69:3a:8d:33:49:8b:18:e3:73:02:ee:3d:b4:ab:
         d6:e6:75:96:93:cf:2d:0f:3a:dc:34:78:27:fc:be:3c:df:e9:
         60:1e:ba:42:23:ed:a5:48:ce:32:e3:06:ed:e8:b6:20:3c:7e:
         f8:a5:8a:cc:27:17:d5:72:78:b2:ab:fd:83:5b:bf:9a:68:df:
         f5:9d:75:3c:8f:30:63:a6:a3:64:57:1b:1f:c6:97:4f:dc:3d:
         c5:e9:aa:28:85:8d:8d:46:c0:58:3c:03:08:8b:73:25:41:e3:
         d1:70:fc:47:b0:58:52:cc:0d:3b:f6:66:ec:94:9f:6b:b1:5a:
         22:6d:f8:82:a8:2c:19:a8:14:71:de:0a:49:6f:26:bc:44:2c:
         9b:d0:75:85:08:92:55:21:d6:2e:d0:3e:2a:53:da:6f:53:46:
         b0:f8:1a:ba:d3:cd:58:45:92:3e:20:b7:f5:b8:51:cb:b0:73:
         32:ab:ee:43:1e:f1:ba:25:d8:09:e3:38:a7:1f:22:2b:fb:ad:
         88:69:04:2b
-----BEGIN CERTIFICATE-----
MIIDdzCCAl+gAwIBAgIQT25ohZw0j87WNzkdlCutFjANBgkqhkiG9w0BAQsFADAW
MRQwEgYDVQQDDAt0ZWFtNDEzLW5ldDAeFw0yMTA5MTMwMjI1MzZaFw0yNDA4Mjgw
MjI1MzZaMBkxFzAVBgNVBAMMDnRlYW00MTMtc2VydmVyMIIBIjANBgkqhkiG9w0B
AQEFAAOCAQ8AMIIBCgKCAQEA5kWDpkbxvD+JtaOS83f07mUjD2scwR8LMOAHSFMc
ovMk0BcJEAjoUcogyhzawrLh+EIW2Ho+GBObh8IdiBs6Wl3bAdMXrqhSmxz3AgVH
0ENuR9M3LiiJKO8QK4w3V1VeF+NDvPxWrRXZwVqSEH7NnV0Crjpkupu7BojX3gL7
EKLAhohyrwxwFLIKvlOY7shLwF0RtqPp/3beQF2+5yWymFML1o1hS8r20KtanTY8
BnL7Yocj9q7a0dYeWYf4bPBmNNDGZko0gNhTswXh+wHchygANcTkQQnCa2rlqRNJ
fH5IpBRV6QQzZgSoo/UrbPYDIn8/i1lP31DGN0flr5py4wIDAQABo4G9MIG6MAkG
A1UdEwQCMAAwHQYDVR0OBBYEFHN1c29dmlMJvSghv3W0ujJixLZhMFEGA1UdIwRK
MEiAFI60XGktfaTRhI7O6101ODcCHVSJoRqkGDAWMRQwEgYDVQQDDAt0ZWFtNDEz
LW5ldIIUY5Ne2s1S5aP+Pi61V1wACwkoi/kwEwYDVR0lBAwwCgYIKwYBBQUHAwEw
CwYDVR0PBAQDAgWgMBkGA1UdEQQSMBCCDnRlYW00MTMtc2VydmVyMA0GCSqGSIb3
DQEBCwUAA4IBAQAojbRQVbysiRxAvS1xErXc4DzMnGL0WveLuvkMzn+GPOcamKuk
OePu52z77RfvTWTZkTSsSclvp8jFaTqNM0mLGONzAu49tKvW5nWWk88tDzrcNHgn
/L483+lgHrpCI+2lSM4y4wbt6LYgPH74pYrMJxfVcniyq/2DW7+aaN/1nXU8jzBj
pqNkVxsfxpdP3D3F6aoohY2NRsBYPAMIi3MlQePRcPxHsFhSzA079mbslJ9rsVoi
bfiCqCwZqBRx3gpJbya8RCyb0HWFCJJVIdYu0D4qU9pvU0aw+Bq6081YRZI+ILf1
uFHLsHMyq+5DHvG6JdgJ4zinHyIr+62IaQQr
-----END CERTIFICATE-----
