Certificate:
    Data:
        Version: 3 (0x2)
        Serial Number:
            dc:7b:71:d0:7a:91:44:f9:20:92:bd:c4:0c:b6:bb:46
        Signature Algorithm: sha256WithRSAEncryption
        Issuer: CN=team413-net
        Validity
            Not Before: Sep 13 02:25:35 2021 GMT
            Not After : Aug 28 02:25:35 2024 GMT
        Subject: CN=team413-client
        Subject Public Key Info:
            Public Key Algorithm: rsaEncryption
                RSA Public-Key: (2048 bit)
                Modulus:
                    00:be:23:80:d6:cb:65:ca:49:ee:e7:2a:ea:19:bb:
                    09:00:05:02:9a:c2:94:64:93:e4:43:37:fd:44:6f:
                    15:1d:f0:f2:d7:ce:7c:c8:88:b0:52:ef:35:24:8e:
                    0a:b9:ea:7f:4c:e2:d1:ca:96:7d:0c:0f:98:25:21:
                    27:d1:99:57:37:09:da:7c:3a:17:c7:4d:c7:c5:81:
                    b5:81:17:63:30:10:8c:2f:01:b9:5e:db:ed:74:16:
                    6e:18:cd:30:a7:11:3f:c2:28:77:2f:aa:8b:91:1b:
                    e9:b9:14:7d:85:78:a7:e0:3a:fb:04:63:59:d2:ba:
                    3f:5d:ea:8c:28:68:b9:ec:f5:99:27:ce:9a:1e:3b:
                    94:11:71:44:04:b2:a3:52:48:87:cc:94:b5:dc:29:
                    8a:06:ab:e8:01:58:a0:60:5e:18:6f:ae:1c:d5:d8:
                    a7:b8:82:8f:e5:67:d1:10:33:a1:d7:27:7c:03:4f:
                    b6:26:57:5b:a3:6b:7b:1b:75:2a:94:01:55:5e:52:
                    da:7c:45:46:75:8a:c7:02:e1:6a:fc:8e:83:26:da:
                    27:48:64:eb:b9:e8:37:66:05:d9:1b:a6:ba:b3:2b:
                    4d:15:b5:44:f1:97:1a:64:f9:6d:c6:52:1e:49:63:
                    cd:65:b0:a9:fe:39:d7:0c:1e:bd:36:96:ef:a2:bc:
                    ec:b5
                Exponent: 65537 (0x10001)
        X509v3 extensions:
            X509v3 Basic Constraints: 
                CA:FALSE
            X509v3 Subject Key Identifier: 
                83:A5:16:B0:B7:23:4C:F5:8A:F0:C3:4C:6C:42:EA:79:FA:8D:13:CB
            X509v3 Authority Key Identifier: 
                keyid:8E:B4:5C:69:2D:7D:A4:D1:84:8E:CE:EB:5D:35:38:37:02:1D:54:89
                DirName:/CN=team413-net
                serial:63:93:5E:DA:CD:52:E5:A3:FE:3E:2E:B5:57:5C:00:0B:09:28:8B:F9

            X509v3 Extended Key Usage: 
                TLS Web Client Authentication
            X509v3 Key Usage: 
                Digital Signature
    Signature Algorithm: sha256WithRSAEncryption
         0a:df:cd:6f:cf:3b:32:7a:59:a6:56:42:35:27:87:1e:58:7f:
         c2:f8:96:96:0a:0e:52:7d:24:ba:38:8d:bf:1c:cd:57:49:86:
         28:46:f6:40:a4:22:ea:ee:95:c4:56:9e:9e:78:f0:13:34:f0:
         20:35:28:30:76:05:c7:d9:98:f4:c1:00:7c:25:05:aa:b1:d7:
         a8:88:6d:dc:00:a6:9f:0b:b0:00:e9:0a:2a:9f:90:9f:a4:6c:
         78:d4:1e:04:eb:9a:69:62:f7:ce:41:f6:66:46:99:e4:6e:78:
         0f:4e:05:97:a9:34:3d:fa:0a:f1:0b:2d:58:1e:6c:51:59:eb:
         3a:66:11:c5:06:de:47:81:16:02:81:c4:0e:10:b9:7c:1a:fe:
         83:82:b7:58:ee:f6:bc:7f:c4:72:3d:74:c3:f5:78:0e:6f:86:
         6b:b1:c7:5c:e9:db:6b:a4:8c:23:5a:ea:8a:e6:57:e9:1e:4b:
         d1:e2:c8:1e:2d:e3:75:93:38:5d:34:72:6c:eb:ed:e0:d3:21:
         1e:2c:33:2d:7f:c3:e3:cc:3d:92:46:de:a9:f2:ac:f9:72:4d:
         ca:be:b4:91:c5:f9:1c:37:d5:8f:53:7a:ce:2b:d2:4f:f6:89:
         4f:31:a4:92:dd:4e:72:8c:ba:3f:c9:5c:1a:f1:7c:44:77:41:
         21:a1:30:a1
-----BEGIN CERTIFICATE-----
MIIDXTCCAkWgAwIBAgIRANx7cdB6kUT5IJK9xAy2u0YwDQYJKoZIhvcNAQELBQAw
FjEUMBIGA1UEAwwLdGVhbTQxMy1uZXQwHhcNMjEwOTEzMDIyNTM1WhcNMjQwODI4
MDIyNTM1WjAZMRcwFQYDVQQDDA50ZWFtNDEzLWNsaWVudDCCASIwDQYJKoZIhvcN
AQEBBQADggEPADCCAQoCggEBAL4jgNbLZcpJ7ucq6hm7CQAFAprClGST5EM3/URv
FR3w8tfOfMiIsFLvNSSOCrnqf0zi0cqWfQwPmCUhJ9GZVzcJ2nw6F8dNx8WBtYEX
YzAQjC8BuV7b7XQWbhjNMKcRP8Iody+qi5Eb6bkUfYV4p+A6+wRjWdK6P13qjCho
uez1mSfOmh47lBFxRASyo1JIh8yUtdwpigar6AFYoGBeGG+uHNXYp7iCj+Vn0RAz
odcnfANPtiZXW6Nrext1KpQBVV5S2nxFRnWKxwLhavyOgybaJ0hk67noN2YF2Rum
urMrTRW1RPGXGmT5bcZSHkljzWWwqf451wwevTaW76K87LUCAwEAAaOBojCBnzAJ
BgNVHRMEAjAAMB0GA1UdDgQWBBSDpRawtyNM9Yrww0xsQup5+o0TyzBRBgNVHSME
SjBIgBSOtFxpLX2k0YSOzutdNTg3Ah1UiaEapBgwFjEUMBIGA1UEAwwLdGVhbTQx
My1uZXSCFGOTXtrNUuWj/j4utVdcAAsJKIv5MBMGA1UdJQQMMAoGCCsGAQUFBwMC
MAsGA1UdDwQEAwIHgDANBgkqhkiG9w0BAQsFAAOCAQEACt/Nb887MnpZplZCNSeH
Hlh/wviWlgoOUn0kujiNvxzNV0mGKEb2QKQi6u6VxFaennjwEzTwIDUoMHYFx9mY
9MEAfCUFqrHXqIht3ACmnwuwAOkKKp+Qn6RseNQeBOuaaWL3zkH2ZkaZ5G54D04F
l6k0PfoK8QstWB5sUVnrOmYRxQbeR4EWAoHEDhC5fBr+g4K3WO72vH/Ecj10w/V4
Dm+Ga7HHXOnba6SMI1rqiuZX6R5L0eLIHi3jdZM4XTRybOvt4NMhHiwzLX/D48w9
kkbeqfKs+XJNyr60kcX5HDfVj1N6zivST/aJTzGkkt1Ocoy6P8lcGvF8RHdBIaEw
oQ==
-----END CERTIFICATE-----
