Certificate:
    Data:
        Version: 3 (0x2)
        Serial Number:
            06:ee:38:aa:e3:a4:a0:ca:ca:74:bc:f4:7f:6d:6b:6b
        Signature Algorithm: sha256WithRSAEncryption
        Issuer: CN=team116-net
        Validity
            Not Before: Sep 12 23:45:10 2021 GMT
            Not After : Aug 27 23:45:10 2024 GMT
        Subject: CN=team116-server
        Subject Public Key Info:
            Public Key Algorithm: rsaEncryption
                RSA Public-Key: (2048 bit)
                Modulus:
                    00:b4:4f:93:fa:13:ae:0c:09:26:57:da:ab:e4:53:
                    42:98:f9:5c:d1:0d:69:cc:c6:fb:db:62:84:03:77:
                    0c:a7:1f:2a:61:6e:84:91:49:a4:98:16:ed:4b:2d:
                    af:73:7c:2b:42:d6:63:5a:2c:06:98:77:4c:a2:0f:
                    93:d3:28:46:6c:a2:eb:99:0b:df:8e:ab:ce:5e:dc:
                    14:1b:7b:da:8d:e1:3e:0f:d1:8d:19:f7:21:25:07:
                    8f:45:b1:23:2c:09:8f:cd:b3:53:db:27:aa:9c:9f:
                    de:c2:d3:5a:42:85:a1:83:9f:75:91:0b:f3:d5:51:
                    fa:f5:a1:c4:df:ff:15:8e:68:e8:84:3d:ea:81:23:
                    e4:50:f2:dc:03:dc:ee:ad:af:be:c3:f8:16:56:e9:
                    22:f4:0a:31:2c:ac:c4:15:9d:62:d8:f3:0c:d9:a2:
                    0a:a1:90:ec:09:e3:f4:e2:a3:06:f3:59:54:cd:95:
                    a1:a7:15:84:f0:23:5f:4f:44:17:ce:38:7b:f1:92:
                    60:c6:2c:9b:8b:c6:7f:08:17:90:94:0d:a1:fe:13:
                    66:a7:f6:c3:21:f5:f9:cc:78:42:15:e1:04:5c:5d:
                    c3:9e:ea:3b:0d:e0:0c:35:80:69:59:3b:9e:0d:82:
                    38:77:21:6e:01:4e:00:b2:24:1d:50:84:19:37:9c:
                    79:c5
                Exponent: 65537 (0x10001)
        X509v3 extensions:
            X509v3 Basic Constraints: 
                CA:FALSE
            X509v3 Subject Key Identifier: 
                5D:F8:8C:66:19:79:F3:F8:A0:C2:E7:E6:0D:4F:FC:4D:1E:70:04:66
            X509v3 Authority Key Identifier: 
                keyid:12:01:A0:B3:9D:8B:E1:72:7C:45:2B:5A:99:A5:EC:D2:69:53:7F:26
                DirName:/CN=team116-net
                serial:5E:17:6F:B2:57:A3:4E:0F:7D:A9:DE:3E:53:A4:1B:0F:2F:2F:42:A4

            X509v3 Extended Key Usage: 
                TLS Web Server Authentication
            X509v3 Key Usage: 
                Digital Signature, Key Encipherment
            X509v3 Subject Alternative Name: 
                DNS:team116-server
    Signature Algorithm: sha256WithRSAEncryption
         39:31:f9:ce:48:61:6b:13:94:ab:6d:7c:e0:9c:20:a8:5d:57:
         20:56:ae:82:a6:75:e7:d5:90:02:49:5d:90:77:57:56:22:5a:
         fd:9e:cc:f7:27:12:8b:f2:c6:b7:5f:95:cc:88:bf:87:ab:fc:
         62:18:fc:de:3a:27:ac:76:5c:70:b8:ef:45:7a:42:f3:7e:54:
         4f:b9:cb:6e:e2:85:72:c6:6e:d2:da:3f:16:0c:80:76:ba:9e:
         2d:d6:f9:e0:fa:43:bd:65:04:e1:62:03:e2:ba:d9:5c:a3:fa:
         12:c1:c4:b8:c7:65:aa:0a:97:57:56:48:cb:69:fb:90:a7:2a:
         0d:cf:d0:b3:68:23:d2:44:36:b3:f2:da:96:4f:0f:79:3e:30:
         56:a0:38:9f:97:af:59:dd:d6:7d:ca:9e:78:bf:61:7c:0e:0d:
         a5:8d:26:14:65:f9:4b:d4:8d:ab:2d:8c:1d:17:25:10:51:31:
         e3:f7:92:46:ba:af:35:4e:ad:98:0f:4c:30:23:1c:29:41:4e:
         c0:0a:4d:89:ed:d8:1f:29:05:c2:5f:0b:aa:b0:7e:c0:7e:f6:
         fe:92:ea:7a:ef:88:62:d3:19:5a:6a:37:b8:90:0b:b6:56:c6:
         ec:ae:79:a2:29:e9:c5:2b:b9:cb:3f:58:96:71:39:af:85:4a:
         a9:98:6e:10
-----BEGIN CERTIFICATE-----
MIIDdzCCAl+gAwIBAgIQBu44quOkoMrKdLz0f21razANBgkqhkiG9w0BAQsFADAW
MRQwEgYDVQQDDAt0ZWFtMTE2LW5ldDAeFw0yMTA5MTIyMzQ1MTBaFw0yNDA4Mjcy
MzQ1MTBaMBkxFzAVBgNVBAMMDnRlYW0xMTYtc2VydmVyMIIBIjANBgkqhkiG9w0B
AQEFAAOCAQ8AMIIBCgKCAQEAtE+T+hOuDAkmV9qr5FNCmPlc0Q1pzMb722KEA3cM
px8qYW6EkUmkmBbtSy2vc3wrQtZjWiwGmHdMog+T0yhGbKLrmQvfjqvOXtwUG3va
jeE+D9GNGfchJQePRbEjLAmPzbNT2yeqnJ/ewtNaQoWhg591kQvz1VH69aHE3/8V
jmjohD3qgSPkUPLcA9zura++w/gWVuki9AoxLKzEFZ1i2PMM2aIKoZDsCeP04qMG
81lUzZWhpxWE8CNfT0QXzjh78ZJgxiybi8Z/CBeQlA2h/hNmp/bDIfX5zHhCFeEE
XF3Dnuo7DeAMNYBpWTueDYI4dyFuAU4AsiQdUIQZN5x5xQIDAQABo4G9MIG6MAkG
A1UdEwQCMAAwHQYDVR0OBBYEFF34jGYZefP4oMLn5g1P/E0ecARmMFEGA1UdIwRK
MEiAFBIBoLOdi+FyfEUrWpml7NJpU38moRqkGDAWMRQwEgYDVQQDDAt0ZWFtMTE2
LW5ldIIUXhdvslejTg99qd4+U6QbDy8vQqQwEwYDVR0lBAwwCgYIKwYBBQUHAwEw
CwYDVR0PBAQDAgWgMBkGA1UdEQQSMBCCDnRlYW0xMTYtc2VydmVyMA0GCSqGSIb3
DQEBCwUAA4IBAQA5MfnOSGFrE5SrbXzgnCCoXVcgVq6CpnXn1ZACSV2Qd1dWIlr9
nsz3JxKL8sa3X5XMiL+Hq/xiGPzeOiesdlxwuO9FekLzflRPuctu4oVyxm7S2j8W
DIB2up4t1vng+kO9ZQThYgPiutlco/oSwcS4x2WqCpdXVkjLafuQpyoNz9CzaCPS
RDaz8tqWTw95PjBWoDifl69Z3dZ9yp54v2F8Dg2ljSYUZflL1I2rLYwdFyUQUTHj
95JGuq81Tq2YD0wwIxwpQU7ACk2J7dgfKQXCXwuqsH7Afvb+kup674hi0xlaaje4
kAu2VsbsrnmiKenFK7nLP1iWcTmvhUqpmG4Q
-----END CERTIFICATE-----
