Certificate:
    Data:
        Version: 3 (0x2)
        Serial Number:
            97:20:15:cc:64:6a:7f:d0:c5:a6:b0:e1:c1:39:31:38
        Signature Algorithm: sha256WithRSAEncryption
        Issuer: CN=team105-net
        Validity
            Not Before: Sep 12 23:42:31 2021 GMT
            Not After : Aug 27 23:42:31 2024 GMT
        Subject: CN=team105-client
        Subject Public Key Info:
            Public Key Algorithm: rsaEncryption
                RSA Public-Key: (2048 bit)
                Modulus:
                    00:b6:ea:f9:a6:e1:11:3d:93:b2:86:b9:e9:5a:60:
                    78:e6:56:ee:d2:21:d8:5c:32:64:a0:f9:f7:52:8b:
                    a3:fe:69:37:ce:5a:00:51:03:03:cc:08:d8:97:d4:
                    12:e6:6c:5e:ee:25:af:59:69:52:77:f7:c0:75:b8:
                    76:8e:84:8d:f6:81:86:58:18:1a:87:01:1a:d4:a0:
                    8c:46:31:1c:ad:85:d9:c0:8e:e0:a6:d0:a1:fe:96:
                    d0:3c:55:6f:4c:47:63:26:0f:6d:8b:8c:02:2b:6f:
                    a8:7c:b9:94:0e:8c:56:5d:76:d3:f0:0c:80:38:37:
                    50:2a:d1:b1:14:4c:ca:21:e6:5a:4a:8d:89:64:91:
                    88:3b:83:94:5b:46:66:fd:ba:e2:bf:4d:67:4a:c0:
                    7f:8d:aa:a1:00:53:b5:61:d3:27:0b:35:b5:e1:16:
                    2b:38:d8:30:c1:b7:78:52:c7:da:1f:60:c5:cd:58:
                    5e:f7:73:0f:75:b7:37:e7:29:58:48:4f:e5:01:fa:
                    48:81:46:cd:95:0e:83:23:5b:81:9d:37:40:98:cb:
                    a9:f6:91:67:71:2f:80:9c:8c:36:7b:3c:2e:20:dc:
                    a6:99:a3:77:dc:ce:2f:2f:78:93:a5:12:ab:af:92:
                    b2:bb:be:18:01:15:b8:f5:96:c4:d0:48:57:a9:be:
                    0b:73
                Exponent: 65537 (0x10001)
        X509v3 extensions:
            X509v3 Basic Constraints: 
                CA:FALSE
            X509v3 Subject Key Identifier: 
                D5:D1:0C:CD:82:EE:92:B7:87:EA:A6:28:04:07:BB:F0:FF:1A:45:7D
            X509v3 Authority Key Identifier: 
                keyid:7A:9A:A6:90:B2:61:AD:9D:10:E0:2B:5B:D7:D5:7E:EF:A7:38:CB:10
                DirName:/CN=team105-net
                serial:66:8F:60:9F:95:A9:81:87:A4:15:BD:86:C4:B4:50:B5:D2:62:9B:42

            X509v3 Extended Key Usage: 
                TLS Web Client Authentication
            X509v3 Key Usage: 
                Digital Signature
    Signature Algorithm: sha256WithRSAEncryption
         3d:d9:c6:76:65:6b:3d:47:00:9f:1e:1a:d8:9d:ff:a9:31:dc:
         78:6c:21:a2:3f:70:a4:66:e7:73:ac:79:42:e6:3e:18:50:78:
         e5:a0:5a:ff:32:ab:4a:8f:a9:cd:11:36:12:f5:10:14:13:2d:
         a2:c1:bb:26:ac:35:35:6c:78:a7:d1:0e:ee:05:c3:7a:54:b6:
         a2:5c:0e:c4:0f:7d:f2:8a:0c:38:1b:6e:79:e2:c3:33:d4:57:
         2a:a7:4c:c4:ff:20:54:2e:3b:e9:ee:aa:53:a4:df:bf:0f:27:
         2e:16:7f:cd:d0:16:ca:4d:05:f2:e7:0a:85:20:7d:3c:76:cc:
         ac:16:b6:e3:33:63:da:10:80:bd:a8:62:aa:ea:1b:f3:c0:36:
         fe:ba:b2:2b:05:bd:76:9e:ea:58:44:a2:0f:d3:b7:b1:4f:17:
         16:81:a5:4e:31:98:6a:d5:56:d9:cb:56:74:c4:dd:f0:8e:49:
         a3:9b:7d:fd:dc:2f:6e:fb:26:de:bf:04:be:4b:50:ff:95:54:
         c4:20:3e:3b:83:05:8b:50:a2:d3:d2:4c:ff:c2:c5:06:5c:b3:
         c9:91:62:3f:8d:b3:0d:a7:d2:69:a6:83:bb:e1:a9:f3:97:0e:
         8e:e2:aa:19:af:02:5d:c2:c3:ef:b5:a7:8b:df:2b:9c:fe:85:
         cf:df:7d:e2
-----BEGIN CERTIFICATE-----
MIIDXTCCAkWgAwIBAgIRAJcgFcxkan/Qxaaw4cE5MTgwDQYJKoZIhvcNAQELBQAw
FjEUMBIGA1UEAwwLdGVhbTEwNS1uZXQwHhcNMjEwOTEyMjM0MjMxWhcNMjQwODI3
MjM0MjMxWjAZMRcwFQYDVQQDDA50ZWFtMTA1LWNsaWVudDCCASIwDQYJKoZIhvcN
AQEBBQADggEPADCCAQoCggEBALbq+abhET2Tsoa56VpgeOZW7tIh2FwyZKD591KL
o/5pN85aAFEDA8wI2JfUEuZsXu4lr1lpUnf3wHW4do6EjfaBhlgYGocBGtSgjEYx
HK2F2cCO4KbQof6W0DxVb0xHYyYPbYuMAitvqHy5lA6MVl120/AMgDg3UCrRsRRM
yiHmWkqNiWSRiDuDlFtGZv264r9NZ0rAf42qoQBTtWHTJws1teEWKzjYMMG3eFLH
2h9gxc1YXvdzD3W3N+cpWEhP5QH6SIFGzZUOgyNbgZ03QJjLqfaRZ3EvgJyMNns8
LiDcppmjd9zOLy94k6USq6+Ssru+GAEVuPWWxNBIV6m+C3MCAwEAAaOBojCBnzAJ
BgNVHRMEAjAAMB0GA1UdDgQWBBTV0QzNgu6St4fqpigEB7vw/xpFfTBRBgNVHSME
SjBIgBR6mqaQsmGtnRDgK1vX1X7vpzjLEKEapBgwFjEUMBIGA1UEAwwLdGVhbTEw
NS1uZXSCFGaPYJ+VqYGHpBW9hsS0ULXSYptCMBMGA1UdJQQMMAoGCCsGAQUFBwMC
MAsGA1UdDwQEAwIHgDANBgkqhkiG9w0BAQsFAAOCAQEAPdnGdmVrPUcAnx4a2J3/
qTHceGwhoj9wpGbnc6x5QuY+GFB45aBa/zKrSo+pzRE2EvUQFBMtosG7Jqw1NWx4
p9EO7gXDelS2olwOxA998ooMOBtueeLDM9RXKqdMxP8gVC476e6qU6Tfvw8nLhZ/
zdAWyk0F8ucKhSB9PHbMrBa24zNj2hCAvahiquob88A2/rqyKwW9dp7qWESiD9O3
sU8XFoGlTjGYatVW2ctWdMTd8I5Jo5t9/dwvbvsm3r8EvktQ/5VUxCA+O4MFi1Ci
09JM/8LFBlyzyZFiP42zDafSaaaDu+Gp85cOjuKqGa8CXcLD77Wni98rnP6Fz999
4g==
-----END CERTIFICATE-----
