Certificate:
    Data:
        Version: 3 (0x2)
        Serial Number:
            b1:fa:fb:ef:92:66:b5:5a:4d:53:a4:37:a0:07:56:04
        Signature Algorithm: sha256WithRSAEncryption
        Issuer: CN=team105-net
        Validity
            Not Before: Sep 12 23:42:31 2021 GMT
            Not After : Aug 27 23:42:31 2024 GMT
        Subject: CN=team105-server
        Subject Public Key Info:
            Public Key Algorithm: rsaEncryption
                RSA Public-Key: (2048 bit)
                Modulus:
                    00:c1:76:3f:68:8a:d7:cb:c3:78:73:7b:80:5b:99:
                    3b:e0:af:2a:2e:de:a6:c8:61:35:97:c5:00:5a:b1:
                    52:f6:db:b8:b9:a0:4f:39:11:9a:14:54:07:39:ce:
                    57:3c:75:1b:ce:4b:24:f7:01:20:7d:e8:4b:50:31:
                    d3:a2:f3:0e:50:b9:01:83:36:16:b4:ff:17:34:11:
                    81:09:7f:f9:73:41:df:47:74:4f:4f:98:09:6e:74:
                    bb:85:91:34:6a:14:e4:58:d3:03:5f:1f:72:b5:75:
                    26:61:f4:ed:af:29:4b:b7:9d:bf:18:86:a4:42:8d:
                    3f:38:72:b0:b3:24:2e:06:66:1b:d5:3a:0c:81:a9:
                    1f:f7:45:38:4e:c3:3b:95:c8:b1:bc:71:b0:00:c1:
                    f5:c7:e0:59:73:1a:75:31:d8:ea:33:ff:6d:c5:5a:
                    b0:ff:9c:13:1d:67:9c:7c:e9:45:5b:d6:41:59:a9:
                    67:54:df:1f:02:28:b8:2a:4d:35:19:9e:96:92:94:
                    72:20:05:5a:16:d0:88:b1:14:a8:b6:a3:94:6f:66:
                    b9:f6:25:ec:3d:4d:e2:54:7f:26:8c:11:a3:30:7a:
                    0c:fe:13:50:6b:b8:f4:b1:a6:2d:02:8c:32:0f:33:
                    7e:18:ec:39:85:4f:72:fb:f0:ac:8b:b6:e9:8e:cb:
                    04:9f
                Exponent: 65537 (0x10001)
        X509v3 extensions:
            X509v3 Basic Constraints: 
                CA:FALSE
            X509v3 Subject Key Identifier: 
                AA:E8:A6:E3:8D:ED:0B:76:61:BB:9E:77:12:26:17:C3:70:30:F6:A0
            X509v3 Authority Key Identifier: 
                keyid:7A:9A:A6:90:B2:61:AD:9D:10:E0:2B:5B:D7:D5:7E:EF:A7:38:CB:10
                DirName:/CN=team105-net
                serial:66:8F:60:9F:95:A9:81:87:A4:15:BD:86:C4:B4:50:B5:D2:62:9B:42

            X509v3 Extended Key Usage: 
                TLS Web Server Authentication
            X509v3 Key Usage: 
                Digital Signature, Key Encipherment
            X509v3 Subject Alternative Name: 
                DNS:team105-server
    Signature Algorithm: sha256WithRSAEncryption
         13:39:c5:e0:d0:b2:bc:fa:f4:98:3f:5a:1b:46:20:03:af:75:
         d8:86:f2:2f:94:0f:d3:05:30:ee:b1:09:75:35:49:9a:3f:5a:
         0e:11:4f:0a:7a:2e:ad:cb:81:c5:d0:6c:2b:5c:f0:b1:1d:42:
         1a:57:96:b8:dc:28:03:bc:e3:cc:4f:c0:11:52:c7:26:c9:e2:
         f2:39:1f:0c:4d:f0:81:d5:c7:98:ea:e7:85:7a:10:01:be:d1:
         2d:bd:fe:47:d4:18:cb:7a:81:61:fb:b0:05:73:af:4d:63:27:
         ec:92:4d:4c:85:e4:58:99:91:9b:89:20:b7:77:b4:0b:73:85:
         c3:e4:7d:54:ce:85:29:cb:50:57:a9:16:af:f9:0b:54:cb:38:
         20:e1:f1:c7:52:29:25:66:d1:98:61:77:54:f8:f1:31:8b:35:
         55:47:52:5e:10:78:17:3a:8a:83:30:d4:98:c9:6b:c7:1c:e2:
         e5:8b:2c:e3:8f:d5:98:24:14:d4:63:e7:1e:b3:49:9c:38:51:
         0e:d4:14:6a:70:5a:24:4a:92:5f:f5:96:43:b4:1b:19:c9:73:
         99:a5:e3:5e:a0:03:96:f6:a0:37:e5:90:a7:cc:af:c4:e0:6a:
         00:07:9f:b2:d9:8e:d7:c6:f7:cd:8a:f9:f2:09:7a:23:33:a6:
         95:15:aa:ce
-----BEGIN CERTIFICATE-----
MIIDeDCCAmCgAwIBAgIRALH6+++SZrVaTVOkN6AHVgQwDQYJKoZIhvcNAQELBQAw
FjEUMBIGA1UEAwwLdGVhbTEwNS1uZXQwHhcNMjEwOTEyMjM0MjMxWhcNMjQwODI3
MjM0MjMxWjAZMRcwFQYDVQQDDA50ZWFtMTA1LXNlcnZlcjCCASIwDQYJKoZIhvcN
AQEBBQADggEPADCCAQoCggEBAMF2P2iK18vDeHN7gFuZO+CvKi7epshhNZfFAFqx
UvbbuLmgTzkRmhRUBznOVzx1G85LJPcBIH3oS1Ax06LzDlC5AYM2FrT/FzQRgQl/
+XNB30d0T0+YCW50u4WRNGoU5FjTA18fcrV1JmH07a8pS7edvxiGpEKNPzhysLMk
LgZmG9U6DIGpH/dFOE7DO5XIsbxxsADB9cfgWXMadTHY6jP/bcVasP+cEx1nnHzp
RVvWQVmpZ1TfHwIouCpNNRmelpKUciAFWhbQiLEUqLajlG9mufYl7D1N4lR/JowR
ozB6DP4TUGu49LGmLQKMMg8zfhjsOYVPcvvwrIu26Y7LBJ8CAwEAAaOBvTCBujAJ
BgNVHRMEAjAAMB0GA1UdDgQWBBSq6Kbjje0LdmG7nncSJhfDcDD2oDBRBgNVHSME
SjBIgBR6mqaQsmGtnRDgK1vX1X7vpzjLEKEapBgwFjEUMBIGA1UEAwwLdGVhbTEw
NS1uZXSCFGaPYJ+VqYGHpBW9hsS0ULXSYptCMBMGA1UdJQQMMAoGCCsGAQUFBwMB
MAsGA1UdDwQEAwIFoDAZBgNVHREEEjAQgg50ZWFtMTA1LXNlcnZlcjANBgkqhkiG
9w0BAQsFAAOCAQEAEznF4NCyvPr0mD9aG0YgA6912IbyL5QP0wUw7rEJdTVJmj9a
DhFPCnourcuBxdBsK1zwsR1CGleWuNwoA7zjzE/AEVLHJsni8jkfDE3wgdXHmOrn
hXoQAb7RLb3+R9QYy3qBYfuwBXOvTWMn7JJNTIXkWJmRm4kgt3e0C3OFw+R9VM6F
KctQV6kWr/kLVMs4IOHxx1IpJWbRmGF3VPjxMYs1VUdSXhB4FzqKgzDUmMlrxxzi
5Yss44/VmCQU1GPnHrNJnDhRDtQUanBaJEqSX/WWQ7QbGclzmaXjXqADlvagN+WQ
p8yvxOBqAAefstmO18b3zYr58gl6IzOmlRWqzg==
-----END CERTIFICATE-----
