Certificate:
    Data:
        Version: 3 (0x2)
        Serial Number:
            85:ec:55:3f:23:df:91:85:d7:15:0a:86:36:9b:c5:69
        Signature Algorithm: sha256WithRSAEncryption
        Issuer: CN=team73-net
        Validity
            Not Before: Sep 12 23:19:50 2021 GMT
            Not After : Aug 27 23:19:50 2024 GMT
        Subject: CN=team73-server
        Subject Public Key Info:
            Public Key Algorithm: rsaEncryption
                RSA Public-Key: (2048 bit)
                Modulus:
                    00:de:9f:fe:05:31:db:15:65:ec:4a:67:66:1c:55:
                    aa:c6:b8:eb:08:46:d5:97:c3:a6:21:91:c8:1f:6d:
                    4d:9f:0c:a0:79:b9:83:48:9d:da:d0:a9:95:91:d6:
                    18:cb:8a:c5:15:2b:6d:85:69:fe:fd:40:69:84:9a:
                    13:2f:d8:26:96:c6:44:a1:9b:1e:00:e9:dd:72:8d:
                    52:0d:bc:de:25:d4:d6:5a:27:df:e4:c4:1f:de:60:
                    21:df:1c:20:0f:ac:36:f8:aa:b7:38:14:3a:0f:c5:
                    29:9e:6b:79:f3:88:77:b8:6d:58:54:de:43:b3:2a:
                    fb:f4:6f:a9:35:46:47:6f:0c:b1:76:b4:a4:d2:2d:
                    39:28:82:06:6b:62:65:68:2a:ee:54:c5:7d:39:a6:
                    36:94:18:91:28:a9:67:c4:b2:7a:66:92:90:1a:3c:
                    40:53:f5:2f:9f:54:97:f8:a5:b3:8d:8c:1e:2e:44:
                    b5:d8:62:1d:ec:87:0c:21:c7:d2:97:22:19:9c:ec:
                    07:1d:ac:8a:7c:95:63:b5:b5:63:8d:5e:d2:36:07:
                    ac:28:ff:15:f5:b1:b1:0f:bf:df:40:20:fb:8e:e2:
                    2a:47:77:2c:2e:a2:e0:be:ec:b0:8b:fc:a8:a5:4c:
                    e3:04:db:8f:bf:76:d3:5f:d3:b4:bd:55:58:5d:b1:
                    b3:95
                Exponent: 65537 (0x10001)
        X509v3 extensions:
            X509v3 Basic Constraints: 
                CA:FALSE
            X509v3 Subject Key Identifier: 
                A8:79:EB:A0:70:21:22:63:C0:D8:3E:F7:A8:30:6B:57:6D:D1:CC:EC
            X509v3 Authority Key Identifier: 
                keyid:4C:E6:2D:02:9E:DC:F9:86:92:6B:9C:0F:38:52:25:4C:9B:26:F1:C4
                DirName:/CN=team73-net
                serial:73:7E:54:16:82:33:87:FC:B7:B0:26:AB:E6:9D:DC:4C:5E:F4:C6:30

            X509v3 Extended Key Usage: 
                TLS Web Server Authentication
            X509v3 Key Usage: 
                Digital Signature, Key Encipherment
            X509v3 Subject Alternative Name: 
                DNS:team73-server
    Signature Algorithm: sha256WithRSAEncryption
         64:f2:b5:59:23:57:f2:2f:fc:51:48:d4:a5:55:a1:7d:5f:24:
         14:de:93:85:a8:ba:9d:ee:38:c1:1f:29:38:04:36:58:68:2c:
         22:3e:5f:34:f6:34:10:5c:85:3c:56:1d:49:51:d6:64:91:c9:
         bb:f8:b7:16:ff:9a:0e:6f:67:5f:7e:58:92:76:ad:39:7a:29:
         56:bf:e3:4b:c9:3e:f1:78:f4:18:6c:28:8c:1a:e5:01:b6:57:
         63:21:30:84:21:aa:93:82:da:a6:38:4f:28:70:b8:26:4b:05:
         74:46:cf:37:00:dc:c1:3d:9d:9b:88:9d:b8:d8:2b:61:c8:9b:
         5e:64:f8:df:8d:ef:af:71:cd:ed:14:32:95:7f:a6:14:55:f7:
         c5:a6:98:71:49:8f:3f:3c:b5:69:0b:75:f2:aa:7a:e7:d7:1c:
         b2:ed:a3:a7:08:13:c8:d8:fa:61:75:99:f2:03:8a:7c:be:fd:
         7d:3a:78:61:f8:24:0f:ea:c8:f1:97:92:80:ba:8c:30:a7:11:
         dc:ff:4b:74:6f:17:8d:7e:c6:d8:e3:8a:93:88:fe:f9:f9:d1:
         e9:e0:72:98:5f:23:02:85:e5:68:4f:54:fa:ee:df:53:f0:a3:
         ee:10:44:e0:64:3f:f2:b6:ff:ec:fb:21:80:0e:64:f0:03:aa:
         8a:0c:2c:62
-----BEGIN CERTIFICATE-----
MIIDdDCCAlygAwIBAgIRAIXsVT8j35GF1xUKhjabxWkwDQYJKoZIhvcNAQELBQAw
FTETMBEGA1UEAwwKdGVhbTczLW5ldDAeFw0yMTA5MTIyMzE5NTBaFw0yNDA4Mjcy
MzE5NTBaMBgxFjAUBgNVBAMMDXRlYW03My1zZXJ2ZXIwggEiMA0GCSqGSIb3DQEB
AQUAA4IBDwAwggEKAoIBAQDen/4FMdsVZexKZ2YcVarGuOsIRtWXw6YhkcgfbU2f
DKB5uYNIndrQqZWR1hjLisUVK22Faf79QGmEmhMv2CaWxkShmx4A6d1yjVINvN4l
1NZaJ9/kxB/eYCHfHCAPrDb4qrc4FDoPxSmea3nziHe4bVhU3kOzKvv0b6k1Rkdv
DLF2tKTSLTkoggZrYmVoKu5UxX05pjaUGJEoqWfEsnpmkpAaPEBT9S+fVJf4pbON
jB4uRLXYYh3shwwhx9KXIhmc7AcdrIp8lWO1tWONXtI2B6wo/xX1sbEPv99AIPuO
4ipHdywuouC+7LCL/KilTOME24+/dtNf07S9VVhdsbOVAgMBAAGjgbswgbgwCQYD
VR0TBAIwADAdBgNVHQ4EFgQUqHnroHAhImPA2D73qDBrV23RzOwwUAYDVR0jBEkw
R4AUTOYtAp7c+YaSa5wPOFIlTJsm8cShGaQXMBUxEzARBgNVBAMMCnRlYW03My1u
ZXSCFHN+VBaCM4f8t7Amq+ad3Exe9MYwMBMGA1UdJQQMMAoGCCsGAQUFBwMBMAsG
A1UdDwQEAwIFoDAYBgNVHREEETAPgg10ZWFtNzMtc2VydmVyMA0GCSqGSIb3DQEB
CwUAA4IBAQBk8rVZI1fyL/xRSNSlVaF9XyQU3pOFqLqd7jjBHyk4BDZYaCwiPl80
9jQQXIU8Vh1JUdZkkcm7+LcW/5oOb2dffliSdq05eilWv+NLyT7xePQYbCiMGuUB
tldjITCEIaqTgtqmOE8ocLgmSwV0Rs83ANzBPZ2biJ242CthyJteZPjfje+vcc3t
FDKVf6YUVffFpphxSY8/PLVpC3Xyqnrn1xyy7aOnCBPI2PphdZnyA4p8vv19Onhh
+CQP6sjxl5KAuowwpxHc/0t0bxeNfsbY44qTiP75+dHp4HKYXyMCheVoT1T67t9T
8KPuEETgZD/ytv/s+yGADmTwA6qKDCxi
-----END CERTIFICATE-----
