Certificate:
    Data:
        Version: 3 (0x2)
        Serial Number:
            b7:cd:25:10:7f:6a:22:1b:1a:8c:c2:e0:d3:94:86:2f
        Signature Algorithm: sha256WithRSAEncryption
        Issuer: CN=team10-net
        Validity
            Not Before: Sep 12 22:44:58 2021 GMT
            Not After : Aug 27 22:44:58 2024 GMT
        Subject: CN=team10-server
        Subject Public Key Info:
            Public Key Algorithm: rsaEncryption
                RSA Public-Key: (2048 bit)
                Modulus:
                    00:f1:7a:ba:2b:16:63:d2:4d:8c:13:72:15:ab:98:
                    b7:b5:10:4a:ae:37:6f:c3:68:2f:4b:89:37:35:23:
                    85:d8:fd:b4:b9:d4:42:b6:18:63:4c:84:57:48:60:
                    36:c2:ce:43:56:ab:cf:ea:c6:c0:92:3b:1d:43:46:
                    36:24:20:ac:d7:99:17:b7:58:66:ec:41:58:8d:13:
                    fa:b3:cf:e4:9a:23:4e:a2:b0:1d:58:e6:0e:42:f1:
                    de:99:f1:80:c9:67:8a:81:88:3a:40:be:f1:5e:70:
                    0f:ef:29:5c:06:fd:bb:3c:d9:2d:4f:c1:5a:ab:48:
                    8a:61:e0:b2:4a:04:a0:2e:28:97:4b:2c:d6:02:09:
                    60:c1:fb:0c:f0:fb:4a:8d:7a:f0:dc:af:cb:ee:f0:
                    91:31:2f:01:80:19:7d:47:4d:b0:92:bf:ee:d7:33:
                    64:7f:79:6f:aa:2e:00:56:eb:76:37:75:3a:4d:ec:
                    d2:82:2d:cd:4b:b2:3d:7f:82:26:9a:48:89:7a:01:
                    25:26:cb:8b:19:74:e9:d4:78:65:6b:a7:a0:27:fe:
                    49:70:7a:00:f2:36:52:00:aa:ea:f9:dc:2d:62:07:
                    35:3a:1e:c7:74:9d:b9:3a:ae:5e:be:4a:31:eb:91:
                    04:b8:cb:ed:16:8c:4f:c0:2d:51:2c:4a:33:33:b1:
                    49:41
                Exponent: 65537 (0x10001)
        X509v3 extensions:
            X509v3 Basic Constraints: 
                CA:FALSE
            X509v3 Subject Key Identifier: 
                26:7C:2E:48:2A:4D:48:D9:74:55:67:D7:CB:D5:17:0E:F0:32:41:69
            X509v3 Authority Key Identifier: 
                keyid:FD:1D:FD:8A:12:49:2D:8E:73:FE:40:A4:C8:A2:7D:31:6F:B2:C3:ED
                DirName:/CN=team10-net
                serial:32:3D:FF:01:C6:6C:3D:69:62:BB:A9:A1:58:C7:3C:C5:70:48:FB:A9

            X509v3 Extended Key Usage: 
                TLS Web Server Authentication
            X509v3 Key Usage: 
                Digital Signature, Key Encipherment
            X509v3 Subject Alternative Name: 
                DNS:team10-server
    Signature Algorithm: sha256WithRSAEncryption
         5a:f1:09:f2:42:61:cb:b1:86:2e:8c:b5:2a:2f:d3:a5:b1:6e:
         4a:c6:78:e2:49:ee:66:5a:89:22:2a:51:1d:39:aa:15:a2:35:
         ae:58:85:6c:c9:29:3c:7d:79:f1:96:31:1f:3f:38:0f:19:c2:
         7b:17:7e:29:a8:8a:42:b8:f5:5e:ed:9a:08:d7:73:79:eb:8b:
         02:db:41:89:ea:c5:a4:ae:70:e3:ea:0c:01:d7:df:7a:10:74:
         2c:28:bc:af:9a:db:91:a5:34:db:89:f9:cc:67:0f:80:49:43:
         fb:03:4c:21:01:05:bb:dd:5e:49:b1:88:e8:12:83:fc:9e:a1:
         4b:a5:5f:fc:66:7d:4c:f1:2a:77:22:67:e6:e4:60:b0:02:eb:
         8e:b0:e2:11:fe:3c:54:13:c8:46:30:dc:55:6d:8f:43:13:35:
         7c:29:1e:1f:2c:c0:8f:a1:f2:e1:1f:a4:f1:1a:41:21:8a:ee:
         bb:a3:07:9c:d5:18:23:78:d0:98:bb:5e:d6:df:9b:c9:e7:57:
         92:a1:20:83:e6:45:51:4b:93:bf:c2:8d:45:bf:96:24:6c:6b:
         00:93:f7:15:39:4f:8e:8f:12:f6:fc:f7:15:48:71:37:3d:36:
         58:00:56:da:32:79:1d:20:3c:46:9e:59:6d:2e:63:bf:77:90:
         e7:c8:1c:5a
-----BEGIN CERTIFICATE-----
MIIDdDCCAlygAwIBAgIRALfNJRB/aiIbGozC4NOUhi8wDQYJKoZIhvcNAQELBQAw
FTETMBEGA1UEAwwKdGVhbTEwLW5ldDAeFw0yMTA5MTIyMjQ0NThaFw0yNDA4Mjcy
MjQ0NThaMBgxFjAUBgNVBAMMDXRlYW0xMC1zZXJ2ZXIwggEiMA0GCSqGSIb3DQEB
AQUAA4IBDwAwggEKAoIBAQDxerorFmPSTYwTchWrmLe1EEquN2/DaC9LiTc1I4XY
/bS51EK2GGNMhFdIYDbCzkNWq8/qxsCSOx1DRjYkIKzXmRe3WGbsQViNE/qzz+Sa
I06isB1Y5g5C8d6Z8YDJZ4qBiDpAvvFecA/vKVwG/bs82S1PwVqrSIph4LJKBKAu
KJdLLNYCCWDB+wzw+0qNevDcr8vu8JExLwGAGX1HTbCSv+7XM2R/eW+qLgBW63Y3
dTpN7NKCLc1Lsj1/giaaSIl6ASUmy4sZdOnUeGVrp6An/klwegDyNlIAqur53C1i
BzU6Hsd0nbk6rl6+SjHrkQS4y+0WjE/ALVEsSjMzsUlBAgMBAAGjgbswgbgwCQYD
VR0TBAIwADAdBgNVHQ4EFgQUJnwuSCpNSNl0VWfXy9UXDvAyQWkwUAYDVR0jBEkw
R4AU/R39ihJJLY5z/kCkyKJ9MW+yw+2hGaQXMBUxEzARBgNVBAMMCnRlYW0xMC1u
ZXSCFDI9/wHGbD1pYrupoVjHPMVwSPupMBMGA1UdJQQMMAoGCCsGAQUFBwMBMAsG
A1UdDwQEAwIFoDAYBgNVHREEETAPgg10ZWFtMTAtc2VydmVyMA0GCSqGSIb3DQEB
CwUAA4IBAQBa8QnyQmHLsYYujLUqL9OlsW5KxnjiSe5mWokiKlEdOaoVojWuWIVs
ySk8fXnxljEfPzgPGcJ7F34pqIpCuPVe7ZoI13N564sC20GJ6sWkrnDj6gwB1996
EHQsKLyvmtuRpTTbifnMZw+ASUP7A0whAQW73V5JsYjoEoP8nqFLpV/8Zn1M8Sp3
Imfm5GCwAuuOsOIR/jxUE8hGMNxVbY9DEzV8KR4fLMCPofLhH6TxGkEhiu67owec
1RgjeNCYu17W35vJ51eSoSCD5kVRS5O/wo1Fv5YkbGsAk/cVOU+OjxL2/PcVSHE3
PTZYAFbaMnkdIDxGnlltLmO/d5DnyBxa
-----END CERTIFICATE-----
