Certificate:
    Data:
        Version: 3 (0x2)
        Serial Number:
            2f:1d:f8:c7:93:d3:98:d0:dc:77:0d:52:5c:55:88:a4
        Signature Algorithm: sha256WithRSAEncryption
        Issuer: CN=team348-net
        Validity
            Not Before: Sep 13 01:57:53 2021 GMT
            Not After : Aug 28 01:57:53 2024 GMT
        Subject: CN=team348-server
        Subject Public Key Info:
            Public Key Algorithm: rsaEncryption
                RSA Public-Key: (2048 bit)
                Modulus:
                    00:d8:ab:40:b2:de:ca:58:72:17:77:20:af:94:65:
                    d3:f2:8c:63:18:09:d8:bb:80:fd:2b:41:0a:cb:8a:
                    2a:99:32:7c:1e:79:b0:47:4e:1b:04:3a:32:cc:55:
                    5d:77:f7:c7:19:38:c2:d7:12:c6:dc:01:ba:9e:db:
                    af:0c:57:1e:17:c0:0f:89:0c:c1:47:58:fa:5e:72:
                    48:dd:8f:c2:1f:be:7c:54:fb:80:00:d5:52:68:91:
                    7b:4a:8e:2f:e8:44:56:10:f9:d9:45:85:17:28:e4:
                    10:0c:d4:f3:f3:57:8a:ee:32:d9:50:aa:cd:64:ae:
                    e2:63:fa:cb:49:1c:a9:ef:a2:c9:e2:72:00:93:4f:
                    68:30:85:0d:6c:3b:ca:a0:85:c8:97:7e:04:71:40:
                    b7:87:d2:6d:0b:25:c4:33:fe:2d:61:39:cb:c8:c8:
                    fa:1f:b0:d6:9f:45:07:20:27:27:a1:c1:24:4c:f1:
                    e5:36:60:36:8e:31:0f:d9:c2:46:aa:6e:66:cd:d1:
                    81:47:00:e5:9a:f6:89:97:da:5b:c0:7f:8f:cc:ae:
                    0c:79:6f:0e:8b:ee:56:65:ec:f7:ff:6c:38:c9:3a:
                    5e:f5:0d:25:32:7c:51:1e:e9:0c:47:46:f1:f8:aa:
                    b3:43:fc:f0:a6:cc:46:5a:d5:3b:b9:3b:9f:24:d8:
                    12:a1
                Exponent: 65537 (0x10001)
        X509v3 extensions:
            X509v3 Basic Constraints: 
                CA:FALSE
            X509v3 Subject Key Identifier: 
                2F:43:0C:62:C4:31:1D:F7:C4:55:7C:22:17:62:EE:2A:A5:2F:27:60
            X509v3 Authority Key Identifier: 
                keyid:F6:98:9A:26:3E:93:E3:99:96:01:E5:7C:EE:D2:18:32:4E:F4:AC:A2
                DirName:/CN=team348-net
                serial:64:3F:87:DB:82:F0:F8:0E:02:02:21:56:D7:10:FF:C9:1F:8B:D1:1F

            X509v3 Extended Key Usage: 
                TLS Web Server Authentication
            X509v3 Key Usage: 
                Digital Signature, Key Encipherment
            X509v3 Subject Alternative Name: 
                DNS:team348-server
    Signature Algorithm: sha256WithRSAEncryption
         33:87:e3:8f:cc:d5:7c:09:68:be:db:ea:42:61:49:b5:71:6c:
         e7:4e:e8:87:f1:98:73:25:4b:6a:7f:c9:01:70:94:b5:cc:e1:
         41:38:24:9a:65:16:d0:92:b5:75:ce:27:64:5e:ef:14:94:b7:
         3b:e9:5d:d5:93:09:6c:d4:1f:65:28:fa:76:3d:a6:c9:c3:67:
         1f:93:50:69:5b:4a:59:5f:34:d1:22:54:21:a9:a8:5b:81:1f:
         2f:43:d9:a7:5c:15:60:ec:3c:a9:13:11:3c:af:3e:ec:0d:18:
         be:a0:ba:6c:a4:88:06:8f:94:ba:d3:37:9a:79:34:d1:a1:11:
         cb:af:bc:c7:a7:6a:2d:c1:5e:60:b6:53:24:a7:7c:ac:17:36:
         76:b7:81:1d:65:4f:6d:a2:bb:34:39:af:d7:9d:9c:3a:59:cb:
         68:14:27:be:55:02:99:9e:64:23:ce:29:bf:74:e1:76:18:48:
         9a:15:fd:cd:00:87:90:eb:4f:27:9e:13:d4:4f:2f:f7:47:a0:
         af:6a:4c:eb:bc:7b:1b:4b:e0:da:0a:cc:6f:8d:bd:c4:37:77:
         6c:7d:66:49:e3:62:44:26:f6:16:59:87:d3:29:5b:83:d1:08:
         dc:ef:52:43:e3:cc:75:b0:33:5e:84:89:87:09:fb:36:d5:da:
         94:48:11:00
-----BEGIN CERTIFICATE-----
MIIDdzCCAl+gAwIBAgIQLx34x5PTmNDcdw1SXFWIpDANBgkqhkiG9w0BAQsFADAW
MRQwEgYDVQQDDAt0ZWFtMzQ4LW5ldDAeFw0yMTA5MTMwMTU3NTNaFw0yNDA4Mjgw
MTU3NTNaMBkxFzAVBgNVBAMMDnRlYW0zNDgtc2VydmVyMIIBIjANBgkqhkiG9w0B
AQEFAAOCAQ8AMIIBCgKCAQEA2KtAst7KWHIXdyCvlGXT8oxjGAnYu4D9K0EKy4oq
mTJ8HnmwR04bBDoyzFVdd/fHGTjC1xLG3AG6ntuvDFceF8APiQzBR1j6XnJI3Y/C
H758VPuAANVSaJF7So4v6ERWEPnZRYUXKOQQDNTz81eK7jLZUKrNZK7iY/rLSRyp
76LJ4nIAk09oMIUNbDvKoIXIl34EcUC3h9JtCyXEM/4tYTnLyMj6H7DWn0UHICcn
ocEkTPHlNmA2jjEP2cJGqm5mzdGBRwDlmvaJl9pbwH+PzK4MeW8Oi+5WZez3/2w4
yTpe9Q0lMnxRHukMR0bx+KqzQ/zwpsxGWtU7uTufJNgSoQIDAQABo4G9MIG6MAkG
A1UdEwQCMAAwHQYDVR0OBBYEFC9DDGLEMR33xFV8Ihdi7iqlLydgMFEGA1UdIwRK
MEiAFPaYmiY+k+OZlgHlfO7SGDJO9KyioRqkGDAWMRQwEgYDVQQDDAt0ZWFtMzQ4
LW5ldIIUZD+H24Lw+A4CAiFW1xD/yR+L0R8wEwYDVR0lBAwwCgYIKwYBBQUHAwEw
CwYDVR0PBAQDAgWgMBkGA1UdEQQSMBCCDnRlYW0zNDgtc2VydmVyMA0GCSqGSIb3
DQEBCwUAA4IBAQAzh+OPzNV8CWi+2+pCYUm1cWznTuiH8ZhzJUtqf8kBcJS1zOFB
OCSaZRbQkrV1zidkXu8UlLc76V3Vkwls1B9lKPp2PabJw2cfk1BpW0pZXzTRIlQh
qahbgR8vQ9mnXBVg7DypExE8rz7sDRi+oLpspIgGj5S60zeaeTTRoRHLr7zHp2ot
wV5gtlMkp3ysFzZ2t4EdZU9tors0Oa/XnZw6WctoFCe+VQKZnmQjzim/dOF2GEia
Ff3NAIeQ608nnhPUTy/3R6CvakzrvHsbS+DaCsxvjb3EN3dsfWZJ42JEJvYWWYfT
KVuD0Qjc71JD48x1sDNehImHCfs21dqUSBEA
-----END CERTIFICATE-----
