Certificate:
    Data:
        Version: 3 (0x2)
        Serial Number:
            2d:4b:01:01:2b:52:f6:b1:f7:54:4a:1c:4a:80:b0:56
        Signature Algorithm: sha256WithRSAEncryption
        Issuer: CN=team61-net
        Validity
            Not Before: Sep 12 23:15:25 2021 GMT
            Not After : Aug 27 23:15:25 2024 GMT
        Subject: CN=team61-server
        Subject Public Key Info:
            Public Key Algorithm: rsaEncryption
                RSA Public-Key: (2048 bit)
                Modulus:
                    00:f0:38:cc:f8:cc:88:4a:6b:5c:43:fb:6e:c5:25:
                    26:9e:03:34:7b:d1:74:fe:2f:8b:1f:e2:9b:bd:7a:
                    5a:c8:13:4a:0e:d4:65:c8:26:a0:b1:6c:ca:3e:14:
                    53:27:43:49:21:ce:a0:c6:fb:5c:16:a8:11:f5:3b:
                    16:2e:8d:4e:21:5e:f5:ee:29:80:94:59:7b:d0:38:
                    5c:d5:e5:bd:ff:72:08:30:20:87:3b:de:83:28:55:
                    75:81:30:2f:c1:d1:e1:c1:48:56:00:e0:7a:17:88:
                    4f:a2:2c:2a:6c:e7:21:7c:14:47:d7:7c:cf:6b:31:
                    4c:54:1b:05:5a:07:f6:e6:33:fc:76:32:2d:5c:c4:
                    8d:45:7f:ec:30:6b:02:b4:a9:0e:0d:fc:1e:d0:0c:
                    6a:9a:56:bc:fb:57:5f:f7:2c:24:a7:3c:27:08:74:
                    9f:12:55:ea:a4:d2:ca:c1:e5:9c:d9:d9:69:14:61:
                    54:2b:71:08:8c:0c:69:70:f7:1a:33:f2:8a:a9:98:
                    38:0a:23:e3:9a:b6:fe:45:32:d5:ab:e9:2b:45:1a:
                    83:31:99:7b:53:74:68:af:9b:0c:b2:18:b2:73:66:
                    ba:c3:d6:40:fc:d6:f1:ac:c8:a2:23:38:4a:62:a2:
                    56:eb:a1:f0:6f:31:68:82:85:78:49:bd:18:d9:2a:
                    75:4d
                Exponent: 65537 (0x10001)
        X509v3 extensions:
            X509v3 Basic Constraints: 
                CA:FALSE
            X509v3 Subject Key Identifier: 
                EA:07:B7:84:E3:59:CC:84:1B:D7:06:2E:59:4C:9E:AE:D7:B1:4E:15
            X509v3 Authority Key Identifier: 
                keyid:9A:AD:82:04:FB:15:23:CD:6A:20:95:64:F1:2E:5C:C6:DC:3C:00:47
                DirName:/CN=team61-net
                serial:3D:B9:3B:63:97:20:31:37:14:FD:A5:67:17:4A:CB:FB:B1:13:C2:E9

            X509v3 Extended Key Usage: 
                TLS Web Server Authentication
            X509v3 Key Usage: 
                Digital Signature, Key Encipherment
            X509v3 Subject Alternative Name: 
                DNS:team61-server
    Signature Algorithm: sha256WithRSAEncryption
         8d:e4:f1:79:48:5e:8a:e8:d6:66:0d:1b:63:cb:89:92:59:a0:
         69:03:1e:8a:f7:69:b1:f7:b2:82:49:58:80:af:ac:8b:58:d6:
         9a:0a:dc:da:0b:80:3d:8a:46:3e:da:02:d1:12:f0:38:c3:aa:
         5b:85:6d:26:39:ed:e0:c6:c7:99:a3:b8:ec:d0:97:e1:fa:dd:
         21:13:41:73:e2:ad:cc:cd:5d:52:ad:a5:2f:1d:84:29:57:9a:
         02:90:7f:31:af:2a:53:f7:a0:cd:a5:cd:e6:42:6f:07:1d:ad:
         7c:0c:41:da:a8:94:61:6e:16:75:57:9a:76:f3:89:e7:b3:83:
         ae:ea:10:1e:77:a5:c4:a9:94:69:bf:2e:d9:a1:89:a3:42:2b:
         81:bf:29:23:69:b0:80:66:ea:e5:67:fa:6b:11:96:a2:6a:94:
         74:ab:dc:33:60:26:d4:2e:cf:f7:da:ab:19:e0:64:d8:2f:39:
         8d:6d:8e:55:a2:c3:b6:f3:c8:1b:62:a9:cb:35:8d:19:02:63:
         76:c2:ab:bf:6c:fe:e2:61:21:c4:4b:cc:ba:f3:bd:be:8d:97:
         94:e4:da:f7:5b:cf:38:6e:26:a3:c8:ad:93:25:d8:c8:1b:de:
         ee:2b:d6:a1:ff:e6:96:31:fa:92:2e:b5:b7:4f:5e:52:4b:5b:
         fd:06:57:00
-----BEGIN CERTIFICATE-----
MIIDczCCAlugAwIBAgIQLUsBAStS9rH3VEocSoCwVjANBgkqhkiG9w0BAQsFADAV
MRMwEQYDVQQDDAp0ZWFtNjEtbmV0MB4XDTIxMDkxMjIzMTUyNVoXDTI0MDgyNzIz
MTUyNVowGDEWMBQGA1UEAwwNdGVhbTYxLXNlcnZlcjCCASIwDQYJKoZIhvcNAQEB
BQADggEPADCCAQoCggEBAPA4zPjMiEprXEP7bsUlJp4DNHvRdP4vix/im716WsgT
Sg7UZcgmoLFsyj4UUydDSSHOoMb7XBaoEfU7Fi6NTiFe9e4pgJRZe9A4XNXlvf9y
CDAghzvegyhVdYEwL8HR4cFIVgDgeheIT6IsKmznIXwUR9d8z2sxTFQbBVoH9uYz
/HYyLVzEjUV/7DBrArSpDg38HtAMappWvPtXX/csJKc8Jwh0nxJV6qTSysHlnNnZ
aRRhVCtxCIwMaXD3GjPyiqmYOAoj45q2/kUy1avpK0UagzGZe1N0aK+bDLIYsnNm
usPWQPzW8azIoiM4SmKiVuuh8G8xaIKFeEm9GNkqdU0CAwEAAaOBuzCBuDAJBgNV
HRMEAjAAMB0GA1UdDgQWBBTqB7eE41nMhBvXBi5ZTJ6u17FOFTBQBgNVHSMESTBH
gBSarYIE+xUjzWoglWTxLlzG3DwAR6EZpBcwFTETMBEGA1UEAwwKdGVhbTYxLW5l
dIIUPbk7Y5cgMTcU/aVnF0rL+7ETwukwEwYDVR0lBAwwCgYIKwYBBQUHAwEwCwYD
VR0PBAQDAgWgMBgGA1UdEQQRMA+CDXRlYW02MS1zZXJ2ZXIwDQYJKoZIhvcNAQEL
BQADggEBAI3k8XlIXoro1mYNG2PLiZJZoGkDHor3abH3soJJWICvrItY1poK3NoL
gD2KRj7aAtES8DjDqluFbSY57eDGx5mjuOzQl+H63SETQXPirczNXVKtpS8dhClX
mgKQfzGvKlP3oM2lzeZCbwcdrXwMQdqolGFuFnVXmnbzieezg67qEB53pcSplGm/
LtmhiaNCK4G/KSNpsIBm6uVn+msRlqJqlHSr3DNgJtQuz/faqxngZNgvOY1tjlWi
w7bzyBtiqcs1jRkCY3bCq79s/uJhIcRLzLrzvb6Nl5Tk2vdbzzhuJqPIrZMl2Mgb
3u4r1qH/5pYx+pIutbdPXlJLW/0GVwA=
-----END CERTIFICATE-----
