Certificate:
    Data:
        Version: 3 (0x2)
        Serial Number:
            ed:eb:a0:cf:38:79:d7:ef:4c:44:6a:4b:8f:84:d2:ac
        Signature Algorithm: sha256WithRSAEncryption
        Issuer: CN=team553-net
        Validity
            Not Before: Sep 13 03:32:40 2021 GMT
            Not After : Aug 28 03:32:40 2024 GMT
        Subject: CN=team553-client
        Subject Public Key Info:
            Public Key Algorithm: rsaEncryption
                RSA Public-Key: (2048 bit)
                Modulus:
                    00:bd:f8:d9:76:8d:69:f1:8e:47:a3:64:a4:a5:d8:
                    69:42:2a:68:d3:8d:bb:7e:a0:33:f5:23:a3:7c:f5:
                    6f:55:9f:9e:c2:af:35:ca:e5:44:a2:4c:f9:59:ef:
                    ba:67:a5:a7:5e:bf:73:2d:25:f5:c5:c7:ab:68:ec:
                    a0:f5:5b:a0:26:62:88:5a:6b:b9:1b:ba:a9:40:77:
                    47:a6:d1:dc:f4:88:5c:b5:16:a8:bf:4f:81:24:b2:
                    40:7b:3a:0a:89:c3:71:ac:c2:9e:f7:a5:06:63:0e:
                    9b:73:a8:cd:ea:4f:d8:48:ab:ad:53:e3:ca:89:c2:
                    34:cb:81:2d:23:44:87:a5:d6:22:5f:82:9d:50:95:
                    6f:19:4a:1f:b4:4b:e9:a9:08:64:95:46:92:f6:6c:
                    c9:05:49:60:e7:2a:c0:75:e1:83:e8:4e:69:db:94:
                    64:a2:e6:91:f5:aa:ea:69:fc:5a:56:db:da:62:a5:
                    42:de:c0:98:6e:1c:38:e0:a1:4d:40:86:e6:5f:c3:
                    46:aa:de:f2:42:04:65:8a:a8:2c:df:00:ba:fc:e0:
                    82:1d:4e:35:78:b0:db:1f:a3:c5:c8:93:08:45:bc:
                    d6:65:41:56:4e:1a:19:17:8b:38:99:e9:58:b0:84:
                    6f:b6:08:09:e1:4d:40:fb:ec:df:9d:fc:ba:1b:22:
                    aa:7b
                Exponent: 65537 (0x10001)
        X509v3 extensions:
            X509v3 Basic Constraints: 
                CA:FALSE
            X509v3 Subject Key Identifier: 
                44:9B:63:A8:4D:F5:3F:1F:32:83:9F:9E:5F:E3:74:75:9F:64:C6:85
            X509v3 Authority Key Identifier: 
                keyid:9F:62:4A:2B:07:E2:EC:1A:0A:AC:67:05:3D:AD:98:FE:33:EE:C1:8E
                DirName:/CN=team553-net
                serial:37:08:FB:16:2B:D3:EF:26:A6:52:A5:9F:F6:D4:1B:05:51:31:24:A4

            X509v3 Extended Key Usage: 
                TLS Web Client Authentication
            X509v3 Key Usage: 
                Digital Signature
    Signature Algorithm: sha256WithRSAEncryption
         1f:6e:85:1f:df:60:85:c4:47:e5:f0:74:0a:49:ee:94:2e:39:
         61:86:91:cc:a3:34:38:de:9e:f2:66:60:f7:3f:36:dd:13:04:
         49:a6:48:0a:9d:06:d9:51:40:d3:0b:c5:5c:62:73:1e:2d:d8:
         25:05:bc:8a:1c:09:f4:c9:83:dc:27:9d:79:3d:3c:35:f5:c8:
         b9:80:dd:96:5f:72:bd:e6:5e:45:a5:29:3e:0c:5f:37:17:28:
         0f:6f:e6:56:6f:00:04:0c:64:ae:f7:11:b4:b1:85:61:e8:55:
         59:d9:b4:cb:e8:0d:2c:af:da:e4:09:c9:09:71:76:7c:68:a5:
         42:89:f7:27:a1:c4:cc:c5:ee:4a:c9:d2:93:8c:df:78:f2:51:
         1a:9f:ca:c8:18:60:ac:c8:b5:64:67:59:30:a9:8e:a5:8d:a0:
         41:46:d9:53:5a:2d:ac:a7:d6:30:a3:09:30:f2:fa:8f:83:e5:
         d8:a0:f6:68:cc:ad:34:4e:b8:01:82:74:12:e3:fa:8a:06:3d:
         3a:5d:a2:1e:a9:77:9b:6c:c4:cf:c0:bd:29:ae:54:c1:c9:24:
         56:fe:60:ce:53:95:59:57:6c:87:69:fe:10:34:11:70:28:ef:
         20:b8:25:1f:f1:16:40:27:f9:4a:f7:5a:5d:f8:5b:a4:a7:ba:
         22:ed:b5:44
-----BEGIN CERTIFICATE-----
MIIDXTCCAkWgAwIBAgIRAO3roM84edfvTERqS4+E0qwwDQYJKoZIhvcNAQELBQAw
FjEUMBIGA1UEAwwLdGVhbTU1My1uZXQwHhcNMjEwOTEzMDMzMjQwWhcNMjQwODI4
MDMzMjQwWjAZMRcwFQYDVQQDDA50ZWFtNTUzLWNsaWVudDCCASIwDQYJKoZIhvcN
AQEBBQADggEPADCCAQoCggEBAL342XaNafGOR6NkpKXYaUIqaNONu36gM/Ujo3z1
b1WfnsKvNcrlRKJM+Vnvumelp16/cy0l9cXHq2jsoPVboCZiiFpruRu6qUB3R6bR
3PSIXLUWqL9PgSSyQHs6ConDcazCnvelBmMOm3OozepP2EirrVPjyonCNMuBLSNE
h6XWIl+CnVCVbxlKH7RL6akIZJVGkvZsyQVJYOcqwHXhg+hOaduUZKLmkfWq6mn8
Wlbb2mKlQt7AmG4cOOChTUCG5l/DRqre8kIEZYqoLN8Auvzggh1ONXiw2x+jxciT
CEW81mVBVk4aGReLOJnpWLCEb7YICeFNQPvs3538uhsiqnsCAwEAAaOBojCBnzAJ
BgNVHRMEAjAAMB0GA1UdDgQWBBREm2OoTfU/HzKDn55f43R1n2TGhTBRBgNVHSME
SjBIgBSfYkorB+LsGgqsZwU9rZj+M+7BjqEapBgwFjEUMBIGA1UEAwwLdGVhbTU1
My1uZXSCFDcI+xYr0+8mplKln/bUGwVRMSSkMBMGA1UdJQQMMAoGCCsGAQUFBwMC
MAsGA1UdDwQEAwIHgDANBgkqhkiG9w0BAQsFAAOCAQEAH26FH99ghcRH5fB0Cknu
lC45YYaRzKM0ON6e8mZg9z823RMESaZICp0G2VFA0wvFXGJzHi3YJQW8ihwJ9MmD
3CedeT08NfXIuYDdll9yveZeRaUpPgxfNxcoD2/mVm8ABAxkrvcRtLGFYehVWdm0
y+gNLK/a5AnJCXF2fGilQon3J6HEzMXuSsnSk4zfePJRGp/KyBhgrMi1ZGdZMKmO
pY2gQUbZU1otrKfWMKMJMPL6j4Pl2KD2aMytNE64AYJ0EuP6igY9Ol2iHql3m2zE
z8C9Ka5UwckkVv5gzlOVWVdsh2n+EDQRcCjvILglH/EWQCf5SvdaXfhbpKe6Iu21
RA==
-----END CERTIFICATE-----
