Certificate:
    Data:
        Version: 3 (0x2)
        Serial Number:
            c1:7a:b7:5a:92:7f:cd:49:11:39:26:92:a5:9c:3a:e8
        Signature Algorithm: sha256WithRSAEncryption
        Issuer: CN=team66-net
        Validity
            Not Before: Sep 12 23:13:15 2021 GMT
            Not After : Aug 27 23:13:15 2024 GMT
        Subject: CN=team66-client
        Subject Public Key Info:
            Public Key Algorithm: rsaEncryption
                RSA Public-Key: (2048 bit)
                Modulus:
                    00:d2:3d:51:72:6a:cb:04:a7:e4:c8:89:67:12:92:
                    3c:e7:b1:50:75:29:8e:e9:26:b4:63:03:9f:7d:92:
                    bb:91:8c:8a:b5:e4:29:56:a5:dd:09:ce:cf:fc:8e:
                    7d:ff:c8:0c:f6:d8:3b:e0:e7:8b:95:0e:92:a1:c8:
                    f3:68:02:3a:58:66:ac:bb:07:27:06:54:49:e3:5e:
                    c6:50:cb:e9:32:d1:82:a0:6a:04:52:98:01:ac:f2:
                    4e:7b:79:a7:16:b1:da:43:0d:9a:77:9a:8b:30:7d:
                    ed:b5:88:d3:e6:36:c1:4f:e8:ae:99:ba:7f:cb:91:
                    f4:70:a7:8f:ab:97:b6:7c:7c:46:ca:e2:a3:1c:5a:
                    35:14:56:ef:c1:40:ed:2a:f5:9e:88:73:48:48:72:
                    63:c5:a1:d6:23:a1:ae:57:46:e0:3e:5f:37:fe:7e:
                    c5:8f:65:71:1a:c9:77:67:ca:4b:a1:c0:da:37:cb:
                    2c:2b:94:d5:69:07:2f:c9:a3:61:85:f9:fb:15:12:
                    f5:5f:45:2f:d5:75:75:de:aa:22:18:05:0d:7e:c7:
                    de:d0:2e:8c:59:7c:a7:d7:20:11:53:99:d8:c3:50:
                    3d:88:3e:44:bb:30:e9:6f:1b:e9:8e:ba:07:24:0f:
                    01:a1:c2:d2:68:bc:69:7b:d5:3c:76:3b:a8:09:9c:
                    7b:a5
                Exponent: 65537 (0x10001)
        X509v3 extensions:
            X509v3 Basic Constraints: 
                CA:FALSE
            X509v3 Subject Key Identifier: 
                62:55:74:1A:05:01:78:9B:58:CC:40:CD:9E:C0:16:3F:36:F1:A2:6E
            X509v3 Authority Key Identifier: 
                keyid:62:44:EF:28:B1:3A:89:80:3A:DB:97:DF:22:3A:84:DC:3A:ED:52:91
                DirName:/CN=team66-net
                serial:7C:29:58:8D:FE:C0:23:34:F1:1F:69:D8:5C:61:21:FE:2D:39:0D:B8

            X509v3 Extended Key Usage: 
                TLS Web Client Authentication
            X509v3 Key Usage: 
                Digital Signature
    Signature Algorithm: sha256WithRSAEncryption
         85:43:81:43:e4:7c:0b:ab:b0:dc:89:68:ca:a8:74:d2:4e:5c:
         4c:27:a4:78:a5:07:4b:6d:cd:1a:d4:60:3a:c0:3e:1d:69:0b:
         a1:89:ae:25:a3:c4:77:ce:83:82:3f:97:98:64:1f:77:f9:b2:
         6a:5d:ba:3d:04:a6:18:78:b4:fb:49:33:d2:2c:99:3f:33:1c:
         f9:2f:a4:62:77:96:ec:38:e1:25:e4:b8:92:98:43:5e:7b:7a:
         e0:ce:1b:f1:02:55:5f:1d:7a:86:cc:3e:a0:18:bc:93:7d:25:
         0a:d3:65:58:a3:9e:49:86:54:4b:a3:10:a2:48:aa:16:e7:21:
         a7:58:b7:fd:7b:4e:cf:f6:46:a9:6b:00:24:1f:51:df:18:2c:
         b4:a0:a8:84:cb:6b:47:d1:8b:ec:66:8c:2a:a4:91:8e:41:02:
         74:e0:8c:1e:47:01:02:ad:ce:70:16:ba:c7:3f:23:4a:53:6c:
         e1:52:6b:cf:88:b2:35:3f:bc:48:4a:1e:15:21:dd:6e:c9:a6:
         90:00:47:7e:c9:20:34:75:81:37:f1:2a:41:2e:5b:38:53:20:
         ea:0c:61:ee:13:87:be:7f:85:bf:f9:88:8b:ed:f2:7b:b4:56:
         28:63:ed:b0:98:2d:5d:dc:49:b6:14:3b:79:43:93:d5:4c:a8:
         98:80:92:6e
-----BEGIN CERTIFICATE-----
MIIDWjCCAkKgAwIBAgIRAMF6t1qSf81JETkmkqWcOugwDQYJKoZIhvcNAQELBQAw
FTETMBEGA1UEAwwKdGVhbTY2LW5ldDAeFw0yMTA5MTIyMzEzMTVaFw0yNDA4Mjcy
MzEzMTVaMBgxFjAUBgNVBAMMDXRlYW02Ni1jbGllbnQwggEiMA0GCSqGSIb3DQEB
AQUAA4IBDwAwggEKAoIBAQDSPVFyassEp+TIiWcSkjznsVB1KY7pJrRjA599kruR
jIq15ClWpd0Jzs/8jn3/yAz22Dvg54uVDpKhyPNoAjpYZqy7BycGVEnjXsZQy+ky
0YKgagRSmAGs8k57eacWsdpDDZp3moswfe21iNPmNsFP6K6Zun/LkfRwp4+rl7Z8
fEbK4qMcWjUUVu/BQO0q9Z6Ic0hIcmPFodYjoa5XRuA+Xzf+fsWPZXEayXdnykuh
wNo3yywrlNVpBy/Jo2GF+fsVEvVfRS/VdXXeqiIYBQ1+x97QLoxZfKfXIBFTmdjD
UD2IPkS7MOlvG+mOugckDwGhwtJovGl71Tx2O6gJnHulAgMBAAGjgaEwgZ4wCQYD
VR0TBAIwADAdBgNVHQ4EFgQUYlV0GgUBeJtYzEDNnsAWPzbxom4wUAYDVR0jBEkw
R4AUYkTvKLE6iYA625ffIjqE3DrtUpGhGaQXMBUxEzARBgNVBAMMCnRlYW02Ni1u
ZXSCFHwpWI3+wCM08R9p2FxhIf4tOQ24MBMGA1UdJQQMMAoGCCsGAQUFBwMCMAsG
A1UdDwQEAwIHgDANBgkqhkiG9w0BAQsFAAOCAQEAhUOBQ+R8C6uw3Iloyqh00k5c
TCekeKUHS23NGtRgOsA+HWkLoYmuJaPEd86Dgj+XmGQfd/myal26PQSmGHi0+0kz
0iyZPzMc+S+kYneW7DjhJeS4kphDXnt64M4b8QJVXx16hsw+oBi8k30lCtNlWKOe
SYZUS6MQokiqFuchp1i3/XtOz/ZGqWsAJB9R3xgstKCohMtrR9GL7GaMKqSRjkEC
dOCMHkcBAq3OcBa6xz8jSlNs4VJrz4iyNT+8SEoeFSHdbsmmkABHfskgNHWBN/Eq
QS5bOFMg6gxh7hOHvn+Fv/mIi+3ye7RWKGPtsJgtXdxJthQ7eUOT1UyomICSbg==
-----END CERTIFICATE-----
