Certificate:
    Data:
        Version: 3 (0x2)
        Serial Number:
            cf:d4:6d:c4:ef:d5:2e:9a:ee:2b:75:07:1d:fa:dc:36
        Signature Algorithm: sha256WithRSAEncryption
        Issuer: CN=team19-net
        Validity
            Not Before: Sep 12 22:49:50 2021 GMT
            Not After : Aug 27 22:49:50 2024 GMT
        Subject: CN=team19-server
        Subject Public Key Info:
            Public Key Algorithm: rsaEncryption
                RSA Public-Key: (2048 bit)
                Modulus:
                    00:b3:9a:e4:75:47:56:a1:be:b4:8a:28:ac:f3:b9:
                    aa:f8:41:f0:1c:a6:aa:b8:60:55:ec:99:40:26:f7:
                    6a:bb:4e:3c:cc:61:7b:4a:b5:df:7d:ac:2c:b8:11:
                    e4:21:a6:43:8d:b4:8e:e1:44:36:60:66:b9:af:fb:
                    75:a6:5d:ff:64:f3:8b:79:53:71:1e:7b:0c:75:51:
                    9f:60:98:bf:a0:8d:a2:59:ed:83:8b:83:51:2b:b7:
                    2c:1a:e0:a9:25:11:bf:86:7b:55:c5:96:95:ea:08:
                    e6:83:a6:bc:b5:bc:3d:d2:b2:4a:e7:78:50:1a:ac:
                    db:4b:b2:09:ee:ac:00:a4:55:f1:5e:84:87:c5:0c:
                    c2:05:2b:60:05:68:58:0f:8d:20:b1:ab:e2:52:c4:
                    35:21:0a:d7:b2:d5:a9:c9:ec:1f:a5:0a:ea:6b:cb:
                    09:79:8f:8b:62:70:5f:34:23:fd:32:ed:c9:5c:15:
                    d0:0f:a2:64:a4:e6:61:dd:08:a9:33:66:47:fd:f7:
                    a2:7f:6a:61:ba:50:99:7d:70:a2:66:52:27:14:d5:
                    57:1e:b9:00:fc:65:1e:9d:fd:ec:9d:92:8e:c9:0d:
                    b1:f6:89:ce:80:56:75:1f:d5:fe:e3:ac:17:72:d7:
                    7f:94:8d:97:26:0a:11:47:f8:58:3d:74:20:97:76:
                    7d:ef
                Exponent: 65537 (0x10001)
        X509v3 extensions:
            X509v3 Basic Constraints: 
                CA:FALSE
            X509v3 Subject Key Identifier: 
                F2:2A:00:92:4E:36:42:85:CD:6E:C7:99:D7:6F:3D:63:7C:66:16:34
            X509v3 Authority Key Identifier: 
                keyid:2E:58:5A:95:6A:FE:85:1F:53:40:46:CB:69:2B:EC:3D:60:F7:FC:99
                DirName:/CN=team19-net
                serial:73:33:47:4A:64:9A:59:D0:3D:A2:2B:FB:01:76:3C:50:D8:99:6A:3C

            X509v3 Extended Key Usage: 
                TLS Web Server Authentication
            X509v3 Key Usage: 
                Digital Signature, Key Encipherment
            X509v3 Subject Alternative Name: 
                DNS:team19-server
    Signature Algorithm: sha256WithRSAEncryption
         6f:1f:d8:d1:30:ee:f9:33:76:7b:b5:a8:e1:fd:ed:25:0a:bb:
         02:af:2b:d5:0c:e7:b3:1f:6d:3e:28:f5:ec:1c:12:b1:64:ef:
         8e:88:f2:e3:f8:f8:24:3e:bb:e0:01:f2:67:b7:f3:81:be:53:
         af:8e:e3:01:a1:6c:d4:ff:d8:0e:4d:68:7b:ff:02:28:6b:c6:
         4a:03:d8:f4:5d:f8:b7:8b:89:79:ab:fb:ea:b3:ff:70:c0:fe:
         6b:24:7d:69:73:87:52:77:a3:de:2a:0d:fc:de:bc:51:8b:47:
         aa:5c:6e:bb:bf:c5:e3:89:ef:b1:72:a2:25:3e:0f:28:0b:67:
         2c:30:72:16:05:7b:f8:ca:41:66:52:c5:dc:47:e3:75:52:10:
         af:f2:d9:a5:46:0c:cf:ac:65:1c:d7:1b:89:9a:85:b2:3d:2e:
         55:08:e7:a7:d1:a9:69:b7:4d:36:24:17:d2:c1:74:cf:5a:63:
         9c:ee:fd:4d:58:e4:c1:b3:64:e7:56:5a:78:63:16:33:9a:1e:
         54:a4:29:89:a0:7d:b9:47:dd:b7:0f:07:dd:09:b9:21:d9:52:
         0f:89:0d:c8:21:d9:69:f2:35:8a:11:f4:81:01:40:24:07:9e:
         b9:f7:be:2b:99:59:e0:7d:0b:37:eb:cf:c0:90:c3:5e:d2:07:
         7f:cf:7a:61
-----BEGIN CERTIFICATE-----
MIIDdDCCAlygAwIBAgIRAM/UbcTv1S6a7it1Bx363DYwDQYJKoZIhvcNAQELBQAw
FTETMBEGA1UEAwwKdGVhbTE5LW5ldDAeFw0yMTA5MTIyMjQ5NTBaFw0yNDA4Mjcy
MjQ5NTBaMBgxFjAUBgNVBAMMDXRlYW0xOS1zZXJ2ZXIwggEiMA0GCSqGSIb3DQEB
AQUAA4IBDwAwggEKAoIBAQCzmuR1R1ahvrSKKKzzuar4QfAcpqq4YFXsmUAm92q7
TjzMYXtKtd99rCy4EeQhpkONtI7hRDZgZrmv+3WmXf9k84t5U3Eeewx1UZ9gmL+g
jaJZ7YOLg1Ertywa4KklEb+Ge1XFlpXqCOaDpry1vD3SskrneFAarNtLsgnurACk
VfFehIfFDMIFK2AFaFgPjSCxq+JSxDUhCtey1anJ7B+lCuprywl5j4ticF80I/0y
7clcFdAPomSk5mHdCKkzZkf996J/amG6UJl9cKJmUicU1VceuQD8ZR6d/eydko7J
DbH2ic6AVnUf1f7jrBdy13+UjZcmChFH+Fg9dCCXdn3vAgMBAAGjgbswgbgwCQYD
VR0TBAIwADAdBgNVHQ4EFgQU8ioAkk42QoXNbseZ1289Y3xmFjQwUAYDVR0jBEkw
R4AULlhalWr+hR9TQEbLaSvsPWD3/JmhGaQXMBUxEzARBgNVBAMMCnRlYW0xOS1u
ZXSCFHMzR0pkmlnQPaIr+wF2PFDYmWo8MBMGA1UdJQQMMAoGCCsGAQUFBwMBMAsG
A1UdDwQEAwIFoDAYBgNVHREEETAPgg10ZWFtMTktc2VydmVyMA0GCSqGSIb3DQEB
CwUAA4IBAQBvH9jRMO75M3Z7tajh/e0lCrsCryvVDOezH20+KPXsHBKxZO+OiPLj
+PgkPrvgAfJnt/OBvlOvjuMBoWzU/9gOTWh7/wIoa8ZKA9j0Xfi3i4l5q/vqs/9w
wP5rJH1pc4dSd6PeKg383rxRi0eqXG67v8Xjie+xcqIlPg8oC2csMHIWBXv4ykFm
UsXcR+N1UhCv8tmlRgzPrGUc1xuJmoWyPS5VCOen0alpt002JBfSwXTPWmOc7v1N
WOTBs2TnVlp4YxYzmh5UpCmJoH25R923DwfdCbkh2VIPiQ3IIdlp8jWKEfSBAUAk
B565974rmVngfQs368/AkMNe0gd/z3ph
-----END CERTIFICATE-----
