Certificate:
    Data:
        Version: 3 (0x2)
        Serial Number:
            a0:21:05:d9:24:07:6e:59:43:24:02:81:11:d5:7a:a2
        Signature Algorithm: sha256WithRSAEncryption
        Issuer: CN=team321-net
        Validity
            Not Before: Sep 13 01:40:27 2021 GMT
            Not After : Aug 28 01:40:27 2024 GMT
        Subject: CN=team321-client
        Subject Public Key Info:
            Public Key Algorithm: rsaEncryption
                RSA Public-Key: (2048 bit)
                Modulus:
                    00:be:4c:1c:ec:04:3c:98:03:98:97:b1:fc:e3:91:
                    ed:a7:3b:83:04:51:31:e1:55:5f:4f:3f:85:59:15:
                    66:25:69:93:cd:9f:36:16:8a:02:99:b6:63:2c:1e:
                    68:52:26:82:4f:82:96:23:66:9b:c5:47:45:59:00:
                    b3:ce:71:3e:c7:8d:95:5a:8f:e6:34:ff:4b:ff:88:
                    81:3a:e7:ca:89:83:ce:bc:76:3a:4a:a8:03:ea:93:
                    86:e7:03:c5:b1:77:4f:73:26:99:f7:38:57:bb:c9:
                    3a:64:3f:19:4d:20:20:65:b2:dc:7f:8a:9a:d6:b4:
                    e2:23:70:fe:08:36:38:cf:23:1d:8d:b7:cc:b3:2a:
                    85:ad:fc:91:ad:2b:05:22:c6:a3:3b:e7:d7:38:58:
                    f4:85:bb:ab:7b:f5:17:3a:85:0d:08:0c:cd:8f:08:
                    24:5c:e3:57:52:fd:65:da:ff:8f:c7:c9:88:d8:50:
                    49:b0:d2:dc:f7:22:42:5f:bb:66:8b:d2:60:c9:c1:
                    25:d0:66:f8:35:65:2c:14:e5:23:b1:6f:a7:54:0b:
                    9e:23:5e:7c:08:01:c2:ea:21:e4:55:ca:48:c0:5e:
                    27:93:18:16:5a:47:71:e2:50:16:80:92:cb:1b:a8:
                    09:cf:5c:66:09:d0:87:fa:3a:16:c6:c7:43:8f:23:
                    1b:3b
                Exponent: 65537 (0x10001)
        X509v3 extensions:
            X509v3 Basic Constraints: 
                CA:FALSE
            X509v3 Subject Key Identifier: 
                EB:C0:94:B9:52:35:87:51:B8:A6:3C:09:49:31:C8:5B:FF:1F:12:83
            X509v3 Authority Key Identifier: 
                keyid:7F:60:F7:71:78:4C:A7:61:7B:85:5B:1D:7C:BC:93:19:31:24:A4:D4
                DirName:/CN=team321-net
                serial:73:5F:EC:F8:8C:4A:8E:E0:89:E3:68:A2:E0:55:FD:2F:74:F8:D8:EE

            X509v3 Extended Key Usage: 
                TLS Web Client Authentication
            X509v3 Key Usage: 
                Digital Signature
    Signature Algorithm: sha256WithRSAEncryption
         a9:12:90:25:fb:16:8c:72:a8:6b:2e:b9:82:f8:18:b6:ba:33:
         1b:61:50:e7:ca:0e:9b:ac:d1:d6:a4:ba:61:b6:6f:e8:52:c2:
         d5:d7:9d:09:aa:7f:0d:c6:67:5b:59:45:c7:e8:af:e9:95:48:
         1b:db:f5:d6:00:d2:b0:c7:a7:30:3c:84:b7:86:a2:55:fe:bb:
         a9:34:d1:f9:8e:98:17:39:de:7c:78:6e:0c:a2:f2:b4:9f:41:
         29:2f:ea:6e:43:73:f6:51:90:53:5d:16:57:07:13:27:10:15:
         be:a2:a5:cf:0e:b2:23:e3:a8:c7:9d:03:6e:fd:15:03:72:e0:
         cf:44:83:f0:a4:f1:d6:c0:27:57:8b:09:02:6a:59:d6:f7:95:
         3c:da:95:3f:42:f1:d1:c9:8d:d5:ac:fa:74:ac:00:f5:a8:d3:
         d7:e5:67:47:e0:e3:8e:98:13:ba:9c:c1:d4:6a:df:87:0b:eb:
         9b:df:e4:32:f1:f5:bc:b9:d7:aa:be:f2:84:8f:f0:81:58:7d:
         88:dd:4e:d9:9c:1b:12:58:38:85:64:a0:76:c2:d7:a3:db:3a:
         7e:57:26:be:95:0b:4b:9a:3b:0b:31:a0:c8:49:69:18:13:32:
         2a:19:d3:ef:7c:49:ed:1d:89:89:5c:ca:a4:20:d2:5e:8e:d4:
         e1:88:65:cd
-----BEGIN CERTIFICATE-----
MIIDXTCCAkWgAwIBAgIRAKAhBdkkB25ZQyQCgRHVeqIwDQYJKoZIhvcNAQELBQAw
FjEUMBIGA1UEAwwLdGVhbTMyMS1uZXQwHhcNMjEwOTEzMDE0MDI3WhcNMjQwODI4
MDE0MDI3WjAZMRcwFQYDVQQDDA50ZWFtMzIxLWNsaWVudDCCASIwDQYJKoZIhvcN
AQEBBQADggEPADCCAQoCggEBAL5MHOwEPJgDmJex/OOR7ac7gwRRMeFVX08/hVkV
ZiVpk82fNhaKApm2YyweaFImgk+CliNmm8VHRVkAs85xPseNlVqP5jT/S/+IgTrn
yomDzrx2OkqoA+qThucDxbF3T3Mmmfc4V7vJOmQ/GU0gIGWy3H+Kmta04iNw/gg2
OM8jHY23zLMqha38ka0rBSLGozvn1zhY9IW7q3v1FzqFDQgMzY8IJFzjV1L9Zdr/
j8fJiNhQSbDS3PciQl+7ZovSYMnBJdBm+DVlLBTlI7Fvp1QLniNefAgBwuoh5FXK
SMBeJ5MYFlpHceJQFoCSyxuoCc9cZgnQh/o6FsbHQ48jGzsCAwEAAaOBojCBnzAJ
BgNVHRMEAjAAMB0GA1UdDgQWBBTrwJS5UjWHUbimPAlJMchb/x8SgzBRBgNVHSME
SjBIgBR/YPdxeEynYXuFWx18vJMZMSSk1KEapBgwFjEUMBIGA1UEAwwLdGVhbTMy
MS1uZXSCFHNf7PiMSo7gieNoouBV/S90+NjuMBMGA1UdJQQMMAoGCCsGAQUFBwMC
MAsGA1UdDwQEAwIHgDANBgkqhkiG9w0BAQsFAAOCAQEAqRKQJfsWjHKoay65gvgY
trozG2FQ58oOm6zR1qS6YbZv6FLC1dedCap/DcZnW1lFx+iv6ZVIG9v11gDSsMen
MDyEt4aiVf67qTTR+Y6YFznefHhuDKLytJ9BKS/qbkNz9lGQU10WVwcTJxAVvqKl
zw6yI+Oox50Dbv0VA3Lgz0SD8KTx1sAnV4sJAmpZ1veVPNqVP0Lx0cmN1az6dKwA
9ajT1+VnR+DjjpgTupzB1Grfhwvrm9/kMvH1vLnXqr7yhI/wgVh9iN1O2ZwbElg4
hWSgdsLXo9s6flcmvpULS5o7CzGgyElpGBMyKhnT73xJ7R2JiVzKpCDSXo7U4Yhl
zQ==
-----END CERTIFICATE-----
