Certificate:
    Data:
        Version: 3 (0x2)
        Serial Number:
            12:e4:d9:4d:35:1b:ec:94:36:2c:89:14:c3:1d:0f:e3
        Signature Algorithm: sha256WithRSAEncryption
        Issuer: CN=team245-net
        Validity
            Not Before: Sep 13 00:47:18 2021 GMT
            Not After : Aug 28 00:47:18 2024 GMT
        Subject: CN=team245-server
        Subject Public Key Info:
            Public Key Algorithm: rsaEncryption
                RSA Public-Key: (2048 bit)
                Modulus:
                    00:9f:72:2e:77:ec:ab:c4:8b:ee:84:57:84:7d:8a:
                    1d:08:92:eb:ec:92:b2:25:95:a2:05:8e:ff:39:15:
                    a7:d1:c5:30:fe:19:56:39:d9:a4:9d:f4:17:41:d8:
                    9c:4e:64:91:40:b6:14:2f:05:6f:e5:f4:ba:1a:b9:
                    7e:69:d2:54:4a:0c:79:6f:2d:2d:5b:0a:e6:bf:a0:
                    09:a5:c5:52:0a:68:fd:10:e7:22:ad:69:a2:e0:b5:
                    ae:bd:35:d5:db:6c:e1:0c:b5:17:55:67:f5:df:1d:
                    a9:2d:83:81:24:01:b6:18:64:4f:79:c3:48:58:21:
                    92:f2:13:7f:76:cd:15:44:e8:d8:65:7d:ad:54:da:
                    9a:8f:a8:ac:1d:e1:6b:e0:6f:22:8a:45:04:7a:d5:
                    1e:6f:9d:65:c8:74:88:74:86:91:4a:57:9d:d4:f6:
                    82:76:cd:45:c0:d9:fe:67:20:21:64:13:fc:05:69:
                    31:27:23:a9:ea:bd:4b:22:e7:d5:7e:81:47:32:76:
                    c9:ec:48:ce:b6:4c:64:e9:11:df:47:98:02:2e:80:
                    23:6e:64:b3:25:f5:80:1a:82:60:95:73:a0:03:fb:
                    8d:8a:c6:9e:e1:a8:60:ef:6f:33:00:10:3b:d3:c8:
                    26:d6:cb:f2:49:2a:77:60:e2:f3:8f:ba:65:f4:c3:
                    f2:cf
                Exponent: 65537 (0x10001)
        X509v3 extensions:
            X509v3 Basic Constraints: 
                CA:FALSE
            X509v3 Subject Key Identifier: 
                98:B9:CD:04:B0:2F:AC:22:85:5A:7F:8B:1E:E4:7C:1A:08:86:C2:91
            X509v3 Authority Key Identifier: 
                keyid:DC:FC:83:90:25:4A:D4:E4:61:E6:FF:EB:39:B3:B4:30:C6:E6:83:5E
                DirName:/CN=team245-net
                serial:5F:B5:3D:16:FC:29:E6:D6:7F:2B:32:AC:1D:E1:50:C4:11:B7:EE:9A

            X509v3 Extended Key Usage: 
                TLS Web Server Authentication
            X509v3 Key Usage: 
                Digital Signature, Key Encipherment
            X509v3 Subject Alternative Name: 
                DNS:team245-server
    Signature Algorithm: sha256WithRSAEncryption
         5b:50:80:2d:cc:c8:e2:16:f6:13:fa:ac:f9:38:da:b5:c2:3f:
         6a:db:1b:91:b5:90:fe:1e:e8:c6:60:0e:c8:94:f9:8b:8d:c6:
         b9:b8:f2:f4:37:d0:84:3a:d8:27:95:08:7d:62:d1:9b:73:f2:
         df:b1:fa:ce:9a:70:3f:c8:92:c9:a0:ee:b6:7c:5a:b1:d2:49:
         73:87:06:38:de:3e:e7:88:f4:12:c2:8c:3d:e7:7f:46:15:0e:
         ed:c6:19:2b:ca:26:0f:bb:07:b1:b5:f7:d1:4c:0c:93:64:bd:
         8f:ac:cd:e0:5b:1e:5f:69:59:6c:58:36:06:20:48:b0:f2:d6:
         d3:ee:f9:51:7b:63:fa:80:4b:2f:19:e7:00:68:be:ae:97:94:
         f6:e3:4a:c4:3d:85:9d:45:ef:1f:f2:28:9a:11:b0:d8:ab:78:
         33:ee:98:7d:69:5d:d8:e4:a2:c7:f9:cb:42:78:93:61:47:df:
         53:67:1e:26:f9:80:1e:7a:3f:99:a8:6b:80:48:e3:d3:92:75:
         12:40:38:0a:18:36:08:30:43:83:67:e6:72:ab:00:2a:cc:ee:
         ea:b7:50:e5:40:c3:91:ce:5e:b0:63:ed:30:11:b9:ef:ad:2c:
         13:e6:38:70:ba:5e:2e:8d:fd:7a:e0:f2:95:aa:e0:53:c3:af:
         97:4b:45:1c
-----BEGIN CERTIFICATE-----
MIIDdzCCAl+gAwIBAgIQEuTZTTUb7JQ2LIkUwx0P4zANBgkqhkiG9w0BAQsFADAW
MRQwEgYDVQQDDAt0ZWFtMjQ1LW5ldDAeFw0yMTA5MTMwMDQ3MThaFw0yNDA4Mjgw
MDQ3MThaMBkxFzAVBgNVBAMMDnRlYW0yNDUtc2VydmVyMIIBIjANBgkqhkiG9w0B
AQEFAAOCAQ8AMIIBCgKCAQEAn3Iud+yrxIvuhFeEfYodCJLr7JKyJZWiBY7/ORWn
0cUw/hlWOdmknfQXQdicTmSRQLYULwVv5fS6Grl+adJUSgx5by0tWwrmv6AJpcVS
Cmj9EOcirWmi4LWuvTXV22zhDLUXVWf13x2pLYOBJAG2GGRPecNIWCGS8hN/ds0V
ROjYZX2tVNqaj6isHeFr4G8iikUEetUeb51lyHSIdIaRSled1PaCds1FwNn+ZyAh
ZBP8BWkxJyOp6r1LIufVfoFHMnbJ7EjOtkxk6RHfR5gCLoAjbmSzJfWAGoJglXOg
A/uNisae4ahg728zABA708gm1svySSp3YOLzj7pl9MPyzwIDAQABo4G9MIG6MAkG
A1UdEwQCMAAwHQYDVR0OBBYEFJi5zQSwL6wihVp/ix7kfBoIhsKRMFEGA1UdIwRK
MEiAFNz8g5AlStTkYeb/6zmztDDG5oNeoRqkGDAWMRQwEgYDVQQDDAt0ZWFtMjQ1
LW5ldIIUX7U9Fvwp5tZ/KzKsHeFQxBG37powEwYDVR0lBAwwCgYIKwYBBQUHAwEw
CwYDVR0PBAQDAgWgMBkGA1UdEQQSMBCCDnRlYW0yNDUtc2VydmVyMA0GCSqGSIb3
DQEBCwUAA4IBAQBbUIAtzMjiFvYT+qz5ONq1wj9q2xuRtZD+HujGYA7IlPmLjca5
uPL0N9CEOtgnlQh9YtGbc/LfsfrOmnA/yJLJoO62fFqx0klzhwY43j7niPQSwow9
539GFQ7txhkryiYPuwextffRTAyTZL2PrM3gWx5faVlsWDYGIEiw8tbT7vlRe2P6
gEsvGecAaL6ul5T240rEPYWdRe8f8iiaEbDYq3gz7ph9aV3Y5KLH+ctCeJNhR99T
Zx4m+YAeej+ZqGuASOPTknUSQDgKGDYIMEODZ+ZyqwAqzO7qt1DlQMORzl6wY+0w
EbnvrSwT5jhwul4ujf164PKVquBTw6+XS0Uc
-----END CERTIFICATE-----
