Certificate:
    Data:
        Version: 3 (0x2)
        Serial Number:
            68:6f:51:49:3c:c4:c3:3f:6c:47:91:24:33:28:15:38
        Signature Algorithm: sha256WithRSAEncryption
        Issuer: CN=team245-net
        Validity
            Not Before: Sep 13 00:47:18 2021 GMT
            Not After : Aug 28 00:47:18 2024 GMT
        Subject: CN=team245-client
        Subject Public Key Info:
            Public Key Algorithm: rsaEncryption
                RSA Public-Key: (2048 bit)
                Modulus:
                    00:d5:ff:ef:50:4e:b2:a2:f4:dc:56:08:32:b0:ec:
                    2c:ac:07:28:ae:80:52:7a:47:96:cc:ce:b1:d2:34:
                    50:14:77:a4:b9:63:77:e3:0a:cd:de:d6:f5:ba:ec:
                    35:ef:87:f0:4d:74:f4:db:4c:96:80:47:15:4c:dd:
                    71:23:ce:9e:ce:40:01:09:7a:06:b3:4a:8a:ac:c0:
                    2d:9b:55:77:e6:42:ad:5f:68:ce:25:1b:81:90:c2:
                    52:18:58:ec:ce:cb:4e:84:fb:82:18:9d:cd:78:b4:
                    e6:0d:9f:b8:a5:c2:3f:55:05:1a:9e:5a:81:14:48:
                    97:6b:6f:ad:ed:95:33:a8:35:8b:b1:a0:79:90:c0:
                    73:f1:8f:f2:61:47:aa:5d:bb:50:61:bb:7a:24:39:
                    69:99:03:88:f5:33:ca:9b:e2:a8:b3:03:e5:2e:ad:
                    18:37:a4:62:cb:b5:fc:ab:0a:9a:b7:4c:b0:2c:e9:
                    73:af:7c:3b:f4:80:5a:2d:e6:cf:d9:23:12:0e:28:
                    b9:f9:c5:41:84:c4:5b:dd:45:20:88:7f:e7:20:29:
                    aa:34:c9:fd:08:e4:3e:eb:3f:a0:c2:7c:05:61:9b:
                    0c:6a:5c:59:8a:fe:47:3a:e7:8e:28:89:15:46:39:
                    58:2e:8f:14:a8:31:d1:20:76:85:06:00:7a:d8:54:
                    a3:db
                Exponent: 65537 (0x10001)
        X509v3 extensions:
            X509v3 Basic Constraints: 
                CA:FALSE
            X509v3 Subject Key Identifier: 
                DB:E0:69:26:F4:DD:F7:D4:CD:D1:2D:4D:FF:26:B1:1F:6A:01:D7:EB
            X509v3 Authority Key Identifier: 
                keyid:DC:FC:83:90:25:4A:D4:E4:61:E6:FF:EB:39:B3:B4:30:C6:E6:83:5E
                DirName:/CN=team245-net
                serial:5F:B5:3D:16:FC:29:E6:D6:7F:2B:32:AC:1D:E1:50:C4:11:B7:EE:9A

            X509v3 Extended Key Usage: 
                TLS Web Client Authentication
            X509v3 Key Usage: 
                Digital Signature
    Signature Algorithm: sha256WithRSAEncryption
         85:ef:7d:0c:55:22:f3:a8:51:79:9f:e6:39:8e:f7:8e:0b:e8:
         a2:a8:9e:3b:c9:7f:f2:58:90:d6:33:72:0b:2a:88:92:08:6f:
         59:2b:9b:8e:0a:b5:62:0b:17:86:07:21:76:7c:9c:4c:94:3b:
         e7:ac:2d:5b:bd:35:6b:c8:85:4a:39:f7:fe:ad:d8:8a:3e:83:
         69:83:6d:3a:07:85:7c:9c:7f:66:24:9e:46:00:2c:0c:7f:e1:
         fc:05:a7:6a:f3:8d:b9:b7:55:c4:e3:00:da:d1:d8:26:23:c5:
         2d:9f:09:b0:02:52:20:3b:1e:7c:41:8e:3f:5e:de:c5:57:fd:
         a1:6c:77:8c:ba:c5:6f:33:c3:1a:3c:ed:a8:e2:cb:5d:75:cd:
         0b:35:36:4f:c5:22:91:ec:68:6c:0a:2d:37:a0:32:79:d6:2d:
         da:80:41:94:d9:e1:6f:78:c9:f8:08:59:2c:08:f6:39:b1:59:
         4c:5e:61:50:95:76:17:da:2c:38:5f:ef:ba:61:31:5d:07:66:
         9a:ed:c6:65:0c:02:82:2d:a0:9c:92:65:59:42:38:c7:dd:3a:
         3e:e8:ea:d7:e6:e1:3b:37:da:9d:f0:70:08:f8:e6:6f:1c:22:
         9c:f5:8f:00:ca:dc:d4:24:a3:4b:77:d3:62:d7:74:14:a2:f5:
         90:98:9d:e7
-----BEGIN CERTIFICATE-----
MIIDXDCCAkSgAwIBAgIQaG9RSTzEwz9sR5EkMygVODANBgkqhkiG9w0BAQsFADAW
MRQwEgYDVQQDDAt0ZWFtMjQ1LW5ldDAeFw0yMTA5MTMwMDQ3MThaFw0yNDA4Mjgw
MDQ3MThaMBkxFzAVBgNVBAMMDnRlYW0yNDUtY2xpZW50MIIBIjANBgkqhkiG9w0B
AQEFAAOCAQ8AMIIBCgKCAQEA1f/vUE6yovTcVggysOwsrAcoroBSekeWzM6x0jRQ
FHekuWN34wrN3tb1uuw174fwTXT020yWgEcVTN1xI86ezkABCXoGs0qKrMAtm1V3
5kKtX2jOJRuBkMJSGFjszstOhPuCGJ3NeLTmDZ+4pcI/VQUanlqBFEiXa2+t7ZUz
qDWLsaB5kMBz8Y/yYUeqXbtQYbt6JDlpmQOI9TPKm+KoswPlLq0YN6Riy7X8qwqa
t0ywLOlzr3w79IBaLebP2SMSDii5+cVBhMRb3UUgiH/nICmqNMn9COQ+6z+gwnwF
YZsMalxZiv5HOueOKIkVRjlYLo8UqDHRIHaFBgB62FSj2wIDAQABo4GiMIGfMAkG
A1UdEwQCMAAwHQYDVR0OBBYEFNvgaSb03ffUzdEtTf8msR9qAdfrMFEGA1UdIwRK
MEiAFNz8g5AlStTkYeb/6zmztDDG5oNeoRqkGDAWMRQwEgYDVQQDDAt0ZWFtMjQ1
LW5ldIIUX7U9Fvwp5tZ/KzKsHeFQxBG37powEwYDVR0lBAwwCgYIKwYBBQUHAwIw
CwYDVR0PBAQDAgeAMA0GCSqGSIb3DQEBCwUAA4IBAQCF730MVSLzqFF5n+Y5jveO
C+iiqJ47yX/yWJDWM3ILKoiSCG9ZK5uOCrViCxeGByF2fJxMlDvnrC1bvTVryIVK
Off+rdiKPoNpg206B4V8nH9mJJ5GACwMf+H8Badq8425t1XE4wDa0dgmI8Utnwmw
AlIgOx58QY4/Xt7FV/2hbHeMusVvM8MaPO2o4stddc0LNTZPxSKR7GhsCi03oDJ5
1i3agEGU2eFveMn4CFksCPY5sVlMXmFQlXYX2iw4X++6YTFdB2aa7cZlDAKCLaCc
kmVZQjjH3To+6OrX5uE7N9qd8HAI+OZvHCKc9Y8AytzUJKNLd9Ni13QUovWQmJ3n
-----END CERTIFICATE-----
