Certificate:
    Data:
        Version: 3 (0x2)
        Serial Number:
            8f:94:35:d6:67:bc:ef:ad:63:4a:cf:18:25:50:65:2d
        Signature Algorithm: sha256WithRSAEncryption
        Issuer: CN=team691-net
        Validity
            Not Before: Sep 13 04:42:53 2021 GMT
            Not After : Aug 28 04:42:53 2024 GMT
        Subject: CN=team691-client
        Subject Public Key Info:
            Public Key Algorithm: rsaEncryption
                RSA Public-Key: (2048 bit)
                Modulus:
                    00:b5:86:cc:4e:b4:b9:47:16:5b:5a:ea:97:72:0e:
                    39:64:99:a2:c0:09:f9:6d:79:95:6b:0f:e5:d2:59:
                    52:86:ed:8e:f8:b0:d8:a7:3c:cd:e1:5c:ee:37:4d:
                    e2:c5:89:94:3b:16:05:91:8c:5d:f0:cf:a9:25:bb:
                    1f:0e:65:06:4b:87:8f:c0:b6:48:82:76:f7:a2:08:
                    f5:a1:0d:bf:4c:17:2f:5e:a6:e2:ba:b9:99:70:d8:
                    60:9f:ec:b2:13:30:42:3d:2e:53:dd:09:d8:66:f5:
                    8b:47:fe:a6:f3:17:84:42:0b:70:94:79:5d:d6:b0:
                    d8:96:78:9d:48:71:a4:80:fc:7a:a9:69:b2:4e:81:
                    64:39:78:00:ec:51:36:01:a7:c1:84:de:48:ef:35:
                    c3:2f:e4:eb:30:dc:b7:05:41:24:1a:0d:8c:6a:6d:
                    57:84:17:16:41:1b:fd:b0:fe:f6:a9:58:a2:d4:d1:
                    40:60:07:ad:a2:bc:bb:42:a4:fe:73:91:77:96:9b:
                    60:ff:8c:29:bb:c6:32:84:34:f2:79:08:1d:65:63:
                    60:cd:54:0b:30:2d:4e:6f:d6:cc:04:b3:d6:9d:f7:
                    a8:60:7e:e1:92:2f:b8:57:45:14:30:49:e8:f6:df:
                    aa:09:32:a5:a2:05:d1:82:a6:78:9a:b7:57:7f:17:
                    9d:73
                Exponent: 65537 (0x10001)
        X509v3 extensions:
            X509v3 Basic Constraints: 
                CA:FALSE
            X509v3 Subject Key Identifier: 
                BE:29:7F:AB:F3:B4:59:4C:06:77:7E:54:E3:B1:1E:D3:86:0C:6A:BB
            X509v3 Authority Key Identifier: 
                keyid:70:5A:E1:49:63:3E:48:40:C8:A2:1B:28:14:3E:AE:42:42:DD:25:4A
                DirName:/CN=team691-net
                serial:67:66:49:39:83:0C:27:35:26:44:3B:71:EA:87:EC:1F:1D:F9:14:5B

            X509v3 Extended Key Usage: 
                TLS Web Client Authentication
            X509v3 Key Usage: 
                Digital Signature
    Signature Algorithm: sha256WithRSAEncryption
         82:00:1e:91:62:83:a8:06:5d:8c:fe:65:3f:82:d5:5c:70:19:
         f7:13:fc:69:7a:d7:3f:22:cf:31:3d:a5:f4:c3:c1:c7:80:46:
         84:69:57:f0:39:6b:6a:de:bc:cd:40:de:ff:74:fc:88:8a:4d:
         1d:e1:e3:a8:3d:66:03:a9:bb:ec:16:8f:c4:34:87:f3:b0:0b:
         87:91:1f:be:e1:c7:53:70:76:43:1d:5b:65:a3:66:df:74:78:
         e6:45:42:15:c4:ab:39:d2:98:29:ed:9e:f0:e8:a5:7f:ac:8c:
         4c:03:8e:24:bb:9e:3f:a8:f2:8b:c4:b3:52:97:ed:f4:62:3b:
         46:67:63:20:a8:52:4c:e6:1c:58:da:57:84:3f:59:b5:5c:bc:
         30:41:ec:9d:7d:0a:f3:12:84:00:af:2c:57:54:c4:14:59:ce:
         6e:12:9b:14:28:15:45:8f:81:ff:c2:06:96:60:9f:a8:bc:d6:
         87:7a:9a:db:28:cd:5e:a3:21:ac:ca:3f:61:ff:46:5b:88:77:
         a5:9b:06:3f:5c:ed:6a:a0:6c:8f:69:b6:12:0f:ff:98:5d:3b:
         9e:80:29:45:56:ca:ed:37:a1:cb:87:5a:23:75:9b:b0:8f:81:
         be:c5:1d:4b:92:74:63:ce:59:ac:cf:d4:f2:b3:f7:30:59:89:
         1a:ca:09:22
-----BEGIN CERTIFICATE-----
MIIDXTCCAkWgAwIBAgIRAI+UNdZnvO+tY0rPGCVQZS0wDQYJKoZIhvcNAQELBQAw
FjEUMBIGA1UEAwwLdGVhbTY5MS1uZXQwHhcNMjEwOTEzMDQ0MjUzWhcNMjQwODI4
MDQ0MjUzWjAZMRcwFQYDVQQDDA50ZWFtNjkxLWNsaWVudDCCASIwDQYJKoZIhvcN
AQEBBQADggEPADCCAQoCggEBALWGzE60uUcWW1rql3IOOWSZosAJ+W15lWsP5dJZ
Uobtjviw2Kc8zeFc7jdN4sWJlDsWBZGMXfDPqSW7Hw5lBkuHj8C2SIJ296II9aEN
v0wXL16m4rq5mXDYYJ/sshMwQj0uU90J2Gb1i0f+pvMXhEILcJR5Xdaw2JZ4nUhx
pID8eqlpsk6BZDl4AOxRNgGnwYTeSO81wy/k6zDctwVBJBoNjGptV4QXFkEb/bD+
9qlYotTRQGAHraK8u0Kk/nORd5abYP+MKbvGMoQ08nkIHWVjYM1UCzAtTm/WzASz
1p33qGB+4ZIvuFdFFDBJ6PbfqgkypaIF0YKmeJq3V38XnXMCAwEAAaOBojCBnzAJ
BgNVHRMEAjAAMB0GA1UdDgQWBBS+KX+r87RZTAZ3flTjsR7ThgxquzBRBgNVHSME
SjBIgBRwWuFJYz5IQMiiGygUPq5CQt0lSqEapBgwFjEUMBIGA1UEAwwLdGVhbTY5
MS1uZXSCFGdmSTmDDCc1JkQ7ceqH7B8d+RRbMBMGA1UdJQQMMAoGCCsGAQUFBwMC
MAsGA1UdDwQEAwIHgDANBgkqhkiG9w0BAQsFAAOCAQEAggAekWKDqAZdjP5lP4LV
XHAZ9xP8aXrXPyLPMT2l9MPBx4BGhGlX8Dlrat68zUDe/3T8iIpNHeHjqD1mA6m7
7BaPxDSH87ALh5EfvuHHU3B2Qx1bZaNm33R45kVCFcSrOdKYKe2e8Oilf6yMTAOO
JLueP6jyi8SzUpft9GI7RmdjIKhSTOYcWNpXhD9ZtVy8MEHsnX0K8xKEAK8sV1TE
FFnObhKbFCgVRY+B/8IGlmCfqLzWh3qa2yjNXqMhrMo/Yf9GW4h3pZsGP1ztaqBs
j2m2Eg//mF07noApRVbK7Tehy4daI3WbsI+BvsUdS5J0Y85ZrM/U8rP3MFmJGsoJ
Ig==
-----END CERTIFICATE-----
