Certificate:
    Data:
        Version: 3 (0x2)
        Serial Number:
            0d:64:47:5e:9a:b8:13:ba:39:eb:ad:3e:10:8d:bb:9e
        Signature Algorithm: sha256WithRSAEncryption
        Issuer: CN=team127-net
        Validity
            Not Before: Sep 12 23:53:21 2021 GMT
            Not After : Aug 27 23:53:21 2024 GMT
        Subject: CN=team127-server
        Subject Public Key Info:
            Public Key Algorithm: rsaEncryption
                RSA Public-Key: (2048 bit)
                Modulus:
                    00:df:0f:61:22:62:06:9c:ad:05:c8:eb:70:f8:a5:
                    09:74:37:ad:66:66:62:84:d8:35:6a:30:36:a9:17:
                    a9:7a:2a:3a:8c:d1:65:45:bc:1b:27:24:59:a8:0b:
                    12:f5:10:ba:e7:50:ac:88:b6:6e:a0:eb:b2:33:40:
                    c3:df:31:37:97:3f:41:ef:bd:05:a9:a8:b5:e5:20:
                    4d:1f:44:4c:73:3c:2c:e0:9d:c0:3a:6a:4d:15:d3:
                    2f:5a:34:90:ba:e4:6f:6c:d0:31:5b:aa:1b:b2:86:
                    72:3c:21:6b:5d:c7:1f:42:a1:d6:56:be:25:89:64:
                    a9:50:31:74:32:7b:94:44:9f:1e:e0:50:ca:e2:29:
                    d2:60:1f:94:8c:72:10:b0:de:24:a2:1a:b1:e5:53:
                    34:b1:38:99:53:4b:a9:a0:85:ca:c0:c3:b1:83:90:
                    b0:96:67:f9:7a:f0:03:95:6c:fc:17:96:14:d1:b8:
                    f6:e4:f1:3e:ea:47:21:68:d3:b5:f5:0e:39:2d:b2:
                    e9:e7:47:3b:04:b8:82:96:ea:43:0b:36:47:47:2e:
                    28:b0:ce:52:52:7e:3a:16:2b:62:53:8f:85:2c:e8:
                    49:df:20:80:91:f9:74:74:a4:41:fe:9a:8c:30:93:
                    b0:43:ea:39:f9:04:82:0d:be:0f:28:69:e9:79:80:
                    ef:3d
                Exponent: 65537 (0x10001)
        X509v3 extensions:
            X509v3 Basic Constraints: 
                CA:FALSE
            X509v3 Subject Key Identifier: 
                BC:A7:C9:B4:73:9B:B9:95:B1:7E:F2:48:88:51:69:14:12:FD:80:18
            X509v3 Authority Key Identifier: 
                keyid:D0:A1:38:1A:75:DA:EF:E7:16:2C:82:E8:70:1D:F8:40:4F:5F:7A:60
                DirName:/CN=team127-net
                serial:01:A2:26:7E:8C:FF:6B:C5:02:83:4B:23:2A:18:9A:98:CA:8F:59:92

            X509v3 Extended Key Usage: 
                TLS Web Server Authentication
            X509v3 Key Usage: 
                Digital Signature, Key Encipherment
            X509v3 Subject Alternative Name: 
                DNS:team127-server
    Signature Algorithm: sha256WithRSAEncryption
         a1:35:3c:80:b7:b3:6d:4d:06:0a:09:90:ee:fc:40:9d:37:a8:
         4d:2e:02:75:43:8a:26:db:79:6b:d3:6e:b9:28:89:38:8d:60:
         95:9a:53:87:85:b1:e2:d3:29:0f:46:d2:33:58:3f:6d:24:4b:
         0b:5a:3c:af:24:eb:fc:43:3b:01:db:a5:e4:28:ca:15:5e:83:
         8a:36:c8:26:ee:28:41:d2:45:91:4d:22:a5:e9:2f:fa:52:35:
         45:e9:d3:69:ce:e7:65:2a:22:f4:8f:05:ff:06:40:47:19:a2:
         e2:cc:f0:69:51:73:2f:dc:0e:39:cf:d3:49:2b:1c:dc:ee:30:
         87:e4:bc:58:3d:37:41:ca:5c:c0:40:59:01:b8:81:a0:80:03:
         f6:30:a9:15:db:f9:0e:9f:44:9c:27:88:73:a6:e1:df:79:8d:
         50:0d:7b:51:7b:48:e9:0c:ee:59:c1:c8:f4:da:1a:a5:0d:dc:
         3a:26:55:fc:5e:11:33:0e:ce:36:34:82:eb:c0:e4:e0:95:3a:
         a1:2b:60:82:23:bc:7d:9d:0d:85:79:eb:ff:95:ff:39:a8:db:
         e7:28:f2:0d:75:b3:ea:5b:cd:bd:8c:c6:62:2a:61:a9:a4:50:
         d6:e5:d1:af:80:fb:44:9b:1f:6e:20:0d:03:77:36:8a:f5:6d:
         13:60:54:4d
-----BEGIN CERTIFICATE-----
MIIDdzCCAl+gAwIBAgIQDWRHXpq4E7o5660+EI27njANBgkqhkiG9w0BAQsFADAW
MRQwEgYDVQQDDAt0ZWFtMTI3LW5ldDAeFw0yMTA5MTIyMzUzMjFaFw0yNDA4Mjcy
MzUzMjFaMBkxFzAVBgNVBAMMDnRlYW0xMjctc2VydmVyMIIBIjANBgkqhkiG9w0B
AQEFAAOCAQ8AMIIBCgKCAQEA3w9hImIGnK0FyOtw+KUJdDetZmZihNg1ajA2qRep
eio6jNFlRbwbJyRZqAsS9RC651CsiLZuoOuyM0DD3zE3lz9B770Fqai15SBNH0RM
czws4J3AOmpNFdMvWjSQuuRvbNAxW6obsoZyPCFrXccfQqHWVr4liWSpUDF0MnuU
RJ8e4FDK4inSYB+UjHIQsN4kohqx5VM0sTiZU0upoIXKwMOxg5Cwlmf5evADlWz8
F5YU0bj25PE+6kchaNO19Q45LbLp50c7BLiClupDCzZHRy4osM5SUn46FitiU4+F
LOhJ3yCAkfl0dKRB/pqMMJOwQ+o5+QSCDb4PKGnpeYDvPQIDAQABo4G9MIG6MAkG
A1UdEwQCMAAwHQYDVR0OBBYEFLynybRzm7mVsX7ySIhRaRQS/YAYMFEGA1UdIwRK
MEiAFNChOBp12u/nFiyC6HAd+EBPX3pgoRqkGDAWMRQwEgYDVQQDDAt0ZWFtMTI3
LW5ldIIUAaImfoz/a8UCg0sjKhiamMqPWZIwEwYDVR0lBAwwCgYIKwYBBQUHAwEw
CwYDVR0PBAQDAgWgMBkGA1UdEQQSMBCCDnRlYW0xMjctc2VydmVyMA0GCSqGSIb3
DQEBCwUAA4IBAQChNTyAt7NtTQYKCZDu/ECdN6hNLgJ1Q4om23lr0265KIk4jWCV
mlOHhbHi0ykPRtIzWD9tJEsLWjyvJOv8QzsB26XkKMoVXoOKNsgm7ihB0kWRTSKl
6S/6UjVF6dNpzudlKiL0jwX/BkBHGaLizPBpUXMv3A45z9NJKxzc7jCH5LxYPTdB
ylzAQFkBuIGggAP2MKkV2/kOn0ScJ4hzpuHfeY1QDXtRe0jpDO5Zwcj02hqlDdw6
JlX8XhEzDs42NILrwOTglTqhK2CCI7x9nQ2Feev/lf85qNvnKPINdbPqW829jMZi
KmGppFDW5dGvgPtEmx9uIA0DdzaK9W0TYFRN
-----END CERTIFICATE-----
