Certificate:
    Data:
        Version: 3 (0x2)
        Serial Number:
            bd:f7:20:2a:37:b1:3f:10:1a:3f:04:21:38:ec:62:bc
        Signature Algorithm: sha256WithRSAEncryption
        Issuer: CN=team70-net
        Validity
            Not Before: Sep 12 23:17:05 2021 GMT
            Not After : Aug 27 23:17:05 2024 GMT
        Subject: CN=team70-server
        Subject Public Key Info:
            Public Key Algorithm: rsaEncryption
                RSA Public-Key: (2048 bit)
                Modulus:
                    00:be:8f:e2:b0:82:22:ad:5e:e5:75:74:e4:fa:3b:
                    ef:8c:4e:f2:31:fc:64:84:2c:47:c6:d4:31:19:ce:
                    50:cc:67:f9:89:fa:8a:3b:fa:4d:1d:1e:d9:de:06:
                    1e:14:1e:96:7a:3a:9a:fd:b2:f8:72:93:cb:dc:04:
                    4e:c2:b5:a8:5f:c8:a6:39:20:00:5a:da:f4:60:a4:
                    05:67:c3:05:31:f2:55:51:04:39:d8:a2:76:f2:7a:
                    53:4e:73:bd:d0:90:c7:5e:45:2b:50:9c:11:25:b2:
                    4c:e9:3d:11:bc:50:db:45:bc:b1:23:8a:39:14:9c:
                    c7:f5:5e:19:2f:f6:4c:85:b0:60:27:d6:c2:cf:60:
                    89:a8:6b:f6:d7:fc:2d:0e:c6:ab:de:06:02:01:07:
                    43:16:07:4a:a4:46:2f:2b:46:31:67:41:2b:0d:79:
                    b9:01:59:db:08:3c:cd:09:4c:54:1a:e5:4a:94:74:
                    e4:2e:0e:36:b4:1a:74:ae:bc:50:45:df:48:06:10:
                    b1:d5:c2:e0:b8:d8:05:24:73:a0:e3:61:e6:0c:6a:
                    11:8b:57:e1:88:59:0e:53:71:f8:e0:39:2a:3b:75:
                    48:b7:ea:f4:b3:e8:82:30:aa:0a:22:02:ce:54:ab:
                    71:67:e2:54:63:55:e0:39:c1:d4:1d:31:a1:51:c1:
                    eb:6f
                Exponent: 65537 (0x10001)
        X509v3 extensions:
            X509v3 Basic Constraints: 
                CA:FALSE
            X509v3 Subject Key Identifier: 
                51:DD:BE:E8:9C:45:6D:C7:F0:A5:1E:1A:73:52:2D:68:C3:DA:0C:0C
            X509v3 Authority Key Identifier: 
                keyid:8E:19:E0:63:AB:52:B6:AF:4C:CE:E1:35:E1:C1:EF:48:DE:83:E0:5F
                DirName:/CN=team70-net
                serial:3A:17:A2:57:0E:A0:A9:D1:E9:02:5E:CB:94:2D:50:20:7E:58:42:81

            X509v3 Extended Key Usage: 
                TLS Web Server Authentication
            X509v3 Key Usage: 
                Digital Signature, Key Encipherment
            X509v3 Subject Alternative Name: 
                DNS:team70-server
    Signature Algorithm: sha256WithRSAEncryption
         78:34:12:47:14:98:b5:9d:e8:52:43:f5:d3:e4:02:9f:0f:fb:
         c2:e5:76:52:56:ad:69:5a:a8:b4:8c:87:6e:01:7f:11:10:4a:
         b4:0c:7b:0b:f2:2c:59:32:67:7b:69:0d:73:64:5b:e9:f8:1a:
         6e:b5:72:44:2d:23:fc:5e:fc:6e:67:bf:7d:e9:20:8b:87:d9:
         cf:eb:33:7d:c9:0b:c7:e0:81:df:c0:57:3e:33:3f:fb:d4:3a:
         eb:a2:2d:fa:43:16:cc:87:65:01:cd:d7:ea:ff:e8:d8:ef:7c:
         3e:41:42:5a:e3:15:61:89:cf:37:3a:19:6e:c0:b8:ef:f7:98:
         17:12:25:5d:aa:b1:02:46:f5:de:62:96:0c:8f:38:4d:bc:18:
         88:20:83:cb:6d:12:6c:a4:67:35:c1:9d:46:80:e3:9d:34:7a:
         f2:71:b6:94:96:aa:bd:55:f3:94:4a:0a:56:da:6c:b9:2c:c6:
         5b:50:36:77:88:0d:a2:51:d8:3a:34:31:01:10:97:7d:18:65:
         dd:be:c7:36:ee:ae:34:b7:5f:9a:00:b6:f4:26:5d:17:0f:ea:
         84:31:47:12:cb:2f:52:1b:89:85:da:40:f6:c7:1a:2c:64:57:
         19:91:04:34:4b:a3:f9:7c:8a:e0:f1:92:1f:c5:1a:45:8c:16:
         05:ff:81:e2
-----BEGIN CERTIFICATE-----
MIIDdDCCAlygAwIBAgIRAL33ICo3sT8QGj8EITjsYrwwDQYJKoZIhvcNAQELBQAw
FTETMBEGA1UEAwwKdGVhbTcwLW5ldDAeFw0yMTA5MTIyMzE3MDVaFw0yNDA4Mjcy
MzE3MDVaMBgxFjAUBgNVBAMMDXRlYW03MC1zZXJ2ZXIwggEiMA0GCSqGSIb3DQEB
AQUAA4IBDwAwggEKAoIBAQC+j+KwgiKtXuV1dOT6O++MTvIx/GSELEfG1DEZzlDM
Z/mJ+oo7+k0dHtneBh4UHpZ6Opr9svhyk8vcBE7CtahfyKY5IABa2vRgpAVnwwUx
8lVRBDnYonbyelNOc73QkMdeRStQnBElskzpPRG8UNtFvLEjijkUnMf1Xhkv9kyF
sGAn1sLPYImoa/bX/C0OxqveBgIBB0MWB0qkRi8rRjFnQSsNebkBWdsIPM0JTFQa
5UqUdOQuDja0GnSuvFBF30gGELHVwuC42AUkc6DjYeYMahGLV+GIWQ5TcfjgOSo7
dUi36vSz6IIwqgoiAs5Uq3Fn4lRjVeA5wdQdMaFRwetvAgMBAAGjgbswgbgwCQYD
VR0TBAIwADAdBgNVHQ4EFgQUUd2+6JxFbcfwpR4ac1ItaMPaDAwwUAYDVR0jBEkw
R4AUjhngY6tStq9MzuE14cHvSN6D4F+hGaQXMBUxEzARBgNVBAMMCnRlYW03MC1u
ZXSCFDoXolcOoKnR6QJey5QtUCB+WEKBMBMGA1UdJQQMMAoGCCsGAQUFBwMBMAsG
A1UdDwQEAwIFoDAYBgNVHREEETAPgg10ZWFtNzAtc2VydmVyMA0GCSqGSIb3DQEB
CwUAA4IBAQB4NBJHFJi1nehSQ/XT5AKfD/vC5XZSVq1pWqi0jIduAX8REEq0DHsL
8ixZMmd7aQ1zZFvp+BputXJELSP8XvxuZ7996SCLh9nP6zN9yQvH4IHfwFc+Mz/7
1Drroi36QxbMh2UBzdfq/+jY73w+QUJa4xVhic83OhluwLjv95gXEiVdqrECRvXe
YpYMjzhNvBiIIIPLbRJspGc1wZ1GgOOdNHrycbaUlqq9VfOUSgpW2my5LMZbUDZ3
iA2iUdg6NDEBEJd9GGXdvsc27q40t1+aALb0Jl0XD+qEMUcSyy9SG4mF2kD2xxos
ZFcZkQQ0S6P5fIrg8ZIfxRpFjBYF/4Hi
-----END CERTIFICATE-----
