Certificate:
    Data:
        Version: 3 (0x2)
        Serial Number:
            fa:49:83:a7:97:e2:1a:f3:a5:16:2c:a6:99:37:b6:b3
        Signature Algorithm: sha256WithRSAEncryption
        Issuer: CN=team27-net
        Validity
            Not Before: Sep 12 22:56:58 2021 GMT
            Not After : Aug 27 22:56:58 2024 GMT
        Subject: CN=team27-client
        Subject Public Key Info:
            Public Key Algorithm: rsaEncryption
                RSA Public-Key: (2048 bit)
                Modulus:
                    00:9e:a0:8e:33:73:2a:ef:e1:fe:2d:5a:53:00:69:
                    1a:92:cd:62:25:bd:fd:4e:fb:47:14:de:f7:78:bd:
                    e4:7c:c5:b1:28:56:d1:f1:1c:37:01:7d:48:74:60:
                    ba:e7:fb:1c:8d:2f:c9:76:5b:00:ae:19:ce:23:a7:
                    eb:ee:bb:41:bf:b8:78:a2:db:07:b1:95:3a:e4:a2:
                    c6:ba:b2:ee:c9:90:7b:5a:4b:84:cc:56:f5:c0:d4:
                    fb:d0:2e:ef:3d:ae:8c:67:95:47:1a:d5:e1:22:77:
                    9d:00:d5:95:be:c6:99:06:36:c1:ef:2f:b4:98:5d:
                    ee:ad:a9:73:c9:2f:42:af:ec:7e:d6:e5:5e:c0:75:
                    86:d9:87:78:b6:34:22:26:19:8f:9a:10:87:b7:e0:
                    ef:62:68:49:42:0e:91:5d:cc:c6:54:70:8a:b7:0b:
                    5d:d3:dd:89:3d:32:69:51:f5:16:3c:67:ba:3d:36:
                    67:90:24:81:48:2a:da:07:d7:c7:d7:8f:db:f1:17:
                    c3:dc:e5:2d:c3:8c:7f:8f:5b:f9:68:70:07:9d:ea:
                    72:76:f0:93:f2:1d:bb:9e:3e:98:82:20:5e:df:4e:
                    a0:5d:55:2a:49:98:af:c5:b7:32:f6:41:fe:60:0e:
                    e7:4c:b5:68:c9:6f:80:64:7e:9c:84:aa:8c:f0:a1:
                    2d:db
                Exponent: 65537 (0x10001)
        X509v3 extensions:
            X509v3 Basic Constraints: 
                CA:FALSE
            X509v3 Subject Key Identifier: 
                0B:E9:D5:D2:F8:AF:BD:E7:D2:E5:6C:D5:BD:04:1E:08:AC:0A:9F:B8
            X509v3 Authority Key Identifier: 
                keyid:AE:AE:DF:C1:00:F3:B5:38:D3:B3:15:2D:44:AC:11:3C:25:D5:50:0D
                DirName:/CN=team27-net
                serial:32:DD:1F:BC:80:4F:4E:4E:4A:0D:0F:88:CF:43:D6:C8:D0:71:A3:25

            X509v3 Extended Key Usage: 
                TLS Web Client Authentication
            X509v3 Key Usage: 
                Digital Signature
    Signature Algorithm: sha256WithRSAEncryption
         9a:0e:06:d4:2a:70:7a:8d:46:b6:d6:51:2e:e6:e0:b0:24:11:
         75:a0:1e:51:0b:08:cf:95:c9:5b:d9:26:c2:f4:9d:98:6d:80:
         3b:d2:7a:63:af:f2:d0:7c:0f:a3:1f:aa:b9:38:7e:dc:13:58:
         84:c0:49:fa:c4:d0:ee:c0:37:69:0b:0e:af:2b:55:e6:d9:99:
         08:6b:53:92:2f:a5:70:03:d2:13:e6:da:cd:2f:e8:2c:fe:49:
         cb:a0:59:35:58:0b:99:d1:8e:e4:10:13:48:c7:28:e4:ae:05:
         e1:3b:7d:bc:3b:dd:ec:79:b9:93:25:35:95:2b:cd:c6:68:3b:
         f3:00:da:c0:a7:7b:1d:8c:5c:87:ff:da:ae:d8:79:5e:95:41:
         a1:18:8f:d1:a0:98:aa:81:ae:a7:5a:81:65:e1:f0:e6:f1:4e:
         5a:ee:58:c0:02:b8:b1:19:61:eb:87:ef:b5:a6:e1:6a:bc:5f:
         7e:6b:92:48:d5:7d:08:c5:eb:1f:71:1a:a8:ff:29:cb:70:24:
         d9:3c:b3:d6:6d:a3:64:f0:27:a7:63:18:d9:34:c2:af:31:1a:
         99:1e:2c:eb:0a:61:69:e7:d2:90:b0:a0:e9:36:38:54:a8:c9:
         de:86:aa:48:36:9c:5c:67:60:d0:53:fb:70:70:cb:1e:3b:f0:
         d6:00:09:ec
-----BEGIN CERTIFICATE-----
MIIDWjCCAkKgAwIBAgIRAPpJg6eX4hrzpRYsppk3trMwDQYJKoZIhvcNAQELBQAw
FTETMBEGA1UEAwwKdGVhbTI3LW5ldDAeFw0yMTA5MTIyMjU2NThaFw0yNDA4Mjcy
MjU2NThaMBgxFjAUBgNVBAMMDXRlYW0yNy1jbGllbnQwggEiMA0GCSqGSIb3DQEB
AQUAA4IBDwAwggEKAoIBAQCeoI4zcyrv4f4tWlMAaRqSzWIlvf1O+0cU3vd4veR8
xbEoVtHxHDcBfUh0YLrn+xyNL8l2WwCuGc4jp+vuu0G/uHii2wexlTrkosa6su7J
kHtaS4TMVvXA1PvQLu89roxnlUca1eEid50A1ZW+xpkGNsHvL7SYXe6tqXPJL0Kv
7H7W5V7AdYbZh3i2NCImGY+aEIe34O9iaElCDpFdzMZUcIq3C13T3Yk9MmlR9RY8
Z7o9NmeQJIFIKtoH18fXj9vxF8Pc5S3DjH+PW/locAed6nJ28JPyHbuePpiCIF7f
TqBdVSpJmK/FtzL2Qf5gDudMtWjJb4BkfpyEqozwoS3bAgMBAAGjgaEwgZ4wCQYD
VR0TBAIwADAdBgNVHQ4EFgQUC+nV0vivvefS5WzVvQQeCKwKn7gwUAYDVR0jBEkw
R4AUrq7fwQDztTjTsxUtRKwRPCXVUA2hGaQXMBUxEzARBgNVBAMMCnRlYW0yNy1u
ZXSCFDLdH7yAT05OSg0PiM9D1sjQcaMlMBMGA1UdJQQMMAoGCCsGAQUFBwMCMAsG
A1UdDwQEAwIHgDANBgkqhkiG9w0BAQsFAAOCAQEAmg4G1Cpweo1GttZRLubgsCQR
daAeUQsIz5XJW9kmwvSdmG2AO9J6Y6/y0HwPox+quTh+3BNYhMBJ+sTQ7sA3aQsO
rytV5tmZCGtTki+lcAPSE+bazS/oLP5Jy6BZNVgLmdGO5BATSMco5K4F4Tt9vDvd
7Hm5kyU1lSvNxmg78wDawKd7HYxch//arth5XpVBoRiP0aCYqoGup1qBZeHw5vFO
Wu5YwAK4sRlh64fvtabharxffmuSSNV9CMXrH3EaqP8py3Ak2Tyz1m2jZPAnp2MY
2TTCrzEamR4s6wphaefSkLCg6TY4VKjJ3oaqSDacXGdg0FP7cHDLHjvw1gAJ7A==
-----END CERTIFICATE-----
