Certificate:
    Data:
        Version: 3 (0x2)
        Serial Number:
            35:20:de:9e:b2:74:7b:b1:a1:6f:f1:9d:70:a9:7c:17
        Signature Algorithm: sha256WithRSAEncryption
        Issuer: CN=team158-net
        Validity
            Not Before: Sep 13 00:07:53 2021 GMT
            Not After : Aug 28 00:07:53 2024 GMT
        Subject: CN=team158-server
        Subject Public Key Info:
            Public Key Algorithm: rsaEncryption
                RSA Public-Key: (2048 bit)
                Modulus:
                    00:bf:29:e2:e9:66:fb:c9:4f:ec:94:9d:7c:da:25:
                    1b:3a:f8:ce:9c:0a:b3:62:bf:32:a5:7c:5c:8a:25:
                    a9:59:74:e1:be:ff:3b:11:78:60:15:0e:29:fc:48:
                    63:53:ed:d7:33:50:ca:81:49:ba:49:fa:1d:41:27:
                    a2:54:76:87:60:92:8c:cf:7b:c8:35:79:c4:87:e9:
                    88:2f:55:2a:0a:38:7f:8f:52:4c:68:e1:26:5c:ad:
                    12:5b:f1:6e:f1:d0:88:25:fb:21:91:29:38:67:9c:
                    94:2b:5f:7a:0e:c2:57:83:07:2f:92:10:43:68:03:
                    9a:21:09:93:ea:65:83:3d:34:3b:93:55:f8:76:ce:
                    06:aa:b1:8a:b9:5c:72:c4:e3:a7:a7:0b:07:32:57:
                    32:d2:e1:a0:c3:38:71:76:17:cf:d8:7d:ce:eb:f3:
                    c7:15:a0:48:7c:80:74:3d:77:a6:b4:01:0f:45:33:
                    b3:3f:56:23:f7:a8:06:39:ed:ac:1d:ba:a1:50:dc:
                    89:9f:12:8c:d8:85:aa:4a:60:54:f9:78:21:7c:9f:
                    1f:86:38:0b:a5:cf:0a:ba:52:e6:2a:19:47:8b:47:
                    5b:a6:ae:5d:92:7a:5d:d3:70:78:f0:08:85:b6:b6:
                    91:ec:69:d0:75:ca:e2:08:e8:9c:c5:80:7a:f5:50:
                    fd:ab
                Exponent: 65537 (0x10001)
        X509v3 extensions:
            X509v3 Basic Constraints: 
                CA:FALSE
            X509v3 Subject Key Identifier: 
                B8:46:A5:1E:ED:CA:CB:A2:09:E9:23:E0:36:3E:66:57:9A:ED:6E:AB
            X509v3 Authority Key Identifier: 
                keyid:DB:CA:83:A6:B2:B7:96:FE:1C:67:CA:98:7B:56:1A:33:D0:81:86:26
                DirName:/CN=team158-net
                serial:47:EA:BF:C7:E5:E2:22:D1:73:8A:D3:24:F3:3C:0F:D7:51:D0:EC:DF

            X509v3 Extended Key Usage: 
                TLS Web Server Authentication
            X509v3 Key Usage: 
                Digital Signature, Key Encipherment
            X509v3 Subject Alternative Name: 
                DNS:team158-server
    Signature Algorithm: sha256WithRSAEncryption
         29:6f:80:8c:2b:7b:27:67:f2:a2:2c:e4:87:ee:31:30:c6:91:
         cf:1b:23:91:03:c5:03:65:c8:25:1b:67:b9:ae:d3:2e:c0:db:
         71:8b:21:bb:bd:92:4c:98:1d:83:31:60:30:86:06:29:ac:88:
         6b:66:80:01:03:60:7e:d4:d9:40:51:0c:44:4f:42:db:b4:4d:
         80:0c:1d:52:e1:77:71:18:48:ba:03:65:77:ce:d1:f4:bd:d0:
         e3:72:b1:7c:f8:50:13:67:06:bf:1f:a4:ab:37:ac:23:85:10:
         8d:68:13:ee:81:5c:ab:a6:32:42:ca:63:5e:f5:60:a6:85:c9:
         c9:44:f8:7f:50:09:53:22:04:f6:f0:52:46:6d:a0:9b:d1:98:
         63:d7:a5:b7:96:d3:a2:36:cf:d0:f5:37:92:40:9c:5e:23:02:
         bf:5e:e7:c6:5a:54:3e:45:2c:2d:17:fb:16:6b:a9:4d:82:e2:
         f9:b8:fb:4e:3e:09:b8:33:d4:2a:b1:15:b8:c0:01:d9:51:5d:
         b8:1a:60:b6:6c:ea:81:bf:8e:19:70:37:a4:cd:a8:31:3a:e6:
         f0:c3:40:1f:17:8e:47:73:ad:e7:ea:b3:2f:0a:f5:05:c7:01:
         71:ff:47:40:4b:af:98:d4:bc:ed:e4:44:05:e9:57:d7:74:b8:
         f5:ae:ad:51
-----BEGIN CERTIFICATE-----
MIIDdzCCAl+gAwIBAgIQNSDenrJ0e7Ghb/GdcKl8FzANBgkqhkiG9w0BAQsFADAW
MRQwEgYDVQQDDAt0ZWFtMTU4LW5ldDAeFw0yMTA5MTMwMDA3NTNaFw0yNDA4Mjgw
MDA3NTNaMBkxFzAVBgNVBAMMDnRlYW0xNTgtc2VydmVyMIIBIjANBgkqhkiG9w0B
AQEFAAOCAQ8AMIIBCgKCAQEAvyni6Wb7yU/slJ182iUbOvjOnAqzYr8ypXxciiWp
WXThvv87EXhgFQ4p/EhjU+3XM1DKgUm6SfodQSeiVHaHYJKMz3vINXnEh+mIL1Uq
Cjh/j1JMaOEmXK0SW/Fu8dCIJfshkSk4Z5yUK196DsJXgwcvkhBDaAOaIQmT6mWD
PTQ7k1X4ds4GqrGKuVxyxOOnpwsHMlcy0uGgwzhxdhfP2H3O6/PHFaBIfIB0PXem
tAEPRTOzP1Yj96gGOe2sHbqhUNyJnxKM2IWqSmBU+XghfJ8fhjgLpc8KulLmKhlH
i0dbpq5dknpd03B48AiFtraR7GnQdcriCOicxYB69VD9qwIDAQABo4G9MIG6MAkG
A1UdEwQCMAAwHQYDVR0OBBYEFLhGpR7tysuiCekj4DY+Zlea7W6rMFEGA1UdIwRK
MEiAFNvKg6ayt5b+HGfKmHtWGjPQgYYmoRqkGDAWMRQwEgYDVQQDDAt0ZWFtMTU4
LW5ldIIUR+q/x+XiItFzitMk8zwP11HQ7N8wEwYDVR0lBAwwCgYIKwYBBQUHAwEw
CwYDVR0PBAQDAgWgMBkGA1UdEQQSMBCCDnRlYW0xNTgtc2VydmVyMA0GCSqGSIb3
DQEBCwUAA4IBAQApb4CMK3snZ/KiLOSH7jEwxpHPGyORA8UDZcglG2e5rtMuwNtx
iyG7vZJMmB2DMWAwhgYprIhrZoABA2B+1NlAUQxET0LbtE2ADB1S4XdxGEi6A2V3
ztH0vdDjcrF8+FATZwa/H6SrN6wjhRCNaBPugVyrpjJCymNe9WCmhcnJRPh/UAlT
IgT28FJGbaCb0Zhj16W3ltOiNs/Q9TeSQJxeIwK/XufGWlQ+RSwtF/sWa6lNguL5
uPtOPgm4M9QqsRW4wAHZUV24GmC2bOqBv44ZcDekzagxOubww0AfF45Hc63n6rMv
CvUFxwFx/0dAS6+Y1Lzt5EQF6VfXdLj1rq1R
-----END CERTIFICATE-----
