Certificate:
    Data:
        Version: 3 (0x2)
        Serial Number:
            52:1b:a2:49:6b:68:f4:84:df:5c:88:ba:67:ed:a0:5c
        Signature Algorithm: sha256WithRSAEncryption
        Issuer: CN=team556-net
        Validity
            Not Before: Sep 13 03:51:21 2021 GMT
            Not After : Aug 28 03:51:21 2024 GMT
        Subject: CN=team556-client
        Subject Public Key Info:
            Public Key Algorithm: rsaEncryption
                RSA Public-Key: (2048 bit)
                Modulus:
                    00:b2:be:64:ff:4f:be:fe:4b:97:ac:d8:1d:3f:ed:
                    67:25:11:db:2e:15:fa:2a:68:dc:4f:26:99:5c:de:
                    74:2a:fc:7d:73:06:9e:05:b4:c4:1e:19:43:7d:9e:
                    de:e1:4c:89:fe:b5:92:32:4c:e5:77:90:23:de:d0:
                    c5:af:5f:96:4c:5d:40:65:b0:50:41:fc:96:96:4d:
                    5d:98:c9:59:9a:78:ec:8c:d8:15:0c:1a:9c:00:ce:
                    e0:9f:18:a8:c5:ab:b0:c8:b3:47:9d:bb:c4:3a:d2:
                    9c:e4:32:c4:1c:94:3d:e7:43:a4:d1:c0:ec:8f:0a:
                    9a:b9:94:1e:46:0e:f0:f6:4e:f0:58:83:52:d9:b5:
                    2f:75:23:ee:c9:16:54:42:df:7c:6c:91:a0:cf:56:
                    f2:f6:8a:24:e7:4c:3b:75:f4:29:45:00:17:f5:29:
                    eb:5a:ee:2c:2f:4e:61:61:1e:dc:21:3c:76:6d:27:
                    92:96:6e:d1:21:ce:3a:42:c0:08:5b:83:cc:8a:bd:
                    48:ad:02:9b:e9:ca:a5:3f:9e:e6:4c:37:67:de:01:
                    05:e3:c2:ed:95:52:ef:2e:7f:a9:b2:76:18:fb:be:
                    14:de:58:3f:4c:5d:c5:92:ed:e8:d8:95:f8:a4:58:
                    72:c0:58:e2:73:e9:f1:71:91:0d:3e:70:83:f2:db:
                    df:b3
                Exponent: 65537 (0x10001)
        X509v3 extensions:
            X509v3 Basic Constraints: 
                CA:FALSE
            X509v3 Subject Key Identifier: 
                72:CB:6E:93:25:87:94:5A:D6:B6:88:C9:AC:01:57:E9:EB:F0:9C:28
            X509v3 Authority Key Identifier: 
                keyid:8B:7E:1B:8C:45:31:D2:F9:A3:16:8B:64:A7:D0:72:42:F4:ED:38:D3
                DirName:/CN=team556-net
                serial:7A:FB:19:EA:12:15:E2:AC:72:D1:95:14:D3:E3:87:FC:2E:09:B0:9E

            X509v3 Extended Key Usage: 
                TLS Web Client Authentication
            X509v3 Key Usage: 
                Digital Signature
    Signature Algorithm: sha256WithRSAEncryption
         68:16:36:72:73:51:40:44:e2:25:36:17:50:c5:c9:26:f5:0c:
         6e:3b:2b:48:55:4f:fc:81:30:cb:24:97:a6:6b:ec:1e:3d:f1:
         3a:48:d7:6d:24:64:8d:2f:59:9b:7d:ca:b3:df:b1:a9:86:e4:
         f1:c6:bc:a7:52:31:b5:d8:56:ef:ed:04:c8:c1:22:33:34:db:
         90:4a:b6:b7:58:9d:fa:57:70:cc:2b:08:2e:81:99:3f:c4:af:
         3a:42:2e:e9:40:f5:17:dd:dd:d4:be:ca:32:31:aa:e9:e8:28:
         8c:11:6c:1f:36:a3:ee:55:25:58:9c:f6:82:ff:55:58:b7:f7:
         4d:96:77:db:56:d9:7e:0e:76:d8:ae:b4:86:f7:d7:3f:1c:da:
         d0:26:0c:7d:fd:67:5a:42:8a:f8:2d:a1:99:7c:0a:a0:0b:8e:
         24:c0:cf:64:e5:70:40:87:79:71:02:90:0f:c5:1e:21:4a:d6:
         ff:ee:aa:9c:dd:10:ff:f5:ea:31:a5:89:be:85:49:10:2f:27:
         c0:0f:44:32:db:83:8c:06:9d:52:d3:ae:d0:5a:b4:c6:03:93:
         c4:8f:e9:14:6c:62:2f:4f:c8:84:d3:c6:1c:d3:04:00:6e:04:
         77:22:67:09:f8:bd:5e:a3:86:50:ab:5e:eb:49:dc:bb:0d:44:
         6d:ec:a4:84
-----BEGIN CERTIFICATE-----
MIIDXDCCAkSgAwIBAgIQUhuiSWto9ITfXIi6Z+2gXDANBgkqhkiG9w0BAQsFADAW
MRQwEgYDVQQDDAt0ZWFtNTU2LW5ldDAeFw0yMTA5MTMwMzUxMjFaFw0yNDA4Mjgw
MzUxMjFaMBkxFzAVBgNVBAMMDnRlYW01NTYtY2xpZW50MIIBIjANBgkqhkiG9w0B
AQEFAAOCAQ8AMIIBCgKCAQEAsr5k/0++/kuXrNgdP+1nJRHbLhX6KmjcTyaZXN50
Kvx9cwaeBbTEHhlDfZ7e4UyJ/rWSMkzld5Aj3tDFr1+WTF1AZbBQQfyWlk1dmMlZ
mnjsjNgVDBqcAM7gnxioxauwyLNHnbvEOtKc5DLEHJQ950Ok0cDsjwqauZQeRg7w
9k7wWINS2bUvdSPuyRZUQt98bJGgz1by9ook50w7dfQpRQAX9SnrWu4sL05hYR7c
ITx2bSeSlm7RIc46QsAIW4PMir1IrQKb6cqlP57mTDdn3gEF48LtlVLvLn+psnYY
+74U3lg/TF3Fku3o2JX4pFhywFjic+nxcZENPnCD8tvfswIDAQABo4GiMIGfMAkG
A1UdEwQCMAAwHQYDVR0OBBYEFHLLbpMlh5Ra1raIyawBV+nr8JwoMFEGA1UdIwRK
MEiAFIt+G4xFMdL5oxaLZKfQckL07TjToRqkGDAWMRQwEgYDVQQDDAt0ZWFtNTU2
LW5ldIIUevsZ6hIV4qxy0ZUU0+OH/C4JsJ4wEwYDVR0lBAwwCgYIKwYBBQUHAwIw
CwYDVR0PBAQDAgeAMA0GCSqGSIb3DQEBCwUAA4IBAQBoFjZyc1FAROIlNhdQxckm
9QxuOytIVU/8gTDLJJema+wePfE6SNdtJGSNL1mbfcqz37GphuTxxrynUjG12Fbv
7QTIwSIzNNuQSra3WJ36V3DMKwgugZk/xK86Qi7pQPUX3d3UvsoyMarp6CiMEWwf
NqPuVSVYnPaC/1VYt/dNlnfbVtl+DnbYrrSG99c/HNrQJgx9/WdaQor4LaGZfAqg
C44kwM9k5XBAh3lxApAPxR4hStb/7qqc3RD/9eoxpYm+hUkQLyfAD0Qy24OMBp1S
067QWrTGA5PEj+kUbGIvT8iE08Yc0wQAbgR3ImcJ+L1eo4ZQq17rSdy7DURt7KSE
-----END CERTIFICATE-----
