Certificate:
    Data:
        Version: 3 (0x2)
        Serial Number:
            fd:31:d2:69:92:76:41:23:4b:1c:ad:43:76:c1:c7:79
        Signature Algorithm: sha256WithRSAEncryption
        Issuer: CN=team634-net
        Validity
            Not Before: Sep 13 04:17:10 2021 GMT
            Not After : Aug 28 04:17:10 2024 GMT
        Subject: CN=team634-server
        Subject Public Key Info:
            Public Key Algorithm: rsaEncryption
                RSA Public-Key: (2048 bit)
                Modulus:
                    00:a3:a1:c8:ca:77:eb:8f:5b:d3:10:f3:08:b5:67:
                    6f:f8:73:ec:14:8f:45:97:40:e5:7d:d8:3e:22:22:
                    3f:18:8c:9e:b4:2b:c4:d5:d6:61:86:77:2c:ae:16:
                    11:f9:cf:dd:ea:f7:60:28:5f:c6:b6:31:06:d5:ae:
                    72:4c:73:9f:3f:2b:0f:36:a8:08:38:b2:83:d8:ae:
                    c6:23:54:19:aa:af:9c:5e:e8:64:eb:d1:ce:76:45:
                    57:5b:af:01:34:4b:68:0d:d3:2c:7d:05:1c:a3:21:
                    29:af:95:e5:a6:84:5a:67:0c:b3:cc:50:2b:28:46:
                    78:30:00:3c:f5:87:46:d2:19:92:f9:7e:88:5d:66:
                    46:a0:12:ef:c0:68:d4:24:eb:75:65:89:68:1d:c7:
                    13:27:bf:12:72:80:05:f3:ce:f0:02:8e:ae:b3:3d:
                    31:91:41:45:f2:c5:f5:d0:41:bd:24:f3:12:98:c9:
                    f6:be:c2:fb:fd:8c:af:f0:cb:55:30:0b:f6:58:1b:
                    5e:fb:74:a1:67:dd:81:6f:1e:28:4d:51:51:6a:cc:
                    23:87:ea:89:9e:e0:c1:43:65:35:50:91:ad:b6:d1:
                    7c:dd:63:4b:41:c3:0b:b8:03:19:d8:c1:0c:3e:0f:
                    4f:d1:d2:c3:79:35:f8:0b:18:51:29:2f:22:68:7b:
                    7b:a7
                Exponent: 65537 (0x10001)
        X509v3 extensions:
            X509v3 Basic Constraints: 
                CA:FALSE
            X509v3 Subject Key Identifier: 
                75:E1:64:74:2A:61:24:43:B3:93:42:87:05:9C:7F:09:57:32:9B:72
            X509v3 Authority Key Identifier: 
                keyid:3C:89:BF:7B:E8:12:C1:A2:72:1C:C7:F4:67:A9:56:23:6A:89:D0:68
                DirName:/CN=team634-net
                serial:46:2A:9F:60:BF:38:AE:2F:E6:FB:67:6F:33:2B:58:99:E3:3F:3A:97

            X509v3 Extended Key Usage: 
                TLS Web Server Authentication
            X509v3 Key Usage: 
                Digital Signature, Key Encipherment
            X509v3 Subject Alternative Name: 
                DNS:team634-server
    Signature Algorithm: sha256WithRSAEncryption
         b3:a8:fc:1f:73:30:9c:bb:ca:46:80:5d:ef:c2:40:7e:14:57:
         57:4c:b2:c3:6f:6f:da:89:2b:c0:40:43:3f:c4:eb:c0:c8:7e:
         66:46:c6:a1:b4:5f:e1:77:9c:50:8f:a0:f8:02:1e:eb:eb:19:
         25:98:57:1d:12:7d:a9:22:1f:c6:4b:21:10:fb:97:2b:f3:bb:
         a0:03:76:0e:69:35:ac:4f:ca:5c:7e:4b:52:41:fb:72:e6:0d:
         47:8c:4e:f0:3c:1d:21:f9:b8:8a:12:9f:74:ba:85:0a:31:fc:
         1e:e2:d9:d6:ed:3e:da:f0:30:2a:ec:3f:e4:0e:c9:0e:59:b3:
         57:c4:a4:88:84:e2:b3:98:a3:ad:45:5c:a2:d7:94:85:26:2f:
         34:ef:86:6d:d9:36:43:13:a8:16:68:3c:14:38:ee:db:3f:b4:
         ac:4c:e2:0a:6e:f8:3d:4e:d2:38:e1:04:70:cc:86:dd:f5:79:
         50:dc:b2:26:ca:af:7d:ca:c9:54:e9:12:7b:33:68:f6:22:b9:
         c7:9f:0c:26:dc:00:ae:ec:8c:e8:e7:5f:4d:1d:34:e7:68:46:
         61:54:fd:b4:56:43:53:fd:07:eb:ac:5e:b0:9b:48:6d:53:15:
         28:78:51:e1:ca:73:47:d5:e3:0d:02:90:f0:34:d7:56:c6:e0:
         cd:df:2c:39
-----BEGIN CERTIFICATE-----
MIIDeDCCAmCgAwIBAgIRAP0x0mmSdkEjSxytQ3bBx3kwDQYJKoZIhvcNAQELBQAw
FjEUMBIGA1UEAwwLdGVhbTYzNC1uZXQwHhcNMjEwOTEzMDQxNzEwWhcNMjQwODI4
MDQxNzEwWjAZMRcwFQYDVQQDDA50ZWFtNjM0LXNlcnZlcjCCASIwDQYJKoZIhvcN
AQEBBQADggEPADCCAQoCggEBAKOhyMp3649b0xDzCLVnb/hz7BSPRZdA5X3YPiIi
PxiMnrQrxNXWYYZ3LK4WEfnP3er3YChfxrYxBtWuckxznz8rDzaoCDiyg9iuxiNU
GaqvnF7oZOvRznZFV1uvATRLaA3TLH0FHKMhKa+V5aaEWmcMs8xQKyhGeDAAPPWH
RtIZkvl+iF1mRqAS78Bo1CTrdWWJaB3HEye/EnKABfPO8AKOrrM9MZFBRfLF9dBB
vSTzEpjJ9r7C+/2Mr/DLVTAL9lgbXvt0oWfdgW8eKE1RUWrMI4fqiZ7gwUNlNVCR
rbbRfN1jS0HDC7gDGdjBDD4PT9HSw3k1+AsYUSkvImh7e6cCAwEAAaOBvTCBujAJ
BgNVHRMEAjAAMB0GA1UdDgQWBBR14WR0KmEkQ7OTQocFnH8JVzKbcjBRBgNVHSME
SjBIgBQ8ib976BLBonIcx/RnqVYjaonQaKEapBgwFjEUMBIGA1UEAwwLdGVhbTYz
NC1uZXSCFEYqn2C/OK4v5vtnbzMrWJnjPzqXMBMGA1UdJQQMMAoGCCsGAQUFBwMB
MAsGA1UdDwQEAwIFoDAZBgNVHREEEjAQgg50ZWFtNjM0LXNlcnZlcjANBgkqhkiG
9w0BAQsFAAOCAQEAs6j8H3MwnLvKRoBd78JAfhRXV0yyw29v2okrwEBDP8TrwMh+
ZkbGobRf4XecUI+g+AIe6+sZJZhXHRJ9qSIfxkshEPuXK/O7oAN2Dmk1rE/KXH5L
UkH7cuYNR4xO8DwdIfm4ihKfdLqFCjH8HuLZ1u0+2vAwKuw/5A7JDlmzV8SkiITi
s5ijrUVcoteUhSYvNO+Gbdk2QxOoFmg8FDju2z+0rEziCm74PU7SOOEEcMyG3fV5
UNyyJsqvfcrJVOkSezNo9iK5x58MJtwAruyM6OdfTR0052hGYVT9tFZDU/0H66xe
sJtIbVMVKHhR4cpzR9XjDQKQ8DTXVsbgzd8sOQ==
-----END CERTIFICATE-----
