Certificate:
    Data:
        Version: 3 (0x2)
        Serial Number:
            b4:7a:3e:bb:69:78:91:f6:24:46:4a:0c:50:d5:02:ec
        Signature Algorithm: sha256WithRSAEncryption
        Issuer: CN=team756-net
        Validity
            Not Before: Sep 13 05:16:34 2021 GMT
            Not After : Aug 28 05:16:34 2024 GMT
        Subject: CN=team756-server
        Subject Public Key Info:
            Public Key Algorithm: rsaEncryption
                RSA Public-Key: (2048 bit)
                Modulus:
                    00:c9:85:eb:95:1f:2c:62:eb:6b:3c:3a:b7:dc:e5:
                    14:f4:10:61:3b:90:20:03:0f:88:a6:12:46:ef:fb:
                    30:34:10:2e:fd:99:ec:59:01:0f:b0:0c:e7:7b:a6:
                    16:38:59:ca:04:f6:a8:98:30:ad:51:6b:18:e0:a2:
                    70:11:8c:3f:c1:b8:e6:0f:cc:65:8c:85:f0:3b:d9:
                    7b:92:18:c6:8c:02:a1:c4:7e:df:0e:db:d4:73:e5:
                    84:35:c7:2d:29:55:b7:4e:19:ae:c3:90:1d:8e:47:
                    9f:92:d0:a5:3b:25:2c:1a:97:13:11:95:0c:16:53:
                    be:c4:c9:6f:ad:32:64:90:6c:2d:64:fe:ef:54:12:
                    a1:97:9e:52:34:fe:5d:ca:a3:37:e9:96:d7:d8:d9:
                    87:c1:93:16:b4:4f:4a:22:fd:ea:f2:27:ba:2e:2d:
                    85:64:c7:21:16:4e:7f:52:1e:59:fb:bc:a5:ef:16:
                    f0:c7:af:d3:54:b0:45:b8:ac:c7:4f:d7:3a:0c:ee:
                    a8:d1:6f:7e:29:de:ff:91:3d:ad:f0:1a:21:ec:8b:
                    6a:4a:fe:41:e9:30:6a:84:5f:c9:79:c0:82:6d:7d:
                    2b:30:78:27:33:07:80:82:40:e1:aa:2b:ba:fc:94:
                    ba:f5:06:5a:66:84:c2:87:fa:6d:67:f3:b0:35:0f:
                    83:e7
                Exponent: 65537 (0x10001)
        X509v3 extensions:
            X509v3 Basic Constraints: 
                CA:FALSE
            X509v3 Subject Key Identifier: 
                03:33:06:31:A9:3E:E8:CB:0B:60:8B:10:39:B9:2B:25:E2:41:CE:80
            X509v3 Authority Key Identifier: 
                keyid:FB:BC:EE:42:2F:FC:A4:AC:41:04:5C:15:5B:4B:25:3A:97:C1:6E:0C
                DirName:/CN=team756-net
                serial:2C:D6:C8:AC:2E:1A:64:C2:55:AA:1A:1F:25:16:CF:5E:43:F6:F4:9A

            X509v3 Extended Key Usage: 
                TLS Web Server Authentication
            X509v3 Key Usage: 
                Digital Signature, Key Encipherment
            X509v3 Subject Alternative Name: 
                DNS:team756-server
    Signature Algorithm: sha256WithRSAEncryption
         84:db:bf:9f:a2:2d:3b:ae:6a:a1:f1:7b:87:d2:e2:be:48:a8:
         b7:a1:6e:b8:38:56:42:c7:a6:ba:73:c7:a0:3c:e6:e8:7a:61:
         cf:71:96:37:72:93:fa:ef:d5:8c:f3:91:61:c8:91:c2:32:73:
         3e:62:9c:5c:79:f0:8d:b3:a3:61:93:d6:4b:cd:7a:9e:12:8f:
         42:3a:e9:15:32:d0:73:58:76:53:1f:8e:f4:b4:89:95:08:5d:
         50:34:f4:d7:3f:fb:81:ec:35:10:61:2e:e0:6a:4f:9b:81:5d:
         cf:84:a4:9a:c3:98:71:a1:c9:98:ab:49:27:f2:74:b7:a6:36:
         2e:6b:68:5c:29:ec:01:92:49:b7:96:9c:a4:b4:72:34:5a:a9:
         f0:7a:b3:15:f6:dc:08:ee:14:28:9f:84:d9:f0:b3:9a:22:3e:
         45:d1:0c:14:70:57:e7:7f:c1:e1:42:2f:28:0b:10:ef:cf:68:
         87:4e:ba:7d:8f:61:2e:f3:02:95:24:1d:b2:b1:f5:f5:83:cd:
         aa:fe:ae:e4:74:6e:87:c9:ba:c2:ee:ab:50:96:6f:6f:0d:76:
         9e:61:14:0d:ea:c4:81:bf:56:39:a1:a2:a1:76:c8:16:67:05:
         a7:12:61:00:10:19:37:02:d7:d0:88:8f:96:76:98:f5:70:92:
         9c:ed:95:bb
-----BEGIN CERTIFICATE-----
MIIDeDCCAmCgAwIBAgIRALR6PrtpeJH2JEZKDFDVAuwwDQYJKoZIhvcNAQELBQAw
FjEUMBIGA1UEAwwLdGVhbTc1Ni1uZXQwHhcNMjEwOTEzMDUxNjM0WhcNMjQwODI4
MDUxNjM0WjAZMRcwFQYDVQQDDA50ZWFtNzU2LXNlcnZlcjCCASIwDQYJKoZIhvcN
AQEBBQADggEPADCCAQoCggEBAMmF65UfLGLrazw6t9zlFPQQYTuQIAMPiKYSRu/7
MDQQLv2Z7FkBD7AM53umFjhZygT2qJgwrVFrGOCicBGMP8G45g/MZYyF8DvZe5IY
xowCocR+3w7b1HPlhDXHLSlVt04ZrsOQHY5Hn5LQpTslLBqXExGVDBZTvsTJb60y
ZJBsLWT+71QSoZeeUjT+XcqjN+mW19jZh8GTFrRPSiL96vInui4thWTHIRZOf1Ie
Wfu8pe8W8Mev01SwRbisx0/XOgzuqNFvfine/5E9rfAaIeyLakr+QekwaoRfyXnA
gm19KzB4JzMHgIJA4aoruvyUuvUGWmaEwof6bWfzsDUPg+cCAwEAAaOBvTCBujAJ
BgNVHRMEAjAAMB0GA1UdDgQWBBQDMwYxqT7oywtgixA5uSsl4kHOgDBRBgNVHSME
SjBIgBT7vO5CL/ykrEEEXBVbSyU6l8FuDKEapBgwFjEUMBIGA1UEAwwLdGVhbTc1
Ni1uZXSCFCzWyKwuGmTCVaoaHyUWz15D9vSaMBMGA1UdJQQMMAoGCCsGAQUFBwMB
MAsGA1UdDwQEAwIFoDAZBgNVHREEEjAQgg50ZWFtNzU2LXNlcnZlcjANBgkqhkiG
9w0BAQsFAAOCAQEAhNu/n6ItO65qofF7h9Livkiot6FuuDhWQsemunPHoDzm6Hph
z3GWN3KT+u/VjPORYciRwjJzPmKcXHnwjbOjYZPWS816nhKPQjrpFTLQc1h2Ux+O
9LSJlQhdUDT01z/7gew1EGEu4GpPm4Fdz4SkmsOYcaHJmKtJJ/J0t6Y2LmtoXCns
AZJJt5acpLRyNFqp8HqzFfbcCO4UKJ+E2fCzmiI+RdEMFHBX53/B4UIvKAsQ789o
h066fY9hLvMClSQdsrH19YPNqv6u5HRuh8m6wu6rUJZvbw12nmEUDerEgb9WOaGi
oXbIFmcFpxJhABAZNwLX0IiPlnaY9XCSnO2Vuw==
-----END CERTIFICATE-----
