Certificate:
    Data:
        Version: 3 (0x2)
        Serial Number:
            9f:1e:d9:57:43:57:da:c8:5b:a5:58:bc:f1:05:93:52
        Signature Algorithm: sha256WithRSAEncryption
        Issuer: CN=team370-net
        Validity
            Not Before: Sep 13 02:04:15 2021 GMT
            Not After : Aug 28 02:04:15 2024 GMT
        Subject: CN=team370-server
        Subject Public Key Info:
            Public Key Algorithm: rsaEncryption
                RSA Public-Key: (2048 bit)
                Modulus:
                    00:a4:23:57:d3:f3:0a:f2:ba:b4:e9:04:44:77:42:
                    37:30:c3:d6:40:fa:49:b7:e1:b5:64:62:15:8c:14:
                    60:df:a9:86:76:75:12:68:5b:3b:7d:b4:6f:83:c7:
                    7a:d4:e0:9b:19:a4:6f:3d:9f:c3:32:6b:81:23:8e:
                    73:29:7a:87:5a:10:ca:f3:69:b9:59:ef:09:d6:d9:
                    ab:32:4e:0d:8c:c0:b2:b8:9a:04:41:cf:e8:f1:17:
                    50:14:90:b9:98:6d:f3:4f:89:22:b1:49:56:4c:3d:
                    8f:dd:e0:31:d2:a7:5a:5f:7e:ad:d2:99:a5:62:d0:
                    04:ea:83:d2:31:d2:c8:d5:22:2a:98:4d:dc:b0:ed:
                    a0:79:2a:07:1f:0d:2b:d6:76:52:9d:9e:20:37:c0:
                    c5:8f:b3:25:23:5c:4c:ce:e9:d8:63:fa:9b:f2:09:
                    1f:9a:e6:f6:aa:7c:a0:55:e9:b4:04:3a:d1:ac:36:
                    0e:09:61:ff:23:5d:31:41:78:ad:39:cc:e5:43:49:
                    1c:45:60:38:47:c1:d4:ef:92:aa:73:5b:32:23:db:
                    d1:3c:57:a4:33:19:bb:5e:90:6c:0b:d0:46:75:d7:
                    e9:90:70:19:33:88:c2:d5:0b:6a:f7:47:c8:78:ce:
                    d9:39:f8:eb:bb:38:84:90:c4:e8:10:1a:2c:3a:f6:
                    0b:81
                Exponent: 65537 (0x10001)
        X509v3 extensions:
            X509v3 Basic Constraints: 
                CA:FALSE
            X509v3 Subject Key Identifier: 
                17:2D:49:C1:C4:20:C5:E9:A9:1A:F7:1C:B2:A7:9A:75:C9:CD:1E:F9
            X509v3 Authority Key Identifier: 
                keyid:C2:D6:6A:22:BD:E7:D8:41:DA:18:F3:05:95:A1:73:9E:F5:E5:01:A6
                DirName:/CN=team370-net
                serial:1E:BA:A5:64:C8:64:37:2B:72:75:92:1E:75:7B:ED:0D:F6:55:6A:2F

            X509v3 Extended Key Usage: 
                TLS Web Server Authentication
            X509v3 Key Usage: 
                Digital Signature, Key Encipherment
            X509v3 Subject Alternative Name: 
                DNS:team370-server
    Signature Algorithm: sha256WithRSAEncryption
         9f:cf:c1:c0:bd:c2:99:a8:fd:72:a0:06:f2:7b:d7:bb:6c:93:
         ea:70:02:11:ff:99:e3:d4:0e:3f:20:ce:84:fa:97:9e:d7:b2:
         a5:99:e3:7c:4d:bb:a6:1b:c7:6d:c2:ca:03:07:e4:6e:9c:c1:
         2e:72:bb:dd:c2:8b:40:73:9f:b8:4b:cd:0e:95:47:56:96:30:
         fe:c8:ed:ef:cc:c5:ce:63:81:f6:d3:e8:64:7a:c5:29:fd:90:
         1e:87:06:be:86:b4:2c:41:04:59:38:5c:57:77:6d:77:85:f3:
         67:e4:cc:c3:32:d3:e7:f2:68:5d:e2:fe:1d:3f:e4:c4:f0:03:
         b2:b6:be:8b:fa:b5:ec:9f:52:4d:91:e5:eb:37:52:b1:95:d9:
         b7:6c:a0:84:75:3f:f2:92:64:79:16:6d:e8:d9:5a:db:4b:8d:
         b0:9a:6a:0b:b8:ae:ba:39:48:a9:84:7d:61:21:c3:53:a2:8c:
         15:bc:16:24:be:e7:f7:a5:ba:7c:db:aa:f8:fb:83:19:15:63:
         c7:52:e3:6a:7e:a8:5e:fd:d4:e2:36:2d:f0:8d:75:78:3b:8b:
         13:3a:6f:db:c8:5c:5a:32:bc:f7:35:dd:8c:c4:93:1d:b5:63:
         d6:2c:64:2f:a8:10:f2:31:09:75:7f:23:c1:9d:6e:02:30:12:
         df:1f:79:0c
-----BEGIN CERTIFICATE-----
MIIDeDCCAmCgAwIBAgIRAJ8e2VdDV9rIW6VYvPEFk1IwDQYJKoZIhvcNAQELBQAw
FjEUMBIGA1UEAwwLdGVhbTM3MC1uZXQwHhcNMjEwOTEzMDIwNDE1WhcNMjQwODI4
MDIwNDE1WjAZMRcwFQYDVQQDDA50ZWFtMzcwLXNlcnZlcjCCASIwDQYJKoZIhvcN
AQEBBQADggEPADCCAQoCggEBAKQjV9PzCvK6tOkERHdCNzDD1kD6SbfhtWRiFYwU
YN+phnZ1EmhbO320b4PHetTgmxmkbz2fwzJrgSOOcyl6h1oQyvNpuVnvCdbZqzJO
DYzAsriaBEHP6PEXUBSQuZht80+JIrFJVkw9j93gMdKnWl9+rdKZpWLQBOqD0jHS
yNUiKphN3LDtoHkqBx8NK9Z2Up2eIDfAxY+zJSNcTM7p2GP6m/IJH5rm9qp8oFXp
tAQ60aw2Dglh/yNdMUF4rTnM5UNJHEVgOEfB1O+SqnNbMiPb0TxXpDMZu16QbAvQ
RnXX6ZBwGTOIwtULavdHyHjO2Tn467s4hJDE6BAaLDr2C4ECAwEAAaOBvTCBujAJ
BgNVHRMEAjAAMB0GA1UdDgQWBBQXLUnBxCDF6aka9xyyp5p1yc0e+TBRBgNVHSME
SjBIgBTC1moivefYQdoY8wWVoXOe9eUBpqEapBgwFjEUMBIGA1UEAwwLdGVhbTM3
MC1uZXSCFB66pWTIZDcrcnWSHnV77Q32VWovMBMGA1UdJQQMMAoGCCsGAQUFBwMB
MAsGA1UdDwQEAwIFoDAZBgNVHREEEjAQgg50ZWFtMzcwLXNlcnZlcjANBgkqhkiG
9w0BAQsFAAOCAQEAn8/BwL3Cmaj9cqAG8nvXu2yT6nACEf+Z49QOPyDOhPqXntey
pZnjfE27phvHbcLKAwfkbpzBLnK73cKLQHOfuEvNDpVHVpYw/sjt78zFzmOB9tPo
ZHrFKf2QHocGvoa0LEEEWThcV3dtd4XzZ+TMwzLT5/JoXeL+HT/kxPADsra+i/q1
7J9STZHl6zdSsZXZt2yghHU/8pJkeRZt6Nla20uNsJpqC7iuujlIqYR9YSHDU6KM
FbwWJL7n96W6fNuq+PuDGRVjx1Ljan6oXv3U4jYt8I11eDuLEzpv28hcWjK89zXd
jMSTHbVj1ixkL6gQ8jEJdX8jwZ1uAjAS3x95DA==
-----END CERTIFICATE-----
