Certificate:
    Data:
        Version: 3 (0x2)
        Serial Number:
            11:4d:2e:c8:ec:cd:c7:d7:0b:a8:54:2e:d4:5e:23:d6
        Signature Algorithm: sha256WithRSAEncryption
        Issuer: CN=team370-net
        Validity
            Not Before: Sep 13 02:04:15 2021 GMT
            Not After : Aug 28 02:04:15 2024 GMT
        Subject: CN=team370-client
        Subject Public Key Info:
            Public Key Algorithm: rsaEncryption
                RSA Public-Key: (2048 bit)
                Modulus:
                    00:ba:e9:97:d3:5e:c3:9c:4d:b4:64:42:2a:22:98:
                    db:24:2a:35:1f:73:7b:92:77:76:60:c2:51:86:3d:
                    c8:89:7b:1f:10:6b:03:d7:fc:78:be:a1:46:9d:36:
                    6e:2e:fc:a9:2b:b1:36:10:da:c4:05:8d:ff:5c:9b:
                    f9:42:44:82:57:b6:dc:c8:cc:77:37:34:97:7c:7b:
                    69:03:28:83:5d:28:64:a1:53:f7:0c:78:9d:bb:19:
                    f6:d8:c1:f9:40:17:04:7a:ff:a5:f3:72:3b:dc:02:
                    d3:af:06:22:07:fb:92:7d:f8:62:b1:31:e2:13:14:
                    5a:ba:b2:aa:7c:72:f5:37:7b:c4:e5:f9:1e:cd:8c:
                    b1:77:b8:37:31:cb:3d:11:46:e5:53:42:ff:d2:97:
                    4a:4d:68:9d:a4:16:b4:fe:c6:c1:73:4d:0c:ca:ed:
                    d7:09:a6:e9:a1:a9:87:71:5c:aa:ed:0a:d8:c9:45:
                    7b:12:5b:3c:4e:e3:e2:09:2d:af:f6:2a:a5:33:f5:
                    42:67:26:05:4f:02:c1:94:33:76:62:74:cf:46:c8:
                    5f:13:e8:14:ce:26:e6:8b:b3:4d:02:e2:44:82:24:
                    5a:dc:04:d0:90:0d:78:a3:53:e1:08:c9:08:60:e3:
                    24:75:09:15:84:a0:2b:42:8a:87:3b:9d:93:6d:6b:
                    8d:2b
                Exponent: 65537 (0x10001)
        X509v3 extensions:
            X509v3 Basic Constraints: 
                CA:FALSE
            X509v3 Subject Key Identifier: 
                BA:83:8F:44:CA:A4:A8:1F:AE:3D:A5:68:B5:20:BC:D6:FE:25:62:D4
            X509v3 Authority Key Identifier: 
                keyid:C2:D6:6A:22:BD:E7:D8:41:DA:18:F3:05:95:A1:73:9E:F5:E5:01:A6
                DirName:/CN=team370-net
                serial:1E:BA:A5:64:C8:64:37:2B:72:75:92:1E:75:7B:ED:0D:F6:55:6A:2F

            X509v3 Extended Key Usage: 
                TLS Web Client Authentication
            X509v3 Key Usage: 
                Digital Signature
    Signature Algorithm: sha256WithRSAEncryption
         9b:7b:03:51:f3:b8:46:2b:61:b7:e6:fd:f0:8e:35:1c:c3:19:
         56:93:54:20:c6:c7:3d:d2:07:d7:4e:f5:97:63:aa:1c:4a:23:
         60:f5:d3:71:bb:7c:1c:8e:e6:9a:12:e1:98:0e:07:54:c4:b2:
         45:8f:3b:21:5f:93:73:8f:0b:f0:b9:e7:b5:e5:9f:a1:bc:81:
         7e:6c:ff:3b:78:1c:4b:b5:f3:58:d6:76:b6:68:a5:53:92:76:
         33:03:f5:9a:ed:09:8a:d0:b2:20:93:40:6e:3b:b7:8c:61:ea:
         db:eb:0d:8e:78:93:f3:48:ec:c8:0d:1d:17:e8:81:77:e6:7f:
         b0:f2:e3:d5:87:84:76:cc:3c:41:77:75:07:81:46:0e:06:43:
         a9:9c:6c:a2:0b:67:ae:f5:d9:ad:ea:34:94:22:0e:f8:25:93:
         08:0a:36:ce:43:6e:4e:68:fd:45:26:65:1e:d7:65:48:36:c8:
         b1:42:81:a7:b6:95:ac:7d:26:59:7d:db:0f:ba:d2:77:04:be:
         5d:b7:0a:6c:a5:bd:84:ab:09:9b:8b:48:50:0a:f6:c6:a3:f7:
         dc:72:ad:43:55:7a:ce:4b:4d:01:15:0b:05:f6:4b:cf:43:4e:
         2c:70:35:63:fb:7b:71:be:49:22:a1:30:52:61:bf:67:15:f1:
         98:8c:af:46
-----BEGIN CERTIFICATE-----
MIIDXDCCAkSgAwIBAgIQEU0uyOzNx9cLqFQu1F4j1jANBgkqhkiG9w0BAQsFADAW
MRQwEgYDVQQDDAt0ZWFtMzcwLW5ldDAeFw0yMTA5MTMwMjA0MTVaFw0yNDA4Mjgw
MjA0MTVaMBkxFzAVBgNVBAMMDnRlYW0zNzAtY2xpZW50MIIBIjANBgkqhkiG9w0B
AQEFAAOCAQ8AMIIBCgKCAQEAuumX017DnE20ZEIqIpjbJCo1H3N7knd2YMJRhj3I
iXsfEGsD1/x4vqFGnTZuLvypK7E2ENrEBY3/XJv5QkSCV7bcyMx3NzSXfHtpAyiD
XShkoVP3DHiduxn22MH5QBcEev+l83I73ALTrwYiB/uSffhisTHiExRaurKqfHL1
N3vE5fkezYyxd7g3Mcs9EUblU0L/0pdKTWidpBa0/sbBc00Myu3XCabpoamHcVyq
7QrYyUV7Els8TuPiCS2v9iqlM/VCZyYFTwLBlDN2YnTPRshfE+gUzibmi7NNAuJE
giRa3ATQkA14o1PhCMkIYOMkdQkVhKArQoqHO52TbWuNKwIDAQABo4GiMIGfMAkG
A1UdEwQCMAAwHQYDVR0OBBYEFLqDj0TKpKgfrj2laLUgvNb+JWLUMFEGA1UdIwRK
MEiAFMLWaiK959hB2hjzBZWhc5715QGmoRqkGDAWMRQwEgYDVQQDDAt0ZWFtMzcw
LW5ldIIUHrqlZMhkNytydZIedXvtDfZVai8wEwYDVR0lBAwwCgYIKwYBBQUHAwIw
CwYDVR0PBAQDAgeAMA0GCSqGSIb3DQEBCwUAA4IBAQCbewNR87hGK2G35v3wjjUc
wxlWk1Qgxsc90gfXTvWXY6ocSiNg9dNxu3wcjuaaEuGYDgdUxLJFjzshX5Nzjwvw
uee15Z+hvIF+bP87eBxLtfNY1na2aKVTknYzA/Wa7QmK0LIgk0BuO7eMYerb6w2O
eJPzSOzIDR0X6IF35n+w8uPVh4R2zDxBd3UHgUYOBkOpnGyiC2eu9dmt6jSUIg74
JZMICjbOQ25OaP1FJmUe12VINsixQoGntpWsfSZZfdsPutJ3BL5dtwpspb2Eqwmb
i0hQCvbGo/fccq1DVXrOS00BFQsF9kvPQ04scDVj+3txvkkioTBSYb9nFfGYjK9G
-----END CERTIFICATE-----
