Certificate:
    Data:
        Version: 3 (0x2)
        Serial Number:
            3d:b1:63:2a:ff:42:49:ba:99:54:2b:7e:85:06:37:5f
        Signature Algorithm: sha256WithRSAEncryption
        Issuer: CN=team530-net
        Validity
            Not Before: Sep 13 03:22:20 2021 GMT
            Not After : Aug 28 03:22:20 2024 GMT
        Subject: CN=team530-client
        Subject Public Key Info:
            Public Key Algorithm: rsaEncryption
                RSA Public-Key: (2048 bit)
                Modulus:
                    00:d2:a2:b4:2d:96:70:b3:ca:cf:8c:e1:45:c2:56:
                    20:b4:ef:f8:e8:d2:0a:bb:44:21:a1:c9:c5:c2:fa:
                    ac:f3:80:bf:45:45:33:40:6f:64:c5:46:2e:fc:3e:
                    76:b6:4b:a2:e2:7a:97:50:ce:93:46:95:a0:86:0b:
                    19:52:00:4b:73:c3:89:4d:5f:56:7f:7f:82:93:d2:
                    7d:0b:f6:ba:e6:72:3e:d2:a6:7c:e9:2e:eb:2b:6b:
                    d8:88:34:91:a8:e6:cd:b8:4b:f7:7b:09:79:e5:fb:
                    55:44:05:53:37:ab:b0:ed:49:fc:45:50:1e:c6:b4:
                    f9:bd:d4:6f:4b:a2:58:51:2f:85:ea:87:6d:9a:0a:
                    e4:97:93:28:dd:06:e4:1f:ec:12:81:92:90:ce:1c:
                    c6:a6:ee:ab:56:43:42:4c:16:13:57:fd:e0:51:9c:
                    d9:05:a7:8f:92:a4:52:2d:53:5d:70:14:bd:1d:d6:
                    49:b1:ef:0c:61:cf:b7:b9:f0:ee:e3:66:ac:31:7d:
                    f9:f6:a4:95:78:75:85:54:5c:c6:a8:d2:af:23:db:
                    bf:99:4d:73:70:64:7d:24:c6:21:20:1f:65:4b:6b:
                    89:07:90:c7:29:ee:01:c2:71:da:a9:6b:2f:c3:5f:
                    59:ce:a6:bc:a7:e6:70:88:c1:66:6a:dc:dd:4c:6f:
                    58:81
                Exponent: 65537 (0x10001)
        X509v3 extensions:
            X509v3 Basic Constraints: 
                CA:FALSE
            X509v3 Subject Key Identifier: 
                F6:86:2D:FD:7A:60:35:F7:6E:61:78:C3:76:BB:A8:F8:EB:9F:B3:A9
            X509v3 Authority Key Identifier: 
                keyid:61:07:BD:22:12:F5:29:DB:11:C4:48:D7:2F:FC:7B:9E:1A:5B:11:CE
                DirName:/CN=team530-net
                serial:1B:63:82:14:30:0F:FA:1F:1B:DB:97:D7:79:AF:EA:20:AC:60:40:08

            X509v3 Extended Key Usage: 
                TLS Web Client Authentication
            X509v3 Key Usage: 
                Digital Signature
    Signature Algorithm: sha256WithRSAEncryption
         3a:8a:6d:f3:4f:d2:8a:ca:4d:34:23:0b:5a:c7:f0:41:4e:45:
         b4:df:b0:c3:0d:03:78:21:ee:18:55:a3:ec:71:cc:c6:b7:8b:
         31:f4:29:12:65:ca:7e:02:cd:31:69:df:e5:60:94:a5:88:31:
         ad:d7:1d:cb:88:95:0c:47:f4:96:e6:8e:e7:f1:a1:95:4b:a7:
         94:72:5c:75:c9:83:13:7a:e7:7a:e2:28:38:25:ea:e6:30:ac:
         d6:da:23:85:83:08:81:5f:c5:e4:46:00:fe:57:24:61:0b:41:
         d3:74:bb:8e:4f:78:c5:01:8e:9a:2f:0f:1a:0f:bf:e3:8b:f9:
         89:1f:36:69:ae:7f:ac:d7:00:57:6a:ce:12:bf:19:33:9b:c8:
         d5:ee:5e:64:1b:79:04:b8:aa:54:a2:7a:96:de:f0:f9:47:67:
         63:b5:a1:fb:2c:cb:f5:d0:5e:ec:88:f7:da:0b:65:0b:f2:6f:
         1c:ea:79:15:f6:a7:93:43:e4:fb:95:e8:a9:8e:e0:6f:75:58:
         a2:65:21:e5:df:b8:e5:f7:03:e8:d9:ef:24:83:b4:5d:82:8e:
         d0:08:79:56:13:fd:5f:3f:ed:34:6c:f2:31:1a:b3:7b:6c:d6:
         92:25:56:2b:ef:08:32:a8:74:50:ea:be:b4:37:b7:6a:49:34:
         3c:1e:88:06
-----BEGIN CERTIFICATE-----
MIIDXDCCAkSgAwIBAgIQPbFjKv9CSbqZVCt+hQY3XzANBgkqhkiG9w0BAQsFADAW
MRQwEgYDVQQDDAt0ZWFtNTMwLW5ldDAeFw0yMTA5MTMwMzIyMjBaFw0yNDA4Mjgw
MzIyMjBaMBkxFzAVBgNVBAMMDnRlYW01MzAtY2xpZW50MIIBIjANBgkqhkiG9w0B
AQEFAAOCAQ8AMIIBCgKCAQEA0qK0LZZws8rPjOFFwlYgtO/46NIKu0QhocnFwvqs
84C/RUUzQG9kxUYu/D52tkui4nqXUM6TRpWghgsZUgBLc8OJTV9Wf3+Ck9J9C/a6
5nI+0qZ86S7rK2vYiDSRqObNuEv3ewl55ftVRAVTN6uw7Un8RVAexrT5vdRvS6JY
US+F6odtmgrkl5Mo3QbkH+wSgZKQzhzGpu6rVkNCTBYTV/3gUZzZBaePkqRSLVNd
cBS9HdZJse8MYc+3ufDu42asMX359qSVeHWFVFzGqNKvI9u/mU1zcGR9JMYhIB9l
S2uJB5DHKe4BwnHaqWsvw19Zzqa8p+ZwiMFmatzdTG9YgQIDAQABo4GiMIGfMAkG
A1UdEwQCMAAwHQYDVR0OBBYEFPaGLf16YDX3bmF4w3a7qPjrn7OpMFEGA1UdIwRK
MEiAFGEHvSIS9SnbEcRI1y/8e54aWxHOoRqkGDAWMRQwEgYDVQQDDAt0ZWFtNTMw
LW5ldIIUG2OCFDAP+h8b25fXea/qIKxgQAgwEwYDVR0lBAwwCgYIKwYBBQUHAwIw
CwYDVR0PBAQDAgeAMA0GCSqGSIb3DQEBCwUAA4IBAQA6im3zT9KKyk00Iwtax/BB
TkW037DDDQN4Ie4YVaPscczGt4sx9CkSZcp+As0xad/lYJSliDGt1x3LiJUMR/SW
5o7n8aGVS6eUclx1yYMTeud64ig4JermMKzW2iOFgwiBX8XkRgD+VyRhC0HTdLuO
T3jFAY6aLw8aD7/ji/mJHzZprn+s1wBXas4Svxkzm8jV7l5kG3kEuKpUonqW3vD5
R2djtaH7LMv10F7siPfaC2UL8m8c6nkV9qeTQ+T7leipjuBvdViiZSHl37jl9wPo
2e8kg7Rdgo7QCHlWE/1fP+00bPIxGrN7bNaSJVYr7wgyqHRQ6r60N7dqSTQ8HogG
-----END CERTIFICATE-----
