Certificate:
    Data:
        Version: 3 (0x2)
        Serial Number:
            57:dd:02:ed:4e:d8:8d:6a:6e:c9:88:a6:4c:ac:8b:53
        Signature Algorithm: sha256WithRSAEncryption
        Issuer: CN=team530-net
        Validity
            Not Before: Sep 13 03:22:21 2021 GMT
            Not After : Aug 28 03:22:21 2024 GMT
        Subject: CN=team530-server
        Subject Public Key Info:
            Public Key Algorithm: rsaEncryption
                RSA Public-Key: (2048 bit)
                Modulus:
                    00:ce:a1:0c:da:a1:26:58:be:60:58:da:a3:93:a2:
                    ef:79:09:33:b5:d6:07:f4:41:26:7b:51:aa:22:42:
                    b9:56:b2:c5:c3:8c:fa:19:cd:58:ee:7d:12:0c:d8:
                    8c:df:fc:ab:87:48:a3:e8:b7:4d:f9:f0:d3:63:9f:
                    94:8d:5e:82:07:ba:78:6d:3a:aa:86:25:a2:98:a5:
                    23:b1:dd:e8:b7:4c:10:7d:e7:69:24:2e:e4:6a:e6:
                    78:9b:a4:6b:9b:8a:d6:f5:06:0b:9e:9e:78:05:4a:
                    96:31:54:e3:81:5e:53:30:a9:09:76:83:71:ea:f7:
                    00:57:4d:04:6c:b8:53:5a:9e:9f:a5:8b:e4:26:8b:
                    55:8b:a0:67:cd:d3:00:f1:3e:04:ab:89:b9:13:84:
                    2a:9d:b2:92:81:45:3c:af:f9:07:ba:06:08:2a:0b:
                    60:35:7d:99:a2:ce:30:47:4f:b7:30:fd:4a:05:ae:
                    09:a0:85:a3:13:0b:93:94:fc:92:96:5d:c3:43:0d:
                    5d:4f:c0:a8:b2:89:02:31:e8:a7:d7:2a:4a:35:b9:
                    10:b1:e4:14:ad:dd:23:9b:93:d2:24:2f:ea:e3:1a:
                    0c:1e:0c:82:5c:1d:08:10:76:81:79:b3:4e:54:6e:
                    7f:cb:7b:a8:6e:7a:49:c9:dc:17:17:f6:47:72:d9:
                    5a:0d
                Exponent: 65537 (0x10001)
        X509v3 extensions:
            X509v3 Basic Constraints: 
                CA:FALSE
            X509v3 Subject Key Identifier: 
                5C:B5:6B:B0:90:49:37:B3:AC:14:EA:54:0E:C8:B6:4F:1A:92:33:BE
            X509v3 Authority Key Identifier: 
                keyid:61:07:BD:22:12:F5:29:DB:11:C4:48:D7:2F:FC:7B:9E:1A:5B:11:CE
                DirName:/CN=team530-net
                serial:1B:63:82:14:30:0F:FA:1F:1B:DB:97:D7:79:AF:EA:20:AC:60:40:08

            X509v3 Extended Key Usage: 
                TLS Web Server Authentication
            X509v3 Key Usage: 
                Digital Signature, Key Encipherment
            X509v3 Subject Alternative Name: 
                DNS:team530-server
    Signature Algorithm: sha256WithRSAEncryption
         74:5a:14:27:60:05:3c:df:ae:67:29:25:62:d9:72:7f:e3:67:
         5e:cc:50:25:bb:43:99:86:61:d8:25:05:23:bd:e3:3b:c6:42:
         47:bd:90:e7:de:a9:41:95:ac:76:16:77:4a:c1:52:f3:4d:d4:
         39:c6:ec:dc:39:c9:c3:07:38:4c:1e:a0:d0:d5:7b:ea:f4:1b:
         46:d2:76:6d:ad:70:d9:f5:94:6e:a6:0a:74:86:8c:90:a3:29:
         5a:9a:56:d5:e5:e9:63:c2:a6:97:f9:d2:1a:d6:c0:4a:45:12:
         0f:9b:1e:52:36:a7:da:36:bd:ee:1a:2d:52:e3:54:78:d6:55:
         65:f2:32:7b:8b:80:73:06:53:50:b0:66:a9:a0:1b:88:59:f1:
         ee:48:8f:91:0d:20:8b:1d:b1:a0:71:a6:b9:c9:06:20:33:51:
         a0:cd:14:2d:46:2d:9b:b9:1a:db:00:ef:2a:48:c6:8f:33:00:
         d2:94:ae:ff:64:23:95:bb:2b:de:92:cf:6c:64:e5:eb:5c:de:
         2f:25:a5:e6:5f:ba:cb:81:97:43:75:a2:bd:81:c4:a9:18:49:
         c2:07:75:e6:32:1e:a7:2d:73:e9:b0:25:2b:54:bc:4e:b6:ef:
         92:d0:75:06:cc:c2:a8:9d:63:94:15:0b:cb:b3:5b:8b:3b:b9:
         08:a4:72:7e
-----BEGIN CERTIFICATE-----
MIIDdzCCAl+gAwIBAgIQV90C7U7YjWpuyYimTKyLUzANBgkqhkiG9w0BAQsFADAW
MRQwEgYDVQQDDAt0ZWFtNTMwLW5ldDAeFw0yMTA5MTMwMzIyMjFaFw0yNDA4Mjgw
MzIyMjFaMBkxFzAVBgNVBAMMDnRlYW01MzAtc2VydmVyMIIBIjANBgkqhkiG9w0B
AQEFAAOCAQ8AMIIBCgKCAQEAzqEM2qEmWL5gWNqjk6LveQkztdYH9EEme1GqIkK5
VrLFw4z6Gc1Y7n0SDNiM3/yrh0ij6LdN+fDTY5+UjV6CB7p4bTqqhiWimKUjsd3o
t0wQfedpJC7kauZ4m6Rrm4rW9QYLnp54BUqWMVTjgV5TMKkJdoNx6vcAV00EbLhT
Wp6fpYvkJotVi6BnzdMA8T4Eq4m5E4QqnbKSgUU8r/kHugYIKgtgNX2Zos4wR0+3
MP1KBa4JoIWjEwuTlPySll3DQw1dT8CosokCMein1ypKNbkQseQUrd0jm5PSJC/q
4xoMHgyCXB0IEHaBebNOVG5/y3uobnpJydwXF/ZHctlaDQIDAQABo4G9MIG6MAkG
A1UdEwQCMAAwHQYDVR0OBBYEFFy1a7CQSTezrBTqVA7Itk8akjO+MFEGA1UdIwRK
MEiAFGEHvSIS9SnbEcRI1y/8e54aWxHOoRqkGDAWMRQwEgYDVQQDDAt0ZWFtNTMw
LW5ldIIUG2OCFDAP+h8b25fXea/qIKxgQAgwEwYDVR0lBAwwCgYIKwYBBQUHAwEw
CwYDVR0PBAQDAgWgMBkGA1UdEQQSMBCCDnRlYW01MzAtc2VydmVyMA0GCSqGSIb3
DQEBCwUAA4IBAQB0WhQnYAU8365nKSVi2XJ/42dezFAlu0OZhmHYJQUjveM7xkJH
vZDn3qlBlax2FndKwVLzTdQ5xuzcOcnDBzhMHqDQ1Xvq9BtG0nZtrXDZ9ZRupgp0
hoyQoylamlbV5eljwqaX+dIa1sBKRRIPmx5SNqfaNr3uGi1S41R41lVl8jJ7i4Bz
BlNQsGapoBuIWfHuSI+RDSCLHbGgcaa5yQYgM1GgzRQtRi2buRrbAO8qSMaPMwDS
lK7/ZCOVuyveks9sZOXrXN4vJaXmX7rLgZdDdaK9gcSpGEnCB3XmMh6nLXPpsCUr
VLxOtu+S0HUGzMKonWOUFQvLs1uLO7kIpHJ+
-----END CERTIFICATE-----
