Certificate:
    Data:
        Version: 3 (0x2)
        Serial Number:
            78:d5:a8:9f:85:14:2e:d9:e5:4e:7e:7d:f3:6a:e8:7c
        Signature Algorithm: sha256WithRSAEncryption
        Issuer: CN=team107-net
        Validity
            Not Before: Sep 12 23:39:21 2021 GMT
            Not After : Aug 27 23:39:21 2024 GMT
        Subject: CN=team107-client
        Subject Public Key Info:
            Public Key Algorithm: rsaEncryption
                RSA Public-Key: (2048 bit)
                Modulus:
                    00:b4:bf:7a:60:6e:6e:6c:47:54:6c:72:54:99:73:
                    e0:ed:0f:6b:05:57:bc:89:78:0c:3b:4e:f9:e7:da:
                    53:1d:e9:0a:1f:2f:52:61:11:97:49:96:fe:f7:e4:
                    c6:ca:62:0a:86:1c:4d:c5:36:c7:54:17:81:e7:6c:
                    7a:23:96:5a:f8:3f:41:84:04:9a:87:c5:a9:78:20:
                    3b:c8:4d:71:5e:6a:db:9b:ea:7e:59:50:46:fd:f7:
                    de:31:30:d5:ce:92:15:a5:61:81:01:5e:db:b6:d7:
                    38:35:84:5f:11:e1:54:bd:b8:b8:f9:c5:55:4f:c6:
                    ac:d9:1d:b5:1e:6d:f9:49:e1:7b:ef:3f:bb:aa:3d:
                    15:3b:19:e2:20:97:f4:96:37:0e:9d:b1:33:8f:1f:
                    c4:ba:43:d0:49:aa:22:8a:44:73:87:58:d1:da:58:
                    72:1e:d1:3b:e1:80:2b:d4:5f:7d:76:0c:df:1b:03:
                    cf:bc:ed:15:98:6b:24:07:60:bb:6f:98:33:41:c6:
                    23:ff:1d:dc:c0:74:d0:f7:c7:dd:af:01:e7:f3:df:
                    0b:31:5d:cf:7b:58:e7:f8:7b:e3:9d:28:e1:b1:94:
                    fa:f6:38:46:7e:f6:46:46:c8:27:b9:5b:f5:f5:f0:
                    d1:72:e7:c4:c2:e7:91:45:90:13:ca:95:f0:25:f7:
                    48:f9
                Exponent: 65537 (0x10001)
        X509v3 extensions:
            X509v3 Basic Constraints: 
                CA:FALSE
            X509v3 Subject Key Identifier: 
                A9:AE:D6:D4:2D:7D:BC:E2:6B:C8:45:89:39:15:CC:4A:ED:30:ED:E1
            X509v3 Authority Key Identifier: 
                keyid:3E:DF:2C:5D:A3:7E:61:88:F3:D6:EF:AA:39:90:14:57:E4:77:E1:9F
                DirName:/CN=team107-net
                serial:38:50:40:E1:EE:24:BB:97:52:4F:A0:C3:4F:22:46:F6:6B:B4:20:B8

            X509v3 Extended Key Usage: 
                TLS Web Client Authentication
            X509v3 Key Usage: 
                Digital Signature
    Signature Algorithm: sha256WithRSAEncryption
         80:cc:1e:99:b6:f2:10:00:52:7b:74:26:9e:5d:d0:2e:78:19:
         c2:c5:c9:7b:af:07:d1:7d:46:01:27:d1:07:51:d2:b8:9b:ee:
         b1:1e:8b:10:12:5f:fd:9d:48:8d:02:85:e9:3d:e3:19:d9:10:
         2b:28:b8:0a:17:aa:ba:b6:45:16:09:27:34:1f:d7:14:c8:bf:
         1e:1b:f6:95:b9:51:c9:b5:0f:f0:6e:f3:83:c7:93:f5:3c:41:
         78:e7:66:99:33:01:89:f0:6b:00:d4:61:e0:b5:8a:42:06:39:
         d6:fc:26:02:91:bf:9c:5a:79:86:22:19:52:4a:a5:b7:c9:3a:
         7a:ce:5d:a6:b8:d9:05:18:71:44:d3:c5:39:19:df:83:3f:93:
         4c:54:98:91:52:c0:af:f7:e0:f1:cd:3a:5d:6e:46:f7:ff:5d:
         84:7b:05:7c:48:0c:fb:73:b7:44:a9:2a:c2:21:88:4c:6d:7d:
         e8:13:c8:68:0d:d8:1b:59:ca:29:e9:5e:da:cf:f8:66:f2:b3:
         a5:eb:77:34:30:df:5d:6f:35:0c:c2:0c:8a:87:b9:e3:eb:1c:
         39:d0:58:3c:d3:a4:af:61:d6:36:d1:fb:6d:b5:10:0e:3d:31:
         b5:a2:8a:e1:df:2b:ae:37:26:76:ee:e9:ff:27:98:87:26:aa:
         b5:60:ad:66
-----BEGIN CERTIFICATE-----
MIIDXDCCAkSgAwIBAgIQeNWon4UULtnlTn5982rofDANBgkqhkiG9w0BAQsFADAW
MRQwEgYDVQQDDAt0ZWFtMTA3LW5ldDAeFw0yMTA5MTIyMzM5MjFaFw0yNDA4Mjcy
MzM5MjFaMBkxFzAVBgNVBAMMDnRlYW0xMDctY2xpZW50MIIBIjANBgkqhkiG9w0B
AQEFAAOCAQ8AMIIBCgKCAQEAtL96YG5ubEdUbHJUmXPg7Q9rBVe8iXgMO07559pT
HekKHy9SYRGXSZb+9+TGymIKhhxNxTbHVBeB52x6I5Za+D9BhASah8WpeCA7yE1x
Xmrbm+p+WVBG/ffeMTDVzpIVpWGBAV7bttc4NYRfEeFUvbi4+cVVT8as2R21Hm35
SeF77z+7qj0VOxniIJf0ljcOnbEzjx/EukPQSaoiikRzh1jR2lhyHtE74YAr1F99
dgzfGwPPvO0VmGskB2C7b5gzQcYj/x3cwHTQ98fdrwHn898LMV3Pe1jn+HvjnSjh
sZT69jhGfvZGRsgnuVv19fDRcufEwueRRZATypXwJfdI+QIDAQABo4GiMIGfMAkG
A1UdEwQCMAAwHQYDVR0OBBYEFKmu1tQtfbzia8hFiTkVzErtMO3hMFEGA1UdIwRK
MEiAFD7fLF2jfmGI89bvqjmQFFfkd+GfoRqkGDAWMRQwEgYDVQQDDAt0ZWFtMTA3
LW5ldIIUOFBA4e4ku5dST6DDTyJG9mu0ILgwEwYDVR0lBAwwCgYIKwYBBQUHAwIw
CwYDVR0PBAQDAgeAMA0GCSqGSIb3DQEBCwUAA4IBAQCAzB6ZtvIQAFJ7dCaeXdAu
eBnCxcl7rwfRfUYBJ9EHUdK4m+6xHosQEl/9nUiNAoXpPeMZ2RArKLgKF6q6tkUW
CSc0H9cUyL8eG/aVuVHJtQ/wbvODx5P1PEF452aZMwGJ8GsA1GHgtYpCBjnW/CYC
kb+cWnmGIhlSSqW3yTp6zl2muNkFGHFE08U5Gd+DP5NMVJiRUsCv9+DxzTpdbkb3
/12EewV8SAz7c7dEqSrCIYhMbX3oE8hoDdgbWcop6V7az/hm8rOl63c0MN9dbzUM
wgyKh7nj6xw50Fg806SvYdY20ftttRAOPTG1oorh3yuuNyZ27un/J5iHJqq1YK1m
-----END CERTIFICATE-----
