Certificate:
    Data:
        Version: 3 (0x2)
        Serial Number:
            a1:af:0a:50:90:ed:d0:3f:56:05:9c:5e:7c:2d:c7:23
        Signature Algorithm: sha256WithRSAEncryption
        Issuer: CN=team107-net
        Validity
            Not Before: Sep 12 23:39:21 2021 GMT
            Not After : Aug 27 23:39:21 2024 GMT
        Subject: CN=team107-server
        Subject Public Key Info:
            Public Key Algorithm: rsaEncryption
                RSA Public-Key: (2048 bit)
                Modulus:
                    00:ba:fb:d4:fe:df:2e:31:ce:f2:a1:6e:81:dd:c3:
                    02:e4:cc:4c:52:b0:86:d5:ba:38:13:92:c4:d9:4d:
                    ba:e0:d9:4d:ec:11:6d:bb:c0:9b:03:b7:09:45:c6:
                    21:5a:fd:9e:db:52:a3:fb:de:8d:90:7d:4d:de:85:
                    ee:a0:69:65:4f:15:18:dc:a6:40:4e:e2:e3:a6:60:
                    a1:e0:66:9b:28:fd:12:6a:b3:ee:bc:78:e8:97:a8:
                    b1:23:eb:11:20:63:87:93:f9:08:ac:ae:ee:59:17:
                    69:77:77:36:3a:f1:ef:e2:0e:4c:7b:7a:79:d1:9e:
                    91:29:dd:cb:8a:be:e8:30:da:33:d6:a8:f8:89:e4:
                    96:20:37:5b:b0:c7:09:9b:43:8c:b3:2c:b1:0e:ac:
                    2c:92:6c:19:88:6e:ca:55:f3:d6:f9:27:54:96:95:
                    27:9c:a0:13:60:fa:d6:c7:73:12:92:ad:d4:dd:81:
                    ed:f6:35:8a:e9:88:27:3c:3d:59:85:f4:b4:d6:59:
                    b4:a5:95:99:e3:99:29:76:38:a9:aa:37:da:75:82:
                    5a:29:2c:5a:bd:ba:06:e8:ef:d9:b5:d7:2a:a5:19:
                    74:7b:c0:64:84:ac:8b:14:99:e5:45:04:3d:dc:18:
                    3d:4b:82:97:f7:78:ad:8b:d2:b7:45:52:66:25:0d:
                    f5:5f
                Exponent: 65537 (0x10001)
        X509v3 extensions:
            X509v3 Basic Constraints: 
                CA:FALSE
            X509v3 Subject Key Identifier: 
                72:D0:FB:23:3A:BF:5C:5B:97:9E:4A:B4:A7:EE:B6:95:9F:38:E6:FF
            X509v3 Authority Key Identifier: 
                keyid:3E:DF:2C:5D:A3:7E:61:88:F3:D6:EF:AA:39:90:14:57:E4:77:E1:9F
                DirName:/CN=team107-net
                serial:38:50:40:E1:EE:24:BB:97:52:4F:A0:C3:4F:22:46:F6:6B:B4:20:B8

            X509v3 Extended Key Usage: 
                TLS Web Server Authentication
            X509v3 Key Usage: 
                Digital Signature, Key Encipherment
            X509v3 Subject Alternative Name: 
                DNS:team107-server
    Signature Algorithm: sha256WithRSAEncryption
         60:06:33:79:90:c6:ff:fa:cc:a7:0d:0f:6e:51:d5:f2:66:25:
         56:f1:c7:7e:b6:e3:7f:ac:d1:9c:19:82:02:65:ce:88:f1:ee:
         86:f7:3f:e3:34:d3:18:7f:6b:75:fe:bf:96:38:fb:9c:c4:56:
         13:0e:64:6e:72:05:8e:f8:0a:70:ae:fc:ce:44:6a:2e:4e:9e:
         1f:a7:67:7f:3f:18:aa:93:5d:9c:42:b7:2d:f6:12:b1:0d:aa:
         ef:fe:42:ab:90:fc:7c:dc:be:4b:2c:15:c0:15:4f:78:a0:d7:
         1e:d3:36:73:ac:32:a3:33:4f:32:6c:dd:95:17:c0:26:26:51:
         55:6a:7d:09:a7:8e:35:8b:c7:1d:10:15:8a:f6:15:93:1b:04:
         d0:bb:b0:94:25:e3:26:df:dc:be:04:79:60:a4:f2:e6:45:c0:
         b4:07:0b:47:17:de:1a:35:78:9a:ee:66:4d:12:cb:4d:9f:05:
         1e:aa:e7:7b:e4:fc:1a:4c:19:da:b4:91:1c:4c:45:57:9c:5b:
         f1:a6:78:a8:75:f8:e6:e9:e9:75:1a:6c:ba:f7:9f:f3:22:bd:
         16:c2:a6:b6:0e:15:18:ce:39:ef:b2:e3:2e:83:6a:b2:9a:b2:
         39:de:d8:b8:45:57:da:2c:a4:31:81:3f:b9:0a:88:64:12:76:
         16:e1:24:d9
-----BEGIN CERTIFICATE-----
MIIDeDCCAmCgAwIBAgIRAKGvClCQ7dA/VgWcXnwtxyMwDQYJKoZIhvcNAQELBQAw
FjEUMBIGA1UEAwwLdGVhbTEwNy1uZXQwHhcNMjEwOTEyMjMzOTIxWhcNMjQwODI3
MjMzOTIxWjAZMRcwFQYDVQQDDA50ZWFtMTA3LXNlcnZlcjCCASIwDQYJKoZIhvcN
AQEBBQADggEPADCCAQoCggEBALr71P7fLjHO8qFugd3DAuTMTFKwhtW6OBOSxNlN
uuDZTewRbbvAmwO3CUXGIVr9nttSo/vejZB9Td6F7qBpZU8VGNymQE7i46ZgoeBm
myj9Emqz7rx46JeosSPrESBjh5P5CKyu7lkXaXd3Njrx7+IOTHt6edGekSndy4q+
6DDaM9ao+InkliA3W7DHCZtDjLMssQ6sLJJsGYhuylXz1vknVJaVJ5ygE2D61sdz
EpKt1N2B7fY1iumIJzw9WYX0tNZZtKWVmeOZKXY4qao32nWCWiksWr26Bujv2bXX
KqUZdHvAZISsixSZ5UUEPdwYPUuCl/d4rYvSt0VSZiUN9V8CAwEAAaOBvTCBujAJ
BgNVHRMEAjAAMB0GA1UdDgQWBBRy0PsjOr9cW5eeSrSn7raVnzjm/zBRBgNVHSME
SjBIgBQ+3yxdo35hiPPW76o5kBRX5Hfhn6EapBgwFjEUMBIGA1UEAwwLdGVhbTEw
Ny1uZXSCFDhQQOHuJLuXUk+gw08iRvZrtCC4MBMGA1UdJQQMMAoGCCsGAQUFBwMB
MAsGA1UdDwQEAwIFoDAZBgNVHREEEjAQgg50ZWFtMTA3LXNlcnZlcjANBgkqhkiG
9w0BAQsFAAOCAQEAYAYzeZDG//rMpw0PblHV8mYlVvHHfrbjf6zRnBmCAmXOiPHu
hvc/4zTTGH9rdf6/ljj7nMRWEw5kbnIFjvgKcK78zkRqLk6eH6dnfz8YqpNdnEK3
LfYSsQ2q7/5Cq5D8fNy+SywVwBVPeKDXHtM2c6wyozNPMmzdlRfAJiZRVWp9CaeO
NYvHHRAVivYVkxsE0LuwlCXjJt/cvgR5YKTy5kXAtAcLRxfeGjV4mu5mTRLLTZ8F
Hqrne+T8GkwZ2rSRHExFV5xb8aZ4qHX45unpdRpsuvef8yK9FsKmtg4VGM4577Lj
LoNqspqyOd7YuEVX2iykMYE/uQqIZBJ2FuEk2Q==
-----END CERTIFICATE-----
