Certificate:
    Data:
        Version: 3 (0x2)
        Serial Number:
            1f:93:c3:7f:ab:35:16:7f:a4:38:1b:d9:31:cc:77:88
        Signature Algorithm: sha256WithRSAEncryption
        Issuer: CN=team79-net
        Validity
            Not Before: Sep 12 23:24:25 2021 GMT
            Not After : Aug 27 23:24:25 2024 GMT
        Subject: CN=team79-client
        Subject Public Key Info:
            Public Key Algorithm: rsaEncryption
                RSA Public-Key: (2048 bit)
                Modulus:
                    00:ad:6e:4d:dd:9a:b3:a9:2d:e8:9e:fe:00:c9:48:
                    79:28:79:fb:ed:14:79:2d:4e:10:2e:18:93:e5:d4:
                    74:a9:f4:54:55:8d:2d:32:34:b2:34:f9:07:d0:d8:
                    fa:ce:4d:d2:ff:bd:c3:19:dc:10:61:b4:6c:ff:f7:
                    55:8c:f8:69:83:2d:9b:07:3f:17:25:a9:2d:a5:a4:
                    f7:7b:16:8f:1b:17:8d:e5:c6:88:e5:f9:f0:40:0f:
                    88:8e:72:e5:cf:7b:7f:1e:80:dc:b5:59:10:c9:e5:
                    5e:87:d6:81:14:6e:c4:79:55:71:13:54:e0:8b:53:
                    45:99:71:34:00:26:7f:dc:94:92:f0:83:c5:34:f8:
                    66:67:2f:52:09:a2:66:4a:f6:47:f7:ae:79:24:65:
                    71:6c:e6:36:b8:c0:e6:28:6e:a1:f6:97:98:a3:3f:
                    2b:06:c7:a1:75:c3:46:2b:de:5f:7e:af:57:06:7a:
                    08:18:76:4b:06:9c:bc:ff:ec:3e:a1:c0:94:09:72:
                    f4:11:df:05:40:0e:b7:b7:13:46:dd:6b:80:84:fd:
                    6a:c3:8e:f7:e8:11:90:97:41:a4:8e:87:f1:0f:97:
                    11:18:8c:89:fc:ef:4d:c5:b0:0c:63:70:ca:0a:f0:
                    ef:97:72:f4:a7:bd:78:c2:0e:6a:84:03:61:99:0b:
                    4b:a9
                Exponent: 65537 (0x10001)
        X509v3 extensions:
            X509v3 Basic Constraints: 
                CA:FALSE
            X509v3 Subject Key Identifier: 
                2B:DF:45:2A:76:11:B0:21:06:1E:DA:8C:B2:70:92:B2:70:F3:0D:C1
            X509v3 Authority Key Identifier: 
                keyid:EF:46:0A:42:BE:6C:64:A3:3C:DF:C5:49:6F:12:0E:83:8E:C3:1A:63
                DirName:/CN=team79-net
                serial:7D:0F:6F:89:EB:51:21:83:BD:ED:96:DE:DD:63:E0:7F:32:A2:DE:35

            X509v3 Extended Key Usage: 
                TLS Web Client Authentication
            X509v3 Key Usage: 
                Digital Signature
    Signature Algorithm: sha256WithRSAEncryption
         48:be:77:ae:f5:10:6c:74:7f:af:2f:44:d0:52:64:a8:ca:1c:
         b0:16:dd:78:d0:77:38:af:be:fa:4b:95:19:ce:8a:12:21:57:
         b2:2c:75:3d:20:b2:1e:6c:a9:e8:ae:ab:3f:05:60:4f:37:4e:
         0f:81:4a:19:9f:56:01:32:8b:da:6f:ee:9c:6d:f7:07:1d:ce:
         c8:9a:59:63:0e:f8:7c:a6:a9:79:23:bc:05:07:57:a2:3d:9c:
         9e:aa:f8:f6:0b:6c:93:c5:bb:52:9a:8a:9e:18:78:7d:51:af:
         1c:aa:a2:3a:ee:ce:4b:b2:22:0e:fe:de:ad:7b:0f:1f:8f:2e:
         06:70:68:aa:f2:d0:e6:1d:12:59:93:c1:9b:ae:be:8a:ae:05:
         2d:34:4c:9f:6a:78:58:3d:44:a0:b0:74:f9:47:8a:72:df:8a:
         a4:00:de:f4:45:cd:8a:33:01:9e:b0:47:74:6b:bf:36:cf:43:
         74:c4:51:90:ec:2f:49:1d:44:5a:ec:97:fa:f5:b9:f0:ed:cd:
         6c:44:97:aa:88:93:7b:40:ff:66:70:2e:eb:41:1d:52:d1:3c:
         3b:e7:b2:33:85:0e:a5:17:fd:1e:8b:72:4b:83:ae:a1:58:1f:
         3d:c8:88:65:a3:3c:31:c9:0c:60:3c:9b:1a:90:2c:fd:cc:2e:
         d1:13:c8:58
-----BEGIN CERTIFICATE-----
MIIDWTCCAkGgAwIBAgIQH5PDf6s1Fn+kOBvZMcx3iDANBgkqhkiG9w0BAQsFADAV
MRMwEQYDVQQDDAp0ZWFtNzktbmV0MB4XDTIxMDkxMjIzMjQyNVoXDTI0MDgyNzIz
MjQyNVowGDEWMBQGA1UEAwwNdGVhbTc5LWNsaWVudDCCASIwDQYJKoZIhvcNAQEB
BQADggEPADCCAQoCggEBAK1uTd2as6kt6J7+AMlIeSh5++0UeS1OEC4Yk+XUdKn0
VFWNLTI0sjT5B9DY+s5N0v+9wxncEGG0bP/3VYz4aYMtmwc/FyWpLaWk93sWjxsX
jeXGiOX58EAPiI5y5c97fx6A3LVZEMnlXofWgRRuxHlVcRNU4ItTRZlxNAAmf9yU
kvCDxTT4ZmcvUgmiZkr2R/eueSRlcWzmNrjA5ihuofaXmKM/KwbHoXXDRiveX36v
VwZ6CBh2SwacvP/sPqHAlAly9BHfBUAOt7cTRt1rgIT9asOO9+gRkJdBpI6H8Q+X
ERiMifzvTcWwDGNwygrw75dy9Ke9eMIOaoQDYZkLS6kCAwEAAaOBoTCBnjAJBgNV
HRMEAjAAMB0GA1UdDgQWBBQr30UqdhGwIQYe2oyycJKycPMNwTBQBgNVHSMESTBH
gBTvRgpCvmxkozzfxUlvEg6DjsMaY6EZpBcwFTETMBEGA1UEAwwKdGVhbTc5LW5l
dIIUfQ9vietRIYO97Zbe3WPgfzKi3jUwEwYDVR0lBAwwCgYIKwYBBQUHAwIwCwYD
VR0PBAQDAgeAMA0GCSqGSIb3DQEBCwUAA4IBAQBIvneu9RBsdH+vL0TQUmSoyhyw
Ft140Hc4r776S5UZzooSIVeyLHU9ILIebKnorqs/BWBPN04PgUoZn1YBMovab+6c
bfcHHc7ImlljDvh8pql5I7wFB1eiPZyeqvj2C2yTxbtSmoqeGHh9Ua8cqqI67s5L
siIO/t6tew8fjy4GcGiq8tDmHRJZk8Gbrr6KrgUtNEyfanhYPUSgsHT5R4py34qk
AN70Rc2KMwGesEd0a782z0N0xFGQ7C9JHURa7Jf69bnw7c1sRJeqiJN7QP9mcC7r
QR1S0Tw757IzhQ6lF/0ei3JLg66hWB89yIhlozwxyQxgPJsakCz9zC7RE8hY
-----END CERTIFICATE-----
