Certificate:
    Data:
        Version: 3 (0x2)
        Serial Number:
            35:43:05:ac:67:bc:c1:ea:db:35:18:41:b0:eb:3b:ea
        Signature Algorithm: sha256WithRSAEncryption
        Issuer: CN=team439-net
        Validity
            Not Before: Sep 13 02:35:45 2021 GMT
            Not After : Aug 28 02:35:45 2024 GMT
        Subject: CN=team439-client
        Subject Public Key Info:
            Public Key Algorithm: rsaEncryption
                RSA Public-Key: (2048 bit)
                Modulus:
                    00:dc:82:d0:df:e1:c4:ca:c4:a9:6b:e7:cd:42:d0:
                    b6:8c:6d:38:a9:1e:52:c7:3b:b1:c2:6c:c1:72:1b:
                    45:50:ed:4e:ce:67:19:27:82:5e:2c:b4:d7:3a:16:
                    01:98:25:1c:c1:fd:57:2c:02:db:4f:7c:2e:28:f9:
                    a0:27:10:db:24:43:cc:9f:fa:ff:68:7f:60:69:3c:
                    79:30:98:4d:8d:df:32:e4:ca:a4:02:fa:86:df:4b:
                    63:24:6d:99:36:a2:e8:de:1e:0f:ef:01:41:38:75:
                    95:73:76:55:0e:5b:ee:06:25:29:9d:f4:5a:1f:9f:
                    22:66:bb:7a:c5:03:e7:ba:59:2d:84:a0:6a:5b:f9:
                    34:78:1e:68:d0:b4:7c:8c:d2:c7:65:ff:03:b7:9c:
                    84:89:6d:97:26:8c:22:48:e1:50:5b:1d:81:d5:77:
                    2d:10:57:cd:80:e6:7e:19:a8:e8:c1:c1:98:aa:5b:
                    65:5d:87:04:b7:9e:65:77:a4:65:12:44:a3:c6:fb:
                    c0:e0:29:4c:36:16:5f:ce:53:37:6d:d3:8b:5f:97:
                    3c:81:f6:a2:85:23:07:b4:45:da:57:07:ff:50:d7:
                    fe:a2:40:3e:80:fd:f9:42:51:bc:b9:ed:46:8c:6f:
                    c0:0a:f9:b1:0f:d5:4f:5f:d3:bb:d3:b8:6c:7d:c3:
                    c8:4d
                Exponent: 65537 (0x10001)
        X509v3 extensions:
            X509v3 Basic Constraints: 
                CA:FALSE
            X509v3 Subject Key Identifier: 
                09:11:94:5F:16:D3:D5:75:63:69:AD:4E:E7:98:C7:5C:0A:75:8C:D1
            X509v3 Authority Key Identifier: 
                keyid:45:9C:D0:4E:25:40:16:40:B4:D9:67:30:0D:F7:96:C1:F8:30:7A:43
                DirName:/CN=team439-net
                serial:14:D5:09:E5:DA:CE:08:F1:58:18:88:82:DC:99:F0:7F:C1:8A:04:FB

            X509v3 Extended Key Usage: 
                TLS Web Client Authentication
            X509v3 Key Usage: 
                Digital Signature
    Signature Algorithm: sha256WithRSAEncryption
         95:d6:01:a1:68:3a:3e:71:45:57:42:25:ec:f3:1b:6b:95:cd:
         ed:4e:47:b9:1c:53:5d:bc:27:1d:ea:24:8c:11:ac:42:7b:e7:
         12:03:04:64:c4:8c:c4:fa:f1:5d:6e:aa:80:12:5c:8e:9b:c6:
         63:0d:b2:9b:b9:62:12:57:64:64:99:b8:78:81:78:3d:b0:56:
         a2:59:11:bb:59:cc:6a:2a:4c:95:7c:5d:38:a7:ba:76:1a:30:
         dc:f0:31:6a:1d:fa:5b:5e:d0:87:35:77:e4:97:7f:41:9a:b7:
         95:d7:d1:e0:c6:f1:b5:9b:2a:35:73:fd:05:cc:db:f6:e5:86:
         c0:30:b9:2e:d0:74:69:d8:87:71:ee:af:29:dd:f1:fc:7c:56:
         b3:ac:94:21:24:63:47:b3:87:95:89:10:d4:a6:92:38:6d:af:
         0d:3b:c3:78:81:62:68:42:25:48:31:b3:e1:b7:de:fb:4a:bb:
         52:8a:38:b4:e1:b9:7d:6e:51:d9:1c:d4:cc:a3:81:80:88:a6:
         91:76:3e:cd:69:a5:9f:2b:fc:e2:f0:50:e8:30:5e:47:3f:0d:
         0f:be:96:58:68:38:33:72:32:cf:bd:52:6e:43:99:e9:ad:4d:
         60:9d:f1:8f:99:cc:5d:7d:00:86:31:74:90:ab:3f:29:c2:f1:
         c5:cb:e6:17
-----BEGIN CERTIFICATE-----
MIIDXDCCAkSgAwIBAgIQNUMFrGe8werbNRhBsOs76jANBgkqhkiG9w0BAQsFADAW
MRQwEgYDVQQDDAt0ZWFtNDM5LW5ldDAeFw0yMTA5MTMwMjM1NDVaFw0yNDA4Mjgw
MjM1NDVaMBkxFzAVBgNVBAMMDnRlYW00MzktY2xpZW50MIIBIjANBgkqhkiG9w0B
AQEFAAOCAQ8AMIIBCgKCAQEA3ILQ3+HEysSpa+fNQtC2jG04qR5SxzuxwmzBchtF
UO1OzmcZJ4JeLLTXOhYBmCUcwf1XLALbT3wuKPmgJxDbJEPMn/r/aH9gaTx5MJhN
jd8y5MqkAvqG30tjJG2ZNqLo3h4P7wFBOHWVc3ZVDlvuBiUpnfRaH58iZrt6xQPn
ulkthKBqW/k0eB5o0LR8jNLHZf8Dt5yEiW2XJowiSOFQWx2B1XctEFfNgOZ+Gajo
wcGYqltlXYcEt55ld6RlEkSjxvvA4ClMNhZfzlM3bdOLX5c8gfaihSMHtEXaVwf/
UNf+okA+gP35QlG8ue1GjG/ACvmxD9VPX9O707hsfcPITQIDAQABo4GiMIGfMAkG
A1UdEwQCMAAwHQYDVR0OBBYEFAkRlF8W09V1Y2mtTueYx1wKdYzRMFEGA1UdIwRK
MEiAFEWc0E4lQBZAtNlnMA33lsH4MHpDoRqkGDAWMRQwEgYDVQQDDAt0ZWFtNDM5
LW5ldIIUFNUJ5drOCPFYGIiC3Jnwf8GKBPswEwYDVR0lBAwwCgYIKwYBBQUHAwIw
CwYDVR0PBAQDAgeAMA0GCSqGSIb3DQEBCwUAA4IBAQCV1gGhaDo+cUVXQiXs8xtr
lc3tTke5HFNdvCcd6iSMEaxCe+cSAwRkxIzE+vFdbqqAElyOm8ZjDbKbuWISV2Rk
mbh4gXg9sFaiWRG7WcxqKkyVfF04p7p2GjDc8DFqHfpbXtCHNXfkl39BmreV19Hg
xvG1myo1c/0FzNv25YbAMLku0HRp2Idx7q8p3fH8fFazrJQhJGNHs4eViRDUppI4
ba8NO8N4gWJoQiVIMbPht977SrtSiji04bl9blHZHNTMo4GAiKaRdj7NaaWfK/zi
8FDoMF5HPw0PvpZYaDgzcjLPvVJuQ5nprU1gnfGPmcxdfQCGMXSQqz8pwvHFy+YX
-----END CERTIFICATE-----
