Certificate:
    Data:
        Version: 3 (0x2)
        Serial Number:
            ce:f3:21:ce:24:4f:7d:0b:e6:8b:de:93:09:69:70:9d
        Signature Algorithm: sha256WithRSAEncryption
        Issuer: CN=team398-net
        Validity
            Not Before: Sep 13 02:16:19 2021 GMT
            Not After : Aug 28 02:16:19 2024 GMT
        Subject: CN=team398-client
        Subject Public Key Info:
            Public Key Algorithm: rsaEncryption
                RSA Public-Key: (2048 bit)
                Modulus:
                    00:c9:29:53:1d:11:2f:ee:6a:7a:55:fd:4e:6f:26:
                    c3:51:77:5e:6e:7d:05:69:d7:ac:b5:0d:ac:fc:82:
                    66:b4:de:8c:6f:e9:03:89:0d:e7:3b:29:dd:eb:20:
                    28:2f:b9:62:87:3b:51:65:75:3d:c4:5a:1c:5c:30:
                    e1:64:db:40:ac:34:71:f6:37:6d:a0:bf:3f:dc:ef:
                    32:fa:d1:56:3a:2f:e2:85:1e:c2:60:59:73:14:43:
                    47:4e:eb:18:bf:a1:00:1e:66:b2:76:2b:7d:6d:4b:
                    6e:5a:89:f2:cf:78:b4:8c:30:ea:17:f9:66:4c:ea:
                    67:3b:5c:5e:2d:12:44:50:68:ea:1f:89:fd:65:d3:
                    b3:9c:af:86:3c:69:27:12:b9:77:82:12:7d:6a:8c:
                    f5:f2:4c:80:34:dc:2f:28:bf:73:07:07:35:d4:ce:
                    09:6c:1f:fc:64:a4:1b:e6:8a:3a:fe:78:5a:4a:08:
                    73:75:93:8b:98:5e:34:b2:65:e6:75:d0:50:10:c0:
                    89:1f:0c:27:91:03:dc:9c:c8:04:df:11:2b:cb:a2:
                    1d:be:83:01:a0:65:5c:67:00:01:b4:d7:cf:fe:13:
                    23:b5:dd:6a:a6:14:cf:96:81:d9:71:93:7a:85:2d:
                    58:45:56:6b:31:13:28:05:49:41:d5:f8:07:a9:42:
                    0a:99
                Exponent: 65537 (0x10001)
        X509v3 extensions:
            X509v3 Basic Constraints: 
                CA:FALSE
            X509v3 Subject Key Identifier: 
                71:1F:F1:F6:DF:6F:F2:CB:ED:A4:27:11:B6:B6:47:91:25:F1:15:AA
            X509v3 Authority Key Identifier: 
                keyid:75:FC:71:9E:6A:8E:54:21:AC:62:9A:21:FF:22:2E:E7:BC:43:B8:48
                DirName:/CN=team398-net
                serial:03:11:8F:24:A2:86:9A:A3:ED:55:35:E5:3B:FD:A3:A7:E9:01:91:2C

            X509v3 Extended Key Usage: 
                TLS Web Client Authentication
            X509v3 Key Usage: 
                Digital Signature
    Signature Algorithm: sha256WithRSAEncryption
         1e:86:50:4a:9c:34:20:94:f0:06:6a:2d:4b:86:1e:ac:61:f5:
         d4:74:3e:df:e0:5b:ff:a1:e1:2a:0e:f7:93:00:55:42:fe:4f:
         a0:a1:9e:16:06:ab:8c:b9:8e:c5:80:50:a7:b1:41:38:75:90:
         05:42:cc:2f:28:29:c6:15:2d:47:29:b5:82:0c:ce:d5:1e:35:
         c4:81:d4:d5:ca:9c:1d:6e:27:06:c1:68:d2:cb:ac:8d:6f:22:
         db:1b:6c:e4:0e:74:d0:98:bc:d4:86:ff:ee:e5:f3:11:9b:98:
         0a:43:49:f2:b1:10:45:3d:25:9b:bb:a4:6b:f1:79:1c:f6:a8:
         54:4b:b4:c0:54:0f:f2:df:97:54:17:5b:4c:47:f0:a4:21:cf:
         2f:62:d0:92:87:d3:06:2d:55:5e:c4:47:ad:bb:bf:75:7a:af:
         a6:ce:b2:57:b5:4c:fb:20:b8:60:fc:02:1d:0f:b7:d5:03:af:
         0d:90:a6:76:91:74:ca:19:05:d6:d7:ba:3e:f3:62:f9:9b:b6:
         57:80:2d:df:6b:90:e5:ec:ef:b3:d9:7a:30:c5:5a:dd:bc:91:
         88:89:e5:b0:14:94:1e:3d:fd:26:e7:96:c0:74:95:24:c7:ed:
         a3:7d:83:91:3b:42:c4:d6:44:0c:17:6a:06:59:fb:e1:36:55:
         89:f9:9a:42
-----BEGIN CERTIFICATE-----
MIIDXTCCAkWgAwIBAgIRAM7zIc4kT30L5ovekwlpcJ0wDQYJKoZIhvcNAQELBQAw
FjEUMBIGA1UEAwwLdGVhbTM5OC1uZXQwHhcNMjEwOTEzMDIxNjE5WhcNMjQwODI4
MDIxNjE5WjAZMRcwFQYDVQQDDA50ZWFtMzk4LWNsaWVudDCCASIwDQYJKoZIhvcN
AQEBBQADggEPADCCAQoCggEBAMkpUx0RL+5qelX9Tm8mw1F3Xm59BWnXrLUNrPyC
ZrTejG/pA4kN5zsp3esgKC+5Yoc7UWV1PcRaHFww4WTbQKw0cfY3baC/P9zvMvrR
Vjov4oUewmBZcxRDR07rGL+hAB5msnYrfW1LblqJ8s94tIww6hf5ZkzqZztcXi0S
RFBo6h+J/WXTs5yvhjxpJxK5d4ISfWqM9fJMgDTcLyi/cwcHNdTOCWwf/GSkG+aK
Ov54WkoIc3WTi5heNLJl5nXQUBDAiR8MJ5ED3JzIBN8RK8uiHb6DAaBlXGcAAbTX
z/4TI7XdaqYUz5aB2XGTeoUtWEVWazETKAVJQdX4B6lCCpkCAwEAAaOBojCBnzAJ
BgNVHRMEAjAAMB0GA1UdDgQWBBRxH/H232/yy+2kJxG2tkeRJfEVqjBRBgNVHSME
SjBIgBR1/HGeao5UIaximiH/Ii7nvEO4SKEapBgwFjEUMBIGA1UEAwwLdGVhbTM5
OC1uZXSCFAMRjySihpqj7VU15Tv9o6fpAZEsMBMGA1UdJQQMMAoGCCsGAQUFBwMC
MAsGA1UdDwQEAwIHgDANBgkqhkiG9w0BAQsFAAOCAQEAHoZQSpw0IJTwBmotS4Ye
rGH11HQ+3+Bb/6HhKg73kwBVQv5PoKGeFgarjLmOxYBQp7FBOHWQBULMLygpxhUt
Rym1ggzO1R41xIHU1cqcHW4nBsFo0susjW8i2xts5A500Ji81Ib/7uXzEZuYCkNJ
8rEQRT0lm7uka/F5HPaoVEu0wFQP8t+XVBdbTEfwpCHPL2LQkofTBi1VXsRHrbu/
dXqvps6yV7VM+yC4YPwCHQ+31QOvDZCmdpF0yhkF1te6PvNi+Zu2V4At32uQ5ezv
s9l6MMVa3byRiInlsBSUHj39JueWwHSVJMfto32DkTtCxNZEDBdqBln74TZVifma
Qg==
-----END CERTIFICATE-----
