Certificate:
    Data:
        Version: 3 (0x2)
        Serial Number:
            ea:d2:63:2a:12:82:59:19:d5:65:54:f6:41:42:2f:67
        Signature Algorithm: sha256WithRSAEncryption
        Issuer: CN=team146-net
        Validity
            Not Before: Sep 13 00:03:10 2021 GMT
            Not After : Aug 28 00:03:10 2024 GMT
        Subject: CN=team146-server
        Subject Public Key Info:
            Public Key Algorithm: rsaEncryption
                RSA Public-Key: (2048 bit)
                Modulus:
                    00:bf:08:08:8b:84:7f:84:89:a6:d0:3f:c5:93:62:
                    75:a4:95:40:1c:04:1a:77:f3:90:31:57:43:ed:9a:
                    d5:7d:ad:48:43:ed:ea:d0:77:26:a3:e6:9e:dd:26:
                    8a:ab:56:d6:6e:2b:1f:7a:3a:63:51:ac:0b:8c:e2:
                    44:24:07:eb:3c:cf:8c:fd:ca:d0:51:fd:73:fa:51:
                    af:3c:2e:d8:1a:79:12:bc:03:68:e6:a1:ef:b3:4d:
                    44:93:c8:f3:1e:b7:06:fe:a2:51:4c:93:dd:ca:73:
                    91:7b:37:4f:bd:68:d9:47:03:3b:46:5b:ac:45:68:
                    68:6a:a9:42:42:7f:7a:40:33:d9:a3:2d:80:f2:a3:
                    f3:9f:97:9d:25:00:f4:5c:bd:ce:1e:cd:21:25:5c:
                    50:55:e2:59:cb:13:89:b9:a1:d3:f0:2f:c0:b7:f3:
                    c8:5a:0b:7f:5e:89:d1:88:21:d9:96:6b:d5:34:a6:
                    c4:da:5f:19:17:29:88:2b:5f:0a:77:28:95:29:43:
                    5d:69:cb:a6:67:a0:48:17:33:35:e9:19:b2:94:96:
                    68:b1:60:72:ed:ab:58:d1:fa:bc:ec:87:a9:1a:0e:
                    1f:a2:1b:4e:d9:c4:f4:4a:2e:0c:dc:6a:09:4f:55:
                    53:65:3d:db:f8:a7:90:f0:c0:00:54:47:46:02:71:
                    8b:b1
                Exponent: 65537 (0x10001)
        X509v3 extensions:
            X509v3 Basic Constraints: 
                CA:FALSE
            X509v3 Subject Key Identifier: 
                73:43:96:52:2F:2A:B1:97:FC:DA:45:70:D9:5F:06:BC:91:99:52:2D
            X509v3 Authority Key Identifier: 
                keyid:F5:DD:BC:CD:72:9B:C9:B2:48:2A:C2:2F:64:12:0C:9E:05:9C:6A:A3
                DirName:/CN=team146-net
                serial:5A:5F:47:90:E7:A3:29:85:53:0F:A3:DD:FB:1B:0F:82:C4:F6:15:D6

            X509v3 Extended Key Usage: 
                TLS Web Server Authentication
            X509v3 Key Usage: 
                Digital Signature, Key Encipherment
            X509v3 Subject Alternative Name: 
                DNS:team146-server
    Signature Algorithm: sha256WithRSAEncryption
         95:f1:a3:77:d9:e8:5a:19:40:2d:54:26:a9:74:00:d4:4a:e4:
         c3:25:c3:6a:d3:1e:c6:05:d3:50:9e:18:93:32:61:dd:ff:18:
         aa:4a:81:46:5e:c7:d1:24:fd:ee:e8:c3:e7:a3:aa:8d:93:16:
         58:5b:63:59:f9:b1:0d:7b:8a:e0:93:96:b9:a9:52:5b:33:a0:
         c6:ec:84:20:d1:b7:2b:ba:97:02:98:5b:c1:5c:f7:3d:0d:27:
         11:69:ff:ae:2d:6c:55:65:4c:d4:c6:d7:ed:56:7a:53:09:59:
         45:09:65:a7:dd:89:d2:73:b7:42:40:ad:19:62:94:a5:33:8a:
         86:5f:35:3d:8a:59:fc:75:0a:a4:1c:90:f6:ea:f2:42:35:eb:
         69:cf:a1:9e:3d:07:86:46:9a:8d:52:19:96:6b:8a:17:73:8d:
         61:bc:99:f4:99:da:79:de:ad:e0:1d:a5:7b:d7:01:ca:f9:db:
         e2:e5:08:ed:e3:34:b1:a9:94:6b:f0:01:3d:2d:b9:27:63:ad:
         8b:36:f7:71:9e:f4:fe:f2:31:70:bc:d1:42:d8:c9:a7:de:9e:
         92:f6:bb:af:97:ce:62:b6:5e:b5:6e:f8:d3:39:30:00:7e:6a:
         c1:ce:75:07:fc:de:3a:5c:24:b1:c5:37:64:69:fd:e2:6b:aa:
         81:bd:19:ff
-----BEGIN CERTIFICATE-----
MIIDeDCCAmCgAwIBAgIRAOrSYyoSglkZ1WVU9kFCL2cwDQYJKoZIhvcNAQELBQAw
FjEUMBIGA1UEAwwLdGVhbTE0Ni1uZXQwHhcNMjEwOTEzMDAwMzEwWhcNMjQwODI4
MDAwMzEwWjAZMRcwFQYDVQQDDA50ZWFtMTQ2LXNlcnZlcjCCASIwDQYJKoZIhvcN
AQEBBQADggEPADCCAQoCggEBAL8ICIuEf4SJptA/xZNidaSVQBwEGnfzkDFXQ+2a
1X2tSEPt6tB3JqPmnt0miqtW1m4rH3o6Y1GsC4ziRCQH6zzPjP3K0FH9c/pRrzwu
2Bp5ErwDaOah77NNRJPI8x63Bv6iUUyT3cpzkXs3T71o2UcDO0ZbrEVoaGqpQkJ/
ekAz2aMtgPKj85+XnSUA9Fy9zh7NISVcUFXiWcsTibmh0/AvwLfzyFoLf16J0Ygh
2ZZr1TSmxNpfGRcpiCtfCncolSlDXWnLpmegSBczNekZspSWaLFgcu2rWNH6vOyH
qRoOH6IbTtnE9EouDNxqCU9VU2U92/inkPDAAFRHRgJxi7ECAwEAAaOBvTCBujAJ
BgNVHRMEAjAAMB0GA1UdDgQWBBRzQ5ZSLyqxl/zaRXDZXwa8kZlSLTBRBgNVHSME
SjBIgBT13bzNcpvJskgqwi9kEgyeBZxqo6EapBgwFjEUMBIGA1UEAwwLdGVhbTE0
Ni1uZXSCFFpfR5DnoymFUw+j3fsbD4LE9hXWMBMGA1UdJQQMMAoGCCsGAQUFBwMB
MAsGA1UdDwQEAwIFoDAZBgNVHREEEjAQgg50ZWFtMTQ2LXNlcnZlcjANBgkqhkiG
9w0BAQsFAAOCAQEAlfGjd9noWhlALVQmqXQA1ErkwyXDatMexgXTUJ4YkzJh3f8Y
qkqBRl7H0ST97ujD56OqjZMWWFtjWfmxDXuK4JOWualSWzOgxuyEING3K7qXAphb
wVz3PQ0nEWn/ri1sVWVM1MbX7VZ6UwlZRQllp92J0nO3QkCtGWKUpTOKhl81PYpZ
/HUKpByQ9uryQjXrac+hnj0HhkaajVIZlmuKF3ONYbyZ9Jnaed6t4B2le9cByvnb
4uUI7eM0samUa/ABPS25J2Otizb3cZ70/vIxcLzRQtjJp96ekva7r5fOYrZetW74
0zkwAH5qwc51B/zeOlwkscU3ZGn94muqgb0Z/w==
-----END CERTIFICATE-----
