Certificate:
    Data:
        Version: 3 (0x2)
        Serial Number:
            4d:3e:55:ce:6e:78:0f:83:b1:de:0a:70:25:b6:d6:c8
        Signature Algorithm: sha256WithRSAEncryption
        Issuer: CN=team522-net
        Validity
            Not Before: Sep 13 03:31:10 2021 GMT
            Not After : Aug 28 03:31:10 2024 GMT
        Subject: CN=team522-server
        Subject Public Key Info:
            Public Key Algorithm: rsaEncryption
                RSA Public-Key: (2048 bit)
                Modulus:
                    00:a4:c2:37:39:bc:fe:7a:8f:a1:5d:4d:b2:9d:66:
                    18:e1:e2:59:59:46:ef:a5:48:7e:5c:85:77:d0:72:
                    ff:8f:4e:fc:35:28:5a:27:9e:e3:99:88:da:4c:9d:
                    6b:b1:cc:30:31:f1:fe:b9:c3:e6:f1:b8:3a:1a:66:
                    7b:52:59:3d:bf:37:f2:68:97:81:d0:13:48:99:52:
                    f0:b5:e6:fa:e7:36:a0:12:2b:f9:a7:51:3b:78:bc:
                    c8:02:4f:7d:d8:2c:df:3c:06:f2:fc:26:6a:17:c5:
                    b4:cc:5f:78:cc:c5:11:ca:9e:fd:fc:4e:65:38:86:
                    6b:23:12:04:81:98:78:63:19:90:0e:d8:1e:90:f2:
                    67:e8:87:b2:b0:7f:a3:2e:5c:58:f2:fc:d7:90:57:
                    f0:97:f4:bd:6d:81:e2:ce:5f:c3:38:cf:53:d1:e4:
                    7c:57:7a:f0:08:4b:c9:ab:55:4b:37:fc:48:4c:f8:
                    8e:59:e0:76:df:3d:6b:fa:53:9c:10:d5:02:18:6a:
                    5f:7e:2a:5c:19:e8:90:97:10:eb:71:55:3e:63:a9:
                    ea:44:83:21:e4:de:7f:fa:7c:42:92:4c:00:5a:c4:
                    28:a8:dd:67:dd:4c:03:2c:28:ae:59:dc:fb:8b:f3:
                    8e:c3:50:21:01:c7:6e:15:51:ad:f4:30:fb:d1:e5:
                    cf:43
                Exponent: 65537 (0x10001)
        X509v3 extensions:
            X509v3 Basic Constraints: 
                CA:FALSE
            X509v3 Subject Key Identifier: 
                8E:A8:E4:52:2D:53:D4:9D:88:3D:64:5B:29:DC:BF:16:92:07:6C:96
            X509v3 Authority Key Identifier: 
                keyid:D9:0A:53:79:E8:AF:D1:DD:5E:C0:C0:29:6A:ED:76:7A:A6:66:01:D1
                DirName:/CN=team522-net
                serial:0B:C3:91:12:C8:82:5B:42:62:0B:1E:37:CD:B3:43:19:04:3C:97:6F

            X509v3 Extended Key Usage: 
                TLS Web Server Authentication
            X509v3 Key Usage: 
                Digital Signature, Key Encipherment
            X509v3 Subject Alternative Name: 
                DNS:team522-server
    Signature Algorithm: sha256WithRSAEncryption
         6e:3f:7c:8f:2b:32:af:6f:7d:de:7c:b8:8d:c6:8c:02:28:fc:
         7e:3a:03:dc:df:96:93:ea:d6:72:bc:96:75:eb:f5:be:20:8e:
         96:c4:ce:98:bc:13:ca:ec:ea:08:ad:dd:ea:5a:f5:3d:21:92:
         01:79:b2:06:57:e8:89:bf:c1:d4:8e:fa:92:2c:8b:47:94:9e:
         e0:f2:28:4d:33:eb:95:08:cf:88:2f:d1:0d:1f:d9:dc:73:72:
         03:ba:c4:a2:48:fc:45:9e:e6:51:bd:aa:11:9e:cf:63:c2:bb:
         6b:7f:f5:ec:a0:65:7e:26:ec:85:4a:c5:b7:0a:ae:fb:cd:5b:
         b1:e1:b1:cc:7f:cc:02:2d:83:b4:b5:56:d8:29:3a:85:b4:41:
         d0:6d:9f:bc:0f:b3:ba:e6:9a:32:23:51:3d:13:e7:48:b8:b2:
         33:23:6b:9d:40:50:01:11:ac:c7:7d:29:ea:b1:5d:d6:20:67:
         61:b3:17:4c:eb:ea:92:e5:ab:e4:55:1f:22:8c:23:90:08:eb:
         d9:90:33:7e:6f:cb:28:f3:37:4a:7c:c0:51:42:d0:eb:8c:1f:
         3d:ab:b6:93:d2:d4:be:fe:19:db:c5:ab:c2:10:4a:87:55:81:
         3d:09:6a:88:fc:b6:d0:f7:99:07:26:c6:b8:83:24:33:e5:c1:
         61:4f:0a:40
-----BEGIN CERTIFICATE-----
MIIDdzCCAl+gAwIBAgIQTT5Vzm54D4Ox3gpwJbbWyDANBgkqhkiG9w0BAQsFADAW
MRQwEgYDVQQDDAt0ZWFtNTIyLW5ldDAeFw0yMTA5MTMwMzMxMTBaFw0yNDA4Mjgw
MzMxMTBaMBkxFzAVBgNVBAMMDnRlYW01MjItc2VydmVyMIIBIjANBgkqhkiG9w0B
AQEFAAOCAQ8AMIIBCgKCAQEApMI3Obz+eo+hXU2ynWYY4eJZWUbvpUh+XIV30HL/
j078NShaJ57jmYjaTJ1rscwwMfH+ucPm8bg6GmZ7Ulk9vzfyaJeB0BNImVLwteb6
5zagEiv5p1E7eLzIAk992CzfPAby/CZqF8W0zF94zMURyp79/E5lOIZrIxIEgZh4
YxmQDtgekPJn6IeysH+jLlxY8vzXkFfwl/S9bYHizl/DOM9T0eR8V3rwCEvJq1VL
N/xITPiOWeB23z1r+lOcENUCGGpffipcGeiQlxDrcVU+Y6nqRIMh5N5/+nxCkkwA
WsQoqN1n3UwDLCiuWdz7i/OOw1AhAcduFVGt9DD70eXPQwIDAQABo4G9MIG6MAkG
A1UdEwQCMAAwHQYDVR0OBBYEFI6o5FItU9SdiD1kWyncvxaSB2yWMFEGA1UdIwRK
MEiAFNkKU3nor9HdXsDAKWrtdnqmZgHRoRqkGDAWMRQwEgYDVQQDDAt0ZWFtNTIy
LW5ldIIUC8OREsiCW0JiCx43zbNDGQQ8l28wEwYDVR0lBAwwCgYIKwYBBQUHAwEw
CwYDVR0PBAQDAgWgMBkGA1UdEQQSMBCCDnRlYW01MjItc2VydmVyMA0GCSqGSIb3
DQEBCwUAA4IBAQBuP3yPKzKvb33efLiNxowCKPx+OgPc35aT6tZyvJZ16/W+II6W
xM6YvBPK7OoIrd3qWvU9IZIBebIGV+iJv8HUjvqSLItHlJ7g8ihNM+uVCM+IL9EN
H9ncc3IDusSiSPxFnuZRvaoRns9jwrtrf/XsoGV+JuyFSsW3Cq77zVux4bHMf8wC
LYO0tVbYKTqFtEHQbZ+8D7O65poyI1E9E+dIuLIzI2udQFABEazHfSnqsV3WIGdh
sxdM6+qS5avkVR8ijCOQCOvZkDN+b8so8zdKfMBRQtDrjB89q7aT0tS+/hnbxavC
EEqHVYE9CWqI/LbQ95kHJsa4gyQz5cFhTwpA
-----END CERTIFICATE-----
