Certificate:
    Data:
        Version: 3 (0x2)
        Serial Number:
            b3:c7:13:ff:b7:aa:1f:f6:ea:a4:6c:49:e5:1a:6d:8a
        Signature Algorithm: sha256WithRSAEncryption
        Issuer: CN=team522-net
        Validity
            Not Before: Sep 13 03:31:10 2021 GMT
            Not After : Aug 28 03:31:10 2024 GMT
        Subject: CN=team522-client
        Subject Public Key Info:
            Public Key Algorithm: rsaEncryption
                RSA Public-Key: (2048 bit)
                Modulus:
                    00:be:3c:ba:aa:ea:59:42:e3:82:e8:1d:00:aa:99:
                    9a:62:5d:1d:7c:16:e6:64:fd:06:79:64:c0:74:c8:
                    37:16:88:4b:a5:83:0b:d9:53:fb:82:bb:62:d6:39:
                    03:79:5d:73:f1:77:2c:8d:61:d0:46:41:6a:f9:76:
                    d4:e8:e8:11:38:bc:1f:45:df:68:c7:3a:c1:8b:d7:
                    e4:12:f8:99:f4:92:c5:fe:dd:9e:83:3a:c0:94:11:
                    82:48:87:8d:44:ba:9b:bc:c6:97:e4:a3:fd:58:d5:
                    27:23:4f:61:92:6f:b7:d0:c4:fa:12:21:5b:71:7e:
                    19:e5:12:8d:25:7a:7c:69:3e:b5:57:e2:4e:62:32:
                    d7:6b:6a:78:e7:ed:cd:e3:f7:76:a4:12:5c:5a:de:
                    25:c0:24:2a:e4:ae:0e:8f:4e:6e:88:4d:e8:96:e7:
                    08:7c:db:87:5f:53:ef:ff:06:0b:89:49:dc:03:ae:
                    bb:17:6e:5f:88:89:47:e5:84:74:d9:de:9f:a7:ee:
                    ea:1c:4f:ee:75:8b:e3:5f:c6:3b:7b:cc:39:3b:a6:
                    d9:6f:84:f7:7e:72:2f:25:62:fb:36:80:29:87:80:
                    71:b4:e7:a5:70:b5:72:1d:c2:af:cc:e3:7e:74:b0:
                    1c:ed:8b:92:79:aa:69:3c:0e:a6:a8:1e:80:dd:de:
                    c4:6b
                Exponent: 65537 (0x10001)
        X509v3 extensions:
            X509v3 Basic Constraints: 
                CA:FALSE
            X509v3 Subject Key Identifier: 
                D0:BC:B6:CF:C4:EE:6C:80:32:77:5B:6D:64:25:8C:7D:F5:A0:89:91
            X509v3 Authority Key Identifier: 
                keyid:D9:0A:53:79:E8:AF:D1:DD:5E:C0:C0:29:6A:ED:76:7A:A6:66:01:D1
                DirName:/CN=team522-net
                serial:0B:C3:91:12:C8:82:5B:42:62:0B:1E:37:CD:B3:43:19:04:3C:97:6F

            X509v3 Extended Key Usage: 
                TLS Web Client Authentication
            X509v3 Key Usage: 
                Digital Signature
    Signature Algorithm: sha256WithRSAEncryption
         52:27:cf:da:c7:62:14:23:34:40:f4:76:35:03:06:47:47:24:
         6b:61:48:3e:c5:36:65:01:3c:e3:31:3f:61:95:a1:42:98:5b:
         81:9f:7b:ed:ab:de:61:2e:80:d8:84:7b:00:97:9c:0d:1e:c5:
         1b:b7:4c:23:53:8d:69:79:54:1f:6a:dc:7c:45:06:ae:d5:70:
         8b:da:c8:ac:d4:74:c9:0b:22:ab:ab:c7:c0:79:52:0b:38:fd:
         0c:8b:4b:1a:65:9d:60:aa:b2:d0:6f:b5:4b:45:67:69:d9:33:
         2f:41:d8:6c:89:c6:70:35:a5:d4:6f:25:e8:32:a0:f0:ed:6f:
         8d:d5:36:fa:20:d4:6d:e7:41:ad:e8:b4:d7:f9:58:55:31:7f:
         3d:58:77:70:76:b3:2f:6a:9a:a2:97:f8:d5:7c:d3:29:84:6c:
         7c:54:23:a8:24:16:dd:56:88:b2:ae:e7:13:57:36:82:53:e9:
         d5:82:2c:2b:a7:90:ff:f5:6a:16:d0:ec:cb:72:0d:96:2f:10:
         22:55:26:92:31:e0:60:ea:a9:78:61:78:6e:de:28:76:12:f7:
         ba:04:a6:e8:c4:8a:81:34:7a:dc:e0:b3:67:df:d7:f8:e0:98:
         4a:d2:21:ab:63:72:94:62:40:d5:6b:f5:61:e9:76:45:30:d0:
         21:b8:31:d7
-----BEGIN CERTIFICATE-----
MIIDXTCCAkWgAwIBAgIRALPHE/+3qh/26qRsSeUabYowDQYJKoZIhvcNAQELBQAw
FjEUMBIGA1UEAwwLdGVhbTUyMi1uZXQwHhcNMjEwOTEzMDMzMTEwWhcNMjQwODI4
MDMzMTEwWjAZMRcwFQYDVQQDDA50ZWFtNTIyLWNsaWVudDCCASIwDQYJKoZIhvcN
AQEBBQADggEPADCCAQoCggEBAL48uqrqWULjgugdAKqZmmJdHXwW5mT9BnlkwHTI
NxaIS6WDC9lT+4K7YtY5A3ldc/F3LI1h0EZBavl21OjoETi8H0XfaMc6wYvX5BL4
mfSSxf7dnoM6wJQRgkiHjUS6m7zGl+Sj/VjVJyNPYZJvt9DE+hIhW3F+GeUSjSV6
fGk+tVfiTmIy12tqeOftzeP3dqQSXFreJcAkKuSuDo9ObohN6JbnCHzbh19T7/8G
C4lJ3AOuuxduX4iJR+WEdNnen6fu6hxP7nWL41/GO3vMOTum2W+E935yLyVi+zaA
KYeAcbTnpXC1ch3Cr8zjfnSwHO2LknmqaTwOpqgegN3exGsCAwEAAaOBojCBnzAJ
BgNVHRMEAjAAMB0GA1UdDgQWBBTQvLbPxO5sgDJ3W21kJYx99aCJkTBRBgNVHSME
SjBIgBTZClN56K/R3V7AwClq7XZ6pmYB0aEapBgwFjEUMBIGA1UEAwwLdGVhbTUy
Mi1uZXSCFAvDkRLIgltCYgseN82zQxkEPJdvMBMGA1UdJQQMMAoGCCsGAQUFBwMC
MAsGA1UdDwQEAwIHgDANBgkqhkiG9w0BAQsFAAOCAQEAUifP2sdiFCM0QPR2NQMG
R0cka2FIPsU2ZQE84zE/YZWhQphbgZ977aveYS6A2IR7AJecDR7FG7dMI1ONaXlU
H2rcfEUGrtVwi9rIrNR0yQsiq6vHwHlSCzj9DItLGmWdYKqy0G+1S0VnadkzL0HY
bInGcDWl1G8l6DKg8O1vjdU2+iDUbedBrei01/lYVTF/PVh3cHazL2qaopf41XzT
KYRsfFQjqCQW3VaIsq7nE1c2glPp1YIsK6eQ//VqFtDsy3INli8QIlUmkjHgYOqp
eGF4bt4odhL3ugSm6MSKgTR63OCzZ9/X+OCYStIhq2NylGJA1Wv1Yel2RTDQIbgx
1w==
-----END CERTIFICATE-----
