Certificate:
    Data:
        Version: 3 (0x2)
        Serial Number:
            05:98:4f:3b:75:e9:be:74:72:c7:a3:3a:1c:3a:ee:bc
        Signature Algorithm: sha256WithRSAEncryption
        Issuer: CN=team565-net
        Validity
            Not Before: Sep 13 03:38:19 2021 GMT
            Not After : Aug 28 03:38:19 2024 GMT
        Subject: CN=team565-server
        Subject Public Key Info:
            Public Key Algorithm: rsaEncryption
                RSA Public-Key: (2048 bit)
                Modulus:
                    00:b1:30:e2:41:ed:31:b9:92:e8:ab:60:9f:a1:40:
                    d5:85:e5:52:6e:87:c7:70:9b:fe:a4:2a:94:3c:24:
                    d5:94:e9:f5:7a:8f:be:92:b8:8e:1a:28:79:88:39:
                    5e:fb:f5:17:60:f5:05:b3:15:a2:fd:eb:49:0a:11:
                    1e:e6:14:54:e8:87:f5:9c:78:61:d4:c0:72:f6:ca:
                    74:ed:b8:f5:45:2d:dc:ca:67:dc:0e:55:c0:d3:fe:
                    43:bf:9f:72:df:f4:df:28:62:ff:c7:c9:20:f5:cc:
                    d3:30:10:47:c0:bd:55:19:22:98:5b:02:0d:e2:a8:
                    6d:80:fd:a1:08:25:3e:95:7e:cf:1a:6c:08:3c:73:
                    43:48:df:e0:34:77:67:d6:4b:de:5e:40:a8:c4:b1:
                    be:dd:52:04:2d:64:f0:0f:e9:06:a5:49:6f:9d:12:
                    09:00:7f:46:8e:55:fe:43:df:74:1d:29:c4:18:a5:
                    a9:da:d6:38:6f:e0:46:e4:a6:d0:24:f9:ea:86:86:
                    24:35:38:63:96:98:6f:e2:01:e4:36:e0:34:02:30:
                    58:16:c5:89:f3:8a:ca:27:d0:e6:ab:73:51:97:4a:
                    cb:69:98:1a:fd:73:f9:87:82:73:d8:97:31:02:15:
                    46:5c:4d:d3:ed:a5:ec:bd:eb:0a:e1:00:00:76:6c:
                    c4:3d
                Exponent: 65537 (0x10001)
        X509v3 extensions:
            X509v3 Basic Constraints: 
                CA:FALSE
            X509v3 Subject Key Identifier: 
                D4:12:56:7A:16:46:E7:19:6E:9B:19:5A:A9:4C:7E:75:B7:8B:D2:A9
            X509v3 Authority Key Identifier: 
                keyid:87:68:AA:83:24:84:E1:8B:15:D3:10:85:E7:29:58:2C:7B:88:C2:76
                DirName:/CN=team565-net
                serial:78:DB:4B:5F:5C:20:70:D3:AB:E7:FB:D3:C8:95:0C:56:A9:46:0F:C8

            X509v3 Extended Key Usage: 
                TLS Web Server Authentication
            X509v3 Key Usage: 
                Digital Signature, Key Encipherment
            X509v3 Subject Alternative Name: 
                DNS:team565-server
    Signature Algorithm: sha256WithRSAEncryption
         03:21:af:4f:a0:89:8f:4a:8a:98:5d:09:2d:55:e1:da:0d:e5:
         aa:e1:5f:10:d3:cf:6a:54:9d:27:7d:4f:5d:9b:75:82:01:82:
         6b:3f:c5:b7:15:fd:fc:2e:45:e9:f6:1c:27:de:ef:1e:40:1c:
         2e:c1:53:55:28:4e:99:73:f6:7f:a5:8d:53:41:28:69:7c:e8:
         af:a8:c3:04:3a:9a:b5:be:25:80:c8:5c:bf:96:65:87:f8:80:
         ff:37:1b:43:17:95:c6:55:49:ca:d2:42:6c:1a:dc:90:c1:a9:
         f4:2d:5f:2c:1a:d3:e8:de:f0:d6:09:7a:d8:8e:02:1c:73:eb:
         85:5c:0c:89:c6:7b:cc:65:7a:c0:56:cf:3c:72:f3:4a:c4:72:
         9b:e3:00:0c:da:ed:0c:71:b7:4e:0a:fb:a0:83:4d:20:48:9d:
         c2:42:e1:df:75:9d:42:bc:db:99:2d:be:54:9a:5b:da:bd:4e:
         a5:82:da:d5:a7:1d:c2:e6:16:7e:b2:62:83:b3:2b:c9:91:bb:
         20:d8:33:eb:8f:0b:22:08:fb:6f:9d:e5:f1:17:5b:99:47:c6:
         2d:8f:46:87:33:f1:86:38:44:84:c8:41:e5:dd:40:1f:c8:80:
         46:58:b6:95:ef:fc:d0:42:09:1f:7e:dd:91:12:da:cc:2a:81:
         1b:8f:98:61
-----BEGIN CERTIFICATE-----
MIIDdzCCAl+gAwIBAgIQBZhPO3XpvnRyx6M6HDruvDANBgkqhkiG9w0BAQsFADAW
MRQwEgYDVQQDDAt0ZWFtNTY1LW5ldDAeFw0yMTA5MTMwMzM4MTlaFw0yNDA4Mjgw
MzM4MTlaMBkxFzAVBgNVBAMMDnRlYW01NjUtc2VydmVyMIIBIjANBgkqhkiG9w0B
AQEFAAOCAQ8AMIIBCgKCAQEAsTDiQe0xuZLoq2CfoUDVheVSbofHcJv+pCqUPCTV
lOn1eo++kriOGih5iDle+/UXYPUFsxWi/etJChEe5hRU6If1nHhh1MBy9sp07bj1
RS3cymfcDlXA0/5Dv59y3/TfKGL/x8kg9czTMBBHwL1VGSKYWwIN4qhtgP2hCCU+
lX7PGmwIPHNDSN/gNHdn1kveXkCoxLG+3VIELWTwD+kGpUlvnRIJAH9GjlX+Q990
HSnEGKWp2tY4b+BG5KbQJPnqhoYkNThjlphv4gHkNuA0AjBYFsWJ84rKJ9Dmq3NR
l0rLaZga/XP5h4Jz2JcxAhVGXE3T7aXsvesK4QAAdmzEPQIDAQABo4G9MIG6MAkG
A1UdEwQCMAAwHQYDVR0OBBYEFNQSVnoWRucZbpsZWqlMfnW3i9KpMFEGA1UdIwRK
MEiAFIdoqoMkhOGLFdMQhecpWCx7iMJ2oRqkGDAWMRQwEgYDVQQDDAt0ZWFtNTY1
LW5ldIIUeNtLX1wgcNOr5/vTyJUMVqlGD8gwEwYDVR0lBAwwCgYIKwYBBQUHAwEw
CwYDVR0PBAQDAgWgMBkGA1UdEQQSMBCCDnRlYW01NjUtc2VydmVyMA0GCSqGSIb3
DQEBCwUAA4IBAQADIa9PoImPSoqYXQktVeHaDeWq4V8Q089qVJ0nfU9dm3WCAYJr
P8W3Ff38LkXp9hwn3u8eQBwuwVNVKE6Zc/Z/pY1TQShpfOivqMMEOpq1viWAyFy/
lmWH+ID/NxtDF5XGVUnK0kJsGtyQwan0LV8sGtPo3vDWCXrYjgIcc+uFXAyJxnvM
ZXrAVs88cvNKxHKb4wAM2u0McbdOCvugg00gSJ3CQuHfdZ1CvNuZLb5UmlvavU6l
gtrVpx3C5hZ+smKDsyvJkbsg2DPrjwsiCPtvneXxF1uZR8Ytj0aHM/GGOESEyEHl
3UAfyIBGWLaV7/zQQgkfft2REtrMKoEbj5hh
-----END CERTIFICATE-----
