Certificate:
    Data:
        Version: 3 (0x2)
        Serial Number:
            aa:c2:0c:87:6c:05:c0:af:b7:5e:a8:56:fa:c6:db:df
        Signature Algorithm: sha256WithRSAEncryption
        Issuer: CN=team504-net
        Validity
            Not Before: Sep 13 03:20:56 2021 GMT
            Not After : Aug 28 03:20:56 2024 GMT
        Subject: CN=team504-client
        Subject Public Key Info:
            Public Key Algorithm: rsaEncryption
                RSA Public-Key: (2048 bit)
                Modulus:
                    00:c8:8b:08:d5:d4:14:7a:e0:28:1c:00:67:82:5c:
                    0e:7f:10:77:06:2c:b7:ab:63:ed:85:b3:45:cb:1d:
                    bd:8b:a4:7c:61:c9:b3:87:64:8a:cb:98:6d:7a:64:
                    a0:ac:23:00:6d:63:6c:8b:22:cf:69:9e:31:30:af:
                    68:1f:12:3c:30:6c:27:fd:29:a6:ec:52:92:4c:b8:
                    ff:48:2b:cc:ac:e8:11:a2:f2:36:50:7f:5c:7b:05:
                    55:4c:c3:1b:49:ad:f2:92:89:fb:76:ee:df:0e:99:
                    f0:74:89:fd:6f:7a:66:2e:da:ab:c0:e0:82:48:af:
                    97:af:42:77:ba:a7:6a:a1:92:10:34:8d:b3:84:02:
                    47:73:23:da:c2:d7:16:bf:c8:0a:08:23:9a:1b:38:
                    2a:eb:9f:40:3c:e4:9d:68:f8:f6:f3:0e:dd:ea:7a:
                    45:73:5c:b0:a8:61:68:95:52:d1:60:bf:f0:87:65:
                    f5:4c:2a:45:62:1c:3e:8a:c8:c9:0c:06:4e:da:94:
                    ce:0e:04:50:55:af:33:0e:92:6f:9c:b3:8c:70:a2:
                    b4:5a:72:00:1b:c9:f7:a3:d7:a8:c5:da:98:a4:cb:
                    95:0f:c6:d3:99:ef:be:c7:25:b5:06:49:d8:13:0f:
                    7d:6d:cf:11:5e:ee:1b:5e:fb:d5:ea:d0:cf:f9:d3:
                    89:e5
                Exponent: 65537 (0x10001)
        X509v3 extensions:
            X509v3 Basic Constraints: 
                CA:FALSE
            X509v3 Subject Key Identifier: 
                81:F4:50:14:A6:91:01:D9:E6:1E:11:8F:3A:D7:9A:7D:66:52:11:E4
            X509v3 Authority Key Identifier: 
                keyid:7C:71:F9:B9:CE:06:47:27:9D:EF:B5:10:47:49:E3:9A:2B:90:C3:9B
                DirName:/CN=team504-net
                serial:51:33:E8:99:76:73:FB:2A:5E:D7:16:7C:A4:2C:DA:2F:EE:B0:AA:FE

            X509v3 Extended Key Usage: 
                TLS Web Client Authentication
            X509v3 Key Usage: 
                Digital Signature
    Signature Algorithm: sha256WithRSAEncryption
         ae:20:ab:5c:38:da:e0:28:7d:05:e7:cf:73:94:0e:a0:3c:d2:
         94:32:6a:19:be:70:53:f4:e1:70:1a:82:37:ca:53:f6:32:0d:
         d5:e8:f0:9c:b3:00:1c:92:db:12:d0:bc:23:bb:f7:90:00:1b:
         5c:59:59:8a:ac:6f:29:04:a2:6e:b4:20:dc:65:c5:0e:87:a1:
         d3:15:89:d8:b6:d7:73:09:fd:19:ae:24:93:dc:9d:7a:38:22:
         c9:c9:2e:71:74:6b:cc:8a:40:c3:a9:ea:21:8c:13:43:59:2f:
         b7:c4:c1:dc:cd:2a:73:fc:82:4c:fc:f1:05:c8:6a:e3:d5:e7:
         50:ae:76:9b:7f:4a:35:7a:a4:92:81:e3:4f:d3:c7:5d:6e:68:
         89:8d:f6:27:c5:37:e7:a1:3e:d4:b2:d3:dc:a2:4a:e1:cc:a8:
         0d:50:4f:08:e1:ee:6c:3f:8d:5d:6b:1b:c5:f4:cb:54:0d:fd:
         b2:30:1a:9a:b6:30:27:13:72:77:0d:28:bb:59:65:f9:28:45:
         f9:7e:4d:21:8f:18:0a:82:c2:0e:38:0b:26:8c:d7:6e:4c:ad:
         3e:17:38:7d:24:7e:5a:84:e6:a3:bf:b5:8d:63:4c:50:c1:5b:
         af:73:dc:54:e5:24:c5:54:12:42:d1:1b:2a:3b:1a:11:9e:4e:
         28:2f:a8:a4
-----BEGIN CERTIFICATE-----
MIIDXTCCAkWgAwIBAgIRAKrCDIdsBcCvt16oVvrG298wDQYJKoZIhvcNAQELBQAw
FjEUMBIGA1UEAwwLdGVhbTUwNC1uZXQwHhcNMjEwOTEzMDMyMDU2WhcNMjQwODI4
MDMyMDU2WjAZMRcwFQYDVQQDDA50ZWFtNTA0LWNsaWVudDCCASIwDQYJKoZIhvcN
AQEBBQADggEPADCCAQoCggEBAMiLCNXUFHrgKBwAZ4JcDn8QdwYst6tj7YWzRcsd
vYukfGHJs4dkisuYbXpkoKwjAG1jbIsiz2meMTCvaB8SPDBsJ/0ppuxSkky4/0gr
zKzoEaLyNlB/XHsFVUzDG0mt8pKJ+3bu3w6Z8HSJ/W96Zi7aq8Dggkivl69Cd7qn
aqGSEDSNs4QCR3Mj2sLXFr/ICggjmhs4KuufQDzknWj49vMO3ep6RXNcsKhhaJVS
0WC/8Idl9UwqRWIcPorIyQwGTtqUzg4EUFWvMw6Sb5yzjHCitFpyABvJ96PXqMXa
mKTLlQ/G05nvvscltQZJ2BMPfW3PEV7uG1771erQz/nTieUCAwEAAaOBojCBnzAJ
BgNVHRMEAjAAMB0GA1UdDgQWBBSB9FAUppEB2eYeEY8615p9ZlIR5DBRBgNVHSME
SjBIgBR8cfm5zgZHJ53vtRBHSeOaK5DDm6EapBgwFjEUMBIGA1UEAwwLdGVhbTUw
NC1uZXSCFFEz6Jl2c/sqXtcWfKQs2i/usKr+MBMGA1UdJQQMMAoGCCsGAQUFBwMC
MAsGA1UdDwQEAwIHgDANBgkqhkiG9w0BAQsFAAOCAQEAriCrXDja4Ch9BefPc5QO
oDzSlDJqGb5wU/ThcBqCN8pT9jIN1ejwnLMAHJLbEtC8I7v3kAAbXFlZiqxvKQSi
brQg3GXFDoeh0xWJ2LbXcwn9Ga4kk9ydejgiyckucXRrzIpAw6nqIYwTQ1kvt8TB
3M0qc/yCTPzxBchq49XnUK52m39KNXqkkoHjT9PHXW5oiY32J8U356E+1LLT3KJK
4cyoDVBPCOHubD+NXWsbxfTLVA39sjAamrYwJxNydw0ou1ll+ShF+X5NIY8YCoLC
DjgLJozXbkytPhc4fSR+WoTmo7+1jWNMUMFbr3PcVOUkxVQSQtEbKjsaEZ5OKC+o
pA==
-----END CERTIFICATE-----
