Certificate:
    Data:
        Version: 3 (0x2)
        Serial Number:
            10:1e:ff:b3:51:c8:d7:56:8c:19:42:8e:bb:3b:54:4f
        Signature Algorithm: sha256WithRSAEncryption
        Issuer: CN=team399-net
        Validity
            Not Before: Sep 13 02:17:03 2021 GMT
            Not After : Aug 28 02:17:03 2024 GMT
        Subject: CN=team399-client
        Subject Public Key Info:
            Public Key Algorithm: rsaEncryption
                RSA Public-Key: (2048 bit)
                Modulus:
                    00:e5:dd:6e:95:21:2a:93:60:2d:3a:c2:17:32:75:
                    fe:02:e8:b6:96:48:0c:ad:7b:81:b1:98:64:87:42:
                    8c:25:0a:2f:9c:68:14:f6:01:8f:43:28:ac:a4:85:
                    7f:0b:0d:07:18:b7:85:3c:d0:b0:ea:42:3a:c0:1c:
                    dc:57:ae:32:b9:a2:55:1f:8e:d0:64:e2:e1:94:a4:
                    77:59:bc:03:f1:7a:42:32:ab:d3:15:74:bd:9e:4f:
                    c0:b1:dd:6a:e7:df:88:b3:29:95:72:e0:b5:93:13:
                    ab:fd:e7:82:3d:4b:c2:dd:87:a1:e7:47:b6:ee:73:
                    9b:10:05:ee:7f:54:a6:12:1d:50:bf:3c:8d:17:cf:
                    bc:61:85:2a:5b:b2:c9:19:a4:a6:b6:eb:59:e4:22:
                    c4:84:12:9b:93:bb:16:26:e7:f4:0b:4f:01:23:ef:
                    8c:d3:37:2a:6e:fd:d3:25:f0:a4:0a:a0:86:ac:a3:
                    79:02:2e:b3:ad:10:f5:0b:c2:bf:cb:c7:0d:fe:c5:
                    c2:7a:f3:2a:8a:13:9c:b2:e8:14:6b:3d:8b:25:3a:
                    7a:6f:34:e0:28:e2:12:89:e3:1e:5a:f5:99:b5:f3:
                    97:a0:1b:31:45:ad:4e:da:0e:35:90:15:38:2d:67:
                    92:96:fe:aa:86:a3:8b:79:22:53:50:0a:5a:13:fa:
                    e8:dd
                Exponent: 65537 (0x10001)
        X509v3 extensions:
            X509v3 Basic Constraints: 
                CA:FALSE
            X509v3 Subject Key Identifier: 
                4B:60:6A:FC:11:56:68:3C:E5:47:9A:2C:3F:60:FA:EA:E8:5C:7E:BC
            X509v3 Authority Key Identifier: 
                keyid:85:42:B5:71:80:94:8A:F3:6F:2B:B6:22:DF:F4:CA:59:1B:DC:A8:C7
                DirName:/CN=team399-net
                serial:66:26:57:7A:CF:F5:09:32:C4:C3:8B:74:99:40:D9:33:C6:E9:78:31

            X509v3 Extended Key Usage: 
                TLS Web Client Authentication
            X509v3 Key Usage: 
                Digital Signature
    Signature Algorithm: sha256WithRSAEncryption
         0f:7f:1a:44:b7:70:50:03:63:34:22:71:6c:5f:7f:1d:9f:42:
         ed:e9:48:d1:c6:11:fc:c1:39:be:02:e1:f6:b7:37:95:46:03:
         14:25:e3:fd:5f:92:42:d7:fa:b7:e6:8b:a1:c0:9a:cc:98:5b:
         c6:70:cf:75:c2:b8:a4:bd:7d:83:6d:65:b6:37:6b:71:f7:69:
         1d:39:2b:16:22:ac:47:b1:32:a1:f4:6a:21:32:d5:d8:21:82:
         18:f6:6e:d6:3b:bf:96:57:dd:58:be:c7:2c:4c:2b:c8:fb:0f:
         f1:c4:51:4f:4d:74:2a:84:68:91:6e:70:a8:b3:8b:21:ac:1b:
         eb:4e:57:a4:6a:57:3a:68:53:38:47:7b:5d:65:26:a9:9d:bf:
         6a:92:02:09:7d:79:1e:a7:3c:9a:80:72:86:fd:19:9e:f7:c2:
         39:7e:8e:27:b9:cf:82:af:8d:a9:02:d4:59:99:c6:bd:9e:d0:
         65:eb:b6:5d:04:a8:f8:8c:8a:ef:ee:60:09:95:a9:61:6d:91:
         34:d7:78:33:7c:07:f3:a5:80:9e:e9:b8:15:1f:63:ba:f3:8b:
         5c:47:d9:7f:25:03:b8:6d:14:b4:aa:1c:1c:d3:8b:df:b5:cf:
         06:d7:e0:62:ca:24:7b:8f:46:75:9f:bd:88:60:83:2c:2c:00:
         92:36:e2:48
-----BEGIN CERTIFICATE-----
MIIDXDCCAkSgAwIBAgIQEB7/s1HI11aMGUKOuztUTzANBgkqhkiG9w0BAQsFADAW
MRQwEgYDVQQDDAt0ZWFtMzk5LW5ldDAeFw0yMTA5MTMwMjE3MDNaFw0yNDA4Mjgw
MjE3MDNaMBkxFzAVBgNVBAMMDnRlYW0zOTktY2xpZW50MIIBIjANBgkqhkiG9w0B
AQEFAAOCAQ8AMIIBCgKCAQEA5d1ulSEqk2AtOsIXMnX+Aui2lkgMrXuBsZhkh0KM
JQovnGgU9gGPQyispIV/Cw0HGLeFPNCw6kI6wBzcV64yuaJVH47QZOLhlKR3WbwD
8XpCMqvTFXS9nk/Asd1q59+IsymVcuC1kxOr/eeCPUvC3Yeh50e27nObEAXuf1Sm
Eh1QvzyNF8+8YYUqW7LJGaSmtutZ5CLEhBKbk7sWJuf0C08BI++M0zcqbv3TJfCk
CqCGrKN5Ai6zrRD1C8K/y8cN/sXCevMqihOcsugUaz2LJTp6bzTgKOISieMeWvWZ
tfOXoBsxRa1O2g41kBU4LWeSlv6qhqOLeSJTUApaE/ro3QIDAQABo4GiMIGfMAkG
A1UdEwQCMAAwHQYDVR0OBBYEFEtgavwRVmg85UeaLD9g+uroXH68MFEGA1UdIwRK
MEiAFIVCtXGAlIrzbyu2It/0ylkb3KjHoRqkGDAWMRQwEgYDVQQDDAt0ZWFtMzk5
LW5ldIIUZiZXes/1CTLEw4t0mUDZM8bpeDEwEwYDVR0lBAwwCgYIKwYBBQUHAwIw
CwYDVR0PBAQDAgeAMA0GCSqGSIb3DQEBCwUAA4IBAQAPfxpEt3BQA2M0InFsX38d
n0Lt6UjRxhH8wTm+AuH2tzeVRgMUJeP9X5JC1/q35ouhwJrMmFvGcM91wrikvX2D
bWW2N2tx92kdOSsWIqxHsTKh9GohMtXYIYIY9m7WO7+WV91YvscsTCvI+w/xxFFP
TXQqhGiRbnCos4shrBvrTlekalc6aFM4R3tdZSapnb9qkgIJfXkepzyagHKG/Rme
98I5fo4nuc+Cr42pAtRZmca9ntBl67ZdBKj4jIrv7mAJlalhbZE013gzfAfzpYCe
6bgVH2O684tcR9l/JQO4bRS0qhwc04vftc8G1+BiyiR7j0Z1n72IYIMsLACSNuJI
-----END CERTIFICATE-----
