Certificate:
    Data:
        Version: 3 (0x2)
        Serial Number:
            d4:a8:ae:fa:10:be:80:36:bf:83:62:92:21:96:0c:b5
        Signature Algorithm: sha256WithRSAEncryption
        Issuer: CN=team597-net
        Validity
            Not Before: Sep 13 04:13:11 2021 GMT
            Not After : Aug 28 04:13:11 2024 GMT
        Subject: CN=team597-client
        Subject Public Key Info:
            Public Key Algorithm: rsaEncryption
                RSA Public-Key: (2048 bit)
                Modulus:
                    00:ad:ca:60:32:96:a0:9f:50:ec:a0:b0:68:08:43:
                    09:f0:6e:bd:66:c9:4a:f9:95:71:a4:da:4d:70:ef:
                    ad:41:b2:10:fc:d4:62:aa:bf:f8:0e:61:5f:87:61:
                    58:f1:44:47:d8:ac:80:62:bf:d3:aa:a2:62:f3:e8:
                    42:1d:24:7e:5a:96:ac:e5:9d:d8:7f:1d:08:91:90:
                    04:12:2b:fc:b5:7e:6b:77:bf:e0:d9:17:3d:04:3d:
                    ad:39:53:d4:fe:10:c2:7b:bc:27:59:05:ac:d2:de:
                    89:5f:39:77:1c:f1:92:9e:c6:d2:50:c3:79:a7:7a:
                    6c:b8:59:c7:db:f4:6f:66:0a:27:1b:38:45:4e:9e:
                    77:81:07:01:e3:c8:1c:28:70:84:70:55:35:a5:98:
                    2b:81:91:3d:45:68:c8:dd:ad:9b:51:bd:47:2c:a8:
                    9b:dc:45:42:1c:01:f7:4f:33:ae:72:e6:07:b4:60:
                    22:18:4a:f2:f2:b5:af:74:20:64:58:e6:be:6d:f3:
                    37:3f:48:b8:18:c3:2a:2f:21:92:13:0c:71:60:fa:
                    0b:32:b9:28:45:de:24:14:08:6a:d1:19:6f:00:3f:
                    99:5c:3d:44:69:e3:95:ab:e4:e6:ed:fd:8c:7a:cb:
                    04:6f:8e:66:44:e0:c3:27:c1:58:f1:a0:3d:0e:6f:
                    52:e1
                Exponent: 65537 (0x10001)
        X509v3 extensions:
            X509v3 Basic Constraints: 
                CA:FALSE
            X509v3 Subject Key Identifier: 
                08:40:C1:93:E9:C3:63:F9:FE:04:F5:EB:6B:84:7C:BB:1C:02:C8:03
            X509v3 Authority Key Identifier: 
                keyid:55:8E:73:99:E0:84:04:32:1B:DA:AE:E4:08:8F:8F:21:43:0D:BB:AE
                DirName:/CN=team597-net
                serial:49:9B:A7:88:8B:19:5C:B3:44:F8:EB:40:11:36:AE:04:8E:EF:33:70

            X509v3 Extended Key Usage: 
                TLS Web Client Authentication
            X509v3 Key Usage: 
                Digital Signature
    Signature Algorithm: sha256WithRSAEncryption
         9c:4e:e5:8c:e3:c4:c2:2c:52:4d:3f:22:6c:a1:6f:b2:0d:26:
         2e:d9:ae:48:9f:be:0e:47:af:83:b8:d1:98:71:7d:e8:3c:40:
         78:73:f7:a8:98:ae:dd:72:04:ff:03:21:bc:13:12:86:81:81:
         5b:42:65:8d:4c:1e:14:aa:6e:82:f8:9a:d4:43:d2:56:f8:c1:
         9d:bf:f8:3b:8b:d2:4d:51:ec:2c:0d:4c:08:27:13:39:39:b0:
         85:3f:42:d2:11:63:5e:d8:db:1d:c1:89:08:c8:21:fe:f3:b7:
         1d:70:2c:c8:d6:0f:09:42:a2:49:90:48:ea:6e:65:5d:09:1c:
         c3:c0:d0:4c:80:80:7f:b6:17:69:55:8b:d0:81:41:3f:a5:c8:
         51:96:ee:96:fc:24:a6:12:ba:ba:1f:f7:9f:c8:95:2c:57:fe:
         ad:5c:22:e0:3a:9a:93:b1:e7:29:1b:e1:05:d8:1f:36:e6:2b:
         d0:73:e8:bc:17:dd:44:51:58:5a:96:83:ad:61:b3:44:9a:a9:
         f4:a1:5f:33:cb:2a:dd:e4:ab:1c:92:d6:66:8d:fa:6c:24:c8:
         66:99:41:dc:75:55:31:9e:80:8c:2e:89:bd:6c:cd:03:3e:e9:
         26:a5:ad:37:41:3a:81:b5:35:18:82:f7:ca:ab:c5:aa:0b:a3:
         8a:83:05:2f
-----BEGIN CERTIFICATE-----
MIIDXTCCAkWgAwIBAgIRANSorvoQvoA2v4NikiGWDLUwDQYJKoZIhvcNAQELBQAw
FjEUMBIGA1UEAwwLdGVhbTU5Ny1uZXQwHhcNMjEwOTEzMDQxMzExWhcNMjQwODI4
MDQxMzExWjAZMRcwFQYDVQQDDA50ZWFtNTk3LWNsaWVudDCCASIwDQYJKoZIhvcN
AQEBBQADggEPADCCAQoCggEBAK3KYDKWoJ9Q7KCwaAhDCfBuvWbJSvmVcaTaTXDv
rUGyEPzUYqq/+A5hX4dhWPFER9isgGK/06qiYvPoQh0kflqWrOWd2H8dCJGQBBIr
/LV+a3e/4NkXPQQ9rTlT1P4Qwnu8J1kFrNLeiV85dxzxkp7G0lDDead6bLhZx9v0
b2YKJxs4RU6ed4EHAePIHChwhHBVNaWYK4GRPUVoyN2tm1G9Ryyom9xFQhwB908z
rnLmB7RgIhhK8vK1r3QgZFjmvm3zNz9IuBjDKi8hkhMMcWD6CzK5KEXeJBQIatEZ
bwA/mVw9RGnjlavk5u39jHrLBG+OZkTgwyfBWPGgPQ5vUuECAwEAAaOBojCBnzAJ
BgNVHRMEAjAAMB0GA1UdDgQWBBQIQMGT6cNj+f4E9etrhHy7HALIAzBRBgNVHSME
SjBIgBRVjnOZ4IQEMhvaruQIj48hQw27rqEapBgwFjEUMBIGA1UEAwwLdGVhbTU5
Ny1uZXSCFEmbp4iLGVyzRPjrQBE2rgSO7zNwMBMGA1UdJQQMMAoGCCsGAQUFBwMC
MAsGA1UdDwQEAwIHgDANBgkqhkiG9w0BAQsFAAOCAQEAnE7ljOPEwixSTT8ibKFv
sg0mLtmuSJ++Dkevg7jRmHF96DxAeHP3qJiu3XIE/wMhvBMShoGBW0JljUweFKpu
gvia1EPSVvjBnb/4O4vSTVHsLA1MCCcTOTmwhT9C0hFjXtjbHcGJCMgh/vO3HXAs
yNYPCUKiSZBI6m5lXQkcw8DQTICAf7YXaVWL0IFBP6XIUZbulvwkphK6uh/3n8iV
LFf+rVwi4Dqak7HnKRvhBdgfNuYr0HPovBfdRFFYWpaDrWGzRJqp9KFfM8sq3eSr
HJLWZo36bCTIZplB3HVVMZ6AjC6JvWzNAz7pJqWtN0E6gbU1GIL3yqvFqgujioMF
Lw==
-----END CERTIFICATE-----
