Certificate:
    Data:
        Version: 3 (0x2)
        Serial Number:
            17:0e:6d:d3:fd:b0:b7:b3:38:24:50:30:3e:76:57:e5
        Signature Algorithm: sha256WithRSAEncryption
        Issuer: CN=team91-net
        Validity
            Not Before: Sep 12 23:30:27 2021 GMT
            Not After : Aug 27 23:30:27 2024 GMT
        Subject: CN=team91-server
        Subject Public Key Info:
            Public Key Algorithm: rsaEncryption
                RSA Public-Key: (2048 bit)
                Modulus:
                    00:e8:8a:8d:60:34:34:2d:db:7d:aa:41:ac:a6:ef:
                    a3:87:21:4b:d2:4e:3d:63:aa:4d:b8:14:af:5e:30:
                    5c:d6:cd:6d:0c:5e:cf:c5:16:11:88:ce:a0:ee:4b:
                    d5:1e:86:38:e8:b1:4a:d6:4c:f3:8f:dc:14:60:fa:
                    db:93:ed:6e:03:cf:31:1b:b4:1e:98:6a:cc:6a:ee:
                    1d:ae:5e:b7:75:31:fb:63:1f:3d:5b:9a:65:d2:9d:
                    92:aa:b4:8f:59:24:00:ed:1d:b4:f5:ba:26:a0:ac:
                    ee:b6:aa:55:f6:da:1a:77:46:65:1a:fb:ba:fb:39:
                    79:5a:d1:5f:aa:99:08:9f:17:b2:d8:85:0f:27:f4:
                    08:6b:eb:9e:18:e2:5d:ae:19:f9:d6:ac:28:cc:4f:
                    8d:c2:03:9e:17:2c:65:e1:f7:07:83:c8:5b:e5:32:
                    7f:1b:a3:8b:be:de:98:7c:2d:f9:cc:d8:58:e6:fb:
                    c7:56:0c:ff:61:ae:83:0a:41:3d:5f:8b:14:fa:94:
                    9b:37:57:2d:eb:46:99:7e:0b:77:00:5d:5d:59:ae:
                    e9:3a:5e:ee:69:0b:c2:9f:1c:95:c3:63:1b:94:a1:
                    6b:5f:38:81:c9:c8:12:2c:eb:5c:28:4b:12:43:15:
                    41:1e:d5:5d:4b:d2:e7:b9:8e:d9:78:a6:19:84:29:
                    10:07
                Exponent: 65537 (0x10001)
        X509v3 extensions:
            X509v3 Basic Constraints: 
                CA:FALSE
            X509v3 Subject Key Identifier: 
                8B:5E:DD:E8:15:2A:5A:46:95:03:34:5A:99:57:06:F7:68:6A:CB:8F
            X509v3 Authority Key Identifier: 
                keyid:65:E7:67:84:04:7C:50:F9:EC:74:AB:D9:38:D0:AE:F1:FA:03:14:13
                DirName:/CN=team91-net
                serial:57:27:D3:B9:09:05:7A:81:74:94:9E:C2:CE:63:EE:AE:3D:6F:21:3A

            X509v3 Extended Key Usage: 
                TLS Web Server Authentication
            X509v3 Key Usage: 
                Digital Signature, Key Encipherment
            X509v3 Subject Alternative Name: 
                DNS:team91-server
    Signature Algorithm: sha256WithRSAEncryption
         54:49:b9:15:29:69:c5:18:1c:72:1a:6d:ca:db:e4:7d:68:e4:
         20:f1:f4:75:89:f2:9f:ac:fc:11:d3:99:4b:ef:a6:8f:55:97:
         6b:5d:07:55:57:a9:5c:2b:8d:e7:02:80:fe:90:57:42:43:d8:
         e0:24:e1:3b:7e:8c:db:02:ef:1d:62:64:4a:36:d1:81:44:dd:
         98:ce:6a:3c:3c:86:8d:02:c9:51:f6:44:61:f5:5c:79:2c:3f:
         04:d1:f3:40:f1:b4:81:5c:e5:42:96:8a:08:98:40:92:34:a0:
         dc:df:32:c2:0d:7e:c7:fc:a1:6f:47:6f:a8:ef:94:3d:6e:ca:
         f8:06:2a:d9:85:71:b1:c4:7b:f9:d3:0a:5d:b6:74:e5:9a:a2:
         45:a9:89:88:86:14:71:ff:99:81:da:52:65:2d:36:e0:4f:f1:
         20:4a:ad:a3:e3:86:d9:20:97:8a:64:46:61:35:8c:49:1e:1f:
         da:29:9c:b4:86:e7:d4:a0:e3:5e:cd:7e:cd:5c:b9:b2:bc:ee:
         5f:9b:2b:c0:50:54:9d:0b:4e:76:8e:e6:6f:35:f9:69:53:67:
         40:2b:2d:f7:68:d5:ea:c8:8f:db:0f:b3:97:2d:e0:49:c8:2a:
         e6:a5:87:48:4c:26:9c:3b:a2:02:ed:08:cc:6f:a1:90:10:e7:
         d2:f4:f0:a0
-----BEGIN CERTIFICATE-----
MIIDczCCAlugAwIBAgIQFw5t0/2wt7M4JFAwPnZX5TANBgkqhkiG9w0BAQsFADAV
MRMwEQYDVQQDDAp0ZWFtOTEtbmV0MB4XDTIxMDkxMjIzMzAyN1oXDTI0MDgyNzIz
MzAyN1owGDEWMBQGA1UEAwwNdGVhbTkxLXNlcnZlcjCCASIwDQYJKoZIhvcNAQEB
BQADggEPADCCAQoCggEBAOiKjWA0NC3bfapBrKbvo4chS9JOPWOqTbgUr14wXNbN
bQxez8UWEYjOoO5L1R6GOOixStZM84/cFGD625PtbgPPMRu0HphqzGruHa5et3Ux
+2MfPVuaZdKdkqq0j1kkAO0dtPW6JqCs7raqVfbaGndGZRr7uvs5eVrRX6qZCJ8X
stiFDyf0CGvrnhjiXa4Z+dasKMxPjcIDnhcsZeH3B4PIW+Uyfxuji77emHwt+czY
WOb7x1YM/2GugwpBPV+LFPqUmzdXLetGmX4LdwBdXVmu6Tpe7mkLwp8clcNjG5Sh
a184gcnIEizrXChLEkMVQR7VXUvS57mO2XimGYQpEAcCAwEAAaOBuzCBuDAJBgNV
HRMEAjAAMB0GA1UdDgQWBBSLXt3oFSpaRpUDNFqZVwb3aGrLjzBQBgNVHSMESTBH
gBRl52eEBHxQ+ex0q9k40K7x+gMUE6EZpBcwFTETMBEGA1UEAwwKdGVhbTkxLW5l
dIIUVyfTuQkFeoF0lJ7CzmPurj1vITowEwYDVR0lBAwwCgYIKwYBBQUHAwEwCwYD
VR0PBAQDAgWgMBgGA1UdEQQRMA+CDXRlYW05MS1zZXJ2ZXIwDQYJKoZIhvcNAQEL
BQADggEBAFRJuRUpacUYHHIabcrb5H1o5CDx9HWJ8p+s/BHTmUvvpo9Vl2tdB1VX
qVwrjecCgP6QV0JD2OAk4Tt+jNsC7x1iZEo20YFE3ZjOajw8ho0CyVH2RGH1XHks
PwTR80DxtIFc5UKWigiYQJI0oNzfMsINfsf8oW9Hb6jvlD1uyvgGKtmFcbHEe/nT
Cl22dOWaokWpiYiGFHH/mYHaUmUtNuBP8SBKraPjhtkgl4pkRmE1jEkeH9opnLSG
59Sg417Nfs1cubK87l+bK8BQVJ0LTnaO5m81+WlTZ0ArLfdo1erIj9sPs5ct4EnI
Kualh0hMJpw7ogLtCMxvoZAQ59L08KA=
-----END CERTIFICATE-----
