Certificate:
    Data:
        Version: 3 (0x2)
        Serial Number:
            ab:9d:83:23:05:1f:97:85:e8:cd:85:bc:26:d9:cf:23
        Signature Algorithm: sha256WithRSAEncryption
        Issuer: CN=team752-net
        Validity
            Not Before: Sep 13 05:56:31 2021 GMT
            Not After : Aug 28 05:56:31 2024 GMT
        Subject: CN=team752-server
        Subject Public Key Info:
            Public Key Algorithm: rsaEncryption
                RSA Public-Key: (2048 bit)
                Modulus:
                    00:d4:72:56:1c:63:0e:80:e6:91:19:ad:54:99:6b:
                    38:dc:1b:52:21:cc:ab:cb:47:fc:ea:16:e0:f6:5a:
                    66:33:0a:cc:90:cb:99:a4:e3:d9:8c:cc:86:c2:58:
                    23:8e:55:1c:37:8a:f9:0c:19:77:9f:59:b3:27:55:
                    ef:f2:40:aa:2f:e7:07:85:df:d6:45:16:d6:8a:2c:
                    76:ec:e4:8e:ca:aa:2a:04:e0:27:43:a2:97:d0:a1:
                    f1:7d:f5:e6:5b:71:1d:71:1f:d6:36:d2:8d:23:00:
                    01:ef:09:43:39:0b:37:42:c9:70:58:33:28:af:a5:
                    74:3c:2a:82:2a:cb:0a:a0:2e:9c:80:43:ff:51:48:
                    d1:00:a9:31:e2:9d:11:f1:b7:3b:89:72:9a:11:89:
                    eb:39:c4:e1:f1:68:e6:47:7e:6e:4a:e2:2e:39:9d:
                    8a:f2:4e:ee:83:9f:50:d1:2f:09:b2:f7:dc:a2:95:
                    69:19:4b:d7:5a:9d:a2:2a:75:38:00:2b:66:3b:ce:
                    4a:5b:2b:f6:db:6e:2b:55:05:25:be:33:18:ac:71:
                    2a:0a:de:b1:d0:9f:04:a4:da:dc:2e:51:96:e2:79:
                    d2:c8:d4:9f:3a:92:39:67:65:c8:13:d4:79:7c:cd:
                    df:4f:7f:15:d2:b8:f7:4f:2c:c9:a8:d6:c1:8e:ec:
                    50:f5
                Exponent: 65537 (0x10001)
        X509v3 extensions:
            X509v3 Basic Constraints: 
                CA:FALSE
            X509v3 Subject Key Identifier: 
                9F:2B:49:5A:91:AA:84:C6:E4:C4:02:64:58:8D:DB:99:4F:D5:EB:8E
            X509v3 Authority Key Identifier: 
                keyid:E3:8D:FD:04:CB:D8:94:EE:AB:2A:1C:E3:29:E1:67:2B:BE:BD:0E:67
                DirName:/CN=team752-net
                serial:25:EE:83:A1:4A:8E:6F:95:EE:0C:1F:E6:AB:D3:E9:91:80:17:B2:AD

            X509v3 Extended Key Usage: 
                TLS Web Server Authentication
            X509v3 Key Usage: 
                Digital Signature, Key Encipherment
            X509v3 Subject Alternative Name: 
                DNS:team752-server
    Signature Algorithm: sha256WithRSAEncryption
         62:34:3d:db:6c:f6:25:cc:c4:1d:96:10:6d:71:7c:6e:3c:77:
         5f:7d:1a:9c:ed:6e:c4:7a:6b:60:cd:6b:82:9b:90:09:ec:cd:
         93:79:3b:8c:e4:45:48:23:f0:5c:a4:01:0d:d8:5d:c5:f2:48:
         c4:37:d7:34:08:4d:a9:cf:7b:15:2e:22:b0:79:55:c0:11:7b:
         1d:cb:bb:f6:06:47:5d:65:ab:a2:c1:83:27:2a:37:85:dd:50:
         a6:5c:7d:63:63:85:33:e0:c6:a2:d1:84:a2:fe:9e:89:a6:aa:
         47:25:c2:ed:53:9f:f6:a4:de:ce:f5:b0:9a:ef:1e:fd:0f:d8:
         df:0b:2e:12:67:e8:7e:40:b6:8c:77:70:be:45:fa:50:cb:83:
         d6:44:e7:a3:f3:42:a3:ec:1f:ff:ba:e5:db:16:f7:f1:dd:84:
         04:80:9f:35:68:dc:00:41:01:2d:d1:95:9c:76:aa:62:40:11:
         1a:eb:1f:ee:e6:de:3e:3c:6e:80:7f:69:06:11:c0:75:3b:71:
         33:44:76:e5:1e:9e:35:f1:37:58:5c:3d:b5:e4:34:51:a9:6b:
         30:ea:1d:89:72:84:0c:9d:43:7a:89:b8:ee:e9:ce:4d:10:0c:
         da:df:f8:b2:90:1c:86:51:c0:bc:31:8e:a5:fc:ad:23:68:c2:
         1e:ed:f6:66
-----BEGIN CERTIFICATE-----
MIIDeDCCAmCgAwIBAgIRAKudgyMFH5eF6M2FvCbZzyMwDQYJKoZIhvcNAQELBQAw
FjEUMBIGA1UEAwwLdGVhbTc1Mi1uZXQwHhcNMjEwOTEzMDU1NjMxWhcNMjQwODI4
MDU1NjMxWjAZMRcwFQYDVQQDDA50ZWFtNzUyLXNlcnZlcjCCASIwDQYJKoZIhvcN
AQEBBQADggEPADCCAQoCggEBANRyVhxjDoDmkRmtVJlrONwbUiHMq8tH/OoW4PZa
ZjMKzJDLmaTj2YzMhsJYI45VHDeK+QwZd59ZsydV7/JAqi/nB4Xf1kUW1oosduzk
jsqqKgTgJ0Oil9Ch8X315ltxHXEf1jbSjSMAAe8JQzkLN0LJcFgzKK+ldDwqgirL
CqAunIBD/1FI0QCpMeKdEfG3O4lymhGJ6znE4fFo5kd+bkriLjmdivJO7oOfUNEv
CbL33KKVaRlL11qdoip1OAArZjvOSlsr9ttuK1UFJb4zGKxxKgresdCfBKTa3C5R
luJ50sjUnzqSOWdlyBPUeXzN309/FdK4908syajWwY7sUPUCAwEAAaOBvTCBujAJ
BgNVHRMEAjAAMB0GA1UdDgQWBBSfK0lakaqExuTEAmRYjduZT9XrjjBRBgNVHSME
SjBIgBTjjf0Ey9iU7qsqHOMp4Wcrvr0OZ6EapBgwFjEUMBIGA1UEAwwLdGVhbTc1
Mi1uZXSCFCXug6FKjm+V7gwf5qvT6ZGAF7KtMBMGA1UdJQQMMAoGCCsGAQUFBwMB
MAsGA1UdDwQEAwIFoDAZBgNVHREEEjAQgg50ZWFtNzUyLXNlcnZlcjANBgkqhkiG
9w0BAQsFAAOCAQEAYjQ922z2JczEHZYQbXF8bjx3X30anO1uxHprYM1rgpuQCezN
k3k7jORFSCPwXKQBDdhdxfJIxDfXNAhNqc97FS4isHlVwBF7Hcu79gZHXWWrosGD
Jyo3hd1Qplx9Y2OFM+DGotGEov6eiaaqRyXC7VOf9qTezvWwmu8e/Q/Y3wsuEmfo
fkC2jHdwvkX6UMuD1kTno/NCo+wf/7rl2xb38d2EBICfNWjcAEEBLdGVnHaqYkAR
Gusf7ubePjxugH9pBhHAdTtxM0R25R6eNfE3WFw9teQ0UalrMOodiXKEDJ1Deom4
7unOTRAM2t/4spAchlHAvDGOpfytI2jCHu32Zg==
-----END CERTIFICATE-----
