Certificate:
    Data:
        Version: 3 (0x2)
        Serial Number:
            a1:c6:95:7e:f6:c9:64:47:cc:25:9a:5f:aa:50:c8:e4
        Signature Algorithm: sha256WithRSAEncryption
        Issuer: CN=team127-net
        Validity
            Not Before: Sep 12 23:50:30 2021 GMT
            Not After : Aug 27 23:50:30 2024 GMT
        Subject: CN=team127-client
        Subject Public Key Info:
            Public Key Algorithm: rsaEncryption
                RSA Public-Key: (2048 bit)
                Modulus:
                    00:9e:d3:69:03:ea:68:d2:9c:f4:07:de:32:8e:90:
                    28:c9:a6:e3:bf:e5:62:81:1e:16:3a:d1:34:b4:20:
                    d2:27:f0:dc:94:5a:41:57:ca:0e:dc:d4:ed:14:65:
                    91:26:f0:d3:ba:80:f1:1d:b5:c7:72:91:d7:3a:68:
                    e1:e9:60:2c:81:58:dc:26:ff:8d:43:06:70:77:d4:
                    07:b0:72:a5:d6:50:a5:a7:2e:17:f3:7d:7a:be:88:
                    04:fb:bd:a2:e8:f3:99:6a:b5:07:7f:ad:82:41:ce:
                    2d:c0:47:8c:56:e2:74:e3:12:65:48:d2:30:1d:db:
                    e2:e4:aa:99:d7:be:ae:ca:f1:cb:ba:89:ab:41:e2:
                    36:79:d8:3b:57:40:70:56:76:89:de:72:0d:d4:5c:
                    60:c3:9f:ae:a5:c4:c5:46:c6:4d:fa:53:01:13:dc:
                    ee:30:3a:fb:5a:5d:15:ae:4f:62:56:52:a0:ec:39:
                    f2:35:38:14:28:86:81:a5:52:bb:7b:a0:71:5e:3e:
                    98:20:18:9d:4d:bb:66:87:b7:3c:3b:34:93:4c:dd:
                    33:f6:aa:ff:42:89:54:65:65:9d:04:8d:c7:b2:88:
                    f2:05:84:87:d9:f6:6b:fd:48:40:8d:b6:e1:37:e0:
                    6a:af:ea:d2:b6:72:cf:bd:70:72:80:a2:61:ad:6f:
                    3c:55
                Exponent: 65537 (0x10001)
        X509v3 extensions:
            X509v3 Basic Constraints: 
                CA:FALSE
            X509v3 Subject Key Identifier: 
                38:F1:AC:C0:F2:81:E9:4A:44:44:B0:A6:28:9C:CE:15:C1:61:A8:EB
            X509v3 Authority Key Identifier: 
                keyid:04:44:FD:AC:AB:8D:D6:48:98:01:70:ED:96:25:60:38:58:58:B7:54
                DirName:/CN=team127-net
                serial:49:B2:B3:FF:99:E0:23:15:D1:5E:37:81:CA:E4:95:91:8B:23:32:A2

            X509v3 Extended Key Usage: 
                TLS Web Client Authentication
            X509v3 Key Usage: 
                Digital Signature
    Signature Algorithm: sha256WithRSAEncryption
         ac:67:0e:52:6d:79:c9:48:8c:c6:ab:cf:15:32:81:f7:a7:61:
         27:1b:a4:1f:c1:65:24:73:c1:b6:1e:20:ab:44:5d:81:52:40:
         11:6b:52:c8:8e:5c:6f:32:02:be:ea:e2:3e:ef:8a:76:1a:f8:
         c0:79:74:1e:81:90:96:5b:47:e7:b6:9f:6a:f6:46:09:e7:bd:
         eb:e5:c3:68:10:9a:71:af:0e:55:b8:fc:e3:da:10:5f:8d:28:
         4f:2c:ce:24:bb:ee:e6:1e:7c:a0:ec:f6:de:a4:8b:69:b5:59:
         1a:c1:41:d4:1c:17:a9:ec:b0:2a:7c:4b:6f:66:2e:be:f2:54:
         1a:02:6a:70:e6:f5:6a:82:45:5c:ea:f3:ee:93:d2:3a:52:7d:
         f8:82:d2:7a:c8:bf:ad:cc:02:72:d5:d3:01:20:f5:7f:7a:4f:
         ad:8e:ee:70:54:65:e8:39:cc:da:06:c7:42:b3:85:e6:63:14:
         f5:e7:20:2d:0c:6a:ed:80:4f:62:a9:2b:65:37:6b:87:ac:49:
         c1:45:9c:00:cf:8e:78:21:0e:41:12:ef:48:50:09:f7:00:70:
         4a:f7:aa:22:0e:0c:fd:ab:0a:b2:d3:66:d6:0d:99:f4:ac:1a:
         a8:80:d4:f8:63:23:70:b3:70:a0:29:56:a1:d3:a5:20:2f:e2:
         3d:32:fc:45
-----BEGIN CERTIFICATE-----
MIIDXTCCAkWgAwIBAgIRAKHGlX72yWRHzCWaX6pQyOQwDQYJKoZIhvcNAQELBQAw
FjEUMBIGA1UEAwwLdGVhbTEyNy1uZXQwHhcNMjEwOTEyMjM1MDMwWhcNMjQwODI3
MjM1MDMwWjAZMRcwFQYDVQQDDA50ZWFtMTI3LWNsaWVudDCCASIwDQYJKoZIhvcN
AQEBBQADggEPADCCAQoCggEBAJ7TaQPqaNKc9AfeMo6QKMmm47/lYoEeFjrRNLQg
0ifw3JRaQVfKDtzU7RRlkSbw07qA8R21x3KR1zpo4elgLIFY3Cb/jUMGcHfUB7By
pdZQpacuF/N9er6IBPu9oujzmWq1B3+tgkHOLcBHjFbidOMSZUjSMB3b4uSqmde+
rsrxy7qJq0HiNnnYO1dAcFZ2id5yDdRcYMOfrqXExUbGTfpTARPc7jA6+1pdFa5P
YlZSoOw58jU4FCiGgaVSu3ugcV4+mCAYnU27Zoe3PDs0k0zdM/aq/0KJVGVlnQSN
x7KI8gWEh9n2a/1IQI224Tfgaq/q0rZyz71wcoCiYa1vPFUCAwEAAaOBojCBnzAJ
BgNVHRMEAjAAMB0GA1UdDgQWBBQ48azA8oHpSkREsKYonM4VwWGo6zBRBgNVHSME
SjBIgBQERP2sq43WSJgBcO2WJWA4WFi3VKEapBgwFjEUMBIGA1UEAwwLdGVhbTEy
Ny1uZXSCFEmys/+Z4CMV0V43gcrklZGLIzKiMBMGA1UdJQQMMAoGCCsGAQUFBwMC
MAsGA1UdDwQEAwIHgDANBgkqhkiG9w0BAQsFAAOCAQEArGcOUm15yUiMxqvPFTKB
96dhJxukH8FlJHPBth4gq0RdgVJAEWtSyI5cbzICvuriPu+Kdhr4wHl0HoGQlltH
57afavZGCee96+XDaBCaca8OVbj849oQX40oTyzOJLvu5h58oOz23qSLabVZGsFB
1BwXqeywKnxLb2YuvvJUGgJqcOb1aoJFXOrz7pPSOlJ9+ILSesi/rcwCctXTASD1
f3pPrY7ucFRl6DnM2gbHQrOF5mMU9ecgLQxq7YBPYqkrZTdrh6xJwUWcAM+OeCEO
QRLvSFAJ9wBwSveqIg4M/asKstNm1g2Z9KwaqIDU+GMjcLNwoClWodOlIC/iPTL8
RQ==
-----END CERTIFICATE-----
