Certificate:
    Data:
        Version: 3 (0x2)
        Serial Number:
            6d:62:f8:b2:43:44:cd:ff:65:16:ef:3a:a2:dc:ed:d9
        Signature Algorithm: sha256WithRSAEncryption
        Issuer: CN=team239-net
        Validity
            Not Before: Sep 13 00:45:09 2021 GMT
            Not After : Aug 28 00:45:09 2024 GMT
        Subject: CN=team239-server
        Subject Public Key Info:
            Public Key Algorithm: rsaEncryption
                RSA Public-Key: (2048 bit)
                Modulus:
                    00:d9:c8:70:91:98:aa:99:6e:ce:14:bc:5d:c8:dc:
                    0b:7f:86:2e:29:94:9e:6e:ea:0b:82:e3:90:81:8e:
                    bc:03:fe:b3:cd:90:0d:d8:38:e5:d9:d9:aa:aa:73:
                    ee:b9:1b:87:ea:9f:4d:c5:e0:95:62:17:81:11:6a:
                    bd:66:65:ee:bf:b9:57:32:e5:04:f3:0c:bb:84:24:
                    85:83:f9:a9:0d:43:6a:e3:5f:00:91:ae:e3:b1:07:
                    4d:17:ec:6d:c5:7a:34:f9:42:f6:ff:21:f2:fe:17:
                    27:0e:ba:25:b8:dd:b4:2e:e6:46:44:f8:88:7d:11:
                    91:31:87:df:a8:bc:2d:8a:ae:e9:5b:50:36:31:d9:
                    86:8f:2d:77:73:23:fd:cb:8e:96:f0:7c:e0:04:dd:
                    d4:35:56:d6:55:ab:17:83:e0:e3:ba:32:99:bd:7e:
                    ef:db:19:4b:dd:bf:b5:e0:79:7a:b1:2c:95:03:2a:
                    cb:00:c3:96:c8:a8:ca:48:bc:56:7d:1d:e4:86:7c:
                    02:43:10:43:2d:03:d2:d0:79:13:b5:ce:48:09:af:
                    c8:f0:0c:85:12:81:ac:f6:e8:d2:3d:27:d8:a4:a9:
                    b6:87:dd:46:5c:28:16:c2:e1:eb:8d:04:f4:30:e5:
                    4c:3a:5e:e3:b8:77:59:b9:ac:d0:0b:bf:8a:8c:cb:
                    5a:17
                Exponent: 65537 (0x10001)
        X509v3 extensions:
            X509v3 Basic Constraints: 
                CA:FALSE
            X509v3 Subject Key Identifier: 
                72:25:60:9E:3C:20:5D:56:CA:22:83:79:B5:25:CC:D0:1B:99:99:C6
            X509v3 Authority Key Identifier: 
                keyid:22:57:36:1B:FF:92:F3:32:F5:35:9C:9C:BC:87:6D:B7:95:E3:C6:EC
                DirName:/CN=team239-net
                serial:71:17:F0:30:24:64:6F:29:22:64:56:B9:2A:E0:C5:AD:E8:CA:F2:69

            X509v3 Extended Key Usage: 
                TLS Web Server Authentication
            X509v3 Key Usage: 
                Digital Signature, Key Encipherment
            X509v3 Subject Alternative Name: 
                DNS:team239-server
    Signature Algorithm: sha256WithRSAEncryption
         b1:8d:02:96:d5:1a:20:e1:be:75:f7:c7:19:f2:d3:2f:78:dc:
         63:c4:c9:da:1a:1f:3b:05:88:10:68:a2:60:bf:d2:01:fc:08:
         b3:1f:75:3d:b1:f7:47:aa:35:4c:b6:9c:63:61:7a:97:8c:be:
         cc:c3:81:72:90:2f:25:24:04:33:5b:f3:7a:de:a8:ca:31:34:
         cb:3e:7f:83:5b:5d:f5:18:9a:2c:52:5f:3a:2b:40:bf:a5:b3:
         f0:45:85:89:59:3c:5d:61:ea:07:1f:92:d3:72:eb:f1:72:63:
         8c:c0:54:4f:ab:af:8c:d8:e0:44:88:96:09:6a:1d:af:7d:40:
         72:fd:e1:3f:30:1d:cb:0b:c6:72:e4:fe:f0:8c:6d:20:7d:ee:
         ca:fb:7a:c4:2d:10:20:34:16:77:dc:8b:28:a7:5c:15:e4:14:
         60:93:e4:2a:99:12:3a:9b:9e:53:5b:77:b5:13:91:97:bd:af:
         c7:9d:aa:58:63:2b:d5:1c:f4:b1:7d:14:28:70:7d:1c:a0:95:
         b9:52:28:f6:43:dd:d2:cc:22:64:c6:b6:d6:a9:30:a7:7f:00:
         ad:af:51:6a:7c:22:6c:d3:6e:df:ac:cb:d0:17:1f:6f:da:0e:
         77:47:a4:cd:41:65:01:68:70:43:c7:60:ac:d2:33:b3:62:e8:
         56:30:fd:89
-----BEGIN CERTIFICATE-----
MIIDdzCCAl+gAwIBAgIQbWL4skNEzf9lFu86otzt2TANBgkqhkiG9w0BAQsFADAW
MRQwEgYDVQQDDAt0ZWFtMjM5LW5ldDAeFw0yMTA5MTMwMDQ1MDlaFw0yNDA4Mjgw
MDQ1MDlaMBkxFzAVBgNVBAMMDnRlYW0yMzktc2VydmVyMIIBIjANBgkqhkiG9w0B
AQEFAAOCAQ8AMIIBCgKCAQEA2chwkZiqmW7OFLxdyNwLf4YuKZSebuoLguOQgY68
A/6zzZAN2Djl2dmqqnPuuRuH6p9NxeCVYheBEWq9ZmXuv7lXMuUE8wy7hCSFg/mp
DUNq418Aka7jsQdNF+xtxXo0+UL2/yHy/hcnDroluN20LuZGRPiIfRGRMYffqLwt
iq7pW1A2MdmGjy13cyP9y46W8HzgBN3UNVbWVasXg+DjujKZvX7v2xlL3b+14Hl6
sSyVAyrLAMOWyKjKSLxWfR3khnwCQxBDLQPS0HkTtc5ICa/I8AyFEoGs9ujSPSfY
pKm2h91GXCgWwuHrjQT0MOVMOl7juHdZuazQC7+KjMtaFwIDAQABo4G9MIG6MAkG
A1UdEwQCMAAwHQYDVR0OBBYEFHIlYJ48IF1WyiKDebUlzNAbmZnGMFEGA1UdIwRK
MEiAFCJXNhv/kvMy9TWcnLyHbbeV48bsoRqkGDAWMRQwEgYDVQQDDAt0ZWFtMjM5
LW5ldIIUcRfwMCRkbykiZFa5KuDFrejK8mkwEwYDVR0lBAwwCgYIKwYBBQUHAwEw
CwYDVR0PBAQDAgWgMBkGA1UdEQQSMBCCDnRlYW0yMzktc2VydmVyMA0GCSqGSIb3
DQEBCwUAA4IBAQCxjQKW1Rog4b5198cZ8tMveNxjxMnaGh87BYgQaKJgv9IB/Aiz
H3U9sfdHqjVMtpxjYXqXjL7Mw4FykC8lJAQzW/N63qjKMTTLPn+DW131GJosUl86
K0C/pbPwRYWJWTxdYeoHH5LTcuvxcmOMwFRPq6+M2OBEiJYJah2vfUBy/eE/MB3L
C8Zy5P7wjG0gfe7K+3rELRAgNBZ33Isop1wV5BRgk+QqmRI6m55TW3e1E5GXva/H
napYYyvVHPSxfRQocH0coJW5Uij2Q93SzCJkxrbWqTCnfwCtr1FqfCJs027frMvQ
Fx9v2g53R6TNQWUBaHBDx2Cs0jOzYuhWMP2J
-----END CERTIFICATE-----
