Certificate:
    Data:
        Version: 3 (0x2)
        Serial Number:
            41:3b:97:d6:94:4a:8b:4d:ba:29:94:ce:70:42:f8:f8
        Signature Algorithm: sha256WithRSAEncryption
        Issuer: CN=team730-net
        Validity
            Not Before: Sep 13 05:02:23 2021 GMT
            Not After : Aug 28 05:02:23 2024 GMT
        Subject: CN=team730-server
        Subject Public Key Info:
            Public Key Algorithm: rsaEncryption
                RSA Public-Key: (2048 bit)
                Modulus:
                    00:cf:8f:94:1a:25:5b:8d:f5:77:75:45:ac:74:bb:
                    0b:6a:0f:5d:02:6b:2a:33:ad:e4:f0:8e:44:60:61:
                    3e:81:0f:d1:6a:13:db:a0:cc:98:42:a6:e0:aa:fa:
                    bf:11:09:4d:5b:fa:dc:32:67:9e:d4:1f:9b:85:8e:
                    ae:38:94:28:8f:a8:f2:8a:0d:e9:63:9b:ff:e6:e0:
                    9a:11:fa:8f:e0:ff:f3:7f:31:7c:ca:d9:ef:b9:7b:
                    ef:61:1d:1a:f9:f5:3d:9d:c7:dc:df:a9:34:d4:45:
                    f3:f8:bd:bd:e7:25:c6:87:7f:49:b6:4b:03:8a:af:
                    2d:4d:f7:8b:73:6f:38:9f:d3:77:17:ee:fd:56:e4:
                    39:34:1a:b0:20:4e:f9:b3:0c:af:70:99:5c:2e:a9:
                    13:89:0b:41:11:e0:0c:fe:89:4e:2d:6c:11:9e:2f:
                    b4:7f:2f:a6:6b:62:90:a6:05:fe:6d:bb:ad:12:3b:
                    f6:bf:f0:a5:6d:16:0c:e0:d1:59:67:40:cf:37:83:
                    a1:00:58:40:49:29:1b:94:0a:78:b7:82:5a:3e:37:
                    66:1f:dc:48:08:aa:ea:cc:04:82:af:d6:f1:54:e3:
                    52:bd:33:f6:3d:6b:51:ac:4c:a4:dd:07:17:51:9b:
                    76:ea:e1:71:68:94:78:60:b5:bc:6b:12:86:fd:0b:
                    34:97
                Exponent: 65537 (0x10001)
        X509v3 extensions:
            X509v3 Basic Constraints: 
                CA:FALSE
            X509v3 Subject Key Identifier: 
                62:BD:E4:AA:1E:46:BA:D3:83:3E:A1:CA:D0:B9:C1:C9:9D:3F:CE:B2
            X509v3 Authority Key Identifier: 
                keyid:1D:6C:FE:F1:B2:8C:77:66:C7:8B:44:15:FF:53:64:9A:93:28:9D:E6
                DirName:/CN=team730-net
                serial:02:EF:A4:F6:5D:AF:B1:D5:DE:74:C2:B8:D7:4A:FD:F8:47:29:AA:E8

            X509v3 Extended Key Usage: 
                TLS Web Server Authentication
            X509v3 Key Usage: 
                Digital Signature, Key Encipherment
            X509v3 Subject Alternative Name: 
                DNS:team730-server
    Signature Algorithm: sha256WithRSAEncryption
         42:fc:26:c7:43:df:1c:81:db:60:a6:89:71:d8:7f:86:3e:c6:
         91:9d:68:7f:e4:77:b7:b4:f5:1f:d3:e1:90:85:0f:ed:7b:1a:
         af:6d:16:54:f9:70:a0:16:32:77:f3:f7:ce:72:4b:63:e3:d5:
         17:ed:24:43:62:e0:3f:da:bf:64:af:b5:c6:86:2f:2c:ad:41:
         dc:cb:c8:45:04:7b:e1:ca:46:9b:92:a2:15:3e:f2:bb:1c:de:
         95:17:9b:0c:4b:2e:14:38:92:7e:be:96:04:13:d7:f4:39:9c:
         e1:86:ad:34:e2:7c:e7:34:b7:0d:42:d8:70:c5:57:1b:59:8e:
         35:22:fa:27:30:57:0b:cb:b9:e9:fd:5c:2b:0b:da:10:f9:47:
         08:6a:ef:77:94:4d:b5:21:95:d4:4f:87:a5:9d:dd:95:08:43:
         f0:cd:8b:3c:f2:4d:fe:28:79:fc:4a:ee:81:c9:17:d7:ba:bb:
         f3:b1:39:c6:0b:61:8d:03:d0:f9:81:de:aa:e3:bd:61:c6:6b:
         ab:28:da:61:a3:12:d3:30:78:7a:a1:4a:94:30:23:c7:46:ea:
         8a:22:ab:e8:24:11:b7:37:b1:a0:63:d0:80:b8:99:d4:36:44:
         bf:a1:1f:6b:71:a1:e7:b7:a3:dd:c2:e4:eb:24:2c:47:e7:e4:
         33:17:27:51
-----BEGIN CERTIFICATE-----
MIIDdzCCAl+gAwIBAgIQQTuX1pRKi026KZTOcEL4+DANBgkqhkiG9w0BAQsFADAW
MRQwEgYDVQQDDAt0ZWFtNzMwLW5ldDAeFw0yMTA5MTMwNTAyMjNaFw0yNDA4Mjgw
NTAyMjNaMBkxFzAVBgNVBAMMDnRlYW03MzAtc2VydmVyMIIBIjANBgkqhkiG9w0B
AQEFAAOCAQ8AMIIBCgKCAQEAz4+UGiVbjfV3dUWsdLsLag9dAmsqM63k8I5EYGE+
gQ/RahPboMyYQqbgqvq/EQlNW/rcMmee1B+bhY6uOJQoj6jyig3pY5v/5uCaEfqP
4P/zfzF8ytnvuXvvYR0a+fU9ncfc36k01EXz+L295yXGh39JtksDiq8tTfeLc284
n9N3F+79VuQ5NBqwIE75swyvcJlcLqkTiQtBEeAM/olOLWwRni+0fy+ma2KQpgX+
bbutEjv2v/ClbRYM4NFZZ0DPN4OhAFhASSkblAp4t4JaPjdmH9xICKrqzASCr9bx
VONSvTP2PWtRrEyk3QcXUZt26uFxaJR4YLW8axKG/Qs0lwIDAQABo4G9MIG6MAkG
A1UdEwQCMAAwHQYDVR0OBBYEFGK95KoeRrrTgz6hytC5wcmdP86yMFEGA1UdIwRK
MEiAFB1s/vGyjHdmx4tEFf9TZJqTKJ3moRqkGDAWMRQwEgYDVQQDDAt0ZWFtNzMw
LW5ldIIUAu+k9l2vsdXedMK410r9+EcpqugwEwYDVR0lBAwwCgYIKwYBBQUHAwEw
CwYDVR0PBAQDAgWgMBkGA1UdEQQSMBCCDnRlYW03MzAtc2VydmVyMA0GCSqGSIb3
DQEBCwUAA4IBAQBC/CbHQ98cgdtgpolx2H+GPsaRnWh/5He3tPUf0+GQhQ/texqv
bRZU+XCgFjJ38/fOcktj49UX7SRDYuA/2r9kr7XGhi8srUHcy8hFBHvhykabkqIV
PvK7HN6VF5sMSy4UOJJ+vpYEE9f0OZzhhq004nznNLcNQthwxVcbWY41IvonMFcL
y7np/VwrC9oQ+UcIau93lE21IZXUT4elnd2VCEPwzYs88k3+KHn8Su6ByRfXurvz
sTnGC2GNA9D5gd6q471hxmurKNphoxLTMHh6oUqUMCPHRuqKIqvoJBG3N7GgY9CA
uJnUNkS/oR9rcaHnt6PdwuTrJCxH5+QzFydR
-----END CERTIFICATE-----
