Certificate:
    Data:
        Version: 3 (0x2)
        Serial Number:
            a3:3d:85:de:79:91:e6:f8:83:4b:0d:ac:87:6b:1f:27
        Signature Algorithm: sha256WithRSAEncryption
        Issuer: CN=team730-net
        Validity
            Not Before: Sep 13 05:02:23 2021 GMT
            Not After : Aug 28 05:02:23 2024 GMT
        Subject: CN=team730-client
        Subject Public Key Info:
            Public Key Algorithm: rsaEncryption
                RSA Public-Key: (2048 bit)
                Modulus:
                    00:b2:67:ea:37:c8:25:5f:3f:3a:77:65:28:f0:b7:
                    5e:09:73:8e:21:17:af:24:fc:66:49:83:af:ee:ac:
                    20:38:88:e7:c3:d8:ff:87:1d:6d:fe:1d:53:a4:9f:
                    32:a4:21:4b:b0:05:5a:f4:47:69:fc:8f:83:d7:78:
                    51:9a:17:13:c7:0b:91:e3:1b:31:f1:4e:81:69:48:
                    ef:81:6b:09:54:c6:42:7a:36:b2:83:64:b0:59:66:
                    76:22:a7:91:44:fe:c5:15:c6:61:35:ad:cc:fc:a1:
                    40:6d:d8:96:92:aa:dc:1b:0a:21:ae:4e:ed:23:53:
                    46:c0:3a:a3:57:1f:82:75:d2:eb:1d:76:00:ea:79:
                    6b:f6:1a:94:32:4a:4d:a3:e9:a2:88:6f:9c:e2:a4:
                    8b:8e:30:21:4d:d5:44:d7:8e:65:0e:92:38:e9:16:
                    68:d3:d1:3b:05:8a:f3:3a:f9:53:ce:d8:cf:a0:9a:
                    a3:45:f4:0c:99:c9:a7:3f:e6:4b:6b:1c:0c:20:d3:
                    2d:fe:ef:56:39:c0:ea:18:64:f8:0a:7a:88:ea:14:
                    9e:08:94:fa:e6:ca:df:4f:9d:88:91:6c:f8:0c:cf:
                    af:c2:c2:4d:6f:7c:e3:aa:af:fa:e5:bf:c7:6b:38:
                    f1:a1:14:a3:a5:39:9c:91:cf:2c:f5:35:9e:9d:82:
                    34:85
                Exponent: 65537 (0x10001)
        X509v3 extensions:
            X509v3 Basic Constraints: 
                CA:FALSE
            X509v3 Subject Key Identifier: 
                F9:CE:C0:4F:E1:E7:9B:6E:28:D1:18:7E:9D:29:23:7D:94:8D:7D:91
            X509v3 Authority Key Identifier: 
                keyid:1D:6C:FE:F1:B2:8C:77:66:C7:8B:44:15:FF:53:64:9A:93:28:9D:E6
                DirName:/CN=team730-net
                serial:02:EF:A4:F6:5D:AF:B1:D5:DE:74:C2:B8:D7:4A:FD:F8:47:29:AA:E8

            X509v3 Extended Key Usage: 
                TLS Web Client Authentication
            X509v3 Key Usage: 
                Digital Signature
    Signature Algorithm: sha256WithRSAEncryption
         22:e5:b2:c4:3d:7c:43:51:6b:cc:fd:05:a4:80:7f:34:8d:96:
         9f:4b:da:00:be:48:56:4f:78:4f:8a:04:d4:92:c7:ac:ab:39:
         2b:25:df:49:d3:65:6d:92:56:a0:9d:0a:67:fa:8d:0d:30:3b:
         0c:21:51:f2:d6:a1:be:bf:bb:16:42:77:9a:43:6b:17:5f:d1:
         f6:6e:eb:01:1a:ca:53:4f:a2:34:7d:33:5e:11:cc:07:0f:ea:
         77:61:8e:f8:c5:c7:83:ef:e1:79:23:00:37:ff:db:e5:e4:6f:
         f5:ea:c3:36:45:2a:4e:e7:28:83:0c:37:c8:49:5d:ea:bf:c4:
         93:01:f2:06:7e:fc:8d:6f:0d:ce:58:31:38:5a:ea:87:32:d8:
         5e:6e:d6:30:6f:db:bf:53:c4:b3:25:b3:88:22:61:3e:b7:0a:
         de:ab:21:e2:5c:60:36:99:40:7b:eb:d0:bb:31:5a:da:67:36:
         9b:b1:7d:06:51:a0:9a:d3:8a:55:63:8d:d3:55:72:e6:3e:41:
         ba:7f:c9:89:57:ed:6e:e0:17:58:02:7c:e4:72:7c:c1:98:00:
         72:51:67:8c:21:82:2b:70:35:f1:90:d4:af:09:df:e1:f9:98:
         11:0c:f0:2d:95:94:2f:ae:77:7c:66:2a:e1:aa:60:bd:ce:2a:
         dc:a5:ae:0d
-----BEGIN CERTIFICATE-----
MIIDXTCCAkWgAwIBAgIRAKM9hd55keb4g0sNrIdrHycwDQYJKoZIhvcNAQELBQAw
FjEUMBIGA1UEAwwLdGVhbTczMC1uZXQwHhcNMjEwOTEzMDUwMjIzWhcNMjQwODI4
MDUwMjIzWjAZMRcwFQYDVQQDDA50ZWFtNzMwLWNsaWVudDCCASIwDQYJKoZIhvcN
AQEBBQADggEPADCCAQoCggEBALJn6jfIJV8/OndlKPC3XglzjiEXryT8ZkmDr+6s
IDiI58PY/4cdbf4dU6SfMqQhS7AFWvRHafyPg9d4UZoXE8cLkeMbMfFOgWlI74Fr
CVTGQno2soNksFlmdiKnkUT+xRXGYTWtzPyhQG3YlpKq3BsKIa5O7SNTRsA6o1cf
gnXS6x12AOp5a/YalDJKTaPpoohvnOKki44wIU3VRNeOZQ6SOOkWaNPROwWK8zr5
U87Yz6Cao0X0DJnJpz/mS2scDCDTLf7vVjnA6hhk+Ap6iOoUngiU+ubK30+diJFs
+AzPr8LCTW9846qv+uW/x2s48aEUo6U5nJHPLPU1np2CNIUCAwEAAaOBojCBnzAJ
BgNVHRMEAjAAMB0GA1UdDgQWBBT5zsBP4eebbijRGH6dKSN9lI19kTBRBgNVHSME
SjBIgBQdbP7xsox3ZseLRBX/U2Sakyid5qEapBgwFjEUMBIGA1UEAwwLdGVhbTcz
MC1uZXSCFALvpPZdr7HV3nTCuNdK/fhHKaroMBMGA1UdJQQMMAoGCCsGAQUFBwMC
MAsGA1UdDwQEAwIHgDANBgkqhkiG9w0BAQsFAAOCAQEAIuWyxD18Q1FrzP0FpIB/
NI2Wn0vaAL5IVk94T4oE1JLHrKs5KyXfSdNlbZJWoJ0KZ/qNDTA7DCFR8tahvr+7
FkJ3mkNrF1/R9m7rARrKU0+iNH0zXhHMBw/qd2GO+MXHg+/heSMAN//b5eRv9erD
NkUqTucogww3yEld6r/EkwHyBn78jW8NzlgxOFrqhzLYXm7WMG/bv1PEsyWziCJh
PrcK3qsh4lxgNplAe+vQuzFa2mc2m7F9BlGgmtOKVWON01Vy5j5Bun/JiVftbuAX
WAJ85HJ8wZgAclFnjCGCK3A18ZDUrwnf4fmYEQzwLZWUL653fGYq4apgvc4q3KWu
DQ==
-----END CERTIFICATE-----
