Certificate:
    Data:
        Version: 3 (0x2)
        Serial Number:
            e6:d9:9a:0a:d6:af:fa:e3:67:e6:58:1a:a7:20:22:bf
        Signature Algorithm: sha256WithRSAEncryption
        Issuer: CN=team638-net
        Validity
            Not Before: Sep 13 04:18:17 2021 GMT
            Not After : Aug 28 04:18:17 2024 GMT
        Subject: CN=team638-server
        Subject Public Key Info:
            Public Key Algorithm: rsaEncryption
                RSA Public-Key: (2048 bit)
                Modulus:
                    00:c0:1b:37:18:3a:2f:97:5d:8f:db:b5:1f:83:80:
                    3b:7f:30:e1:9b:59:52:0c:4c:f8:2b:9a:25:bd:30:
                    4b:82:74:7a:ed:f2:19:aa:53:d2:aa:89:d9:cb:f7:
                    af:4d:42:55:64:35:12:c7:c9:6b:cd:bb:26:fa:6b:
                    14:d4:84:69:4a:91:1a:cc:79:f5:8c:32:3a:eb:e1:
                    f3:7e:73:52:af:8f:12:84:bc:55:b3:be:14:d4:44:
                    d5:c4:ad:8b:b4:a1:ac:02:4c:6e:1e:92:59:3b:f6:
                    6f:e2:79:39:f3:3f:7d:0c:f9:cd:99:c4:5f:46:71:
                    8a:ac:6a:bc:bb:3d:4c:43:36:52:ff:40:d0:05:2a:
                    5a:e8:07:33:3f:87:64:7e:15:f4:13:6e:c4:cc:8c:
                    24:57:0f:89:37:9a:6b:00:c4:dd:42:15:40:18:3b:
                    cc:03:c4:90:59:20:04:78:14:15:52:70:f2:87:11:
                    9e:74:fd:0c:51:16:8b:af:3e:85:a1:12:38:98:85:
                    b6:4e:74:f2:7e:71:96:79:21:5e:59:04:b4:1a:9f:
                    f3:0c:7b:b7:c1:fc:f4:93:f2:56:53:8e:dc:05:a1:
                    c3:aa:18:d9:b4:92:5a:c9:8a:9f:d4:6d:2d:34:a2:
                    92:7a:d2:e2:91:3b:13:97:4e:e7:e1:1a:dc:b3:f6:
                    5d:45
                Exponent: 65537 (0x10001)
        X509v3 extensions:
            X509v3 Basic Constraints: 
                CA:FALSE
            X509v3 Subject Key Identifier: 
                A8:68:82:F5:1C:66:C4:B5:B3:47:40:AE:BA:CA:67:04:89:14:9B:72
            X509v3 Authority Key Identifier: 
                keyid:C1:02:C8:7C:A2:3D:3A:DD:B7:F0:97:F9:74:75:6C:3F:AB:F9:E6:2F
                DirName:/CN=team638-net
                serial:1C:FA:A5:15:A2:3D:ED:5E:F0:02:5F:39:B1:0A:67:6F:F5:9C:E6:F4

            X509v3 Extended Key Usage: 
                TLS Web Server Authentication
            X509v3 Key Usage: 
                Digital Signature, Key Encipherment
            X509v3 Subject Alternative Name: 
                DNS:team638-server
    Signature Algorithm: sha256WithRSAEncryption
         0a:25:13:e9:26:57:e3:9b:9d:9e:11:8c:3a:19:ee:12:10:25:
         df:60:4f:57:cb:54:fb:07:c4:82:d9:95:eb:33:5e:b9:d9:3a:
         ab:86:a1:3f:3f:71:53:17:9c:22:5d:4a:28:bc:fd:c9:ba:55:
         e6:d5:5e:fc:bd:c2:42:4b:de:a5:93:fb:8d:9a:26:87:0c:46:
         de:e9:57:d9:76:d2:fc:22:52:e1:a4:aa:93:e7:54:10:c0:d4:
         b9:2a:24:d0:a0:89:4e:8a:c1:d4:b1:c0:13:52:7b:49:a7:c3:
         39:c2:48:a9:7b:88:e3:aa:0c:e5:8f:f8:95:1a:c9:2b:0e:aa:
         a8:db:fa:57:99:53:a4:2c:5d:4e:98:7c:e6:b4:8e:be:57:b5:
         0f:17:27:5b:b0:f0:34:27:b5:3d:ea:eb:97:37:0d:2d:70:9f:
         95:fb:ac:de:90:bf:ac:12:a2:04:88:74:e9:ca:83:0f:7f:56:
         fc:90:08:6e:37:50:65:a0:57:c1:9b:84:55:e2:75:bb:11:4f:
         44:42:1c:52:36:9d:bf:61:36:b1:40:38:99:b6:20:bb:8a:d7:
         0f:bb:e4:8f:61:9c:90:da:7c:c4:32:18:b1:28:fc:d2:6b:56:
         16:c5:a8:c3:7e:48:ed:3b:69:f3:fc:b4:af:d6:34:db:8c:91:
         0b:cb:21:36
-----BEGIN CERTIFICATE-----
MIIDeDCCAmCgAwIBAgIRAObZmgrWr/rjZ+ZYGqcgIr8wDQYJKoZIhvcNAQELBQAw
FjEUMBIGA1UEAwwLdGVhbTYzOC1uZXQwHhcNMjEwOTEzMDQxODE3WhcNMjQwODI4
MDQxODE3WjAZMRcwFQYDVQQDDA50ZWFtNjM4LXNlcnZlcjCCASIwDQYJKoZIhvcN
AQEBBQADggEPADCCAQoCggEBAMAbNxg6L5ddj9u1H4OAO38w4ZtZUgxM+CuaJb0w
S4J0eu3yGapT0qqJ2cv3r01CVWQ1EsfJa827JvprFNSEaUqRGsx59YwyOuvh835z
Uq+PEoS8VbO+FNRE1cSti7ShrAJMbh6SWTv2b+J5OfM/fQz5zZnEX0ZxiqxqvLs9
TEM2Uv9A0AUqWugHMz+HZH4V9BNuxMyMJFcPiTeaawDE3UIVQBg7zAPEkFkgBHgU
FVJw8ocRnnT9DFEWi68+haESOJiFtk508n5xlnkhXlkEtBqf8wx7t8H89JPyVlOO
3AWhw6oY2bSSWsmKn9RtLTSiknrS4pE7E5dO5+Ea3LP2XUUCAwEAAaOBvTCBujAJ
BgNVHRMEAjAAMB0GA1UdDgQWBBSoaIL1HGbEtbNHQK66ymcEiRSbcjBRBgNVHSME
SjBIgBTBAsh8oj063bfwl/l0dWw/q/nmL6EapBgwFjEUMBIGA1UEAwwLdGVhbTYz
OC1uZXSCFBz6pRWiPe1e8AJfObEKZ2/1nOb0MBMGA1UdJQQMMAoGCCsGAQUFBwMB
MAsGA1UdDwQEAwIFoDAZBgNVHREEEjAQgg50ZWFtNjM4LXNlcnZlcjANBgkqhkiG
9w0BAQsFAAOCAQEACiUT6SZX45udnhGMOhnuEhAl32BPV8tU+wfEgtmV6zNeudk6
q4ahPz9xUxecIl1KKLz9ybpV5tVe/L3CQkvepZP7jZomhwxG3ulX2XbS/CJS4aSq
k+dUEMDUuSok0KCJTorB1LHAE1J7SafDOcJIqXuI46oM5Y/4lRrJKw6qqNv6V5lT
pCxdTph85rSOvle1DxcnW7DwNCe1PerrlzcNLXCflfus3pC/rBKiBIh06cqDD39W
/JAIbjdQZaBXwZuEVeJ1uxFPREIcUjadv2E2sUA4mbYgu4rXD7vkj2GckNp8xDIY
sSj80mtWFsWow35I7Ttp8/y0r9Y024yRC8shNg==
-----END CERTIFICATE-----
