Certificate:
    Data:
        Version: 3 (0x2)
        Serial Number:
            60:b4:5c:c1:9e:16:dc:17:6c:72:e9:33:81:90:d1:4d
        Signature Algorithm: sha256WithRSAEncryption
        Issuer: CN=team750-net
        Validity
            Not Before: Sep 13 05:11:06 2021 GMT
            Not After : Aug 28 05:11:06 2024 GMT
        Subject: CN=team750-server
        Subject Public Key Info:
            Public Key Algorithm: rsaEncryption
                RSA Public-Key: (2048 bit)
                Modulus:
                    00:b8:8f:50:00:68:07:b5:9e:82:f4:b3:5f:e2:54:
                    d5:5f:71:d5:fc:6b:43:af:e4:66:64:24:c5:59:a7:
                    bc:01:d1:39:17:cc:6b:be:60:aa:23:1f:83:bb:85:
                    37:de:88:1d:02:c9:2b:97:6f:02:7a:80:b2:1b:b3:
                    a1:46:5c:23:f8:b9:24:a0:79:c0:74:38:c0:c6:d6:
                    69:1e:7f:62:de:29:fe:21:ff:46:03:18:3a:52:96:
                    eb:9d:a5:80:6a:7b:b1:5e:bc:8b:81:df:bc:ef:ca:
                    a8:02:1f:44:a4:4c:d1:01:bf:36:17:17:73:4c:ee:
                    d7:61:41:be:ec:98:7e:62:84:20:19:c5:d1:ed:61:
                    77:75:00:e3:cb:ff:e6:a7:f5:84:65:23:eb:49:3a:
                    75:a2:fe:03:e7:8b:50:c5:1b:0d:15:ef:1c:24:a4:
                    51:d8:61:90:cf:99:fa:3a:f3:b5:16:23:1f:e3:5c:
                    da:70:6e:21:b8:0a:c7:1d:49:50:eb:fe:e8:ba:bc:
                    e1:91:63:aa:82:7c:8b:01:3c:57:d4:5e:1f:3d:3c:
                    35:7f:00:b9:72:9b:75:c0:17:39:15:c4:5d:cd:f7:
                    4f:39:03:58:6d:e8:32:61:20:2b:75:e8:3a:7d:b5:
                    d3:cf:77:64:9f:7f:c3:68:24:db:4f:8b:9c:29:52:
                    dc:c1
                Exponent: 65537 (0x10001)
        X509v3 extensions:
            X509v3 Basic Constraints: 
                CA:FALSE
            X509v3 Subject Key Identifier: 
                95:E8:6F:A6:35:EA:5C:A3:89:0D:40:28:B2:6A:73:FA:3C:E1:43:43
            X509v3 Authority Key Identifier: 
                keyid:34:C0:69:16:70:3C:B6:26:BA:BE:A7:84:73:B4:DE:05:B5:D7:E5:06
                DirName:/CN=team750-net
                serial:6A:DD:00:B1:F8:7E:52:19:02:8B:F9:C3:7A:6E:8A:77:FE:BB:D8:92

            X509v3 Extended Key Usage: 
                TLS Web Server Authentication
            X509v3 Key Usage: 
                Digital Signature, Key Encipherment
            X509v3 Subject Alternative Name: 
                DNS:team750-server
    Signature Algorithm: sha256WithRSAEncryption
         86:79:c7:c2:72:67:34:86:65:b0:6c:21:37:a7:be:8c:cd:38:
         6a:ed:44:3c:b3:3b:d2:71:70:84:23:7b:90:07:89:4d:d7:d4:
         4d:52:1d:89:9f:bc:16:6e:20:d5:d8:3f:03:c3:61:22:2f:49:
         6e:06:a9:78:70:ae:d8:a0:42:6c:ec:13:a1:a6:bb:85:cf:fc:
         6d:38:83:9a:ba:63:b1:e9:32:0e:73:04:d1:ca:49:b6:d8:dd:
         f4:3a:3c:42:fb:13:a6:63:b9:cd:b1:b2:c7:5d:cc:1b:76:7a:
         c6:53:94:66:37:4a:21:73:c2:cc:f7:98:bf:2e:d1:0c:e9:26:
         17:95:d0:55:dc:a3:96:78:43:ee:de:ea:fb:59:29:11:7f:df:
         8f:23:3f:5a:47:5c:99:8b:04:ed:a2:9d:11:ec:20:1a:f8:c4:
         6c:43:b5:a0:96:e7:6e:8f:a6:db:d1:06:c1:2a:f4:f8:6d:30:
         56:be:fb:6f:28:a0:1d:48:1b:cd:7e:d8:71:45:67:e1:31:8c:
         43:c6:6f:01:58:04:ea:31:45:60:3b:84:15:d6:53:63:6c:e1:
         94:5c:b4:b2:16:1b:32:3a:32:eb:c1:67:06:12:7d:df:63:92:
         e9:73:1c:c9:f7:6e:71:44:df:8b:57:a9:67:97:42:97:35:14:
         33:ca:63:ee
-----BEGIN CERTIFICATE-----
MIIDdzCCAl+gAwIBAgIQYLRcwZ4W3BdscukzgZDRTTANBgkqhkiG9w0BAQsFADAW
MRQwEgYDVQQDDAt0ZWFtNzUwLW5ldDAeFw0yMTA5MTMwNTExMDZaFw0yNDA4Mjgw
NTExMDZaMBkxFzAVBgNVBAMMDnRlYW03NTAtc2VydmVyMIIBIjANBgkqhkiG9w0B
AQEFAAOCAQ8AMIIBCgKCAQEAuI9QAGgHtZ6C9LNf4lTVX3HV/GtDr+RmZCTFWae8
AdE5F8xrvmCqIx+Du4U33ogdAskrl28CeoCyG7OhRlwj+LkkoHnAdDjAxtZpHn9i
3in+If9GAxg6UpbrnaWAanuxXryLgd+878qoAh9EpEzRAb82FxdzTO7XYUG+7Jh+
YoQgGcXR7WF3dQDjy//mp/WEZSPrSTp1ov4D54tQxRsNFe8cJKRR2GGQz5n6OvO1
FiMf41zacG4huArHHUlQ6/7ourzhkWOqgnyLATxX1F4fPTw1fwC5cpt1wBc5FcRd
zfdPOQNYbegyYSArdeg6fbXTz3dkn3/DaCTbT4ucKVLcwQIDAQABo4G9MIG6MAkG
A1UdEwQCMAAwHQYDVR0OBBYEFJXob6Y16lyjiQ1AKLJqc/o84UNDMFEGA1UdIwRK
MEiAFDTAaRZwPLYmur6nhHO03gW11+UGoRqkGDAWMRQwEgYDVQQDDAt0ZWFtNzUw
LW5ldIIUat0Asfh+UhkCi/nDem6Kd/672JIwEwYDVR0lBAwwCgYIKwYBBQUHAwEw
CwYDVR0PBAQDAgWgMBkGA1UdEQQSMBCCDnRlYW03NTAtc2VydmVyMA0GCSqGSIb3
DQEBCwUAA4IBAQCGecfCcmc0hmWwbCE3p76MzThq7UQ8szvScXCEI3uQB4lN19RN
Uh2Jn7wWbiDV2D8Dw2EiL0luBql4cK7YoEJs7BOhpruFz/xtOIOaumOx6TIOcwTR
ykm22N30OjxC+xOmY7nNsbLHXcwbdnrGU5RmN0ohc8LM95i/LtEM6SYXldBV3KOW
eEPu3ur7WSkRf9+PIz9aR1yZiwTtop0R7CAa+MRsQ7Wgluduj6bb0QbBKvT4bTBW
vvtvKKAdSBvNfthxRWfhMYxDxm8BWATqMUVgO4QV1lNjbOGUXLSyFhsyOjLrwWcG
En3fY5LpcxzJ925xRN+LV6lnl0KXNRQzymPu
-----END CERTIFICATE-----
