Certificate:
    Data:
        Version: 3 (0x2)
        Serial Number:
            11:a1:2d:67:d5:70:a1:70:7c:42:76:6d:a7:a7:9a:01
        Signature Algorithm: sha256WithRSAEncryption
        Issuer: CN=team520-net
        Validity
            Not Before: Sep 13 03:16:46 2021 GMT
            Not After : Aug 28 03:16:46 2024 GMT
        Subject: CN=team520-server
        Subject Public Key Info:
            Public Key Algorithm: rsaEncryption
                RSA Public-Key: (2048 bit)
                Modulus:
                    00:ac:2f:85:f1:95:bc:87:a0:9c:5d:f4:65:a0:23:
                    12:22:19:99:97:ce:cf:1b:60:a6:b8:f2:6e:08:a7:
                    93:47:0c:ac:0d:59:e0:53:7f:f9:20:f1:e4:76:03:
                    1c:a2:71:01:18:1d:41:e0:3d:e1:1d:1e:73:73:ea:
                    c8:bb:b6:b6:cc:a9:51:a3:c0:0e:5d:3c:65:22:c2:
                    e9:b9:e5:5f:5b:0c:81:f8:41:eb:ff:4b:7a:c8:5c:
                    2c:b5:9c:39:bf:c2:d4:8f:7b:c9:fb:04:89:ea:c2:
                    cd:a7:d7:d7:49:00:c1:ba:8f:cf:0a:d5:9a:c7:34:
                    b5:fd:ba:a6:76:4f:44:c3:0e:8d:ff:c2:f1:96:91:
                    c8:12:8a:d2:87:ea:b8:fe:0c:be:3a:59:b4:63:c5:
                    e0:50:e0:1f:1e:57:b2:4f:4f:3a:17:dd:fc:e8:f5:
                    f4:ac:a3:5d:9b:f7:55:58:85:c4:b9:43:20:0e:de:
                    07:63:dc:46:76:fa:2d:82:f8:be:ff:52:42:92:5b:
                    57:b2:10:13:53:ac:47:ec:62:0f:00:35:74:4b:b5:
                    0e:63:6e:df:f5:d5:51:98:10:f7:33:40:db:08:5b:
                    0a:a6:05:67:f7:0b:a7:66:96:28:bf:f9:08:1b:2e:
                    e0:8d:0a:4b:6d:d2:a7:4e:d4:11:f2:68:d3:d8:a5:
                    e9:c5
                Exponent: 65537 (0x10001)
        X509v3 extensions:
            X509v3 Basic Constraints: 
                CA:FALSE
            X509v3 Subject Key Identifier: 
                B7:9D:60:87:ED:F8:FD:25:5B:78:F1:B4:44:08:46:7E:7D:96:5A:6A
            X509v3 Authority Key Identifier: 
                keyid:82:D5:32:AF:D4:3D:F1:75:04:70:F3:27:C2:BF:24:11:81:5E:D3:46
                DirName:/CN=team520-net
                serial:25:EA:24:2F:8F:D7:B8:9B:21:FB:81:39:80:B7:5F:64:45:90:5B:D2

            X509v3 Extended Key Usage: 
                TLS Web Server Authentication
            X509v3 Key Usage: 
                Digital Signature, Key Encipherment
            X509v3 Subject Alternative Name: 
                DNS:team520-server
    Signature Algorithm: sha256WithRSAEncryption
         80:6e:92:e7:94:0a:7b:8a:a7:88:e9:a1:e6:c3:b0:ab:e3:ba:
         0e:b9:18:47:de:87:10:18:37:c8:c9:ef:17:c6:41:fb:60:0f:
         7e:b8:81:22:37:e5:56:76:61:99:19:44:e4:b5:69:42:0c:01:
         48:91:d7:e5:47:a9:2b:5e:56:cc:2b:72:f0:4a:b2:55:ef:9f:
         52:50:4c:27:0a:d1:83:3c:66:90:35:05:f3:f6:df:00:ea:d8:
         65:a0:9e:e3:7f:0a:dd:ae:c8:85:85:92:28:b5:fc:e2:da:b2:
         bb:10:1c:54:05:88:d4:85:31:8e:be:39:61:8f:b3:53:f8:a3:
         1e:45:1d:42:9b:09:79:87:ef:17:bb:85:02:44:df:1c:d2:ee:
         91:48:e9:fd:9d:b2:57:99:34:d3:2b:16:30:44:ab:d8:43:29:
         df:12:82:0e:fd:e6:a8:5d:5b:bd:89:8b:9f:63:e0:a9:ed:dc:
         39:2e:0f:f0:9f:54:26:84:79:22:5f:0b:e4:a3:73:62:f2:8e:
         8c:44:55:1f:12:a5:e2:98:ab:56:63:15:32:6f:a3:cd:d7:6a:
         fb:68:dc:d6:5b:8d:9d:8d:4c:2b:60:44:fe:9f:9f:9a:a6:bd:
         03:ae:91:ca:c0:21:c3:df:01:0f:84:85:c0:33:e5:b2:7a:1c:
         3e:28:44:d2
-----BEGIN CERTIFICATE-----
MIIDdzCCAl+gAwIBAgIQEaEtZ9VwoXB8QnZtp6eaATANBgkqhkiG9w0BAQsFADAW
MRQwEgYDVQQDDAt0ZWFtNTIwLW5ldDAeFw0yMTA5MTMwMzE2NDZaFw0yNDA4Mjgw
MzE2NDZaMBkxFzAVBgNVBAMMDnRlYW01MjAtc2VydmVyMIIBIjANBgkqhkiG9w0B
AQEFAAOCAQ8AMIIBCgKCAQEArC+F8ZW8h6CcXfRloCMSIhmZl87PG2CmuPJuCKeT
RwysDVngU3/5IPHkdgMconEBGB1B4D3hHR5zc+rIu7a2zKlRo8AOXTxlIsLpueVf
WwyB+EHr/0t6yFwstZw5v8LUj3vJ+wSJ6sLNp9fXSQDBuo/PCtWaxzS1/bqmdk9E
ww6N/8LxlpHIEorSh+q4/gy+Olm0Y8XgUOAfHleyT086F9386PX0rKNdm/dVWIXE
uUMgDt4HY9xGdvotgvi+/1JCkltXshATU6xH7GIPADV0S7UOY27f9dVRmBD3M0Db
CFsKpgVn9wunZpYov/kIGy7gjQpLbdKnTtQR8mjT2KXpxQIDAQABo4G9MIG6MAkG
A1UdEwQCMAAwHQYDVR0OBBYEFLedYIft+P0lW3jxtEQIRn59llpqMFEGA1UdIwRK
MEiAFILVMq/UPfF1BHDzJ8K/JBGBXtNGoRqkGDAWMRQwEgYDVQQDDAt0ZWFtNTIw
LW5ldIIUJeokL4/XuJsh+4E5gLdfZEWQW9IwEwYDVR0lBAwwCgYIKwYBBQUHAwEw
CwYDVR0PBAQDAgWgMBkGA1UdEQQSMBCCDnRlYW01MjAtc2VydmVyMA0GCSqGSIb3
DQEBCwUAA4IBAQCAbpLnlAp7iqeI6aHmw7Cr47oOuRhH3ocQGDfIye8XxkH7YA9+
uIEiN+VWdmGZGUTktWlCDAFIkdflR6krXlbMK3LwSrJV759SUEwnCtGDPGaQNQXz
9t8A6thloJ7jfwrdrsiFhZIotfzi2rK7EBxUBYjUhTGOvjlhj7NT+KMeRR1Cmwl5
h+8Xu4UCRN8c0u6RSOn9nbJXmTTTKxYwRKvYQynfEoIO/eaoXVu9iYufY+Cp7dw5
Lg/wn1QmhHkiXwvko3Ni8o6MRFUfEqXimKtWYxUyb6PN12r7aNzWW42djUwrYET+
n5+apr0DrpHKwCHD3wEPhIXAM+Wyehw+KETS
-----END CERTIFICATE-----
