Certificate:
    Data:
        Version: 3 (0x2)
        Serial Number:
            6e:20:21:e5:1e:9b:cd:7b:96:19:40:22:e2:0d:52:cb
        Signature Algorithm: sha256WithRSAEncryption
        Issuer: CN=team16-net
        Validity
            Not Before: Sep 12 22:51:45 2021 GMT
            Not After : Aug 27 22:51:45 2024 GMT
        Subject: CN=team16-server
        Subject Public Key Info:
            Public Key Algorithm: rsaEncryption
                RSA Public-Key: (2048 bit)
                Modulus:
                    00:ea:03:31:1b:ee:c1:09:10:e2:fe:ad:ef:c3:0b:
                    66:7b:55:d9:87:a1:25:e2:9f:6f:27:08:87:c9:fe:
                    c4:11:d7:a3:f1:36:9f:86:f7:7a:a7:16:86:9a:64:
                    89:94:fe:38:1c:cf:24:60:ca:00:5b:f4:18:9f:4a:
                    da:d0:68:dc:36:db:10:82:f8:bd:9f:9b:1a:85:06:
                    fc:2b:bb:3d:9f:60:4b:49:47:f3:00:bd:c6:79:4d:
                    18:26:62:42:b5:fe:d9:9d:be:cc:18:ef:45:9b:88:
                    6e:03:e8:c1:fb:45:4b:7b:c3:44:17:c9:ed:57:45:
                    3e:b0:14:48:c8:b9:98:ca:ca:99:4a:f2:be:9a:8f:
                    60:d3:b8:27:df:84:3e:f3:c9:17:73:ad:12:b1:19:
                    94:00:07:a0:f0:65:bd:46:e5:ec:e5:2d:b8:3e:20:
                    89:70:1d:49:54:0f:26:2c:0a:23:54:45:f9:68:14:
                    03:15:c3:c7:de:4c:ae:7f:b8:a2:6b:18:d9:fc:b0:
                    b3:35:f6:49:c9:95:4e:80:01:6f:db:86:fd:65:09:
                    e4:93:2a:3d:7a:55:07:a0:cb:6f:b3:44:99:a4:38:
                    eb:e3:3c:c1:b5:20:5f:36:85:80:15:ac:c6:28:ef:
                    2a:42:7b:d3:9f:05:84:da:fd:6e:5c:3e:9f:b7:49:
                    1c:05
                Exponent: 65537 (0x10001)
        X509v3 extensions:
            X509v3 Basic Constraints: 
                CA:FALSE
            X509v3 Subject Key Identifier: 
                E6:57:46:F7:58:4C:A0:CE:13:08:17:4F:80:D7:2F:DE:0F:48:81:CE
            X509v3 Authority Key Identifier: 
                keyid:98:29:3E:3B:F6:D5:88:78:AF:2F:30:49:BC:3B:4D:21:3B:2B:67:9F
                DirName:/CN=team16-net
                serial:4F:9F:1F:13:9C:5B:E9:52:83:5A:58:B0:7A:21:02:AA:D2:CA:B5:FE

            X509v3 Extended Key Usage: 
                TLS Web Server Authentication
            X509v3 Key Usage: 
                Digital Signature, Key Encipherment
            X509v3 Subject Alternative Name: 
                DNS:team16-server
    Signature Algorithm: sha256WithRSAEncryption
         0b:57:af:bc:de:7c:59:c3:ba:8b:28:a3:bc:00:0d:3f:18:a6:
         d5:a4:bf:9e:c6:bc:02:b4:aa:21:7d:2e:7a:f0:69:8f:df:b1:
         8e:d9:13:e5:f2:74:93:f6:10:cd:4c:17:0b:dd:76:b7:b9:f2:
         61:98:96:ab:e2:d1:63:39:69:2f:f5:02:0e:81:c2:5a:89:e8:
         09:c9:52:5e:80:72:8c:6b:d1:dc:5f:94:db:58:d7:32:64:9c:
         f4:43:40:8a:aa:73:42:32:f5:1a:89:00:d4:1a:c4:67:cc:24:
         61:74:2b:84:60:9a:41:25:1a:c0:65:5a:8a:2f:6c:75:af:22:
         68:6f:13:dc:bd:f6:80:03:7a:eb:df:1d:7b:c8:78:11:85:ec:
         66:83:ec:c9:57:b4:d0:fe:1a:6a:21:f4:a5:75:25:a8:7c:78:
         8d:69:27:79:e5:73:d4:d0:74:b8:4b:94:d6:69:f8:e0:ea:cf:
         8b:d8:e0:e1:c3:7f:9d:59:f5:91:f8:92:1e:48:bc:6a:1a:5e:
         5b:ec:9a:7d:21:60:c5:d3:4d:a8:03:a1:80:77:91:de:7a:5c:
         26:6e:42:89:cd:e3:6d:b4:99:53:67:3a:28:60:76:17:09:71:
         fb:45:b3:8c:c8:90:f8:ef:06:6f:c8:c8:45:4d:05:a6:f3:67:
         39:b3:00:d9
-----BEGIN CERTIFICATE-----
MIIDczCCAlugAwIBAgIQbiAh5R6bzXuWGUAi4g1SyzANBgkqhkiG9w0BAQsFADAV
MRMwEQYDVQQDDAp0ZWFtMTYtbmV0MB4XDTIxMDkxMjIyNTE0NVoXDTI0MDgyNzIy
NTE0NVowGDEWMBQGA1UEAwwNdGVhbTE2LXNlcnZlcjCCASIwDQYJKoZIhvcNAQEB
BQADggEPADCCAQoCggEBAOoDMRvuwQkQ4v6t78MLZntV2YehJeKfbycIh8n+xBHX
o/E2n4b3eqcWhppkiZT+OBzPJGDKAFv0GJ9K2tBo3DbbEIL4vZ+bGoUG/Cu7PZ9g
S0lH8wC9xnlNGCZiQrX+2Z2+zBjvRZuIbgPowftFS3vDRBfJ7VdFPrAUSMi5mMrK
mUryvpqPYNO4J9+EPvPJF3OtErEZlAAHoPBlvUbl7OUtuD4giXAdSVQPJiwKI1RF
+WgUAxXDx95Mrn+4omsY2fywszX2ScmVToABb9uG/WUJ5JMqPXpVB6DLb7NEmaQ4
6+M8wbUgXzaFgBWsxijvKkJ7058FhNr9blw+n7dJHAUCAwEAAaOBuzCBuDAJBgNV
HRMEAjAAMB0GA1UdDgQWBBTmV0b3WEygzhMIF0+A1y/eD0iBzjBQBgNVHSMESTBH
gBSYKT479tWIeK8vMEm8O00hOytnn6EZpBcwFTETMBEGA1UEAwwKdGVhbTE2LW5l
dIIUT58fE5xb6VKDWliweiECqtLKtf4wEwYDVR0lBAwwCgYIKwYBBQUHAwEwCwYD
VR0PBAQDAgWgMBgGA1UdEQQRMA+CDXRlYW0xNi1zZXJ2ZXIwDQYJKoZIhvcNAQEL
BQADggEBAAtXr7zefFnDuosoo7wADT8YptWkv57GvAK0qiF9LnrwaY/fsY7ZE+Xy
dJP2EM1MFwvddre58mGYlqvi0WM5aS/1Ag6BwlqJ6AnJUl6Acoxr0dxflNtY1zJk
nPRDQIqqc0Iy9RqJANQaxGfMJGF0K4RgmkElGsBlWoovbHWvImhvE9y99oADeuvf
HXvIeBGF7GaD7MlXtND+Gmoh9KV1Jah8eI1pJ3nlc9TQdLhLlNZp+ODqz4vY4OHD
f51Z9ZH4kh5IvGoaXlvsmn0hYMXTTagDoYB3kd56XCZuQonN4220mVNnOihgdhcJ
cftFs4zIkPjvBm/IyEVNBabzZzmzANk=
-----END CERTIFICATE-----
