Certificate:
    Data:
        Version: 3 (0x2)
        Serial Number:
            8f:a2:a9:79:ab:a2:9c:98:af:c1:ee:c9:ce:69:d9:54
        Signature Algorithm: sha256WithRSAEncryption
        Issuer: CN=team16-net
        Validity
            Not Before: Sep 12 22:51:45 2021 GMT
            Not After : Aug 27 22:51:45 2024 GMT
        Subject: CN=team16-client
        Subject Public Key Info:
            Public Key Algorithm: rsaEncryption
                RSA Public-Key: (2048 bit)
                Modulus:
                    00:b3:5f:06:47:e2:63:85:3c:18:4e:16:ec:df:a8:
                    d3:0d:75:49:aa:ea:44:08:60:20:04:da:65:4f:26:
                    9c:d7:46:e6:0c:5f:2f:aa:a9:61:15:ba:b5:40:36:
                    a9:85:5c:1d:0c:0b:8f:86:40:0b:26:e5:7f:59:33:
                    ac:64:e0:f9:c2:c5:7e:28:5e:49:1d:80:21:13:0e:
                    df:16:7e:02:eb:75:60:a9:50:6f:73:07:14:e8:ab:
                    59:61:b1:89:10:9b:16:1a:e6:44:8b:eb:1a:32:6e:
                    7e:1f:d6:ce:58:08:51:cb:83:21:76:da:f4:00:58:
                    f8:73:52:2c:b7:66:2b:44:89:e7:24:a4:6b:7c:45:
                    f5:b7:74:e1:85:f5:ec:43:8f:3c:f8:87:f9:51:f5:
                    12:33:33:a3:28:f5:1e:f8:dc:99:ca:12:1b:52:2c:
                    4c:c2:05:9d:56:03:8c:c5:6f:91:15:71:87:04:3f:
                    b7:09:6a:e6:3f:27:31:bb:7d:45:67:a0:a1:c0:1b:
                    54:56:80:b1:5e:57:6e:a2:9a:5a:29:39:30:0c:bf:
                    2f:2e:ba:e6:0e:26:ce:3f:66:f8:18:91:51:f3:f8:
                    77:4e:cb:d3:0a:4b:e3:bb:49:94:23:06:68:e7:9c:
                    b4:95:a2:41:cd:45:c6:db:28:f1:66:69:a2:fe:d1:
                    14:f3
                Exponent: 65537 (0x10001)
        X509v3 extensions:
            X509v3 Basic Constraints: 
                CA:FALSE
            X509v3 Subject Key Identifier: 
                3E:D4:AF:21:0D:86:3F:86:38:BA:02:78:DA:E8:B1:3F:40:FE:10:18
            X509v3 Authority Key Identifier: 
                keyid:98:29:3E:3B:F6:D5:88:78:AF:2F:30:49:BC:3B:4D:21:3B:2B:67:9F
                DirName:/CN=team16-net
                serial:4F:9F:1F:13:9C:5B:E9:52:83:5A:58:B0:7A:21:02:AA:D2:CA:B5:FE

            X509v3 Extended Key Usage: 
                TLS Web Client Authentication
            X509v3 Key Usage: 
                Digital Signature
    Signature Algorithm: sha256WithRSAEncryption
         21:77:8b:58:94:30:09:06:56:0e:12:06:c1:e3:28:b4:09:48:
         d4:ec:f5:49:90:43:cc:0f:b6:ab:0d:75:e6:03:c0:39:c4:3b:
         f6:8b:c7:61:d2:99:2b:c2:9d:8f:3d:b6:e4:7c:44:c9:a9:a4:
         9e:38:4a:43:5d:9d:a4:3c:87:8d:13:f0:42:72:b7:13:22:2a:
         5b:83:42:16:30:6d:e5:79:cd:dc:2c:97:ef:80:e7:cf:bc:e7:
         5f:0c:70:b1:2f:e3:d4:29:dc:3b:b8:96:ea:00:de:e2:44:06:
         a6:f8:c5:ce:bd:de:d8:20:28:76:f9:9f:85:c6:6e:d3:0c:ba:
         25:f0:b0:ba:0f:18:86:b5:03:2b:3a:40:fa:ee:17:f5:65:2d:
         16:68:68:7d:30:09:1b:34:0e:b8:e8:29:58:74:0a:8b:cf:61:
         0a:d5:91:15:54:2c:0f:c7:25:38:c3:08:52:be:08:62:61:6b:
         1b:cc:92:13:10:2a:e1:25:f4:1a:fa:7a:62:a8:d7:59:4c:a6:
         21:d9:76:42:cf:0a:7d:b2:c4:17:9c:d4:a1:8e:da:0e:24:12:
         f2:79:9f:b1:4e:77:fd:50:1d:bf:ce:0f:94:de:0d:b9:35:a8:
         fb:69:ba:e8:4e:68:c0:84:1c:db:03:15:05:e3:9a:fb:6d:39:
         77:c1:af:46
-----BEGIN CERTIFICATE-----
MIIDWjCCAkKgAwIBAgIRAI+iqXmropyYr8Huyc5p2VQwDQYJKoZIhvcNAQELBQAw
FTETMBEGA1UEAwwKdGVhbTE2LW5ldDAeFw0yMTA5MTIyMjUxNDVaFw0yNDA4Mjcy
MjUxNDVaMBgxFjAUBgNVBAMMDXRlYW0xNi1jbGllbnQwggEiMA0GCSqGSIb3DQEB
AQUAA4IBDwAwggEKAoIBAQCzXwZH4mOFPBhOFuzfqNMNdUmq6kQIYCAE2mVPJpzX
RuYMXy+qqWEVurVANqmFXB0MC4+GQAsm5X9ZM6xk4PnCxX4oXkkdgCETDt8WfgLr
dWCpUG9zBxToq1lhsYkQmxYa5kSL6xoybn4f1s5YCFHLgyF22vQAWPhzUiy3ZitE
ieckpGt8RfW3dOGF9exDjzz4h/lR9RIzM6Mo9R743JnKEhtSLEzCBZ1WA4zFb5EV
cYcEP7cJauY/JzG7fUVnoKHAG1RWgLFeV26imlopOTAMvy8uuuYOJs4/ZvgYkVHz
+HdOy9MKS+O7SZQjBmjnnLSVokHNRcbbKPFmaaL+0RTzAgMBAAGjgaEwgZ4wCQYD
VR0TBAIwADAdBgNVHQ4EFgQUPtSvIQ2GP4Y4ugJ42uixP0D+EBgwUAYDVR0jBEkw
R4AUmCk+O/bViHivLzBJvDtNITsrZ5+hGaQXMBUxEzARBgNVBAMMCnRlYW0xNi1u
ZXSCFE+fHxOcW+lSg1pYsHohAqrSyrX+MBMGA1UdJQQMMAoGCCsGAQUFBwMCMAsG
A1UdDwQEAwIHgDANBgkqhkiG9w0BAQsFAAOCAQEAIXeLWJQwCQZWDhIGweMotAlI
1Oz1SZBDzA+2qw115gPAOcQ79ovHYdKZK8Kdjz225HxEyamknjhKQ12dpDyHjRPw
QnK3EyIqW4NCFjBt5XnN3CyX74Dnz7znXwxwsS/j1CncO7iW6gDe4kQGpvjFzr3e
2CAodvmfhcZu0wy6JfCwug8YhrUDKzpA+u4X9WUtFmhofTAJGzQOuOgpWHQKi89h
CtWRFVQsD8clOMMIUr4IYmFrG8ySExAq4SX0Gvp6YqjXWUymIdl2Qs8KfbLEF5zU
oY7aDiQS8nmfsU53/VAdv84PlN4NuTWo+2m66E5owIQc2wMVBeOa+205d8GvRg==
-----END CERTIFICATE-----
