Certificate:
    Data:
        Version: 3 (0x2)
        Serial Number:
            7a:4e:f8:c5:9b:2d:5b:c4:46:27:e5:b9:43:5a:85:64
        Signature Algorithm: sha256WithRSAEncryption
        Issuer: CN=team494-net
        Validity
            Not Before: Sep 13 03:11:57 2021 GMT
            Not After : Aug 28 03:11:57 2024 GMT
        Subject: CN=team494-client
        Subject Public Key Info:
            Public Key Algorithm: rsaEncryption
                RSA Public-Key: (2048 bit)
                Modulus:
                    00:99:a1:70:79:bd:08:60:11:f4:fc:09:11:6d:ee:
                    66:d7:9a:65:ef:f8:de:8b:69:e4:5a:e4:22:b2:99:
                    51:18:e0:d9:04:d6:6a:bf:ca:d6:55:45:6d:88:04:
                    d2:e6:87:e6:47:c8:36:11:ac:67:31:6f:0d:bc:7c:
                    2e:da:25:36:d1:38:a4:c4:27:b8:98:d4:4b:17:b9:
                    d2:d4:86:3e:d5:a2:54:e0:7d:de:c3:63:37:d5:8f:
                    03:1f:2b:31:b6:bd:e0:7c:a1:e9:68:f3:00:5e:bf:
                    c2:30:e8:aa:f7:28:60:89:7a:bf:8c:4b:dc:88:8c:
                    a1:84:c9:cc:dd:e2:62:06:03:ef:f8:04:13:a7:2f:
                    31:83:5f:69:d2:b3:fa:58:78:61:54:56:31:4b:e7:
                    5e:99:65:12:25:f8:05:b9:c0:36:7b:ef:39:a8:e1:
                    cb:dd:66:3e:b4:3c:3f:0d:5b:b1:41:21:61:e2:28:
                    88:66:20:d2:77:77:6a:00:80:77:f4:e8:f0:41:73:
                    d3:f5:7f:dd:2f:c7:bb:7f:fd:94:a4:48:87:8d:6f:
                    82:96:87:70:1a:67:d8:82:5e:41:2c:5a:03:b6:a2:
                    52:68:c0:67:8e:af:f8:e3:12:ab:6a:0e:8a:f5:76:
                    53:d7:75:3a:7b:5b:a6:24:c7:3a:13:a6:5b:b9:f8:
                    b0:9f
                Exponent: 65537 (0x10001)
        X509v3 extensions:
            X509v3 Basic Constraints: 
                CA:FALSE
            X509v3 Subject Key Identifier: 
                2D:E4:AD:65:A3:E6:48:EE:B8:74:CD:FD:D6:07:D0:D4:CF:F2:F8:02
            X509v3 Authority Key Identifier: 
                keyid:A2:ED:3B:F4:8F:18:2E:E1:7E:51:97:30:16:C2:84:82:05:B5:9C:C4
                DirName:/CN=team494-net
                serial:4A:39:A8:A6:FF:14:BC:5D:DD:CB:1B:12:26:B5:3D:57:84:68:4C:CF

            X509v3 Extended Key Usage: 
                TLS Web Client Authentication
            X509v3 Key Usage: 
                Digital Signature
    Signature Algorithm: sha256WithRSAEncryption
         64:74:8f:5d:81:14:1a:a0:2f:3d:9e:07:09:9d:90:77:7e:1a:
         5d:e4:d8:d9:ce:9a:4c:a4:23:71:57:68:c5:7a:06:52:98:61:
         6c:1b:c8:0d:1d:b6:0c:1a:b8:d2:65:f4:f9:33:d0:14:8a:a6:
         3d:d9:2f:cf:27:56:b3:43:5f:27:ac:ff:f9:9e:5a:31:60:56:
         66:fc:75:41:42:c3:da:6a:e1:0d:e5:b2:8e:37:24:7b:19:77:
         12:93:d8:98:17:55:37:32:62:4c:6a:bd:e0:24:23:0b:6d:8b:
         53:d9:08:de:93:f4:7b:88:b4:25:f4:95:18:58:a4:d8:90:77:
         ea:97:34:16:74:6f:1a:49:44:90:bc:e7:22:70:c0:09:0c:66:
         da:75:38:24:4d:59:81:03:ac:de:0e:0e:ba:ec:25:e8:ca:27:
         ee:c9:17:62:90:f5:65:ed:c7:a4:f8:11:b6:60:a4:a5:49:d7:
         70:04:57:0c:6f:bd:f8:08:b6:82:5d:dc:40:bd:cb:ba:1b:c3:
         5d:57:7e:59:cc:a2:f0:fa:e2:31:b8:75:7d:5d:53:1f:24:9f:
         c6:cf:3e:1e:52:e7:45:27:ac:90:9b:e6:50:b6:45:00:7f:ff:
         1f:d9:04:9a:d2:ec:f1:e7:2d:2e:c9:36:bf:45:a7:e4:28:ac:
         5c:4c:19:85
-----BEGIN CERTIFICATE-----
MIIDXDCCAkSgAwIBAgIQek74xZstW8RGJ+W5Q1qFZDANBgkqhkiG9w0BAQsFADAW
MRQwEgYDVQQDDAt0ZWFtNDk0LW5ldDAeFw0yMTA5MTMwMzExNTdaFw0yNDA4Mjgw
MzExNTdaMBkxFzAVBgNVBAMMDnRlYW00OTQtY2xpZW50MIIBIjANBgkqhkiG9w0B
AQEFAAOCAQ8AMIIBCgKCAQEAmaFweb0IYBH0/AkRbe5m15pl7/jei2nkWuQisplR
GODZBNZqv8rWVUVtiATS5ofmR8g2EaxnMW8NvHwu2iU20TikxCe4mNRLF7nS1IY+
1aJU4H3ew2M31Y8DHysxtr3gfKHpaPMAXr/CMOiq9yhgiXq/jEvciIyhhMnM3eJi
BgPv+AQTpy8xg19p0rP6WHhhVFYxS+demWUSJfgFucA2e+85qOHL3WY+tDw/DVux
QSFh4iiIZiDSd3dqAIB39OjwQXPT9X/dL8e7f/2UpEiHjW+ClodwGmfYgl5BLFoD
tqJSaMBnjq/44xKrag6K9XZT13U6e1umJMc6E6ZbufiwnwIDAQABo4GiMIGfMAkG
A1UdEwQCMAAwHQYDVR0OBBYEFC3krWWj5kjuuHTN/dYH0NTP8vgCMFEGA1UdIwRK
MEiAFKLtO/SPGC7hflGXMBbChIIFtZzEoRqkGDAWMRQwEgYDVQQDDAt0ZWFtNDk0
LW5ldIIUSjmopv8UvF3dyxsSJrU9V4RoTM8wEwYDVR0lBAwwCgYIKwYBBQUHAwIw
CwYDVR0PBAQDAgeAMA0GCSqGSIb3DQEBCwUAA4IBAQBkdI9dgRQaoC89ngcJnZB3
fhpd5NjZzppMpCNxV2jFegZSmGFsG8gNHbYMGrjSZfT5M9AUiqY92S/PJ1azQ18n
rP/5nloxYFZm/HVBQsPaauEN5bKONyR7GXcSk9iYF1U3MmJMar3gJCMLbYtT2Qje
k/R7iLQl9JUYWKTYkHfqlzQWdG8aSUSQvOcicMAJDGbadTgkTVmBA6zeDg667CXo
yifuyRdikPVl7cek+BG2YKSlSddwBFcMb734CLaCXdxAvcu6G8NdV35ZzKLw+uIx
uHV9XVMfJJ/Gzz4eUudFJ6yQm+ZQtkUAf/8f2QSa0uzx5y0uyTa/RafkKKxcTBmF
-----END CERTIFICATE-----
