Certificate:
    Data:
        Version: 3 (0x2)
        Serial Number:
            3d:ba:b7:a3:ca:28:5d:38:92:36:3c:1c:bd:66:39:2a
        Signature Algorithm: sha256WithRSAEncryption
        Issuer: CN=team449-net
        Validity
            Not Before: Sep 13 02:41:08 2021 GMT
            Not After : Aug 28 02:41:08 2024 GMT
        Subject: CN=team449-client
        Subject Public Key Info:
            Public Key Algorithm: rsaEncryption
                RSA Public-Key: (2048 bit)
                Modulus:
                    00:c1:c1:7d:2e:8a:2c:f6:49:52:f6:5d:6f:25:9f:
                    f2:4a:39:41:9e:ac:27:99:99:68:b1:be:3a:ea:37:
                    1e:5c:18:82:7d:a4:05:68:90:e0:7c:20:98:40:f1:
                    59:b7:73:dd:55:1b:6d:33:28:b6:f5:c0:e7:00:31:
                    b7:04:b6:ab:16:9b:fa:de:37:97:fb:06:59:17:77:
                    b6:f4:23:89:26:c2:28:79:f5:5d:73:bc:0e:46:f6:
                    3f:9e:b8:4c:3e:4e:5d:83:fa:ee:f2:04:db:6a:2a:
                    00:de:1a:9c:b7:17:33:98:b5:ef:94:50:47:76:5c:
                    a8:dc:5a:cc:48:22:31:06:d3:dd:0e:7d:bb:c0:f8:
                    19:77:88:9b:d3:23:08:e3:b6:37:fc:61:b4:7a:bf:
                    1a:29:57:7c:5b:ef:2f:d2:3b:e4:69:fe:35:1b:1b:
                    1d:93:d8:16:51:6d:e6:71:73:7a:75:f2:0e:8f:91:
                    d5:6b:a1:5c:6f:99:a8:47:2c:62:1b:ef:09:b1:3c:
                    28:50:7b:ed:26:1d:db:f3:76:3f:3e:77:9d:3f:05:
                    ce:1e:74:41:c9:7d:6b:59:63:51:32:40:b4:9b:a6:
                    5c:a0:75:45:da:fe:be:83:db:83:88:3f:b9:6b:e5:
                    7b:b9:68:fb:7b:71:78:38:75:b7:46:7b:a6:da:39:
                    9a:27
                Exponent: 65537 (0x10001)
        X509v3 extensions:
            X509v3 Basic Constraints: 
                CA:FALSE
            X509v3 Subject Key Identifier: 
                94:B9:BD:0A:46:EB:A0:F7:F3:8E:03:9A:1B:78:02:93:AC:73:DE:AB
            X509v3 Authority Key Identifier: 
                keyid:09:C9:FD:AE:75:3D:16:55:27:83:6C:ED:4D:FE:D6:EA:F5:4D:6F:BD
                DirName:/CN=team449-net
                serial:62:7A:72:89:A8:79:81:22:4A:14:D0:8F:2A:07:63:50:3A:48:01:60

            X509v3 Extended Key Usage: 
                TLS Web Client Authentication
            X509v3 Key Usage: 
                Digital Signature
    Signature Algorithm: sha256WithRSAEncryption
         b0:ed:1e:04:46:1b:92:66:67:c9:b9:b2:e3:16:26:23:be:ef:
         38:7e:dc:34:2a:74:f0:87:6f:07:7a:7d:22:c8:af:9e:41:0a:
         de:46:47:33:54:64:5b:c6:4f:fa:2c:76:da:dd:b2:b9:db:f3:
         af:b3:76:bd:91:c2:a0:bb:7f:2d:f1:e5:72:79:fc:62:45:ad:
         b5:2e:39:23:4a:a3:7d:8d:05:f1:72:d0:75:ed:cf:96:77:68:
         ad:3d:eb:f9:af:46:72:b7:65:34:2b:a0:e2:0f:47:59:33:9f:
         f3:3a:96:1b:d2:57:70:73:11:18:8b:50:5a:87:c5:81:5e:c1:
         6a:54:9f:4e:bb:68:3c:fb:ad:31:7c:30:80:a9:b7:56:02:37:
         b7:62:25:37:67:55:27:67:49:ab:a4:d5:79:db:35:b9:1e:e3:
         9e:5e:5d:2c:dc:eb:02:d3:14:7f:12:e4:7b:24:8a:69:00:ab:
         36:87:12:fb:19:09:c8:aa:3a:77:69:f8:f7:44:6e:bb:2c:6c:
         cf:06:60:e5:4f:b7:7f:62:b0:8b:54:3a:9e:25:a3:9c:0d:b9:
         ef:6f:1f:a9:b1:a9:cb:e7:8d:2a:c9:22:5a:2b:e6:16:5d:44:
         f3:a8:83:59:4e:15:9b:4f:48:d8:27:2e:1e:56:76:4f:ac:f6:
         35:6b:78:5b
-----BEGIN CERTIFICATE-----
MIIDXDCCAkSgAwIBAgIQPbq3o8ooXTiSNjwcvWY5KjANBgkqhkiG9w0BAQsFADAW
MRQwEgYDVQQDDAt0ZWFtNDQ5LW5ldDAeFw0yMTA5MTMwMjQxMDhaFw0yNDA4Mjgw
MjQxMDhaMBkxFzAVBgNVBAMMDnRlYW00NDktY2xpZW50MIIBIjANBgkqhkiG9w0B
AQEFAAOCAQ8AMIIBCgKCAQEAwcF9Loos9klS9l1vJZ/ySjlBnqwnmZlosb466jce
XBiCfaQFaJDgfCCYQPFZt3PdVRttMyi29cDnADG3BLarFpv63jeX+wZZF3e29COJ
JsIoefVdc7wORvY/nrhMPk5dg/ru8gTbaioA3hqctxczmLXvlFBHdlyo3FrMSCIx
BtPdDn27wPgZd4ib0yMI47Y3/GG0er8aKVd8W+8v0jvkaf41Gxsdk9gWUW3mcXN6
dfIOj5HVa6Fcb5moRyxiG+8JsTwoUHvtJh3b83Y/PnedPwXOHnRByX1rWWNRMkC0
m6ZcoHVF2v6+g9uDiD+5a+V7uWj7e3F4OHW3Rnum2jmaJwIDAQABo4GiMIGfMAkG
A1UdEwQCMAAwHQYDVR0OBBYEFJS5vQpG66D3844Dmht4ApOsc96rMFEGA1UdIwRK
MEiAFAnJ/a51PRZVJ4Ns7U3+1ur1TW+9oRqkGDAWMRQwEgYDVQQDDAt0ZWFtNDQ5
LW5ldIIUYnpyiah5gSJKFNCPKgdjUDpIAWAwEwYDVR0lBAwwCgYIKwYBBQUHAwIw
CwYDVR0PBAQDAgeAMA0GCSqGSIb3DQEBCwUAA4IBAQCw7R4ERhuSZmfJubLjFiYj
vu84ftw0KnTwh28Hen0iyK+eQQreRkczVGRbxk/6LHba3bK52/Ovs3a9kcKgu38t
8eVyefxiRa21LjkjSqN9jQXxctB17c+Wd2itPev5r0Zyt2U0K6DiD0dZM5/zOpYb
0ldwcxEYi1Bah8WBXsFqVJ9Ou2g8+60xfDCAqbdWAje3YiU3Z1UnZ0mrpNV52zW5
HuOeXl0s3OsC0xR/EuR7JIppAKs2hxL7GQnIqjp3afj3RG67LGzPBmDlT7d/YrCL
VDqeJaOcDbnvbx+psanL540qySJaK+YWXUTzqINZThWbT0jYJy4eVnZPrPY1a3hb
-----END CERTIFICATE-----
