Certificate:
    Data:
        Version: 3 (0x2)
        Serial Number:
            99:7b:61:0e:45:75:9c:f7:9e:46:c1:12:76:93:76:c5
        Signature Algorithm: sha256WithRSAEncryption
        Issuer: CN=team286-net
        Validity
            Not Before: Sep 13 01:17:17 2021 GMT
            Not After : Aug 28 01:17:17 2024 GMT
        Subject: CN=team286-client
        Subject Public Key Info:
            Public Key Algorithm: rsaEncryption
                RSA Public-Key: (2048 bit)
                Modulus:
                    00:bc:cf:30:f3:4e:ed:ed:94:75:f6:65:16:e7:18:
                    99:a8:cd:4a:66:3b:6e:42:9d:e1:b8:23:72:00:60:
                    89:08:5d:10:14:b7:57:8e:f3:c6:80:bf:6f:95:46:
                    ae:b1:43:0e:f2:33:63:e9:f5:dd:51:68:80:0c:9c:
                    f3:24:ad:78:e1:da:77:af:d0:cd:45:11:d9:72:4e:
                    c9:95:10:c5:66:d2:b6:2c:f3:33:84:17:66:1f:36:
                    35:f5:a7:d0:ca:68:62:4a:78:73:30:09:d0:ae:80:
                    48:e1:7a:e8:f3:30:da:6a:ff:0b:54:6a:d8:9e:b8:
                    44:0e:8c:ef:23:5d:b7:60:11:b7:1c:0e:a6:ce:89:
                    ef:49:7f:b6:11:3e:55:69:75:69:19:18:cc:e8:c5:
                    eb:82:0d:fc:ea:be:cc:af:97:dd:6c:63:27:f1:ae:
                    4e:e7:62:62:90:b3:a4:6f:b0:77:6f:aa:cb:36:b8:
                    6f:5d:58:20:6f:69:cd:b3:82:da:95:02:39:4a:b6:
                    d5:a2:de:7a:a7:8b:d0:7b:4d:38:eb:5a:20:b6:25:
                    c7:bb:13:0e:05:ae:0e:b8:06:18:c5:e6:90:73:e6:
                    b1:5f:88:42:2f:2f:8d:71:4b:76:7f:4b:e3:5c:30:
                    d6:a6:66:dd:aa:11:5f:c5:03:46:b7:dd:86:68:6a:
                    ca:21
                Exponent: 65537 (0x10001)
        X509v3 extensions:
            X509v3 Basic Constraints: 
                CA:FALSE
            X509v3 Subject Key Identifier: 
                CC:18:0A:D6:89:1B:45:5C:68:C7:53:C7:4B:3D:8D:24:99:12:0D:65
            X509v3 Authority Key Identifier: 
                keyid:C9:58:B2:FD:04:46:45:3F:14:B0:56:B1:FC:8D:6C:69:10:F7:3F:12
                DirName:/CN=team286-net
                serial:41:12:DB:09:2A:92:C0:59:33:16:D7:B3:47:48:FC:73:70:57:06:25

            X509v3 Extended Key Usage: 
                TLS Web Client Authentication
            X509v3 Key Usage: 
                Digital Signature
    Signature Algorithm: sha256WithRSAEncryption
         42:f6:27:14:44:cf:f4:5d:a3:ec:f5:46:37:9f:03:f2:41:60:
         b4:ed:83:74:fe:aa:5d:e0:1a:c3:21:72:7f:ef:32:d1:5c:fd:
         04:f1:a0:a1:74:46:f6:36:4f:de:fe:fe:06:3f:88:97:39:bc:
         07:c4:01:31:a3:0f:f1:7a:6b:ff:8d:59:2c:f5:6e:dc:83:f0:
         27:fa:48:33:00:ba:f1:70:10:09:c8:83:db:ee:ce:d4:ec:9a:
         a5:e9:0a:a1:db:0d:01:73:f5:45:e1:f5:e1:84:8e:ef:02:21:
         29:2e:37:7c:cd:96:df:69:de:74:34:56:82:ed:05:ff:c2:41:
         4b:84:af:80:65:68:d7:85:67:4e:11:21:9b:88:03:ea:02:1d:
         23:72:e1:ea:f1:d7:d1:5b:27:05:a0:61:1d:a9:36:c9:8b:93:
         be:6d:ec:29:7e:00:0e:df:ba:67:40:ca:d6:24:d2:e8:8e:d5:
         fd:ac:5e:6e:ea:f3:7d:10:28:ba:15:1c:e9:df:22:6e:d0:16:
         85:ee:10:10:96:7b:c4:d4:cc:5a:bf:03:a2:60:25:01:39:2a:
         ae:04:3f:1b:23:5c:64:99:db:95:33:dd:ba:60:31:1b:e0:8f:
         9d:34:a1:5d:f5:17:bc:91:e0:d6:cf:ba:f2:d7:72:96:11:2b:
         b3:45:41:83
-----BEGIN CERTIFICATE-----
MIIDXTCCAkWgAwIBAgIRAJl7YQ5FdZz3nkbBEnaTdsUwDQYJKoZIhvcNAQELBQAw
FjEUMBIGA1UEAwwLdGVhbTI4Ni1uZXQwHhcNMjEwOTEzMDExNzE3WhcNMjQwODI4
MDExNzE3WjAZMRcwFQYDVQQDDA50ZWFtMjg2LWNsaWVudDCCASIwDQYJKoZIhvcN
AQEBBQADggEPADCCAQoCggEBALzPMPNO7e2UdfZlFucYmajNSmY7bkKd4bgjcgBg
iQhdEBS3V47zxoC/b5VGrrFDDvIzY+n13VFogAyc8ySteOHad6/QzUUR2XJOyZUQ
xWbStizzM4QXZh82NfWn0MpoYkp4czAJ0K6ASOF66PMw2mr/C1Rq2J64RA6M7yNd
t2ARtxwOps6J70l/thE+VWl1aRkYzOjF64IN/Oq+zK+X3WxjJ/GuTudiYpCzpG+w
d2+qyza4b11YIG9pzbOC2pUCOUq21aLeeqeL0HtNOOtaILYlx7sTDgWuDrgGGMXm
kHPmsV+IQi8vjXFLdn9L41ww1qZm3aoRX8UDRrfdhmhqyiECAwEAAaOBojCBnzAJ
BgNVHRMEAjAAMB0GA1UdDgQWBBTMGArWiRtFXGjHU8dLPY0kmRINZTBRBgNVHSME
SjBIgBTJWLL9BEZFPxSwVrH8jWxpEPc/EqEapBgwFjEUMBIGA1UEAwwLdGVhbTI4
Ni1uZXSCFEES2wkqksBZMxbXs0dI/HNwVwYlMBMGA1UdJQQMMAoGCCsGAQUFBwMC
MAsGA1UdDwQEAwIHgDANBgkqhkiG9w0BAQsFAAOCAQEAQvYnFETP9F2j7PVGN58D
8kFgtO2DdP6qXeAawyFyf+8y0Vz9BPGgoXRG9jZP3v7+Bj+Ilzm8B8QBMaMP8Xpr
/41ZLPVu3IPwJ/pIMwC68XAQCciD2+7O1OyapekKodsNAXP1ReH14YSO7wIhKS43
fM2W32nedDRWgu0F/8JBS4SvgGVo14VnThEhm4gD6gIdI3Lh6vHX0VsnBaBhHak2
yYuTvm3sKX4ADt+6Z0DK1iTS6I7V/axeburzfRAouhUc6d8ibtAWhe4QEJZ7xNTM
Wr8DomAlATkqrgQ/GyNcZJnblTPdumAxG+CPnTShXfUXvJHg1s+68tdylhErs0VB
gw==
-----END CERTIFICATE-----
