Certificate:
    Data:
        Version: 3 (0x2)
        Serial Number:
            85:74:d1:d0:d4:0a:f6:bc:49:51:c8:0d:64:2f:9e:81
        Signature Algorithm: sha256WithRSAEncryption
        Issuer: CN=team373-net
        Validity
            Not Before: Sep 13 02:09:19 2021 GMT
            Not After : Aug 28 02:09:19 2024 GMT
        Subject: CN=team373-server
        Subject Public Key Info:
            Public Key Algorithm: rsaEncryption
                RSA Public-Key: (2048 bit)
                Modulus:
                    00:cb:36:09:84:d7:18:1c:a2:cf:61:cf:e6:28:2e:
                    31:da:41:df:c9:2a:a7:25:3f:08:78:99:2a:61:5c:
                    dd:1d:fd:2c:a9:88:62:56:ce:83:75:39:8f:65:d6:
                    64:42:e5:4e:40:a2:25:a4:d3:ea:4a:e6:1b:2e:48:
                    a6:48:63:14:05:25:17:d0:08:11:fa:e6:ba:0d:0f:
                    9a:8b:cf:73:c5:21:92:4d:a1:d9:c6:87:aa:c7:83:
                    e6:bb:1c:29:93:44:8b:00:f0:1a:a5:a4:87:dd:87:
                    a4:ba:06:52:1f:cb:96:89:82:d3:87:fb:5e:43:01:
                    26:41:59:55:aa:16:e6:4f:b6:eb:31:bf:ae:82:c0:
                    54:74:11:55:29:be:cc:8f:66:73:07:81:50:8a:84:
                    81:65:30:f1:eb:1b:aa:c8:0a:36:5b:91:b8:06:c0:
                    cb:59:31:e8:e4:df:79:64:f5:b2:d9:d2:83:6a:a0:
                    ed:3b:98:b9:32:ce:ce:28:c4:8b:af:8a:24:79:67:
                    3e:16:ad:a2:1a:11:5d:0f:b1:b5:59:64:0d:28:e4:
                    bc:be:6e:e7:a5:ce:6b:ca:6c:39:5f:fe:80:4b:8e:
                    96:83:0a:c1:19:41:04:07:fa:76:fa:b9:b7:94:31:
                    65:d0:4f:c3:96:27:32:31:e3:3a:68:62:79:1a:e8:
                    d8:0b
                Exponent: 65537 (0x10001)
        X509v3 extensions:
            X509v3 Basic Constraints: 
                CA:FALSE
            X509v3 Subject Key Identifier: 
                21:D3:E5:C6:1F:FC:EF:1E:A4:DF:AB:3B:BE:68:53:B5:01:00:81:8D
            X509v3 Authority Key Identifier: 
                keyid:EE:25:C4:F7:C6:AF:9F:46:A7:3A:75:79:4C:07:D1:7C:EA:1D:A2:2A
                DirName:/CN=team373-net
                serial:72:D3:64:43:0B:70:43:55:B8:99:5D:FA:98:4B:F5:B3:4E:9C:2B:64

            X509v3 Extended Key Usage: 
                TLS Web Server Authentication
            X509v3 Key Usage: 
                Digital Signature, Key Encipherment
            X509v3 Subject Alternative Name: 
                DNS:team373-server
    Signature Algorithm: sha256WithRSAEncryption
         99:6b:bf:36:7b:0d:44:f6:01:c2:d1:18:a5:26:f3:5c:a4:52:
         24:4b:fd:44:e0:a5:13:3a:5f:55:f5:a8:0c:1a:d5:4d:7b:27:
         a7:16:ef:95:c3:94:31:83:5b:51:d6:64:cc:2c:f2:ef:aa:3d:
         c8:99:48:6f:d7:24:c8:7a:d4:d9:48:77:65:ac:61:95:8f:41:
         d6:61:c0:0f:72:60:a7:88:be:9a:2f:df:17:cf:76:14:4e:0e:
         b3:3b:8c:d6:5d:ef:64:b2:28:de:46:61:22:b4:a8:83:21:47:
         4f:c5:fa:fe:51:41:65:f6:a0:b9:2d:30:e6:77:59:91:28:0b:
         54:5c:79:64:7a:c0:3d:75:8d:6e:41:cc:5c:1e:1f:8c:b9:e5:
         98:0a:7f:5c:4e:86:bd:5c:2b:7a:51:2d:49:51:a7:92:9e:15:
         a5:e5:81:0e:4e:a0:e8:36:0b:20:d0:c3:e4:47:2e:49:90:33:
         22:18:44:4b:1d:c0:a1:52:48:3a:b8:f3:20:10:64:40:7c:93:
         ad:e2:56:1a:49:04:d2:a0:48:03:4f:ff:39:1f:48:cf:a0:da:
         81:e6:69:ac:bb:13:7b:1d:05:fc:bd:a2:22:37:91:7f:a3:50:
         36:b1:84:ff:46:f3:c1:c2:8e:46:e4:c3:18:cb:ab:58:34:45:
         aa:4a:65:f7
-----BEGIN CERTIFICATE-----
MIIDeDCCAmCgAwIBAgIRAIV00dDUCva8SVHIDWQvnoEwDQYJKoZIhvcNAQELBQAw
FjEUMBIGA1UEAwwLdGVhbTM3My1uZXQwHhcNMjEwOTEzMDIwOTE5WhcNMjQwODI4
MDIwOTE5WjAZMRcwFQYDVQQDDA50ZWFtMzczLXNlcnZlcjCCASIwDQYJKoZIhvcN
AQEBBQADggEPADCCAQoCggEBAMs2CYTXGByiz2HP5iguMdpB38kqpyU/CHiZKmFc
3R39LKmIYlbOg3U5j2XWZELlTkCiJaTT6krmGy5IpkhjFAUlF9AIEfrmug0PmovP
c8Uhkk2h2caHqseD5rscKZNEiwDwGqWkh92HpLoGUh/LlomC04f7XkMBJkFZVaoW
5k+26zG/roLAVHQRVSm+zI9mcweBUIqEgWUw8esbqsgKNluRuAbAy1kx6OTfeWT1
stnSg2qg7TuYuTLOzijEi6+KJHlnPhatohoRXQ+xtVlkDSjkvL5u56XOa8psOV/+
gEuOloMKwRlBBAf6dvq5t5QxZdBPw5YnMjHjOmhieRro2AsCAwEAAaOBvTCBujAJ
BgNVHRMEAjAAMB0GA1UdDgQWBBQh0+XGH/zvHqTfqzu+aFO1AQCBjTBRBgNVHSME
SjBIgBTuJcT3xq+fRqc6dXlMB9F86h2iKqEapBgwFjEUMBIGA1UEAwwLdGVhbTM3
My1uZXSCFHLTZEMLcENVuJld+phL9bNOnCtkMBMGA1UdJQQMMAoGCCsGAQUFBwMB
MAsGA1UdDwQEAwIFoDAZBgNVHREEEjAQgg50ZWFtMzczLXNlcnZlcjANBgkqhkiG
9w0BAQsFAAOCAQEAmWu/NnsNRPYBwtEYpSbzXKRSJEv9ROClEzpfVfWoDBrVTXsn
pxbvlcOUMYNbUdZkzCzy76o9yJlIb9ckyHrU2Uh3ZaxhlY9B1mHAD3Jgp4i+mi/f
F892FE4OszuM1l3vZLIo3kZhIrSogyFHT8X6/lFBZfaguS0w5ndZkSgLVFx5ZHrA
PXWNbkHMXB4fjLnlmAp/XE6GvVwrelEtSVGnkp4VpeWBDk6g6DYLINDD5EcuSZAz
IhhESx3AoVJIOrjzIBBkQHyTreJWGkkE0qBIA0//OR9Iz6DageZprLsTex0F/L2i
IjeRf6NQNrGE/0bzwcKORuTDGMurWDRFqkpl9w==
-----END CERTIFICATE-----
