Certificate:
    Data:
        Version: 3 (0x2)
        Serial Number:
            9a:2c:90:9f:6c:9d:3a:0c:c9:59:f1:1f:9c:13:23:14
        Signature Algorithm: sha256WithRSAEncryption
        Issuer: CN=team373-net
        Validity
            Not Before: Sep 13 02:09:19 2021 GMT
            Not After : Aug 28 02:09:19 2024 GMT
        Subject: CN=team373-client
        Subject Public Key Info:
            Public Key Algorithm: rsaEncryption
                RSA Public-Key: (2048 bit)
                Modulus:
                    00:ac:0e:e6:73:d8:62:2c:4a:6c:49:3f:ac:22:36:
                    b4:65:3e:2b:26:b0:d7:eb:16:bd:b8:ee:91:4e:4f:
                    73:d6:41:1f:6e:92:71:90:a6:cc:01:d9:62:b2:0a:
                    b9:06:d3:1e:09:68:b0:e6:e1:b8:11:82:a4:18:7b:
                    3c:0a:5a:c7:ec:d6:0b:6f:bd:54:0a:4d:74:58:9e:
                    6f:ec:d6:e6:0d:58:78:65:01:0e:8a:1b:8e:b9:15:
                    69:79:30:a2:6c:47:b1:e1:64:f6:b7:bb:78:6e:07:
                    84:c3:5a:c5:ed:cd:8e:40:e3:b3:71:29:f3:81:9e:
                    73:bd:ba:98:b9:0f:b8:91:05:00:0e:a8:9d:52:24:
                    f9:e9:ea:d1:a8:4c:6a:9d:40:b0:68:d4:16:6c:91:
                    10:8d:cd:05:8d:7a:f0:d9:14:ea:b1:d5:c5:42:06:
                    98:d4:c6:88:3c:5c:56:16:2b:ac:21:45:23:29:89:
                    b2:aa:96:c5:76:71:02:a6:05:7c:de:59:3a:ba:99:
                    67:4d:b1:96:62:bb:bd:92:34:62:ad:17:c6:1f:31:
                    49:67:36:4d:b5:52:61:05:21:2c:c1:da:36:37:c6:
                    cf:d7:88:b7:71:92:93:ac:46:89:59:eb:0c:76:9f:
                    a3:8f:16:b1:17:c2:1a:3a:40:9b:2e:82:ba:da:b5:
                    c3:0f
                Exponent: 65537 (0x10001)
        X509v3 extensions:
            X509v3 Basic Constraints: 
                CA:FALSE
            X509v3 Subject Key Identifier: 
                5A:BE:2E:82:32:55:6F:B5:B3:23:80:8B:D0:ED:0E:C1:78:7A:5D:A6
            X509v3 Authority Key Identifier: 
                keyid:EE:25:C4:F7:C6:AF:9F:46:A7:3A:75:79:4C:07:D1:7C:EA:1D:A2:2A
                DirName:/CN=team373-net
                serial:72:D3:64:43:0B:70:43:55:B8:99:5D:FA:98:4B:F5:B3:4E:9C:2B:64

            X509v3 Extended Key Usage: 
                TLS Web Client Authentication
            X509v3 Key Usage: 
                Digital Signature
    Signature Algorithm: sha256WithRSAEncryption
         29:cd:89:25:8b:7e:51:61:ca:86:e1:71:f2:d9:b1:eb:ac:b4:
         00:65:3b:de:b2:a9:e7:e6:a6:28:b1:a8:65:10:7d:7d:53:5f:
         88:9e:d2:6a:fd:78:8c:16:de:1a:e6:67:4f:d5:79:e8:29:e0:
         33:29:5b:ae:76:12:37:ae:92:1e:7f:04:6e:6c:b2:05:e2:0d:
         2f:a0:2d:7d:bd:27:d9:a1:b9:f6:9e:2c:ca:84:99:c0:85:42:
         3f:5a:2a:58:f5:28:e0:a0:a6:94:97:bc:9a:96:e9:21:39:64:
         55:18:da:16:08:7d:1a:3b:80:b9:98:49:95:d8:d8:7c:14:06:
         f1:92:f6:86:ee:46:03:e1:76:20:15:5f:98:b7:97:08:15:a8:
         2b:c4:cb:63:52:0f:4e:e3:66:2f:7e:5b:8e:9e:e8:bc:1c:44:
         16:49:02:2f:c0:2d:18:6b:61:0d:e1:2a:2a:32:8b:95:88:a7:
         44:6a:e0:1b:6d:7e:f3:dc:05:ab:42:b1:ce:3e:d3:a4:94:3b:
         cc:7d:c1:e5:f6:2e:f2:1a:4a:e4:3a:ba:7c:18:64:b6:3c:22:
         14:4c:09:49:df:8e:02:27:55:1d:cd:bd:ad:2b:08:7f:c3:4f:
         00:29:27:b4:eb:42:4d:97:9f:35:78:3a:3b:13:99:31:e7:e5:
         67:37:40:5c
-----BEGIN CERTIFICATE-----
MIIDXTCCAkWgAwIBAgIRAJoskJ9snToMyVnxH5wTIxQwDQYJKoZIhvcNAQELBQAw
FjEUMBIGA1UEAwwLdGVhbTM3My1uZXQwHhcNMjEwOTEzMDIwOTE5WhcNMjQwODI4
MDIwOTE5WjAZMRcwFQYDVQQDDA50ZWFtMzczLWNsaWVudDCCASIwDQYJKoZIhvcN
AQEBBQADggEPADCCAQoCggEBAKwO5nPYYixKbEk/rCI2tGU+Kyaw1+sWvbjukU5P
c9ZBH26ScZCmzAHZYrIKuQbTHglosObhuBGCpBh7PApax+zWC2+9VApNdFieb+zW
5g1YeGUBDoobjrkVaXkwomxHseFk9re7eG4HhMNaxe3NjkDjs3Ep84Gec726mLkP
uJEFAA6onVIk+enq0ahMap1AsGjUFmyREI3NBY168NkU6rHVxUIGmNTGiDxcVhYr
rCFFIymJsqqWxXZxAqYFfN5ZOrqZZ02xlmK7vZI0Yq0Xxh8xSWc2TbVSYQUhLMHa
NjfGz9eIt3GSk6xGiVnrDHafo48WsRfCGjpAmy6Cutq1ww8CAwEAAaOBojCBnzAJ
BgNVHRMEAjAAMB0GA1UdDgQWBBRavi6CMlVvtbMjgIvQ7Q7BeHpdpjBRBgNVHSME
SjBIgBTuJcT3xq+fRqc6dXlMB9F86h2iKqEapBgwFjEUMBIGA1UEAwwLdGVhbTM3
My1uZXSCFHLTZEMLcENVuJld+phL9bNOnCtkMBMGA1UdJQQMMAoGCCsGAQUFBwMC
MAsGA1UdDwQEAwIHgDANBgkqhkiG9w0BAQsFAAOCAQEAKc2JJYt+UWHKhuFx8tmx
66y0AGU73rKp5+amKLGoZRB9fVNfiJ7Sav14jBbeGuZnT9V56CngMylbrnYSN66S
Hn8EbmyyBeINL6Atfb0n2aG59p4syoSZwIVCP1oqWPUo4KCmlJe8mpbpITlkVRja
Fgh9GjuAuZhJldjYfBQG8ZL2hu5GA+F2IBVfmLeXCBWoK8TLY1IPTuNmL35bjp7o
vBxEFkkCL8AtGGthDeEqKjKLlYinRGrgG21+89wFq0Kxzj7TpJQ7zH3B5fYu8hpK
5Dq6fBhktjwiFEwJSd+OAidVHc29rSsIf8NPACkntOtCTZefNXg6OxOZMeflZzdA
XA==
-----END CERTIFICATE-----
