Certificate:
    Data:
        Version: 3 (0x2)
        Serial Number:
            67:60:58:ae:de:0d:ba:fa:af:b3:a6:7c:e5:01:30:8c
        Signature Algorithm: sha256WithRSAEncryption
        Issuer: CN=team738-net
        Validity
            Not Before: Sep 13 05:42:56 2021 GMT
            Not After : Aug 28 05:42:56 2024 GMT
        Subject: CN=team738-server
        Subject Public Key Info:
            Public Key Algorithm: rsaEncryption
                RSA Public-Key: (2048 bit)
                Modulus:
                    00:c5:46:88:5e:ff:04:59:47:38:5c:bd:71:00:2b:
                    61:cb:a5:5f:b8:22:a3:08:69:93:17:ca:89:08:d4:
                    cc:a7:c7:fd:65:91:52:0b:f5:67:f2:e3:0d:b6:c5:
                    9b:1c:d3:95:65:4e:00:e9:d4:42:90:ad:88:72:8e:
                    54:75:56:90:d9:d0:43:df:95:c0:56:57:8d:b8:d9:
                    1f:d7:ba:f1:ac:6d:bb:bf:b9:b2:be:5d:13:12:b7:
                    59:ec:c1:fd:b4:86:a3:ab:09:7f:ef:de:b5:be:3b:
                    4a:0a:09:7a:53:24:aa:11:a7:2b:1a:32:46:83:75:
                    76:e7:5a:c3:70:31:3e:48:73:c2:f1:d5:2a:e8:86:
                    c4:fb:77:a7:4a:7b:9b:1f:73:41:a7:56:66:a9:cf:
                    7a:cb:4e:4f:08:4f:65:c6:e2:4c:5c:7f:51:a5:ba:
                    fa:2a:cd:7e:63:f5:4e:9a:ec:30:43:d2:63:a7:7f:
                    88:2e:bf:96:1e:22:b4:18:5c:dc:21:35:51:ae:b5:
                    70:9e:db:9d:8a:1b:87:78:c5:03:8c:4e:3f:db:07:
                    d6:ae:02:c9:33:81:d9:8c:2c:ab:ff:fd:77:3c:91:
                    30:be:c6:4a:3c:0b:ea:42:fe:b8:2f:03:b5:06:e4:
                    78:08:6f:0f:19:09:05:c2:cf:ec:64:0f:be:a8:75:
                    c4:99
                Exponent: 65537 (0x10001)
        X509v3 extensions:
            X509v3 Basic Constraints: 
                CA:FALSE
            X509v3 Subject Key Identifier: 
                DB:C1:11:F5:5E:5B:B9:55:D0:C6:42:9E:AA:A1:4F:86:D5:47:D3:1C
            X509v3 Authority Key Identifier: 
                keyid:FD:FB:90:D0:57:FA:AA:A7:D2:4A:68:62:52:79:4B:CA:BC:E2:C1:2A
                DirName:/CN=team738-net
                serial:57:8C:1F:6C:8B:B2:78:38:70:CD:8B:B5:9E:BA:71:ED:0E:25:F4:79

            X509v3 Extended Key Usage: 
                TLS Web Server Authentication
            X509v3 Key Usage: 
                Digital Signature, Key Encipherment
            X509v3 Subject Alternative Name: 
                DNS:team738-server
    Signature Algorithm: sha256WithRSAEncryption
         9c:fa:96:0c:49:8e:0b:d4:29:70:a1:f8:4a:cd:82:6a:69:cf:
         6c:04:88:7b:af:99:77:12:2d:c8:10:77:98:67:f0:ba:b0:ef:
         e9:02:ec:a7:8e:0b:d3:05:f1:ce:b7:fd:b3:6d:f5:61:14:5f:
         63:3d:e8:90:27:7d:ae:57:3e:ae:4d:80:ac:4e:89:c7:45:2d:
         38:c9:7a:64:7c:62:60:27:9e:ab:83:18:b9:f5:0c:27:d9:d5:
         ec:4e:f4:6c:0a:bd:a1:73:c1:a5:b7:99:79:0b:b1:ad:2b:89:
         59:85:9f:4d:f0:cd:10:55:df:cf:71:1a:cf:11:36:6f:57:56:
         a6:6f:70:88:d1:d4:e7:f2:13:a6:cd:c3:ba:87:09:5d:7c:97:
         72:31:27:06:41:44:51:9b:8a:51:4e:6f:be:f3:66:0f:47:5b:
         8d:7c:e6:da:e4:f7:ac:3a:9a:62:33:10:08:a7:5e:6c:6b:d0:
         1b:3f:3f:93:32:13:c3:80:4f:6f:89:73:41:6d:6d:62:06:60:
         be:9f:f8:1f:8f:09:68:5b:cd:5e:9d:04:63:d1:1c:6c:0c:5f:
         69:63:ec:89:7e:cc:60:4a:93:47:f6:da:57:8a:a0:ae:0e:df:
         b8:a1:eb:ee:7a:d8:36:2a:f9:ac:b1:5b:9b:ab:f1:e4:0a:3a:
         0c:f3:e5:5b
-----BEGIN CERTIFICATE-----
MIIDdzCCAl+gAwIBAgIQZ2BYrt4Nuvqvs6Z85QEwjDANBgkqhkiG9w0BAQsFADAW
MRQwEgYDVQQDDAt0ZWFtNzM4LW5ldDAeFw0yMTA5MTMwNTQyNTZaFw0yNDA4Mjgw
NTQyNTZaMBkxFzAVBgNVBAMMDnRlYW03Mzgtc2VydmVyMIIBIjANBgkqhkiG9w0B
AQEFAAOCAQ8AMIIBCgKCAQEAxUaIXv8EWUc4XL1xACthy6VfuCKjCGmTF8qJCNTM
p8f9ZZFSC/Vn8uMNtsWbHNOVZU4A6dRCkK2Ico5UdVaQ2dBD35XAVleNuNkf17rx
rG27v7myvl0TErdZ7MH9tIajqwl/7961vjtKCgl6UySqEacrGjJGg3V251rDcDE+
SHPC8dUq6IbE+3enSnubH3NBp1Zmqc96y05PCE9lxuJMXH9Rpbr6Ks1+Y/VOmuww
Q9Jjp3+ILr+WHiK0GFzcITVRrrVwntudihuHeMUDjE4/2wfWrgLJM4HZjCyr//13
PJEwvsZKPAvqQv64LwO1BuR4CG8PGQkFws/sZA++qHXEmQIDAQABo4G9MIG6MAkG
A1UdEwQCMAAwHQYDVR0OBBYEFNvBEfVeW7lV0MZCnqqhT4bVR9McMFEGA1UdIwRK
MEiAFP37kNBX+qqn0kpoYlJ5S8q84sEqoRqkGDAWMRQwEgYDVQQDDAt0ZWFtNzM4
LW5ldIIUV4wfbIuyeDhwzYu1nrpx7Q4l9HkwEwYDVR0lBAwwCgYIKwYBBQUHAwEw
CwYDVR0PBAQDAgWgMBkGA1UdEQQSMBCCDnRlYW03Mzgtc2VydmVyMA0GCSqGSIb3
DQEBCwUAA4IBAQCc+pYMSY4L1ClwofhKzYJqac9sBIh7r5l3Ei3IEHeYZ/C6sO/p
AuynjgvTBfHOt/2zbfVhFF9jPeiQJ32uVz6uTYCsTonHRS04yXpkfGJgJ56rgxi5
9Qwn2dXsTvRsCr2hc8Glt5l5C7GtK4lZhZ9N8M0QVd/PcRrPETZvV1amb3CI0dTn
8hOmzcO6hwldfJdyMScGQURRm4pRTm++82YPR1uNfOba5PesOppiMxAIp15sa9Ab
Pz+TMhPDgE9viXNBbW1iBmC+n/gfjwloW81enQRj0RxsDF9pY+yJfsxgSpNH9tpX
iqCuDt+4oevuetg2KvmssVubq/HkCjoM8+Vb
-----END CERTIFICATE-----
