Certificate:
    Data:
        Version: 3 (0x2)
        Serial Number:
            87:f0:3a:d7:96:8d:c2:bd:1f:9e:a5:7e:8b:c5:96:d1
        Signature Algorithm: sha256WithRSAEncryption
        Issuer: CN=team230-net
        Validity
            Not Before: Sep 13 00:52:42 2021 GMT
            Not After : Aug 28 00:52:42 2024 GMT
        Subject: CN=team230-client
        Subject Public Key Info:
            Public Key Algorithm: rsaEncryption
                RSA Public-Key: (2048 bit)
                Modulus:
                    00:ca:c4:48:a4:b7:0b:ff:4d:14:61:c6:15:e8:0c:
                    4f:a9:e7:4b:98:8d:a4:fa:97:27:97:dd:40:31:16:
                    ed:67:43:ea:10:e6:30:34:e4:83:d5:fb:1a:1b:df:
                    c4:0c:33:29:90:9c:c8:5c:74:4f:e5:dc:18:18:31:
                    90:e0:95:c6:d8:d5:45:b4:33:38:3c:29:64:5d:74:
                    92:05:36:f1:05:3a:87:a9:21:1b:04:09:bd:1b:c2:
                    88:e2:3d:44:18:e1:c9:50:3b:6a:99:c0:6f:c6:8e:
                    8d:37:8a:ae:bb:db:c4:35:64:e0:98:ad:42:70:fb:
                    52:da:6b:44:86:cc:76:2f:ab:e9:e3:bc:23:1a:b1:
                    d2:92:95:bb:97:c3:3c:b0:1e:6f:19:6a:78:ba:99:
                    a2:c5:c1:6f:f6:b8:cf:db:b1:a4:3a:e4:ac:3d:96:
                    ea:55:b1:88:34:f6:f9:9f:f4:6f:c3:a8:ef:64:14:
                    b4:77:40:4e:37:dc:c1:ac:11:e3:51:37:d1:52:57:
                    6d:82:58:ef:2d:3e:b9:1e:9f:13:06:69:e7:bb:25:
                    db:b5:c4:83:71:97:c9:95:55:19:7c:48:b9:32:f3:
                    57:31:89:98:7d:14:29:9b:11:12:46:40:ae:0e:27:
                    7e:b2:93:a6:e8:ca:9b:2e:11:0c:0a:31:e2:65:21:
                    67:79
                Exponent: 65537 (0x10001)
        X509v3 extensions:
            X509v3 Basic Constraints: 
                CA:FALSE
            X509v3 Subject Key Identifier: 
                9C:E0:F6:32:72:45:CF:DF:36:7F:2C:F6:88:8A:A8:44:D8:98:70:13
            X509v3 Authority Key Identifier: 
                keyid:E1:3F:D0:36:32:EC:0A:D6:5B:D4:99:05:71:1E:A8:3C:1F:B8:4E:DC
                DirName:/CN=team230-net
                serial:4F:99:16:79:71:B0:68:63:32:E1:C0:28:82:AF:23:DF:5D:9E:38:D5

            X509v3 Extended Key Usage: 
                TLS Web Client Authentication
            X509v3 Key Usage: 
                Digital Signature
    Signature Algorithm: sha256WithRSAEncryption
         1c:a6:ef:7d:16:42:31:22:d7:37:90:24:e1:79:72:ea:5d:a8:
         c4:ad:ce:2b:81:dc:98:f3:dd:44:69:2d:88:ae:57:36:9f:33:
         59:74:99:49:ab:88:a0:ac:72:58:1b:c8:2b:24:97:f1:28:70:
         6f:c2:a4:b0:30:a5:f5:a1:fb:1e:84:a1:55:c4:bf:9f:6e:95:
         2f:ea:a5:6e:72:24:10:2c:67:65:55:ae:a2:c4:98:b7:79:33:
         af:18:c9:97:0b:3c:e8:3e:1f:3f:ec:cb:f5:e7:d7:35:4b:a6:
         9a:e4:e2:1c:d2:71:a1:cc:20:ed:1b:7b:c3:f1:31:bf:14:d7:
         3a:8b:a5:66:ac:f7:18:fa:f4:73:d3:36:f5:53:c5:8c:d3:e9:
         e2:4e:a5:fa:fa:d5:f8:24:6b:32:66:d8:a8:90:89:b4:31:07:
         b5:02:e0:0f:65:11:1c:2c:7c:2b:11:55:3c:ae:ab:0d:18:a2:
         ce:7e:35:82:a1:a2:b3:f6:0e:c6:33:b2:ec:58:33:e7:14:cc:
         31:ec:67:ef:a8:97:c0:27:cb:5e:c6:fd:0c:87:6a:6b:a2:95:
         22:46:1e:e7:00:8e:fc:90:89:1d:99:0b:44:6d:78:9d:b6:92:
         a2:59:cc:08:17:3b:f4:7c:42:67:81:1d:87:12:63:51:dc:c7:
         c7:de:ce:9e
-----BEGIN CERTIFICATE-----
MIIDXTCCAkWgAwIBAgIRAIfwOteWjcK9H56lfovFltEwDQYJKoZIhvcNAQELBQAw
FjEUMBIGA1UEAwwLdGVhbTIzMC1uZXQwHhcNMjEwOTEzMDA1MjQyWhcNMjQwODI4
MDA1MjQyWjAZMRcwFQYDVQQDDA50ZWFtMjMwLWNsaWVudDCCASIwDQYJKoZIhvcN
AQEBBQADggEPADCCAQoCggEBAMrESKS3C/9NFGHGFegMT6nnS5iNpPqXJ5fdQDEW
7WdD6hDmMDTkg9X7GhvfxAwzKZCcyFx0T+XcGBgxkOCVxtjVRbQzODwpZF10kgU2
8QU6h6khGwQJvRvCiOI9RBjhyVA7apnAb8aOjTeKrrvbxDVk4JitQnD7UtprRIbM
di+r6eO8Ixqx0pKVu5fDPLAebxlqeLqZosXBb/a4z9uxpDrkrD2W6lWxiDT2+Z/0
b8Oo72QUtHdATjfcwawR41E30VJXbYJY7y0+uR6fEwZp57sl27XEg3GXyZVVGXxI
uTLzVzGJmH0UKZsREkZArg4nfrKTpujKmy4RDAox4mUhZ3kCAwEAAaOBojCBnzAJ
BgNVHRMEAjAAMB0GA1UdDgQWBBSc4PYyckXP3zZ/LPaIiqhE2JhwEzBRBgNVHSME
SjBIgBThP9A2MuwK1lvUmQVxHqg8H7hO3KEapBgwFjEUMBIGA1UEAwwLdGVhbTIz
MC1uZXSCFE+ZFnlxsGhjMuHAKIKvI99dnjjVMBMGA1UdJQQMMAoGCCsGAQUFBwMC
MAsGA1UdDwQEAwIHgDANBgkqhkiG9w0BAQsFAAOCAQEAHKbvfRZCMSLXN5Ak4Xly
6l2oxK3OK4HcmPPdRGktiK5XNp8zWXSZSauIoKxyWBvIKySX8Shwb8KksDCl9aH7
HoShVcS/n26VL+qlbnIkECxnZVWuosSYt3kzrxjJlws86D4fP+zL9efXNUummuTi
HNJxocwg7Rt7w/ExvxTXOoulZqz3GPr0c9M29VPFjNPp4k6l+vrV+CRrMmbYqJCJ
tDEHtQLgD2URHCx8KxFVPK6rDRiizn41gqGis/YOxjOy7Fgz5xTMMexn76iXwCfL
Xsb9DIdqa6KVIkYe5wCO/JCJHZkLRG14nbaSolnMCBc79HxCZ4EdhxJjUdzHx97O
ng==
-----END CERTIFICATE-----
