Certificate:
    Data:
        Version: 3 (0x2)
        Serial Number:
            46:9d:a9:47:a3:43:3d:26:70:14:1c:dc:1a:00:bf:7d
        Signature Algorithm: sha256WithRSAEncryption
        Issuer: CN=team406-net
        Validity
            Not Before: Sep 13 02:26:54 2021 GMT
            Not After : Aug 28 02:26:54 2024 GMT
        Subject: CN=team406-client
        Subject Public Key Info:
            Public Key Algorithm: rsaEncryption
                RSA Public-Key: (2048 bit)
                Modulus:
                    00:b8:78:ea:fb:61:48:31:cc:c9:8d:78:36:41:11:
                    37:37:0a:fb:65:aa:f0:4c:b2:e2:ae:4c:13:37:95:
                    0b:a8:0a:0a:8f:29:80:fe:58:ff:34:58:20:d6:05:
                    d5:4e:45:38:6a:a8:ed:c9:4c:76:85:1c:dd:b7:17:
                    ea:bc:5a:f1:63:d4:6a:dc:6c:51:3d:35:5f:42:ca:
                    64:08:d4:8c:da:ff:79:c3:b8:00:a4:0b:f3:42:40:
                    b4:5c:78:0c:7a:d7:34:00:95:b4:a3:e8:bc:c5:31:
                    fa:45:96:86:e2:50:43:3e:0a:4b:9d:dc:73:9f:8b:
                    a0:14:bf:be:28:d6:f7:68:d9:5b:c6:af:66:4b:4c:
                    6a:41:26:62:3b:d4:e2:53:a1:d9:11:51:c6:33:55:
                    86:37:97:99:a8:fe:a4:17:b4:ff:ff:7b:98:8b:aa:
                    81:ed:c1:03:93:4c:16:36:5b:8f:d6:04:b2:6c:af:
                    ca:8d:5e:e6:16:60:56:b0:d8:54:26:7c:a6:09:18:
                    45:8f:74:e7:53:dd:89:42:9b:0e:ec:ae:e2:d4:18:
                    56:51:58:53:ae:23:52:f9:de:d2:75:b8:d2:33:09:
                    29:af:a9:3c:9a:83:d9:37:d2:46:80:dd:d0:7a:f8:
                    8b:15:5c:fc:83:d6:73:58:c5:62:92:35:15:d0:24:
                    2e:3b
                Exponent: 65537 (0x10001)
        X509v3 extensions:
            X509v3 Basic Constraints: 
                CA:FALSE
            X509v3 Subject Key Identifier: 
                9F:11:1B:6D:05:BA:47:2B:D3:B4:72:1D:92:6F:F8:FD:79:D1:42:A3
            X509v3 Authority Key Identifier: 
                keyid:03:26:F1:7D:B0:89:40:DF:56:5A:7C:42:76:61:99:60:45:D8:99:A1
                DirName:/CN=team406-net
                serial:5A:BE:66:9C:FE:71:C1:5C:D7:B6:7A:16:A3:7A:E1:EA:4A:5F:70:5F

            X509v3 Extended Key Usage: 
                TLS Web Client Authentication
            X509v3 Key Usage: 
                Digital Signature
    Signature Algorithm: sha256WithRSAEncryption
         7b:08:f5:89:25:36:13:cf:69:c0:f2:44:25:fe:0c:f3:56:0e:
         45:b2:81:44:cc:8a:8b:0f:1b:cf:da:15:47:76:45:8b:11:4a:
         e1:2f:a0:3d:ba:f4:69:03:85:f4:64:18:d6:55:4c:08:3f:d0:
         c9:0e:57:5f:48:4f:42:29:61:3e:a8:e0:aa:6a:2e:1f:0c:c3:
         1c:7b:ab:81:5a:29:0b:e1:dd:bf:d7:cb:8b:d0:2e:96:c3:71:
         59:0e:d8:fb:70:27:6e:6d:86:28:0d:84:07:48:3c:72:e6:ea:
         71:04:07:e8:d6:e5:b6:fc:d9:d1:72:b9:0a:b1:a0:64:78:df:
         f5:a8:ac:20:b8:83:d7:92:29:3b:58:69:82:ca:b2:cd:a0:b6:
         34:22:f7:12:46:cf:60:b5:88:28:52:47:03:bf:43:10:d1:58:
         81:04:c0:5f:a2:cc:6c:6f:69:d4:62:ca:d3:4b:e2:27:1c:34:
         ea:1e:c4:6e:67:87:ac:03:bb:d1:49:2a:69:2f:87:3b:45:70:
         b4:20:8a:c8:9d:a3:cf:a5:82:2f:a3:de:13:76:5a:db:7a:2b:
         18:b8:e7:dc:53:f6:23:ae:20:d2:8c:20:cf:bb:a3:a9:2c:dd:
         79:70:07:c4:29:c3:d5:f5:31:73:44:44:2e:e8:0b:75:98:4b:
         ab:ef:67:fe
-----BEGIN CERTIFICATE-----
MIIDXDCCAkSgAwIBAgIQRp2pR6NDPSZwFBzcGgC/fTANBgkqhkiG9w0BAQsFADAW
MRQwEgYDVQQDDAt0ZWFtNDA2LW5ldDAeFw0yMTA5MTMwMjI2NTRaFw0yNDA4Mjgw
MjI2NTRaMBkxFzAVBgNVBAMMDnRlYW00MDYtY2xpZW50MIIBIjANBgkqhkiG9w0B
AQEFAAOCAQ8AMIIBCgKCAQEAuHjq+2FIMczJjXg2QRE3Nwr7ZarwTLLirkwTN5UL
qAoKjymA/lj/NFgg1gXVTkU4aqjtyUx2hRzdtxfqvFrxY9Rq3GxRPTVfQspkCNSM
2v95w7gApAvzQkC0XHgMetc0AJW0o+i8xTH6RZaG4lBDPgpLndxzn4ugFL++KNb3
aNlbxq9mS0xqQSZiO9TiU6HZEVHGM1WGN5eZqP6kF7T//3uYi6qB7cEDk0wWNluP
1gSybK/KjV7mFmBWsNhUJnymCRhFj3TnU92JQpsO7K7i1BhWUVhTriNS+d7SdbjS
Mwkpr6k8moPZN9JGgN3QeviLFVz8g9ZzWMVikjUV0CQuOwIDAQABo4GiMIGfMAkG
A1UdEwQCMAAwHQYDVR0OBBYEFJ8RG20Fukcr07RyHZJv+P150UKjMFEGA1UdIwRK
MEiAFAMm8X2wiUDfVlp8QnZhmWBF2JmhoRqkGDAWMRQwEgYDVQQDDAt0ZWFtNDA2
LW5ldIIUWr5mnP5xwVzXtnoWo3rh6kpfcF8wEwYDVR0lBAwwCgYIKwYBBQUHAwIw
CwYDVR0PBAQDAgeAMA0GCSqGSIb3DQEBCwUAA4IBAQB7CPWJJTYTz2nA8kQl/gzz
Vg5FsoFEzIqLDxvP2hVHdkWLEUrhL6A9uvRpA4X0ZBjWVUwIP9DJDldfSE9CKWE+
qOCqai4fDMMce6uBWikL4d2/18uL0C6Ww3FZDtj7cCdubYYoDYQHSDxy5upxBAfo
1uW2/NnRcrkKsaBkeN/1qKwguIPXkik7WGmCyrLNoLY0IvcSRs9gtYgoUkcDv0MQ
0ViBBMBfosxsb2nUYsrTS+InHDTqHsRuZ4esA7vRSSppL4c7RXC0IIrInaPPpYIv
o94TdlrbeisYuOfcU/YjriDSjCDPu6OpLN15cAfEKcPV9TFzREQu6At1mEur72f+
-----END CERTIFICATE-----
