Certificate:
    Data:
        Version: 3 (0x2)
        Serial Number:
            95:77:2f:3e:9d:4a:77:5f:34:c9:5c:ee:9d:3b:4d:72
        Signature Algorithm: sha256WithRSAEncryption
        Issuer: CN=team406-net
        Validity
            Not Before: Sep 13 02:26:54 2021 GMT
            Not After : Aug 28 02:26:54 2024 GMT
        Subject: CN=team406-server
        Subject Public Key Info:
            Public Key Algorithm: rsaEncryption
                RSA Public-Key: (2048 bit)
                Modulus:
                    00:b2:c9:e5:d7:34:64:73:65:5c:4a:01:63:a8:cc:
                    9e:e5:fc:3d:51:cb:a3:4a:42:01:90:d4:a8:4a:47:
                    17:6e:34:98:8e:ac:3a:d7:b5:6a:22:c5:1a:37:30:
                    b0:7b:67:21:bf:68:05:3b:f6:6c:3c:4a:ca:06:f3:
                    a1:df:13:73:77:48:a2:d3:1c:9c:af:ba:4c:78:2f:
                    43:47:29:dc:4f:78:1e:3e:4c:af:e0:8d:0a:a6:69:
                    8a:5d:18:e0:14:83:67:94:40:9d:ae:23:f7:b8:88:
                    0a:82:03:2f:9f:b0:a4:36:b1:a5:49:89:52:09:8d:
                    83:0d:2b:02:7d:12:de:8f:8f:0a:28:4f:03:61:6b:
                    67:ee:c1:4a:0b:9a:fd:7c:3a:79:59:a2:dc:31:46:
                    d4:cf:25:b9:bd:fe:a5:74:fe:bd:39:13:8b:d1:02:
                    d2:2c:9b:d8:30:2e:dc:54:f1:f9:48:c3:35:ba:b2:
                    67:b0:b9:56:c2:65:83:93:c1:ab:ce:c5:19:9b:85:
                    df:a9:13:53:fa:dd:01:2a:11:d8:2c:3e:6f:b1:e6:
                    d0:7a:11:a4:c2:81:94:96:cb:55:ff:76:86:5d:37:
                    1a:c9:0e:f2:ea:bd:29:47:30:c8:b8:77:e1:ca:2a:
                    98:f7:f7:6d:9b:b1:2d:8e:4f:97:aa:6b:21:e9:90:
                    d4:e5
                Exponent: 65537 (0x10001)
        X509v3 extensions:
            X509v3 Basic Constraints: 
                CA:FALSE
            X509v3 Subject Key Identifier: 
                FA:6A:77:C9:D8:8A:FC:F9:AE:7E:9B:3C:02:CA:AC:29:39:78:F2:CC
            X509v3 Authority Key Identifier: 
                keyid:03:26:F1:7D:B0:89:40:DF:56:5A:7C:42:76:61:99:60:45:D8:99:A1
                DirName:/CN=team406-net
                serial:5A:BE:66:9C:FE:71:C1:5C:D7:B6:7A:16:A3:7A:E1:EA:4A:5F:70:5F

            X509v3 Extended Key Usage: 
                TLS Web Server Authentication
            X509v3 Key Usage: 
                Digital Signature, Key Encipherment
            X509v3 Subject Alternative Name: 
                DNS:team406-server
    Signature Algorithm: sha256WithRSAEncryption
         7b:3a:52:b8:77:77:9d:df:ad:72:26:55:6f:bf:75:a8:1b:62:
         f5:7d:c4:b7:90:22:38:e9:e7:09:d7:45:00:e5:43:9d:2e:d1:
         c5:9d:9d:80:b8:e5:c8:c1:b6:46:b8:94:f0:13:8c:5c:b5:dd:
         01:a1:e3:eb:7e:98:38:15:7e:0f:00:b4:ec:2e:8a:3c:cd:28:
         7c:d2:b2:1f:4c:bb:49:b8:e2:98:43:d5:88:f4:dd:65:0b:b9:
         ac:b6:b7:d9:88:48:bd:d0:65:03:fe:98:de:c3:7d:90:e7:f7:
         2f:62:5a:45:08:01:53:8e:05:be:34:56:d5:0f:7b:a9:f0:5a:
         73:9e:d3:94:88:96:a2:fd:81:02:a7:f7:90:e6:5e:e2:8c:ce:
         00:1d:25:94:63:75:ec:07:73:99:d3:2b:be:a6:d3:81:a4:5c:
         cb:d1:13:37:02:d2:3b:27:cb:40:9c:7b:72:8a:bf:25:e6:90:
         15:56:85:5c:5c:9c:e9:c3:c0:6e:9a:5a:9c:ca:ac:17:52:2f:
         16:15:36:eb:da:bb:a6:76:c3:bb:50:3d:fa:c7:21:0f:67:fb:
         50:5b:6c:d5:13:98:d7:e9:29:0e:2f:99:3e:34:4c:7a:ca:78:
         f2:98:f0:47:82:65:81:be:df:4a:36:b8:b4:70:0a:6e:9a:b4:
         92:73:31:2e
-----BEGIN CERTIFICATE-----
MIIDeDCCAmCgAwIBAgIRAJV3Lz6dSndfNMlc7p07TXIwDQYJKoZIhvcNAQELBQAw
FjEUMBIGA1UEAwwLdGVhbTQwNi1uZXQwHhcNMjEwOTEzMDIyNjU0WhcNMjQwODI4
MDIyNjU0WjAZMRcwFQYDVQQDDA50ZWFtNDA2LXNlcnZlcjCCASIwDQYJKoZIhvcN
AQEBBQADggEPADCCAQoCggEBALLJ5dc0ZHNlXEoBY6jMnuX8PVHLo0pCAZDUqEpH
F240mI6sOte1aiLFGjcwsHtnIb9oBTv2bDxKygbzod8Tc3dIotMcnK+6THgvQ0cp
3E94Hj5Mr+CNCqZpil0Y4BSDZ5RAna4j97iICoIDL5+wpDaxpUmJUgmNgw0rAn0S
3o+PCihPA2FrZ+7BSgua/Xw6eVmi3DFG1M8lub3+pXT+vTkTi9EC0iyb2DAu3FTx
+UjDNbqyZ7C5VsJlg5PBq87FGZuF36kTU/rdASoR2Cw+b7Hm0HoRpMKBlJbLVf92
hl03GskO8uq9KUcwyLh34coqmPf3bZuxLY5Pl6prIemQ1OUCAwEAAaOBvTCBujAJ
BgNVHRMEAjAAMB0GA1UdDgQWBBT6anfJ2Ir8+a5+mzwCyqwpOXjyzDBRBgNVHSME
SjBIgBQDJvF9sIlA31ZafEJ2YZlgRdiZoaEapBgwFjEUMBIGA1UEAwwLdGVhbTQw
Ni1uZXSCFFq+Zpz+ccFc17Z6FqN64epKX3BfMBMGA1UdJQQMMAoGCCsGAQUFBwMB
MAsGA1UdDwQEAwIFoDAZBgNVHREEEjAQgg50ZWFtNDA2LXNlcnZlcjANBgkqhkiG
9w0BAQsFAAOCAQEAezpSuHd3nd+tciZVb791qBti9X3Et5AiOOnnCddFAOVDnS7R
xZ2dgLjlyMG2RriU8BOMXLXdAaHj636YOBV+DwC07C6KPM0ofNKyH0y7SbjimEPV
iPTdZQu5rLa32YhIvdBlA/6Y3sN9kOf3L2JaRQgBU44FvjRW1Q97qfBac57TlIiW
ov2BAqf3kOZe4ozOAB0llGN17AdzmdMrvqbTgaRcy9ETNwLSOyfLQJx7coq/JeaQ
FVaFXFyc6cPAbppanMqsF1IvFhU269q7pnbDu1A9+schD2f7UFts1ROY1+kpDi+Z
PjRMesp48pjwR4Jlgb7fSja4tHAKbpq0knMxLg==
-----END CERTIFICATE-----
