Certificate:
    Data:
        Version: 3 (0x2)
        Serial Number:
            ab:3a:7a:b1:0f:09:85:1a:a5:2e:8b:91:62:2c:60:3f
        Signature Algorithm: sha256WithRSAEncryption
        Issuer: CN=team481-net
        Validity
            Not Before: Sep 13 02:59:00 2021 GMT
            Not After : Aug 28 02:59:00 2024 GMT
        Subject: CN=team481-client
        Subject Public Key Info:
            Public Key Algorithm: rsaEncryption
                RSA Public-Key: (2048 bit)
                Modulus:
                    00:a9:33:bc:8f:07:6c:0a:f3:40:c4:ae:53:7c:d5:
                    ce:6c:00:9c:e9:d8:96:70:fd:1b:f6:9d:c1:77:f9:
                    2f:fb:4c:a2:a5:61:97:51:e4:8b:31:45:e8:26:96:
                    de:17:c8:00:05:1b:12:1d:19:a3:0e:bd:93:cd:08:
                    58:db:35:85:b5:b6:b9:4d:72:bb:ac:e2:a9:d0:1f:
                    0f:24:db:6c:54:cc:82:2b:6d:41:0c:85:70:d5:ee:
                    0c:92:c6:1f:ed:28:4b:db:dc:f8:a0:6a:53:92:f1:
                    88:61:64:6e:9e:48:e3:7d:05:a5:fd:66:3f:d0:b2:
                    f5:16:f3:f1:32:a7:41:85:87:62:1d:99:f8:6c:8c:
                    e7:33:fd:74:98:68:12:ff:8e:31:93:09:d3:31:6a:
                    ba:2b:92:1c:84:e7:73:d2:af:46:c6:20:f2:08:b5:
                    9c:ac:43:04:e9:85:12:f5:1f:9d:2d:74:ed:7b:d5:
                    88:fa:e6:40:8a:9a:07:05:e4:59:12:25:ec:68:ea:
                    db:77:9c:11:78:9c:eb:ba:61:0a:00:45:3c:fd:96:
                    74:95:2c:71:80:59:21:63:0a:d6:b9:b4:a4:49:60:
                    c0:93:14:b5:7a:bc:aa:dc:6b:7a:49:4e:d4:be:28:
                    fb:d8:bd:7e:a6:46:6c:d2:eb:46:c7:2d:4a:43:54:
                    14:bb
                Exponent: 65537 (0x10001)
        X509v3 extensions:
            X509v3 Basic Constraints: 
                CA:FALSE
            X509v3 Subject Key Identifier: 
                C4:69:53:13:BE:9B:AB:E7:21:35:1F:32:07:39:68:BF:0C:06:56:50
            X509v3 Authority Key Identifier: 
                keyid:35:45:98:22:31:54:56:BB:4E:3F:53:C4:F5:80:B6:2D:10:EF:67:D5
                DirName:/CN=team481-net
                serial:5B:CD:3E:EA:22:5D:C5:ED:AF:6C:3B:03:E7:D8:4C:42:C7:F9:B2:76

            X509v3 Extended Key Usage: 
                TLS Web Client Authentication
            X509v3 Key Usage: 
                Digital Signature
    Signature Algorithm: sha256WithRSAEncryption
         ad:af:7a:fe:3c:1b:fc:33:67:27:45:3a:78:5f:8b:67:0f:07:
         f7:a8:0f:10:e4:c0:54:03:af:8a:27:84:d3:1c:61:9d:f6:f7:
         ee:ba:e6:a8:57:56:1a:3b:1f:cc:a3:77:41:02:4a:cf:7f:56:
         dc:eb:98:e9:56:15:c8:00:b7:25:ba:c6:f6:cd:26:73:be:8e:
         6b:9b:41:d4:0c:f3:af:5d:cd:96:74:91:88:22:3f:67:1c:3a:
         de:ba:ec:95:05:d4:e5:11:fc:4d:1f:f4:96:ab:68:d1:6e:36:
         c8:0f:84:58:2f:e1:8e:22:c3:27:dc:ce:3e:57:72:cc:fa:07:
         91:56:dd:ca:7c:80:1c:3b:48:3c:15:67:a7:b7:70:4d:c8:d9:
         38:51:51:00:70:18:cf:9b:46:04:fd:a4:57:94:4d:8d:48:8a:
         68:36:8c:87:62:99:bc:40:38:b9:0d:79:2a:5a:a4:a7:07:d7:
         27:e5:a8:bf:64:9a:a3:be:a1:88:c7:76:68:9e:1f:11:6f:b6:
         b4:f8:cf:70:70:a9:c1:a1:99:a0:bb:a8:55:48:47:98:80:bc:
         a2:84:ba:b6:98:26:58:74:d3:32:cf:5f:cd:f1:38:9f:dc:b5:
         d3:16:ca:ef:e2:65:16:99:b4:14:b2:b2:2f:05:33:f5:94:36:
         a8:49:fd:81
-----BEGIN CERTIFICATE-----
MIIDXTCCAkWgAwIBAgIRAKs6erEPCYUapS6LkWIsYD8wDQYJKoZIhvcNAQELBQAw
FjEUMBIGA1UEAwwLdGVhbTQ4MS1uZXQwHhcNMjEwOTEzMDI1OTAwWhcNMjQwODI4
MDI1OTAwWjAZMRcwFQYDVQQDDA50ZWFtNDgxLWNsaWVudDCCASIwDQYJKoZIhvcN
AQEBBQADggEPADCCAQoCggEBAKkzvI8HbArzQMSuU3zVzmwAnOnYlnD9G/adwXf5
L/tMoqVhl1HkizFF6CaW3hfIAAUbEh0Zow69k80IWNs1hbW2uU1yu6ziqdAfDyTb
bFTMgittQQyFcNXuDJLGH+0oS9vc+KBqU5LxiGFkbp5I430Fpf1mP9Cy9Rbz8TKn
QYWHYh2Z+GyM5zP9dJhoEv+OMZMJ0zFquiuSHITnc9KvRsYg8gi1nKxDBOmFEvUf
nS107XvViPrmQIqaBwXkWRIl7Gjq23ecEXic67phCgBFPP2WdJUscYBZIWMK1rm0
pElgwJMUtXq8qtxreklO1L4o+9i9fqZGbNLrRsctSkNUFLsCAwEAAaOBojCBnzAJ
BgNVHRMEAjAAMB0GA1UdDgQWBBTEaVMTvpur5yE1HzIHOWi/DAZWUDBRBgNVHSME
SjBIgBQ1RZgiMVRWu04/U8T1gLYtEO9n1aEapBgwFjEUMBIGA1UEAwwLdGVhbTQ4
MS1uZXSCFFvNPuoiXcXtr2w7A+fYTELH+bJ2MBMGA1UdJQQMMAoGCCsGAQUFBwMC
MAsGA1UdDwQEAwIHgDANBgkqhkiG9w0BAQsFAAOCAQEAra96/jwb/DNnJ0U6eF+L
Zw8H96gPEOTAVAOviieE0xxhnfb37rrmqFdWGjsfzKN3QQJKz39W3OuY6VYVyAC3
JbrG9s0mc76Oa5tB1Azzr13NlnSRiCI/Zxw63rrslQXU5RH8TR/0lqto0W42yA+E
WC/hjiLDJ9zOPldyzPoHkVbdynyAHDtIPBVnp7dwTcjZOFFRAHAYz5tGBP2kV5RN
jUiKaDaMh2KZvEA4uQ15KlqkpwfXJ+Wov2Sao76hiMd2aJ4fEW+2tPjPcHCpwaGZ
oLuoVUhHmIC8ooS6tpgmWHTTMs9fzfE4n9y10xbK7+JlFpm0FLKyLwUz9ZQ2qEn9
gQ==
-----END CERTIFICATE-----
