Certificate:
    Data:
        Version: 3 (0x2)
        Serial Number:
            e6:45:e3:47:62:4b:89:eb:7a:82:99:49:d8:b4:9f:ff
        Signature Algorithm: sha256WithRSAEncryption
        Issuer: CN=team528-net
        Validity
            Not Before: Sep 13 03:35:08 2021 GMT
            Not After : Aug 28 03:35:08 2024 GMT
        Subject: CN=team528-client
        Subject Public Key Info:
            Public Key Algorithm: rsaEncryption
                RSA Public-Key: (2048 bit)
                Modulus:
                    00:ef:4c:d2:1d:7e:e7:d9:d4:53:f6:06:4b:f5:df:
                    ef:d3:28:01:3e:9f:b9:8d:01:38:f1:b7:6d:18:de:
                    20:82:3c:aa:cb:07:e5:23:e7:87:b3:9b:f9:70:6b:
                    a2:e5:ca:46:12:de:05:d5:34:6f:df:2c:b8:e9:cf:
                    0b:4c:d7:1c:65:2f:5f:5a:e6:94:c6:73:5c:81:86:
                    a2:55:1b:f5:6a:fc:18:78:41:a8:15:3e:4d:38:1d:
                    fb:3f:0e:64:28:98:8f:e6:a9:d4:9e:17:98:1e:65:
                    1c:c5:a7:1a:b1:35:23:00:77:a2:87:fe:e7:b2:07:
                    d9:4b:91:43:d4:d6:fa:2c:05:6d:9d:4d:f6:37:89:
                    f4:c3:6d:8b:71:97:7a:e3:5f:74:5d:20:df:09:90:
                    f5:d5:81:fb:63:29:35:2c:dc:62:db:d7:13:03:c1:
                    5d:e0:a7:65:82:59:79:26:76:28:4b:88:fc:f5:94:
                    37:02:36:e2:2a:88:5d:73:7e:5c:13:84:81:43:bb:
                    6c:15:8e:5f:71:61:d2:7d:62:a1:56:4f:61:ab:5c:
                    f8:d5:02:c7:03:49:e3:4b:c0:04:fa:10:02:d1:5c:
                    7f:7b:dd:2f:f9:b5:60:f5:96:5e:86:72:c0:1d:2b:
                    11:59:e7:e3:43:38:99:55:33:eb:3a:18:f7:20:57:
                    b5:1b
                Exponent: 65537 (0x10001)
        X509v3 extensions:
            X509v3 Basic Constraints: 
                CA:FALSE
            X509v3 Subject Key Identifier: 
                A1:77:35:48:F5:5D:5F:DB:0C:BA:CB:0C:D4:9B:33:09:EB:C6:3F:9D
            X509v3 Authority Key Identifier: 
                keyid:FD:FF:2C:17:57:8A:49:E5:F6:D2:44:FF:AD:48:06:1A:D5:EB:03:F5
                DirName:/CN=team528-net
                serial:08:50:37:D4:D0:81:F4:8E:D2:DD:5E:C4:78:49:40:04:7E:7B:32:71

            X509v3 Extended Key Usage: 
                TLS Web Client Authentication
            X509v3 Key Usage: 
                Digital Signature
    Signature Algorithm: sha256WithRSAEncryption
         0c:25:68:ff:c3:98:b5:f9:69:d2:f1:fa:2e:57:43:7e:ce:a1:
         91:3b:e5:bd:f4:ca:56:ff:e0:9e:e6:e9:97:70:60:46:80:7b:
         c0:a7:9f:13:4e:55:fb:c3:1b:ee:76:f2:6b:77:1f:86:29:48:
         06:73:7f:b9:86:c9:96:89:d6:04:8f:06:77:60:2b:f9:41:07:
         33:31:82:4b:e2:57:ed:c0:99:47:21:fc:89:fb:3f:9e:44:8b:
         01:37:44:6b:43:6a:af:25:c7:ec:4a:63:a8:3c:fc:85:2f:e0:
         19:64:89:60:31:90:27:91:af:6e:9c:95:37:f1:6f:15:07:e3:
         d8:a3:76:75:bc:76:24:83:dc:fa:f3:ea:39:27:eb:e9:a4:fe:
         99:91:11:56:7c:db:97:6f:5e:81:ed:76:27:90:0d:53:df:87:
         2e:c2:33:d7:ae:38:dc:7d:1c:a4:0b:28:60:f1:25:4c:3d:8f:
         11:42:93:aa:36:a3:40:bd:97:cd:f2:1e:e5:e4:2d:21:8e:27:
         fc:92:a5:e5:d7:f7:b2:26:5e:b1:e9:6d:52:e7:35:26:87:2e:
         a1:e9:6f:a6:55:3c:73:ac:19:bf:ca:6c:cb:6d:8a:0b:da:65:
         cf:a0:29:22:a4:eb:6b:44:b5:3e:8b:ff:83:df:2a:ae:aa:f1:
         8f:85:a2:69
-----BEGIN CERTIFICATE-----
MIIDXTCCAkWgAwIBAgIRAOZF40diS4nreoKZSdi0n/8wDQYJKoZIhvcNAQELBQAw
FjEUMBIGA1UEAwwLdGVhbTUyOC1uZXQwHhcNMjEwOTEzMDMzNTA4WhcNMjQwODI4
MDMzNTA4WjAZMRcwFQYDVQQDDA50ZWFtNTI4LWNsaWVudDCCASIwDQYJKoZIhvcN
AQEBBQADggEPADCCAQoCggEBAO9M0h1+59nUU/YGS/Xf79MoAT6fuY0BOPG3bRje
III8qssH5SPnh7Ob+XBrouXKRhLeBdU0b98suOnPC0zXHGUvX1rmlMZzXIGGolUb
9Wr8GHhBqBU+TTgd+z8OZCiYj+ap1J4XmB5lHMWnGrE1IwB3oof+57IH2UuRQ9TW
+iwFbZ1N9jeJ9MNti3GXeuNfdF0g3wmQ9dWB+2MpNSzcYtvXEwPBXeCnZYJZeSZ2
KEuI/PWUNwI24iqIXXN+XBOEgUO7bBWOX3Fh0n1ioVZPYatc+NUCxwNJ40vABPoQ
AtFcf3vdL/m1YPWWXoZywB0rEVnn40M4mVUz6zoY9yBXtRsCAwEAAaOBojCBnzAJ
BgNVHRMEAjAAMB0GA1UdDgQWBBShdzVI9V1f2wy6ywzUmzMJ68Y/nTBRBgNVHSME
SjBIgBT9/ywXV4pJ5fbSRP+tSAYa1esD9aEapBgwFjEUMBIGA1UEAwwLdGVhbTUy
OC1uZXSCFAhQN9TQgfSO0t1exHhJQAR+ezJxMBMGA1UdJQQMMAoGCCsGAQUFBwMC
MAsGA1UdDwQEAwIHgDANBgkqhkiG9w0BAQsFAAOCAQEADCVo/8OYtflp0vH6LldD
fs6hkTvlvfTKVv/gnubpl3BgRoB7wKefE05V+8Mb7nbya3cfhilIBnN/uYbJlonW
BI8Gd2Ar+UEHMzGCS+JX7cCZRyH8ifs/nkSLATdEa0NqryXH7EpjqDz8hS/gGWSJ
YDGQJ5GvbpyVN/FvFQfj2KN2dbx2JIPc+vPqOSfr6aT+mZERVnzbl29ege12J5AN
U9+HLsIz16443H0cpAsoYPElTD2PEUKTqjajQL2XzfIe5eQtIY4n/JKl5df3siZe
seltUuc1JocuoelvplU8c6wZv8psy22KC9plz6ApIqTra0S1Pov/g98qrqrxj4Wi
aQ==
-----END CERTIFICATE-----
