Certificate:
    Data:
        Version: 3 (0x2)
        Serial Number:
            8f:af:06:8d:20:2a:38:33:fb:1b:58:d8:36:6d:e2:f8
        Signature Algorithm: sha256WithRSAEncryption
        Issuer: CN=team674-net
        Validity
            Not Before: Sep 13 05:04:24 2021 GMT
            Not After : Aug 28 05:04:24 2024 GMT
        Subject: CN=team674-client
        Subject Public Key Info:
            Public Key Algorithm: rsaEncryption
                RSA Public-Key: (2048 bit)
                Modulus:
                    00:bf:04:b6:99:ac:f1:8a:74:6d:98:20:56:8d:61:
                    be:22:e5:9a:49:57:86:2c:fe:da:f7:8d:20:22:66:
                    c2:ef:16:67:84:8d:07:12:f9:d1:af:f0:e4:15:1b:
                    44:70:2f:86:e2:0d:f8:20:7a:90:1f:f5:6d:52:82:
                    c5:fe:72:e4:24:68:cd:89:fe:28:91:6b:88:b2:fc:
                    47:ae:51:a7:95:32:4e:64:e4:2f:5e:43:8a:d3:6f:
                    22:fa:5d:42:ac:e2:4f:2c:f1:ca:d9:10:f9:a7:32:
                    66:d8:96:dc:c7:41:76:04:21:5e:d6:d2:52:1e:ba:
                    58:b8:15:9e:54:cb:d5:74:73:39:65:ed:6f:23:9a:
                    5e:56:73:03:d7:6a:1c:c8:77:4e:28:51:a5:22:c9:
                    05:2a:8e:79:c6:6f:92:e9:b1:cd:a3:35:53:f8:c5:
                    0c:2c:71:18:a6:94:5f:16:9f:35:2d:5a:0b:08:2c:
                    18:5b:9a:f9:81:e5:9a:2e:0b:45:5f:3d:8e:e1:83:
                    97:8a:78:e0:5e:26:6d:3a:0f:7e:e3:3e:9c:be:93:
                    6b:e1:2e:a8:42:85:9b:49:bb:02:db:8e:aa:3d:17:
                    3a:c4:89:23:fa:f7:88:25:6e:8c:25:71:8e:59:09:
                    54:d2:f0:75:4c:75:92:41:29:00:42:85:43:cc:06:
                    f6:83
                Exponent: 65537 (0x10001)
        X509v3 extensions:
            X509v3 Basic Constraints: 
                CA:FALSE
            X509v3 Subject Key Identifier: 
                69:F7:14:B1:21:F4:E2:45:BD:9D:76:A3:41:50:95:3F:75:DE:68:67
            X509v3 Authority Key Identifier: 
                keyid:F2:C8:C6:0F:89:04:98:9E:7A:09:D6:B7:5A:C1:8A:95:2D:2A:80:48
                DirName:/CN=team674-net
                serial:3D:3B:9E:50:5F:91:13:AF:25:3E:78:FD:68:17:30:E7:D4:98:EE:53

            X509v3 Extended Key Usage: 
                TLS Web Client Authentication
            X509v3 Key Usage: 
                Digital Signature
    Signature Algorithm: sha256WithRSAEncryption
         22:df:98:27:d5:c3:78:e2:a0:58:e1:ad:11:4a:d2:35:dd:30:
         fb:91:b5:66:cf:ac:d0:e9:aa:fe:ef:b0:89:c6:80:d4:74:c0:
         0d:a3:50:0d:f9:57:74:d9:86:4f:5c:e5:87:1f:1a:5c:62:30:
         42:91:a0:97:da:78:80:70:cd:14:59:78:d9:9f:89:1a:9c:57:
         30:b8:eb:bb:6f:7f:ca:96:05:c5:27:0d:d7:a6:0a:8d:c2:7f:
         37:db:3c:d1:8b:61:8c:c3:22:c3:d9:12:d5:a2:b0:a9:67:a2:
         da:04:63:61:69:34:ef:1c:01:e0:f1:11:db:81:12:a1:87:16:
         91:f2:9f:5d:0d:df:d9:d1:3f:79:b9:94:e1:c7:12:1f:63:88:
         08:32:e6:c4:ee:6a:fc:f4:85:1d:72:30:76:44:a0:01:5b:1f:
         03:83:18:ab:e1:00:ab:77:b4:33:19:60:65:cb:d8:14:35:8d:
         22:30:49:f6:e1:84:2b:32:86:da:ff:02:b5:8b:83:8b:d7:74:
         e7:89:6a:20:80:f4:e6:f9:bc:be:a0:ad:2c:09:ca:bb:aa:13:
         b8:a3:9d:1c:f7:31:29:88:35:3b:42:37:4c:67:3f:74:5c:5f:
         59:1e:d1:92:72:3e:45:fe:c6:2b:24:a1:67:6b:37:2d:91:57:
         21:f4:77:4d
-----BEGIN CERTIFICATE-----
MIIDXTCCAkWgAwIBAgIRAI+vBo0gKjgz+xtY2DZt4vgwDQYJKoZIhvcNAQELBQAw
FjEUMBIGA1UEAwwLdGVhbTY3NC1uZXQwHhcNMjEwOTEzMDUwNDI0WhcNMjQwODI4
MDUwNDI0WjAZMRcwFQYDVQQDDA50ZWFtNjc0LWNsaWVudDCCASIwDQYJKoZIhvcN
AQEBBQADggEPADCCAQoCggEBAL8Etpms8Yp0bZggVo1hviLlmklXhiz+2veNICJm
wu8WZ4SNBxL50a/w5BUbRHAvhuIN+CB6kB/1bVKCxf5y5CRozYn+KJFriLL8R65R
p5UyTmTkL15DitNvIvpdQqziTyzxytkQ+acyZtiW3MdBdgQhXtbSUh66WLgVnlTL
1XRzOWXtbyOaXlZzA9dqHMh3TihRpSLJBSqOecZvkumxzaM1U/jFDCxxGKaUXxaf
NS1aCwgsGFua+YHlmi4LRV89juGDl4p44F4mbToPfuM+nL6Ta+EuqEKFm0m7AtuO
qj0XOsSJI/r3iCVujCVxjlkJVNLwdUx1kkEpAEKFQ8wG9oMCAwEAAaOBojCBnzAJ
BgNVHRMEAjAAMB0GA1UdDgQWBBRp9xSxIfTiRb2ddqNBUJU/dd5oZzBRBgNVHSME
SjBIgBTyyMYPiQSYnnoJ1rdawYqVLSqASKEapBgwFjEUMBIGA1UEAwwLdGVhbTY3
NC1uZXSCFD07nlBfkROvJT54/WgXMOfUmO5TMBMGA1UdJQQMMAoGCCsGAQUFBwMC
MAsGA1UdDwQEAwIHgDANBgkqhkiG9w0BAQsFAAOCAQEAIt+YJ9XDeOKgWOGtEUrS
Nd0w+5G1Zs+s0Omq/u+wicaA1HTADaNQDflXdNmGT1zlhx8aXGIwQpGgl9p4gHDN
FFl42Z+JGpxXMLjru29/ypYFxScN16YKjcJ/N9s80YthjMMiw9kS1aKwqWei2gRj
YWk07xwB4PER24ESoYcWkfKfXQ3f2dE/ebmU4ccSH2OICDLmxO5q/PSFHXIwdkSg
AVsfA4MYq+EAq3e0MxlgZcvYFDWNIjBJ9uGEKzKG2v8CtYuDi9d054lqIID05vm8
vqCtLAnKu6oTuKOdHPcxKYg1O0I3TGc/dFxfWR7RknI+Rf7GKyShZ2s3LZFXIfR3
TQ==
-----END CERTIFICATE-----
