Certificate:
    Data:
        Version: 3 (0x2)
        Serial Number:
            ac:a5:5b:ac:b5:1e:86:6a:8b:e6:89:fa:c0:46:ec:ee
        Signature Algorithm: sha256WithRSAEncryption
        Issuer: CN=team435-net
        Validity
            Not Before: Sep 13 02:42:50 2021 GMT
            Not After : Aug 28 02:42:50 2024 GMT
        Subject: CN=team435-client
        Subject Public Key Info:
            Public Key Algorithm: rsaEncryption
                RSA Public-Key: (2048 bit)
                Modulus:
                    00:bb:2a:a6:17:e1:cc:73:d0:e2:07:c0:9e:39:10:
                    cd:85:44:c8:39:82:a1:75:d4:69:c0:39:c3:df:1e:
                    e4:51:2b:42:73:08:17:e6:bf:24:54:f2:74:81:e7:
                    19:d0:35:5d:09:39:c8:6e:e0:4e:dc:d5:34:30:e3:
                    ec:30:06:e8:a4:e6:f1:04:1f:9c:8d:76:f9:68:2f:
                    cb:f6:df:da:3b:2e:e5:e2:fc:dd:0a:c3:9a:d5:ad:
                    06:d6:72:65:2f:04:ef:54:70:95:73:89:4e:fb:dd:
                    5b:39:91:2c:56:47:2e:b5:76:40:cf:c5:df:c5:af:
                    35:8b:c0:d8:d1:f8:60:6d:30:04:59:11:b4:69:65:
                    1e:57:08:cd:6e:1d:d5:d1:71:8f:3b:b5:23:63:b2:
                    9b:04:87:f6:94:7b:e6:70:80:06:b7:4c:b1:13:19:
                    b8:7c:a6:a4:bc:8e:a4:ef:4c:da:c3:9d:24:4a:3d:
                    ea:64:fc:9b:9a:ce:aa:98:a9:97:5f:03:b0:54:1b:
                    f5:ff:a8:4d:49:14:02:89:7b:3f:a7:b5:45:a2:20:
                    70:3d:bd:02:6f:ce:7f:a1:a4:4b:7a:41:69:5c:63:
                    7c:5b:14:3d:70:3f:0e:35:56:bc:94:af:26:8d:6b:
                    48:04:06:3e:af:a8:df:7b:d0:aa:4a:20:00:a5:b8:
                    29:a1
                Exponent: 65537 (0x10001)
        X509v3 extensions:
            X509v3 Basic Constraints: 
                CA:FALSE
            X509v3 Subject Key Identifier: 
                27:01:42:75:B2:48:17:B2:D5:0D:B7:86:F0:53:C1:7C:7F:69:A9:57
            X509v3 Authority Key Identifier: 
                keyid:34:77:C5:FF:B0:5A:CE:06:90:0B:DA:3A:1A:7D:C4:51:17:58:31:05
                DirName:/CN=team435-net
                serial:16:E0:65:C4:C4:2E:51:C8:07:CE:A0:08:4D:4B:15:25:9F:50:94:AC

            X509v3 Extended Key Usage: 
                TLS Web Client Authentication
            X509v3 Key Usage: 
                Digital Signature
    Signature Algorithm: sha256WithRSAEncryption
         d6:b4:44:49:39:6b:3b:b3:b4:05:3e:a2:a8:67:a8:96:b6:46:
         89:48:d3:84:f3:82:b1:69:8b:44:ec:4c:97:c6:7c:92:18:9a:
         05:b6:c5:87:46:01:dd:81:86:15:80:c6:be:67:64:ad:fe:00:
         a1:8e:24:7d:15:15:5f:fa:e7:d1:be:3f:8f:a6:05:52:50:f2:
         d1:2a:5a:9d:3c:04:c5:8c:c5:85:0c:0b:84:a8:08:26:22:8b:
         e6:39:1b:5d:55:90:c7:d6:f1:d6:38:71:17:c3:75:87:61:b4:
         22:5f:64:a4:18:a1:b2:f1:dc:c3:82:d3:23:b1:7d:a2:90:a9:
         b7:e1:11:87:5a:c2:86:9d:76:92:23:7f:25:f2:90:a0:21:b2:
         6d:d4:32:e8:0c:c1:e7:09:07:9d:83:22:58:64:90:4e:fc:bf:
         d2:bf:a6:99:b6:11:72:52:4b:44:a5:d8:1f:fa:8d:d6:86:81:
         7b:0d:4a:95:4b:c4:2a:d5:4e:36:7c:3b:d0:a6:eb:06:82:44:
         cb:1d:ef:97:3a:af:7c:1f:a3:d6:36:a7:4a:21:16:01:a2:e9:
         39:88:38:dc:eb:1a:61:e4:86:0f:04:1f:74:7e:d3:4a:33:da:
         2e:be:59:3a:2d:6e:dc:ac:a4:04:15:5c:de:27:6d:a0:7f:49:
         bc:cd:a7:af
-----BEGIN CERTIFICATE-----
MIIDXTCCAkWgAwIBAgIRAKylW6y1HoZqi+aJ+sBG7O4wDQYJKoZIhvcNAQELBQAw
FjEUMBIGA1UEAwwLdGVhbTQzNS1uZXQwHhcNMjEwOTEzMDI0MjUwWhcNMjQwODI4
MDI0MjUwWjAZMRcwFQYDVQQDDA50ZWFtNDM1LWNsaWVudDCCASIwDQYJKoZIhvcN
AQEBBQADggEPADCCAQoCggEBALsqphfhzHPQ4gfAnjkQzYVEyDmCoXXUacA5w98e
5FErQnMIF+a/JFTydIHnGdA1XQk5yG7gTtzVNDDj7DAG6KTm8QQfnI12+Wgvy/bf
2jsu5eL83QrDmtWtBtZyZS8E71RwlXOJTvvdWzmRLFZHLrV2QM/F38WvNYvA2NH4
YG0wBFkRtGllHlcIzW4d1dFxjzu1I2OymwSH9pR75nCABrdMsRMZuHympLyOpO9M
2sOdJEo96mT8m5rOqpipl18DsFQb9f+oTUkUAol7P6e1RaIgcD29Am/Of6GkS3pB
aVxjfFsUPXA/DjVWvJSvJo1rSAQGPq+o33vQqkogAKW4KaECAwEAAaOBojCBnzAJ
BgNVHRMEAjAAMB0GA1UdDgQWBBQnAUJ1skgXstUNt4bwU8F8f2mpVzBRBgNVHSME
SjBIgBQ0d8X/sFrOBpAL2joafcRRF1gxBaEapBgwFjEUMBIGA1UEAwwLdGVhbTQz
NS1uZXSCFBbgZcTELlHIB86gCE1LFSWfUJSsMBMGA1UdJQQMMAoGCCsGAQUFBwMC
MAsGA1UdDwQEAwIHgDANBgkqhkiG9w0BAQsFAAOCAQEA1rRESTlrO7O0BT6iqGeo
lrZGiUjThPOCsWmLROxMl8Z8khiaBbbFh0YB3YGGFYDGvmdkrf4AoY4kfRUVX/rn
0b4/j6YFUlDy0SpanTwExYzFhQwLhKgIJiKL5jkbXVWQx9bx1jhxF8N1h2G0Il9k
pBihsvHcw4LTI7F9opCpt+ERh1rChp12kiN/JfKQoCGybdQy6AzB5wkHnYMiWGSQ
Tvy/0r+mmbYRclJLRKXYH/qN1oaBew1KlUvEKtVONnw70KbrBoJEyx3vlzqvfB+j
1janSiEWAaLpOYg43OsaYeSGDwQfdH7TSjPaLr5ZOi1u3KykBBVc3idtoH9JvM2n
rw==
-----END CERTIFICATE-----
