Certificate:
    Data:
        Version: 3 (0x2)
        Serial Number:
            0e:08:7b:3f:3e:16:00:12:03:39:36:64:eb:c1:50:f4
        Signature Algorithm: sha256WithRSAEncryption
        Issuer: CN=team625-net
        Validity
            Not Before: Sep 13 04:37:07 2021 GMT
            Not After : Aug 28 04:37:07 2024 GMT
        Subject: CN=team625-client
        Subject Public Key Info:
            Public Key Algorithm: rsaEncryption
                RSA Public-Key: (2048 bit)
                Modulus:
                    00:ae:92:19:46:f2:5d:a8:2f:54:4a:39:2d:05:be:
                    f3:85:0a:c5:28:4a:6c:ab:59:99:6b:64:99:e2:2b:
                    d2:96:90:d4:11:db:11:99:be:0a:1b:0c:2f:cb:48:
                    85:0e:15:72:c9:f8:39:82:6f:73:8e:37:33:46:a2:
                    8c:f4:4b:24:f2:6a:c4:db:32:f3:57:16:19:6d:37:
                    a6:d9:00:b9:32:1b:e9:5b:b5:c3:bd:0a:f5:a7:84:
                    77:b3:7a:e3:18:c5:c1:e1:95:18:af:20:00:4d:03:
                    8d:32:48:10:2d:52:4d:69:f1:e5:fb:77:85:87:9c:
                    d8:09:fb:ba:7a:50:b8:5d:23:a5:b3:3a:13:1b:c3:
                    d0:93:a1:ca:83:a0:e0:31:57:1d:8a:0e:9b:34:53:
                    80:98:f1:0c:96:ec:3a:90:4b:53:b3:08:16:eb:0c:
                    ff:d6:f0:f1:c0:31:87:b4:f5:fd:15:6f:70:ce:1e:
                    e5:47:16:12:6e:16:f7:43:a7:f5:04:d0:05:fd:36:
                    df:e5:eb:78:89:93:2a:81:f3:51:14:7e:1b:18:f3:
                    a8:80:97:a4:25:45:ce:2a:06:6c:8f:54:39:b4:e4:
                    a9:fb:5d:c0:b7:8d:7b:55:2d:9a:3b:ec:a1:0d:6e:
                    26:a6:63:fe:58:00:2e:fd:d5:23:13:14:c9:ad:2b:
                    bc:81
                Exponent: 65537 (0x10001)
        X509v3 extensions:
            X509v3 Basic Constraints: 
                CA:FALSE
            X509v3 Subject Key Identifier: 
                01:E7:DA:32:0D:00:AC:6D:59:E4:F6:60:6C:E7:FF:4D:31:E2:94:86
            X509v3 Authority Key Identifier: 
                keyid:B0:36:56:93:6B:DF:2F:86:BF:C1:8B:2B:9F:23:CB:74:7F:FC:B8:9F
                DirName:/CN=team625-net
                serial:38:26:59:97:DE:58:EA:B5:E2:FE:86:A9:35:9D:9B:BD:38:A6:09:FC

            X509v3 Extended Key Usage: 
                TLS Web Client Authentication
            X509v3 Key Usage: 
                Digital Signature
    Signature Algorithm: sha256WithRSAEncryption
         b1:e7:c5:c1:f4:bf:2b:d3:24:5f:73:60:12:58:01:91:64:43:
         5d:e4:e2:f5:b3:a5:49:23:9a:65:4c:3a:ba:a8:4a:2e:32:00:
         66:4e:0c:83:b9:66:73:4e:34:13:83:62:af:55:3d:ba:8e:74:
         ca:67:7d:1e:5b:04:a6:22:52:5a:3a:2e:43:3e:96:d3:90:02:
         97:dd:5d:61:43:fc:19:db:19:46:f0:b0:dd:b2:28:a7:1a:89:
         73:64:eb:a8:32:57:1e:81:2f:24:7d:37:a5:e1:57:66:93:44:
         85:37:aa:52:7b:61:39:be:e2:1a:51:54:19:94:bb:91:0a:ca:
         f4:33:53:cd:30:86:11:1c:38:ec:51:91:da:a4:3d:1a:98:4f:
         5e:b1:f3:a3:29:b9:57:fe:4c:89:57:1b:be:05:3c:2b:e9:c4:
         27:03:0b:6c:f2:35:1b:39:a3:81:de:01:17:a6:15:43:75:d8:
         2f:1f:2e:05:c3:0d:81:06:1a:78:ec:c0:d5:a0:d0:46:18:93:
         e2:dd:cc:57:77:f5:c4:22:74:64:31:ea:90:80:83:dc:d4:f8:
         e8:ea:8d:97:85:f7:53:2f:ae:68:9d:d2:a1:31:ef:3f:03:9f:
         34:d7:be:8d:32:70:00:60:dc:88:f7:f9:20:e2:8c:8f:65:40:
         de:b5:42:c7
-----BEGIN CERTIFICATE-----
MIIDXDCCAkSgAwIBAgIQDgh7Pz4WABIDOTZk68FQ9DANBgkqhkiG9w0BAQsFADAW
MRQwEgYDVQQDDAt0ZWFtNjI1LW5ldDAeFw0yMTA5MTMwNDM3MDdaFw0yNDA4Mjgw
NDM3MDdaMBkxFzAVBgNVBAMMDnRlYW02MjUtY2xpZW50MIIBIjANBgkqhkiG9w0B
AQEFAAOCAQ8AMIIBCgKCAQEArpIZRvJdqC9USjktBb7zhQrFKEpsq1mZa2SZ4ivS
lpDUEdsRmb4KGwwvy0iFDhVyyfg5gm9zjjczRqKM9Esk8mrE2zLzVxYZbTem2QC5
MhvpW7XDvQr1p4R3s3rjGMXB4ZUYryAATQONMkgQLVJNafHl+3eFh5zYCfu6elC4
XSOlszoTG8PQk6HKg6DgMVcdig6bNFOAmPEMluw6kEtTswgW6wz/1vDxwDGHtPX9
FW9wzh7lRxYSbhb3Q6f1BNAF/Tbf5et4iZMqgfNRFH4bGPOogJekJUXOKgZsj1Q5
tOSp+13At417VS2aO+yhDW4mpmP+WAAu/dUjExTJrSu8gQIDAQABo4GiMIGfMAkG
A1UdEwQCMAAwHQYDVR0OBBYEFAHn2jINAKxtWeT2YGzn/00x4pSGMFEGA1UdIwRK
MEiAFLA2VpNr3y+Gv8GLK58jy3R//LifoRqkGDAWMRQwEgYDVQQDDAt0ZWFtNjI1
LW5ldIIUOCZZl95Y6rXi/oapNZ2bvTimCfwwEwYDVR0lBAwwCgYIKwYBBQUHAwIw
CwYDVR0PBAQDAgeAMA0GCSqGSIb3DQEBCwUAA4IBAQCx58XB9L8r0yRfc2ASWAGR
ZENd5OL1s6VJI5plTDq6qEouMgBmTgyDuWZzTjQTg2KvVT26jnTKZ30eWwSmIlJa
Oi5DPpbTkAKX3V1hQ/wZ2xlG8LDdsiinGolzZOuoMlcegS8kfTel4Vdmk0SFN6pS
e2E5vuIaUVQZlLuRCsr0M1PNMIYRHDjsUZHapD0amE9esfOjKblX/kyJVxu+BTwr
6cQnAwts8jUbOaOB3gEXphVDddgvHy4Fww2BBhp47MDVoNBGGJPi3cxXd/XEInRk
MeqQgIPc1Pjo6o2XhfdTL65ondKhMe8/A580176NMnAAYNyI9/kg4oyPZUDetULH
-----END CERTIFICATE-----
