Certificate:
    Data:
        Version: 3 (0x2)
        Serial Number:
            d8:86:1f:a2:e5:06:eb:df:d5:6a:73:05:4b:d9:3e:69
        Signature Algorithm: sha256WithRSAEncryption
        Issuer: CN=team401-net
        Validity
            Not Before: Sep 13 02:24:51 2021 GMT
            Not After : Aug 28 02:24:51 2024 GMT
        Subject: CN=team401-server
        Subject Public Key Info:
            Public Key Algorithm: rsaEncryption
                RSA Public-Key: (2048 bit)
                Modulus:
                    00:ab:91:f0:84:d5:8c:9a:dc:03:80:87:25:69:33:
                    4a:b0:3e:44:ec:4a:4a:e5:31:e9:a3:45:45:73:e8:
                    d3:34:22:68:db:c6:30:d6:18:08:0d:eb:da:d5:4d:
                    00:db:0e:4d:50:93:1c:1b:aa:f9:f8:e3:1b:89:cd:
                    5d:c9:5c:fb:c0:f6:9c:82:06:f5:5a:f0:db:95:cb:
                    92:17:f6:66:16:70:da:60:e0:bd:93:03:36:0f:14:
                    8e:22:a6:24:29:d4:ec:79:22:ec:62:b4:e9:13:62:
                    b4:5c:ce:95:92:ee:e6:02:19:6c:ce:cd:ae:04:08:
                    de:d1:99:13:bc:ae:fe:a2:cb:c7:52:c7:2a:bb:84:
                    34:2f:be:96:15:d6:19:16:03:f8:2e:71:a2:28:4c:
                    ce:20:7f:5a:94:2d:2a:89:0f:53:24:78:11:97:fd:
                    60:2e:10:2b:07:ec:d2:5c:01:bf:aa:05:9a:5c:d1:
                    dd:23:a4:71:e1:17:f9:79:0e:7a:a3:69:5d:a2:36:
                    fc:7e:25:39:cb:03:f2:42:73:be:99:38:06:ff:48:
                    0b:8e:ba:34:6e:7c:fa:80:0f:a8:e5:b2:b9:73:67:
                    c9:86:ed:b8:55:36:49:ea:d7:4c:91:53:bb:e3:81:
                    bd:e2:13:2f:3f:4a:3f:ba:62:87:78:f6:ee:72:e4:
                    91:cf
                Exponent: 65537 (0x10001)
        X509v3 extensions:
            X509v3 Basic Constraints: 
                CA:FALSE
            X509v3 Subject Key Identifier: 
                CA:28:C7:EB:A9:66:FA:E4:D0:9C:2B:ED:8A:71:44:7E:DB:9B:26:46
            X509v3 Authority Key Identifier: 
                keyid:40:CC:B6:41:76:49:71:7F:53:D7:39:A4:67:A7:E3:71:C2:C8:27:66
                DirName:/CN=team401-net
                serial:30:C8:4C:B4:28:B2:2C:E0:BB:56:EF:7E:8C:5B:CD:82:48:C6:36:57

            X509v3 Extended Key Usage: 
                TLS Web Server Authentication
            X509v3 Key Usage: 
                Digital Signature, Key Encipherment
            X509v3 Subject Alternative Name: 
                DNS:team401-server
    Signature Algorithm: sha256WithRSAEncryption
         48:10:50:bc:33:38:d2:20:50:83:86:e7:3f:44:41:0d:ed:0a:
         b0:64:2b:ae:c9:9f:eb:de:18:d6:6c:dd:1b:9a:f6:66:0c:8a:
         2a:6f:bb:c0:2d:81:ef:8f:e7:e1:91:4b:b4:fb:06:c8:35:23:
         76:62:06:3a:6d:c7:62:51:4d:90:f2:3c:0d:3e:a1:be:e3:b0:
         5d:5b:f2:8a:51:79:a7:54:62:88:ac:05:c4:bb:d1:fd:2d:1b:
         bd:47:76:e6:03:c3:d0:84:a8:3d:24:a4:58:4a:6b:35:e9:86:
         73:61:d2:41:9b:d1:d0:47:66:f7:24:b3:10:68:17:53:48:55:
         f6:31:e0:40:b5:e7:0e:13:99:0f:06:02:c4:f8:8e:e4:96:3b:
         5b:c7:7e:db:23:65:60:96:e5:ff:40:ba:05:3c:f6:b9:7c:3b:
         ea:94:6c:f0:f9:df:5a:5c:10:bc:14:fe:ee:de:68:c9:97:82:
         be:26:68:a6:2a:b8:d4:a2:fd:60:32:5c:a4:69:52:98:c5:3f:
         e9:99:03:56:4b:7f:05:dd:c7:69:a7:fb:f7:6f:d4:2b:a9:fa:
         72:a7:5f:88:76:d1:a1:d0:a8:35:7b:cc:25:b8:e2:64:e7:bc:
         a6:9a:9c:69:7e:11:fc:f1:4c:59:42:dc:d4:29:12:f9:59:16:
         6f:c3:d2:18
-----BEGIN CERTIFICATE-----
MIIDeDCCAmCgAwIBAgIRANiGH6LlBuvf1WpzBUvZPmkwDQYJKoZIhvcNAQELBQAw
FjEUMBIGA1UEAwwLdGVhbTQwMS1uZXQwHhcNMjEwOTEzMDIyNDUxWhcNMjQwODI4
MDIyNDUxWjAZMRcwFQYDVQQDDA50ZWFtNDAxLXNlcnZlcjCCASIwDQYJKoZIhvcN
AQEBBQADggEPADCCAQoCggEBAKuR8ITVjJrcA4CHJWkzSrA+ROxKSuUx6aNFRXPo
0zQiaNvGMNYYCA3r2tVNANsOTVCTHBuq+fjjG4nNXclc+8D2nIIG9Vrw25XLkhf2
ZhZw2mDgvZMDNg8UjiKmJCnU7Hki7GK06RNitFzOlZLu5gIZbM7NrgQI3tGZE7yu
/qLLx1LHKruENC++lhXWGRYD+C5xoihMziB/WpQtKokPUyR4EZf9YC4QKwfs0lwB
v6oFmlzR3SOkceEX+XkOeqNpXaI2/H4lOcsD8kJzvpk4Bv9IC466NG58+oAPqOWy
uXNnyYbtuFU2SerXTJFTu+OBveITLz9KP7pih3j27nLkkc8CAwEAAaOBvTCBujAJ
BgNVHRMEAjAAMB0GA1UdDgQWBBTKKMfrqWb65NCcK+2KcUR+25smRjBRBgNVHSME
SjBIgBRAzLZBdklxf1PXOaRnp+NxwsgnZqEapBgwFjEUMBIGA1UEAwwLdGVhbTQw
MS1uZXSCFDDITLQosizgu1bvfoxbzYJIxjZXMBMGA1UdJQQMMAoGCCsGAQUFBwMB
MAsGA1UdDwQEAwIFoDAZBgNVHREEEjAQgg50ZWFtNDAxLXNlcnZlcjANBgkqhkiG
9w0BAQsFAAOCAQEASBBQvDM40iBQg4bnP0RBDe0KsGQrrsmf694Y1mzdG5r2ZgyK
Km+7wC2B74/n4ZFLtPsGyDUjdmIGOm3HYlFNkPI8DT6hvuOwXVvyilF5p1RiiKwF
xLvR/S0bvUd25gPD0ISoPSSkWEprNemGc2HSQZvR0Edm9ySzEGgXU0hV9jHgQLXn
DhOZDwYCxPiO5JY7W8d+2yNlYJbl/0C6BTz2uXw76pRs8PnfWlwQvBT+7t5oyZeC
viZopiq41KL9YDJcpGlSmMU/6ZkDVkt/Bd3Haaf792/UK6n6cqdfiHbRodCoNXvM
JbjiZOe8ppqcaX4R/PFMWULc1CkS+VkWb8PSGA==
-----END CERTIFICATE-----
