Certificate:
    Data:
        Version: 3 (0x2)
        Serial Number:
            d5:c4:13:22:cb:5a:b4:da:8a:b5:a0:95:f3:1f:fb:d4
        Signature Algorithm: sha256WithRSAEncryption
        Issuer: CN=team337-net
        Validity
            Not Before: Sep 13 01:49:33 2021 GMT
            Not After : Aug 28 01:49:33 2024 GMT
        Subject: CN=team337-client
        Subject Public Key Info:
            Public Key Algorithm: rsaEncryption
                RSA Public-Key: (2048 bit)
                Modulus:
                    00:db:d1:cb:b5:d0:90:0e:f6:d4:06:0a:97:91:8b:
                    cd:e5:a5:cf:94:8e:39:57:6f:b4:3d:48:2a:33:4a:
                    7b:9d:16:08:73:7b:bf:71:10:07:1d:93:36:c2:87:
                    dc:88:a0:90:47:db:05:e3:fa:0e:bb:3a:11:85:cf:
                    55:91:6d:1c:4d:1b:7f:dd:e6:d5:5a:44:6f:26:f9:
                    22:4b:ef:28:96:98:e6:dc:47:f6:88:44:c5:d1:73:
                    48:77:5e:44:72:f2:36:fe:97:0f:7d:98:f9:86:ae:
                    38:79:db:eb:96:60:44:db:46:68:39:73:bd:ec:19:
                    ae:db:7b:8c:c1:94:78:ff:be:e4:96:f7:92:b4:b2:
                    de:89:e3:41:86:38:ef:75:8c:4d:11:12:b8:9d:e7:
                    57:4c:d1:b9:7d:c0:45:6c:5a:0a:51:80:98:67:1a:
                    d9:78:af:1c:73:f7:62:6b:26:c9:eb:93:f6:25:8e:
                    41:c8:cf:d3:15:3d:66:cb:09:a1:bd:67:09:3e:52:
                    49:95:dd:c6:59:71:b9:df:eb:ec:39:c7:de:8c:62:
                    c4:c7:0b:d6:66:3b:6d:29:e3:f2:c2:db:8f:ca:f1:
                    f1:b9:a5:f0:02:ed:75:1d:c2:4d:e4:1b:f9:1d:95:
                    52:8e:35:89:97:2b:69:1c:ca:06:ba:ae:fe:0c:03:
                    ff:37
                Exponent: 65537 (0x10001)
        X509v3 extensions:
            X509v3 Basic Constraints: 
                CA:FALSE
            X509v3 Subject Key Identifier: 
                23:05:B0:5D:BB:AA:D4:88:F2:42:C7:1C:8E:87:7A:BB:72:2F:12:12
            X509v3 Authority Key Identifier: 
                keyid:A6:F4:C9:51:8C:93:68:98:29:8B:51:95:3A:F2:E0:0F:29:35:12:8C
                DirName:/CN=team337-net
                serial:74:59:30:0B:CA:82:61:13:FE:E2:E4:E2:05:FF:33:F8:1D:B8:DB:E5

            X509v3 Extended Key Usage: 
                TLS Web Client Authentication
            X509v3 Key Usage: 
                Digital Signature
    Signature Algorithm: sha256WithRSAEncryption
         64:b7:d8:2a:66:d3:ff:46:e1:d6:74:34:7a:e2:52:ec:39:91:
         c7:9d:5f:b1:0b:df:cd:ca:dd:3c:68:2e:54:9d:41:d9:42:8f:
         92:1f:fa:24:4f:ba:99:f4:45:f4:c8:0c:43:49:4b:b2:eb:ca:
         dc:28:1f:29:c3:44:50:17:2f:83:ca:fc:2e:fb:a5:b9:70:94:
         1a:74:a7:46:86:a4:8c:b2:ee:44:40:20:84:78:8e:f6:20:ac:
         54:77:e3:3a:6f:4d:10:2a:4a:6d:e2:72:ce:ef:9a:aa:6a:43:
         8b:8d:6c:45:ef:60:9e:7e:b8:6e:93:a7:41:fc:c6:ed:9b:e7:
         38:57:d1:cb:22:95:6e:0d:8d:9a:12:0e:7f:70:f9:87:78:1b:
         4e:43:dc:20:f2:6d:9d:33:24:a1:1a:63:62:2c:16:f2:ed:c0:
         82:94:6d:4f:9c:b4:14:41:77:b1:b1:96:6b:c1:1e:be:bc:d4:
         f5:cb:ae:6d:23:ec:3a:fb:a1:7d:3a:33:75:77:e3:91:00:70:
         a9:f0:27:41:41:0a:cf:ec:09:bf:57:bd:2c:bc:39:da:9b:a4:
         b9:1e:33:bc:52:10:1d:b9:17:47:44:5d:56:48:82:49:55:d2:
         9e:94:93:89:d8:d4:c0:ae:6b:56:b0:a3:12:02:03:46:b6:1e:
         fb:f1:5b:2a
-----BEGIN CERTIFICATE-----
MIIDXTCCAkWgAwIBAgIRANXEEyLLWrTairWglfMf+9QwDQYJKoZIhvcNAQELBQAw
FjEUMBIGA1UEAwwLdGVhbTMzNy1uZXQwHhcNMjEwOTEzMDE0OTMzWhcNMjQwODI4
MDE0OTMzWjAZMRcwFQYDVQQDDA50ZWFtMzM3LWNsaWVudDCCASIwDQYJKoZIhvcN
AQEBBQADggEPADCCAQoCggEBANvRy7XQkA721AYKl5GLzeWlz5SOOVdvtD1IKjNK
e50WCHN7v3EQBx2TNsKH3IigkEfbBeP6Drs6EYXPVZFtHE0bf93m1VpEbyb5Ikvv
KJaY5txH9ohExdFzSHdeRHLyNv6XD32Y+YauOHnb65ZgRNtGaDlzvewZrtt7jMGU
eP++5Jb3krSy3onjQYY473WMTRESuJ3nV0zRuX3ARWxaClGAmGca2XivHHP3Ymsm
yeuT9iWOQcjP0xU9ZssJob1nCT5SSZXdxllxud/r7DnH3oxixMcL1mY7bSnj8sLb
j8rx8bml8ALtdR3CTeQb+R2VUo41iZcraRzKBrqu/gwD/zcCAwEAAaOBojCBnzAJ
BgNVHRMEAjAAMB0GA1UdDgQWBBQjBbBdu6rUiPJCxxyOh3q7ci8SEjBRBgNVHSME
SjBIgBSm9MlRjJNomCmLUZU68uAPKTUSjKEapBgwFjEUMBIGA1UEAwwLdGVhbTMz
Ny1uZXSCFHRZMAvKgmET/uLk4gX/M/gduNvlMBMGA1UdJQQMMAoGCCsGAQUFBwMC
MAsGA1UdDwQEAwIHgDANBgkqhkiG9w0BAQsFAAOCAQEAZLfYKmbT/0bh1nQ0euJS
7DmRx51fsQvfzcrdPGguVJ1B2UKPkh/6JE+6mfRF9MgMQ0lLsuvK3CgfKcNEUBcv
g8r8LvuluXCUGnSnRoakjLLuREAghHiO9iCsVHfjOm9NECpKbeJyzu+aqmpDi41s
Re9gnn64bpOnQfzG7ZvnOFfRyyKVbg2NmhIOf3D5h3gbTkPcIPJtnTMkoRpjYiwW
8u3AgpRtT5y0FEF3sbGWa8EevrzU9cuubSPsOvuhfTozdXfjkQBwqfAnQUEKz+wJ
v1e9LLw52pukuR4zvFIQHbkXR0RdVkiCSVXSnpSTidjUwK5rVrCjEgIDRrYe+/Fb
Kg==
-----END CERTIFICATE-----
