Certificate:
    Data:
        Version: 3 (0x2)
        Serial Number:
            a6:5a:44:75:6b:2b:b6:df:7d:6d:8e:50:d0:fc:a5:27
        Signature Algorithm: sha256WithRSAEncryption
        Issuer: CN=team647-net
        Validity
            Not Before: Sep 13 04:49:12 2021 GMT
            Not After : Aug 28 04:49:12 2024 GMT
        Subject: CN=team647-client
        Subject Public Key Info:
            Public Key Algorithm: rsaEncryption
                RSA Public-Key: (2048 bit)
                Modulus:
                    00:dc:d5:72:89:5b:aa:ca:75:e8:55:b2:8e:b5:16:
                    a8:d5:4f:89:89:70:e2:b9:c0:df:75:e6:26:36:ef:
                    df:a3:b8:55:60:7c:9d:26:73:a6:3a:a5:fa:72:bf:
                    42:b8:e5:86:3e:20:8a:6a:4e:d3:5d:05:0d:d0:59:
                    70:bb:b2:53:71:cd:65:79:e4:a7:23:3b:37:1b:7e:
                    30:7e:e6:d6:b8:c7:9a:b0:4b:f9:14:4d:78:7b:db:
                    6d:f9:c8:2d:22:93:6f:d0:7d:0b:83:3a:a0:8c:d8:
                    0d:f6:c6:dd:14:f3:b5:8e:fb:87:a8:c3:b6:52:ca:
                    d3:53:bb:3e:f6:03:9e:40:50:1d:c0:27:33:45:c7:
                    00:ea:2e:51:eb:5b:47:be:6d:97:2d:24:b1:aa:db:
                    7e:f6:2c:e0:bc:d5:9a:59:f7:50:5b:c9:0b:29:b2:
                    7d:31:0d:31:ad:86:9b:42:1d:14:92:ef:d9:93:d7:
                    0f:b6:db:4b:26:15:5d:04:ed:cb:84:a4:91:d0:d3:
                    4a:b5:72:af:d4:7b:68:49:c7:93:38:a0:88:6a:5c:
                    44:91:fd:60:38:a7:d6:ee:24:35:07:6d:27:bc:47:
                    f6:05:e6:05:d3:9b:5d:cd:db:2f:d1:c2:ef:83:58:
                    e2:13:13:d7:da:ce:75:c1:17:99:8e:1b:60:f4:5a:
                    df:47
                Exponent: 65537 (0x10001)
        X509v3 extensions:
            X509v3 Basic Constraints: 
                CA:FALSE
            X509v3 Subject Key Identifier: 
                FB:C4:8C:D6:07:F4:53:A9:C9:CA:87:B2:DA:8D:55:33:31:9D:98:4B
            X509v3 Authority Key Identifier: 
                keyid:7D:D4:EE:08:4D:D0:46:5D:EC:41:EB:F8:F6:13:1F:35:07:A1:CC:BE
                DirName:/CN=team647-net
                serial:12:DA:3C:68:9B:48:D6:A1:6D:D9:83:CE:34:1D:C5:42:08:1F:7A:B9

            X509v3 Extended Key Usage: 
                TLS Web Client Authentication
            X509v3 Key Usage: 
                Digital Signature
    Signature Algorithm: sha256WithRSAEncryption
         97:a8:94:48:05:24:e2:13:9f:73:58:8b:04:5e:73:d9:87:6c:
         87:24:34:70:1e:27:e5:85:2f:d4:85:f1:cc:2f:ae:88:17:08:
         11:d5:be:94:d8:14:1e:63:b6:f8:29:cc:41:09:43:18:5b:2c:
         6b:5f:6c:f6:fe:e4:be:66:49:0a:4d:dc:d3:62:81:a7:e8:6d:
         68:62:4d:68:cc:6c:23:71:71:b7:8a:01:7c:85:5e:26:a6:a3:
         cf:f5:d3:df:ab:df:0b:3e:0f:1b:06:2c:78:a3:88:46:ac:11:
         5e:97:43:a9:2e:fa:1e:d2:3a:53:d8:2c:0d:de:9a:64:2d:8d:
         c1:d0:87:57:ae:db:a7:a8:b4:78:82:51:a1:4a:de:d1:e2:a3:
         87:21:22:a6:c8:64:a8:86:45:a6:f5:9e:64:56:88:87:f7:e6:
         11:9f:8b:0e:0f:0c:89:9c:ed:57:64:d8:6d:c5:1d:d4:b6:d3:
         8f:03:22:9f:3e:90:24:7a:a3:3d:23:a1:c5:6f:5e:71:a6:f6:
         b0:aa:14:29:11:89:a1:49:4e:c2:7b:19:2c:b9:76:b3:dc:ff:
         70:0b:9f:da:60:e9:bf:8c:e5:82:dc:2d:e2:6e:e6:f6:45:56:
         b8:7f:36:0a:a8:ce:9f:76:af:fd:e5:f2:f8:16:82:ac:d3:27:
         38:2c:ff:72
-----BEGIN CERTIFICATE-----
MIIDXTCCAkWgAwIBAgIRAKZaRHVrK7bffW2OUND8pScwDQYJKoZIhvcNAQELBQAw
FjEUMBIGA1UEAwwLdGVhbTY0Ny1uZXQwHhcNMjEwOTEzMDQ0OTEyWhcNMjQwODI4
MDQ0OTEyWjAZMRcwFQYDVQQDDA50ZWFtNjQ3LWNsaWVudDCCASIwDQYJKoZIhvcN
AQEBBQADggEPADCCAQoCggEBANzVcolbqsp16FWyjrUWqNVPiYlw4rnA33XmJjbv
36O4VWB8nSZzpjql+nK/Qrjlhj4gimpO010FDdBZcLuyU3HNZXnkpyM7Nxt+MH7m
1rjHmrBL+RRNeHvbbfnILSKTb9B9C4M6oIzYDfbG3RTztY77h6jDtlLK01O7PvYD
nkBQHcAnM0XHAOouUetbR75tly0ksarbfvYs4LzVmln3UFvJCymyfTENMa2Gm0Id
FJLv2ZPXD7bbSyYVXQTty4SkkdDTSrVyr9R7aEnHkzigiGpcRJH9YDin1u4kNQdt
J7xH9gXmBdObXc3bL9HC74NY4hMT19rOdcEXmY4bYPRa30cCAwEAAaOBojCBnzAJ
BgNVHRMEAjAAMB0GA1UdDgQWBBT7xIzWB/RTqcnKh7LajVUzMZ2YSzBRBgNVHSME
SjBIgBR91O4ITdBGXexB6/j2Ex81B6HMvqEapBgwFjEUMBIGA1UEAwwLdGVhbTY0
Ny1uZXSCFBLaPGibSNahbdmDzjQdxUIIH3q5MBMGA1UdJQQMMAoGCCsGAQUFBwMC
MAsGA1UdDwQEAwIHgDANBgkqhkiG9w0BAQsFAAOCAQEAl6iUSAUk4hOfc1iLBF5z
2YdshyQ0cB4n5YUv1IXxzC+uiBcIEdW+lNgUHmO2+CnMQQlDGFssa19s9v7kvmZJ
Ck3c02KBp+htaGJNaMxsI3Fxt4oBfIVeJqajz/XT36vfCz4PGwYseKOIRqwRXpdD
qS76HtI6U9gsDd6aZC2NwdCHV67bp6i0eIJRoUre0eKjhyEipshkqIZFpvWeZFaI
h/fmEZ+LDg8MiZztV2TYbcUd1LbTjwMinz6QJHqjPSOhxW9ecab2sKoUKRGJoUlO
wnsZLLl2s9z/cAuf2mDpv4zlgtwt4m7m9kVWuH82CqjOn3av/eXy+BaCrNMnOCz/
cg==
-----END CERTIFICATE-----
