Certificate:
    Data:
        Version: 3 (0x2)
        Serial Number:
            b2:65:89:2f:d3:e1:17:9b:2d:f8:e4:43:e7:15:65:e6
        Signature Algorithm: sha256WithRSAEncryption
        Issuer: CN=team0-net
        Validity
            Not Before: Sep 12 22:35:04 2021 GMT
            Not After : Aug 27 22:35:04 2024 GMT
        Subject: CN=team0-server
        Subject Public Key Info:
            Public Key Algorithm: rsaEncryption
                RSA Public-Key: (2048 bit)
                Modulus:
                    00:a9:0c:05:34:e1:2d:db:79:81:84:39:ec:b3:09:
                    13:d3:89:e2:8b:40:db:cc:63:3a:0f:cd:7e:d0:21:
                    58:b4:72:fd:0e:e3:34:41:a4:dd:ae:f8:ee:ae:07:
                    04:0f:5a:11:66:81:3c:97:30:2a:d0:ce:48:28:94:
                    be:b4:00:71:e1:2b:44:08:7c:cc:8a:96:74:00:68:
                    a1:f1:be:1e:2c:1d:7f:4e:ff:9e:45:44:d4:d5:80:
                    0d:64:2b:55:40:0a:89:b5:3a:bc:87:16:95:65:f0:
                    6e:de:95:a6:68:f3:54:65:b6:e6:0b:f5:4f:35:44:
                    f7:2f:24:95:ff:bd:9c:d0:cd:0c:fa:9a:95:b6:4b:
                    22:d7:bd:e6:a0:29:4e:bb:d4:48:88:5f:bc:c3:7a:
                    36:61:6d:81:e5:37:9a:b2:c4:df:fb:f1:27:f0:16:
                    8d:55:dd:ec:e7:f1:ae:1d:0c:5b:e9:ca:7b:17:98:
                    95:a1:7d:58:67:7a:c6:9c:62:4b:39:60:08:a0:e9:
                    86:35:b1:7b:9d:e3:dc:8f:a4:1b:af:c2:c0:3c:4e:
                    3e:95:1e:82:b2:85:37:ab:b7:6d:14:91:3a:ab:89:
                    01:d3:63:af:3b:eb:36:35:bb:e0:26:c5:52:c5:20:
                    a9:db:d4:86:a6:be:68:55:e2:73:06:99:5d:ec:6e:
                    76:11
                Exponent: 65537 (0x10001)
        X509v3 extensions:
            X509v3 Basic Constraints: 
                CA:FALSE
            X509v3 Subject Key Identifier: 
                6F:82:1F:0D:AE:4D:F1:A3:67:07:7B:40:09:EF:07:C7:00:9C:C1:C0
            X509v3 Authority Key Identifier: 
                keyid:44:61:7C:D1:E6:0E:D8:5F:3C:7E:C9:3B:EB:B0:27:25:AE:E1:01:C6
                DirName:/CN=team0-net
                serial:01:45:AD:49:39:B4:58:3F:FF:76:6C:29:44:97:53:C1:86:92:18:ED

            X509v3 Extended Key Usage: 
                TLS Web Server Authentication
            X509v3 Key Usage: 
                Digital Signature, Key Encipherment
            X509v3 Subject Alternative Name: 
                DNS:team0-server
    Signature Algorithm: sha256WithRSAEncryption
         77:df:25:0a:6d:af:db:30:31:02:a6:d5:57:c4:24:b8:28:0a:
         e2:3c:5e:bf:63:d7:a8:0e:fd:ef:3c:7d:e7:29:93:2b:66:dc:
         0c:66:dc:fd:c9:59:ef:88:a0:4e:00:bc:82:f8:e4:2d:9e:ce:
         3e:93:1a:2d:02:76:b7:84:ed:cd:cc:41:51:07:41:a4:da:3c:
         a1:d3:5c:47:51:24:e5:35:c0:f5:a3:16:f8:fc:e7:24:59:01:
         c7:a2:fb:97:8e:04:a5:44:d3:6b:2d:53:8b:cd:9a:d5:08:e2:
         45:ca:77:ca:75:0e:b5:9a:54:0c:35:37:61:0c:aa:4e:f4:88:
         eb:92:ce:4d:0a:bb:92:50:6b:35:ab:94:5c:ca:d4:3e:3a:50:
         0d:2d:8b:2e:3c:09:65:87:95:3e:83:ef:1e:5e:25:2d:14:cb:
         9e:62:7d:d8:14:1c:2e:9b:e0:85:76:6a:a1:63:22:2e:7e:a9:
         5b:0b:ee:d7:20:e7:64:56:53:e2:22:fe:a1:f7:92:c8:61:33:
         44:7b:ce:e3:b2:19:de:35:81:30:b7:ed:93:85:c6:60:be:3e:
         53:d0:6f:af:05:d5:cb:d0:16:8e:bb:8c:a5:ef:d7:8a:43:3f:
         8b:c5:cd:cd:6c:ae:1b:19:31:49:01:49:b2:7d:d4:fa:2e:53:
         bf:32:45:23
-----BEGIN CERTIFICATE-----
MIIDcDCCAligAwIBAgIRALJliS/T4RebLfjkQ+cVZeYwDQYJKoZIhvcNAQELBQAw
FDESMBAGA1UEAwwJdGVhbTAtbmV0MB4XDTIxMDkxMjIyMzUwNFoXDTI0MDgyNzIy
MzUwNFowFzEVMBMGA1UEAwwMdGVhbTAtc2VydmVyMIIBIjANBgkqhkiG9w0BAQEF
AAOCAQ8AMIIBCgKCAQEAqQwFNOEt23mBhDnsswkT04nii0DbzGM6D81+0CFYtHL9
DuM0QaTdrvjurgcED1oRZoE8lzAq0M5IKJS+tABx4StECHzMipZ0AGih8b4eLB1/
Tv+eRUTU1YANZCtVQAqJtTq8hxaVZfBu3pWmaPNUZbbmC/VPNUT3LySV/72c0M0M
+pqVtksi173moClOu9RIiF+8w3o2YW2B5TeassTf+/En8BaNVd3s5/GuHQxb6cp7
F5iVoX1YZ3rGnGJLOWAIoOmGNbF7nePcj6Qbr8LAPE4+lR6CsoU3q7dtFJE6q4kB
02OvO+s2NbvgJsVSxSCp29SGpr5oVeJzBpld7G52EQIDAQABo4G5MIG2MAkGA1Ud
EwQCMAAwHQYDVR0OBBYEFG+CHw2uTfGjZwd7QAnvB8cAnMHAME8GA1UdIwRIMEaA
FERhfNHmDthfPH7JO+uwJyWu4QHGoRikFjAUMRIwEAYDVQQDDAl0ZWFtMC1uZXSC
FAFFrUk5tFg//3ZsKUSXU8GGkhjtMBMGA1UdJQQMMAoGCCsGAQUFBwMBMAsGA1Ud
DwQEAwIFoDAXBgNVHREEEDAOggx0ZWFtMC1zZXJ2ZXIwDQYJKoZIhvcNAQELBQAD
ggEBAHffJQptr9swMQKm1VfEJLgoCuI8Xr9j16gO/e88fecpkytm3Axm3P3JWe+I
oE4AvIL45C2ezj6TGi0CdreE7c3MQVEHQaTaPKHTXEdRJOU1wPWjFvj85yRZAcei
+5eOBKVE02stU4vNmtUI4kXKd8p1DrWaVAw1N2EMqk70iOuSzk0Ku5JQazWrlFzK
1D46UA0tiy48CWWHlT6D7x5eJS0Uy55ifdgUHC6b4IV2aqFjIi5+qVsL7tcg52RW
U+Ii/qH3kshhM0R7zuOyGd41gTC37ZOFxmC+PlPQb68F1cvQFo67jKXv14pDP4vF
zc1srhsZMUkBSbJ91PouU78yRSM=
-----END CERTIFICATE-----
