Certificate:
    Data:
        Version: 3 (0x2)
        Serial Number:
            81:a5:0b:69:12:d6:b0:20:95:2f:b8:e2:3d:f7:85:7e
        Signature Algorithm: sha256WithRSAEncryption
        Issuer: CN=team217-net
        Validity
            Not Before: Sep 13 00:33:58 2021 GMT
            Not After : Aug 28 00:33:58 2024 GMT
        Subject: CN=team217-client
        Subject Public Key Info:
            Public Key Algorithm: rsaEncryption
                RSA Public-Key: (2048 bit)
                Modulus:
                    00:b1:52:1d:c7:89:85:ba:8f:db:0f:54:27:a3:cf:
                    18:0f:6e:3e:9f:2a:47:50:24:7a:d6:15:cd:8f:ff:
                    cb:52:0d:97:15:9e:fd:80:9b:e5:5d:c0:97:94:46:
                    cd:6b:6b:c7:fa:98:c1:e3:9f:7d:6f:eb:ed:46:fd:
                    8c:f1:31:57:5d:5a:84:66:f7:29:d9:2d:7f:11:c2:
                    84:68:76:85:0e:ad:cc:a6:49:5d:11:ec:65:a0:d1:
                    fa:9a:d2:57:6d:e9:fa:80:30:12:11:3d:78:8b:b6:
                    1e:a1:42:55:f5:a1:6b:b6:2e:58:a4:3b:80:14:a7:
                    88:b0:61:2d:1f:6c:95:68:1b:41:49:16:17:ce:9e:
                    15:db:da:5b:04:cc:e2:8c:7e:08:52:1c:1a:30:ef:
                    1b:04:36:73:4c:d9:7b:d1:4e:3a:2a:9e:f7:b5:bf:
                    c4:1c:92:b5:01:b8:e5:0c:39:d4:d2:66:f6:7d:52:
                    cc:bb:14:df:57:d0:3a:23:2f:81:d5:ac:53:62:0a:
                    67:3d:87:57:5e:49:fd:7d:3b:fe:cb:b0:16:11:1e:
                    95:4d:ee:b1:13:54:4f:cf:32:28:7b:55:b2:c5:e9:
                    fb:b1:94:98:4b:76:98:35:a2:c1:f2:fd:9d:3f:64:
                    c7:16:fb:a1:d0:4d:71:2f:ab:73:d3:6d:1e:aa:23:
                    1f:3b
                Exponent: 65537 (0x10001)
        X509v3 extensions:
            X509v3 Basic Constraints: 
                CA:FALSE
            X509v3 Subject Key Identifier: 
                28:B3:D1:DD:C8:7C:BA:0E:D9:70:3E:7D:B0:48:81:CF:E5:36:E4:B3
            X509v3 Authority Key Identifier: 
                keyid:35:5D:CD:99:82:87:6B:19:E2:A5:96:48:3A:AD:F8:14:4D:FE:28:57
                DirName:/CN=team217-net
                serial:4B:0E:B8:DE:14:B0:E2:17:98:68:6D:17:8C:BE:22:1B:B7:70:9E:D1

            X509v3 Extended Key Usage: 
                TLS Web Client Authentication
            X509v3 Key Usage: 
                Digital Signature
    Signature Algorithm: sha256WithRSAEncryption
         2a:7d:1a:8a:cc:ec:dc:2e:c7:43:3f:33:58:cc:73:a8:de:a6:
         a9:8d:6d:1e:da:6f:cc:fc:f0:e3:9b:15:fe:2e:f4:f0:53:26:
         f4:be:d7:b8:f5:6d:b2:08:5c:82:28:df:2a:fe:9e:11:cf:6d:
         65:0a:aa:e9:1e:3d:4c:72:33:37:77:82:52:ef:2c:e0:2e:86:
         eb:6e:a3:b4:67:a3:75:de:56:bf:56:4a:e7:1c:68:2e:22:86:
         86:2f:3b:be:e9:1d:f6:9d:49:9f:38:fc:aa:cf:3f:2a:27:60:
         56:68:5b:9c:19:d6:1d:4a:5b:ab:cb:ec:25:9a:2d:01:0d:74:
         da:5d:f7:2e:d8:93:2b:6b:25:45:69:13:0b:cc:85:96:fb:f4:
         2d:ac:67:62:83:b0:9e:d0:30:f0:6d:0f:72:2b:07:b0:e4:08:
         33:19:bb:8f:49:64:0b:d8:04:81:ad:c6:98:1a:3e:79:cc:63:
         fe:4d:2d:43:bf:44:0e:e9:3e:59:1a:95:56:49:c7:1b:03:f4:
         48:c5:3f:6c:b3:14:ea:58:1c:77:88:a9:9b:a1:65:04:66:af:
         32:da:1f:e8:68:7a:f4:a9:a1:53:ab:1c:84:36:46:f0:bc:c9:
         39:91:b3:a6:8f:6b:e3:55:3d:46:df:de:5e:27:d4:8f:8e:18:
         e7:d9:a6:9f
-----BEGIN CERTIFICATE-----
MIIDXTCCAkWgAwIBAgIRAIGlC2kS1rAglS+44j33hX4wDQYJKoZIhvcNAQELBQAw
FjEUMBIGA1UEAwwLdGVhbTIxNy1uZXQwHhcNMjEwOTEzMDAzMzU4WhcNMjQwODI4
MDAzMzU4WjAZMRcwFQYDVQQDDA50ZWFtMjE3LWNsaWVudDCCASIwDQYJKoZIhvcN
AQEBBQADggEPADCCAQoCggEBALFSHceJhbqP2w9UJ6PPGA9uPp8qR1AketYVzY//
y1INlxWe/YCb5V3Al5RGzWtrx/qYweOffW/r7Ub9jPExV11ahGb3KdktfxHChGh2
hQ6tzKZJXRHsZaDR+prSV23p+oAwEhE9eIu2HqFCVfWha7YuWKQ7gBSniLBhLR9s
lWgbQUkWF86eFdvaWwTM4ox+CFIcGjDvGwQ2c0zZe9FOOiqe97W/xByStQG45Qw5
1NJm9n1SzLsU31fQOiMvgdWsU2IKZz2HV15J/X07/suwFhEelU3usRNUT88yKHtV
ssXp+7GUmEt2mDWiwfL9nT9kxxb7odBNcS+rc9NtHqojHzsCAwEAAaOBojCBnzAJ
BgNVHRMEAjAAMB0GA1UdDgQWBBQos9HdyHy6DtlwPn2wSIHP5TbkszBRBgNVHSME
SjBIgBQ1Xc2ZgodrGeKllkg6rfgUTf4oV6EapBgwFjEUMBIGA1UEAwwLdGVhbTIx
Ny1uZXSCFEsOuN4UsOIXmGhtF4y+Ihu3cJ7RMBMGA1UdJQQMMAoGCCsGAQUFBwMC
MAsGA1UdDwQEAwIHgDANBgkqhkiG9w0BAQsFAAOCAQEAKn0aiszs3C7HQz8zWMxz
qN6mqY1tHtpvzPzw45sV/i708FMm9L7XuPVtsghcgijfKv6eEc9tZQqq6R49THIz
N3eCUu8s4C6G626jtGejdd5Wv1ZK5xxoLiKGhi87vukd9p1Jnzj8qs8/KidgVmhb
nBnWHUpbq8vsJZotAQ102l33LtiTK2slRWkTC8yFlvv0LaxnYoOwntAw8G0PcisH
sOQIMxm7j0lkC9gEga3GmBo+ecxj/k0tQ79EDuk+WRqVVknHGwP0SMU/bLMU6lgc
d4ipm6FlBGavMtof6Gh69KmhU6schDZG8LzJOZGzpo9r41U9Rt/eXifUj44Y59mm
nw==
-----END CERTIFICATE-----
