Certificate:
    Data:
        Version: 3 (0x2)
        Serial Number:
            da:6d:6d:b2:1b:82:fd:fe:e0:e4:4e:4b:f5:88:c3:eb
        Signature Algorithm: sha256WithRSAEncryption
        Issuer: CN=team217-net
        Validity
            Not Before: Sep 13 00:33:58 2021 GMT
            Not After : Aug 28 00:33:58 2024 GMT
        Subject: CN=team217-server
        Subject Public Key Info:
            Public Key Algorithm: rsaEncryption
                RSA Public-Key: (2048 bit)
                Modulus:
                    00:a9:8d:03:db:8f:4a:dc:f0:18:34:80:7c:8a:de:
                    ba:f7:21:81:15:c7:5d:1d:48:b2:59:ed:2d:d7:15:
                    a4:1f:02:ee:01:ce:d5:c5:09:56:2a:6e:9d:9c:8a:
                    da:3e:3a:bb:f2:96:cb:42:e9:4d:a3:e1:38:e2:34:
                    72:dd:2b:13:d7:37:01:2d:39:51:45:41:62:c4:c9:
                    90:0b:de:b8:2b:07:b6:b2:a5:aa:9f:01:85:1f:44:
                    f6:bf:3c:0a:0e:26:d5:f4:ef:cc:ab:14:12:d9:d1:
                    7d:d8:dd:80:49:6d:df:d0:af:d2:14:04:3a:56:90:
                    78:fe:94:19:49:4b:2b:59:03:94:31:a4:b1:14:78:
                    4f:1f:ba:f5:87:f5:96:ea:60:65:3a:1e:bf:fc:af:
                    e5:98:3a:a0:5a:1e:af:97:5f:fc:2d:c4:f9:c1:e2:
                    8a:23:ac:81:6d:85:d9:25:92:d4:3b:52:9e:c2:9d:
                    91:d3:c7:37:39:f8:4a:24:44:26:27:91:f1:5c:da:
                    6d:00:f6:a4:6f:57:97:4c:7c:4c:bb:68:54:16:c5:
                    19:19:d1:5e:34:09:bb:cb:df:5e:b0:10:fc:85:19:
                    bd:ac:1b:c4:6b:5a:47:5c:f3:fb:53:4a:52:48:1b:
                    d7:96:38:e6:78:b5:22:a6:11:31:d1:8e:0a:4e:71:
                    17:97
                Exponent: 65537 (0x10001)
        X509v3 extensions:
            X509v3 Basic Constraints: 
                CA:FALSE
            X509v3 Subject Key Identifier: 
                E2:05:77:9D:9B:C6:96:2C:EA:87:D0:01:24:4F:E0:3D:6F:81:FC:99
            X509v3 Authority Key Identifier: 
                keyid:35:5D:CD:99:82:87:6B:19:E2:A5:96:48:3A:AD:F8:14:4D:FE:28:57
                DirName:/CN=team217-net
                serial:4B:0E:B8:DE:14:B0:E2:17:98:68:6D:17:8C:BE:22:1B:B7:70:9E:D1

            X509v3 Extended Key Usage: 
                TLS Web Server Authentication
            X509v3 Key Usage: 
                Digital Signature, Key Encipherment
            X509v3 Subject Alternative Name: 
                DNS:team217-server
    Signature Algorithm: sha256WithRSAEncryption
         1c:24:34:0a:a8:9a:e9:81:7b:58:69:e9:54:fd:44:0a:9e:0e:
         cc:37:3a:96:2b:a9:f4:2e:14:21:98:a8:8e:26:2f:d4:eb:00:
         8f:ab:33:5e:28:bc:38:2e:dd:0d:f6:7f:69:b5:29:d4:d8:94:
         05:98:52:38:c9:48:20:e9:45:f5:ff:37:20:56:e1:30:41:23:
         e6:64:01:a9:8f:0a:c4:af:c1:9c:20:a5:ce:61:3e:b5:97:4d:
         b6:6e:fe:f6:2c:b7:9a:6a:02:fc:d8:04:d5:cb:5a:9f:8d:e8:
         da:80:00:01:f5:17:ca:32:3f:77:84:27:01:2a:5c:33:d2:4c:
         25:bc:5d:99:16:ee:68:53:e7:c5:b0:db:2d:b4:cd:e8:8c:e6:
         db:a5:ad:dc:8d:3b:6a:0f:c2:e5:f6:23:1b:9f:7b:82:89:cc:
         e7:56:be:f6:94:15:12:29:84:51:b2:47:e2:c9:38:90:40:a9:
         dd:3a:fe:e7:70:8f:bd:f9:72:7c:f0:a5:bc:9b:91:50:08:b0:
         ea:dd:ce:13:c6:dc:de:0e:22:ec:c7:13:0f:72:c6:b8:3e:18:
         6b:73:33:2f:83:28:84:e8:7b:f5:0b:6a:9c:77:7a:a2:b3:7c:
         88:d4:b2:34:8d:da:55:bf:5c:b2:0a:02:c7:b0:3a:f7:fb:c4:
         cb:f9:03:cb
-----BEGIN CERTIFICATE-----
MIIDeDCCAmCgAwIBAgIRANptbbIbgv3+4OROS/WIw+swDQYJKoZIhvcNAQELBQAw
FjEUMBIGA1UEAwwLdGVhbTIxNy1uZXQwHhcNMjEwOTEzMDAzMzU4WhcNMjQwODI4
MDAzMzU4WjAZMRcwFQYDVQQDDA50ZWFtMjE3LXNlcnZlcjCCASIwDQYJKoZIhvcN
AQEBBQADggEPADCCAQoCggEBAKmNA9uPStzwGDSAfIreuvchgRXHXR1IslntLdcV
pB8C7gHO1cUJVipunZyK2j46u/KWy0LpTaPhOOI0ct0rE9c3AS05UUVBYsTJkAve
uCsHtrKlqp8BhR9E9r88Cg4m1fTvzKsUEtnRfdjdgElt39Cv0hQEOlaQeP6UGUlL
K1kDlDGksRR4Tx+69Yf1lupgZToev/yv5Zg6oFoer5df/C3E+cHiiiOsgW2F2SWS
1DtSnsKdkdPHNzn4SiREJieR8VzabQD2pG9Xl0x8TLtoVBbFGRnRXjQJu8vfXrAQ
/IUZvawbxGtaR1zz+1NKUkgb15Y45ni1IqYRMdGOCk5xF5cCAwEAAaOBvTCBujAJ
BgNVHRMEAjAAMB0GA1UdDgQWBBTiBXedm8aWLOqH0AEkT+A9b4H8mTBRBgNVHSME
SjBIgBQ1Xc2ZgodrGeKllkg6rfgUTf4oV6EapBgwFjEUMBIGA1UEAwwLdGVhbTIx
Ny1uZXSCFEsOuN4UsOIXmGhtF4y+Ihu3cJ7RMBMGA1UdJQQMMAoGCCsGAQUFBwMB
MAsGA1UdDwQEAwIFoDAZBgNVHREEEjAQgg50ZWFtMjE3LXNlcnZlcjANBgkqhkiG
9w0BAQsFAAOCAQEAHCQ0Cqia6YF7WGnpVP1ECp4OzDc6liup9C4UIZiojiYv1OsA
j6szXii8OC7dDfZ/abUp1NiUBZhSOMlIIOlF9f83IFbhMEEj5mQBqY8KxK/BnCCl
zmE+tZdNtm7+9iy3mmoC/NgE1ctan43o2oAAAfUXyjI/d4QnASpcM9JMJbxdmRbu
aFPnxbDbLbTN6Izm26Wt3I07ag/C5fYjG597gonM51a+9pQVEimEUbJH4sk4kECp
3Tr+53CPvflyfPClvJuRUAiw6t3OE8bc3g4i7McTD3LGuD4Ya3MzL4MohOh79Qtq
nHd6orN8iNSyNI3aVb9csgoCx7A69/vEy/kDyw==
-----END CERTIFICATE-----
