Certificate:
    Data:
        Version: 3 (0x2)
        Serial Number:
            54:80:c7:3c:4e:c5:52:90:ce:24:02:7e:47:84:e6:f1
        Signature Algorithm: sha256WithRSAEncryption
        Issuer: CN=team92-net
        Validity
            Not Before: Sep 12 23:30:42 2021 GMT
            Not After : Aug 27 23:30:42 2024 GMT
        Subject: CN=team92-client
        Subject Public Key Info:
            Public Key Algorithm: rsaEncryption
                RSA Public-Key: (2048 bit)
                Modulus:
                    00:9d:11:19:6f:5a:d6:95:b7:c9:bb:15:fd:1a:c3:
                    a8:bb:16:71:fb:fe:59:50:56:e2:be:74:8f:90:01:
                    a8:cb:48:ea:cc:01:93:9b:de:52:bf:67:36:4c:fd:
                    42:1b:68:89:23:f2:89:0c:2f:6d:cf:96:41:89:ad:
                    d9:ab:d5:05:58:7d:9e:61:51:89:a1:d4:03:46:3d:
                    ef:14:11:d1:34:ba:6d:ff:7e:d9:08:e2:b2:1c:0c:
                    43:f9:53:5e:a4:26:94:e9:a3:18:8b:ce:2d:a0:d0:
                    70:15:39:9c:f0:61:db:4d:29:9c:9b:3a:76:ff:68:
                    81:21:c5:42:45:70:57:df:e0:c3:11:c4:91:0a:03:
                    d1:65:d4:83:83:cc:46:32:94:09:68:f5:cf:bd:8c:
                    a4:a6:99:aa:80:d9:57:e5:cb:66:d9:83:89:85:93:
                    e9:31:0f:a7:42:41:fe:37:9f:ba:5c:2b:02:89:33:
                    4b:d8:9a:c3:5e:85:77:fc:b1:b0:82:66:5b:aa:c9:
                    12:a2:79:94:b2:4f:74:e0:4b:76:95:a7:6f:45:2b:
                    c0:fa:3b:b7:25:a2:78:05:f7:99:3f:b8:67:18:1b:
                    e0:61:a1:87:4c:ed:99:eb:7b:b2:9d:8d:8f:20:d7:
                    5f:31:7d:1c:90:3d:1f:db:a3:75:c9:f4:49:53:41:
                    3f:1b
                Exponent: 65537 (0x10001)
        X509v3 extensions:
            X509v3 Basic Constraints: 
                CA:FALSE
            X509v3 Subject Key Identifier: 
                69:FD:0D:F7:B4:55:03:A5:E6:35:15:3C:FF:B6:A9:27:99:1D:4E:D7
            X509v3 Authority Key Identifier: 
                keyid:0A:83:B6:0A:48:F5:D6:59:40:5C:23:6E:0E:C1:DA:AF:A5:E1:6A:83
                DirName:/CN=team92-net
                serial:65:50:79:A5:D8:37:90:3A:7B:E9:F0:CE:AA:D8:94:FA:56:FC:1B:A3

            X509v3 Extended Key Usage: 
                TLS Web Client Authentication
            X509v3 Key Usage: 
                Digital Signature
    Signature Algorithm: sha256WithRSAEncryption
         15:a4:46:2d:c8:0e:71:6d:c6:06:d1:63:a8:9a:4b:26:dc:41:
         f3:01:79:b1:26:d4:00:93:ab:64:16:8b:96:ff:92:55:8c:96:
         25:d1:44:8f:9c:35:01:7f:ad:ef:c2:3c:42:1b:27:4c:6c:a2:
         06:04:7c:4f:98:4e:ed:19:ff:d1:1c:31:e1:be:2f:5f:59:4a:
         73:08:43:7e:11:c2:fa:60:32:40:ed:53:ce:20:ab:17:58:3c:
         be:70:f4:fa:87:90:2b:ee:3a:f7:54:17:24:40:12:81:bd:77:
         c8:47:b9:0d:1f:ae:4c:f2:47:84:db:23:ea:a9:4e:b0:bb:bc:
         fd:fb:c8:76:07:bd:39:6f:45:5f:d3:70:7f:2f:44:4a:42:68:
         2c:bc:bf:83:89:e2:65:15:d5:e6:34:3c:d1:d1:07:08:ee:fc:
         b1:6d:32:7d:8f:93:64:31:79:3a:ba:96:3c:0d:f4:cf:15:30:
         6a:8d:5c:cb:4c:39:8e:2e:bf:63:46:ea:2a:92:f6:d3:6c:31:
         cb:d1:de:7d:81:5e:72:c3:c0:98:cf:d3:cf:12:84:cb:08:2a:
         44:a8:4d:c1:6b:06:59:4a:09:c1:48:84:a4:86:e4:89:4e:0f:
         bb:5d:38:bf:64:d0:e5:86:4b:b3:d7:d5:ee:1a:e2:68:52:89:
         b8:2f:e5:51
-----BEGIN CERTIFICATE-----
MIIDWTCCAkGgAwIBAgIQVIDHPE7FUpDOJAJ+R4Tm8TANBgkqhkiG9w0BAQsFADAV
MRMwEQYDVQQDDAp0ZWFtOTItbmV0MB4XDTIxMDkxMjIzMzA0MloXDTI0MDgyNzIz
MzA0MlowGDEWMBQGA1UEAwwNdGVhbTkyLWNsaWVudDCCASIwDQYJKoZIhvcNAQEB
BQADggEPADCCAQoCggEBAJ0RGW9a1pW3ybsV/RrDqLsWcfv+WVBW4r50j5ABqMtI
6swBk5veUr9nNkz9QhtoiSPyiQwvbc+WQYmt2avVBVh9nmFRiaHUA0Y97xQR0TS6
bf9+2QjishwMQ/lTXqQmlOmjGIvOLaDQcBU5nPBh200pnJs6dv9ogSHFQkVwV9/g
wxHEkQoD0WXUg4PMRjKUCWj1z72MpKaZqoDZV+XLZtmDiYWT6TEPp0JB/jefulwr
AokzS9iaw16Fd/yxsIJmW6rJEqJ5lLJPdOBLdpWnb0UrwPo7tyWieAX3mT+4Zxgb
4GGhh0ztmet7sp2NjyDXXzF9HJA9H9ujdcn0SVNBPxsCAwEAAaOBoTCBnjAJBgNV
HRMEAjAAMB0GA1UdDgQWBBRp/Q33tFUDpeY1FTz/tqknmR1O1zBQBgNVHSMESTBH
gBQKg7YKSPXWWUBcI24OwdqvpeFqg6EZpBcwFTETMBEGA1UEAwwKdGVhbTkyLW5l
dIIUZVB5pdg3kDp76fDOqtiU+lb8G6MwEwYDVR0lBAwwCgYIKwYBBQUHAwIwCwYD
VR0PBAQDAgeAMA0GCSqGSIb3DQEBCwUAA4IBAQAVpEYtyA5xbcYG0WOomksm3EHz
AXmxJtQAk6tkFouW/5JVjJYl0USPnDUBf63vwjxCGydMbKIGBHxPmE7tGf/RHDHh
vi9fWUpzCEN+EcL6YDJA7VPOIKsXWDy+cPT6h5Ar7jr3VBckQBKBvXfIR7kNH65M
8keE2yPqqU6wu7z9+8h2B705b0Vf03B/L0RKQmgsvL+DieJlFdXmNDzR0QcI7vyx
bTJ9j5NkMXk6upY8DfTPFTBqjVzLTDmOLr9jRuoqkvbTbDHL0d59gV5yw8CYz9PP
EoTLCCpEqE3BawZZSgnBSISkhuSJTg+7XTi/ZNDlhkuz19XuGuJoUom4L+VR
-----END CERTIFICATE-----
