Certificate:
    Data:
        Version: 3 (0x2)
        Serial Number:
            47:64:2b:8c:a0:a4:30:aa:9a:75:b8:f6:b7:92:14:78
        Signature Algorithm: sha256WithRSAEncryption
        Issuer: CN=team336-net
        Validity
            Not Before: Sep 13 01:49:28 2021 GMT
            Not After : Aug 28 01:49:28 2024 GMT
        Subject: CN=team336-client
        Subject Public Key Info:
            Public Key Algorithm: rsaEncryption
                RSA Public-Key: (2048 bit)
                Modulus:
                    00:d2:fd:09:46:89:47:01:07:b8:6e:51:eb:76:1f:
                    26:6c:37:de:eb:56:7d:f9:6f:dc:65:d0:18:30:6c:
                    fb:c9:6d:15:4b:38:83:4f:ea:86:0f:d1:15:86:74:
                    48:c6:69:4e:0e:7f:d5:84:c3:24:fa:ac:f9:f7:50:
                    92:c6:cf:4a:2a:cc:37:bb:e6:dd:6f:a2:5f:24:d6:
                    94:92:19:6b:f3:4f:1c:6f:e0:c5:34:9b:76:e4:43:
                    ab:2e:a8:65:ae:05:25:68:20:57:8a:ad:c7:86:f1:
                    35:40:e5:a3:0c:7b:fd:36:2f:d3:a2:d3:2f:0d:df:
                    10:e7:0e:d4:83:e8:cb:69:51:05:b6:f1:b6:8c:db:
                    f8:7d:3c:ea:94:f3:a1:f3:6f:80:b5:45:df:04:d8:
                    88:16:2d:6d:df:66:ad:a3:f5:64:02:19:54:58:ef:
                    d1:7b:91:a4:6f:88:62:7f:ab:89:2d:36:d3:de:ae:
                    af:41:05:e4:cc:42:97:b1:46:fa:cc:09:d9:44:4f:
                    c6:cd:6b:2c:78:f9:c2:cc:03:be:93:5b:3c:2b:4e:
                    85:49:a1:18:39:cf:17:21:e6:cc:97:1f:3e:42:e8:
                    20:82:44:26:c9:85:87:1f:0b:48:11:b4:41:5a:54:
                    d0:65:3c:39:e4:02:ac:1e:c9:ad:37:b1:18:bb:d1:
                    70:ed
                Exponent: 65537 (0x10001)
        X509v3 extensions:
            X509v3 Basic Constraints: 
                CA:FALSE
            X509v3 Subject Key Identifier: 
                F2:93:24:23:03:33:FC:55:60:BD:67:34:AE:83:91:C1:F1:98:86:96
            X509v3 Authority Key Identifier: 
                keyid:49:E7:09:89:6F:90:E0:37:C8:78:C4:F8:FB:51:05:F9:FB:FE:74:04
                DirName:/CN=team336-net
                serial:48:30:9C:A5:1C:AA:FE:39:B7:48:90:6A:F5:A0:77:83:09:B7:48:71

            X509v3 Extended Key Usage: 
                TLS Web Client Authentication
            X509v3 Key Usage: 
                Digital Signature
    Signature Algorithm: sha256WithRSAEncryption
         97:9e:dd:22:ae:19:fa:e7:29:56:1f:74:1d:af:f4:7b:2a:81:
         43:f0:41:80:56:a5:ef:ea:34:59:81:19:79:4b:7e:dd:8f:bf:
         cc:42:64:c3:38:31:da:4b:3b:20:23:f7:c4:8f:e0:c3:2c:31:
         cf:20:3f:81:22:23:53:8b:6c:ea:95:62:6e:74:91:3b:0f:d0:
         1e:98:17:a2:0e:81:5a:18:b5:af:2f:bc:8e:38:16:aa:81:58:
         bb:85:1d:88:bc:f6:a7:06:4d:8a:76:ea:5a:02:50:db:3d:18:
         f8:52:b2:a1:55:58:f9:51:ee:d0:27:6b:44:00:71:92:c6:84:
         13:1e:34:c2:4a:5e:ea:10:8b:35:37:cd:8e:21:de:0d:0c:a0:
         4c:0a:ad:ed:3e:a1:10:d2:db:a0:a9:6d:e3:f5:aa:e7:4c:1d:
         6c:1f:e2:72:09:4a:9c:91:0f:bb:a3:0d:5a:f9:f6:1c:85:bc:
         43:01:e0:50:45:03:df:ba:b8:63:3f:ce:c3:d1:3c:87:4c:b8:
         a0:b7:2d:59:07:8d:6c:98:b1:85:78:8f:7b:fe:fb:11:b2:15:
         3a:a2:9b:7a:56:d6:1a:25:56:b4:7b:f7:12:54:54:46:db:a2:
         2a:3c:69:8b:a3:c4:07:13:10:d7:b7:7b:2d:d1:65:c9:1c:a0:
         c9:fb:ee:8b
-----BEGIN CERTIFICATE-----
MIIDXDCCAkSgAwIBAgIQR2QrjKCkMKqadbj2t5IUeDANBgkqhkiG9w0BAQsFADAW
MRQwEgYDVQQDDAt0ZWFtMzM2LW5ldDAeFw0yMTA5MTMwMTQ5MjhaFw0yNDA4Mjgw
MTQ5MjhaMBkxFzAVBgNVBAMMDnRlYW0zMzYtY2xpZW50MIIBIjANBgkqhkiG9w0B
AQEFAAOCAQ8AMIIBCgKCAQEA0v0JRolHAQe4blHrdh8mbDfe61Z9+W/cZdAYMGz7
yW0VSziDT+qGD9EVhnRIxmlODn/VhMMk+qz591CSxs9KKsw3u+bdb6JfJNaUkhlr
808cb+DFNJt25EOrLqhlrgUlaCBXiq3HhvE1QOWjDHv9Ni/TotMvDd8Q5w7Ug+jL
aVEFtvG2jNv4fTzqlPOh82+AtUXfBNiIFi1t32ato/VkAhlUWO/Re5Gkb4hif6uJ
LTbT3q6vQQXkzEKXsUb6zAnZRE/GzWssePnCzAO+k1s8K06FSaEYOc8XIebMlx8+
QugggkQmyYWHHwtIEbRBWlTQZTw55AKsHsmtN7EYu9Fw7QIDAQABo4GiMIGfMAkG
A1UdEwQCMAAwHQYDVR0OBBYEFPKTJCMDM/xVYL1nNK6DkcHxmIaWMFEGA1UdIwRK
MEiAFEnnCYlvkOA3yHjE+PtRBfn7/nQEoRqkGDAWMRQwEgYDVQQDDAt0ZWFtMzM2
LW5ldIIUSDCcpRyq/jm3SJBq9aB3gwm3SHEwEwYDVR0lBAwwCgYIKwYBBQUHAwIw
CwYDVR0PBAQDAgeAMA0GCSqGSIb3DQEBCwUAA4IBAQCXnt0irhn65ylWH3Qdr/R7
KoFD8EGAVqXv6jRZgRl5S37dj7/MQmTDODHaSzsgI/fEj+DDLDHPID+BIiNTi2zq
lWJudJE7D9AemBeiDoFaGLWvL7yOOBaqgVi7hR2IvPanBk2KdupaAlDbPRj4UrKh
VVj5Ue7QJ2tEAHGSxoQTHjTCSl7qEIs1N82OId4NDKBMCq3tPqEQ0tugqW3j9arn
TB1sH+JyCUqckQ+7ow1a+fYchbxDAeBQRQPfurhjP87D0TyHTLigty1ZB41smLGF
eI97/vsRshU6opt6VtYaJVa0e/cSVFRG26IqPGmLo8QHExDXt3st0WXJHKDJ++6L
-----END CERTIFICATE-----
