Certificate:
    Data:
        Version: 3 (0x2)
        Serial Number:
            81:56:f8:de:22:21:63:1d:55:b4:a8:28:a4:35:2d:0e
        Signature Algorithm: sha256WithRSAEncryption
        Issuer: CN=team336-net
        Validity
            Not Before: Sep 13 01:49:28 2021 GMT
            Not After : Aug 28 01:49:28 2024 GMT
        Subject: CN=team336-server
        Subject Public Key Info:
            Public Key Algorithm: rsaEncryption
                RSA Public-Key: (2048 bit)
                Modulus:
                    00:cc:22:f4:0f:2f:32:bc:c4:d0:38:c9:12:8c:b4:
                    65:b6:bc:d5:8f:61:dd:3d:56:df:2a:fa:44:55:d0:
                    28:48:9b:b5:07:c7:df:65:6f:35:6c:3a:d5:cf:76:
                    6f:43:cc:9b:9c:54:f7:b3:86:cb:0a:fd:ec:99:3b:
                    19:75:7c:82:3b:dd:59:c9:cc:77:d3:11:56:89:66:
                    7f:e6:1b:f9:6c:29:2b:b1:9c:dc:52:fe:ef:64:4b:
                    4a:09:4e:8b:7c:9c:d1:42:6f:a8:6d:43:a3:c3:df:
                    00:be:42:15:cb:d0:75:11:9b:51:3c:2b:52:82:f8:
                    74:98:0d:18:4d:0f:2a:5f:d0:a5:de:c6:47:55:fc:
                    ff:3f:2f:ae:2a:4d:1f:54:60:ab:90:3f:8d:a6:ff:
                    b1:86:f8:3f:ef:88:ff:25:0b:0a:db:12:76:5c:43:
                    35:ad:7b:57:f2:21:2e:62:a4:60:1a:74:f9:82:72:
                    23:6e:a6:4d:df:5a:92:c5:64:0a:06:ee:ae:41:3f:
                    19:c4:88:c8:f5:41:a1:9c:ec:2a:63:a1:cb:a3:18:
                    0a:18:3c:cf:a4:e2:26:97:1d:2a:22:a1:ca:84:1b:
                    46:f4:8d:5d:22:9a:60:f6:16:b5:7a:fc:42:96:6f:
                    ee:87:52:ca:75:cd:de:5b:23:95:a0:86:71:1e:2e:
                    e7:87
                Exponent: 65537 (0x10001)
        X509v3 extensions:
            X509v3 Basic Constraints: 
                CA:FALSE
            X509v3 Subject Key Identifier: 
                D1:6A:09:AD:38:93:4D:A8:A5:03:F4:F5:83:0E:9F:21:8C:C6:0C:83
            X509v3 Authority Key Identifier: 
                keyid:49:E7:09:89:6F:90:E0:37:C8:78:C4:F8:FB:51:05:F9:FB:FE:74:04
                DirName:/CN=team336-net
                serial:48:30:9C:A5:1C:AA:FE:39:B7:48:90:6A:F5:A0:77:83:09:B7:48:71

            X509v3 Extended Key Usage: 
                TLS Web Server Authentication
            X509v3 Key Usage: 
                Digital Signature, Key Encipherment
            X509v3 Subject Alternative Name: 
                DNS:team336-server
    Signature Algorithm: sha256WithRSAEncryption
         11:9e:77:82:cc:a5:70:1f:df:6a:87:d4:7a:35:91:94:31:35:
         0d:36:51:50:18:b6:d3:51:1d:a9:3b:79:38:a8:08:7c:98:83:
         91:e0:c1:80:c4:c6:b1:c8:ae:98:2b:a3:57:05:20:02:c0:71:
         69:23:2d:5d:53:18:0f:37:94:24:67:93:6f:40:2e:55:1a:5a:
         b7:d3:8c:9b:53:ac:20:8a:46:e2:06:8a:80:6b:94:fa:d6:5d:
         01:f6:f1:2e:9f:17:e0:3e:f3:d2:74:ff:86:0a:62:18:30:e0:
         df:f0:2d:06:2f:ce:93:e0:c8:ad:2a:96:e8:9a:86:30:91:92:
         36:8a:6f:c4:cc:a1:82:d2:52:23:4a:dc:19:3a:26:fb:45:1f:
         ec:40:fc:f1:a0:27:56:21:5e:76:21:ba:b6:99:74:27:49:32:
         f8:40:ff:6d:8f:46:fb:78:bd:d3:90:44:7c:e8:a0:1d:2c:ff:
         9d:06:20:34:75:e2:71:f7:2f:da:1f:a6:7d:b2:b6:4b:40:7b:
         82:4c:68:67:f0:3e:69:b2:ca:9c:bd:f9:13:e8:84:ab:29:39:
         1b:12:16:45:7e:74:8e:6f:52:c2:06:a1:2a:60:a0:c8:73:0f:
         85:8c:2c:13:77:82:9a:c8:bb:91:2a:9f:25:89:f1:7d:c1:a9:
         32:1d:97:32
-----BEGIN CERTIFICATE-----
MIIDeDCCAmCgAwIBAgIRAIFW+N4iIWMdVbSoKKQ1LQ4wDQYJKoZIhvcNAQELBQAw
FjEUMBIGA1UEAwwLdGVhbTMzNi1uZXQwHhcNMjEwOTEzMDE0OTI4WhcNMjQwODI4
MDE0OTI4WjAZMRcwFQYDVQQDDA50ZWFtMzM2LXNlcnZlcjCCASIwDQYJKoZIhvcN
AQEBBQADggEPADCCAQoCggEBAMwi9A8vMrzE0DjJEoy0Zba81Y9h3T1W3yr6RFXQ
KEibtQfH32VvNWw61c92b0PMm5xU97OGywr97Jk7GXV8gjvdWcnMd9MRVolmf+Yb
+WwpK7Gc3FL+72RLSglOi3yc0UJvqG1Do8PfAL5CFcvQdRGbUTwrUoL4dJgNGE0P
Kl/Qpd7GR1X8/z8vripNH1Rgq5A/jab/sYb4P++I/yULCtsSdlxDNa17V/IhLmKk
YBp0+YJyI26mTd9aksVkCgburkE/GcSIyPVBoZzsKmOhy6MYChg8z6TiJpcdKiKh
yoQbRvSNXSKaYPYWtXr8QpZv7odSynXN3lsjlaCGcR4u54cCAwEAAaOBvTCBujAJ
BgNVHRMEAjAAMB0GA1UdDgQWBBTRagmtOJNNqKUD9PWDDp8hjMYMgzBRBgNVHSME
SjBIgBRJ5wmJb5DgN8h4xPj7UQX5+/50BKEapBgwFjEUMBIGA1UEAwwLdGVhbTMz
Ni1uZXSCFEgwnKUcqv45t0iQavWgd4MJt0hxMBMGA1UdJQQMMAoGCCsGAQUFBwMB
MAsGA1UdDwQEAwIFoDAZBgNVHREEEjAQgg50ZWFtMzM2LXNlcnZlcjANBgkqhkiG
9w0BAQsFAAOCAQEAEZ53gsylcB/faofUejWRlDE1DTZRUBi201EdqTt5OKgIfJiD
keDBgMTGsciumCujVwUgAsBxaSMtXVMYDzeUJGeTb0AuVRpat9OMm1OsIIpG4gaK
gGuU+tZdAfbxLp8X4D7z0nT/hgpiGDDg3/AtBi/Ok+DIrSqW6JqGMJGSNopvxMyh
gtJSI0rcGTom+0Uf7ED88aAnViFediG6tpl0J0ky+ED/bY9G+3i905BEfOigHSz/
nQYgNHXicfcv2h+mfbK2S0B7gkxoZ/A+abLKnL35E+iEqyk5GxIWRX50jm9Swgah
KmCgyHMPhYwsE3eCmsi7kSqfJYnxfcGpMh2XMg==
-----END CERTIFICATE-----
