Certificate:
    Data:
        Version: 3 (0x2)
        Serial Number:
            db:8d:4c:08:5b:18:ab:ed:31:a8:d5:28:72:6f:85:2a
        Signature Algorithm: sha256WithRSAEncryption
        Issuer: CN=team105-net
        Validity
            Not Before: Sep 12 23:37:58 2021 GMT
            Not After : Aug 27 23:37:58 2024 GMT
        Subject: CN=team105-client
        Subject Public Key Info:
            Public Key Algorithm: rsaEncryption
                RSA Public-Key: (2048 bit)
                Modulus:
                    00:c8:1c:c4:99:11:d6:a3:e9:aa:6b:1e:34:76:98:
                    6b:72:ce:d3:9b:10:ee:e7:24:05:39:c4:3b:71:e8:
                    71:d3:3a:51:25:8a:85:72:de:75:78:19:33:83:04:
                    74:61:34:7a:3c:12:9f:64:19:46:6b:dc:5a:e7:9d:
                    a0:f2:03:e1:c8:d5:31:e8:49:c7:41:4a:82:0c:79:
                    d7:48:9b:87:34:09:8e:e8:6d:a4:64:75:07:be:be:
                    98:a9:db:cb:18:55:84:c0:ea:33:e5:d7:23:20:06:
                    14:eb:63:f4:c8:e1:63:70:54:18:23:9a:af:62:86:
                    b0:da:5b:52:37:0a:44:98:e2:47:9a:8e:ce:45:cb:
                    bc:38:e5:68:75:97:13:09:65:a8:ca:d5:43:e3:e8:
                    a0:2a:40:d2:82:61:dd:ce:25:cc:49:4c:24:fa:dc:
                    0d:f7:84:90:6b:bb:eb:fa:a0:0e:20:bb:db:a4:f4:
                    db:75:81:e4:f8:76:4d:d2:53:14:91:3e:c5:03:c0:
                    36:e3:82:ff:4b:ac:e8:43:05:e2:35:9a:30:94:a8:
                    3e:26:9f:31:27:f9:f0:dc:9f:13:f7:da:c9:46:65:
                    a4:74:b4:cb:e3:fa:a7:c4:24:58:9b:71:94:ac:cc:
                    88:0b:03:8f:16:fb:07:a4:45:39:1f:4a:77:b1:49:
                    f3:59
                Exponent: 65537 (0x10001)
        X509v3 extensions:
            X509v3 Basic Constraints: 
                CA:FALSE
            X509v3 Subject Key Identifier: 
                E6:37:89:B5:79:20:C0:28:0B:7B:8F:CE:56:17:AC:5A:A2:2C:47:5B
            X509v3 Authority Key Identifier: 
                keyid:1A:12:D4:3F:A1:43:22:DD:F5:7E:FC:A6:D3:3A:4F:38:1E:FA:ED:0E
                DirName:/CN=team105-net
                serial:11:6B:DA:41:F5:01:D8:F6:04:D2:59:33:BF:F6:9B:AF:16:5E:06:33

            X509v3 Extended Key Usage: 
                TLS Web Client Authentication
            X509v3 Key Usage: 
                Digital Signature
    Signature Algorithm: sha256WithRSAEncryption
         6b:b7:53:a4:14:df:c0:b6:e6:e1:24:8d:70:22:7d:37:da:62:
         11:c7:f2:09:4b:aa:27:fe:f9:2e:56:d3:f0:35:d2:77:cd:05:
         76:ae:88:17:ec:7e:1e:0c:00:f9:cc:16:b3:ae:ab:3c:35:d7:
         f2:f3:6b:72:74:b2:5a:0e:73:c3:6c:4f:18:95:33:d0:63:44:
         f6:02:03:a5:5c:cc:99:a4:72:9b:23:63:f0:59:d2:96:16:55:
         49:70:0f:3a:89:ca:df:cf:6b:08:44:54:ed:4a:68:40:cf:f0:
         38:e4:49:8d:14:36:a2:3e:b1:d4:b0:f5:76:66:fb:41:0f:e3:
         9d:e2:08:5c:f8:0a:1e:a5:aa:39:a4:13:db:86:49:ef:d8:0a:
         06:50:58:6a:29:aa:c8:8f:26:1a:89:a0:1f:2f:33:78:32:91:
         65:45:80:ec:26:8b:80:3d:99:e5:ff:35:c0:b7:de:0c:a2:6d:
         35:a8:34:58:79:b1:86:eb:9a:eb:8a:3d:26:1f:0c:46:d7:44:
         2f:83:51:a8:17:bf:04:58:97:ee:5b:5f:a1:e6:92:92:50:23:
         63:df:91:72:67:62:d7:4b:61:d0:19:dd:4d:11:23:9f:98:50:
         29:7b:90:b9:18:17:48:1f:37:15:79:e8:57:11:ab:fb:a8:52:
         88:ea:b6:5e
-----BEGIN CERTIFICATE-----
MIIDXTCCAkWgAwIBAgIRANuNTAhbGKvtMajVKHJvhSowDQYJKoZIhvcNAQELBQAw
FjEUMBIGA1UEAwwLdGVhbTEwNS1uZXQwHhcNMjEwOTEyMjMzNzU4WhcNMjQwODI3
MjMzNzU4WjAZMRcwFQYDVQQDDA50ZWFtMTA1LWNsaWVudDCCASIwDQYJKoZIhvcN
AQEBBQADggEPADCCAQoCggEBAMgcxJkR1qPpqmseNHaYa3LO05sQ7uckBTnEO3Ho
cdM6USWKhXLedXgZM4MEdGE0ejwSn2QZRmvcWuedoPID4cjVMehJx0FKggx510ib
hzQJjuhtpGR1B76+mKnbyxhVhMDqM+XXIyAGFOtj9MjhY3BUGCOar2KGsNpbUjcK
RJjiR5qOzkXLvDjlaHWXEwllqMrVQ+PooCpA0oJh3c4lzElMJPrcDfeEkGu76/qg
DiC726T023WB5Ph2TdJTFJE+xQPANuOC/0us6EMF4jWaMJSoPiafMSf58NyfE/fa
yUZlpHS0y+P6p8QkWJtxlKzMiAsDjxb7B6RFOR9Kd7FJ81kCAwEAAaOBojCBnzAJ
BgNVHRMEAjAAMB0GA1UdDgQWBBTmN4m1eSDAKAt7j85WF6xaoixHWzBRBgNVHSME
SjBIgBQaEtQ/oUMi3fV+/KbTOk84HvrtDqEapBgwFjEUMBIGA1UEAwwLdGVhbTEw
NS1uZXSCFBFr2kH1Adj2BNJZM7/2m68WXgYzMBMGA1UdJQQMMAoGCCsGAQUFBwMC
MAsGA1UdDwQEAwIHgDANBgkqhkiG9w0BAQsFAAOCAQEAa7dTpBTfwLbm4SSNcCJ9
N9piEcfyCUuqJ/75LlbT8DXSd80Fdq6IF+x+HgwA+cwWs66rPDXX8vNrcnSyWg5z
w2xPGJUz0GNE9gIDpVzMmaRymyNj8FnSlhZVSXAPOonK389rCERU7UpoQM/wOORJ
jRQ2oj6x1LD1dmb7QQ/jneIIXPgKHqWqOaQT24ZJ79gKBlBYaimqyI8mGomgHy8z
eDKRZUWA7CaLgD2Z5f81wLfeDKJtNag0WHmxhuua64o9Jh8MRtdEL4NRqBe/BFiX
7ltfoeaSklAjY9+Rcmdi10th0BndTREjn5hQKXuQuRgXSB83FXnoVxGr+6hSiOq2
Xg==
-----END CERTIFICATE-----
