Certificate:
    Data:
        Version: 3 (0x2)
        Serial Number:
            0f:c5:75:b1:5b:be:c4:b3:87:d0:9f:d2:7d:bb:f0:01
        Signature Algorithm: sha256WithRSAEncryption
        Issuer: CN=team581-net
        Validity
            Not Before: Sep 13 04:04:19 2021 GMT
            Not After : Aug 28 04:04:19 2024 GMT
        Subject: CN=team581-server
        Subject Public Key Info:
            Public Key Algorithm: rsaEncryption
                RSA Public-Key: (2048 bit)
                Modulus:
                    00:c8:f2:f3:31:b6:3b:68:b1:8b:b4:ed:10:db:1c:
                    2f:11:83:e7:db:23:4f:ef:84:72:12:d0:f0:f4:06:
                    59:42:65:12:e3:3c:1a:5c:11:7c:cc:a9:e9:14:06:
                    45:db:31:55:33:be:74:17:25:68:0f:c8:c1:66:e3:
                    86:1d:ff:00:a7:2b:8a:45:60:f4:db:a1:0a:6c:db:
                    5f:97:b5:d9:f9:d5:5c:3c:9b:56:a9:be:71:7f:d7:
                    56:ed:e5:36:d9:2e:76:c0:97:8d:c4:2e:a9:5d:9e:
                    9a:5b:61:74:07:57:ca:14:40:ac:40:f8:cf:f7:3f:
                    6e:22:6b:72:1a:0e:4f:5b:fc:3d:d6:84:a4:9f:3a:
                    2b:48:d1:ac:03:be:39:d3:af:62:98:30:de:89:b0:
                    5b:3c:93:c8:b2:73:97:83:12:33:6d:a0:23:52:7d:
                    18:a7:e3:85:4c:72:3c:13:62:9d:c2:9f:96:f3:df:
                    90:02:cf:d7:17:b7:02:6f:d9:87:f6:74:64:ef:77:
                    c6:d7:52:d0:a6:1f:48:b1:ac:4a:55:12:8d:54:b8:
                    e4:0f:a4:9e:45:40:fb:3c:ae:80:c5:8e:3c:d9:73:
                    23:28:7d:d8:c1:ae:31:60:ca:01:f6:68:10:6b:94:
                    c8:a9:5c:01:b5:89:11:89:3c:67:30:1b:a6:87:9a:
                    99:3d
                Exponent: 65537 (0x10001)
        X509v3 extensions:
            X509v3 Basic Constraints: 
                CA:FALSE
            X509v3 Subject Key Identifier: 
                5E:6F:8F:8D:42:26:78:3E:25:D0:5B:B5:5A:5F:E5:39:77:4B:6A:1C
            X509v3 Authority Key Identifier: 
                keyid:09:6F:C8:7E:21:59:A9:AE:78:49:9B:B8:CE:A2:53:5F:1F:BF:37:4F
                DirName:/CN=team581-net
                serial:5C:97:25:BB:8F:B4:EC:8B:1E:F8:B5:77:59:29:33:52:F6:81:57:EE

            X509v3 Extended Key Usage: 
                TLS Web Server Authentication
            X509v3 Key Usage: 
                Digital Signature, Key Encipherment
            X509v3 Subject Alternative Name: 
                DNS:team581-server
    Signature Algorithm: sha256WithRSAEncryption
         55:51:54:a4:40:22:ed:b7:5f:00:ac:c3:4d:1a:27:b8:c6:ac:
         41:7e:3b:f3:4a:28:8d:8e:73:5a:06:ba:30:be:79:97:10:cc:
         bc:5b:2e:4c:8f:ac:54:f8:21:e1:53:4f:dc:94:a7:dd:99:af:
         ab:89:6d:98:c1:ae:80:0c:e3:ee:d9:4e:f6:e1:cf:24:e3:7c:
         15:37:f7:45:db:81:8b:3f:51:34:c9:dd:6c:dd:4f:07:a6:db:
         05:37:8c:a0:a9:bd:7d:74:d8:f4:c7:66:c9:36:52:d0:3a:e8:
         a2:59:b0:91:63:45:82:bf:f0:26:d1:b0:9a:09:29:df:4e:71:
         67:a0:43:b4:2b:b6:56:bb:42:d0:32:c2:a9:84:71:71:b1:df:
         6c:00:fa:df:ea:f2:90:a6:ba:5d:25:4f:d3:9c:54:9f:b2:61:
         38:86:31:41:ab:39:25:cc:1e:c2:b0:1e:52:86:b6:c9:de:db:
         30:54:ea:36:22:27:89:af:1d:63:55:5e:ce:cb:18:01:87:1a:
         c7:6b:ff:f1:9d:69:7b:c2:cf:59:df:89:40:06:54:c2:34:d7:
         5b:71:20:c6:d1:d3:ed:90:60:c8:ed:6f:5b:89:a2:42:77:de:
         da:0b:de:38:06:22:14:d8:35:d7:ad:e5:ec:25:88:a6:de:56:
         55:1a:f9:86
-----BEGIN CERTIFICATE-----
MIIDdzCCAl+gAwIBAgIQD8V1sVu+xLOH0J/SfbvwATANBgkqhkiG9w0BAQsFADAW
MRQwEgYDVQQDDAt0ZWFtNTgxLW5ldDAeFw0yMTA5MTMwNDA0MTlaFw0yNDA4Mjgw
NDA0MTlaMBkxFzAVBgNVBAMMDnRlYW01ODEtc2VydmVyMIIBIjANBgkqhkiG9w0B
AQEFAAOCAQ8AMIIBCgKCAQEAyPLzMbY7aLGLtO0Q2xwvEYPn2yNP74RyEtDw9AZZ
QmUS4zwaXBF8zKnpFAZF2zFVM750FyVoD8jBZuOGHf8ApyuKRWD026EKbNtfl7XZ
+dVcPJtWqb5xf9dW7eU22S52wJeNxC6pXZ6aW2F0B1fKFECsQPjP9z9uImtyGg5P
W/w91oSknzorSNGsA745069imDDeibBbPJPIsnOXgxIzbaAjUn0Yp+OFTHI8E2Kd
wp+W89+QAs/XF7cCb9mH9nRk73fG11LQph9IsaxKVRKNVLjkD6SeRUD7PK6AxY48
2XMjKH3Ywa4xYMoB9mgQa5TIqVwBtYkRiTxnMBumh5qZPQIDAQABo4G9MIG6MAkG
A1UdEwQCMAAwHQYDVR0OBBYEFF5vj41CJng+JdBbtVpf5Tl3S2ocMFEGA1UdIwRK
MEiAFAlvyH4hWamueEmbuM6iU18fvzdPoRqkGDAWMRQwEgYDVQQDDAt0ZWFtNTgx
LW5ldIIUXJclu4+07Ise+LV3WSkzUvaBV+4wEwYDVR0lBAwwCgYIKwYBBQUHAwEw
CwYDVR0PBAQDAgWgMBkGA1UdEQQSMBCCDnRlYW01ODEtc2VydmVyMA0GCSqGSIb3
DQEBCwUAA4IBAQBVUVSkQCLtt18ArMNNGie4xqxBfjvzSiiNjnNaBrowvnmXEMy8
Wy5Mj6xU+CHhU0/clKfdma+riW2Ywa6ADOPu2U724c8k43wVN/dF24GLP1E0yd1s
3U8HptsFN4ygqb19dNj0x2bJNlLQOuiiWbCRY0WCv/Am0bCaCSnfTnFnoEO0K7ZW
u0LQMsKphHFxsd9sAPrf6vKQprpdJU/TnFSfsmE4hjFBqzklzB7CsB5ShrbJ3tsw
VOo2IieJrx1jVV7OyxgBhxrHa//xnWl7ws9Z34lABlTCNNdbcSDG0dPtkGDI7W9b
iaJCd97aC944BiIU2DXXreXsJYim3lZVGvmG
-----END CERTIFICATE-----
