Certificate:
    Data:
        Version: 3 (0x2)
        Serial Number:
            d6:03:89:81:2a:fe:c7:96:a6:50:b7:50:2d:e5:48:45
        Signature Algorithm: sha256WithRSAEncryption
        Issuer: CN=team581-net
        Validity
            Not Before: Sep 13 04:04:18 2021 GMT
            Not After : Aug 28 04:04:18 2024 GMT
        Subject: CN=team581-client
        Subject Public Key Info:
            Public Key Algorithm: rsaEncryption
                RSA Public-Key: (2048 bit)
                Modulus:
                    00:bb:28:ae:43:6a:02:8a:c1:31:79:c6:92:12:80:
                    aa:80:8c:a1:3e:0b:ef:0d:98:53:45:b3:7b:d4:3a:
                    11:88:62:99:62:5d:96:51:ea:70:a4:ba:e1:0e:3b:
                    f2:82:7d:f4:d9:4b:e4:dd:33:69:d7:88:27:b1:5b:
                    64:dc:95:e1:25:59:00:93:4c:33:eb:0c:4b:b2:6c:
                    88:34:21:e3:de:77:7b:3c:0b:4a:5a:3e:b0:48:fe:
                    a7:9c:56:28:22:36:eb:e9:34:0b:42:b5:21:49:58:
                    30:62:b5:d6:b7:e8:3f:d0:05:4c:75:48:54:3a:5d:
                    7a:e8:ef:36:b4:b0:42:04:0d:cd:aa:79:27:44:1f:
                    e8:b8:d0:c2:6b:6b:72:cd:88:30:78:c2:b0:8c:b2:
                    aa:ba:14:c9:ac:e3:ce:22:f0:66:8c:dd:82:8e:35:
                    30:d1:25:2e:b9:07:ee:5d:08:1c:2d:2a:dd:24:b4:
                    81:60:70:13:78:3c:20:00:38:62:04:1f:5a:6f:23:
                    f3:82:b4:cb:5f:14:1f:4f:01:92:86:b9:5e:77:09:
                    86:d9:19:67:0e:29:f6:71:78:dc:73:a1:a6:3b:8f:
                    05:78:04:f1:a4:f0:b2:3b:b7:cb:05:d0:f1:ba:e8:
                    b7:8b:e1:02:bb:d5:94:f7:62:4a:27:59:66:3b:1a:
                    00:8d
                Exponent: 65537 (0x10001)
        X509v3 extensions:
            X509v3 Basic Constraints: 
                CA:FALSE
            X509v3 Subject Key Identifier: 
                F4:02:7F:FF:CF:D6:C5:95:08:58:E4:40:C9:32:5B:58:D5:8D:3A:E8
            X509v3 Authority Key Identifier: 
                keyid:09:6F:C8:7E:21:59:A9:AE:78:49:9B:B8:CE:A2:53:5F:1F:BF:37:4F
                DirName:/CN=team581-net
                serial:5C:97:25:BB:8F:B4:EC:8B:1E:F8:B5:77:59:29:33:52:F6:81:57:EE

            X509v3 Extended Key Usage: 
                TLS Web Client Authentication
            X509v3 Key Usage: 
                Digital Signature
    Signature Algorithm: sha256WithRSAEncryption
         08:52:00:5d:02:06:10:d9:88:4a:ea:cc:54:78:ba:f5:ed:26:
         80:6c:e0:f5:ad:34:91:56:e8:7a:2e:52:1a:7b:eb:4c:8f:c2:
         94:d5:0c:f5:dd:a4:d5:c4:6c:f0:7b:33:bf:50:64:b6:b9:0e:
         d8:8f:2a:ca:e9:79:24:0b:98:04:e1:ae:1e:0b:c6:fb:17:23:
         1d:a7:dc:44:9a:01:d0:4f:56:1f:31:1e:d4:ab:2a:88:d4:50:
         42:65:e4:e1:10:48:cd:46:44:c4:b5:0a:0e:ad:0b:ea:9a:bf:
         ab:76:f4:a0:b4:0b:9d:0f:c7:a4:97:62:92:da:5f:cc:fb:54:
         89:bb:73:73:24:8e:61:ae:c3:8f:0c:c5:c5:db:c8:7c:30:a5:
         2c:5e:e1:98:be:68:5e:7b:e3:23:20:9a:14:a5:71:fd:e7:14:
         c3:b3:c2:9f:1d:8d:a8:7b:29:7d:4b:17:0e:f6:82:76:16:35:
         06:dc:67:2e:d0:1b:21:8f:ff:d5:52:57:0f:94:dc:83:f8:54:
         e3:ec:a6:77:32:19:49:04:56:bc:31:36:67:e6:af:25:45:13:
         7a:76:c3:b8:bc:c7:63:31:e6:45:e0:1a:73:df:0d:4c:62:d7:
         1b:33:aa:df:54:bb:ed:58:fb:be:ed:a2:ad:91:cf:4c:11:90:
         47:ce:ea:7b
-----BEGIN CERTIFICATE-----
MIIDXTCCAkWgAwIBAgIRANYDiYEq/seWplC3UC3lSEUwDQYJKoZIhvcNAQELBQAw
FjEUMBIGA1UEAwwLdGVhbTU4MS1uZXQwHhcNMjEwOTEzMDQwNDE4WhcNMjQwODI4
MDQwNDE4WjAZMRcwFQYDVQQDDA50ZWFtNTgxLWNsaWVudDCCASIwDQYJKoZIhvcN
AQEBBQADggEPADCCAQoCggEBALsorkNqAorBMXnGkhKAqoCMoT4L7w2YU0Wze9Q6
EYhimWJdllHqcKS64Q478oJ99NlL5N0zadeIJ7FbZNyV4SVZAJNMM+sMS7JsiDQh
4953ezwLSlo+sEj+p5xWKCI26+k0C0K1IUlYMGK11rfoP9AFTHVIVDpdeujvNrSw
QgQNzap5J0Qf6LjQwmtrcs2IMHjCsIyyqroUyazjziLwZozdgo41MNElLrkH7l0I
HC0q3SS0gWBwE3g8IAA4YgQfWm8j84K0y18UH08Bkoa5XncJhtkZZw4p9nF43HOh
pjuPBXgE8aTwsju3ywXQ8brot4vhArvVlPdiSidZZjsaAI0CAwEAAaOBojCBnzAJ
BgNVHRMEAjAAMB0GA1UdDgQWBBT0An//z9bFlQhY5EDJMltY1Y066DBRBgNVHSME
SjBIgBQJb8h+IVmprnhJm7jOolNfH783T6EapBgwFjEUMBIGA1UEAwwLdGVhbTU4
MS1uZXSCFFyXJbuPtOyLHvi1d1kpM1L2gVfuMBMGA1UdJQQMMAoGCCsGAQUFBwMC
MAsGA1UdDwQEAwIHgDANBgkqhkiG9w0BAQsFAAOCAQEACFIAXQIGENmISurMVHi6
9e0mgGzg9a00kVboei5SGnvrTI/ClNUM9d2k1cRs8Hszv1BktrkO2I8qyul5JAuY
BOGuHgvG+xcjHafcRJoB0E9WHzEe1KsqiNRQQmXk4RBIzUZExLUKDq0L6pq/q3b0
oLQLnQ/HpJdiktpfzPtUibtzcySOYa7DjwzFxdvIfDClLF7hmL5oXnvjIyCaFKVx
/ecUw7PCnx2NqHspfUsXDvaCdhY1BtxnLtAbIY//1VJXD5Tcg/hU4+ymdzIZSQRW
vDE2Z+avJUUTenbDuLzHYzHmReAac98NTGLXGzOq31S77Vj7vu2irZHPTBGQR87q
ew==
-----END CERTIFICATE-----
