Certificate:
    Data:
        Version: 3 (0x2)
        Serial Number:
            8b:d0:10:9d:aa:d2:b0:e2:35:f3:4d:d6:03:fd:f8:ba
        Signature Algorithm: sha256WithRSAEncryption
        Issuer: CN=team675-net
        Validity
            Not Before: Sep 13 05:05:56 2021 GMT
            Not After : Aug 28 05:05:56 2024 GMT
        Subject: CN=team675-server
        Subject Public Key Info:
            Public Key Algorithm: rsaEncryption
                RSA Public-Key: (2048 bit)
                Modulus:
                    00:fa:f0:21:09:f6:05:5d:7a:27:55:8c:ed:e1:ff:
                    95:cf:70:c8:fe:6e:7c:d2:8c:af:24:a1:9b:d4:eb:
                    0b:ba:6d:0f:c1:01:47:12:cf:6c:68:ba:8e:e2:ab:
                    4e:f0:ce:95:05:28:e4:59:1c:05:43:1e:b5:0f:61:
                    af:91:c4:ea:87:9a:4f:26:e9:72:ea:bf:b4:f2:bb:
                    47:e7:5c:d6:dc:e7:6e:d4:b9:93:d2:10:43:3a:66:
                    cc:8a:7a:16:10:50:6b:0c:d8:81:e2:8b:c8:d8:a1:
                    07:5c:2e:b9:29:e4:fa:c4:29:d8:87:06:d3:1e:e2:
                    90:6a:b7:a3:f6:3c:2b:06:4e:71:ef:56:22:93:2c:
                    18:ba:3c:4d:7a:a5:75:91:32:58:e7:7b:b3:85:67:
                    25:11:b0:81:43:62:2e:f4:06:84:64:f5:bc:6a:08:
                    1a:8d:53:df:e0:58:65:51:06:af:84:85:c6:ba:0f:
                    a2:43:b0:18:a0:4a:03:fc:1b:c5:aa:1f:14:c8:38:
                    a6:62:80:19:87:ee:f4:95:b7:b2:ea:bc:ce:1c:23:
                    f4:be:d5:25:99:ac:e3:db:96:03:48:1a:d4:ea:20:
                    fe:fa:6e:15:14:4d:54:af:1a:4b:1a:77:06:40:d4:
                    3a:d5:3b:8a:67:55:4b:cd:54:ab:b7:cc:c1:73:d1:
                    b2:09
                Exponent: 65537 (0x10001)
        X509v3 extensions:
            X509v3 Basic Constraints: 
                CA:FALSE
            X509v3 Subject Key Identifier: 
                6B:DB:C6:E6:21:48:91:2E:1D:EE:B4:68:B3:C0:C4:43:E6:03:38:92
            X509v3 Authority Key Identifier: 
                keyid:0B:4A:29:F5:80:28:F2:A3:DD:77:D7:7E:1D:3A:6F:A6:88:73:9F:15
                DirName:/CN=team675-net
                serial:2C:6B:36:3F:5C:43:46:C1:AB:5B:F4:C4:0F:E0:B3:B6:3D:A3:64:3F

            X509v3 Extended Key Usage: 
                TLS Web Server Authentication
            X509v3 Key Usage: 
                Digital Signature, Key Encipherment
            X509v3 Subject Alternative Name: 
                DNS:team675-server
    Signature Algorithm: sha256WithRSAEncryption
         87:2c:5f:bd:dc:1d:5a:a9:5b:16:8e:09:e7:1a:e1:e8:90:ec:
         39:40:e1:1e:15:84:bc:7e:fa:9a:f6:3f:50:f0:8a:af:87:49:
         62:17:a4:a4:de:e7:64:c3:20:96:65:4c:b6:7e:83:4c:2d:1c:
         2d:eb:cb:05:85:eb:f2:58:34:38:9b:52:f9:81:a1:06:6d:b8:
         5c:86:84:27:39:37:5c:b9:e0:e9:e1:08:a4:c9:12:8a:b1:cd:
         22:2b:80:bd:0c:8e:5f:49:48:6f:eb:0f:d0:1a:4f:61:92:f4:
         a5:fd:ac:e6:f0:e9:d0:09:d1:50:36:fe:36:79:dd:f9:bd:03:
         bf:b3:e8:c3:64:5e:78:f1:b1:1c:ee:ad:91:04:cb:fe:26:de:
         69:a3:17:c9:e0:f0:45:35:08:b3:67:12:bc:87:91:42:de:37:
         15:5d:df:45:6a:e9:d6:95:6c:f3:57:4c:10:ad:d3:62:29:d7:
         d0:8a:de:33:09:21:e1:cc:f0:37:38:d1:51:d1:08:0a:65:67:
         23:4a:c8:48:93:f9:5d:6a:f4:85:43:f8:f6:8c:90:61:e5:11:
         bb:89:7e:0c:48:0b:31:8d:46:19:34:2f:05:a9:68:83:f8:8e:
         0c:a2:25:c8:70:56:76:18:f0:0e:0e:86:44:15:21:8a:a1:c1:
         a4:75:08:66
-----BEGIN CERTIFICATE-----
MIIDeDCCAmCgAwIBAgIRAIvQEJ2q0rDiNfNN1gP9+LowDQYJKoZIhvcNAQELBQAw
FjEUMBIGA1UEAwwLdGVhbTY3NS1uZXQwHhcNMjEwOTEzMDUwNTU2WhcNMjQwODI4
MDUwNTU2WjAZMRcwFQYDVQQDDA50ZWFtNjc1LXNlcnZlcjCCASIwDQYJKoZIhvcN
AQEBBQADggEPADCCAQoCggEBAPrwIQn2BV16J1WM7eH/lc9wyP5ufNKMryShm9Tr
C7ptD8EBRxLPbGi6juKrTvDOlQUo5FkcBUMetQ9hr5HE6oeaTybpcuq/tPK7R+dc
1tznbtS5k9IQQzpmzIp6FhBQawzYgeKLyNihB1wuuSnk+sQp2IcG0x7ikGq3o/Y8
KwZOce9WIpMsGLo8TXqldZEyWOd7s4VnJRGwgUNiLvQGhGT1vGoIGo1T3+BYZVEG
r4SFxroPokOwGKBKA/wbxaofFMg4pmKAGYfu9JW3suq8zhwj9L7VJZms49uWA0ga
1Oog/vpuFRRNVK8aSxp3BkDUOtU7imdVS81Uq7fMwXPRsgkCAwEAAaOBvTCBujAJ
BgNVHRMEAjAAMB0GA1UdDgQWBBRr28bmIUiRLh3utGizwMRD5gM4kjBRBgNVHSME
SjBIgBQLSin1gCjyo913134dOm+miHOfFaEapBgwFjEUMBIGA1UEAwwLdGVhbTY3
NS1uZXSCFCxrNj9cQ0bBq1v0xA/gs7Y9o2Q/MBMGA1UdJQQMMAoGCCsGAQUFBwMB
MAsGA1UdDwQEAwIFoDAZBgNVHREEEjAQgg50ZWFtNjc1LXNlcnZlcjANBgkqhkiG
9w0BAQsFAAOCAQEAhyxfvdwdWqlbFo4J5xrh6JDsOUDhHhWEvH76mvY/UPCKr4dJ
YhekpN7nZMMglmVMtn6DTC0cLevLBYXr8lg0OJtS+YGhBm24XIaEJzk3XLng6eEI
pMkSirHNIiuAvQyOX0lIb+sP0BpPYZL0pf2s5vDp0AnRUDb+Nnnd+b0Dv7Pow2Re
ePGxHO6tkQTL/ibeaaMXyeDwRTUIs2cSvIeRQt43FV3fRWrp1pVs81dMEK3TYinX
0IreMwkh4czwNzjRUdEICmVnI0rISJP5XWr0hUP49oyQYeURu4l+DEgLMY1GGTQv
Balog/iODKIlyHBWdhjwDg6GRBUhiqHBpHUIZg==
-----END CERTIFICATE-----
