Certificate:
    Data:
        Version: 3 (0x2)
        Serial Number:
            90:af:1a:99:6d:0b:c8:3e:0a:64:53:55:9e:2b:79:6d
        Signature Algorithm: sha256WithRSAEncryption
        Issuer: CN=team189-net
        Validity
            Not Before: Sep 13 00:32:38 2021 GMT
            Not After : Aug 28 00:32:38 2024 GMT
        Subject: CN=team189-client
        Subject Public Key Info:
            Public Key Algorithm: rsaEncryption
                RSA Public-Key: (2048 bit)
                Modulus:
                    00:cf:2e:20:00:34:d2:da:81:14:86:4e:89:e0:0f:
                    b6:be:ed:a8:1f:71:f0:c5:ad:a7:66:d8:9a:d3:8b:
                    3e:c5:d0:41:e7:a8:ee:f4:9a:4f:05:df:f8:41:fd:
                    06:b4:57:b0:b0:33:93:89:6d:56:7d:eb:bf:11:77:
                    3f:5f:8a:93:e6:fe:42:7b:d8:d8:b9:bd:33:58:fc:
                    f7:fc:9e:da:a2:94:b3:ea:5d:0c:28:e6:a3:a3:4c:
                    bc:1d:2a:95:a7:ff:8a:07:ff:8e:cb:9f:59:bd:ad:
                    26:e4:a7:15:20:6c:d3:e0:db:76:a0:e0:50:c5:31:
                    18:b6:a4:69:91:76:36:40:af:be:2e:36:99:ce:93:
                    37:1a:59:87:32:16:b2:d1:fa:28:1e:35:22:71:2b:
                    a9:de:9b:32:ff:77:2d:ad:fe:9d:a1:5e:a6:c3:72:
                    c6:ac:07:64:d0:17:92:f2:db:56:38:4a:e4:68:b6:
                    06:6c:3f:19:7e:55:39:21:b5:6e:c4:50:6a:8b:b3:
                    1d:c3:94:6a:b5:19:82:8f:70:77:3f:9f:f1:37:71:
                    ff:f3:a3:29:6f:6a:92:94:b3:52:2f:ec:db:4c:72:
                    5a:b8:68:3d:eb:53:d8:16:66:88:4a:60:9b:f2:9f:
                    79:7f:7b:45:a2:8c:47:36:a3:31:5e:5b:bc:72:57:
                    89:81
                Exponent: 65537 (0x10001)
        X509v3 extensions:
            X509v3 Basic Constraints: 
                CA:FALSE
            X509v3 Subject Key Identifier: 
                7D:5A:66:00:E8:40:A8:48:F0:8E:F2:FF:EA:9E:88:8D:CF:1A:44:2B
            X509v3 Authority Key Identifier: 
                keyid:5B:C4:6A:85:F3:E0:2E:AE:C1:89:C1:27:BB:A1:74:89:99:AD:A3:D7
                DirName:/CN=team189-net
                serial:5E:69:68:0C:01:E9:8F:80:7F:43:F8:DF:EE:0F:52:97:B2:20:B3:7D

            X509v3 Extended Key Usage: 
                TLS Web Client Authentication
            X509v3 Key Usage: 
                Digital Signature
    Signature Algorithm: sha256WithRSAEncryption
         4a:4a:3f:25:51:ac:34:8e:2c:0c:3a:5a:1b:a0:02:a8:7f:b3:
         05:da:6e:03:75:19:2f:7f:b2:77:95:a3:85:ff:51:93:b2:fb:
         b5:b7:96:31:08:cc:25:2d:ce:bc:08:1f:6a:95:3b:41:91:9b:
         d1:00:c4:7e:b3:09:d4:3a:5d:94:f4:c9:e8:8f:7b:fe:95:bd:
         0c:07:f6:8d:bc:ad:18:32:af:fe:b5:26:79:ae:c7:b3:f2:5a:
         1a:43:96:11:88:ad:cc:39:0f:5d:5b:df:99:2c:53:7f:15:6e:
         03:20:49:d5:44:5d:12:4f:08:d0:ab:65:7d:6e:e3:5b:93:2a:
         1e:07:a1:65:f0:4d:42:a4:a1:e7:8c:6f:0b:61:38:c0:28:2c:
         89:c1:c4:c2:c5:7f:fe:92:81:53:7d:48:3f:26:3b:7f:43:10:
         22:41:1a:24:fd:6b:98:b9:87:8c:14:fd:4d:eb:c0:28:a6:6b:
         a5:96:ab:df:ba:34:86:25:15:56:6c:10:c7:79:ed:a8:ac:ab:
         db:3a:ae:22:55:1d:4f:32:16:ea:1b:ee:b4:34:12:3e:c5:1b:
         9e:1f:bc:e5:96:ba:74:fb:2a:2b:ca:57:6e:da:41:72:70:77:
         fc:07:b5:15:21:f4:99:51:36:38:d4:9d:8c:0f:97:36:d7:94:
         56:4b:d8:fd
-----BEGIN CERTIFICATE-----
MIIDXTCCAkWgAwIBAgIRAJCvGpltC8g+CmRTVZ4reW0wDQYJKoZIhvcNAQELBQAw
FjEUMBIGA1UEAwwLdGVhbTE4OS1uZXQwHhcNMjEwOTEzMDAzMjM4WhcNMjQwODI4
MDAzMjM4WjAZMRcwFQYDVQQDDA50ZWFtMTg5LWNsaWVudDCCASIwDQYJKoZIhvcN
AQEBBQADggEPADCCAQoCggEBAM8uIAA00tqBFIZOieAPtr7tqB9x8MWtp2bYmtOL
PsXQQeeo7vSaTwXf+EH9BrRXsLAzk4ltVn3rvxF3P1+Kk+b+QnvY2Lm9M1j89/ye
2qKUs+pdDCjmo6NMvB0qlaf/igf/jsufWb2tJuSnFSBs0+DbdqDgUMUxGLakaZF2
NkCvvi42mc6TNxpZhzIWstH6KB41InErqd6bMv93La3+naFepsNyxqwHZNAXkvLb
VjhK5Gi2Bmw/GX5VOSG1bsRQaouzHcOUarUZgo9wdz+f8Tdx//OjKW9qkpSzUi/s
20xyWrhoPetT2BZmiEpgm/KfeX97RaKMRzajMV5bvHJXiYECAwEAAaOBojCBnzAJ
BgNVHRMEAjAAMB0GA1UdDgQWBBR9WmYA6ECoSPCO8v/qnoiNzxpEKzBRBgNVHSME
SjBIgBRbxGqF8+AursGJwSe7oXSJma2j16EapBgwFjEUMBIGA1UEAwwLdGVhbTE4
OS1uZXSCFF5paAwB6Y+Af0P43+4PUpeyILN9MBMGA1UdJQQMMAoGCCsGAQUFBwMC
MAsGA1UdDwQEAwIHgDANBgkqhkiG9w0BAQsFAAOCAQEASko/JVGsNI4sDDpaG6AC
qH+zBdpuA3UZL3+yd5Wjhf9Rk7L7tbeWMQjMJS3OvAgfapU7QZGb0QDEfrMJ1Dpd
lPTJ6I97/pW9DAf2jbytGDKv/rUmea7Hs/JaGkOWEYitzDkPXVvfmSxTfxVuAyBJ
1URdEk8I0KtlfW7jW5MqHgehZfBNQqSh54xvC2E4wCgsicHEwsV//pKBU31IPyY7
f0MQIkEaJP1rmLmHjBT9TevAKKZrpZar37o0hiUVVmwQx3ntqKyr2zquIlUdTzIW
6hvutDQSPsUbnh+85Za6dPsqK8pXbtpBcnB3/Ae1FSH0mVE2ONSdjA+XNteUVkvY
/Q==
-----END CERTIFICATE-----
