Certificate:
    Data:
        Version: 3 (0x2)
        Serial Number:
            49:53:1a:b2:c4:e0:df:8b:c5:4e:f5:7e:0b:bd:8d:d9
        Signature Algorithm: sha256WithRSAEncryption
        Issuer: CN=team401-net
        Validity
            Not Before: Sep 13 02:18:18 2021 GMT
            Not After : Aug 28 02:18:18 2024 GMT
        Subject: CN=team401-server
        Subject Public Key Info:
            Public Key Algorithm: rsaEncryption
                RSA Public-Key: (2048 bit)
                Modulus:
                    00:c1:24:70:0a:b3:1d:b5:f0:13:b9:35:c5:0f:92:
                    ad:55:5b:28:ce:4d:12:ad:01:3f:c5:c4:d4:c0:ac:
                    da:3d:a2:3c:2a:71:72:5d:c5:ec:d6:da:9b:6a:39:
                    c5:2c:17:7b:63:82:9b:d2:56:f9:43:3f:e1:3e:74:
                    cd:f0:a2:11:85:1d:9f:91:99:d5:a0:80:32:c2:90:
                    42:09:5d:30:68:26:67:14:56:d7:65:26:00:21:56:
                    f8:53:41:c2:2d:34:fc:87:a5:cf:20:1a:a8:ec:f3:
                    d9:13:e0:64:55:49:4a:12:1a:11:4c:96:25:54:93:
                    0f:16:22:81:2e:bb:d3:eb:cd:07:3e:cf:b2:1f:17:
                    8e:72:7c:76:53:74:69:2f:fb:9c:ba:5e:1e:99:d9:
                    27:3a:da:fe:21:c2:39:f6:64:a5:9e:c2:3d:69:8e:
                    e8:1e:93:ff:53:92:0d:2b:60:41:ab:6e:10:de:66:
                    cb:00:0d:35:a7:b0:d6:0a:27:33:2c:52:c6:e2:f3:
                    5d:3e:d6:07:09:d0:b7:8f:48:78:06:5e:76:79:b6:
                    cc:7d:a1:3b:ac:a8:6f:9b:b6:4c:99:eb:1f:7c:28:
                    3c:f8:dd:da:9b:22:03:c9:a4:2b:09:95:3d:a4:f2:
                    0f:91:29:f6:48:f5:2b:f0:d1:a6:28:59:a6:33:fb:
                    02:f7
                Exponent: 65537 (0x10001)
        X509v3 extensions:
            X509v3 Basic Constraints: 
                CA:FALSE
            X509v3 Subject Key Identifier: 
                6C:65:36:FE:D3:58:7D:18:FC:4F:9D:C3:FA:EF:13:D0:BC:77:99:7F
            X509v3 Authority Key Identifier: 
                keyid:ED:C0:09:DC:DE:89:8A:78:92:BC:B4:FA:91:B4:23:86:84:15:56:A6
                DirName:/CN=team401-net
                serial:7B:9E:2C:61:E6:FC:8F:7B:E9:EC:51:A3:47:B0:A2:F4:DA:2D:EF:25

            X509v3 Extended Key Usage: 
                TLS Web Server Authentication
            X509v3 Key Usage: 
                Digital Signature, Key Encipherment
            X509v3 Subject Alternative Name: 
                DNS:team401-server
    Signature Algorithm: sha256WithRSAEncryption
         0c:50:2c:bf:5c:1d:4b:0c:9a:7e:9c:e6:92:fa:1b:80:1c:eb:
         7a:63:9a:b4:78:31:ef:2a:3d:55:70:7d:f1:a5:c0:f2:5f:10:
         c0:53:12:5e:95:d0:51:3d:ef:bf:e2:aa:12:de:3b:56:e6:9f:
         8e:5d:31:91:73:e0:6f:6c:1b:93:e3:a0:00:5f:5d:cd:a7:4c:
         54:39:2b:51:7d:f4:4d:3b:83:e5:7d:dd:d6:17:b2:ee:4f:18:
         23:e1:6d:9b:0c:c7:07:07:bf:2e:e3:85:38:1c:04:8e:67:16:
         c3:cc:15:f1:da:22:36:ba:74:01:fb:2c:4a:1f:b1:8a:a0:fe:
         62:99:93:8f:43:b8:ba:c2:55:a6:44:19:8c:e9:e0:64:b4:ff:
         9e:ed:eb:77:b4:c5:58:ee:39:5f:fe:18:10:b5:dc:93:49:fd:
         16:ba:71:26:b3:90:54:9c:54:cd:e1:65:9c:aa:be:cf:e1:92:
         11:82:4a:60:5b:7d:16:c5:7f:83:39:e1:d8:4d:f0:c5:31:85:
         5d:14:a1:5b:3e:c3:43:83:f9:5d:42:66:94:c6:b9:a2:3a:e6:
         25:d5:26:6a:3f:98:60:74:92:87:0b:21:4e:e5:37:c4:eb:9d:
         3e:1c:2e:bd:81:40:09:cd:c1:ab:dc:ba:8d:d3:9b:85:b7:f3:
         e1:20:14:a7
-----BEGIN CERTIFICATE-----
MIIDdzCCAl+gAwIBAgIQSVMassTg34vFTvV+C72N2TANBgkqhkiG9w0BAQsFADAW
MRQwEgYDVQQDDAt0ZWFtNDAxLW5ldDAeFw0yMTA5MTMwMjE4MThaFw0yNDA4Mjgw
MjE4MThaMBkxFzAVBgNVBAMMDnRlYW00MDEtc2VydmVyMIIBIjANBgkqhkiG9w0B
AQEFAAOCAQ8AMIIBCgKCAQEAwSRwCrMdtfATuTXFD5KtVVsozk0SrQE/xcTUwKza
PaI8KnFyXcXs1tqbajnFLBd7Y4Kb0lb5Qz/hPnTN8KIRhR2fkZnVoIAywpBCCV0w
aCZnFFbXZSYAIVb4U0HCLTT8h6XPIBqo7PPZE+BkVUlKEhoRTJYlVJMPFiKBLrvT
680HPs+yHxeOcnx2U3RpL/ucul4emdknOtr+IcI59mSlnsI9aY7oHpP/U5INK2BB
q24Q3mbLAA01p7DWCiczLFLG4vNdPtYHCdC3j0h4Bl52ebbMfaE7rKhvm7ZMmesf
fCg8+N3amyIDyaQrCZU9pPIPkSn2SPUr8NGmKFmmM/sC9wIDAQABo4G9MIG6MAkG
A1UdEwQCMAAwHQYDVR0OBBYEFGxlNv7TWH0Y/E+dw/rvE9C8d5l/MFEGA1UdIwRK
MEiAFO3ACdzeiYp4kry0+pG0I4aEFVamoRqkGDAWMRQwEgYDVQQDDAt0ZWFtNDAx
LW5ldIIUe54sYeb8j3vp7FGjR7Ci9Not7yUwEwYDVR0lBAwwCgYIKwYBBQUHAwEw
CwYDVR0PBAQDAgWgMBkGA1UdEQQSMBCCDnRlYW00MDEtc2VydmVyMA0GCSqGSIb3
DQEBCwUAA4IBAQAMUCy/XB1LDJp+nOaS+huAHOt6Y5q0eDHvKj1VcH3xpcDyXxDA
UxJeldBRPe+/4qoS3jtW5p+OXTGRc+BvbBuT46AAX13Np0xUOStRffRNO4Plfd3W
F7LuTxgj4W2bDMcHB78u44U4HASOZxbDzBXx2iI2unQB+yxKH7GKoP5imZOPQ7i6
wlWmRBmM6eBktP+e7et3tMVY7jlf/hgQtdyTSf0WunEms5BUnFTN4WWcqr7P4ZIR
gkpgW30WxX+DOeHYTfDFMYVdFKFbPsNDg/ldQmaUxrmiOuYl1SZqP5hgdJKHCyFO
5TfE650+HC69gUAJzcGr3LqN05uFt/PhIBSn
-----END CERTIFICATE-----
