Certificate:
    Data:
        Version: 3 (0x2)
        Serial Number:
            a1:20:e4:cf:e8:bd:3c:07:6c:5a:8f:b1:dd:a6:19:1b
        Signature Algorithm: sha256WithRSAEncryption
        Issuer: CN=team456-net
        Validity
            Not Before: Sep 13 02:44:46 2021 GMT
            Not After : Aug 28 02:44:46 2024 GMT
        Subject: CN=team456-client
        Subject Public Key Info:
            Public Key Algorithm: rsaEncryption
                RSA Public-Key: (2048 bit)
                Modulus:
                    00:e1:c9:89:66:c2:a6:f3:4c:69:3c:f1:6b:a9:70:
                    fc:72:b3:13:ce:45:80:d8:ab:91:bc:78:95:cb:f8:
                    fe:3a:5d:db:3e:49:91:2d:56:93:39:c8:a1:2a:01:
                    72:6c:c6:05:df:e5:59:59:33:cc:6d:f9:69:0f:5f:
                    8c:4a:67:66:10:c5:e2:7b:66:af:31:39:af:ba:0e:
                    ac:c2:89:4c:89:3c:22:65:3c:6c:a5:51:0b:6f:a6:
                    a1:1f:95:9a:35:98:cf:cc:f8:6c:4d:6a:34:d0:09:
                    2a:ae:27:17:3d:f6:1c:f5:b1:5d:f8:36:d1:46:1e:
                    68:62:3e:ed:7c:c0:d0:1a:4e:08:08:bf:8a:23:ab:
                    f3:63:d4:7b:50:16:38:29:fe:c6:3e:7e:2a:92:82:
                    96:25:4e:ca:3d:d8:24:64:a6:ea:52:2a:97:7e:7c:
                    2e:26:01:8c:71:02:91:cc:c1:ce:42:dd:35:72:54:
                    e1:a9:80:34:30:44:82:21:fd:b9:c9:1c:95:90:fd:
                    5e:71:1a:d9:44:aa:f2:b7:05:ed:ed:59:ad:c6:de:
                    73:1c:13:a8:2f:6e:67:85:30:3b:4d:b0:00:5a:3d:
                    1c:11:2f:d8:97:b7:75:60:18:a5:fb:f5:dd:a6:98:
                    f0:b3:1f:15:4b:12:db:0f:91:28:22:99:6e:b2:53:
                    c8:67
                Exponent: 65537 (0x10001)
        X509v3 extensions:
            X509v3 Basic Constraints: 
                CA:FALSE
            X509v3 Subject Key Identifier: 
                7B:8E:AD:50:7D:84:BA:57:02:D5:68:FD:DC:44:2C:29:2D:C2:21:CA
            X509v3 Authority Key Identifier: 
                keyid:7B:84:64:36:A4:71:D2:87:B5:CE:E2:07:39:EB:E8:A6:F1:82:97:C8
                DirName:/CN=team456-net
                serial:4E:98:0C:19:DE:50:64:18:02:34:1A:73:6F:5F:C5:11:7F:04:96:12

            X509v3 Extended Key Usage: 
                TLS Web Client Authentication
            X509v3 Key Usage: 
                Digital Signature
    Signature Algorithm: sha256WithRSAEncryption
         52:38:35:10:2f:ca:98:ee:77:cf:e0:f6:07:9f:5e:6c:50:40:
         65:c3:7f:5d:75:2e:7d:5b:c9:b2:c6:bb:66:44:c9:06:1d:90:
         64:97:4e:b5:fd:86:76:a9:af:ad:80:c5:9f:7d:b7:b1:e1:38:
         d3:00:d8:52:ae:9b:5f:56:6d:5c:81:26:d7:33:27:72:c2:fa:
         6c:0f:f6:8b:51:c5:62:88:7a:6c:78:39:b0:1f:04:e4:38:af:
         ca:5f:a1:6f:76:7d:07:d9:bc:0e:1c:f1:f5:d3:59:be:38:2f:
         a8:91:58:05:83:00:f5:28:cf:82:84:73:8b:ce:14:c3:b9:29:
         90:f3:22:25:5b:24:c3:1b:b4:a3:ec:64:a0:8b:b5:92:6e:be:
         aa:8b:7a:32:ef:a1:5a:19:63:bf:4f:71:df:8a:26:53:2f:e2:
         59:b8:00:69:2f:ea:e2:d3:ed:c2:7c:d9:8c:6e:bf:2c:60:6b:
         eb:2d:91:0b:d5:0b:5e:cb:7f:15:0f:d8:ac:b6:8d:17:6f:aa:
         8d:c3:8c:82:9e:30:df:94:d5:ec:e4:d6:07:6b:f8:6b:c5:62:
         f3:2d:04:d2:c0:03:d6:49:fd:14:1e:6e:cd:46:d2:2e:d4:4c:
         99:12:77:6a:ff:58:06:48:ee:b1:23:9a:98:ac:d8:a8:95:f9:
         2b:e4:be:72
-----BEGIN CERTIFICATE-----
MIIDXTCCAkWgAwIBAgIRAKEg5M/ovTwHbFqPsd2mGRswDQYJKoZIhvcNAQELBQAw
FjEUMBIGA1UEAwwLdGVhbTQ1Ni1uZXQwHhcNMjEwOTEzMDI0NDQ2WhcNMjQwODI4
MDI0NDQ2WjAZMRcwFQYDVQQDDA50ZWFtNDU2LWNsaWVudDCCASIwDQYJKoZIhvcN
AQEBBQADggEPADCCAQoCggEBAOHJiWbCpvNMaTzxa6lw/HKzE85FgNirkbx4lcv4
/jpd2z5JkS1WkznIoSoBcmzGBd/lWVkzzG35aQ9fjEpnZhDF4ntmrzE5r7oOrMKJ
TIk8ImU8bKVRC2+moR+VmjWYz8z4bE1qNNAJKq4nFz32HPWxXfg20UYeaGI+7XzA
0BpOCAi/iiOr82PUe1AWOCn+xj5+KpKCliVOyj3YJGSm6lIql358LiYBjHECkczB
zkLdNXJU4amANDBEgiH9uckclZD9XnEa2USq8rcF7e1ZrcbecxwTqC9uZ4UwO02w
AFo9HBEv2Je3dWAYpfv13aaY8LMfFUsS2w+RKCKZbrJTyGcCAwEAAaOBojCBnzAJ
BgNVHRMEAjAAMB0GA1UdDgQWBBR7jq1QfYS6VwLVaP3cRCwpLcIhyjBRBgNVHSME
SjBIgBR7hGQ2pHHSh7XO4gc56+im8YKXyKEapBgwFjEUMBIGA1UEAwwLdGVhbTQ1
Ni1uZXSCFE6YDBneUGQYAjQac29fxRF/BJYSMBMGA1UdJQQMMAoGCCsGAQUFBwMC
MAsGA1UdDwQEAwIHgDANBgkqhkiG9w0BAQsFAAOCAQEAUjg1EC/KmO53z+D2B59e
bFBAZcN/XXUufVvJssa7ZkTJBh2QZJdOtf2GdqmvrYDFn323seE40wDYUq6bX1Zt
XIEm1zMncsL6bA/2i1HFYoh6bHg5sB8E5Divyl+hb3Z9B9m8Dhzx9dNZvjgvqJFY
BYMA9SjPgoRzi84Uw7kpkPMiJVskwxu0o+xkoIu1km6+qot6Mu+hWhljv09x34om
Uy/iWbgAaS/q4tPtwnzZjG6/LGBr6y2RC9ULXst/FQ/YrLaNF2+qjcOMgp4w35TV
7OTWB2v4a8Vi8y0E0sAD1kn9FB5uzUbSLtRMmRJ3av9YBkjusSOamKzYqJX5K+S+
cg==
-----END CERTIFICATE-----
