Certificate:
    Data:
        Version: 3 (0x2)
        Serial Number:
            a8:45:ef:c4:3e:3d:50:c5:97:13:c2:94:43:21:01:4c
        Signature Algorithm: sha256WithRSAEncryption
        Issuer: CN=team456-net
        Validity
            Not Before: Sep 13 02:44:46 2021 GMT
            Not After : Aug 28 02:44:46 2024 GMT
        Subject: CN=team456-server
        Subject Public Key Info:
            Public Key Algorithm: rsaEncryption
                RSA Public-Key: (2048 bit)
                Modulus:
                    00:d0:aa:3a:9d:1c:b8:e7:15:c9:86:44:a3:ee:df:
                    f1:a7:91:da:de:b5:33:d8:8f:58:4c:8f:5a:7e:cd:
                    e0:6f:cd:34:db:45:94:1c:a3:be:01:15:dd:e5:5f:
                    66:ac:79:50:d9:80:67:7e:8d:80:26:bf:80:b5:b6:
                    49:52:c7:95:d6:b8:97:5a:23:0f:1f:0d:d6:04:fe:
                    39:42:b4:0b:ee:eb:8f:12:1b:0b:82:e0:11:6a:fd:
                    4f:07:38:6a:e2:b8:36:46:cb:d6:11:28:5b:a0:ef:
                    e0:e3:7e:09:4e:66:e9:cd:76:a0:0f:9b:64:64:13:
                    af:9f:37:69:20:57:6a:2b:42:0e:2e:f3:6d:a1:eb:
                    f7:b8:2d:f0:2f:1a:17:54:1b:75:41:4e:cc:dd:ac:
                    9e:89:ff:35:7e:8d:57:ed:d2:3b:84:7c:81:6d:a4:
                    eb:99:13:1d:b0:2a:88:40:5d:01:e8:5e:b4:d4:71:
                    3b:f9:c9:e0:e1:db:88:82:d6:23:05:ac:db:89:02:
                    e5:eb:79:41:ef:40:18:3f:12:0d:0d:22:fd:72:8e:
                    4e:34:1a:c3:8b:4f:27:0f:d6:24:f9:89:95:81:9f:
                    4a:93:5c:eb:c0:47:d6:f8:b1:c3:38:06:09:8a:72:
                    aa:a3:e8:c7:9a:a6:02:f2:2a:96:34:44:0d:81:33:
                    ee:1f
                Exponent: 65537 (0x10001)
        X509v3 extensions:
            X509v3 Basic Constraints: 
                CA:FALSE
            X509v3 Subject Key Identifier: 
                7A:CC:BA:02:B4:64:45:FA:BA:29:67:90:A6:37:1C:2F:BF:BA:F6:2B
            X509v3 Authority Key Identifier: 
                keyid:7B:84:64:36:A4:71:D2:87:B5:CE:E2:07:39:EB:E8:A6:F1:82:97:C8
                DirName:/CN=team456-net
                serial:4E:98:0C:19:DE:50:64:18:02:34:1A:73:6F:5F:C5:11:7F:04:96:12

            X509v3 Extended Key Usage: 
                TLS Web Server Authentication
            X509v3 Key Usage: 
                Digital Signature, Key Encipherment
            X509v3 Subject Alternative Name: 
                DNS:team456-server
    Signature Algorithm: sha256WithRSAEncryption
         62:6b:7d:3d:39:f0:5d:1d:e7:ed:69:da:f3:56:b1:df:5f:16:
         3c:cb:b5:06:6d:50:a6:33:01:3e:16:ab:43:b1:00:3c:f3:d6:
         eb:16:d9:4b:33:7d:72:7a:ee:34:fe:d0:80:98:ae:0c:c5:6c:
         57:b1:1d:c1:3f:c0:d9:b2:ea:c0:f3:2c:b1:80:f8:0a:14:72:
         b9:7d:4d:91:6f:15:ee:6b:36:b3:81:3a:a5:54:f6:83:51:d2:
         6b:19:6e:e3:de:64:a5:b0:73:43:2a:b2:ba:82:1c:c1:8b:30:
         b5:05:de:28:45:1b:1f:49:81:fa:73:bb:19:b0:e6:99:73:1a:
         89:05:98:87:d6:4a:96:73:50:86:24:d3:57:a6:40:e5:22:d7:
         50:d4:5b:83:bc:64:ba:45:e3:ff:bf:84:05:56:56:54:30:07:
         0c:f6:20:d3:b6:84:09:81:85:85:74:2a:93:4f:93:9e:77:12:
         50:f1:b7:b2:19:56:cb:3e:9b:cd:5a:a3:a5:ab:86:a5:51:0e:
         6e:a5:dc:fe:2c:b2:4e:76:5e:64:21:86:85:f3:6b:0e:19:78:
         29:ea:69:5f:db:63:1f:d0:04:a8:ab:93:0d:55:06:77:75:f7:
         ba:38:a8:76:bc:ff:87:5f:4d:78:ca:76:76:ef:ac:ad:c1:46:
         b2:6d:1f:e5
-----BEGIN CERTIFICATE-----
MIIDeDCCAmCgAwIBAgIRAKhF78Q+PVDFlxPClEMhAUwwDQYJKoZIhvcNAQELBQAw
FjEUMBIGA1UEAwwLdGVhbTQ1Ni1uZXQwHhcNMjEwOTEzMDI0NDQ2WhcNMjQwODI4
MDI0NDQ2WjAZMRcwFQYDVQQDDA50ZWFtNDU2LXNlcnZlcjCCASIwDQYJKoZIhvcN
AQEBBQADggEPADCCAQoCggEBANCqOp0cuOcVyYZEo+7f8aeR2t61M9iPWEyPWn7N
4G/NNNtFlByjvgEV3eVfZqx5UNmAZ36NgCa/gLW2SVLHlda4l1ojDx8N1gT+OUK0
C+7rjxIbC4LgEWr9Twc4auK4NkbL1hEoW6Dv4ON+CU5m6c12oA+bZGQTr583aSBX
aitCDi7zbaHr97gt8C8aF1QbdUFOzN2snon/NX6NV+3SO4R8gW2k65kTHbAqiEBd
AehetNRxO/nJ4OHbiILWIwWs24kC5et5Qe9AGD8SDQ0i/XKOTjQaw4tPJw/WJPmJ
lYGfSpNc68BH1vixwzgGCYpyqqPox5qmAvIqljREDYEz7h8CAwEAAaOBvTCBujAJ
BgNVHRMEAjAAMB0GA1UdDgQWBBR6zLoCtGRF+ropZ5CmNxwvv7r2KzBRBgNVHSME
SjBIgBR7hGQ2pHHSh7XO4gc56+im8YKXyKEapBgwFjEUMBIGA1UEAwwLdGVhbTQ1
Ni1uZXSCFE6YDBneUGQYAjQac29fxRF/BJYSMBMGA1UdJQQMMAoGCCsGAQUFBwMB
MAsGA1UdDwQEAwIFoDAZBgNVHREEEjAQgg50ZWFtNDU2LXNlcnZlcjANBgkqhkiG
9w0BAQsFAAOCAQEAYmt9PTnwXR3n7Wna81ax318WPMu1Bm1QpjMBPharQ7EAPPPW
6xbZSzN9cnruNP7QgJiuDMVsV7EdwT/A2bLqwPMssYD4ChRyuX1NkW8V7ms2s4E6
pVT2g1HSaxlu495kpbBzQyqyuoIcwYswtQXeKEUbH0mB+nO7GbDmmXMaiQWYh9ZK
lnNQhiTTV6ZA5SLXUNRbg7xkukXj/7+EBVZWVDAHDPYg07aECYGFhXQqk0+TnncS
UPG3shlWyz6bzVqjpauGpVEObqXc/iyyTnZeZCGGhfNrDhl4KeppX9tjH9AEqKuT
DVUGd3X3ujiodrz/h19NeMp2du+srcFGsm0f5Q==
-----END CERTIFICATE-----
