Certificate:
    Data:
        Version: 3 (0x2)
        Serial Number:
            7f:17:41:37:85:80:96:8b:e2:09:1a:81:77:34:11:23
        Signature Algorithm: sha256WithRSAEncryption
        Issuer: CN=team194-net
        Validity
            Not Before: Sep 13 00:27:10 2021 GMT
            Not After : Aug 28 00:27:10 2024 GMT
        Subject: CN=team194-server
        Subject Public Key Info:
            Public Key Algorithm: rsaEncryption
                RSA Public-Key: (2048 bit)
                Modulus:
                    00:bb:73:d0:f1:58:93:e9:fe:8a:60:69:75:38:20:
                    5a:72:0f:90:df:44:b8:10:f1:30:f3:aa:60:fe:66:
                    95:b6:a5:ed:87:ba:6c:04:5c:fe:ba:33:d9:ef:98:
                    da:5c:b9:de:d3:09:56:02:dc:1a:47:f0:d8:9c:45:
                    ed:4e:fe:e0:c8:87:db:90:31:b0:36:53:5b:8d:d8:
                    4e:3a:24:92:32:7b:5e:dd:cc:c0:b9:d6:bd:a9:6b:
                    45:c9:d0:5f:8b:7d:c0:46:87:73:22:2d:97:56:d2:
                    30:a0:47:df:34:5d:17:dc:8e:c7:0b:53:ad:b9:c0:
                    57:b9:f2:eb:e5:fe:68:80:3e:28:d1:68:a7:f0:be:
                    76:a6:c1:93:f3:e9:93:4e:37:1c:91:52:d1:42:ae:
                    2f:fe:d1:bf:1e:8f:38:6e:bd:ed:f3:35:c6:c9:01:
                    15:3c:77:66:5f:6a:c8:b8:20:27:7b:9d:8a:ab:ca:
                    01:2a:16:9d:5e:86:1d:0d:80:e4:c7:21:d8:c0:e9:
                    12:ad:d8:25:af:0c:b1:6f:3e:28:ce:a6:cf:f4:91:
                    9f:c4:d7:01:04:71:df:47:6a:f2:8f:57:e5:28:63:
                    0d:1a:da:f6:d4:3d:91:58:9b:d7:89:93:ae:2c:5f:
                    c2:1d:8b:16:73:0b:36:00:61:b0:a0:16:8b:61:04:
                    6f:11
                Exponent: 65537 (0x10001)
        X509v3 extensions:
            X509v3 Basic Constraints: 
                CA:FALSE
            X509v3 Subject Key Identifier: 
                E0:93:1F:29:FD:AB:D3:00:09:FA:A0:F6:3F:E6:E0:17:88:1B:89:B1
            X509v3 Authority Key Identifier: 
                keyid:EE:AD:25:CB:7F:3E:13:37:D3:DC:EB:B8:22:0D:BA:07:9B:99:4B:18
                DirName:/CN=team194-net
                serial:64:AD:F0:9B:F4:7B:B6:3B:AB:A2:67:07:7E:03:63:A4:F9:C3:40:A7

            X509v3 Extended Key Usage: 
                TLS Web Server Authentication
            X509v3 Key Usage: 
                Digital Signature, Key Encipherment
            X509v3 Subject Alternative Name: 
                DNS:team194-server
    Signature Algorithm: sha256WithRSAEncryption
         11:e9:a8:6b:b0:00:84:e8:97:69:2c:1f:b5:9a:01:ae:b6:2a:
         67:57:24:1c:0c:6c:99:16:73:75:90:3b:9e:aa:cb:d7:de:24:
         6a:2a:51:f9:bd:57:dc:e5:ff:54:a9:4f:75:3f:65:c6:33:c7:
         50:3f:bc:9f:80:91:09:46:1d:15:f8:1c:64:ad:d1:06:ad:bf:
         25:1a:ef:be:5f:07:8b:69:b1:ad:48:de:d9:d7:b1:4a:5b:41:
         1f:6c:c3:23:45:a0:8a:b7:05:9e:e7:5f:c0:0c:37:25:66:7e:
         51:a2:fd:94:5b:63:d0:1b:d3:fa:d2:4a:20:88:22:05:74:2b:
         46:d6:9a:b3:5e:31:4f:1b:d9:d1:bc:01:8f:ab:54:d9:84:c5:
         3c:da:b2:0e:b0:e4:6c:f6:6e:d2:dd:91:bd:78:60:e0:63:17:
         d0:a7:94:36:00:3c:15:f2:fd:f2:f8:e6:f7:e1:5b:8f:80:c8:
         93:98:0d:40:74:a2:22:7f:c0:fd:7a:10:09:d3:16:4f:cf:28:
         13:8a:26:bd:36:b9:b1:42:10:9f:d6:d8:6a:19:9e:06:4b:08:
         18:2d:58:c1:87:17:f8:a9:d9:11:94:5d:45:7d:ed:dc:fe:39:
         83:ee:79:7e:98:c5:df:34:ec:ca:6d:98:4d:80:67:4e:72:38:
         59:4e:62:8b
-----BEGIN CERTIFICATE-----
MIIDdzCCAl+gAwIBAgIQfxdBN4WAloviCRqBdzQRIzANBgkqhkiG9w0BAQsFADAW
MRQwEgYDVQQDDAt0ZWFtMTk0LW5ldDAeFw0yMTA5MTMwMDI3MTBaFw0yNDA4Mjgw
MDI3MTBaMBkxFzAVBgNVBAMMDnRlYW0xOTQtc2VydmVyMIIBIjANBgkqhkiG9w0B
AQEFAAOCAQ8AMIIBCgKCAQEAu3PQ8ViT6f6KYGl1OCBacg+Q30S4EPEw86pg/maV
tqXth7psBFz+ujPZ75jaXLne0wlWAtwaR/DYnEXtTv7gyIfbkDGwNlNbjdhOOiSS
Mnte3czAuda9qWtFydBfi33ARodzIi2XVtIwoEffNF0X3I7HC1OtucBXufLr5f5o
gD4o0Win8L52psGT8+mTTjcckVLRQq4v/tG/Ho84br3t8zXGyQEVPHdmX2rIuCAn
e52Kq8oBKhadXoYdDYDkxyHYwOkSrdglrwyxbz4ozqbP9JGfxNcBBHHfR2ryj1fl
KGMNGtr21D2RWJvXiZOuLF/CHYsWcws2AGGwoBaLYQRvEQIDAQABo4G9MIG6MAkG
A1UdEwQCMAAwHQYDVR0OBBYEFOCTHyn9q9MACfqg9j/m4BeIG4mxMFEGA1UdIwRK
MEiAFO6tJct/PhM309zruCINugebmUsYoRqkGDAWMRQwEgYDVQQDDAt0ZWFtMTk0
LW5ldIIUZK3wm/R7tjuromcHfgNjpPnDQKcwEwYDVR0lBAwwCgYIKwYBBQUHAwEw
CwYDVR0PBAQDAgWgMBkGA1UdEQQSMBCCDnRlYW0xOTQtc2VydmVyMA0GCSqGSIb3
DQEBCwUAA4IBAQAR6ahrsACE6JdpLB+1mgGutipnVyQcDGyZFnN1kDueqsvX3iRq
KlH5vVfc5f9UqU91P2XGM8dQP7yfgJEJRh0V+BxkrdEGrb8lGu++XweLabGtSN7Z
17FKW0EfbMMjRaCKtwWe51/ADDclZn5Rov2UW2PQG9P60kogiCIFdCtG1pqzXjFP
G9nRvAGPq1TZhMU82rIOsORs9m7S3ZG9eGDgYxfQp5Q2ADwV8v3y+Ob34VuPgMiT
mA1AdKIif8D9ehAJ0xZPzygTiia9NrmxQhCf1thqGZ4GSwgYLVjBhxf4qdkRlF1F
fe3c/jmD7nl+mMXfNOzKbZhNgGdOcjhZTmKL
-----END CERTIFICATE-----
