Certificate:
    Data:
        Version: 3 (0x2)
        Serial Number:
            dd:c1:01:7b:bc:a2:20:81:da:6e:7f:ee:27:64:76:9b
        Signature Algorithm: sha256WithRSAEncryption
        Issuer: CN=team5-net
        Validity
            Not Before: Sep 12 22:39:26 2021 GMT
            Not After : Aug 27 22:39:26 2024 GMT
        Subject: CN=team5-server
        Subject Public Key Info:
            Public Key Algorithm: rsaEncryption
                RSA Public-Key: (2048 bit)
                Modulus:
                    00:b7:99:90:ce:db:99:c0:72:d0:ff:80:68:3e:29:
                    6c:e1:e0:31:86:e5:05:e0:e4:9f:d3:c9:4d:0c:07:
                    2b:17:4b:ff:e4:6d:16:54:28:4b:d4:4c:96:cf:db:
                    ae:75:68:43:9b:36:18:33:4b:80:59:c8:33:65:21:
                    99:58:f9:64:56:1b:6d:4b:92:cd:53:de:39:94:0f:
                    c0:10:7b:d0:1d:d2:c5:fd:11:7a:29:ff:e5:64:47:
                    e8:b3:d3:3b:cb:e7:46:4c:c1:b3:85:c9:c5:d4:fd:
                    eb:70:4a:19:eb:00:88:0b:64:5e:32:0c:f1:50:0f:
                    dc:fb:fa:83:31:57:92:d6:c5:8d:e5:f7:1d:7d:a0:
                    e0:52:bf:14:fd:7e:e1:b8:76:a6:ed:b5:df:6d:b0:
                    f8:25:b7:c3:67:b2:ca:d5:05:fd:e8:c3:54:5a:d8:
                    0b:e6:92:ee:cd:79:a3:3a:c8:0e:13:2f:72:1e:51:
                    11:67:c0:ef:4a:9f:34:34:1f:49:77:fb:78:0f:3d:
                    3a:51:1b:8e:56:7e:31:38:df:3c:61:6b:63:63:be:
                    78:55:7c:29:48:70:76:be:88:59:ec:dc:b1:a1:5b:
                    be:10:9b:83:2f:d6:9d:26:b5:4b:f9:43:5f:ae:46:
                    a2:99:c6:ee:05:65:31:b3:8d:c0:d6:8d:49:66:21:
                    a8:3d
                Exponent: 65537 (0x10001)
        X509v3 extensions:
            X509v3 Basic Constraints: 
                CA:FALSE
            X509v3 Subject Key Identifier: 
                89:E7:FA:6F:FA:14:E4:9D:3A:F4:A8:11:A4:38:5E:D9:4F:CC:7A:97
            X509v3 Authority Key Identifier: 
                keyid:5E:14:47:42:D8:47:3E:4A:0E:24:81:0E:CD:9C:CC:F2:38:C2:7E:53
                DirName:/CN=team5-net
                serial:16:81:C5:87:E9:E9:2A:C4:9E:3C:88:76:3B:FD:9D:A1:F2:F7:5A:D5

            X509v3 Extended Key Usage: 
                TLS Web Server Authentication
            X509v3 Key Usage: 
                Digital Signature, Key Encipherment
            X509v3 Subject Alternative Name: 
                DNS:team5-server
    Signature Algorithm: sha256WithRSAEncryption
         a8:26:97:17:11:86:d1:50:21:94:7b:0c:02:5f:d0:b9:e6:a9:
         10:e8:e9:f6:5a:8d:25:d5:12:e4:58:86:3f:22:0e:ba:39:be:
         cc:e6:84:21:ab:33:46:4f:ef:97:a4:a7:20:96:57:2c:c9:29:
         3c:f3:fb:b8:47:63:ff:04:66:f1:8f:d5:3e:3b:6e:d3:ab:8e:
         25:65:2d:9f:6b:25:69:c1:4f:4a:84:45:f6:35:92:1c:c6:e2:
         2b:3f:0b:bb:4b:58:02:22:e0:fb:b3:04:62:11:ac:9c:66:6e:
         90:4a:af:95:5a:b6:da:9d:dc:2c:6d:10:6a:be:67:b5:f1:da:
         fe:2e:f8:2a:6d:6b:88:11:22:23:94:b9:44:69:cb:ca:1b:da:
         c9:22:78:91:be:44:f6:b9:fc:6a:d6:ee:77:77:ee:ab:0f:e3:
         bd:e9:e8:b3:db:53:25:33:d1:e8:66:75:de:37:d9:e2:18:0a:
         b8:1a:7e:9a:75:f7:98:07:e6:64:a0:f0:7d:3b:9a:cb:6b:23:
         cc:e5:7b:dc:37:f6:0d:a9:b3:6c:7b:97:72:e9:79:a5:fd:41:
         64:1a:9a:e7:52:ff:0d:8c:60:5a:7d:43:51:a4:97:50:2f:e8:
         d4:ec:04:4a:f6:37:56:01:cd:cd:f6:14:3e:e5:5d:05:bc:08:
         86:28:a2:82
-----BEGIN CERTIFICATE-----
MIIDcDCCAligAwIBAgIRAN3BAXu8oiCB2m5/7idkdpswDQYJKoZIhvcNAQELBQAw
FDESMBAGA1UEAwwJdGVhbTUtbmV0MB4XDTIxMDkxMjIyMzkyNloXDTI0MDgyNzIy
MzkyNlowFzEVMBMGA1UEAwwMdGVhbTUtc2VydmVyMIIBIjANBgkqhkiG9w0BAQEF
AAOCAQ8AMIIBCgKCAQEAt5mQztuZwHLQ/4BoPils4eAxhuUF4OSf08lNDAcrF0v/
5G0WVChL1EyWz9uudWhDmzYYM0uAWcgzZSGZWPlkVhttS5LNU945lA/AEHvQHdLF
/RF6Kf/lZEfos9M7y+dGTMGzhcnF1P3rcEoZ6wCIC2ReMgzxUA/c+/qDMVeS1sWN
5fcdfaDgUr8U/X7huHam7bXfbbD4JbfDZ7LK1QX96MNUWtgL5pLuzXmjOsgOEy9y
HlERZ8DvSp80NB9Jd/t4Dz06URuOVn4xON88YWtjY754VXwpSHB2vohZ7NyxoVu+
EJuDL9adJrVL+UNfrkaimcbuBWUxs43A1o1JZiGoPQIDAQABo4G5MIG2MAkGA1Ud
EwQCMAAwHQYDVR0OBBYEFInn+m/6FOSdOvSoEaQ4XtlPzHqXME8GA1UdIwRIMEaA
FF4UR0LYRz5KDiSBDs2czPI4wn5ToRikFjAUMRIwEAYDVQQDDAl0ZWFtNS1uZXSC
FBaBxYfp6SrEnjyIdjv9naHy91rVMBMGA1UdJQQMMAoGCCsGAQUFBwMBMAsGA1Ud
DwQEAwIFoDAXBgNVHREEEDAOggx0ZWFtNS1zZXJ2ZXIwDQYJKoZIhvcNAQELBQAD
ggEBAKgmlxcRhtFQIZR7DAJf0LnmqRDo6fZajSXVEuRYhj8iDro5vszmhCGrM0ZP
75ekpyCWVyzJKTzz+7hHY/8EZvGP1T47btOrjiVlLZ9rJWnBT0qERfY1khzG4is/
C7tLWAIi4PuzBGIRrJxmbpBKr5Vattqd3CxtEGq+Z7Xx2v4u+Cpta4gRIiOUuURp
y8ob2skieJG+RPa5/GrW7nd37qsP473p6LPbUyUz0ehmdd432eIYCrgafpp195gH
5mSg8H07mstrI8zle9w39g2ps2x7l3LpeaX9QWQamudS/w2MYFp9Q1Gkl1Av6NTs
BEr2N1YBzc32FD7lXQW8CIYoooI=
-----END CERTIFICATE-----
