Certificate:
    Data:
        Version: 3 (0x2)
        Serial Number:
            ae:2e:89:61:0e:ef:f0:a0:af:51:77:21:8d:28:88:af
        Signature Algorithm: sha256WithRSAEncryption
        Issuer: CN=team727-net
        Validity
            Not Before: Sep 13 05:38:03 2021 GMT
            Not After : Aug 28 05:38:03 2024 GMT
        Subject: CN=team727-client
        Subject Public Key Info:
            Public Key Algorithm: rsaEncryption
                RSA Public-Key: (2048 bit)
                Modulus:
                    00:c2:52:c6:de:94:e0:ff:01:05:33:cc:49:20:b2:
                    34:1b:3e:ce:a8:15:62:d4:3f:7d:65:e0:af:50:92:
                    7d:6e:b0:8b:62:a9:85:72:b4:64:b7:1a:a4:53:02:
                    d4:59:ec:35:9c:78:8b:e9:7c:ef:ed:79:68:6a:03:
                    6f:27:39:85:d5:7c:9d:61:83:36:19:cc:2a:60:18:
                    70:14:e7:f8:d9:ab:54:b2:44:4f:76:75:d1:10:63:
                    d0:fb:eb:68:cf:f2:17:2e:9a:83:0c:e0:b1:a2:20:
                    65:23:13:4b:08:40:47:2e:d9:1a:a7:b5:ae:ca:73:
                    ed:87:7e:cc:3a:2d:2a:16:4b:74:f7:23:8b:3b:43:
                    76:7e:61:40:b4:b5:60:31:91:5e:aa:07:2a:33:43:
                    f0:ef:3d:68:2f:18:50:2e:9a:16:a7:6b:f6:3a:57:
                    34:2e:91:26:7e:de:28:92:ec:df:87:d6:d5:d5:bd:
                    e6:54:a8:78:5e:66:9e:47:f6:3e:4c:d8:91:f2:6a:
                    83:ff:0c:dc:f2:6c:66:8b:31:e2:a8:af:a0:eb:74:
                    f5:a5:a2:35:c6:e5:78:40:b6:09:b1:88:eb:1c:84:
                    e8:6d:67:84:c1:2b:fe:b7:ea:b1:2c:68:91:89:71:
                    30:25:79:57:6a:f0:33:7f:73:85:f1:5c:06:d7:d1:
                    71:0d
                Exponent: 65537 (0x10001)
        X509v3 extensions:
            X509v3 Basic Constraints: 
                CA:FALSE
            X509v3 Subject Key Identifier: 
                AD:22:EE:4B:6A:33:DF:0B:13:38:10:53:02:20:FB:DE:D7:13:FF:5B
            X509v3 Authority Key Identifier: 
                keyid:38:FA:09:52:B8:16:91:FC:4D:07:EF:0E:D7:B3:48:D7:5B:CA:39:59
                DirName:/CN=team727-net
                serial:0A:48:70:31:C3:A6:B9:45:37:74:FA:CE:0D:D4:67:60:C0:CC:5D:92

            X509v3 Extended Key Usage: 
                TLS Web Client Authentication
            X509v3 Key Usage: 
                Digital Signature
    Signature Algorithm: sha256WithRSAEncryption
         28:4e:d5:26:0a:4a:d0:d6:f0:ec:c0:4c:b9:a6:d9:c2:ce:00:
         be:82:c7:ab:68:71:d8:d2:e1:de:6b:76:58:cd:74:ac:7d:fb:
         73:9d:9d:66:50:7b:c3:98:17:46:f4:5b:79:a2:f0:07:c2:6f:
         c8:e7:4a:a6:64:83:08:a6:45:ec:4b:67:c1:f7:c9:61:9f:be:
         8a:49:f4:7d:89:87:6c:62:ed:a8:cf:6d:0c:b7:06:c7:5f:a8:
         96:da:06:f1:5d:47:1c:23:b3:d1:1a:6a:94:3c:dd:00:e6:2f:
         14:64:4b:9f:3f:9f:83:63:ad:63:6a:e4:70:1d:c6:75:cc:e9:
         72:86:99:f9:8d:be:f2:cd:d2:34:9b:48:6c:3b:c5:70:c9:1b:
         c6:e9:fc:d0:8f:4a:b3:42:39:fa:f1:ec:15:1d:18:1d:04:5b:
         b1:15:5e:65:4a:db:c0:9f:ae:76:55:f3:ef:f3:07:a7:e0:1c:
         e2:8c:05:da:ad:cc:18:eb:b8:2c:38:5f:c9:c6:a2:f4:47:45:
         f7:0a:21:d3:0a:c2:62:db:d4:8c:bd:f3:4a:fe:ef:54:37:04:
         af:a6:8f:f9:41:7f:ee:e6:3b:e5:a9:ca:d0:51:bd:0e:51:51:
         2f:8d:36:0b:c7:d8:ea:31:bd:57:f6:51:09:27:38:ec:87:a4:
         56:67:a4:a4
-----BEGIN CERTIFICATE-----
MIIDXTCCAkWgAwIBAgIRAK4uiWEO7/Cgr1F3IY0oiK8wDQYJKoZIhvcNAQELBQAw
FjEUMBIGA1UEAwwLdGVhbTcyNy1uZXQwHhcNMjEwOTEzMDUzODAzWhcNMjQwODI4
MDUzODAzWjAZMRcwFQYDVQQDDA50ZWFtNzI3LWNsaWVudDCCASIwDQYJKoZIhvcN
AQEBBQADggEPADCCAQoCggEBAMJSxt6U4P8BBTPMSSCyNBs+zqgVYtQ/fWXgr1CS
fW6wi2KphXK0ZLcapFMC1FnsNZx4i+l87+15aGoDbyc5hdV8nWGDNhnMKmAYcBTn
+NmrVLJET3Z10RBj0PvraM/yFy6agwzgsaIgZSMTSwhARy7ZGqe1rspz7Yd+zDot
KhZLdPcjiztDdn5hQLS1YDGRXqoHKjND8O89aC8YUC6aFqdr9jpXNC6RJn7eKJLs
34fW1dW95lSoeF5mnkf2PkzYkfJqg/8M3PJsZosx4qivoOt09aWiNcbleEC2CbGI
6xyE6G1nhMEr/rfqsSxokYlxMCV5V2rwM39zhfFcBtfRcQ0CAwEAAaOBojCBnzAJ
BgNVHRMEAjAAMB0GA1UdDgQWBBStIu5LajPfCxM4EFMCIPve1xP/WzBRBgNVHSME
SjBIgBQ4+glSuBaR/E0H7w7Xs0jXW8o5WaEapBgwFjEUMBIGA1UEAwwLdGVhbTcy
Ny1uZXSCFApIcDHDprlFN3T6zg3UZ2DAzF2SMBMGA1UdJQQMMAoGCCsGAQUFBwMC
MAsGA1UdDwQEAwIHgDANBgkqhkiG9w0BAQsFAAOCAQEAKE7VJgpK0Nbw7MBMuabZ
ws4AvoLHq2hx2NLh3mt2WM10rH37c52dZlB7w5gXRvRbeaLwB8JvyOdKpmSDCKZF
7EtnwffJYZ++ikn0fYmHbGLtqM9tDLcGx1+oltoG8V1HHCOz0RpqlDzdAOYvFGRL
nz+fg2OtY2rkcB3GdczpcoaZ+Y2+8s3SNJtIbDvFcMkbxun80I9Ks0I5+vHsFR0Y
HQRbsRVeZUrbwJ+udlXz7/MHp+Ac4owF2q3MGOu4LDhfycai9EdF9woh0wrCYtvU
jL3zSv7vVDcEr6aP+UF/7uY75anK0FG9DlFRL402C8fY6jG9V/ZRCSc47IekVmek
pA==
-----END CERTIFICATE-----
