Certificate:
    Data:
        Version: 3 (0x2)
        Serial Number:
            e1:c7:fd:24:21:78:16:a0:48:71:fe:62:b8:39:27:5d
        Signature Algorithm: sha256WithRSAEncryption
        Issuer: CN=team283-net
        Validity
            Not Before: Sep 13 01:14:07 2021 GMT
            Not After : Aug 28 01:14:07 2024 GMT
        Subject: CN=team283-server
        Subject Public Key Info:
            Public Key Algorithm: rsaEncryption
                RSA Public-Key: (2048 bit)
                Modulus:
                    00:b8:4c:14:72:03:23:66:3a:74:64:a9:41:df:3d:
                    f0:d4:2a:27:63:57:32:c1:87:67:16:d1:c6:be:b5:
                    ff:0a:66:ae:88:69:83:f6:24:c9:65:b2:52:84:f0:
                    a0:f3:82:c5:3b:f4:6d:0b:ff:05:43:20:67:0e:41:
                    08:56:3e:d0:72:19:46:90:60:9c:88:d2:59:0e:51:
                    02:f8:9f:12:ac:4b:be:dd:27:1c:29:3e:1c:38:16:
                    b3:57:a1:3f:78:c6:af:06:fd:9a:bc:b5:dc:0e:85:
                    ff:8b:e7:ff:88:bd:ee:1f:bf:23:2f:18:f3:29:2d:
                    40:56:e8:8c:a9:1b:bd:8f:ed:ae:d2:d7:08:2a:8b:
                    a5:7d:71:40:f9:42:94:14:4e:81:47:f7:24:55:15:
                    17:d9:98:b7:b7:dc:12:86:ed:f3:bf:08:18:de:24:
                    80:da:8a:4e:ff:d7:b9:2d:07:a4:7a:bf:e7:e3:0b:
                    81:9e:96:bd:56:cc:2c:f0:82:d5:24:d9:f1:22:c4:
                    10:ed:2f:b9:3f:9f:47:37:19:1b:9b:80:0d:45:60:
                    fd:3a:f6:53:6a:a8:95:0d:a2:4a:c3:ec:8c:30:de:
                    1b:31:ab:19:a2:3f:72:f6:21:f7:ed:5b:58:0f:00:
                    2d:8f:e6:af:9c:dd:f3:e2:d0:0d:59:02:3b:aa:33:
                    ed:4b
                Exponent: 65537 (0x10001)
        X509v3 extensions:
            X509v3 Basic Constraints: 
                CA:FALSE
            X509v3 Subject Key Identifier: 
                31:D9:FA:71:D6:DE:1A:24:5D:98:19:CA:E2:8F:E3:B3:7E:E7:99:CC
            X509v3 Authority Key Identifier: 
                keyid:FA:10:49:9E:F7:BC:5A:65:49:30:7C:8D:53:C9:E3:F6:57:A5:A3:CF
                DirName:/CN=team283-net
                serial:2A:0F:22:BE:5C:C3:62:A9:86:D7:B9:5A:3A:9B:A8:CC:2B:39:EE:36

            X509v3 Extended Key Usage: 
                TLS Web Server Authentication
            X509v3 Key Usage: 
                Digital Signature, Key Encipherment
            X509v3 Subject Alternative Name: 
                DNS:team283-server
    Signature Algorithm: sha256WithRSAEncryption
         2d:53:c6:46:ca:2a:7e:87:d4:cf:39:7a:30:80:e1:74:0e:89:
         c4:ba:9a:88:76:15:9d:63:da:4c:ce:b3:91:5c:1d:5a:de:81:
         92:5b:46:d6:7c:48:c9:47:80:05:c1:c0:95:b8:c7:11:11:ea:
         af:3b:29:37:72:05:8f:34:2d:dd:97:44:61:d4:1a:60:59:e5:
         1d:07:53:d8:08:2c:51:28:35:27:a8:eb:16:c6:e8:58:c2:c8:
         b5:90:3b:d8:11:20:e0:4b:21:fc:a1:7b:ad:35:7d:fd:87:12:
         a7:e5:70:21:b5:6a:35:4c:8c:db:13:23:6e:4b:0f:5b:8d:fa:
         c9:44:9c:d9:19:e5:af:48:cd:24:b2:f4:df:27:5f:4e:d1:76:
         65:1f:37:ae:99:b8:51:eb:bb:b2:c5:8c:b3:7b:5b:ab:7b:ae:
         8a:fc:47:41:59:9a:8f:8b:61:27:72:00:d1:c0:2a:ce:97:00:
         d9:58:59:2f:5b:7f:d4:5a:1b:03:a0:f2:9d:44:b6:18:27:e7:
         8e:a4:4d:6b:f6:6c:e7:38:1b:eb:b2:4c:3a:62:da:f0:84:ae:
         3c:a9:ab:00:b9:d4:7a:99:2e:e0:44:53:9a:85:e4:30:f8:8f:
         36:86:3f:c0:06:be:55:1b:bd:6b:80:75:67:e9:38:4c:21:00:
         3b:2d:4b:32
-----BEGIN CERTIFICATE-----
MIIDeDCCAmCgAwIBAgIRAOHH/SQheBagSHH+Yrg5J10wDQYJKoZIhvcNAQELBQAw
FjEUMBIGA1UEAwwLdGVhbTI4My1uZXQwHhcNMjEwOTEzMDExNDA3WhcNMjQwODI4
MDExNDA3WjAZMRcwFQYDVQQDDA50ZWFtMjgzLXNlcnZlcjCCASIwDQYJKoZIhvcN
AQEBBQADggEPADCCAQoCggEBALhMFHIDI2Y6dGSpQd898NQqJ2NXMsGHZxbRxr61
/wpmrohpg/YkyWWyUoTwoPOCxTv0bQv/BUMgZw5BCFY+0HIZRpBgnIjSWQ5RAvif
EqxLvt0nHCk+HDgWs1ehP3jGrwb9mry13A6F/4vn/4i97h+/Iy8Y8yktQFbojKkb
vY/trtLXCCqLpX1xQPlClBROgUf3JFUVF9mYt7fcEobt878IGN4kgNqKTv/XuS0H
pHq/5+MLgZ6WvVbMLPCC1STZ8SLEEO0vuT+fRzcZG5uADUVg/Tr2U2qolQ2iSsPs
jDDeGzGrGaI/cvYh9+1bWA8ALY/mr5zd8+LQDVkCO6oz7UsCAwEAAaOBvTCBujAJ
BgNVHRMEAjAAMB0GA1UdDgQWBBQx2fpx1t4aJF2YGcrij+OzfueZzDBRBgNVHSME
SjBIgBT6EEme97xaZUkwfI1TyeP2V6Wjz6EapBgwFjEUMBIGA1UEAwwLdGVhbTI4
My1uZXSCFCoPIr5cw2Kphte5WjqbqMwrOe42MBMGA1UdJQQMMAoGCCsGAQUFBwMB
MAsGA1UdDwQEAwIFoDAZBgNVHREEEjAQgg50ZWFtMjgzLXNlcnZlcjANBgkqhkiG
9w0BAQsFAAOCAQEALVPGRsoqfofUzzl6MIDhdA6JxLqaiHYVnWPaTM6zkVwdWt6B
kltG1nxIyUeABcHAlbjHERHqrzspN3IFjzQt3ZdEYdQaYFnlHQdT2AgsUSg1J6jr
FsboWMLItZA72BEg4Esh/KF7rTV9/YcSp+VwIbVqNUyM2xMjbksPW436yUSc2Rnl
r0jNJLL03ydfTtF2ZR83rpm4Ueu7ssWMs3tbq3uuivxHQVmaj4thJ3IA0cAqzpcA
2VhZL1t/1FobA6DynUS2GCfnjqRNa/Zs5zgb67JMOmLa8ISuPKmrALnUepku4ERT
moXkMPiPNoY/wAa+VRu9a4B1Z+k4TCEAOy1LMg==
-----END CERTIFICATE-----
