Certificate:
    Data:
        Version: 3 (0x2)
        Serial Number:
            13:99:b4:82:7b:22:99:8f:ab:5c:d8:51:d7:ce:a8:c8
        Signature Algorithm: sha256WithRSAEncryption
        Issuer: CN=team359-net
        Validity
            Not Before: Sep 13 02:02:56 2021 GMT
            Not After : Aug 28 02:02:56 2024 GMT
        Subject: CN=team359-client
        Subject Public Key Info:
            Public Key Algorithm: rsaEncryption
                RSA Public-Key: (2048 bit)
                Modulus:
                    00:be:fc:79:82:d5:49:88:eb:1e:ee:8e:a6:96:a5:
                    8f:1d:e7:f1:74:b4:58:5c:2c:3f:83:6c:ae:e1:c2:
                    42:e4:4d:37:e9:62:11:a6:e4:c9:ff:ec:63:8c:47:
                    4c:12:b8:45:f4:bc:1a:43:36:71:d2:c9:63:33:70:
                    1f:d5:fe:83:f7:c4:bd:09:ab:2b:c4:cd:7f:2d:dd:
                    66:e9:4b:ad:46:00:6a:89:61:35:ec:ba:a5:2c:38:
                    34:42:8a:d9:d2:b4:18:cc:17:b3:86:14:24:d9:18:
                    ea:3a:e1:51:d2:4c:9d:26:41:a6:3d:14:bb:a4:94:
                    90:42:ea:93:aa:4e:07:a5:bc:fb:55:8e:a2:13:cb:
                    df:18:f3:90:04:bf:58:f8:19:37:1b:37:7c:51:22:
                    11:4e:55:c3:62:04:42:56:04:0b:63:c6:92:c1:25:
                    6c:88:60:1e:b4:b0:2f:4e:0c:c8:d7:67:52:5d:45:
                    e9:4b:8e:76:1c:d7:9e:35:6a:a2:ba:a6:4f:7e:9a:
                    6a:1e:45:fd:03:97:47:2d:bd:fd:b2:53:a8:54:01:
                    4a:4a:cc:32:53:fd:f2:2f:c4:f7:e4:a9:c3:08:1d:
                    c2:97:5b:a5:94:e2:40:0b:d8:b1:f6:82:33:40:3e:
                    1e:cd:3a:10:0a:ba:b8:27:3e:f6:8f:ef:2a:ec:10:
                    84:59
                Exponent: 65537 (0x10001)
        X509v3 extensions:
            X509v3 Basic Constraints: 
                CA:FALSE
            X509v3 Subject Key Identifier: 
                D0:64:50:92:2A:FE:DF:58:B1:44:55:A1:6E:28:48:A2:BD:61:EB:CE
            X509v3 Authority Key Identifier: 
                keyid:F6:00:DD:4C:80:58:52:49:FD:35:45:5D:D7:BC:24:5E:4E:34:4B:64
                DirName:/CN=team359-net
                serial:16:6A:4C:FB:02:5F:E1:72:0D:A7:0C:97:73:9A:DF:25:BB:9A:BA:06

            X509v3 Extended Key Usage: 
                TLS Web Client Authentication
            X509v3 Key Usage: 
                Digital Signature
    Signature Algorithm: sha256WithRSAEncryption
         67:2f:8e:10:40:d7:6d:74:cf:87:f5:d6:62:6a:18:fc:75:51:
         2a:9c:85:cc:19:20:32:d6:11:e4:76:52:25:5d:50:f5:dc:3f:
         fb:26:66:b3:40:e0:99:27:1a:1a:2f:c4:87:93:93:06:a9:d1:
         4e:46:cd:a6:c7:1f:d4:6b:14:cc:37:42:1a:3a:9e:89:b7:78:
         a1:6e:93:07:fa:b7:f2:ab:0f:4b:ad:b1:a9:ae:22:9c:62:ce:
         ef:ab:a2:b5:fc:71:a0:26:c0:90:e8:9a:fe:1d:2a:6b:0d:d0:
         c4:b2:7d:2e:34:23:30:a1:47:31:bd:ce:96:38:f1:ed:26:13:
         3a:7f:7d:c0:0e:c2:ac:4b:3d:4f:3c:14:44:93:54:4c:4b:23:
         28:ae:4b:0c:7f:51:4b:32:8c:c7:19:6a:41:c7:21:49:f6:bf:
         d1:d0:76:8d:7b:1b:65:7c:b0:d8:e4:6e:c0:88:c4:b1:37:7d:
         e2:a1:e6:58:71:48:26:66:f4:d7:04:fd:62:32:16:9d:66:67:
         3f:a2:99:60:0a:6f:b2:3c:c8:e8:6d:65:14:48:6a:88:81:c1:
         9c:b9:4f:75:04:87:6f:d8:87:2b:4c:fb:bb:61:1c:73:5a:2a:
         df:d1:b5:7f:d5:3f:a2:73:11:1b:a0:7d:20:7e:be:44:1d:75:
         92:ad:32:b7
-----BEGIN CERTIFICATE-----
MIIDXDCCAkSgAwIBAgIQE5m0gnsimY+rXNhR186oyDANBgkqhkiG9w0BAQsFADAW
MRQwEgYDVQQDDAt0ZWFtMzU5LW5ldDAeFw0yMTA5MTMwMjAyNTZaFw0yNDA4Mjgw
MjAyNTZaMBkxFzAVBgNVBAMMDnRlYW0zNTktY2xpZW50MIIBIjANBgkqhkiG9w0B
AQEFAAOCAQ8AMIIBCgKCAQEAvvx5gtVJiOse7o6mlqWPHefxdLRYXCw/g2yu4cJC
5E036WIRpuTJ/+xjjEdMErhF9LwaQzZx0sljM3Af1f6D98S9CasrxM1/Ld1m6Uut
RgBqiWE17LqlLDg0QorZ0rQYzBezhhQk2RjqOuFR0kydJkGmPRS7pJSQQuqTqk4H
pbz7VY6iE8vfGPOQBL9Y+Bk3Gzd8USIRTlXDYgRCVgQLY8aSwSVsiGAetLAvTgzI
12dSXUXpS452HNeeNWqiuqZPfppqHkX9A5dHLb39slOoVAFKSswyU/3yL8T35KnD
CB3Cl1ullOJAC9ix9oIzQD4ezToQCrq4Jz72j+8q7BCEWQIDAQABo4GiMIGfMAkG
A1UdEwQCMAAwHQYDVR0OBBYEFNBkUJIq/t9YsURVoW4oSKK9YevOMFEGA1UdIwRK
MEiAFPYA3UyAWFJJ/TVFXde8JF5ONEtkoRqkGDAWMRQwEgYDVQQDDAt0ZWFtMzU5
LW5ldIIUFmpM+wJf4XINpwyXc5rfJbuaugYwEwYDVR0lBAwwCgYIKwYBBQUHAwIw
CwYDVR0PBAQDAgeAMA0GCSqGSIb3DQEBCwUAA4IBAQBnL44QQNdtdM+H9dZiahj8
dVEqnIXMGSAy1hHkdlIlXVD13D/7JmazQOCZJxoaL8SHk5MGqdFORs2mxx/UaxTM
N0IaOp6Jt3ihbpMH+rfyqw9LrbGpriKcYs7vq6K1/HGgJsCQ6Jr+HSprDdDEsn0u
NCMwoUcxvc6WOPHtJhM6f33ADsKsSz1PPBREk1RMSyMorksMf1FLMozHGWpBxyFJ
9r/R0HaNextlfLDY5G7AiMSxN33ioeZYcUgmZvTXBP1iMhadZmc/oplgCm+yPMjo
bWUUSGqIgcGcuU91BIdv2IcrTPu7YRxzWirf0bV/1T+icxEboH0gfr5EHXWSrTK3
-----END CERTIFICATE-----
