Certificate:
    Data:
        Version: 3 (0x2)
        Serial Number:
            60:05:c7:68:ff:09:51:af:95:16:de:fe:fc:66:15:76
        Signature Algorithm: sha256WithRSAEncryption
        Issuer: CN=team725-net
        Validity
            Not Before: Sep 13 05:00:22 2021 GMT
            Not After : Aug 28 05:00:22 2024 GMT
        Subject: CN=team725-client
        Subject Public Key Info:
            Public Key Algorithm: rsaEncryption
                RSA Public-Key: (2048 bit)
                Modulus:
                    00:a5:66:2a:fc:a2:81:e4:04:d0:6f:ef:dd:3c:32:
                    30:b5:5c:e6:74:4f:14:00:22:91:78:3d:41:ea:dc:
                    fc:a5:ae:00:36:bf:23:fb:da:c1:de:d3:fd:d1:3b:
                    a9:a5:87:0f:8b:91:a0:03:d3:d5:fc:c8:25:9f:f4:
                    c4:f3:e3:cb:5f:60:40:05:6d:04:c3:df:70:16:39:
                    e5:6c:4d:aa:08:1a:90:91:9c:0b:09:c1:fc:11:d3:
                    7d:bd:e3:4e:0a:60:17:be:46:d1:52:2b:a3:9d:42:
                    1d:71:2d:3b:51:9e:81:13:2b:b0:47:84:e8:bb:23:
                    90:c8:df:3a:f0:b4:f6:db:23:d5:3a:43:3e:de:4e:
                    0d:fe:dd:f0:03:4f:3e:da:7a:d7:28:65:96:53:97:
                    a3:37:5a:e3:fb:45:27:e9:bb:92:b1:96:b3:f7:85:
                    c0:c1:16:85:79:29:bd:4b:5c:15:77:d7:5e:d7:43:
                    49:77:f0:4c:cf:74:e8:95:b5:3b:65:a1:0d:c2:47:
                    f6:1c:71:f0:15:aa:6e:2e:91:76:c6:35:3a:8d:56:
                    f9:ee:86:f3:76:ab:32:b7:fa:e4:8c:fb:d9:dc:86:
                    84:92:7d:46:e9:9e:99:b9:66:c7:db:9b:f4:0d:6d:
                    2e:96:20:d5:d9:09:1f:ae:24:da:37:85:b1:7e:cd:
                    85:8b
                Exponent: 65537 (0x10001)
        X509v3 extensions:
            X509v3 Basic Constraints: 
                CA:FALSE
            X509v3 Subject Key Identifier: 
                A1:AD:E3:75:37:98:96:E2:4C:EE:76:A8:D2:6E:EA:50:6E:86:37:D4
            X509v3 Authority Key Identifier: 
                keyid:CF:E0:66:2D:53:7A:B4:B4:7B:11:17:EA:31:D0:89:F4:FA:6C:D3:07
                DirName:/CN=team725-net
                serial:0A:36:98:EC:9A:1F:30:85:78:CE:E6:24:A6:53:65:00:24:21:6E:43

            X509v3 Extended Key Usage: 
                TLS Web Client Authentication
            X509v3 Key Usage: 
                Digital Signature
    Signature Algorithm: sha256WithRSAEncryption
         26:8c:33:2e:94:31:7b:60:17:ad:d9:84:ce:4c:af:a6:ed:5d:
         88:dc:dd:a9:7d:a7:98:62:50:27:f6:a4:2e:01:1d:b8:d2:66:
         9f:46:7a:e0:e3:b0:28:5f:62:f3:e8:20:25:fc:06:4b:84:dc:
         fe:63:46:9c:a2:cd:56:00:0c:88:47:d7:52:da:f8:bd:6a:8b:
         0a:b0:3d:0b:58:03:60:a7:56:cb:1f:73:b0:a7:27:11:1e:dc:
         28:f1:24:23:d2:7f:ef:db:c5:7b:de:de:2d:db:7c:91:91:37:
         93:ba:72:c4:08:fb:28:51:1f:6e:f0:56:93:bc:c5:dc:32:89:
         ac:0a:ac:45:3e:ad:3a:f5:b1:a7:17:40:0c:50:47:de:9d:7c:
         cb:57:ad:8f:05:3c:3c:25:f7:e3:b1:dd:4c:b5:ee:d1:7c:2c:
         53:c5:d2:0c:a1:41:06:55:51:b9:f5:48:f5:71:82:fe:c2:2e:
         e4:f7:de:df:9f:31:88:5a:9f:cc:60:f9:cf:ef:e7:b0:74:72:
         d7:9d:fc:06:37:c1:68:ff:4b:af:5c:a8:59:30:46:7e:9a:72:
         55:30:36:3a:c5:5c:b8:e9:1a:90:46:45:7b:1f:f3:8b:b4:30:
         74:05:24:cd:d7:a7:86:5c:45:23:62:be:85:56:51:a0:25:a7:
         5f:03:ef:c1
-----BEGIN CERTIFICATE-----
MIIDXDCCAkSgAwIBAgIQYAXHaP8JUa+VFt7+/GYVdjANBgkqhkiG9w0BAQsFADAW
MRQwEgYDVQQDDAt0ZWFtNzI1LW5ldDAeFw0yMTA5MTMwNTAwMjJaFw0yNDA4Mjgw
NTAwMjJaMBkxFzAVBgNVBAMMDnRlYW03MjUtY2xpZW50MIIBIjANBgkqhkiG9w0B
AQEFAAOCAQ8AMIIBCgKCAQEApWYq/KKB5ATQb+/dPDIwtVzmdE8UACKReD1B6tz8
pa4ANr8j+9rB3tP90TuppYcPi5GgA9PV/Mgln/TE8+PLX2BABW0Ew99wFjnlbE2q
CBqQkZwLCcH8EdN9veNOCmAXvkbRUiujnUIdcS07UZ6BEyuwR4TouyOQyN868LT2
2yPVOkM+3k4N/t3wA08+2nrXKGWWU5ejN1rj+0Un6buSsZaz94XAwRaFeSm9S1wV
d9de10NJd/BMz3TolbU7ZaENwkf2HHHwFapuLpF2xjU6jVb57obzdqsyt/rkjPvZ
3IaEkn1G6Z6ZuWbH25v0DW0uliDV2QkfriTaN4Wxfs2FiwIDAQABo4GiMIGfMAkG
A1UdEwQCMAAwHQYDVR0OBBYEFKGt43U3mJbiTO52qNJu6lBuhjfUMFEGA1UdIwRK
MEiAFM/gZi1TerS0exEX6jHQifT6bNMHoRqkGDAWMRQwEgYDVQQDDAt0ZWFtNzI1
LW5ldIIUCjaY7JofMIV4zuYkplNlACQhbkMwEwYDVR0lBAwwCgYIKwYBBQUHAwIw
CwYDVR0PBAQDAgeAMA0GCSqGSIb3DQEBCwUAA4IBAQAmjDMulDF7YBet2YTOTK+m
7V2I3N2pfaeYYlAn9qQuAR240mafRnrg47AoX2Lz6CAl/AZLhNz+Y0acos1WAAyI
R9dS2vi9aosKsD0LWANgp1bLH3OwpycRHtwo8SQj0n/v28V73t4t23yRkTeTunLE
CPsoUR9u8FaTvMXcMomsCqxFPq069bGnF0AMUEfenXzLV62PBTw8Jffjsd1Mte7R
fCxTxdIMoUEGVVG59Uj1cYL+wi7k997fnzGIWp/MYPnP7+ewdHLXnfwGN8Fo/0uv
XKhZMEZ+mnJVMDY6xVy46RqQRkV7H/OLtDB0BSTN16eGXEUjYr6FVlGgJadfA+/B
-----END CERTIFICATE-----
