Certificate:
    Data:
        Version: 3 (0x2)
        Serial Number:
            1f:9d:25:74:32:2f:7a:31:52:e5:00:35:60:93:35:a0
        Signature Algorithm: sha256WithRSAEncryption
        Issuer: CN=team470-net
        Validity
            Not Before: Sep 13 02:52:19 2021 GMT
            Not After : Aug 28 02:52:19 2024 GMT
        Subject: CN=team470-server
        Subject Public Key Info:
            Public Key Algorithm: rsaEncryption
                RSA Public-Key: (2048 bit)
                Modulus:
                    00:bd:59:ad:73:03:bf:86:e1:23:07:47:ba:f9:cf:
                    43:fa:38:78:1b:3d:21:1e:b5:41:28:ef:68:a0:c2:
                    40:8d:4e:ea:28:94:fa:3c:37:d7:ab:9d:4c:2a:c0:
                    65:95:2c:63:21:e3:6a:b0:42:1b:5a:d5:14:73:87:
                    a1:eb:1f:63:f8:95:7c:84:7a:dd:51:e3:c5:74:20:
                    8c:d4:91:a6:16:79:43:f8:38:dd:79:11:5d:37:41:
                    cb:7e:05:25:ea:20:1e:96:60:86:27:72:14:d8:56:
                    54:20:d6:18:bc:14:09:90:09:87:58:65:71:55:3e:
                    bd:0e:03:36:1f:b6:9b:71:2e:2f:5b:d4:05:2d:14:
                    90:43:3a:e3:b8:c9:65:07:f4:aa:3a:0c:95:d5:e3:
                    cc:ab:52:13:d2:a6:ef:8e:4b:37:e2:14:e4:a1:96:
                    93:8e:49:d4:5b:8c:6d:1d:98:8c:0d:fc:f6:0b:35:
                    14:52:26:4a:5d:5a:98:0d:ee:92:5e:ea:35:41:ad:
                    5e:0d:5f:7c:19:cc:b4:f5:98:c4:ad:e4:61:37:a8:
                    8d:5c:7b:7e:78:41:9d:7d:6e:6f:07:2d:83:3e:c9:
                    8e:aa:60:07:43:a5:6e:c7:c6:1b:fb:14:ef:98:71:
                    c0:3e:95:32:72:8b:f9:fe:af:5d:6e:ab:a9:83:be:
                    f6:4d
                Exponent: 65537 (0x10001)
        X509v3 extensions:
            X509v3 Basic Constraints: 
                CA:FALSE
            X509v3 Subject Key Identifier: 
                5D:FB:F4:AE:32:79:00:42:96:13:29:BF:07:70:60:26:27:4C:C9:FE
            X509v3 Authority Key Identifier: 
                keyid:17:4B:97:B8:21:50:7E:62:3B:8C:14:F0:A9:4B:C0:6A:87:BA:62:CE
                DirName:/CN=team470-net
                serial:6D:7A:FF:8F:05:79:01:C2:0D:7B:5C:F7:E5:FB:52:88:5C:B5:C4:0E

            X509v3 Extended Key Usage: 
                TLS Web Server Authentication
            X509v3 Key Usage: 
                Digital Signature, Key Encipherment
            X509v3 Subject Alternative Name: 
                DNS:team470-server
    Signature Algorithm: sha256WithRSAEncryption
         53:2b:9c:5e:7e:1c:f8:04:a2:e8:09:97:06:ae:86:bb:cd:96:
         b7:b9:68:fa:af:be:72:99:ce:4a:0a:46:50:46:99:0e:0f:4b:
         9e:0b:53:26:74:ee:03:47:e5:4d:e8:98:27:d8:1e:be:b0:10:
         42:8b:84:eb:37:21:32:8a:b2:2f:3d:2f:64:8b:73:4c:50:32:
         2f:9b:09:18:a8:6a:60:27:1a:40:55:46:ce:f5:6a:fb:b4:e3:
         d9:8b:fb:4a:3a:98:53:a4:e2:4e:fc:1b:32:71:de:80:52:ed:
         d1:13:83:a0:e8:1d:db:62:09:83:75:aa:83:51:42:39:f8:6c:
         04:12:bf:f0:3b:f7:3d:9f:8b:49:e1:67:3c:d4:66:52:d0:a0:
         16:de:67:69:9a:1e:a5:19:f1:62:65:4b:59:0d:71:a0:93:b1:
         28:7e:d1:c3:b2:ff:8d:12:b5:98:7f:75:bc:30:cd:17:57:e0:
         6c:ab:00:ad:c4:c4:b6:e0:f2:c5:ed:81:b2:cb:f6:27:dc:e8:
         25:1b:cd:78:49:18:05:58:01:b5:88:ac:b7:66:91:ed:9c:27:
         b5:cb:29:05:60:8f:fe:57:34:4a:43:43:81:8b:16:e7:0c:e5:
         50:a1:54:12:34:8a:09:4d:cb:c7:9a:3a:73:ef:cf:83:fc:8b:
         36:56:84:5d
-----BEGIN CERTIFICATE-----
MIIDdzCCAl+gAwIBAgIQH50ldDIvejFS5QA1YJM1oDANBgkqhkiG9w0BAQsFADAW
MRQwEgYDVQQDDAt0ZWFtNDcwLW5ldDAeFw0yMTA5MTMwMjUyMTlaFw0yNDA4Mjgw
MjUyMTlaMBkxFzAVBgNVBAMMDnRlYW00NzAtc2VydmVyMIIBIjANBgkqhkiG9w0B
AQEFAAOCAQ8AMIIBCgKCAQEAvVmtcwO/huEjB0e6+c9D+jh4Gz0hHrVBKO9ooMJA
jU7qKJT6PDfXq51MKsBllSxjIeNqsEIbWtUUc4eh6x9j+JV8hHrdUePFdCCM1JGm
FnlD+DjdeRFdN0HLfgUl6iAelmCGJ3IU2FZUINYYvBQJkAmHWGVxVT69DgM2H7ab
cS4vW9QFLRSQQzrjuMllB/SqOgyV1ePMq1IT0qbvjks34hTkoZaTjknUW4xtHZiM
Dfz2CzUUUiZKXVqYDe6SXuo1Qa1eDV98Gcy09ZjEreRhN6iNXHt+eEGdfW5vBy2D
PsmOqmAHQ6Vux8Yb+xTvmHHAPpUycov5/q9dbqupg772TQIDAQABo4G9MIG6MAkG
A1UdEwQCMAAwHQYDVR0OBBYEFF379K4yeQBClhMpvwdwYCYnTMn+MFEGA1UdIwRK
MEiAFBdLl7ghUH5iO4wU8KlLwGqHumLOoRqkGDAWMRQwEgYDVQQDDAt0ZWFtNDcw
LW5ldIIUbXr/jwV5AcINe1z35ftSiFy1xA4wEwYDVR0lBAwwCgYIKwYBBQUHAwEw
CwYDVR0PBAQDAgWgMBkGA1UdEQQSMBCCDnRlYW00NzAtc2VydmVyMA0GCSqGSIb3
DQEBCwUAA4IBAQBTK5xefhz4BKLoCZcGroa7zZa3uWj6r75ymc5KCkZQRpkOD0ue
C1MmdO4DR+VN6Jgn2B6+sBBCi4TrNyEyirIvPS9ki3NMUDIvmwkYqGpgJxpAVUbO
9Wr7tOPZi/tKOphTpOJO/Bsycd6AUu3RE4Og6B3bYgmDdaqDUUI5+GwEEr/wO/c9
n4tJ4Wc81GZS0KAW3mdpmh6lGfFiZUtZDXGgk7EoftHDsv+NErWYf3W8MM0XV+Bs
qwCtxMS24PLF7YGyy/Yn3OglG814SRgFWAG1iKy3ZpHtnCe1yykFYI/+VzRKQ0OB
ixbnDOVQoVQSNIoJTcvHmjpz78+D/Is2VoRd
-----END CERTIFICATE-----
