Certificate:
    Data:
        Version: 3 (0x2)
        Serial Number:
            24:24:d9:78:dd:b3:fd:b8:79:06:c6:ff:51:59:88:b5
        Signature Algorithm: sha256WithRSAEncryption
        Issuer: CN=team123-net
        Validity
            Not Before: Sep 12 23:50:31 2021 GMT
            Not After : Aug 27 23:50:31 2024 GMT
        Subject: CN=team123-server
        Subject Public Key Info:
            Public Key Algorithm: rsaEncryption
                RSA Public-Key: (2048 bit)
                Modulus:
                    00:b5:6c:e0:5b:65:c5:88:75:9d:83:2a:03:f8:53:
                    7b:6e:ff:ce:93:18:cf:30:fd:6a:91:e2:b1:d9:0e:
                    50:19:a5:6f:e5:62:a2:23:7c:22:73:24:13:79:f1:
                    60:4e:ca:db:99:cc:cf:a5:05:b8:e0:6c:e6:c1:7d:
                    2e:c1:89:70:4e:ad:5c:35:a2:41:08:b7:83:ad:b4:
                    3c:dc:81:4b:61:50:be:66:6c:25:1e:b0:ef:32:05:
                    bd:9e:c4:9b:90:bc:6e:87:e3:3b:31:70:db:59:5a:
                    30:a1:41:48:71:6e:26:30:21:9f:e5:1d:fa:24:61:
                    f9:2b:e2:f4:75:a2:ed:24:db:85:ed:61:7b:e7:00:
                    68:a6:de:6c:91:99:ac:2f:fd:c2:3f:4d:a9:2d:22:
                    70:09:09:69:41:3e:d9:1d:be:76:d7:6d:3d:d0:74:
                    28:cb:09:e6:06:59:68:7f:45:e4:08:f7:40:31:2d:
                    dc:77:2e:aa:15:71:c5:da:fd:90:da:8c:23:8e:39:
                    1a:62:35:09:d5:6a:15:8c:f4:d1:70:51:28:61:b4:
                    fe:89:cd:ab:d8:02:38:57:1f:3f:70:b3:67:ab:c6:
                    08:1b:8a:3b:cc:ec:0d:c7:45:0a:d1:bc:b6:c5:eb:
                    8f:bf:01:fa:06:f0:2f:17:95:9a:26:ad:89:9e:42:
                    68:59
                Exponent: 65537 (0x10001)
        X509v3 extensions:
            X509v3 Basic Constraints: 
                CA:FALSE
            X509v3 Subject Key Identifier: 
                71:43:9B:B8:F3:EB:2E:3A:A1:C6:64:70:1F:6D:47:B3:DD:E9:52:B7
            X509v3 Authority Key Identifier: 
                keyid:CE:F8:E5:1E:B6:E0:D4:0C:5C:20:6A:DB:CB:94:8F:A0:AB:2E:06:43
                DirName:/CN=team123-net
                serial:77:36:10:AE:D5:8D:21:88:B5:A6:01:91:3D:CD:B6:F6:45:D1:2C:79

            X509v3 Extended Key Usage: 
                TLS Web Server Authentication
            X509v3 Key Usage: 
                Digital Signature, Key Encipherment
            X509v3 Subject Alternative Name: 
                DNS:team123-server
    Signature Algorithm: sha256WithRSAEncryption
         9e:bd:ea:ff:81:4a:a1:49:07:c0:a8:6e:4f:18:02:6e:c4:21:
         9b:22:48:91:a6:bf:10:e3:ee:2d:1b:90:2c:3f:33:5c:43:81:
         d8:fb:0a:02:76:bb:cc:ca:6b:dd:6f:43:a0:22:fd:bc:79:3a:
         aa:cc:6f:64:ab:d4:9f:20:5b:32:5f:96:04:f2:23:35:45:62:
         39:34:24:06:7f:1e:21:24:ff:5e:39:a1:cc:80:e9:d4:97:f0:
         5c:83:fa:18:26:a4:71:c2:6c:35:f9:07:8c:16:35:58:f3:40:
         19:c1:5c:59:21:51:7b:5c:27:0c:d5:3c:ed:48:e9:9f:69:5f:
         45:82:52:c5:0d:76:80:e5:49:0f:b3:c6:4b:75:fb:44:6e:3a:
         5a:9a:b2:9c:84:3e:fc:10:f2:a5:80:97:f0:7d:30:c9:98:18:
         bc:ad:f7:20:80:ec:60:7b:59:76:b3:58:74:a9:b0:39:46:64:
         f4:be:8e:c6:16:53:b5:c5:43:6f:5f:1e:54:bd:d3:f3:f4:74:
         4b:ed:72:83:59:16:08:fa:4b:9f:0b:0e:32:79:96:10:d4:b7:
         a1:2d:64:18:ba:da:24:ea:b7:75:89:dc:21:5a:fc:53:86:8c:
         a8:d3:53:11:14:cb:62:3d:7f:1d:0c:e8:3e:88:f8:5f:c6:77:
         c4:75:e4:b2
-----BEGIN CERTIFICATE-----
MIIDdzCCAl+gAwIBAgIQJCTZeN2z/bh5Bsb/UVmItTANBgkqhkiG9w0BAQsFADAW
MRQwEgYDVQQDDAt0ZWFtMTIzLW5ldDAeFw0yMTA5MTIyMzUwMzFaFw0yNDA4Mjcy
MzUwMzFaMBkxFzAVBgNVBAMMDnRlYW0xMjMtc2VydmVyMIIBIjANBgkqhkiG9w0B
AQEFAAOCAQ8AMIIBCgKCAQEAtWzgW2XFiHWdgyoD+FN7bv/OkxjPMP1qkeKx2Q5Q
GaVv5WKiI3wicyQTefFgTsrbmczPpQW44GzmwX0uwYlwTq1cNaJBCLeDrbQ83IFL
YVC+ZmwlHrDvMgW9nsSbkLxuh+M7MXDbWVowoUFIcW4mMCGf5R36JGH5K+L0daLt
JNuF7WF75wBopt5skZmsL/3CP02pLSJwCQlpQT7ZHb5212090HQoywnmBllof0Xk
CPdAMS3cdy6qFXHF2v2Q2owjjjkaYjUJ1WoVjPTRcFEoYbT+ic2r2AI4Vx8/cLNn
q8YIG4o7zOwNx0UK0by2xeuPvwH6BvAvF5WaJq2JnkJoWQIDAQABo4G9MIG6MAkG
A1UdEwQCMAAwHQYDVR0OBBYEFHFDm7jz6y46ocZkcB9tR7Pd6VK3MFEGA1UdIwRK
MEiAFM745R624NQMXCBq28uUj6CrLgZDoRqkGDAWMRQwEgYDVQQDDAt0ZWFtMTIz
LW5ldIIUdzYQrtWNIYi1pgGRPc229kXRLHkwEwYDVR0lBAwwCgYIKwYBBQUHAwEw
CwYDVR0PBAQDAgWgMBkGA1UdEQQSMBCCDnRlYW0xMjMtc2VydmVyMA0GCSqGSIb3
DQEBCwUAA4IBAQCever/gUqhSQfAqG5PGAJuxCGbIkiRpr8Q4+4tG5AsPzNcQ4HY
+woCdrvMymvdb0OgIv28eTqqzG9kq9SfIFsyX5YE8iM1RWI5NCQGfx4hJP9eOaHM
gOnUl/Bcg/oYJqRxwmw1+QeMFjVY80AZwVxZIVF7XCcM1TztSOmfaV9FglLFDXaA
5UkPs8ZLdftEbjpamrKchD78EPKlgJfwfTDJmBi8rfcggOxge1l2s1h0qbA5RmT0
vo7GFlO1xUNvXx5UvdPz9HRL7XKDWRYI+kufCw4yeZYQ1LehLWQYutok6rd1idwh
WvxThoyo01MRFMtiPX8dDOg+iPhfxnfEdeSy
-----END CERTIFICATE-----
