Certificate:
    Data:
        Version: 3 (0x2)
        Serial Number:
            02:9a:9d:b8:f4:37:b2:8c:31:8c:9f:57:77:6e:58:bc
        Signature Algorithm: sha256WithRSAEncryption
        Issuer: CN=team713-net
        Validity
            Not Before: Sep 13 04:54:49 2021 GMT
            Not After : Aug 28 04:54:49 2024 GMT
        Subject: CN=team713-server
        Subject Public Key Info:
            Public Key Algorithm: rsaEncryption
                RSA Public-Key: (2048 bit)
                Modulus:
                    00:ca:e5:ae:ea:b6:e2:86:d3:fc:76:27:4c:9c:fa:
                    f1:b5:ba:9d:49:32:51:09:08:0f:0e:60:b9:38:cf:
                    2f:83:1e:7b:4a:91:89:11:9e:9b:9e:20:f8:e4:80:
                    9a:f9:a6:99:0b:a8:0c:f9:e8:fd:9d:fe:63:66:d9:
                    04:b6:b6:bb:d1:14:28:84:f9:84:a2:f8:fd:5b:2e:
                    45:eb:5b:96:03:74:54:7d:db:2c:77:a8:92:27:b6:
                    3a:52:c1:3a:1d:7f:73:24:ad:c1:af:95:5b:7f:0f:
                    f9:47:0e:ad:16:56:ae:cb:e8:35:eb:d7:ab:44:ac:
                    cd:c3:29:e6:48:67:5f:27:c5:ee:cd:47:cd:1f:ad:
                    17:c9:00:88:0a:9a:58:60:79:7a:ec:d7:60:ff:fb:
                    b7:82:73:40:9c:77:8a:10:3d:c0:1b:43:cd:f1:4c:
                    ac:be:0b:3f:3e:59:55:82:0c:06:19:39:20:08:52:
                    90:db:82:42:ba:96:7a:05:c2:8d:66:e0:e7:41:e7:
                    4c:0c:88:a3:d4:61:11:56:4d:18:1f:05:f6:9f:99:
                    eb:50:fc:04:77:22:cc:e8:ef:0c:2b:86:8e:a2:ff:
                    db:8b:7d:09:2e:3d:4d:67:d0:c7:48:d8:49:b5:21:
                    bd:4f:65:7c:4b:dd:d9:cd:4a:5b:a7:52:ca:65:a5:
                    d1:37
                Exponent: 65537 (0x10001)
        X509v3 extensions:
            X509v3 Basic Constraints: 
                CA:FALSE
            X509v3 Subject Key Identifier: 
                20:F9:3C:72:1F:64:40:0B:EA:D7:74:8E:13:30:2E:EC:F4:CA:D4:73
            X509v3 Authority Key Identifier: 
                keyid:CB:DD:D3:2D:AF:4E:9B:9B:A6:11:F3:4A:5E:1C:4C:B8:14:33:6A:AB
                DirName:/CN=team713-net
                serial:51:E0:A2:EF:D3:BA:9A:9A:DF:98:6A:7E:26:50:81:F7:02:DB:1E:A6

            X509v3 Extended Key Usage: 
                TLS Web Server Authentication
            X509v3 Key Usage: 
                Digital Signature, Key Encipherment
            X509v3 Subject Alternative Name: 
                DNS:team713-server
    Signature Algorithm: sha256WithRSAEncryption
         55:2a:31:f2:04:b2:2a:8f:a7:f2:1c:cc:0d:5a:bd:74:ed:1e:
         d7:e7:1c:98:94:bf:8b:0d:bf:02:2d:ce:e2:de:a9:58:b6:18:
         3e:ec:e6:9e:6b:4d:e3:41:da:fa:8d:ae:18:69:51:58:f7:21:
         44:60:bc:97:45:db:5d:e4:08:40:e3:8f:05:7d:a2:c0:fa:b1:
         d8:ce:46:4b:59:af:ea:a6:b8:df:ad:b0:9c:21:cb:c2:8a:78:
         8f:62:05:60:9f:ca:fa:64:4e:fc:51:d9:17:64:58:21:58:16:
         6b:d6:ea:ba:37:74:d0:6d:ef:28:9d:97:77:4b:81:ee:f6:1c:
         4b:81:87:b2:50:f6:99:38:0d:f2:0b:48:16:b6:8a:ca:da:7a:
         8e:cc:62:af:f1:81:ed:92:c5:9c:fc:e6:f0:dc:1e:8c:a4:82:
         ad:f1:bb:52:f4:4b:8b:e8:32:42:70:42:b2:3f:1a:69:03:51:
         be:b4:10:80:b4:16:9c:cf:01:13:82:3a:08:dc:ad:2b:40:9a:
         bb:a0:f1:4c:00:11:64:62:43:e5:ad:9a:6a:0e:f4:6c:99:43:
         a2:9b:13:89:ae:c4:63:87:67:bb:eb:c4:81:2a:8f:64:7c:11:
         0b:2b:e9:cb:fb:13:66:53:7a:1f:df:03:80:f8:b7:05:42:6f:
         22:1d:e3:23
-----BEGIN CERTIFICATE-----
MIIDdzCCAl+gAwIBAgIQApqduPQ3sowxjJ9Xd25YvDANBgkqhkiG9w0BAQsFADAW
MRQwEgYDVQQDDAt0ZWFtNzEzLW5ldDAeFw0yMTA5MTMwNDU0NDlaFw0yNDA4Mjgw
NDU0NDlaMBkxFzAVBgNVBAMMDnRlYW03MTMtc2VydmVyMIIBIjANBgkqhkiG9w0B
AQEFAAOCAQ8AMIIBCgKCAQEAyuWu6rbihtP8didMnPrxtbqdSTJRCQgPDmC5OM8v
gx57SpGJEZ6bniD45ICa+aaZC6gM+ej9nf5jZtkEtra70RQohPmEovj9Wy5F61uW
A3RUfdssd6iSJ7Y6UsE6HX9zJK3Br5Vbfw/5Rw6tFlauy+g169erRKzNwynmSGdf
J8XuzUfNH60XyQCICppYYHl67Ndg//u3gnNAnHeKED3AG0PN8Uysvgs/PllVggwG
GTkgCFKQ24JCupZ6BcKNZuDnQedMDIij1GERVk0YHwX2n5nrUPwEdyLM6O8MK4aO
ov/bi30JLj1NZ9DHSNhJtSG9T2V8S93ZzUpbp1LKZaXRNwIDAQABo4G9MIG6MAkG
A1UdEwQCMAAwHQYDVR0OBBYEFCD5PHIfZEAL6td0jhMwLuz0ytRzMFEGA1UdIwRK
MEiAFMvd0y2vTpubphHzSl4cTLgUM2qroRqkGDAWMRQwEgYDVQQDDAt0ZWFtNzEz
LW5ldIIUUeCi79O6mprfmGp+JlCB9wLbHqYwEwYDVR0lBAwwCgYIKwYBBQUHAwEw
CwYDVR0PBAQDAgWgMBkGA1UdEQQSMBCCDnRlYW03MTMtc2VydmVyMA0GCSqGSIb3
DQEBCwUAA4IBAQBVKjHyBLIqj6fyHMwNWr107R7X5xyYlL+LDb8CLc7i3qlYthg+
7Oaea03jQdr6ja4YaVFY9yFEYLyXRdtd5AhA448FfaLA+rHYzkZLWa/qprjfrbCc
IcvCiniPYgVgn8r6ZE78UdkXZFghWBZr1uq6N3TQbe8onZd3S4Hu9hxLgYeyUPaZ
OA3yC0gWtorK2nqOzGKv8YHtksWc/Obw3B6MpIKt8btS9EuL6DJCcEKyPxppA1G+
tBCAtBaczwETgjoI3K0rQJq7oPFMABFkYkPlrZpqDvRsmUOimxOJrsRjh2e768SB
Ko9kfBELK+nL+xNmU3of3wOA+LcFQm8iHeMj
-----END CERTIFICATE-----
