Certificate:
    Data:
        Version: 3 (0x2)
        Serial Number:
            0e:9a:97:31:00:db:04:72:8b:bc:f1:37:76:ad:99:66
        Signature Algorithm: sha256WithRSAEncryption
        Issuer: CN=team236-net
        Validity
            Not Before: Sep 13 00:43:32 2021 GMT
            Not After : Aug 28 00:43:32 2024 GMT
        Subject: CN=team236-client
        Subject Public Key Info:
            Public Key Algorithm: rsaEncryption
                RSA Public-Key: (2048 bit)
                Modulus:
                    00:b8:8b:c3:41:e7:57:a6:ad:a9:ba:b5:c9:c1:5d:
                    cb:be:f1:84:7a:97:f1:f7:af:72:7a:92:72:ab:c7:
                    c6:8d:2a:7a:e5:3c:d7:90:47:cc:c7:ef:2b:a4:8e:
                    59:50:7f:6c:e6:59:68:4d:f7:5a:86:7b:58:e0:7a:
                    3b:38:4f:a8:d7:38:04:f0:b6:e7:51:ab:88:37:cd:
                    5f:12:a5:db:b1:77:6f:4b:22:63:57:c7:29:1c:43:
                    66:5e:31:c6:3c:d5:77:2d:ef:60:d3:7f:e6:85:f3:
                    50:c0:b0:30:38:41:4d:10:84:d3:c2:9d:0a:da:79:
                    95:07:c2:1a:ba:92:fa:ef:70:a8:d7:e8:9f:c9:8c:
                    31:7d:39:aa:c2:a9:04:0f:ed:84:88:d2:29:72:69:
                    ff:b5:dd:b5:9c:91:87:42:39:15:92:c6:40:db:6b:
                    26:b2:83:8e:17:94:c2:c7:66:e3:26:71:89:ed:07:
                    07:72:25:19:fb:59:12:e2:61:7e:71:b6:c0:cb:d7:
                    0d:88:c9:29:18:8e:10:fa:a6:25:10:56:4e:f5:b2:
                    bc:8b:be:ba:78:88:e1:35:55:ea:31:5f:5c:0c:bd:
                    9c:f0:68:9a:06:b5:58:c0:0d:d6:ff:a2:a6:9a:11:
                    f6:c7:fa:f8:05:7d:07:6e:4c:6d:ff:2d:e6:76:f9:
                    07:53
                Exponent: 65537 (0x10001)
        X509v3 extensions:
            X509v3 Basic Constraints: 
                CA:FALSE
            X509v3 Subject Key Identifier: 
                BE:F4:85:69:01:4E:D8:CE:52:25:E3:13:E8:12:EF:E5:2F:D3:51:85
            X509v3 Authority Key Identifier: 
                keyid:5E:EE:08:5C:E3:3D:D3:BE:33:5B:FC:5A:8A:57:19:6F:8A:25:57:EA
                DirName:/CN=team236-net
                serial:52:5F:A7:5D:03:D0:8B:0E:17:D9:D1:A3:B1:06:B8:E8:F2:AD:C6:F3

            X509v3 Extended Key Usage: 
                TLS Web Client Authentication
            X509v3 Key Usage: 
                Digital Signature
    Signature Algorithm: sha256WithRSAEncryption
         48:99:56:58:0b:24:97:7c:e4:de:95:eb:ab:35:d2:0a:80:5a:
         e7:4d:36:3e:c2:e7:6d:21:1b:24:9e:10:35:7f:b9:a5:36:5e:
         18:d4:93:42:7f:f3:65:03:29:e8:ba:74:9a:c4:da:ad:39:ea:
         d5:0d:27:26:af:2b:cc:85:bf:c7:9f:6e:11:64:aa:63:d6:c1:
         83:ae:df:c9:6e:f3:eb:46:85:08:8f:70:07:50:f5:94:c1:87:
         6d:a3:59:d1:e5:cd:c9:d0:eb:eb:f0:a5:2a:9d:0f:a5:36:2e:
         9b:39:71:0f:1d:34:42:e8:10:1c:92:f6:97:53:e9:ca:cc:e6:
         e0:23:5f:9e:6d:14:d6:65:a5:c8:89:2a:77:1e:f0:95:a3:8b:
         02:b1:14:14:da:14:62:a8:ae:5e:f0:b2:52:bc:57:1c:f3:84:
         3d:9d:1f:77:c8:f2:83:0c:6a:ab:bf:0b:2d:49:12:33:ba:21:
         2f:4d:6f:44:18:cd:94:c5:46:da:2b:1f:d9:de:b2:6e:57:c3:
         0b:1c:21:66:1d:21:b2:c1:5d:58:cc:1c:27:00:95:de:48:df:
         f8:9d:8d:dc:53:08:06:b1:77:c9:a7:84:90:ba:d5:38:f1:d1:
         81:c7:86:2a:b1:c0:09:32:97:73:b4:2f:d5:a1:8d:8d:fc:02:
         19:34:b9:07
-----BEGIN CERTIFICATE-----
MIIDXDCCAkSgAwIBAgIQDpqXMQDbBHKLvPE3dq2ZZjANBgkqhkiG9w0BAQsFADAW
MRQwEgYDVQQDDAt0ZWFtMjM2LW5ldDAeFw0yMTA5MTMwMDQzMzJaFw0yNDA4Mjgw
MDQzMzJaMBkxFzAVBgNVBAMMDnRlYW0yMzYtY2xpZW50MIIBIjANBgkqhkiG9w0B
AQEFAAOCAQ8AMIIBCgKCAQEAuIvDQedXpq2purXJwV3LvvGEepfx969yepJyq8fG
jSp65TzXkEfMx+8rpI5ZUH9s5lloTfdahntY4Ho7OE+o1zgE8LbnUauIN81fEqXb
sXdvSyJjV8cpHENmXjHGPNV3Le9g03/mhfNQwLAwOEFNEITTwp0K2nmVB8IaupL6
73Co1+ifyYwxfTmqwqkED+2EiNIpcmn/td21nJGHQjkVksZA22smsoOOF5TCx2bj
JnGJ7QcHciUZ+1kS4mF+cbbAy9cNiMkpGI4Q+qYlEFZO9bK8i766eIjhNVXqMV9c
DL2c8GiaBrVYwA3W/6KmmhH2x/r4BX0Hbkxt/y3mdvkHUwIDAQABo4GiMIGfMAkG
A1UdEwQCMAAwHQYDVR0OBBYEFL70hWkBTtjOUiXjE+gS7+Uv01GFMFEGA1UdIwRK
MEiAFF7uCFzjPdO+M1v8WopXGW+KJVfqoRqkGDAWMRQwEgYDVQQDDAt0ZWFtMjM2
LW5ldIIUUl+nXQPQiw4X2dGjsQa46PKtxvMwEwYDVR0lBAwwCgYIKwYBBQUHAwIw
CwYDVR0PBAQDAgeAMA0GCSqGSIb3DQEBCwUAA4IBAQBImVZYCySXfOTeleurNdIK
gFrnTTY+wudtIRsknhA1f7mlNl4Y1JNCf/NlAynounSaxNqtOerVDScmryvMhb/H
n24RZKpj1sGDrt/JbvPrRoUIj3AHUPWUwYdto1nR5c3J0Ovr8KUqnQ+lNi6bOXEP
HTRC6BAckvaXU+nKzObgI1+ebRTWZaXIiSp3HvCVo4sCsRQU2hRiqK5e8LJSvFcc
84Q9nR93yPKDDGqrvwstSRIzuiEvTW9EGM2UxUbaKx/Z3rJuV8MLHCFmHSGywV1Y
zBwnAJXeSN/4nY3cUwgGsXfJp4SQutU48dGBx4YqscAJMpdztC/VoY2N/AIZNLkH
-----END CERTIFICATE-----
