Certificate:
    Data:
        Version: 3 (0x2)
        Serial Number:
            45:e0:f2:39:9c:56:ec:6c:f4:d3:2b:08:4f:3d:6a:ca
        Signature Algorithm: sha256WithRSAEncryption
        Issuer: CN=team81-net
        Validity
            Not Before: Sep 12 23:25:49 2021 GMT
            Not After : Aug 27 23:25:49 2024 GMT
        Subject: CN=team81-client
        Subject Public Key Info:
            Public Key Algorithm: rsaEncryption
                RSA Public-Key: (2048 bit)
                Modulus:
                    00:e5:9d:ba:50:4a:7b:18:a8:91:cb:78:a3:1a:f8:
                    05:e9:9c:07:9d:cb:33:51:d8:cd:ed:da:0e:ac:02:
                    84:2a:d8:08:77:bc:32:9f:b2:da:89:a5:7a:ce:80:
                    6a:60:70:d4:5d:61:a0:4e:18:ee:ad:0a:09:8d:41:
                    e4:f2:be:39:13:13:44:4a:2f:b4:d5:64:d0:2c:4d:
                    a2:e0:af:11:96:10:1f:b1:11:da:63:21:42:b4:65:
                    c9:d7:00:3c:b4:5f:0b:81:c8:b2:b7:53:f6:e1:c8:
                    cc:ce:f4:ff:03:42:a2:4b:09:48:4c:57:34:39:95:
                    b2:4a:0b:5f:89:89:a9:9c:d6:2d:c1:e5:65:be:31:
                    fb:41:fa:79:3a:c5:ef:b9:b8:fd:d4:cf:2f:8b:b1:
                    13:65:2f:ab:d0:5a:f5:26:f7:b7:40:fa:a5:7a:72:
                    ec:09:bf:0b:80:0d:d0:e5:24:a4:3a:96:d7:6f:15:
                    80:ab:2f:9d:91:89:04:b1:2d:72:95:77:c5:e9:34:
                    2e:e2:67:d9:a7:74:c0:8d:99:98:bf:7f:73:56:39:
                    ba:17:15:c6:24:bb:89:b6:23:d1:8a:8e:9c:a2:74:
                    d7:1d:f7:57:58:ba:16:a8:e6:64:90:62:43:7b:be:
                    77:5b:e1:c4:e2:88:2a:c6:64:48:ba:46:de:98:6b:
                    7e:35
                Exponent: 65537 (0x10001)
        X509v3 extensions:
            X509v3 Basic Constraints: 
                CA:FALSE
            X509v3 Subject Key Identifier: 
                18:ED:1E:BB:64:A3:E6:E9:EC:E7:E3:B2:04:53:F2:53:53:30:B5:63
            X509v3 Authority Key Identifier: 
                keyid:1F:A1:D7:3C:A4:52:98:0A:FE:02:7E:FC:E2:FB:89:72:67:91:A9:66
                DirName:/CN=team81-net
                serial:28:F6:03:5B:47:16:E8:6A:5F:CB:5C:85:26:A2:4C:3F:CE:66:14:4E

            X509v3 Extended Key Usage: 
                TLS Web Client Authentication
            X509v3 Key Usage: 
                Digital Signature
    Signature Algorithm: sha256WithRSAEncryption
         74:c6:d4:5e:ba:1b:75:8b:2c:61:98:04:63:56:9b:56:a0:fe:
         0c:0c:5c:61:6b:56:3d:50:ff:55:b2:d9:e3:8d:d3:b2:f4:01:
         aa:34:0c:02:bc:c3:3a:4b:7f:08:6f:04:fc:66:c9:39:b3:30:
         71:68:80:62:66:32:f9:ac:d1:6c:28:23:65:b7:19:73:ff:32:
         da:fb:e0:55:be:27:77:3d:b3:0d:8a:be:c7:79:cc:d6:f5:5e:
         ba:fe:81:aa:5c:8b:b7:1d:0d:8f:45:d1:07:b3:3b:15:6e:71:
         44:c7:7f:d0:f7:ad:73:54:10:8a:07:7c:b7:00:7e:40:72:7e:
         4a:9d:8f:2f:b7:d5:b2:1b:3f:ad:b0:e6:a3:a1:f2:5d:00:eb:
         a7:7e:cb:99:50:91:10:18:e1:3e:cb:15:5e:f1:40:d2:b3:94:
         75:dd:53:08:53:04:5d:d2:74:c9:72:97:6d:3f:ca:4d:7b:04:
         a9:c9:2b:02:c2:84:c3:46:6d:3e:36:f3:be:95:11:db:bf:22:
         dc:9c:e5:82:e0:57:f8:64:ce:3a:6b:01:ba:fb:b0:35:3a:13:
         4b:b3:39:e3:c0:96:1b:97:21:98:2f:76:54:41:3c:34:71:06:
         bf:3a:fb:fe:5c:8b:0b:58:72:c3:1f:fa:85:da:92:dc:9c:76:
         87:0a:b5:d4
-----BEGIN CERTIFICATE-----
MIIDWTCCAkGgAwIBAgIQReDyOZxW7Gz00ysITz1qyjANBgkqhkiG9w0BAQsFADAV
MRMwEQYDVQQDDAp0ZWFtODEtbmV0MB4XDTIxMDkxMjIzMjU0OVoXDTI0MDgyNzIz
MjU0OVowGDEWMBQGA1UEAwwNdGVhbTgxLWNsaWVudDCCASIwDQYJKoZIhvcNAQEB
BQADggEPADCCAQoCggEBAOWdulBKexiokct4oxr4BemcB53LM1HYze3aDqwChCrY
CHe8Mp+y2omles6AamBw1F1hoE4Y7q0KCY1B5PK+ORMTREovtNVk0CxNouCvEZYQ
H7ER2mMhQrRlydcAPLRfC4HIsrdT9uHIzM70/wNCoksJSExXNDmVskoLX4mJqZzW
LcHlZb4x+0H6eTrF77m4/dTPL4uxE2Uvq9Ba9Sb3t0D6pXpy7Am/C4AN0OUkpDqW
128VgKsvnZGJBLEtcpV3xek0LuJn2ad0wI2ZmL9/c1Y5uhcVxiS7ibYj0YqOnKJ0
1x33V1i6FqjmZJBiQ3u+d1vhxOKIKsZkSLpG3phrfjUCAwEAAaOBoTCBnjAJBgNV
HRMEAjAAMB0GA1UdDgQWBBQY7R67ZKPm6ezn47IEU/JTUzC1YzBQBgNVHSMESTBH
gBQfodc8pFKYCv4Cfvzi+4lyZ5GpZqEZpBcwFTETMBEGA1UEAwwKdGVhbTgxLW5l
dIIUKPYDW0cW6Gpfy1yFJqJMP85mFE4wEwYDVR0lBAwwCgYIKwYBBQUHAwIwCwYD
VR0PBAQDAgeAMA0GCSqGSIb3DQEBCwUAA4IBAQB0xtReuht1iyxhmARjVptWoP4M
DFxha1Y9UP9VstnjjdOy9AGqNAwCvMM6S38IbwT8Zsk5szBxaIBiZjL5rNFsKCNl
txlz/zLa++BVvid3PbMNir7HeczW9V66/oGqXIu3HQ2PRdEHszsVbnFEx3/Q961z
VBCKB3y3AH5Acn5KnY8vt9WyGz+tsOajofJdAOunfsuZUJEQGOE+yxVe8UDSs5R1
3VMIUwRd0nTJcpdtP8pNewSpySsCwoTDRm0+NvO+lRHbvyLcnOWC4Ff4ZM46awG6
+7A1OhNLsznjwJYblyGYL3ZUQTw0cQa/Ovv+XIsLWHLDH/qF2pLcnHaHCrXU
-----END CERTIFICATE-----
