Certificate:
    Data:
        Version: 3 (0x2)
        Serial Number:
            0e:4d:a0:d5:65:9e:cb:fc:6b:ec:d6:06:5c:0d:c7:0b
        Signature Algorithm: sha256WithRSAEncryption
        Issuer: CN=team200-net
        Validity
            Not Before: Sep 13 00:36:54 2021 GMT
            Not After : Aug 28 00:36:54 2024 GMT
        Subject: CN=team200-client
        Subject Public Key Info:
            Public Key Algorithm: rsaEncryption
                RSA Public-Key: (2048 bit)
                Modulus:
                    00:c1:18:ba:64:69:88:0d:fa:dc:e6:87:e4:1c:1b:
                    4f:42:6b:89:7d:3e:50:f4:8f:77:2b:2d:fd:77:47:
                    29:f0:4c:9e:9e:ab:3b:af:51:39:a9:9e:a5:ce:48:
                    ac:72:e2:1d:66:a8:d7:4b:b0:97:e4:db:26:da:32:
                    f7:62:92:56:8a:39:4c:ab:e7:e1:3b:e3:f2:e1:f4:
                    01:3a:44:1d:86:a9:af:26:a1:48:86:45:54:78:20:
                    2b:62:5d:66:71:a1:3c:37:27:a6:f1:b6:32:b6:cd:
                    7d:5c:5b:1f:3f:7a:c3:7a:49:8d:4e:8a:f2:5c:5a:
                    5b:d9:9b:32:b7:cb:35:6d:8c:6b:8b:b6:57:96:0a:
                    98:38:58:ae:af:0e:74:81:31:29:d5:fe:13:6c:cf:
                    13:70:2d:f7:4d:97:44:9c:9f:7d:88:94:1d:09:1e:
                    b0:7f:dd:a1:9e:ae:4b:ca:90:64:8c:59:42:8e:5e:
                    8e:76:28:94:f4:6f:ec:e9:e5:02:85:6f:95:6f:80:
                    68:0d:17:a9:6a:d3:8c:37:e5:dc:f7:b7:63:f2:33:
                    4d:89:1f:eb:3a:c2:72:1d:c5:8e:be:bc:90:70:95:
                    28:78:31:33:80:30:04:84:fc:5c:ee:2e:15:28:d4:
                    b8:14:ab:57:4d:0f:95:f4:d9:8c:29:e2:f2:8f:a7:
                    15:eb
                Exponent: 65537 (0x10001)
        X509v3 extensions:
            X509v3 Basic Constraints: 
                CA:FALSE
            X509v3 Subject Key Identifier: 
                0A:94:7E:97:FB:F9:B0:3C:07:BF:16:21:57:5F:D1:D7:12:DA:23:43
            X509v3 Authority Key Identifier: 
                keyid:69:4B:27:AA:07:54:A8:46:E1:81:53:66:F7:BD:15:EF:96:EC:97:30
                DirName:/CN=team200-net
                serial:3E:50:26:55:55:88:06:8C:6F:00:1E:E7:D2:BF:4B:A1:38:01:64:20

            X509v3 Extended Key Usage: 
                TLS Web Client Authentication
            X509v3 Key Usage: 
                Digital Signature
    Signature Algorithm: sha256WithRSAEncryption
         77:c1:ea:45:89:b7:b6:b1:64:d9:6d:54:11:7e:ca:71:28:8c:
         e5:19:f2:45:f4:e3:0a:af:ee:71:3a:58:e7:76:69:10:9a:ef:
         fc:bb:35:fe:2f:b3:14:9c:06:bf:1f:f4:09:71:73:8a:9f:3b:
         ea:51:83:11:3c:02:2c:19:5a:78:8f:dd:03:1b:29:44:6b:51:
         fc:60:18:83:69:d3:01:f1:1b:d9:be:b4:ff:ff:aa:33:62:46:
         24:f2:54:ec:45:de:1d:93:33:c4:6c:02:6f:c7:eb:93:c1:69:
         bd:1a:e9:11:de:a2:0c:c5:94:d8:97:d4:59:02:36:ff:9c:7d:
         41:6c:01:9d:4c:da:3b:f9:c4:16:46:2e:2b:53:ee:0c:97:7f:
         ea:27:2d:99:f7:be:3b:7d:b0:68:f5:45:e1:42:62:4b:4e:c2:
         da:94:20:a0:34:1e:1d:b2:e5:15:32:ac:cd:b3:f0:a1:fa:83:
         a9:8b:ce:f9:3e:32:4c:bb:27:30:5c:59:d0:1d:b2:0f:60:1d:
         33:42:ae:da:50:d1:65:26:18:d9:aa:05:0b:d7:13:f9:81:2a:
         be:22:7d:d8:08:52:b1:60:49:3f:0e:ef:be:e2:9f:91:a2:ce:
         6b:65:49:62:5a:27:f4:8f:f9:f3:05:ee:66:b7:05:94:7f:a8:
         82:91:35:67
-----BEGIN CERTIFICATE-----
MIIDXDCCAkSgAwIBAgIQDk2g1WWey/xr7NYGXA3HCzANBgkqhkiG9w0BAQsFADAW
MRQwEgYDVQQDDAt0ZWFtMjAwLW5ldDAeFw0yMTA5MTMwMDM2NTRaFw0yNDA4Mjgw
MDM2NTRaMBkxFzAVBgNVBAMMDnRlYW0yMDAtY2xpZW50MIIBIjANBgkqhkiG9w0B
AQEFAAOCAQ8AMIIBCgKCAQEAwRi6ZGmIDfrc5ofkHBtPQmuJfT5Q9I93Ky39d0cp
8Eyenqs7r1E5qZ6lzkiscuIdZqjXS7CX5Nsm2jL3YpJWijlMq+fhO+Py4fQBOkQd
hqmvJqFIhkVUeCArYl1mcaE8Nyem8bYyts19XFsfP3rDekmNToryXFpb2Zsyt8s1
bYxri7ZXlgqYOFiurw50gTEp1f4TbM8TcC33TZdEnJ99iJQdCR6wf92hnq5LypBk
jFlCjl6OdiiU9G/s6eUChW+Vb4BoDRepatOMN+Xc97dj8jNNiR/rOsJyHcWOvryQ
cJUoeDEzgDAEhPxc7i4VKNS4FKtXTQ+V9NmMKeLyj6cV6wIDAQABo4GiMIGfMAkG
A1UdEwQCMAAwHQYDVR0OBBYEFAqUfpf7+bA8B78WIVdf0dcS2iNDMFEGA1UdIwRK
MEiAFGlLJ6oHVKhG4YFTZve9Fe+W7JcwoRqkGDAWMRQwEgYDVQQDDAt0ZWFtMjAw
LW5ldIIUPlAmVVWIBoxvAB7n0r9LoTgBZCAwEwYDVR0lBAwwCgYIKwYBBQUHAwIw
CwYDVR0PBAQDAgeAMA0GCSqGSIb3DQEBCwUAA4IBAQB3wepFibe2sWTZbVQRfspx
KIzlGfJF9OMKr+5xOljndmkQmu/8uzX+L7MUnAa/H/QJcXOKnzvqUYMRPAIsGVp4
j90DGylEa1H8YBiDadMB8RvZvrT//6ozYkYk8lTsRd4dkzPEbAJvx+uTwWm9GukR
3qIMxZTYl9RZAjb/nH1BbAGdTNo7+cQWRi4rU+4Ml3/qJy2Z9747fbBo9UXhQmJL
TsLalCCgNB4dsuUVMqzNs/Ch+oOpi875PjJMuycwXFnQHbIPYB0zQq7aUNFlJhjZ
qgUL1xP5gSq+In3YCFKxYEk/Du++4p+Ros5rZUliWif0j/nzBe5mtwWUf6iCkTVn
-----END CERTIFICATE-----
