Certificate:
    Data:
        Version: 3 (0x2)
        Serial Number:
            37:df:e5:5b:ed:d5:84:e2:b6:10:5d:cf:7e:39:c3:7a
        Signature Algorithm: sha256WithRSAEncryption
        Issuer: CN=team278-net
        Validity
            Not Before: Sep 13 01:18:45 2021 GMT
            Not After : Aug 28 01:18:45 2024 GMT
        Subject: CN=team278-server
        Subject Public Key Info:
            Public Key Algorithm: rsaEncryption
                RSA Public-Key: (2048 bit)
                Modulus:
                    00:ea:37:fa:4a:da:40:33:50:a6:e8:cf:49:c7:25:
                    90:b9:e0:34:60:90:5d:db:b9:d5:47:cb:5b:a7:bb:
                    81:8f:e0:fb:d8:f7:2a:54:39:5a:c3:46:bf:27:a7:
                    44:3c:7d:c5:73:f2:16:a9:85:01:3d:71:e0:06:d3:
                    be:0b:41:96:e9:fc:d8:e0:56:39:74:21:6f:bc:4f:
                    2c:70:88:a1:08:16:78:6c:36:15:53:1a:ee:bb:2e:
                    8f:30:f9:19:93:cd:dc:cc:31:fa:a8:9c:e4:c3:54:
                    c3:30:f0:7a:ac:64:78:88:18:bc:92:86:c5:f4:5c:
                    9f:6a:06:b9:30:74:46:bb:97:22:26:16:94:74:46:
                    d1:69:78:a9:7e:55:fe:ed:03:c7:62:f6:36:ce:bd:
                    70:5f:5b:a1:a0:b2:f7:23:3d:53:88:1d:7e:3d:d0:
                    db:85:3b:fe:6a:65:5e:2c:34:d5:40:c9:9a:99:cf:
                    e3:bd:55:40:b2:a9:4f:d5:04:a8:33:b7:ce:f8:48:
                    26:28:1b:a6:0f:c7:6a:bc:89:db:96:59:21:ec:1f:
                    a5:83:dd:56:09:6f:07:06:87:ef:75:47:e8:43:78:
                    55:20:24:6c:d5:88:b2:1b:54:b3:a5:a2:fe:34:92:
                    f9:3c:b8:24:28:28:14:ea:f1:60:ec:d5:4c:1c:a1:
                    19:37
                Exponent: 65537 (0x10001)
        X509v3 extensions:
            X509v3 Basic Constraints: 
                CA:FALSE
            X509v3 Subject Key Identifier: 
                60:FE:3F:05:4B:9E:76:CC:85:02:91:3A:E2:2E:E1:5F:C5:66:C0:33
            X509v3 Authority Key Identifier: 
                keyid:BC:FB:20:7C:0E:4C:C0:01:6D:76:81:16:DE:9B:5B:38:03:F6:19:49
                DirName:/CN=team278-net
                serial:1F:E4:66:63:7A:22:BC:9B:06:74:03:9A:AC:9B:3D:98:B4:3A:D6:86

            X509v3 Extended Key Usage: 
                TLS Web Server Authentication
            X509v3 Key Usage: 
                Digital Signature, Key Encipherment
            X509v3 Subject Alternative Name: 
                DNS:team278-server
    Signature Algorithm: sha256WithRSAEncryption
         bb:6c:90:4d:d6:9e:13:af:da:9a:65:0c:02:3f:23:72:9f:6b:
         a2:fd:f6:71:27:cf:93:65:7f:89:6c:ec:76:6c:43:4c:59:fe:
         a8:42:1c:3b:45:04:3f:1f:cd:e7:77:55:9f:a0:d7:6b:cf:6a:
         bd:0e:72:00:9e:d3:58:6e:a4:80:74:80:f7:18:64:7f:fc:f7:
         f6:df:bc:bc:3d:7a:08:e8:23:69:7f:68:0d:2d:35:dc:59:a9:
         f9:62:49:7e:73:c5:66:eb:b9:0a:31:fb:5a:ad:1e:4c:32:6e:
         00:3f:0c:7d:32:24:09:1d:db:c9:03:0f:36:bb:ed:6f:12:09:
         c2:34:a1:f7:9f:de:a8:86:37:b7:8b:3a:43:4e:8b:82:fe:b1:
         c6:d6:99:71:e8:37:aa:3a:1f:63:55:79:14:2d:f1:ca:c0:79:
         32:27:ae:b0:73:1a:db:5c:a5:9b:c0:8c:46:bf:6b:7a:ec:3b:
         7a:ca:be:0f:83:c3:bf:7f:d7:67:46:14:44:64:6c:65:21:c1:
         6a:1a:05:30:39:6d:95:e7:f2:d6:5e:64:fd:68:59:10:3c:5f:
         21:99:66:d8:60:2c:ea:05:e1:3f:e7:0b:4a:9e:7d:99:f4:de:
         bf:5b:92:f7:1e:fd:a3:f2:70:84:04:c3:e6:b7:9b:bc:cc:dc:
         3f:09:b2:2e
-----BEGIN CERTIFICATE-----
MIIDdzCCAl+gAwIBAgIQN9/lW+3VhOK2EF3PfjnDejANBgkqhkiG9w0BAQsFADAW
MRQwEgYDVQQDDAt0ZWFtMjc4LW5ldDAeFw0yMTA5MTMwMTE4NDVaFw0yNDA4Mjgw
MTE4NDVaMBkxFzAVBgNVBAMMDnRlYW0yNzgtc2VydmVyMIIBIjANBgkqhkiG9w0B
AQEFAAOCAQ8AMIIBCgKCAQEA6jf6StpAM1Cm6M9JxyWQueA0YJBd27nVR8tbp7uB
j+D72PcqVDlaw0a/J6dEPH3Fc/IWqYUBPXHgBtO+C0GW6fzY4FY5dCFvvE8scIih
CBZ4bDYVUxruuy6PMPkZk83czDH6qJzkw1TDMPB6rGR4iBi8kobF9Fyfaga5MHRG
u5ciJhaUdEbRaXipflX+7QPHYvY2zr1wX1uhoLL3Iz1TiB1+PdDbhTv+amVeLDTV
QMmamc/jvVVAsqlP1QSoM7fO+EgmKBumD8dqvInbllkh7B+lg91WCW8HBofvdUfo
Q3hVICRs1YiyG1SzpaL+NJL5PLgkKCgU6vFg7NVMHKEZNwIDAQABo4G9MIG6MAkG
A1UdEwQCMAAwHQYDVR0OBBYEFGD+PwVLnnbMhQKROuIu4V/FZsAzMFEGA1UdIwRK
MEiAFLz7IHwOTMABbXaBFt6bWzgD9hlJoRqkGDAWMRQwEgYDVQQDDAt0ZWFtMjc4
LW5ldIIUH+RmY3oivJsGdAOarJs9mLQ61oYwEwYDVR0lBAwwCgYIKwYBBQUHAwEw
CwYDVR0PBAQDAgWgMBkGA1UdEQQSMBCCDnRlYW0yNzgtc2VydmVyMA0GCSqGSIb3
DQEBCwUAA4IBAQC7bJBN1p4Tr9qaZQwCPyNyn2ui/fZxJ8+TZX+JbOx2bENMWf6o
Qhw7RQQ/H83nd1WfoNdrz2q9DnIAntNYbqSAdID3GGR//Pf237y8PXoI6CNpf2gN
LTXcWan5Ykl+c8Vm67kKMftarR5MMm4APwx9MiQJHdvJAw82u+1vEgnCNKH3n96o
hje3izpDTouC/rHG1plx6DeqOh9jVXkULfHKwHkyJ66wcxrbXKWbwIxGv2t67Dt6
yr4Pg8O/f9dnRhREZGxlIcFqGgUwOW2V5/LWXmT9aFkQPF8hmWbYYCzqBeE/5wtK
nn2Z9N6/W5L3Hv2j8nCEBMPmt5u8zNw/CbIu
-----END CERTIFICATE-----
