Certificate:
    Data:
        Version: 3 (0x2)
        Serial Number:
            81:70:0a:2f:03:04:30:08:29:8b:4c:d0:ac:b9:9b:8e
        Signature Algorithm: sha256WithRSAEncryption
        Issuer: CN=team246-net
        Validity
            Not Before: Sep 13 00:59:56 2021 GMT
            Not After : Aug 28 00:59:56 2024 GMT
        Subject: CN=team246-client
        Subject Public Key Info:
            Public Key Algorithm: rsaEncryption
                RSA Public-Key: (2048 bit)
                Modulus:
                    00:bf:01:2e:e1:ce:29:53:8d:10:48:25:f9:98:85:
                    1f:56:06:7a:26:fc:2a:1f:4a:49:51:61:45:6b:84:
                    5d:fb:c1:4a:40:dd:74:81:d8:eb:18:b8:76:4e:f2:
                    e1:57:87:5e:a2:03:6b:67:95:64:a8:a3:c7:d4:06:
                    8f:32:02:0f:4f:90:09:67:4c:bc:2d:18:8c:00:d0:
                    3b:1d:b4:fd:d6:86:44:15:a8:d0:86:11:6e:d4:7d:
                    b3:cc:2d:23:88:d7:0b:e6:78:9a:e4:64:d4:3b:98:
                    2d:4a:bc:d1:76:e5:77:b5:e0:4a:66:f2:33:8c:2d:
                    b0:10:0d:08:9c:c8:3f:06:0b:05:3e:34:be:86:62:
                    a9:e8:c3:54:1d:2a:5c:85:3e:fe:0b:6d:e2:99:01:
                    b5:e2:68:01:6d:f8:3b:03:fa:f5:3c:ef:9f:80:c4:
                    2d:37:f9:e0:d6:56:65:ff:18:ce:48:6b:47:cf:09:
                    d8:bb:f1:1c:7e:cd:4a:17:d4:82:12:0f:7e:d6:08:
                    f4:de:b1:ea:18:97:3b:18:33:e4:9a:f0:30:1f:0d:
                    bd:c5:cb:50:17:7f:52:e6:75:6c:44:bd:d4:84:52:
                    35:78:53:08:66:83:b5:03:4f:9c:45:c5:43:ca:09:
                    b3:f4:6f:f7:3a:0b:9d:76:c8:c2:21:ab:2b:5e:c5:
                    d4:0b
                Exponent: 65537 (0x10001)
        X509v3 extensions:
            X509v3 Basic Constraints: 
                CA:FALSE
            X509v3 Subject Key Identifier: 
                3F:7B:8D:E4:2D:3F:6B:3E:FE:B5:F1:FD:41:6B:8B:44:B1:91:FF:0F
            X509v3 Authority Key Identifier: 
                keyid:F4:FE:20:88:6F:5F:69:1B:B6:CB:08:69:FC:33:B2:63:0E:E1:AE:2B
                DirName:/CN=team246-net
                serial:6B:C0:51:04:05:BB:8F:E0:90:A6:B4:44:EC:3C:23:5B:EB:03:15:CD

            X509v3 Extended Key Usage: 
                TLS Web Client Authentication
            X509v3 Key Usage: 
                Digital Signature
    Signature Algorithm: sha256WithRSAEncryption
         47:4a:10:e1:44:f6:73:dc:70:cc:d5:75:e4:33:ca:2e:a3:b0:
         d3:83:69:c5:2b:b8:b4:bb:73:65:98:83:18:0b:3d:0e:ca:4e:
         2c:8b:5a:d3:13:c5:43:f9:42:74:22:95:98:29:46:54:8f:d1:
         b7:a9:b4:1e:eb:0b:c8:29:12:47:de:98:7b:59:44:e5:e4:39:
         f1:38:7c:1b:10:b3:37:e3:48:06:7b:43:fc:fa:7d:14:86:5d:
         1c:40:88:77:bf:a5:ec:67:e2:2d:27:c6:8b:2f:7c:a4:76:e4:
         80:bc:75:7d:c3:2a:31:a9:03:2d:3e:1b:0a:7c:d2:f4:b6:c8:
         9c:26:2c:a0:69:3b:4b:fa:59:95:65:0a:40:ee:2d:2f:b3:67:
         0a:1d:aa:42:43:26:db:e2:01:26:9d:e2:01:d3:2d:4c:89:a8:
         e3:c1:a1:37:ae:1f:48:94:ba:ff:b7:ec:92:2a:57:74:6e:0d:
         0a:f9:81:8f:8a:75:ab:bb:03:9b:34:49:1a:71:6f:81:86:23:
         62:d3:b7:62:d8:98:f3:94:87:60:90:b4:fa:6d:9e:f4:a4:c1:
         92:4d:1b:82:d0:0d:90:dd:56:50:d8:11:76:76:12:ab:01:76:
         62:71:29:e8:e2:ac:f6:d9:fc:f8:01:6b:fa:84:23:69:7f:0f:
         80:e4:a6:5d
-----BEGIN CERTIFICATE-----
MIIDXTCCAkWgAwIBAgIRAIFwCi8DBDAIKYtM0Ky5m44wDQYJKoZIhvcNAQELBQAw
FjEUMBIGA1UEAwwLdGVhbTI0Ni1uZXQwHhcNMjEwOTEzMDA1OTU2WhcNMjQwODI4
MDA1OTU2WjAZMRcwFQYDVQQDDA50ZWFtMjQ2LWNsaWVudDCCASIwDQYJKoZIhvcN
AQEBBQADggEPADCCAQoCggEBAL8BLuHOKVONEEgl+ZiFH1YGeib8Kh9KSVFhRWuE
XfvBSkDddIHY6xi4dk7y4VeHXqIDa2eVZKijx9QGjzICD0+QCWdMvC0YjADQOx20
/daGRBWo0IYRbtR9s8wtI4jXC+Z4muRk1DuYLUq80Xbld7XgSmbyM4wtsBANCJzI
PwYLBT40voZiqejDVB0qXIU+/gtt4pkBteJoAW34OwP69Tzvn4DELTf54NZWZf8Y
zkhrR88J2LvxHH7NShfUghIPftYI9N6x6hiXOxgz5JrwMB8NvcXLUBd/UuZ1bES9
1IRSNXhTCGaDtQNPnEXFQ8oJs/Rv9zoLnXbIwiGrK17F1AsCAwEAAaOBojCBnzAJ
BgNVHRMEAjAAMB0GA1UdDgQWBBQ/e43kLT9rPv618f1Ba4tEsZH/DzBRBgNVHSME
SjBIgBT0/iCIb19pG7bLCGn8M7JjDuGuK6EapBgwFjEUMBIGA1UEAwwLdGVhbTI0
Ni1uZXSCFGvAUQQFu4/gkKa0ROw8I1vrAxXNMBMGA1UdJQQMMAoGCCsGAQUFBwMC
MAsGA1UdDwQEAwIHgDANBgkqhkiG9w0BAQsFAAOCAQEAR0oQ4UT2c9xwzNV15DPK
LqOw04NpxSu4tLtzZZiDGAs9DspOLIta0xPFQ/lCdCKVmClGVI/Rt6m0HusLyCkS
R96Ye1lE5eQ58Th8GxCzN+NIBntD/Pp9FIZdHECId7+l7GfiLSfGiy98pHbkgLx1
fcMqMakDLT4bCnzS9LbInCYsoGk7S/pZlWUKQO4tL7NnCh2qQkMm2+IBJp3iAdMt
TImo48GhN64fSJS6/7fskipXdG4NCvmBj4p1q7sDmzRJGnFvgYYjYtO3YtiY85SH
YJC0+m2e9KTBkk0bgtANkN1WUNgRdnYSqwF2YnEp6OKs9tn8+AFr+oQjaX8PgOSm
XQ==
-----END CERTIFICATE-----
