Certificate:
    Data:
        Version: 3 (0x2)
        Serial Number:
            96:fe:e2:63:30:4f:f0:4b:ed:8f:ee:43:5e:b8:42:3d
        Signature Algorithm: sha256WithRSAEncryption
        Issuer: CN=team468-net
        Validity
            Not Before: Sep 13 02:51:35 2021 GMT
            Not After : Aug 28 02:51:35 2024 GMT
        Subject: CN=team468-client
        Subject Public Key Info:
            Public Key Algorithm: rsaEncryption
                RSA Public-Key: (2048 bit)
                Modulus:
                    00:c5:1d:38:b5:07:64:c9:90:8d:eb:f9:89:1b:67:
                    8c:32:f4:1d:fd:ef:04:9c:15:40:e5:93:c9:ca:4a:
                    ba:ca:af:2a:bf:a8:0b:1b:b7:7a:e0:89:fa:6d:3c:
                    22:b5:19:f4:d5:7b:0d:40:fd:b5:6a:24:79:e3:47:
                    10:94:63:2d:d6:95:56:ac:18:64:e6:0a:12:9c:e4:
                    40:93:39:07:a0:eb:a2:8d:61:d9:ad:74:d6:b2:61:
                    78:02:56:da:7f:44:ce:43:47:11:fa:4a:34:7b:40:
                    b6:20:e5:f6:5c:81:5d:36:31:10:1e:c8:05:94:d6:
                    f3:4c:9e:61:de:07:ab:9e:bc:68:43:0f:c7:dd:83:
                    25:4f:50:8a:43:35:cc:93:43:e2:e1:06:ef:4d:bd:
                    4d:90:6f:89:58:6d:1d:d0:5c:26:95:c2:06:4b:40:
                    1a:c4:75:01:56:b6:fe:a7:08:34:dc:bf:b1:5a:9c:
                    f2:fb:7b:c4:39:42:c5:fa:cf:6c:dd:f1:31:93:ad:
                    60:7f:30:00:6b:bc:21:80:92:5d:0b:95:eb:fc:47:
                    85:86:fe:b1:32:e9:c9:c5:2c:97:7a:1b:33:e1:f4:
                    d8:12:1b:67:47:b1:2e:26:b3:d2:92:62:93:d7:61:
                    e8:ac:fc:63:5f:cb:89:e3:b2:84:79:67:e3:73:fc:
                    c3:b5
                Exponent: 65537 (0x10001)
        X509v3 extensions:
            X509v3 Basic Constraints: 
                CA:FALSE
            X509v3 Subject Key Identifier: 
                2B:FC:9E:9B:3F:06:C4:14:CC:74:4A:22:C7:B4:5D:CC:47:83:07:07
            X509v3 Authority Key Identifier: 
                keyid:3A:40:28:0F:0F:3B:16:DC:EC:2C:B2:79:DF:F1:CF:0E:94:33:59:B5
                DirName:/CN=team468-net
                serial:47:7A:B7:4B:E9:93:C6:86:05:BF:89:2C:83:53:05:73:EB:E0:2C:E6

            X509v3 Extended Key Usage: 
                TLS Web Client Authentication
            X509v3 Key Usage: 
                Digital Signature
    Signature Algorithm: sha256WithRSAEncryption
         97:6b:85:c5:73:48:ce:01:43:b9:bd:65:e8:29:74:0a:90:9c:
         05:16:fe:e9:bc:3c:6c:23:d1:25:43:87:d0:7a:ad:cd:b5:ae:
         bd:56:1b:9e:1a:12:98:1f:6f:38:1e:87:87:dc:38:f8:97:49:
         2f:fe:d7:dd:76:fc:c5:bb:6d:87:8d:9a:1c:c3:97:a1:3e:50:
         ac:33:a4:8b:c6:59:28:4e:0f:b5:23:56:ba:99:db:1a:c4:7e:
         94:eb:38:7d:f7:b3:0b:31:e3:e5:fa:8c:5a:be:71:08:3f:5b:
         ff:16:98:5f:d7:51:42:b3:d1:84:24:e1:5a:a1:a3:31:92:82:
         47:5f:2e:2c:43:ad:bb:6e:79:bb:eb:c3:03:f6:d7:b3:2e:b3:
         9c:d0:9b:d6:16:cd:f0:76:2d:93:94:45:35:f9:98:8a:2a:9a:
         8e:fb:cd:c2:0a:9c:6f:ad:f5:48:25:7c:ff:e7:5c:6b:6b:f2:
         96:30:42:f3:98:77:9c:6d:90:72:c7:ed:31:e4:ab:15:5d:97:
         d9:19:ad:06:95:86:d4:40:ae:45:07:31:88:61:fc:36:c9:bc:
         c0:53:50:a2:d4:b4:74:1e:6d:8e:86:2d:f5:a6:80:ec:18:82:
         25:f7:93:09:48:8e:41:9e:1c:3c:2d:2c:3a:17:67:0f:c1:85:
         ec:85:76:e7
-----BEGIN CERTIFICATE-----
MIIDXTCCAkWgAwIBAgIRAJb+4mMwT/BL7Y/uQ164Qj0wDQYJKoZIhvcNAQELBQAw
FjEUMBIGA1UEAwwLdGVhbTQ2OC1uZXQwHhcNMjEwOTEzMDI1MTM1WhcNMjQwODI4
MDI1MTM1WjAZMRcwFQYDVQQDDA50ZWFtNDY4LWNsaWVudDCCASIwDQYJKoZIhvcN
AQEBBQADggEPADCCAQoCggEBAMUdOLUHZMmQjev5iRtnjDL0Hf3vBJwVQOWTycpK
usqvKr+oCxu3euCJ+m08IrUZ9NV7DUD9tWokeeNHEJRjLdaVVqwYZOYKEpzkQJM5
B6Droo1h2a101rJheAJW2n9EzkNHEfpKNHtAtiDl9lyBXTYxEB7IBZTW80yeYd4H
q568aEMPx92DJU9QikM1zJND4uEG7029TZBviVhtHdBcJpXCBktAGsR1AVa2/qcI
NNy/sVqc8vt7xDlCxfrPbN3xMZOtYH8wAGu8IYCSXQuV6/xHhYb+sTLpycUsl3ob
M+H02BIbZ0exLiaz0pJik9dh6Kz8Y1/LieOyhHln43P8w7UCAwEAAaOBojCBnzAJ
BgNVHRMEAjAAMB0GA1UdDgQWBBQr/J6bPwbEFMx0SiLHtF3MR4MHBzBRBgNVHSME
SjBIgBQ6QCgPDzsW3Owssnnf8c8OlDNZtaEapBgwFjEUMBIGA1UEAwwLdGVhbTQ2
OC1uZXSCFEd6t0vpk8aGBb+JLINTBXPr4CzmMBMGA1UdJQQMMAoGCCsGAQUFBwMC
MAsGA1UdDwQEAwIHgDANBgkqhkiG9w0BAQsFAAOCAQEAl2uFxXNIzgFDub1l6Cl0
CpCcBRb+6bw8bCPRJUOH0HqtzbWuvVYbnhoSmB9vOB6Hh9w4+JdJL/7X3Xb8xbtt
h42aHMOXoT5QrDOki8ZZKE4PtSNWupnbGsR+lOs4ffezCzHj5fqMWr5xCD9b/xaY
X9dRQrPRhCThWqGjMZKCR18uLEOtu255u+vDA/bXsy6znNCb1hbN8HYtk5RFNfmY
iiqajvvNwgqcb631SCV8/+dca2vyljBC85h3nG2QcsftMeSrFV2X2RmtBpWG1ECu
RQcxiGH8Nsm8wFNQotS0dB5tjoYt9aaA7BiCJfeTCUiOQZ4cPC0sOhdnD8GF7IV2
5w==
-----END CERTIFICATE-----
