Certificate:
    Data:
        Version: 3 (0x2)
        Serial Number:
            0d:cf:88:f5:c2:07:96:32:75:c7:db:81:68:20:43:be
        Signature Algorithm: sha256WithRSAEncryption
        Issuer: CN=team44-net
        Validity
            Not Before: Sep 12 23:06:48 2021 GMT
            Not After : Aug 27 23:06:48 2024 GMT
        Subject: CN=team44-server
        Subject Public Key Info:
            Public Key Algorithm: rsaEncryption
                RSA Public-Key: (2048 bit)
                Modulus:
                    00:c8:0f:e0:88:dd:cd:04:90:a0:c0:a7:d2:41:12:
                    9f:df:88:1b:e7:22:b6:f8:21:b4:76:af:91:0b:06:
                    3a:2f:e5:f8:4f:9b:31:bd:f3:5c:d8:96:c6:68:0c:
                    89:32:e8:32:d2:7a:1d:35:38:09:bb:c3:e4:91:fe:
                    2b:0b:6a:8c:90:d9:de:76:f6:d4:fe:cb:10:16:cb:
                    d1:8c:09:5d:1a:7f:c6:f3:c5:67:59:ab:e1:75:47:
                    8b:39:b1:d0:ac:16:9b:da:65:2d:00:82:3e:09:5e:
                    53:3a:c9:69:24:16:93:cd:9e:8a:18:0f:9a:37:fe:
                    1b:2d:53:64:71:a6:f9:82:b2:75:da:eb:82:bf:c5:
                    ec:e2:79:c4:87:4e:0d:cb:4b:52:58:7e:a2:0e:a4:
                    3a:39:c3:f1:be:42:27:d1:6a:a3:64:19:df:bb:9d:
                    93:ca:02:70:1a:9e:44:00:c8:07:ff:c1:b8:f0:b6:
                    a3:e5:d6:ca:c0:b2:68:4a:88:fa:4d:d0:4b:2f:3c:
                    e0:63:db:58:91:be:10:74:24:08:75:10:34:5a:d0:
                    6d:45:57:ac:05:56:fd:bb:31:7c:0a:3f:e1:4f:b6:
                    14:53:3c:f0:21:69:41:d1:eb:04:27:cf:2c:55:b9:
                    70:c3:93:f3:2e:80:1c:e3:88:22:22:1d:bf:25:4e:
                    93:db
                Exponent: 65537 (0x10001)
        X509v3 extensions:
            X509v3 Basic Constraints: 
                CA:FALSE
            X509v3 Subject Key Identifier: 
                04:62:D9:64:E6:92:85:DE:79:F2:00:33:69:3E:0C:61:2A:F6:A0:F9
            X509v3 Authority Key Identifier: 
                keyid:C9:FB:F6:C4:61:F5:F8:19:18:E1:CD:23:96:8C:E8:19:B3:30:78:63
                DirName:/CN=team44-net
                serial:66:20:F3:8F:8D:BF:C6:AD:2F:15:29:1F:7F:4B:49:A8:F9:88:2F:B1

            X509v3 Extended Key Usage: 
                TLS Web Server Authentication
            X509v3 Key Usage: 
                Digital Signature, Key Encipherment
            X509v3 Subject Alternative Name: 
                DNS:team44-server
    Signature Algorithm: sha256WithRSAEncryption
         50:1d:6d:66:0e:fc:ab:77:77:0b:ae:bd:6d:d7:d3:76:de:7c:
         ce:15:77:55:3b:49:f4:03:3a:10:a5:0a:3a:fe:7c:9f:12:2d:
         c7:b5:76:c7:f4:a5:ef:64:ae:20:85:b6:69:bc:dc:04:be:f0:
         61:0a:6f:a4:85:05:e9:fe:f3:cd:d8:3e:03:dd:43:68:65:9a:
         63:5e:df:26:79:d4:62:5a:c1:36:13:93:6e:a2:65:1d:43:86:
         89:18:86:37:69:0c:fb:cf:22:75:65:e5:75:a1:c5:41:8d:c1:
         63:e2:86:57:3a:7d:22:36:2f:0e:92:65:8c:a5:63:2f:e0:63:
         3e:45:f6:3e:6b:ad:c1:19:ec:93:8a:0f:12:b5:f0:d1:e2:a9:
         94:ec:40:47:81:b5:d7:b2:8d:69:8f:bf:f7:70:68:fb:a5:3a:
         2f:c0:dc:15:35:43:d2:ed:93:88:36:be:13:f7:1b:e1:a1:2c:
         88:4b:1e:47:1d:3f:bc:5b:78:14:5d:fc:2b:8c:fd:2e:d3:93:
         1c:01:6b:7b:70:d0:77:b6:de:12:6a:42:ac:bc:89:e8:04:5b:
         dc:02:ac:38:03:13:ac:d9:1e:8b:ea:5b:b3:a9:25:77:4f:fd:
         e6:bd:58:f4:3f:4c:42:ca:0d:2e:ed:5b:30:18:a4:ed:21:f8:
         90:4a:17:73
-----BEGIN CERTIFICATE-----
MIIDczCCAlugAwIBAgIQDc+I9cIHljJ1x9uBaCBDvjANBgkqhkiG9w0BAQsFADAV
MRMwEQYDVQQDDAp0ZWFtNDQtbmV0MB4XDTIxMDkxMjIzMDY0OFoXDTI0MDgyNzIz
MDY0OFowGDEWMBQGA1UEAwwNdGVhbTQ0LXNlcnZlcjCCASIwDQYJKoZIhvcNAQEB
BQADggEPADCCAQoCggEBAMgP4IjdzQSQoMCn0kESn9+IG+citvghtHavkQsGOi/l
+E+bMb3zXNiWxmgMiTLoMtJ6HTU4CbvD5JH+KwtqjJDZ3nb21P7LEBbL0YwJXRp/
xvPFZ1mr4XVHizmx0KwWm9plLQCCPgleUzrJaSQWk82eihgPmjf+Gy1TZHGm+YKy
ddrrgr/F7OJ5xIdODctLUlh+og6kOjnD8b5CJ9Fqo2QZ37udk8oCcBqeRADIB//B
uPC2o+XWysCyaEqI+k3QSy884GPbWJG+EHQkCHUQNFrQbUVXrAVW/bsxfAo/4U+2
FFM88CFpQdHrBCfPLFW5cMOT8y6AHOOIIiIdvyVOk9sCAwEAAaOBuzCBuDAJBgNV
HRMEAjAAMB0GA1UdDgQWBBQEYtlk5pKF3nnyADNpPgxhKvag+TBQBgNVHSMESTBH
gBTJ+/bEYfX4GRjhzSOWjOgZszB4Y6EZpBcwFTETMBEGA1UEAwwKdGVhbTQ0LW5l
dIIUZiDzj42/xq0vFSkff0tJqPmIL7EwEwYDVR0lBAwwCgYIKwYBBQUHAwEwCwYD
VR0PBAQDAgWgMBgGA1UdEQQRMA+CDXRlYW00NC1zZXJ2ZXIwDQYJKoZIhvcNAQEL
BQADggEBAFAdbWYO/Kt3dwuuvW3X03befM4Vd1U7SfQDOhClCjr+fJ8SLce1dsf0
pe9kriCFtmm83AS+8GEKb6SFBen+883YPgPdQ2hlmmNe3yZ51GJawTYTk26iZR1D
hokYhjdpDPvPInVl5XWhxUGNwWPihlc6fSI2Lw6SZYylYy/gYz5F9j5rrcEZ7JOK
DxK18NHiqZTsQEeBtdeyjWmPv/dwaPulOi/A3BU1Q9Ltk4g2vhP3G+GhLIhLHkcd
P7xbeBRd/CuM/S7TkxwBa3tw0He23hJqQqy8iegEW9wCrDgDE6zZHovqW7OpJXdP
/ea9WPQ/TELKDS7tWzAYpO0h+JBKF3M=
-----END CERTIFICATE-----
