Certificate:
    Data:
        Version: 3 (0x2)
        Serial Number:
            89:c3:f5:83:88:32:21:69:fb:e9:c8:71:87:bc:4b:81
        Signature Algorithm: sha256WithRSAEncryption
        Issuer: CN=team99-net
        Validity
            Not Before: Sep 12 23:34:11 2021 GMT
            Not After : Aug 27 23:34:11 2024 GMT
        Subject: CN=team99-client
        Subject Public Key Info:
            Public Key Algorithm: rsaEncryption
                RSA Public-Key: (2048 bit)
                Modulus:
                    00:b3:b2:7c:e6:f2:50:ac:e5:3e:27:51:15:60:4e:
                    4e:a5:db:6a:89:50:5e:4e:cd:65:87:a1:c9:fd:db:
                    c4:b9:6a:e9:f9:5d:32:a7:10:c7:91:d4:3c:f0:57:
                    e9:f2:27:8f:08:f7:6c:99:91:ce:96:7a:dd:e8:24:
                    9e:8a:3a:65:c7:71:0c:fe:98:e1:54:33:19:46:78:
                    56:e9:4b:d4:3f:bd:59:96:38:e5:22:d6:d8:79:fe:
                    19:42:56:f4:88:89:a3:56:d4:ed:40:fa:54:21:ea:
                    18:8e:52:f8:62:48:89:de:c2:4e:32:02:eb:e8:68:
                    bd:be:f2:7c:b9:6e:c1:15:05:fd:4c:95:a0:32:39:
                    d8:bc:f6:82:24:3e:27:26:1c:55:42:45:89:5d:67:
                    1d:ff:84:06:32:65:e6:8f:8f:1c:1b:6d:8f:13:ac:
                    0d:96:16:aa:70:ab:78:a9:26:f6:21:b2:b4:15:28:
                    09:e5:47:ae:90:0d:a1:d9:95:98:47:a9:da:39:13:
                    aa:a9:8c:99:22:2d:13:f6:ba:bf:46:a0:ae:17:a5:
                    4a:16:8f:58:ca:ac:15:f6:48:fd:f3:ec:98:ef:62:
                    0c:e5:60:4c:d7:b0:e2:a6:aa:ba:ee:17:7b:77:79:
                    45:4f:03:e8:b8:88:37:80:1b:2d:e5:a3:c8:2c:69:
                    1d:5b
                Exponent: 65537 (0x10001)
        X509v3 extensions:
            X509v3 Basic Constraints: 
                CA:FALSE
            X509v3 Subject Key Identifier: 
                CD:16:C2:B6:C4:98:E0:E1:0B:B2:82:3E:62:44:33:D5:44:07:25:59
            X509v3 Authority Key Identifier: 
                keyid:A2:75:84:03:DD:70:33:9D:B4:3E:B3:91:EA:02:6A:1B:2C:62:FD:33
                DirName:/CN=team99-net
                serial:43:B5:09:C8:C9:16:82:68:19:AF:AB:99:DC:52:96:5B:AB:F6:26:99

            X509v3 Extended Key Usage: 
                TLS Web Client Authentication
            X509v3 Key Usage: 
                Digital Signature
    Signature Algorithm: sha256WithRSAEncryption
         b0:09:99:70:d9:09:98:ce:83:6e:73:10:bf:37:57:33:31:82:
         a0:ea:db:c7:ed:76:dd:cf:ae:60:1c:9f:57:9f:69:05:d0:92:
         dc:69:3b:ca:6e:19:40:1a:81:c8:18:4b:6d:ea:e7:a0:ef:65:
         5a:67:1c:72:5d:df:57:93:68:9f:59:29:4e:79:f3:bd:29:b6:
         3d:7e:c9:f1:3f:3d:05:55:a0:45:24:e5:28:df:94:01:83:96:
         c5:db:07:0c:d3:66:27:5d:80:be:6a:5b:75:54:b0:be:c4:5f:
         b8:6d:72:76:30:c3:14:51:1c:6e:3f:58:86:78:26:84:76:2c:
         72:f0:25:75:f8:ec:c7:32:f9:71:a5:2d:27:90:5f:61:83:81:
         e7:35:c0:71:b2:cf:3b:d2:68:fa:4c:fa:c8:81:b0:af:f4:d8:
         60:56:76:cd:98:53:b0:7a:0a:27:db:86:ea:f2:1a:63:77:4f:
         6a:45:1e:e3:b2:78:10:29:c7:3a:2f:a5:9f:61:bd:3d:f4:34:
         64:65:5b:7c:9a:a5:ae:02:ad:d1:6c:93:b2:1e:26:3c:53:db:
         a3:a1:a4:19:d6:39:8e:48:ea:fc:2d:a1:e9:4c:2d:cc:38:67:
         dc:94:d7:b3:f4:3b:02:22:e5:b5:6d:22:08:71:45:ad:be:5b:
         b0:26:30:c6
-----BEGIN CERTIFICATE-----
MIIDWjCCAkKgAwIBAgIRAInD9YOIMiFp++nIcYe8S4EwDQYJKoZIhvcNAQELBQAw
FTETMBEGA1UEAwwKdGVhbTk5LW5ldDAeFw0yMTA5MTIyMzM0MTFaFw0yNDA4Mjcy
MzM0MTFaMBgxFjAUBgNVBAMMDXRlYW05OS1jbGllbnQwggEiMA0GCSqGSIb3DQEB
AQUAA4IBDwAwggEKAoIBAQCzsnzm8lCs5T4nURVgTk6l22qJUF5OzWWHocn928S5
aun5XTKnEMeR1DzwV+nyJ48I92yZkc6Wet3oJJ6KOmXHcQz+mOFUMxlGeFbpS9Q/
vVmWOOUi1th5/hlCVvSIiaNW1O1A+lQh6hiOUvhiSInewk4yAuvoaL2+8ny5bsEV
Bf1MlaAyOdi89oIkPicmHFVCRYldZx3/hAYyZeaPjxwbbY8TrA2WFqpwq3ipJvYh
srQVKAnlR66QDaHZlZhHqdo5E6qpjJkiLRP2ur9GoK4XpUoWj1jKrBX2SP3z7Jjv
YgzlYEzXsOKmqrruF3t3eUVPA+i4iDeAGy3lo8gsaR1bAgMBAAGjgaEwgZ4wCQYD
VR0TBAIwADAdBgNVHQ4EFgQUzRbCtsSY4OELsoI+YkQz1UQHJVkwUAYDVR0jBEkw
R4AUonWEA91wM520PrOR6gJqGyxi/TOhGaQXMBUxEzARBgNVBAMMCnRlYW05OS1u
ZXSCFEO1CcjJFoJoGa+rmdxSllur9iaZMBMGA1UdJQQMMAoGCCsGAQUFBwMCMAsG
A1UdDwQEAwIHgDANBgkqhkiG9w0BAQsFAAOCAQEAsAmZcNkJmM6DbnMQvzdXMzGC
oOrbx+123c+uYByfV59pBdCS3Gk7ym4ZQBqByBhLbernoO9lWmcccl3fV5Non1kp
TnnzvSm2PX7J8T89BVWgRSTlKN+UAYOWxdsHDNNmJ12AvmpbdVSwvsRfuG1ydjDD
FFEcbj9YhngmhHYscvAldfjsxzL5caUtJ5BfYYOB5zXAcbLPO9Jo+kz6yIGwr/TY
YFZ2zZhTsHoKJ9uG6vIaY3dPakUe47J4ECnHOi+ln2G9PfQ0ZGVbfJqlrgKt0WyT
sh4mPFPbo6GkGdY5jkjq/C2h6UwtzDhn3JTXs/Q7AiLltW0iCHFFrb5bsCYwxg==
-----END CERTIFICATE-----
