Certificate:
    Data:
        Version: 3 (0x2)
        Serial Number:
            e8:db:c7:8e:88:7d:9d:bf:34:31:03:36:f6:c7:a3:74
        Signature Algorithm: sha256WithRSAEncryption
        Issuer: CN=team99-net
        Validity
            Not Before: Sep 12 23:34:11 2021 GMT
            Not After : Aug 27 23:34:11 2024 GMT
        Subject: CN=team99-server
        Subject Public Key Info:
            Public Key Algorithm: rsaEncryption
                RSA Public-Key: (2048 bit)
                Modulus:
                    00:b9:41:00:90:16:91:40:35:ea:8a:1e:a5:c5:36:
                    17:9d:81:4d:14:c9:7e:bf:0a:26:b6:85:5d:fb:9f:
                    f6:87:03:b7:f3:09:2c:a8:ee:8e:2a:46:88:0b:4e:
                    61:e7:7e:6e:cd:5d:d2:b2:1c:88:dc:53:2c:73:2b:
                    9d:51:e3:c2:f5:25:40:c8:ee:c8:33:93:ca:09:7a:
                    0d:8a:c5:17:81:a1:9e:17:60:d4:c9:dc:7a:79:d9:
                    9c:b0:4b:a9:a0:e3:54:c6:93:11:f5:ad:86:45:ee:
                    c6:8e:66:65:b7:e8:52:53:98:84:5c:cc:ff:c4:74:
                    11:93:1d:39:7a:5d:47:b4:3a:5a:55:92:b0:4c:74:
                    06:72:fd:2e:91:ad:c0:f8:3a:aa:40:f2:2b:a5:75:
                    36:5a:91:0b:1b:ae:74:f7:fd:a4:2d:21:d0:4e:25:
                    2d:da:67:e6:55:92:39:78:62:6c:30:18:31:83:8f:
                    3b:0c:af:f3:07:1e:ec:45:a7:f6:64:be:b3:ad:9d:
                    f8:36:e1:17:5a:45:22:ef:b3:63:3d:fb:ae:96:43:
                    80:56:f8:a2:53:b3:be:26:0e:b8:48:9b:8a:e1:88:
                    51:68:ee:c7:46:71:c7:be:d4:21:ed:ec:1c:1c:dd:
                    ae:41:aa:76:d9:42:a2:fe:b8:f2:22:e2:aa:03:e5:
                    67:3d
                Exponent: 65537 (0x10001)
        X509v3 extensions:
            X509v3 Basic Constraints: 
                CA:FALSE
            X509v3 Subject Key Identifier: 
                1E:4B:A7:A8:CC:69:6F:6C:73:97:7B:FD:C0:1D:0A:B8:B1:D4:02:F6
            X509v3 Authority Key Identifier: 
                keyid:A2:75:84:03:DD:70:33:9D:B4:3E:B3:91:EA:02:6A:1B:2C:62:FD:33
                DirName:/CN=team99-net
                serial:43:B5:09:C8:C9:16:82:68:19:AF:AB:99:DC:52:96:5B:AB:F6:26:99

            X509v3 Extended Key Usage: 
                TLS Web Server Authentication
            X509v3 Key Usage: 
                Digital Signature, Key Encipherment
            X509v3 Subject Alternative Name: 
                DNS:team99-server
    Signature Algorithm: sha256WithRSAEncryption
         9e:26:73:27:74:fc:7a:c0:a9:88:6b:0f:80:4d:31:a9:2e:4c:
         c0:e9:73:0c:a1:7c:23:f4:bc:af:a8:30:73:66:37:0f:cd:14:
         4c:d8:9a:cc:92:15:cb:f0:22:d2:3c:60:90:6f:d2:65:9a:95:
         6b:d9:85:04:fa:5e:0b:d3:d4:49:bb:79:7c:bb:38:f8:a5:ce:
         23:fe:55:90:f5:cf:a7:33:5a:5c:1a:80:2a:df:24:97:bb:68:
         b9:6e:e2:19:52:5a:8c:7f:8f:db:a3:7f:05:9e:93:e1:18:fb:
         89:cb:49:5f:dc:c5:d1:ff:93:7e:ed:e6:d5:b4:fd:79:43:17:
         d9:a0:34:aa:91:43:8f:54:10:80:65:94:d8:de:e8:bf:79:8a:
         44:c8:5a:f1:a2:a0:be:e2:de:4e:67:ec:ca:cc:4b:01:65:bc:
         de:01:55:3b:27:b9:30:0e:ad:e2:80:57:8f:6c:2f:bf:96:b5:
         bc:b2:70:e5:28:83:d6:a8:bd:22:f0:b5:d0:03:38:92:7c:eb:
         a8:2c:f7:bf:c0:cb:fc:02:18:8d:2e:c1:a6:4d:2b:9d:c0:df:
         0e:60:bb:c1:94:6a:94:2e:cd:dc:6c:d2:3a:b6:6d:b6:8c:68:
         6d:1e:60:60:10:92:cf:ae:6e:f8:50:29:c5:31:e0:f8:68:de:
         67:c3:82:6d
-----BEGIN CERTIFICATE-----
MIIDdDCCAlygAwIBAgIRAOjbx46IfZ2/NDEDNvbHo3QwDQYJKoZIhvcNAQELBQAw
FTETMBEGA1UEAwwKdGVhbTk5LW5ldDAeFw0yMTA5MTIyMzM0MTFaFw0yNDA4Mjcy
MzM0MTFaMBgxFjAUBgNVBAMMDXRlYW05OS1zZXJ2ZXIwggEiMA0GCSqGSIb3DQEB
AQUAA4IBDwAwggEKAoIBAQC5QQCQFpFANeqKHqXFNhedgU0UyX6/Cia2hV37n/aH
A7fzCSyo7o4qRogLTmHnfm7NXdKyHIjcUyxzK51R48L1JUDI7sgzk8oJeg2KxReB
oZ4XYNTJ3Hp52ZywS6mg41TGkxH1rYZF7saOZmW36FJTmIRczP/EdBGTHTl6XUe0
OlpVkrBMdAZy/S6RrcD4OqpA8iuldTZakQsbrnT3/aQtIdBOJS3aZ+ZVkjl4Ymww
GDGDjzsMr/MHHuxFp/ZkvrOtnfg24RdaRSLvs2M9+66WQ4BW+KJTs74mDrhIm4rh
iFFo7sdGcce+1CHt7Bwc3a5BqnbZQqL+uPIi4qoD5Wc9AgMBAAGjgbswgbgwCQYD
VR0TBAIwADAdBgNVHQ4EFgQUHkunqMxpb2xzl3v9wB0KuLHUAvYwUAYDVR0jBEkw
R4AUonWEA91wM520PrOR6gJqGyxi/TOhGaQXMBUxEzARBgNVBAMMCnRlYW05OS1u
ZXSCFEO1CcjJFoJoGa+rmdxSllur9iaZMBMGA1UdJQQMMAoGCCsGAQUFBwMBMAsG
A1UdDwQEAwIFoDAYBgNVHREEETAPgg10ZWFtOTktc2VydmVyMA0GCSqGSIb3DQEB
CwUAA4IBAQCeJnMndPx6wKmIaw+ATTGpLkzA6XMMoXwj9LyvqDBzZjcPzRRM2JrM
khXL8CLSPGCQb9JlmpVr2YUE+l4L09RJu3l8uzj4pc4j/lWQ9c+nM1pcGoAq3ySX
u2i5buIZUlqMf4/bo38FnpPhGPuJy0lf3MXR/5N+7ebVtP15QxfZoDSqkUOPVBCA
ZZTY3ui/eYpEyFrxoqC+4t5OZ+zKzEsBZbzeAVU7J7kwDq3igFePbC+/lrW8snDl
KIPWqL0i8LXQAziSfOuoLPe/wMv8AhiNLsGmTSudwN8OYLvBlGqULs3cbNI6tm22
jGhtHmBgEJLPrm74UCnFMeD4aN5nw4Jt
-----END CERTIFICATE-----
