Certificate:
    Data:
        Version: 3 (0x2)
        Serial Number:
            08:3f:ff:b3:e1:27:d2:3d:24:a2:69:cb:a2:75:8e:81
        Signature Algorithm: sha256WithRSAEncryption
        Issuer: CN=team690-net
        Validity
            Not Before: Sep 13 05:14:34 2021 GMT
            Not After : Aug 28 05:14:34 2024 GMT
        Subject: CN=team690-server
        Subject Public Key Info:
            Public Key Algorithm: rsaEncryption
                RSA Public-Key: (2048 bit)
                Modulus:
                    00:cc:40:06:ea:31:ec:39:c2:da:be:fd:63:86:00:
                    ec:53:98:4e:8a:12:7d:56:e0:8a:38:20:0e:0d:3f:
                    db:ce:85:96:8c:4f:29:1c:8a:36:03:c5:8c:de:9f:
                    39:87:b1:8f:fb:12:7f:b3:6e:e7:fd:d1:04:0f:48:
                    f9:67:1b:9c:21:e7:4d:a4:3a:c6:f4:49:86:1d:5a:
                    41:5c:51:c8:86:80:7d:12:58:ba:af:c0:3a:bd:34:
                    6c:fe:19:d9:5a:68:a9:42:fd:78:5f:45:58:9f:df:
                    79:0f:81:71:12:fe:9c:c2:a5:ed:1a:40:43:c5:88:
                    08:b7:57:18:0f:0e:e7:4a:1e:1d:9e:a9:4f:ac:34:
                    99:a6:3f:ae:13:c7:02:07:c8:ff:88:74:6e:3d:79:
                    70:65:5f:4e:48:b6:07:37:7c:92:30:f6:17:b8:6a:
                    03:d2:aa:a7:e2:cc:b6:52:6f:f9:be:96:93:43:46:
                    5a:63:88:5c:7b:62:15:4e:98:8f:a3:df:9c:59:9d:
                    8a:c3:cf:84:f4:93:7f:75:c8:f3:d3:2d:7e:60:ea:
                    c4:9c:6a:bf:4f:bd:8e:94:1f:5c:26:1b:b8:52:62:
                    69:dc:b8:f6:36:44:b3:bf:d0:46:bd:77:ce:b7:6f:
                    52:9d:c9:f0:85:87:96:3a:a9:5b:95:bc:cc:0a:b0:
                    d5:b1
                Exponent: 65537 (0x10001)
        X509v3 extensions:
            X509v3 Basic Constraints: 
                CA:FALSE
            X509v3 Subject Key Identifier: 
                F9:F5:B2:A4:68:49:60:E4:1F:9C:DB:48:42:DD:B7:B6:FE:31:7F:5B
            X509v3 Authority Key Identifier: 
                keyid:97:24:5A:32:6B:60:15:E4:66:F8:8E:23:AC:38:59:65:59:EA:30:1F
                DirName:/CN=team690-net
                serial:3C:9B:63:20:29:13:7D:51:B9:72:6F:7D:40:0A:01:93:8B:F2:55:75

            X509v3 Extended Key Usage: 
                TLS Web Server Authentication
            X509v3 Key Usage: 
                Digital Signature, Key Encipherment
            X509v3 Subject Alternative Name: 
                DNS:team690-server
    Signature Algorithm: sha256WithRSAEncryption
         6e:22:21:65:2e:35:19:0e:b9:2f:4d:11:de:1e:ae:6f:95:17:
         12:8c:16:db:16:5b:a2:67:26:58:65:53:8a:6b:0d:6f:97:bd:
         da:e0:7a:62:4e:85:e9:52:5d:f2:f7:ea:ac:8d:59:08:f0:c0:
         b0:5d:7d:62:c4:83:ec:25:3f:f4:ce:06:3a:fa:37:36:9b:b3:
         60:9f:2a:94:b4:6a:09:66:c9:83:2a:0b:e9:4d:6a:6d:62:56:
         d3:15:9e:21:bc:26:27:46:a1:3b:44:82:2f:ae:a2:20:4c:e8:
         44:1d:45:3c:0c:ae:6f:b2:0e:4e:ab:11:fc:3c:bb:09:13:9c:
         ca:5d:2d:b7:71:2d:50:6c:75:f0:24:5d:12:89:a0:3d:14:f9:
         95:23:db:c9:fe:18:84:7a:f6:40:4e:46:95:88:ed:27:86:c1:
         e4:8b:35:ca:89:2f:18:a8:14:fa:8e:6e:a8:74:a3:15:aa:24:
         76:78:60:5f:5b:ed:81:33:32:31:fa:af:ec:cf:4e:2a:bb:09:
         98:ab:10:55:84:8d:7e:82:df:ae:98:b6:ce:6b:a7:3d:fc:ee:
         a7:c4:46:49:38:c6:2f:e0:f2:84:7c:cd:6a:31:15:73:f9:9c:
         90:22:06:80:33:e6:f8:77:51:44:0f:39:d1:ef:99:08:13:80:
         c2:ef:2f:f4
-----BEGIN CERTIFICATE-----
MIIDdzCCAl+gAwIBAgIQCD//s+En0j0komnLonWOgTANBgkqhkiG9w0BAQsFADAW
MRQwEgYDVQQDDAt0ZWFtNjkwLW5ldDAeFw0yMTA5MTMwNTE0MzRaFw0yNDA4Mjgw
NTE0MzRaMBkxFzAVBgNVBAMMDnRlYW02OTAtc2VydmVyMIIBIjANBgkqhkiG9w0B
AQEFAAOCAQ8AMIIBCgKCAQEAzEAG6jHsOcLavv1jhgDsU5hOihJ9VuCKOCAODT/b
zoWWjE8pHIo2A8WM3p85h7GP+xJ/s27n/dEED0j5ZxucIedNpDrG9EmGHVpBXFHI
hoB9Eli6r8A6vTRs/hnZWmipQv14X0VYn995D4FxEv6cwqXtGkBDxYgIt1cYDw7n
Sh4dnqlPrDSZpj+uE8cCB8j/iHRuPXlwZV9OSLYHN3ySMPYXuGoD0qqn4sy2Um/5
vpaTQ0ZaY4hce2IVTpiPo9+cWZ2Kw8+E9JN/dcjz0y1+YOrEnGq/T72OlB9cJhu4
UmJp3Lj2NkSzv9BGvXfOt29SncnwhYeWOqlblbzMCrDVsQIDAQABo4G9MIG6MAkG
A1UdEwQCMAAwHQYDVR0OBBYEFPn1sqRoSWDkH5zbSELdt7b+MX9bMFEGA1UdIwRK
MEiAFJckWjJrYBXkZviOI6w4WWVZ6jAfoRqkGDAWMRQwEgYDVQQDDAt0ZWFtNjkw
LW5ldIIUPJtjICkTfVG5cm99QAoBk4vyVXUwEwYDVR0lBAwwCgYIKwYBBQUHAwEw
CwYDVR0PBAQDAgWgMBkGA1UdEQQSMBCCDnRlYW02OTAtc2VydmVyMA0GCSqGSIb3
DQEBCwUAA4IBAQBuIiFlLjUZDrkvTRHeHq5vlRcSjBbbFluiZyZYZVOKaw1vl73a
4HpiToXpUl3y9+qsjVkI8MCwXX1ixIPsJT/0zgY6+jc2m7NgnyqUtGoJZsmDKgvp
TWptYlbTFZ4hvCYnRqE7RIIvrqIgTOhEHUU8DK5vsg5OqxH8PLsJE5zKXS23cS1Q
bHXwJF0SiaA9FPmVI9vJ/hiEevZATkaViO0nhsHkizXKiS8YqBT6jm6odKMVqiR2
eGBfW+2BMzIx+q/sz04quwmYqxBVhI1+gt+umLbOa6c9/O6nxEZJOMYv4PKEfM1q
MRVz+ZyQIgaAM+b4d1FEDznR75kIE4DC7y/0
-----END CERTIFICATE-----
