Certificate:
    Data:
        Version: 3 (0x2)
        Serial Number:
            9d:1f:4e:ba:f6:9a:27:fa:55:39:f5:55:f2:2e:6f:e4
        Signature Algorithm: sha256WithRSAEncryption
        Issuer: CN=team184-net
        Validity
            Not Before: Sep 13 00:22:21 2021 GMT
            Not After : Aug 28 00:22:21 2024 GMT
        Subject: CN=team184-server
        Subject Public Key Info:
            Public Key Algorithm: rsaEncryption
                RSA Public-Key: (2048 bit)
                Modulus:
                    00:c4:89:52:91:82:30:00:d3:40:08:24:be:9f:f2:
                    89:14:56:fb:ee:f3:95:69:d8:b8:4d:b8:4f:63:96:
                    63:be:a7:04:ce:99:eb:b0:df:3a:0a:39:2e:6c:56:
                    fc:cc:b1:c7:97:51:5e:c2:76:f0:bb:bc:26:43:d2:
                    7d:6b:6b:90:44:4a:7f:73:3b:e8:9c:20:ab:b2:c8:
                    ae:41:aa:8f:f9:d7:72:3e:35:4c:5a:ab:06:af:07:
                    f3:17:21:49:a5:e8:b9:aa:7c:aa:00:4d:99:07:a9:
                    0c:b3:21:de:56:2e:6b:b4:c0:cb:44:a1:56:c5:fe:
                    fb:45:e8:de:cc:c3:69:3b:87:2f:ec:d9:60:cc:6d:
                    72:b4:6b:85:2e:3c:42:a2:be:5b:3f:95:ba:87:d8:
                    dc:db:b1:5b:b5:71:91:f4:84:c6:bc:c6:c3:1a:75:
                    22:9f:32:a3:51:ac:a2:c6:66:7d:d6:52:5c:0b:14:
                    7b:6a:c2:20:7d:37:6e:4a:d7:40:b7:9b:3a:c0:6b:
                    72:02:11:1b:c5:85:8f:55:33:2e:33:90:f3:34:3a:
                    f0:8e:68:50:6c:16:20:9b:aa:0e:ec:43:ef:03:37:
                    71:a1:b1:74:8d:bc:f2:93:d3:fb:8d:4f:52:71:e9:
                    34:d7:34:8c:fd:fd:86:33:4f:d5:f3:7b:93:cf:55:
                    36:11
                Exponent: 65537 (0x10001)
        X509v3 extensions:
            X509v3 Basic Constraints: 
                CA:FALSE
            X509v3 Subject Key Identifier: 
                D5:1E:90:35:A9:BB:ED:0E:96:97:2C:5C:E5:E3:47:8B:64:F5:F6:89
            X509v3 Authority Key Identifier: 
                keyid:22:8B:22:A1:AA:E4:9F:96:79:F8:4E:5B:24:4C:FA:FF:06:79:1F:39
                DirName:/CN=team184-net
                serial:07:79:2D:3E:FC:CB:B7:6B:98:CA:EF:5E:DA:0C:85:D3:17:9E:B7:49

            X509v3 Extended Key Usage: 
                TLS Web Server Authentication
            X509v3 Key Usage: 
                Digital Signature, Key Encipherment
            X509v3 Subject Alternative Name: 
                DNS:team184-server
    Signature Algorithm: sha256WithRSAEncryption
         2c:b1:cf:d0:d5:ff:d0:c1:3d:46:d1:79:1e:ab:3d:93:43:a4:
         f8:80:16:7f:9a:2e:35:45:3c:24:f9:62:44:6b:29:b8:22:ae:
         63:87:36:a0:8b:7f:a5:60:30:64:63:36:aa:55:6f:d2:8a:90:
         9e:37:d2:a4:73:88:99:9f:b9:25:64:04:1a:ae:b0:98:29:a9:
         cc:e9:95:4f:27:cc:56:83:12:56:3f:13:18:2a:37:08:f1:fe:
         17:56:26:3e:79:5a:d3:88:60:ff:28:ef:37:91:a8:0c:7f:d8:
         8c:46:c4:51:bf:0d:cb:e2:7f:3d:37:db:a1:ca:36:cc:6b:da:
         48:9d:74:07:70:42:78:39:75:aa:02:21:84:b6:09:8d:67:be:
         87:d2:e7:77:85:2c:1e:14:5f:29:83:b3:07:e8:ca:ba:89:85:
         d0:89:86:29:99:10:96:f5:f9:9c:64:f1:1e:46:49:79:12:7b:
         a7:22:70:23:23:3a:f1:43:fb:8b:a6:46:03:5b:7c:51:48:92:
         4c:c1:ce:20:75:15:2a:e2:69:7f:49:a2:91:cb:71:69:f8:17:
         d2:d3:c1:9f:a5:5b:dc:4e:46:36:e6:46:b4:0b:b4:e3:f6:55:
         6f:6e:08:ee:b7:a2:aa:51:a6:74:73:43:62:c6:0d:9b:55:e5:
         a6:d7:02:27
-----BEGIN CERTIFICATE-----
MIIDeDCCAmCgAwIBAgIRAJ0fTrr2mif6VTn1VfIub+QwDQYJKoZIhvcNAQELBQAw
FjEUMBIGA1UEAwwLdGVhbTE4NC1uZXQwHhcNMjEwOTEzMDAyMjIxWhcNMjQwODI4
MDAyMjIxWjAZMRcwFQYDVQQDDA50ZWFtMTg0LXNlcnZlcjCCASIwDQYJKoZIhvcN
AQEBBQADggEPADCCAQoCggEBAMSJUpGCMADTQAgkvp/yiRRW++7zlWnYuE24T2OW
Y76nBM6Z67DfOgo5LmxW/Myxx5dRXsJ28Lu8JkPSfWtrkERKf3M76Jwgq7LIrkGq
j/nXcj41TFqrBq8H8xchSaXouap8qgBNmQepDLMh3lYua7TAy0ShVsX++0Xo3szD
aTuHL+zZYMxtcrRrhS48QqK+Wz+VuofY3NuxW7VxkfSExrzGwxp1Ip8yo1GsosZm
fdZSXAsUe2rCIH03bkrXQLebOsBrcgIRG8WFj1UzLjOQ8zQ68I5oUGwWIJuqDuxD
7wM3caGxdI288pPT+41PUnHpNNc0jP39hjNP1fN7k89VNhECAwEAAaOBvTCBujAJ
BgNVHRMEAjAAMB0GA1UdDgQWBBTVHpA1qbvtDpaXLFzl40eLZPX2iTBRBgNVHSME
SjBIgBQiiyKhquSflnn4TlskTPr/BnkfOaEapBgwFjEUMBIGA1UEAwwLdGVhbTE4
NC1uZXSCFAd5LT78y7drmMrvXtoMhdMXnrdJMBMGA1UdJQQMMAoGCCsGAQUFBwMB
MAsGA1UdDwQEAwIFoDAZBgNVHREEEjAQgg50ZWFtMTg0LXNlcnZlcjANBgkqhkiG
9w0BAQsFAAOCAQEALLHP0NX/0ME9RtF5Hqs9k0Ok+IAWf5ouNUU8JPliRGspuCKu
Y4c2oIt/pWAwZGM2qlVv0oqQnjfSpHOImZ+5JWQEGq6wmCmpzOmVTyfMVoMSVj8T
GCo3CPH+F1YmPnla04hg/yjvN5GoDH/YjEbEUb8Ny+J/PTfboco2zGvaSJ10B3BC
eDl1qgIhhLYJjWe+h9Lnd4UsHhRfKYOzB+jKuomF0ImGKZkQlvX5nGTxHkZJeRJ7
pyJwIyM68UP7i6ZGA1t8UUiSTMHOIHUVKuJpf0mikctxafgX0tPBn6Vb3E5GNuZG
tAu04/ZVb24I7reiqlGmdHNDYsYNm1XlptcCJw==
-----END CERTIFICATE-----
