Certificate:
    Data:
        Version: 3 (0x2)
        Serial Number:
            73:8f:bd:7c:ac:2a:8e:60:d0:93:13:8e:8c:9e:bf:33
        Signature Algorithm: sha256WithRSAEncryption
        Issuer: CN=team206-net
        Validity
            Not Before: Sep 13 00:38:20 2021 GMT
            Not After : Aug 28 00:38:20 2024 GMT
        Subject: CN=team206-server
        Subject Public Key Info:
            Public Key Algorithm: rsaEncryption
                RSA Public-Key: (2048 bit)
                Modulus:
                    00:e2:f0:3a:03:17:91:12:eb:58:d5:13:6a:bf:a6:
                    07:f6:45:61:c3:86:2a:77:3d:cf:69:b6:22:f0:7d:
                    6e:d8:60:e6:a6:6b:23:e7:58:46:d5:23:27:6a:7c:
                    07:da:5f:02:4c:a4:89:cb:65:dd:8f:83:34:e7:d0:
                    53:01:d8:05:28:c0:9a:29:29:8d:9d:87:9a:60:81:
                    64:ba:22:5b:ca:86:cd:70:73:f9:57:45:c4:3b:eb:
                    b2:69:1d:5a:6c:62:15:17:28:40:71:68:f3:d9:9c:
                    98:9c:58:23:89:38:3b:e2:7e:f3:ed:57:0c:18:78:
                    f6:c6:d9:0e:0c:68:56:8b:23:ed:19:c5:de:40:c5:
                    a2:d2:f6:a0:b2:fe:97:73:e5:22:a8:9e:4f:d8:2b:
                    4a:6a:ae:45:7a:83:eb:c1:d9:84:97:97:4e:22:ae:
                    b0:62:70:70:40:3f:7a:aa:1e:df:c8:0d:44:e7:15:
                    7a:65:b3:7b:4b:e1:75:bb:1f:90:ea:47:4b:17:41:
                    b3:28:5f:9a:b3:05:1d:10:e1:5b:d8:8a:ee:53:ac:
                    cc:c2:b0:74:92:46:b8:e3:b4:c8:bc:30:e6:97:8c:
                    1b:31:2c:14:7b:75:f5:d3:54:1e:f9:99:5a:1a:72:
                    f6:37:14:06:e0:e1:09:17:45:2c:b5:07:5f:64:da:
                    e4:3d
                Exponent: 65537 (0x10001)
        X509v3 extensions:
            X509v3 Basic Constraints: 
                CA:FALSE
            X509v3 Subject Key Identifier: 
                1F:6E:AE:EB:D6:44:BC:4E:B1:7A:59:46:49:87:57:AF:0E:BA:5F:A2
            X509v3 Authority Key Identifier: 
                keyid:F0:68:C4:34:13:81:7E:74:33:41:81:4B:CF:7A:28:2D:0A:AA:E8:75
                DirName:/CN=team206-net
                serial:0F:7A:07:EE:38:BB:E6:C0:3A:D1:63:7B:2F:0D:01:E7:F0:52:50:F6

            X509v3 Extended Key Usage: 
                TLS Web Server Authentication
            X509v3 Key Usage: 
                Digital Signature, Key Encipherment
            X509v3 Subject Alternative Name: 
                DNS:team206-server
    Signature Algorithm: sha256WithRSAEncryption
         0c:f3:ad:83:57:cb:1a:ca:5f:da:13:24:64:08:02:2f:d2:27:
         37:4b:a5:7d:31:7f:ca:6f:88:e2:3d:c8:d7:a6:df:5c:43:a1:
         27:0f:3f:80:d5:ea:88:ac:07:23:70:e7:9c:89:c4:50:a7:2b:
         c6:37:27:b8:ed:a1:30:d4:15:e6:f0:27:2d:40:b5:2f:c4:69:
         6a:56:a0:90:94:49:c2:ca:59:e6:95:73:3f:73:df:ad:fa:12:
         2a:58:b8:de:52:74:64:73:9e:a2:06:21:38:4d:21:79:04:5e:
         48:2d:95:4f:8b:04:fe:3b:bf:0f:9e:f3:cc:2e:17:4b:57:1e:
         c4:92:f7:7b:cc:9a:25:78:66:da:96:64:db:17:72:f6:fb:03:
         d4:76:6a:13:14:23:a5:2c:44:90:db:62:1f:5c:7f:be:b7:83:
         2a:21:a2:43:b5:b0:48:87:71:5c:02:37:77:b8:9b:71:b0:f9:
         3a:b3:c0:65:53:e9:91:d8:47:a9:9c:18:c0:5a:fc:97:5a:d7:
         e7:95:c6:f6:75:45:74:78:98:e0:55:4c:91:4c:fd:19:d7:4f:
         c9:aa:ad:72:5d:7e:10:af:77:3f:76:f3:c6:26:6f:f0:66:9f:
         34:d1:28:28:d7:5f:76:47:98:85:37:1f:13:56:c0:89:96:87:
         ed:8c:44:dd
-----BEGIN CERTIFICATE-----
MIIDdzCCAl+gAwIBAgIQc4+9fKwqjmDQkxOOjJ6/MzANBgkqhkiG9w0BAQsFADAW
MRQwEgYDVQQDDAt0ZWFtMjA2LW5ldDAeFw0yMTA5MTMwMDM4MjBaFw0yNDA4Mjgw
MDM4MjBaMBkxFzAVBgNVBAMMDnRlYW0yMDYtc2VydmVyMIIBIjANBgkqhkiG9w0B
AQEFAAOCAQ8AMIIBCgKCAQEA4vA6AxeREutY1RNqv6YH9kVhw4Yqdz3PabYi8H1u
2GDmpmsj51hG1SMnanwH2l8CTKSJy2Xdj4M059BTAdgFKMCaKSmNnYeaYIFkuiJb
yobNcHP5V0XEO+uyaR1abGIVFyhAcWjz2ZyYnFgjiTg74n7z7VcMGHj2xtkODGhW
iyPtGcXeQMWi0vagsv6Xc+UiqJ5P2CtKaq5FeoPrwdmEl5dOIq6wYnBwQD96qh7f
yA1E5xV6ZbN7S+F1ux+Q6kdLF0GzKF+aswUdEOFb2IruU6zMwrB0kka447TIvDDm
l4wbMSwUe3X101Qe+ZlaGnL2NxQG4OEJF0UstQdfZNrkPQIDAQABo4G9MIG6MAkG
A1UdEwQCMAAwHQYDVR0OBBYEFB9uruvWRLxOsXpZRkmHV68Oul+iMFEGA1UdIwRK
MEiAFPBoxDQTgX50M0GBS896KC0Kquh1oRqkGDAWMRQwEgYDVQQDDAt0ZWFtMjA2
LW5ldIIUD3oH7ji75sA60WN7Lw0B5/BSUPYwEwYDVR0lBAwwCgYIKwYBBQUHAwEw
CwYDVR0PBAQDAgWgMBkGA1UdEQQSMBCCDnRlYW0yMDYtc2VydmVyMA0GCSqGSIb3
DQEBCwUAA4IBAQAM862DV8sayl/aEyRkCAIv0ic3S6V9MX/Kb4jiPcjXpt9cQ6En
Dz+A1eqIrAcjcOecicRQpyvGNye47aEw1BXm8CctQLUvxGlqVqCQlEnCylnmlXM/
c9+t+hIqWLjeUnRkc56iBiE4TSF5BF5ILZVPiwT+O78PnvPMLhdLVx7Ekvd7zJol
eGbalmTbF3L2+wPUdmoTFCOlLESQ22IfXH++t4MqIaJDtbBIh3FcAjd3uJtxsPk6
s8BlU+mR2EepnBjAWvyXWtfnlcb2dUV0eJjgVUyRTP0Z10/Jqq1yXX4Qr3c/dvPG
Jm/wZp800Sgo1192R5iFNx8TVsCJloftjETd
-----END CERTIFICATE-----
