Certificate:
    Data:
        Version: 3 (0x2)
        Serial Number:
            df:0a:58:56:7b:d9:7d:f4:f1:a4:e7:2f:13:d1:c9:c1
        Signature Algorithm: sha256WithRSAEncryption
        Issuer: CN=team658-net
        Validity
            Not Before: Sep 13 04:26:32 2021 GMT
            Not After : Aug 28 04:26:32 2024 GMT
        Subject: CN=team658-server
        Subject Public Key Info:
            Public Key Algorithm: rsaEncryption
                RSA Public-Key: (2048 bit)
                Modulus:
                    00:b0:ec:94:bd:35:cb:b0:36:c0:2f:2f:ff:e2:dc:
                    57:b6:fe:31:68:f4:ac:e3:2d:02:00:b9:e0:5a:32:
                    a6:6d:eb:93:3f:a9:5a:ab:2f:1c:a3:11:b8:09:c4:
                    f6:db:de:16:f8:90:7c:42:7b:76:18:f7:dd:de:a9:
                    a1:25:a1:7c:d1:6a:db:ee:0d:9e:e5:e0:04:2f:27:
                    7b:87:ee:e4:bc:e2:4d:7b:ec:bf:2d:12:00:8a:d9:
                    8f:c5:a8:03:14:3d:ed:cb:89:40:cd:3c:c3:8b:4c:
                    3b:26:00:6f:42:a9:03:d7:86:cc:6b:6a:9d:79:e3:
                    61:0a:de:c3:09:14:c9:d6:b4:bb:ed:63:b1:f3:be:
                    3f:a9:09:80:d4:6e:ef:17:f4:bc:89:1f:50:94:c1:
                    a2:6e:71:7a:60:9f:fd:17:17:b6:2e:26:ff:52:76:
                    d8:61:63:ad:bf:de:26:fc:03:a2:56:00:13:e4:c7:
                    5f:e7:c4:f8:75:fa:8f:dc:ce:c4:2a:31:72:90:52:
                    68:fd:59:5d:85:f7:37:7a:ec:6c:06:2f:d2:ba:e8:
                    cd:ce:52:7e:6a:40:53:96:9e:fb:86:4a:80:ce:62:
                    08:d9:15:b5:da:e6:bf:96:df:aa:4b:ee:33:ec:bc:
                    2d:96:2a:d3:c4:c1:1d:75:8d:61:72:a3:18:f3:67:
                    2f:ef
                Exponent: 65537 (0x10001)
        X509v3 extensions:
            X509v3 Basic Constraints: 
                CA:FALSE
            X509v3 Subject Key Identifier: 
                AC:B0:CB:24:0A:84:C7:5A:17:54:4C:4C:F0:DD:B0:39:CC:C6:03:B7
            X509v3 Authority Key Identifier: 
                keyid:4A:7C:17:7B:94:3B:CB:C9:F7:8D:4D:63:63:96:9C:CE:02:E7:AC:9D
                DirName:/CN=team658-net
                serial:51:F5:EC:BF:22:ED:AF:EF:90:1F:43:2E:C1:0D:09:48:A5:CA:44:E4

            X509v3 Extended Key Usage: 
                TLS Web Server Authentication
            X509v3 Key Usage: 
                Digital Signature, Key Encipherment
            X509v3 Subject Alternative Name: 
                DNS:team658-server
    Signature Algorithm: sha256WithRSAEncryption
         cf:96:9d:34:26:25:26:50:99:34:92:fb:40:6a:d6:51:f4:df:
         0a:9d:30:08:e5:e1:d1:42:24:e6:2b:11:7e:7b:1b:94:cd:73:
         7c:49:42:fc:ad:11:ef:55:20:2c:57:4c:da:eb:49:7a:25:26:
         76:60:0f:57:df:54:6b:2b:33:52:38:95:03:25:3e:2d:07:d8:
         08:6b:15:e9:68:5d:b3:30:af:af:6a:68:0b:32:8d:05:94:09:
         6e:57:2f:e5:5f:ad:b7:6a:54:63:9d:be:fd:fb:4a:2b:7e:5f:
         c7:ac:80:8c:b9:8c:f3:bc:bb:16:77:e7:1f:57:da:e2:c6:aa:
         51:ca:f0:fa:01:f0:02:be:2f:1c:a1:14:81:86:30:eb:61:6d:
         29:c5:41:af:70:15:33:43:11:c2:fe:87:37:d9:d4:11:76:bd:
         5c:6e:42:3f:25:34:cb:d1:32:99:3f:22:59:30:9c:c1:0d:60:
         7d:03:ac:d9:0a:ea:b2:8f:b3:93:fc:26:c7:b1:00:88:f2:21:
         65:14:97:38:2a:ee:76:1c:a4:fc:ed:3e:3a:8a:7e:97:b6:a4:
         68:20:c4:f4:77:dd:44:93:0f:67:95:4f:cf:0b:e5:17:a7:bc:
         85:6f:1b:e8:e3:05:0f:17:f9:0b:a3:bc:c6:2c:40:7f:6e:6e:
         fe:96:1f:f3
-----BEGIN CERTIFICATE-----
MIIDeDCCAmCgAwIBAgIRAN8KWFZ72X308aTnLxPRycEwDQYJKoZIhvcNAQELBQAw
FjEUMBIGA1UEAwwLdGVhbTY1OC1uZXQwHhcNMjEwOTEzMDQyNjMyWhcNMjQwODI4
MDQyNjMyWjAZMRcwFQYDVQQDDA50ZWFtNjU4LXNlcnZlcjCCASIwDQYJKoZIhvcN
AQEBBQADggEPADCCAQoCggEBALDslL01y7A2wC8v/+LcV7b+MWj0rOMtAgC54Foy
pm3rkz+pWqsvHKMRuAnE9tveFviQfEJ7dhj33d6poSWhfNFq2+4NnuXgBC8ne4fu
5LziTXvsvy0SAIrZj8WoAxQ97cuJQM08w4tMOyYAb0KpA9eGzGtqnXnjYQrewwkU
yda0u+1jsfO+P6kJgNRu7xf0vIkfUJTBom5xemCf/RcXti4m/1J22GFjrb/eJvwD
olYAE+THX+fE+HX6j9zOxCoxcpBSaP1ZXYX3N3rsbAYv0rrozc5SfmpAU5ae+4ZK
gM5iCNkVtdrmv5bfqkvuM+y8LZYq08TBHXWNYXKjGPNnL+8CAwEAAaOBvTCBujAJ
BgNVHRMEAjAAMB0GA1UdDgQWBBSssMskCoTHWhdUTEzw3bA5zMYDtzBRBgNVHSME
SjBIgBRKfBd7lDvLyfeNTWNjlpzOAuesnaEapBgwFjEUMBIGA1UEAwwLdGVhbTY1
OC1uZXSCFFH17L8i7a/vkB9DLsENCUilykTkMBMGA1UdJQQMMAoGCCsGAQUFBwMB
MAsGA1UdDwQEAwIFoDAZBgNVHREEEjAQgg50ZWFtNjU4LXNlcnZlcjANBgkqhkiG
9w0BAQsFAAOCAQEAz5adNCYlJlCZNJL7QGrWUfTfCp0wCOXh0UIk5isRfnsblM1z
fElC/K0R71UgLFdM2utJeiUmdmAPV99UayszUjiVAyU+LQfYCGsV6WhdszCvr2po
CzKNBZQJblcv5V+tt2pUY52+/ftKK35fx6yAjLmM87y7FnfnH1fa4saqUcrw+gHw
Ar4vHKEUgYYw62FtKcVBr3AVM0MRwv6HN9nUEXa9XG5CPyU0y9EymT8iWTCcwQ1g
fQOs2Qrqso+zk/wmx7EAiPIhZRSXOCrudhyk/O0+Oop+l7akaCDE9HfdRJMPZ5VP
zwvlF6e8hW8b6OMFDxf5C6O8xixAf25u/pYf8w==
-----END CERTIFICATE-----
