Certificate:
    Data:
        Version: 3 (0x2)
        Serial Number:
            d8:f1:02:a7:13:72:43:d0:a8:a1:4d:b7:38:ca:3b:ef
        Signature Algorithm: sha256WithRSAEncryption
        Issuer: CN=team715-net
        Validity
            Not Before: Sep 13 05:30:46 2021 GMT
            Not After : Aug 28 05:30:46 2024 GMT
        Subject: CN=team715-client
        Subject Public Key Info:
            Public Key Algorithm: rsaEncryption
                RSA Public-Key: (2048 bit)
                Modulus:
                    00:a8:b5:15:e1:8e:f8:7f:4c:45:b3:a7:50:da:89:
                    2b:c2:1d:95:6b:8b:e4:96:20:5e:db:e8:91:41:9f:
                    c7:c0:0b:ff:77:b0:ff:c2:95:03:0d:8a:91:7b:5d:
                    cf:de:56:2c:0c:f9:ef:c4:23:d0:06:3d:68:79:26:
                    f0:dd:c8:db:d3:0c:51:a1:db:35:b7:e4:a5:ac:ba:
                    7c:11:63:a7:86:ee:e9:b1:2c:4c:91:66:4c:8a:5d:
                    a0:b4:da:ff:e0:0c:49:f1:18:19:e0:93:4d:c1:2b:
                    4a:70:67:af:0a:f9:24:bb:ff:29:cc:b4:5e:60:e1:
                    e6:1e:a6:67:c2:c1:20:7d:4d:1d:80:ff:f5:fd:2b:
                    ee:3e:78:8a:ce:1a:0f:38:5c:7a:c2:59:90:fd:03:
                    43:a2:82:bc:c3:35:fa:f0:c5:46:ea:ca:63:20:14:
                    d3:af:65:0c:97:4c:55:2e:6f:91:17:6d:b1:d5:40:
                    af:06:65:26:53:87:69:d5:41:72:b9:e3:54:11:14:
                    ac:f0:b2:dd:4a:39:b0:4e:7c:04:54:24:88:8f:c0:
                    a3:98:fc:c6:af:42:39:82:79:21:10:8a:7a:40:5a:
                    fc:f8:d0:10:7c:03:5e:7d:9b:01:15:85:66:e2:d6:
                    7e:e8:07:fc:5d:d8:de:95:a0:52:23:3d:35:bb:00:
                    da:f7
                Exponent: 65537 (0x10001)
        X509v3 extensions:
            X509v3 Basic Constraints: 
                CA:FALSE
            X509v3 Subject Key Identifier: 
                F6:7F:E1:52:E0:4C:9D:5B:81:B2:01:76:DD:1F:00:A9:30:06:E7:57
            X509v3 Authority Key Identifier: 
                keyid:13:4C:8A:D1:3E:1C:CA:56:82:68:8D:E1:BC:81:83:89:4B:DF:05:F2
                DirName:/CN=team715-net
                serial:E8:87:DA:FF:C8:BD:76:DE:AA:80:1F:C7:F5:2F:ED:6F:3E:9B:10

            X509v3 Extended Key Usage: 
                TLS Web Client Authentication
            X509v3 Key Usage: 
                Digital Signature
    Signature Algorithm: sha256WithRSAEncryption
         7c:19:15:76:22:80:fd:83:2b:d0:de:9a:40:f8:c2:ca:c1:83:
         a5:c0:ad:cd:02:0a:fb:48:28:5b:88:0a:0d:05:85:86:db:58:
         f7:6f:f1:f6:2b:a8:f2:04:92:f2:8a:54:ea:cd:18:c5:2d:0a:
         e6:2f:b4:1d:57:85:02:d6:ef:ba:2f:2f:db:db:c4:b7:7b:8e:
         68:7b:03:0d:22:95:a2:74:aa:8f:6f:42:4f:1a:4b:29:04:20:
         5d:c5:65:22:31:fc:1a:46:2a:b6:19:c7:a1:c5:13:9d:15:50:
         7f:35:ca:04:e2:fc:2d:09:98:d3:f3:d4:d6:e6:6a:ff:7c:8c:
         1c:92:03:03:42:95:d1:d6:da:cc:69:a9:14:18:35:4f:d3:f7:
         eb:68:1b:64:4b:ac:c6:dc:dd:f9:a7:a9:2f:66:9a:2e:ca:3b:
         8c:73:5e:20:52:9a:fa:7c:c2:4f:f8:72:6e:a0:04:d4:25:f2:
         48:da:23:07:52:8d:e0:cd:3d:82:59:6e:c4:e0:1b:2c:bc:1a:
         ee:9c:70:e6:98:17:42:82:b7:05:c8:02:d8:10:6d:80:23:65:
         2d:53:3f:4e:6e:2f:eb:65:97:45:47:f4:9b:28:ad:bf:4e:69:
         b3:09:25:3c:e9:53:79:7f:49:f6:11:2e:fa:d1:8e:06:02:63:
         95:de:85:22
-----BEGIN CERTIFICATE-----
MIIDXTCCAkWgAwIBAgIRANjxAqcTckPQqKFNtzjKO+8wDQYJKoZIhvcNAQELBQAw
FjEUMBIGA1UEAwwLdGVhbTcxNS1uZXQwHhcNMjEwOTEzMDUzMDQ2WhcNMjQwODI4
MDUzMDQ2WjAZMRcwFQYDVQQDDA50ZWFtNzE1LWNsaWVudDCCASIwDQYJKoZIhvcN
AQEBBQADggEPADCCAQoCggEBAKi1FeGO+H9MRbOnUNqJK8IdlWuL5JYgXtvokUGf
x8AL/3ew/8KVAw2KkXtdz95WLAz578Qj0AY9aHkm8N3I29MMUaHbNbfkpay6fBFj
p4bu6bEsTJFmTIpdoLTa/+AMSfEYGeCTTcErSnBnrwr5JLv/Kcy0XmDh5h6mZ8LB
IH1NHYD/9f0r7j54is4aDzhcesJZkP0DQ6KCvMM1+vDFRurKYyAU069lDJdMVS5v
kRdtsdVArwZlJlOHadVBcrnjVBEUrPCy3Uo5sE58BFQkiI/Ao5j8xq9COYJ5IRCK
ekBa/PjQEHwDXn2bARWFZuLWfugH/F3Y3pWgUiM9NbsA2vcCAwEAAaOBojCBnzAJ
BgNVHRMEAjAAMB0GA1UdDgQWBBT2f+FS4EydW4GyAXbdHwCpMAbnVzBRBgNVHSME
SjBIgBQTTIrRPhzKVoJojeG8gYOJS98F8qEapBgwFjEUMBIGA1UEAwwLdGVhbTcx
NS1uZXSCFADoh9r/yL123qqAH8f1L+1vPpsQMBMGA1UdJQQMMAoGCCsGAQUFBwMC
MAsGA1UdDwQEAwIHgDANBgkqhkiG9w0BAQsFAAOCAQEAfBkVdiKA/YMr0N6aQPjC
ysGDpcCtzQIK+0goW4gKDQWFhttY92/x9iuo8gSS8opU6s0YxS0K5i+0HVeFAtbv
ui8v29vEt3uOaHsDDSKVonSqj29CTxpLKQQgXcVlIjH8GkYqthnHocUTnRVQfzXK
BOL8LQmY0/PU1uZq/3yMHJIDA0KV0dbazGmpFBg1T9P362gbZEusxtzd+aepL2aa
Lso7jHNeIFKa+nzCT/hybqAE1CXySNojB1KN4M09glluxOAbLLwa7pxw5pgXQoK3
BcgC2BBtgCNlLVM/Tm4v62WXRUf0myitv05pswklPOlTeX9J9hEu+tGOBgJjld6F
Ig==
-----END CERTIFICATE-----
