Certificate:
    Data:
        Version: 3 (0x2)
        Serial Number:
            66:08:78:59:e4:f0:84:7f:b8:07:72:61:50:b2:b6:3c
        Signature Algorithm: sha256WithRSAEncryption
        Issuer: CN=team386-net
        Validity
            Not Before: Sep 13 02:12:13 2021 GMT
            Not After : Aug 28 02:12:13 2024 GMT
        Subject: CN=team386-client
        Subject Public Key Info:
            Public Key Algorithm: rsaEncryption
                RSA Public-Key: (2048 bit)
                Modulus:
                    00:d3:df:a9:fb:18:05:d2:b6:43:f3:fb:f8:9c:dd:
                    38:f5:25:aa:72:27:d4:7c:62:ab:d7:35:38:8e:ec:
                    1d:d9:0f:98:27:7f:b0:58:22:5b:58:1f:19:27:66:
                    03:c6:57:e7:d6:dc:70:f1:cf:80:ee:af:2f:24:02:
                    8f:10:d1:59:17:64:bf:90:1a:65:27:59:f1:23:92:
                    16:26:4f:0d:b2:8e:67:a2:31:b4:03:77:7d:3d:26:
                    55:92:e6:f7:f4:4f:37:55:01:6a:7c:2e:8a:09:e5:
                    72:37:61:fe:a6:ed:1d:8f:8c:de:73:b5:40:21:06:
                    c2:03:59:b1:78:76:ed:d1:af:fa:51:fb:ea:27:30:
                    8b:d6:1f:e8:88:9e:d1:b7:1b:1d:45:10:5a:a9:98:
                    fc:a2:00:f0:01:51:43:dc:74:37:a1:87:08:5e:74:
                    b2:96:5a:5c:d2:a1:3e:89:70:c5:c1:a8:ae:51:33:
                    16:36:18:48:c9:e4:d2:89:99:43:8e:93:56:25:2a:
                    21:c8:8e:f7:62:c7:92:8f:01:45:57:36:86:5b:34:
                    60:f8:72:93:4c:4f:bc:6d:da:7d:2c:c1:86:51:60:
                    cf:b0:2e:8e:d2:a7:63:b5:39:13:83:c9:84:2b:34:
                    11:e0:5c:74:ae:ae:36:a3:a8:e5:0c:b0:91:c4:54:
                    81:f1
                Exponent: 65537 (0x10001)
        X509v3 extensions:
            X509v3 Basic Constraints: 
                CA:FALSE
            X509v3 Subject Key Identifier: 
                2B:E0:CA:3B:AB:6C:10:3F:EA:95:8B:83:8C:D0:50:A1:2E:A5:21:66
            X509v3 Authority Key Identifier: 
                keyid:C3:E6:DD:17:FB:94:82:29:74:00:08:75:86:6B:07:B3:EE:DE:56:3C
                DirName:/CN=team386-net
                serial:36:A7:05:EB:13:08:AE:13:67:E4:21:55:BC:7D:4E:7F:71:93:57:CC

            X509v3 Extended Key Usage: 
                TLS Web Client Authentication
            X509v3 Key Usage: 
                Digital Signature
    Signature Algorithm: sha256WithRSAEncryption
         e5:66:fa:64:ca:64:79:e0:e9:0f:7d:ec:71:b7:35:94:89:38:
         d0:fc:a3:6c:c1:8c:cc:26:8a:2e:6d:01:84:0b:7a:6e:15:7b:
         e5:0d:c8:23:af:38:98:cf:27:fd:76:b1:c3:3d:3b:db:bc:7c:
         b7:f8:79:2a:a1:13:0c:bd:7e:42:a6:2d:20:b4:07:61:8e:ab:
         ca:9f:82:e5:1b:3b:d4:44:20:3c:6e:c9:b2:64:b0:e2:72:48:
         31:ed:7c:74:62:30:3d:a7:39:d6:a6:45:fc:1b:b8:f9:43:91:
         4e:a2:ee:62:3e:f1:13:82:3d:25:af:63:6a:d4:ad:f2:f3:e6:
         c7:e4:6a:54:b4:67:eb:ff:da:35:df:5c:a6:44:5f:50:20:ae:
         df:b0:c3:92:ee:db:58:7d:1f:fa:a6:cc:17:65:49:82:7d:2e:
         91:63:46:98:49:17:d9:e4:7f:d1:52:d5:d7:71:48:21:e3:cb:
         7e:64:2d:93:4f:bc:a2:ec:55:f6:3c:54:93:23:5c:59:26:07:
         cd:13:45:cc:dc:72:e8:60:17:fd:d0:90:12:1b:01:27:71:af:
         f3:43:02:fe:fc:ba:b3:ed:67:75:34:50:8f:d2:60:78:64:8b:
         d0:e7:11:67:1b:3e:63:dc:ec:82:31:d2:96:d5:4c:5e:df:00:
         2c:ff:f6:81
-----BEGIN CERTIFICATE-----
MIIDXDCCAkSgAwIBAgIQZgh4WeTwhH+4B3JhULK2PDANBgkqhkiG9w0BAQsFADAW
MRQwEgYDVQQDDAt0ZWFtMzg2LW5ldDAeFw0yMTA5MTMwMjEyMTNaFw0yNDA4Mjgw
MjEyMTNaMBkxFzAVBgNVBAMMDnRlYW0zODYtY2xpZW50MIIBIjANBgkqhkiG9w0B
AQEFAAOCAQ8AMIIBCgKCAQEA09+p+xgF0rZD8/v4nN049SWqcifUfGKr1zU4juwd
2Q+YJ3+wWCJbWB8ZJ2YDxlfn1txw8c+A7q8vJAKPENFZF2S/kBplJ1nxI5IWJk8N
so5nojG0A3d9PSZVkub39E83VQFqfC6KCeVyN2H+pu0dj4zec7VAIQbCA1mxeHbt
0a/6UfvqJzCL1h/oiJ7RtxsdRRBaqZj8ogDwAVFD3HQ3oYcIXnSyllpc0qE+iXDF
waiuUTMWNhhIyeTSiZlDjpNWJSohyI73YseSjwFFVzaGWzRg+HKTTE+8bdp9LMGG
UWDPsC6O0qdjtTkTg8mEKzQR4Fx0rq42o6jlDLCRxFSB8QIDAQABo4GiMIGfMAkG
A1UdEwQCMAAwHQYDVR0OBBYEFCvgyjurbBA/6pWLg4zQUKEupSFmMFEGA1UdIwRK
MEiAFMPm3Rf7lIIpdAAIdYZrB7Pu3lY8oRqkGDAWMRQwEgYDVQQDDAt0ZWFtMzg2
LW5ldIIUNqcF6xMIrhNn5CFVvH1Of3GTV8wwEwYDVR0lBAwwCgYIKwYBBQUHAwIw
CwYDVR0PBAQDAgeAMA0GCSqGSIb3DQEBCwUAA4IBAQDlZvpkymR54OkPfexxtzWU
iTjQ/KNswYzMJooubQGEC3puFXvlDcgjrziYzyf9drHDPTvbvHy3+HkqoRMMvX5C
pi0gtAdhjqvKn4LlGzvURCA8bsmyZLDickgx7Xx0YjA9pznWpkX8G7j5Q5FOou5i
PvETgj0lr2Nq1K3y8+bH5GpUtGfr/9o131ymRF9QIK7fsMOS7ttYfR/6pswXZUmC
fS6RY0aYSRfZ5H/RUtXXcUgh48t+ZC2TT7yi7FX2PFSTI1xZJgfNE0XM3HLoYBf9
0JASGwEnca/zQwL+/Lqz7Wd1NFCP0mB4ZIvQ5xFnGz5j3OyCMdKW1Uxe3wAs//aB
-----END CERTIFICATE-----
