Certificate:
    Data:
        Version: 3 (0x2)
        Serial Number:
            fc:27:c7:ab:da:e5:d6:7c:05:4b:00:48:ff:7d:99:1c
        Signature Algorithm: sha256WithRSAEncryption
        Issuer: CN=team386-net
        Validity
            Not Before: Sep 13 02:12:14 2021 GMT
            Not After : Aug 28 02:12:14 2024 GMT
        Subject: CN=team386-server
        Subject Public Key Info:
            Public Key Algorithm: rsaEncryption
                RSA Public-Key: (2048 bit)
                Modulus:
                    00:cb:79:c5:f6:45:87:d7:e0:99:15:3c:ba:66:ae:
                    6f:1a:54:92:8d:37:da:63:72:63:83:76:6e:12:e9:
                    ce:8f:02:eb:dc:c6:d4:fa:25:d3:04:47:62:66:90:
                    73:45:3f:93:c9:40:6c:0d:b8:aa:ed:79:27:63:21:
                    e2:40:bd:b4:78:20:91:da:74:50:2d:96:ad:e3:24:
                    28:96:a8:ca:29:14:34:c8:ff:dc:75:b5:bd:c9:24:
                    3d:4f:5d:d3:9b:56:54:f5:7b:0a:c2:18:6f:30:c2:
                    fd:26:ea:9a:c7:c2:cd:61:e0:76:eb:6c:12:c4:93:
                    0b:99:6c:bc:7a:9f:ca:3f:6d:17:15:a5:70:86:00:
                    45:9c:b7:42:5c:d0:58:27:e0:d0:bf:ed:17:a5:ee:
                    12:19:69:e5:d5:3a:4a:83:4e:c0:c9:97:c8:2b:0f:
                    e1:be:ec:c0:c6:9b:05:2b:ad:49:5b:a5:42:25:da:
                    f2:ab:4b:95:43:f7:90:89:d8:31:a5:5e:42:a0:a3:
                    10:20:1b:b3:bd:ad:f1:2e:d7:8f:7b:d0:b4:88:04:
                    93:b4:79:11:7e:f1:d7:44:81:58:c6:67:21:c3:35:
                    da:09:32:e0:a7:bd:e9:96:98:41:fe:3c:0b:2c:26:
                    78:cc:45:d3:5e:ce:71:5b:16:7b:d4:a1:27:84:84:
                    fd:c5
                Exponent: 65537 (0x10001)
        X509v3 extensions:
            X509v3 Basic Constraints: 
                CA:FALSE
            X509v3 Subject Key Identifier: 
                A8:CA:07:E3:86:B6:B3:AF:C4:54:EF:C1:01:B8:78:48:12:6E:1A:48
            X509v3 Authority Key Identifier: 
                keyid:C3:E6:DD:17:FB:94:82:29:74:00:08:75:86:6B:07:B3:EE:DE:56:3C
                DirName:/CN=team386-net
                serial:36:A7:05:EB:13:08:AE:13:67:E4:21:55:BC:7D:4E:7F:71:93:57:CC

            X509v3 Extended Key Usage: 
                TLS Web Server Authentication
            X509v3 Key Usage: 
                Digital Signature, Key Encipherment
            X509v3 Subject Alternative Name: 
                DNS:team386-server
    Signature Algorithm: sha256WithRSAEncryption
         87:42:61:59:34:57:8f:ff:2d:e6:77:97:fa:ac:24:8e:fa:4c:
         0d:ea:41:69:18:4f:9b:5f:ef:1c:e3:69:19:9b:13:52:79:99:
         a9:4b:13:3f:d8:25:14:a1:55:d1:bf:2f:be:42:b2:cd:b4:af:
         5a:87:fb:a0:3f:2b:ef:f1:93:cc:77:b7:3b:9b:fb:13:c6:a3:
         e5:7d:49:c6:df:a3:28:28:7e:e7:e8:31:1d:66:89:f8:11:49:
         dc:a4:61:e9:fd:44:25:ab:a2:f5:48:02:47:d6:03:85:f6:98:
         64:c1:69:0b:e4:b7:43:c9:38:b7:42:65:f5:e3:ce:54:5c:3d:
         ff:5f:37:65:99:8b:84:91:61:10:0a:a4:2a:49:77:b0:88:74:
         bd:c8:20:b3:e4:11:38:b8:81:d8:b7:09:88:0c:bb:06:ea:d4:
         86:0b:a7:38:62:67:84:a0:85:01:9c:03:05:b9:8d:7a:41:ae:
         55:69:fb:32:5d:28:c2:dc:ee:3e:15:14:39:b1:12:1a:22:e7:
         12:3e:53:b8:55:cb:24:e2:54:cb:9d:35:3c:29:51:58:10:2a:
         79:16:a9:d5:5e:14:b6:2e:9e:fb:f6:da:cb:4c:87:fe:9f:23:
         6e:65:86:ed:b5:b3:98:82:fc:16:8b:b4:18:69:73:29:1b:92:
         85:aa:a7:c2
-----BEGIN CERTIFICATE-----
MIIDeDCCAmCgAwIBAgIRAPwnx6va5dZ8BUsASP99mRwwDQYJKoZIhvcNAQELBQAw
FjEUMBIGA1UEAwwLdGVhbTM4Ni1uZXQwHhcNMjEwOTEzMDIxMjE0WhcNMjQwODI4
MDIxMjE0WjAZMRcwFQYDVQQDDA50ZWFtMzg2LXNlcnZlcjCCASIwDQYJKoZIhvcN
AQEBBQADggEPADCCAQoCggEBAMt5xfZFh9fgmRU8umaubxpUko032mNyY4N2bhLp
zo8C69zG1Pol0wRHYmaQc0U/k8lAbA24qu15J2Mh4kC9tHggkdp0UC2WreMkKJao
yikUNMj/3HW1vckkPU9d05tWVPV7CsIYbzDC/SbqmsfCzWHgdutsEsSTC5lsvHqf
yj9tFxWlcIYARZy3QlzQWCfg0L/tF6XuEhlp5dU6SoNOwMmXyCsP4b7swMabBSut
SVulQiXa8qtLlUP3kInYMaVeQqCjECAbs72t8S7Xj3vQtIgEk7R5EX7x10SBWMZn
IcM12gky4Ke96ZaYQf48CywmeMxF017OcVsWe9ShJ4SE/cUCAwEAAaOBvTCBujAJ
BgNVHRMEAjAAMB0GA1UdDgQWBBSoygfjhrazr8RU78EBuHhIEm4aSDBRBgNVHSME
SjBIgBTD5t0X+5SCKXQACHWGawez7t5WPKEapBgwFjEUMBIGA1UEAwwLdGVhbTM4
Ni1uZXSCFDanBesTCK4TZ+QhVbx9Tn9xk1fMMBMGA1UdJQQMMAoGCCsGAQUFBwMB
MAsGA1UdDwQEAwIFoDAZBgNVHREEEjAQgg50ZWFtMzg2LXNlcnZlcjANBgkqhkiG
9w0BAQsFAAOCAQEAh0JhWTRXj/8t5neX+qwkjvpMDepBaRhPm1/vHONpGZsTUnmZ
qUsTP9glFKFV0b8vvkKyzbSvWof7oD8r7/GTzHe3O5v7E8aj5X1Jxt+jKCh+5+gx
HWaJ+BFJ3KRh6f1EJaui9UgCR9YDhfaYZMFpC+S3Q8k4t0Jl9ePOVFw9/183ZZmL
hJFhEAqkKkl3sIh0vcggs+QROLiB2LcJiAy7BurUhgunOGJnhKCFAZwDBbmNekGu
VWn7Ml0owtzuPhUUObESGiLnEj5TuFXLJOJUy501PClRWBAqeRap1V4Uti6e+/ba
y0yH/p8jbmWG7bWzmIL8Fou0GGlzKRuShaqnwg==
-----END CERTIFICATE-----
