Certificate:
    Data:
        Version: 3 (0x2)
        Serial Number:
            c1:e7:b4:9f:09:ce:7a:2e:b1:1d:61:6a:5a:19:c2:bb
        Signature Algorithm: sha256WithRSAEncryption
        Issuer: CN=team688-net
        Validity
            Not Before: Sep 13 05:12:21 2021 GMT
            Not After : Aug 28 05:12:21 2024 GMT
        Subject: CN=team688-client
        Subject Public Key Info:
            Public Key Algorithm: rsaEncryption
                RSA Public-Key: (2048 bit)
                Modulus:
                    00:d3:02:fe:33:0c:95:1e:cd:d4:f6:db:76:21:88:
                    f1:c5:c5:1a:9f:29:37:b0:a1:d8:2b:c6:95:3d:89:
                    30:61:6c:86:08:b9:6a:17:bd:11:10:39:49:62:26:
                    c1:3f:7a:bb:2b:7f:1b:f3:09:a7:23:90:79:ff:7e:
                    da:30:4f:2f:ad:97:d4:3e:f8:d5:8b:ab:70:ab:fc:
                    af:15:90:dc:62:91:86:54:4a:94:d1:05:78:e9:90:
                    f8:ce:91:9c:75:8e:83:8b:82:b6:d2:fe:17:95:1c:
                    a5:2c:cf:f4:82:a3:bd:60:2d:af:6d:40:5c:40:1c:
                    82:a8:16:76:40:af:8b:e8:33:cc:2a:74:4f:2f:89:
                    b8:7b:d9:83:44:e5:ca:d9:90:9c:ce:29:09:f3:4e:
                    c2:d2:88:1d:cc:c7:5d:1d:dd:b3:e0:38:78:11:bd:
                    f3:03:e3:6d:1e:81:a9:78:52:ea:3a:fa:bd:72:a6:
                    63:06:03:31:8e:1f:50:8f:72:17:52:20:91:4a:8d:
                    bd:2b:77:ac:b1:7d:6a:f8:b7:86:97:c0:4d:f1:74:
                    9c:7a:61:86:cf:1e:a8:5c:b3:a9:7f:45:ec:56:3d:
                    04:e0:96:2a:83:99:9e:65:2e:77:bb:a1:50:a6:d3:
                    88:6c:39:e9:9d:bc:26:99:a3:84:78:d0:38:cc:66:
                    e3:9b
                Exponent: 65537 (0x10001)
        X509v3 extensions:
            X509v3 Basic Constraints: 
                CA:FALSE
            X509v3 Subject Key Identifier: 
                E7:06:70:7A:1F:05:AB:36:92:45:48:69:C9:77:40:A6:89:D5:15:91
            X509v3 Authority Key Identifier: 
                keyid:80:86:13:09:46:6F:AD:42:96:C0:48:30:DD:2A:06:39:7F:68:54:B0
                DirName:/CN=team688-net
                serial:52:37:F8:CC:A1:5E:6D:56:67:F1:57:CF:C6:D0:01:72:99:AE:06:C7

            X509v3 Extended Key Usage: 
                TLS Web Client Authentication
            X509v3 Key Usage: 
                Digital Signature
    Signature Algorithm: sha256WithRSAEncryption
         6f:34:e4:26:65:8c:a3:a3:cd:e7:77:8b:57:1e:5e:87:2d:0b:
         13:9a:e8:a1:55:83:fa:b9:90:3f:9d:59:a5:62:21:86:23:91:
         3b:39:75:a9:e2:43:76:1a:61:00:11:2d:6d:f4:57:3f:c6:ed:
         b9:2b:bf:d1:c8:f8:7d:43:19:c1:6a:f9:cb:f7:ac:13:49:1e:
         20:89:a0:05:d2:32:1a:79:ce:95:3e:48:c3:f1:08:46:f2:e1:
         13:e4:9a:b5:a0:09:36:b1:8e:20:2f:02:3b:f0:ee:a3:93:10:
         9a:3a:2f:df:55:57:cc:c2:1e:72:d1:a4:e1:47:df:e4:df:88:
         e4:43:4c:88:1e:5a:b3:c8:7b:c4:39:dc:ab:4e:2d:16:58:7e:
         f1:3c:fc:98:ce:80:75:a9:44:0e:d9:be:21:90:40:a7:e3:8e:
         02:d3:2d:42:40:40:54:5e:96:c9:31:cf:d6:0e:94:8e:68:b2:
         02:16:03:47:f5:3d:7f:f6:55:f0:c4:ca:1b:01:d8:82:53:ee:
         24:be:82:b4:1e:dd:23:6a:b2:fb:21:d8:4b:19:fe:b0:bf:0a:
         b8:59:68:e1:a0:89:32:d7:93:84:4d:51:99:67:ba:9f:90:4b:
         ce:21:c9:3a:2f:7b:24:10:46:22:4c:66:5b:a6:2a:2e:79:ad:
         75:78:8f:ea
-----BEGIN CERTIFICATE-----
MIIDXTCCAkWgAwIBAgIRAMHntJ8JznousR1haloZwrswDQYJKoZIhvcNAQELBQAw
FjEUMBIGA1UEAwwLdGVhbTY4OC1uZXQwHhcNMjEwOTEzMDUxMjIxWhcNMjQwODI4
MDUxMjIxWjAZMRcwFQYDVQQDDA50ZWFtNjg4LWNsaWVudDCCASIwDQYJKoZIhvcN
AQEBBQADggEPADCCAQoCggEBANMC/jMMlR7N1PbbdiGI8cXFGp8pN7Ch2CvGlT2J
MGFshgi5ahe9ERA5SWImwT96uyt/G/MJpyOQef9+2jBPL62X1D741YurcKv8rxWQ
3GKRhlRKlNEFeOmQ+M6RnHWOg4uCttL+F5UcpSzP9IKjvWAtr21AXEAcgqgWdkCv
i+gzzCp0Ty+JuHvZg0TlytmQnM4pCfNOwtKIHczHXR3ds+A4eBG98wPjbR6BqXhS
6jr6vXKmYwYDMY4fUI9yF1IgkUqNvSt3rLF9avi3hpfATfF0nHphhs8eqFyzqX9F
7FY9BOCWKoOZnmUud7uhUKbTiGw56Z28JpmjhHjQOMxm45sCAwEAAaOBojCBnzAJ
BgNVHRMEAjAAMB0GA1UdDgQWBBTnBnB6HwWrNpJFSGnJd0CmidUVkTBRBgNVHSME
SjBIgBSAhhMJRm+tQpbASDDdKgY5f2hUsKEapBgwFjEUMBIGA1UEAwwLdGVhbTY4
OC1uZXSCFFI3+MyhXm1WZ/FXz8bQAXKZrgbHMBMGA1UdJQQMMAoGCCsGAQUFBwMC
MAsGA1UdDwQEAwIHgDANBgkqhkiG9w0BAQsFAAOCAQEAbzTkJmWMo6PN53eLVx5e
hy0LE5rooVWD+rmQP51ZpWIhhiOROzl1qeJDdhphABEtbfRXP8btuSu/0cj4fUMZ
wWr5y/esE0keIImgBdIyGnnOlT5Iw/EIRvLhE+SataAJNrGOIC8CO/Duo5MQmjov
31VXzMIectGk4Uff5N+I5ENMiB5as8h7xDncq04tFlh+8Tz8mM6AdalEDtm+IZBA
p+OOAtMtQkBAVF6WyTHP1g6UjmiyAhYDR/U9f/ZV8MTKGwHYglPuJL6CtB7dI2qy
+yHYSxn+sL8KuFlo4aCJMteThE1RmWe6n5BLziHJOi97JBBGIkxmW6YqLnmtdXiP
6g==
-----END CERTIFICATE-----
