Certificate:
    Data:
        Version: 3 (0x2)
        Serial Number:
            90:40:1d:84:5c:8b:17:93:19:52:a7:a4:51:c4:8a:7a
        Signature Algorithm: sha256WithRSAEncryption
        Issuer: CN=team379-net
        Validity
            Not Before: Sep 13 02:10:50 2021 GMT
            Not After : Aug 28 02:10:50 2024 GMT
        Subject: CN=team379-client
        Subject Public Key Info:
            Public Key Algorithm: rsaEncryption
                RSA Public-Key: (2048 bit)
                Modulus:
                    00:e7:64:dd:11:a6:d1:db:3c:b3:4f:14:1f:b3:8b:
                    92:ca:34:bf:3e:17:ca:24:2a:8d:fd:7c:e0:b2:15:
                    25:ee:ce:e0:4d:ff:b1:1a:80:b0:a8:8b:c9:aa:4c:
                    79:25:81:c7:1f:c0:5d:0f:04:37:3f:05:4a:bf:6e:
                    3f:83:62:ab:57:d6:77:fb:2a:e1:3e:be:f4:69:91:
                    bc:43:a0:25:9d:54:7f:86:20:89:2a:4b:f5:45:39:
                    c4:10:1f:d3:83:15:51:27:56:01:13:77:f8:f8:02:
                    db:97:15:ce:ba:75:46:30:d1:b9:5c:e0:d4:e9:80:
                    00:66:a3:2f:bd:76:ce:21:15:26:17:82:1d:23:5c:
                    96:ae:79:44:dd:17:4b:90:68:ea:0b:15:1f:69:15:
                    f8:ba:5e:33:53:86:8d:53:68:4c:b9:81:19:96:25:
                    34:84:af:95:d1:23:d4:98:49:a1:ca:70:ce:16:52:
                    8c:2f:b0:40:1d:fe:5f:ed:24:88:bb:34:ff:45:26:
                    ab:92:76:34:1f:94:65:0a:3e:e9:68:39:21:53:dd:
                    da:b1:8b:6b:a6:dc:93:97:64:18:bc:c7:ae:d6:d9:
                    d0:6c:82:90:3d:b7:d8:46:9a:5d:4d:9a:25:33:1e:
                    9b:7f:ab:a8:c3:2e:c0:7c:51:9f:b5:f1:9c:3e:98:
                    fb:75
                Exponent: 65537 (0x10001)
        X509v3 extensions:
            X509v3 Basic Constraints: 
                CA:FALSE
            X509v3 Subject Key Identifier: 
                67:6B:A7:E7:CD:9E:3A:4A:30:83:14:59:1E:A1:E2:74:97:A0:CE:07
            X509v3 Authority Key Identifier: 
                keyid:B0:66:DF:7A:95:1A:4A:FA:94:6D:83:0C:B6:28:54:40:0E:B0:0E:61
                DirName:/CN=team379-net
                serial:4A:87:4C:75:D8:00:B8:6A:95:0E:31:C5:1A:D6:C3:8B:75:F5:43:9D

            X509v3 Extended Key Usage: 
                TLS Web Client Authentication
            X509v3 Key Usage: 
                Digital Signature
    Signature Algorithm: sha256WithRSAEncryption
         6f:f5:be:30:44:a8:56:21:5c:44:10:f2:24:34:69:8a:13:7e:
         fa:b3:01:f4:6d:62:f4:aa:89:ab:03:02:3e:d3:bb:7d:48:76:
         4f:e8:a0:7e:54:ce:c7:44:9f:98:53:da:c3:d2:96:af:25:65:
         44:2c:28:bf:1e:4c:81:0a:42:1e:c3:34:12:95:77:48:14:cf:
         2c:6d:37:9a:b9:06:13:07:1d:a2:6e:f0:ac:b1:67:f2:bf:5d:
         c3:cf:dc:2a:a3:4f:cd:f8:5e:6c:85:ff:a3:86:c4:9f:83:f4:
         cc:a4:fe:f6:6a:be:cc:12:5c:56:f4:1a:35:79:af:0a:54:d0:
         5b:b6:11:71:77:13:f0:5c:87:54:7c:83:7c:d4:46:f3:e8:e8:
         0e:cf:6d:4a:83:d3:5d:74:24:52:46:54:98:d0:e7:ed:43:de:
         1f:0e:49:52:62:e8:b2:17:ee:b3:e4:63:aa:a0:82:a1:13:ae:
         76:4d:d3:2d:51:51:e8:7a:67:94:7d:7c:77:1e:5d:f6:06:b1:
         02:87:54:ba:f1:dc:af:38:ac:65:19:5a:b6:4e:b7:f5:fd:73:
         4d:51:d2:be:86:39:b1:02:2b:fb:a3:9d:98:c6:c1:90:a5:29:
         20:56:d5:2f:d4:a6:e6:3b:f3:55:e8:83:01:79:06:2c:6b:1b:
         0a:90:af:f1
-----BEGIN CERTIFICATE-----
MIIDXTCCAkWgAwIBAgIRAJBAHYRcixeTGVKnpFHEinowDQYJKoZIhvcNAQELBQAw
FjEUMBIGA1UEAwwLdGVhbTM3OS1uZXQwHhcNMjEwOTEzMDIxMDUwWhcNMjQwODI4
MDIxMDUwWjAZMRcwFQYDVQQDDA50ZWFtMzc5LWNsaWVudDCCASIwDQYJKoZIhvcN
AQEBBQADggEPADCCAQoCggEBAOdk3RGm0ds8s08UH7OLkso0vz4XyiQqjf184LIV
Je7O4E3/sRqAsKiLyapMeSWBxx/AXQ8ENz8FSr9uP4Niq1fWd/sq4T6+9GmRvEOg
JZ1Uf4YgiSpL9UU5xBAf04MVUSdWARN3+PgC25cVzrp1RjDRuVzg1OmAAGajL712
ziEVJheCHSNclq55RN0XS5Bo6gsVH2kV+LpeM1OGjVNoTLmBGZYlNISvldEj1JhJ
ocpwzhZSjC+wQB3+X+0kiLs0/0Umq5J2NB+UZQo+6Wg5IVPd2rGLa6bck5dkGLzH
rtbZ0GyCkD232EaaXU2aJTMem3+rqMMuwHxRn7XxnD6Y+3UCAwEAAaOBojCBnzAJ
BgNVHRMEAjAAMB0GA1UdDgQWBBRna6fnzZ46SjCDFFkeoeJ0l6DOBzBRBgNVHSME
SjBIgBSwZt96lRpK+pRtgwy2KFRADrAOYaEapBgwFjEUMBIGA1UEAwwLdGVhbTM3
OS1uZXSCFEqHTHXYALhqlQ4xxRrWw4t19UOdMBMGA1UdJQQMMAoGCCsGAQUFBwMC
MAsGA1UdDwQEAwIHgDANBgkqhkiG9w0BAQsFAAOCAQEAb/W+MESoViFcRBDyJDRp
ihN++rMB9G1i9KqJqwMCPtO7fUh2T+igflTOx0SfmFPaw9KWryVlRCwovx5MgQpC
HsM0EpV3SBTPLG03mrkGEwcdom7wrLFn8r9dw8/cKqNPzfhebIX/o4bEn4P0zKT+
9mq+zBJcVvQaNXmvClTQW7YRcXcT8FyHVHyDfNRG8+joDs9tSoPTXXQkUkZUmNDn
7UPeHw5JUmLoshfus+RjqqCCoROudk3TLVFR6HpnlH18dx5d9gaxAodUuvHcrzis
ZRlatk639f1zTVHSvoY5sQIr+6OdmMbBkKUpIFbVL9Sm5jvzVeiDAXkGLGsbCpCv
8Q==
-----END CERTIFICATE-----
