Certificate:
    Data:
        Version: 3 (0x2)
        Serial Number:
            cb:04:0b:9c:34:f4:d0:bd:95:a0:5c:d3:66:04:e6:fb
        Signature Algorithm: sha256WithRSAEncryption
        Issuer: CN=team235-net
        Validity
            Not Before: Sep 13 00:55:38 2021 GMT
            Not After : Aug 28 00:55:38 2024 GMT
        Subject: CN=team235-server
        Subject Public Key Info:
            Public Key Algorithm: rsaEncryption
                RSA Public-Key: (2048 bit)
                Modulus:
                    00:c9:52:32:4b:29:5a:54:59:c4:cd:f4:34:02:de:
                    66:b0:5d:d6:30:a3:06:cd:21:8c:89:11:d3:40:45:
                    fe:33:30:e9:48:c4:92:2e:0a:a7:b5:6e:ae:e8:ff:
                    19:d3:32:88:a8:e6:46:2c:8d:b8:7e:5b:78:1b:ab:
                    e0:3b:62:81:78:ac:b1:7f:d3:8d:19:d2:3a:91:35:
                    83:54:3c:96:c2:4b:dd:42:21:38:28:3a:39:78:ff:
                    6e:c7:b0:da:21:83:58:dd:fe:3a:25:f8:1e:64:18:
                    45:dc:26:06:2f:43:25:80:47:5b:33:29:c3:97:4b:
                    ec:e1:54:05:82:35:cd:48:10:76:47:8f:f6:87:55:
                    de:3b:95:85:c0:93:87:17:b3:b3:ac:61:6d:d5:eb:
                    74:29:b5:01:73:ee:64:04:c0:20:ee:ef:68:97:c6:
                    31:e9:b9:7b:c6:57:83:3f:b2:09:d2:0b:fd:b7:3d:
                    91:9b:f3:f6:f2:cd:ff:8d:0b:26:4b:a4:c8:a1:9c:
                    3f:7f:21:46:18:e6:0b:07:3f:e9:a7:65:83:1b:fe:
                    b7:87:70:ab:df:01:93:37:b9:2e:3b:a1:1e:7d:52:
                    d1:e4:00:1c:41:39:ee:93:5f:94:32:be:76:93:21:
                    3c:c9:63:3c:1c:0a:57:3a:82:22:c2:87:b3:fd:ee:
                    bd:cf
                Exponent: 65537 (0x10001)
        X509v3 extensions:
            X509v3 Basic Constraints: 
                CA:FALSE
            X509v3 Subject Key Identifier: 
                D5:EF:8F:73:CB:77:FE:E1:8D:C7:81:81:36:33:96:7B:36:F9:2D:08
            X509v3 Authority Key Identifier: 
                keyid:0D:C5:10:3F:35:E8:20:81:4D:1C:A6:B3:FF:ED:66:0C:B6:3F:9C:88
                DirName:/CN=team235-net
                serial:6F:A6:BD:B3:54:A8:DC:A5:4A:40:6D:BF:26:9D:FA:03:74:8C:93:4A

            X509v3 Extended Key Usage: 
                TLS Web Server Authentication
            X509v3 Key Usage: 
                Digital Signature, Key Encipherment
            X509v3 Subject Alternative Name: 
                DNS:team235-server
    Signature Algorithm: sha256WithRSAEncryption
         3c:ff:d5:4c:49:7c:e3:ca:84:40:d7:f7:9e:9d:8f:52:f6:92:
         4b:24:a5:7d:29:2c:e8:4b:ec:c6:a5:d8:16:93:cb:42:11:17:
         5e:01:f3:be:54:d3:66:fc:32:d7:68:58:e9:7c:f6:82:8e:77:
         70:78:89:0f:cc:03:16:e4:a5:6f:a2:7c:b9:c4:59:c3:47:2e:
         c7:ca:f1:dd:09:5f:6a:c2:46:a4:67:4b:9f:bc:44:e6:be:88:
         c8:34:26:ca:ad:d6:f0:8e:1b:b0:aa:ea:a7:5a:45:da:f4:e5:
         5e:0b:0d:1a:ce:42:b8:c9:10:df:be:8f:da:ac:cf:dc:06:bc:
         e3:d7:b8:80:3a:e8:2d:6f:9b:a1:8e:68:c9:e3:ab:20:92:db:
         5d:77:28:8e:03:ea:bd:2f:9d:5a:38:aa:c1:1e:9d:6d:72:49:
         9c:9b:09:39:15:bc:ab:10:ed:c5:66:0e:21:43:d4:ec:34:03:
         37:ab:01:da:c5:ae:8b:7a:dd:d5:0b:d2:72:23:6a:c2:ed:37:
         bc:27:6a:1b:6a:41:64:47:33:85:68:b1:60:63:f9:21:3c:58:
         19:31:4a:73:6f:33:68:04:9a:91:f2:77:ea:05:10:1f:58:18:
         ad:56:c5:b9:54:83:e0:78:1e:63:ab:51:b1:e3:7a:9f:b8:b1:
         a5:16:b5:8e
-----BEGIN CERTIFICATE-----
MIIDeDCCAmCgAwIBAgIRAMsEC5w09NC9laBc02YE5vswDQYJKoZIhvcNAQELBQAw
FjEUMBIGA1UEAwwLdGVhbTIzNS1uZXQwHhcNMjEwOTEzMDA1NTM4WhcNMjQwODI4
MDA1NTM4WjAZMRcwFQYDVQQDDA50ZWFtMjM1LXNlcnZlcjCCASIwDQYJKoZIhvcN
AQEBBQADggEPADCCAQoCggEBAMlSMkspWlRZxM30NALeZrBd1jCjBs0hjIkR00BF
/jMw6UjEki4Kp7Vuruj/GdMyiKjmRiyNuH5beBur4DtigXissX/TjRnSOpE1g1Q8
lsJL3UIhOCg6OXj/bsew2iGDWN3+OiX4HmQYRdwmBi9DJYBHWzMpw5dL7OFUBYI1
zUgQdkeP9odV3juVhcCThxezs6xhbdXrdCm1AXPuZATAIO7vaJfGMem5e8ZXgz+y
CdIL/bc9kZvz9vLN/40LJkukyKGcP38hRhjmCwc/6adlgxv+t4dwq98Bkze5Ljuh
Hn1S0eQAHEE57pNflDK+dpMhPMljPBwKVzqCIsKHs/3uvc8CAwEAAaOBvTCBujAJ
BgNVHRMEAjAAMB0GA1UdDgQWBBTV749zy3f+4Y3HgYE2M5Z7NvktCDBRBgNVHSME
SjBIgBQNxRA/NegggU0cprP/7WYMtj+ciKEapBgwFjEUMBIGA1UEAwwLdGVhbTIz
NS1uZXSCFG+mvbNUqNylSkBtvyad+gN0jJNKMBMGA1UdJQQMMAoGCCsGAQUFBwMB
MAsGA1UdDwQEAwIFoDAZBgNVHREEEjAQgg50ZWFtMjM1LXNlcnZlcjANBgkqhkiG
9w0BAQsFAAOCAQEAPP/VTEl848qEQNf3np2PUvaSSySlfSks6EvsxqXYFpPLQhEX
XgHzvlTTZvwy12hY6Xz2go53cHiJD8wDFuSlb6J8ucRZw0cux8rx3QlfasJGpGdL
n7xE5r6IyDQmyq3W8I4bsKrqp1pF2vTlXgsNGs5CuMkQ376P2qzP3Aa849e4gDro
LW+boY5oyeOrIJLbXXcojgPqvS+dWjiqwR6dbXJJnJsJORW8qxDtxWYOIUPU7DQD
N6sB2sWui3rd1QvSciNqwu03vCdqG2pBZEczhWixYGP5ITxYGTFKc28zaASakfJ3
6gUQH1gYrVbFuVSD4HgeY6tRseN6n7ixpRa1jg==
-----END CERTIFICATE-----
