Certificate:
    Data:
        Version: 3 (0x2)
        Serial Number:
            16:0b:f1:9b:f9:d8:eb:22:80:ac:ac:c5:7c:3b:b2:21
        Signature Algorithm: sha256WithRSAEncryption
        Issuer: CN=team12-net
        Validity
            Not Before: Sep 12 22:48:45 2021 GMT
            Not After : Aug 27 22:48:45 2024 GMT
        Subject: CN=team12-server
        Subject Public Key Info:
            Public Key Algorithm: rsaEncryption
                RSA Public-Key: (2048 bit)
                Modulus:
                    00:c3:d2:12:f4:04:4a:30:c8:64:07:ba:cf:ff:ff:
                    52:de:89:49:13:e9:b2:e8:11:5e:46:09:4b:b6:cc:
                    76:ac:0a:7a:79:22:e5:8b:d9:c7:48:e0:b7:45:b7:
                    59:32:51:5b:76:7d:b0:bc:b4:cf:b0:84:d7:f8:fb:
                    79:bb:b0:49:25:d3:c6:85:67:48:b8:1b:7f:53:b7:
                    ac:24:83:cd:a6:be:de:36:01:2e:92:2c:41:86:00:
                    8b:53:8f:21:f6:6c:1b:00:9d:9e:01:a9:f9:40:3b:
                    57:c2:b5:88:c1:c3:92:93:42:fe:8b:cf:e5:54:7a:
                    bf:6a:f8:94:ac:fe:11:16:02:c3:ff:0a:e5:21:15:
                    3e:1b:24:38:46:b3:a5:e0:5e:b6:00:5c:97:55:6e:
                    39:72:3f:57:ec:f5:6f:d9:6d:e2:f4:45:1f:da:de:
                    9e:67:a4:f2:4e:7d:ea:26:7c:dd:ea:a0:2a:04:03:
                    9b:91:ec:b1:f9:d3:b2:d1:a0:39:73:8a:72:c8:f7:
                    3e:00:7c:30:97:18:d5:18:3b:dd:8e:ef:93:95:07:
                    5f:05:f8:b6:f6:98:8b:37:88:a9:5b:90:fa:bf:5b:
                    ea:d3:35:88:1a:e3:07:7b:e6:a1:7b:45:34:37:cb:
                    1d:76:26:53:1d:19:4c:b9:94:de:76:39:5e:c6:09:
                    64:03
                Exponent: 65537 (0x10001)
        X509v3 extensions:
            X509v3 Basic Constraints: 
                CA:FALSE
            X509v3 Subject Key Identifier: 
                D5:8B:A8:EB:9D:8B:9E:42:C1:F9:36:54:F2:85:28:FD:83:6E:B3:73
            X509v3 Authority Key Identifier: 
                keyid:B2:6F:0D:EC:F5:FA:66:CC:A5:2A:BD:8D:64:1C:FC:41:5F:D7:67:CC
                DirName:/CN=team12-net
                serial:78:FA:1C:8E:59:87:7E:26:E7:C7:1A:40:F6:CA:A8:76:B5:F2:AE:82

            X509v3 Extended Key Usage: 
                TLS Web Server Authentication
            X509v3 Key Usage: 
                Digital Signature, Key Encipherment
            X509v3 Subject Alternative Name: 
                DNS:team12-server
    Signature Algorithm: sha256WithRSAEncryption
         49:30:01:b5:83:9c:ac:4a:ee:01:bb:e6:c6:96:b9:14:5b:53:
         70:34:9d:5e:98:ee:89:e9:2c:f8:c4:6f:0c:96:c8:54:a6:92:
         fa:60:9e:d7:4e:5b:56:15:bc:8d:b5:2a:5b:98:3a:34:01:48:
         13:d4:9c:fa:68:d2:9e:83:6a:2f:61:3c:45:d8:d7:35:8f:f6:
         a3:22:08:35:d0:19:ea:56:b6:53:0c:de:87:fc:34:4d:15:35:
         df:3e:ef:84:57:86:26:37:5a:4c:be:c4:99:d8:61:e5:28:55:
         55:52:7b:09:ed:f2:41:c1:91:d8:51:e6:e0:6c:2a:09:ca:2b:
         8a:3b:81:4a:13:ca:9e:ac:12:6f:0e:a2:00:3f:b3:25:9a:f6:
         e8:7b:b0:eb:28:4d:0c:e0:67:0c:0c:69:89:be:63:db:9c:a8:
         b0:24:13:6e:61:e4:c9:37:13:b2:42:29:b2:c7:f6:af:94:20:
         a3:e0:a6:95:93:57:43:b4:84:bf:09:c7:1d:07:dd:eb:b3:cf:
         83:e9:a5:d8:bf:c8:29:4d:30:1d:88:2f:9e:f4:bb:ba:6f:8b:
         ca:12:ba:2f:5e:31:2f:d1:72:ee:25:7a:8e:85:cd:d8:7e:c1:
         6f:35:29:31:6f:16:96:8b:ad:67:19:49:58:da:8d:51:7b:98:
         ab:08:15:66
-----BEGIN CERTIFICATE-----
MIIDczCCAlugAwIBAgIQFgvxm/nY6yKArKzFfDuyITANBgkqhkiG9w0BAQsFADAV
MRMwEQYDVQQDDAp0ZWFtMTItbmV0MB4XDTIxMDkxMjIyNDg0NVoXDTI0MDgyNzIy
NDg0NVowGDEWMBQGA1UEAwwNdGVhbTEyLXNlcnZlcjCCASIwDQYJKoZIhvcNAQEB
BQADggEPADCCAQoCggEBAMPSEvQESjDIZAe6z///Ut6JSRPpsugRXkYJS7bMdqwK
enki5YvZx0jgt0W3WTJRW3Z9sLy0z7CE1/j7ebuwSSXTxoVnSLgbf1O3rCSDzaa+
3jYBLpIsQYYAi1OPIfZsGwCdngGp+UA7V8K1iMHDkpNC/ovP5VR6v2r4lKz+ERYC
w/8K5SEVPhskOEazpeBetgBcl1VuOXI/V+z1b9lt4vRFH9renmek8k596iZ83eqg
KgQDm5HssfnTstGgOXOKcsj3PgB8MJcY1Rg73Y7vk5UHXwX4tvaYizeIqVuQ+r9b
6tM1iBrjB3vmoXtFNDfLHXYmUx0ZTLmU3nY5XsYJZAMCAwEAAaOBuzCBuDAJBgNV
HRMEAjAAMB0GA1UdDgQWBBTVi6jrnYueQsH5NlTyhSj9g26zczBQBgNVHSMESTBH
gBSybw3s9fpmzKUqvY1kHPxBX9dnzKEZpBcwFTETMBEGA1UEAwwKdGVhbTEyLW5l
dIIUePocjlmHfibnxxpA9sqodrXyroIwEwYDVR0lBAwwCgYIKwYBBQUHAwEwCwYD
VR0PBAQDAgWgMBgGA1UdEQQRMA+CDXRlYW0xMi1zZXJ2ZXIwDQYJKoZIhvcNAQEL
BQADggEBAEkwAbWDnKxK7gG75saWuRRbU3A0nV6Y7onpLPjEbwyWyFSmkvpgntdO
W1YVvI21KluYOjQBSBPUnPpo0p6Dai9hPEXY1zWP9qMiCDXQGepWtlMM3of8NE0V
Nd8+74RXhiY3Wky+xJnYYeUoVVVSewnt8kHBkdhR5uBsKgnKK4o7gUoTyp6sEm8O
ogA/syWa9uh7sOsoTQzgZwwMaYm+Y9ucqLAkE25h5Mk3E7JCKbLH9q+UIKPgppWT
V0O0hL8Jxx0H3euzz4Pppdi/yClNMB2IL570u7pvi8oSui9eMS/Rcu4leo6Fzdh+
wW81KTFvFpaLrWcZSVjajVF7mKsIFWY=
-----END CERTIFICATE-----
