Certificate:
    Data:
        Version: 3 (0x2)
        Serial Number:
            9f:99:58:c0:43:ec:2f:80:2e:24:24:fa:84:b5:8f:e9
        Signature Algorithm: sha256WithRSAEncryption
        Issuer: CN=team101-net
        Validity
            Not Before: Sep 12 23:39:03 2021 GMT
            Not After : Aug 27 23:39:03 2024 GMT
        Subject: CN=team101-server
        Subject Public Key Info:
            Public Key Algorithm: rsaEncryption
                RSA Public-Key: (2048 bit)
                Modulus:
                    00:ce:70:9a:3a:3c:47:98:c1:28:22:45:48:a2:83:
                    62:92:58:c9:4e:ee:6c:a9:4f:ab:2f:e7:36:95:af:
                    76:c0:28:79:30:ef:2b:48:11:18:c6:0b:15:a0:0b:
                    c1:53:5c:81:13:64:7d:60:17:fa:a6:9a:69:69:87:
                    a2:e8:d7:75:a2:7a:19:85:ce:e6:d5:b9:59:75:74:
                    df:b6:84:77:6b:06:57:f4:90:1d:29:75:bf:85:01:
                    0d:4a:b6:33:7d:39:b6:5c:41:f0:e2:07:cd:69:50:
                    77:9a:ad:3a:f7:27:ca:24:24:2f:b5:fb:b9:04:c0:
                    45:e5:d2:3b:da:81:e2:0b:d2:d8:70:bd:8f:74:27:
                    d5:43:a6:4f:99:8e:2b:72:d1:fb:21:bd:fc:19:e9:
                    b1:bc:d3:10:ac:30:2e:ac:65:4a:37:29:ed:4b:bc:
                    8e:5d:53:5c:2c:c2:4a:95:a5:20:04:02:2e:e8:c5:
                    2f:34:20:d5:25:0e:6e:ac:1b:c7:26:58:16:2f:65:
                    00:f2:0b:25:82:80:e1:f2:c3:fe:f5:15:53:44:1f:
                    14:0e:59:dc:6f:96:36:70:38:ac:5a:7a:be:31:ee:
                    09:44:0c:86:fb:ae:b2:76:98:59:4f:0e:83:6d:d0:
                    8e:06:1f:51:6d:5b:96:6b:a8:77:cb:84:93:28:5d:
                    88:2b
                Exponent: 65537 (0x10001)
        X509v3 extensions:
            X509v3 Basic Constraints: 
                CA:FALSE
            X509v3 Subject Key Identifier: 
                C5:2C:FC:60:7E:1A:C9:5A:1D:3F:25:A4:40:FB:05:2D:97:64:48:C7
            X509v3 Authority Key Identifier: 
                keyid:D3:38:08:C3:E8:B4:C7:01:62:94:92:F5:5B:9F:77:3B:66:C6:97:A9
                DirName:/CN=team101-net
                serial:51:6C:0F:2C:66:E2:2B:F6:9A:84:44:25:BF:EB:F8:20:54:FD:3A:CD

            X509v3 Extended Key Usage: 
                TLS Web Server Authentication
            X509v3 Key Usage: 
                Digital Signature, Key Encipherment
            X509v3 Subject Alternative Name: 
                DNS:team101-server
    Signature Algorithm: sha256WithRSAEncryption
         ca:62:f3:02:39:2b:15:33:02:22:70:02:24:7d:9a:c0:6a:01:
         91:21:78:67:db:5e:d1:94:24:5e:af:0e:1a:67:60:b2:59:a4:
         51:fb:69:e9:08:57:59:9c:a6:7d:0b:92:f4:d9:e7:ad:41:4a:
         b8:12:97:61:fe:18:31:1e:62:4b:8e:d6:bd:bd:a5:ab:7b:0d:
         75:e9:1e:ec:06:5d:e7:71:82:c2:ac:46:a5:45:1d:09:91:cd:
         f7:68:85:72:63:c5:73:d3:b8:1d:18:85:d5:96:f4:5d:03:f2:
         e2:15:fa:ba:4f:19:ed:f5:a2:e4:77:70:46:1d:4e:75:12:1c:
         9b:4a:ff:83:46:87:5c:c9:ff:17:8b:d5:bb:2a:09:1b:c4:a4:
         39:4b:8c:22:70:b1:93:36:5b:60:8d:65:42:dd:93:81:c6:e4:
         f3:b3:15:97:37:2d:04:06:91:12:31:2d:bc:c1:df:e2:2d:3a:
         c6:d6:83:24:c8:2c:31:0a:09:01:4c:ba:e2:ff:c6:6a:30:13:
         31:cb:a9:52:6e:40:e4:0e:b1:bc:6d:6b:1a:73:f1:af:9c:12:
         70:9b:fb:64:df:e3:f3:1e:f9:b9:01:3b:ba:36:35:1c:df:92:
         27:07:70:ff:49:45:cf:f6:46:26:a7:f9:ac:3a:45:d7:df:73:
         ee:f4:09:9f
-----BEGIN CERTIFICATE-----
MIIDeDCCAmCgAwIBAgIRAJ+ZWMBD7C+ALiQk+oS1j+kwDQYJKoZIhvcNAQELBQAw
FjEUMBIGA1UEAwwLdGVhbTEwMS1uZXQwHhcNMjEwOTEyMjMzOTAzWhcNMjQwODI3
MjMzOTAzWjAZMRcwFQYDVQQDDA50ZWFtMTAxLXNlcnZlcjCCASIwDQYJKoZIhvcN
AQEBBQADggEPADCCAQoCggEBAM5wmjo8R5jBKCJFSKKDYpJYyU7ubKlPqy/nNpWv
dsAoeTDvK0gRGMYLFaALwVNcgRNkfWAX+qaaaWmHoujXdaJ6GYXO5tW5WXV037aE
d2sGV/SQHSl1v4UBDUq2M305tlxB8OIHzWlQd5qtOvcnyiQkL7X7uQTAReXSO9qB
4gvS2HC9j3Qn1UOmT5mOK3LR+yG9/BnpsbzTEKwwLqxlSjcp7Uu8jl1TXCzCSpWl
IAQCLujFLzQg1SUObqwbxyZYFi9lAPILJYKA4fLD/vUVU0QfFA5Z3G+WNnA4rFp6
vjHuCUQMhvuusnaYWU8Og23QjgYfUW1blmuod8uEkyhdiCsCAwEAAaOBvTCBujAJ
BgNVHRMEAjAAMB0GA1UdDgQWBBTFLPxgfhrJWh0/JaRA+wUtl2RIxzBRBgNVHSME
SjBIgBTTOAjD6LTHAWKUkvVbn3c7ZsaXqaEapBgwFjEUMBIGA1UEAwwLdGVhbTEw
MS1uZXSCFFFsDyxm4iv2moREJb/r+CBU/TrNMBMGA1UdJQQMMAoGCCsGAQUFBwMB
MAsGA1UdDwQEAwIFoDAZBgNVHREEEjAQgg50ZWFtMTAxLXNlcnZlcjANBgkqhkiG
9w0BAQsFAAOCAQEAymLzAjkrFTMCInACJH2awGoBkSF4Z9te0ZQkXq8OGmdgslmk
Uftp6QhXWZymfQuS9NnnrUFKuBKXYf4YMR5iS47Wvb2lq3sNdeke7AZd53GCwqxG
pUUdCZHN92iFcmPFc9O4HRiF1Zb0XQPy4hX6uk8Z7fWi5HdwRh1OdRIcm0r/g0aH
XMn/F4vVuyoJG8SkOUuMInCxkzZbYI1lQt2Tgcbk87MVlzctBAaREjEtvMHf4i06
xtaDJMgsMQoJAUy64v/GajATMcupUm5A5A6xvG1rGnPxr5wScJv7ZN/j8x75uQE7
ujY1HN+SJwdw/0lFz/ZGJqf5rDpF199z7vQJnw==
-----END CERTIFICATE-----
