Certificate:
    Data:
        Version: 3 (0x2)
        Serial Number:
            25:60:42:b6:73:31:01:18:3e:2d:84:c0:7b:0d:2c:73
        Signature Algorithm: sha256WithRSAEncryption
        Issuer: CN=team623-net
        Validity
            Not Before: Sep 13 04:35:43 2021 GMT
            Not After : Aug 28 04:35:43 2024 GMT
        Subject: CN=team623-server
        Subject Public Key Info:
            Public Key Algorithm: rsaEncryption
                RSA Public-Key: (2048 bit)
                Modulus:
                    00:c1:03:fb:d1:d8:25:83:19:98:0e:fb:93:1d:3b:
                    f4:aa:d7:42:ba:74:22:da:1c:6e:2e:31:2b:18:5c:
                    cc:60:82:5e:54:98:40:09:25:78:10:88:4f:de:8f:
                    3d:e5:50:ef:cd:a2:64:27:14:ff:76:7d:25:26:2a:
                    1c:6c:fb:d6:b6:df:8d:de:99:56:41:4d:1b:5f:40:
                    51:9d:6e:66:62:47:4f:a7:e9:c8:c8:39:22:ef:61:
                    77:51:c8:cf:88:e7:22:21:07:a3:3d:c1:cc:c6:c0:
                    f5:f4:b6:66:77:10:5c:a4:17:99:00:5a:d3:ee:7b:
                    1f:aa:b8:76:b0:88:a3:8a:67:7c:07:eb:79:eb:74:
                    a5:80:8e:92:87:94:33:2f:6d:3f:eb:8d:f5:eb:a3:
                    4e:b4:22:aa:3d:f9:9b:b4:a7:07:0e:dd:53:01:94:
                    e7:5f:5f:fc:46:82:0c:49:e2:51:b6:16:8b:2f:08:
                    7e:24:08:42:2f:94:39:4e:1c:79:09:ac:43:a2:63:
                    f5:77:4a:7a:a0:33:d1:bc:ed:aa:00:34:45:d1:a4:
                    b8:f1:8b:cf:65:f1:b4:4d:ec:45:16:dd:d7:14:85:
                    82:a1:18:0d:3a:a5:da:b7:85:82:26:86:f2:ca:ac:
                    78:85:18:d5:4f:54:e7:d2:17:4b:14:d4:cf:67:4b:
                    19:49
                Exponent: 65537 (0x10001)
        X509v3 extensions:
            X509v3 Basic Constraints: 
                CA:FALSE
            X509v3 Subject Key Identifier: 
                A8:FF:EB:98:A1:1F:14:ED:B2:BA:68:37:0B:C4:DB:E5:F1:C6:F3:30
            X509v3 Authority Key Identifier: 
                keyid:18:90:47:16:A7:4C:4C:3E:96:C7:65:7D:90:38:AC:A3:8C:06:66:B9
                DirName:/CN=team623-net
                serial:03:14:F1:05:27:DA:2A:24:19:F2:05:50:34:3C:05:BE:95:38:14:11

            X509v3 Extended Key Usage: 
                TLS Web Server Authentication
            X509v3 Key Usage: 
                Digital Signature, Key Encipherment
            X509v3 Subject Alternative Name: 
                DNS:team623-server
    Signature Algorithm: sha256WithRSAEncryption
         84:85:cd:bd:ef:8f:c9:43:10:40:41:e8:9e:24:be:5a:01:63:
         2c:ee:cb:ab:84:db:88:44:4d:d5:60:23:1c:a2:c5:e1:cc:b9:
         ea:a1:3c:5f:f0:f3:82:59:dc:cb:aa:fd:ca:23:91:9d:d3:46:
         50:3a:4c:53:1a:47:2b:55:47:ac:e8:28:74:8e:07:1d:b7:e4:
         e5:5c:b0:8c:c7:ca:1b:e1:53:f0:5d:07:60:1e:72:0c:e2:71:
         53:61:3f:84:68:94:8c:1d:c2:42:66:52:2a:76:ce:0a:88:8d:
         f8:0a:d6:21:07:23:8d:0e:fe:1b:bb:54:98:89:3b:b9:89:ce:
         31:78:54:f3:e7:d4:a1:0b:c5:13:c7:08:0f:d7:29:35:b7:02:
         25:0b:60:d9:31:1e:ab:fb:c0:c4:01:91:a7:45:6f:a4:84:af:
         ec:67:35:a1:10:f1:fc:41:e1:10:51:df:89:1d:09:66:0a:f3:
         39:7f:c6:11:66:cc:f9:38:ab:9e:ce:01:3f:61:93:6c:83:3a:
         d1:69:87:c3:72:38:22:63:20:e7:83:56:9f:c1:8e:4b:97:44:
         75:0f:d1:28:5a:ba:e2:68:75:d2:2e:c7:d3:63:4b:b8:47:5a:
         4a:dd:0a:8a:d5:2a:8a:13:c4:e1:86:32:0a:03:d4:45:08:a3:
         a5:6b:86:2b
-----BEGIN CERTIFICATE-----
MIIDdzCCAl+gAwIBAgIQJWBCtnMxARg+LYTAew0sczANBgkqhkiG9w0BAQsFADAW
MRQwEgYDVQQDDAt0ZWFtNjIzLW5ldDAeFw0yMTA5MTMwNDM1NDNaFw0yNDA4Mjgw
NDM1NDNaMBkxFzAVBgNVBAMMDnRlYW02MjMtc2VydmVyMIIBIjANBgkqhkiG9w0B
AQEFAAOCAQ8AMIIBCgKCAQEAwQP70dglgxmYDvuTHTv0qtdCunQi2hxuLjErGFzM
YIJeVJhACSV4EIhP3o895VDvzaJkJxT/dn0lJiocbPvWtt+N3plWQU0bX0BRnW5m
YkdPp+nIyDki72F3UcjPiOciIQejPcHMxsD19LZmdxBcpBeZAFrT7nsfqrh2sIij
imd8B+t563SlgI6Sh5QzL20/643166NOtCKqPfmbtKcHDt1TAZTnX1/8RoIMSeJR
thaLLwh+JAhCL5Q5Thx5CaxDomP1d0p6oDPRvO2qADRF0aS48YvPZfG0TexFFt3X
FIWCoRgNOqXat4WCJobyyqx4hRjVT1Tn0hdLFNTPZ0sZSQIDAQABo4G9MIG6MAkG
A1UdEwQCMAAwHQYDVR0OBBYEFKj/65ihHxTtsrpoNwvE2+XxxvMwMFEGA1UdIwRK
MEiAFBiQRxanTEw+lsdlfZA4rKOMBma5oRqkGDAWMRQwEgYDVQQDDAt0ZWFtNjIz
LW5ldIIUAxTxBSfaKiQZ8gVQNDwFvpU4FBEwEwYDVR0lBAwwCgYIKwYBBQUHAwEw
CwYDVR0PBAQDAgWgMBkGA1UdEQQSMBCCDnRlYW02MjMtc2VydmVyMA0GCSqGSIb3
DQEBCwUAA4IBAQCEhc2974/JQxBAQeieJL5aAWMs7surhNuIRE3VYCMcosXhzLnq
oTxf8POCWdzLqv3KI5Gd00ZQOkxTGkcrVUes6Ch0jgcdt+TlXLCMx8ob4VPwXQdg
HnIM4nFTYT+EaJSMHcJCZlIqds4KiI34CtYhByONDv4bu1SYiTu5ic4xeFTz59Sh
C8UTxwgP1yk1twIlC2DZMR6r+8DEAZGnRW+khK/sZzWhEPH8QeEQUd+JHQlmCvM5
f8YRZsz5OKuezgE/YZNsgzrRaYfDcjgiYyDng1afwY5Ll0R1D9EoWrriaHXSLsfT
Y0u4R1pK3QqK1SqKE8ThhjIKA9RFCKOla4Yr
-----END CERTIFICATE-----
