Certificate:
    Data:
        Version: 3 (0x2)
        Serial Number:
            92:a7:09:02:f4:1d:d9:a5:05:c4:9a:88:62:f5:d7:78
        Signature Algorithm: sha256WithRSAEncryption
        Issuer: CN=team623-net
        Validity
            Not Before: Sep 13 04:35:42 2021 GMT
            Not After : Aug 28 04:35:42 2024 GMT
        Subject: CN=team623-client
        Subject Public Key Info:
            Public Key Algorithm: rsaEncryption
                RSA Public-Key: (2048 bit)
                Modulus:
                    00:e1:e3:2f:40:01:95:4c:89:51:59:d9:1c:2f:1d:
                    20:eb:fc:da:27:e5:5c:ef:db:23:b2:85:f2:c5:51:
                    43:40:c7:1f:35:d0:14:80:71:31:9b:ad:10:c1:63:
                    d9:cc:96:51:9e:b8:fe:e4:79:30:df:dc:74:96:50:
                    a7:04:a7:2c:94:ed:1d:0c:f6:89:03:76:e6:bf:23:
                    38:65:79:be:2c:f6:3e:15:17:d5:a1:d0:70:c2:fc:
                    1e:49:0a:8d:a7:26:08:c1:a8:2b:1a:ef:78:27:4a:
                    fb:2b:21:a5:63:e3:bc:0e:df:68:7c:f6:bb:2f:80:
                    ca:92:ad:5b:e1:19:bd:81:da:6a:21:3c:fe:b1:25:
                    aa:e2:ae:cc:f1:9d:55:d8:36:8c:2e:b1:7d:39:4f:
                    2d:e7:78:75:66:45:8a:b2:f4:5f:a3:87:79:0e:cb:
                    5f:80:2f:41:2e:b2:5a:cb:79:f8:cb:95:80:94:39:
                    9f:7b:5e:f5:a6:90:97:5c:22:c2:95:5b:ce:36:e0:
                    3b:d3:c4:fb:0b:01:fd:60:a4:c9:5c:f5:32:12:e8:
                    36:bf:4f:b7:14:8b:1d:a7:6b:e2:22:a2:d1:6c:ad:
                    d0:0f:dc:ea:3d:3e:55:34:55:ed:52:c2:50:c3:21:
                    69:0b:6e:bc:02:4f:b1:33:ee:49:bc:5a:7d:ac:09:
                    69:ad
                Exponent: 65537 (0x10001)
        X509v3 extensions:
            X509v3 Basic Constraints: 
                CA:FALSE
            X509v3 Subject Key Identifier: 
                89:C4:6B:46:1B:2B:6D:79:9C:7C:BF:5A:A7:26:5F:89:2E:09:2F:3D
            X509v3 Authority Key Identifier: 
                keyid:18:90:47:16:A7:4C:4C:3E:96:C7:65:7D:90:38:AC:A3:8C:06:66:B9
                DirName:/CN=team623-net
                serial:03:14:F1:05:27:DA:2A:24:19:F2:05:50:34:3C:05:BE:95:38:14:11

            X509v3 Extended Key Usage: 
                TLS Web Client Authentication
            X509v3 Key Usage: 
                Digital Signature
    Signature Algorithm: sha256WithRSAEncryption
         5d:b1:59:de:f3:77:d8:88:03:d8:47:83:46:ca:d1:03:ac:e2:
         65:0f:19:e8:32:74:8e:f5:ef:4b:d4:cc:a5:37:36:6b:7f:b4:
         a1:7e:aa:2b:b7:c5:76:f8:cc:65:4e:20:5f:46:4d:88:3e:1d:
         d9:ba:16:d5:9f:4d:7f:51:e1:50:7a:f5:7a:fe:78:cd:bd:9a:
         de:27:2a:fc:de:07:86:29:0c:22:ce:5b:20:63:8f:db:7f:9f:
         9b:7a:ee:86:18:d3:07:f7:f0:2d:51:0e:59:7b:c7:fe:6f:ee:
         22:9c:f9:3b:8f:23:ce:cb:e6:f0:0d:e8:45:cf:95:d2:8c:1e:
         97:04:16:13:6d:39:a2:b5:1b:e8:55:ed:9b:da:46:60:a4:6e:
         d5:35:5c:68:e5:e5:77:c4:b4:e9:98:71:ef:00:45:b9:ab:db:
         a7:d6:b9:18:9d:e0:14:42:fd:67:3b:21:8b:46:e8:bf:f8:a9:
         34:d5:64:18:eb:f5:81:be:8b:ea:b4:c8:8f:fc:87:23:56:8d:
         5b:cd:9d:57:d4:72:43:24:d2:ca:2d:0e:9d:04:35:7c:7f:7c:
         d6:84:04:a1:fe:93:dc:1f:cb:1a:4d:a6:42:ac:d5:09:67:f4:
         65:3a:f5:04:44:ce:8f:4e:a8:f6:d1:5a:20:9e:b6:6d:09:a3:
         49:95:6c:14
-----BEGIN CERTIFICATE-----
MIIDXTCCAkWgAwIBAgIRAJKnCQL0HdmlBcSaiGL113gwDQYJKoZIhvcNAQELBQAw
FjEUMBIGA1UEAwwLdGVhbTYyMy1uZXQwHhcNMjEwOTEzMDQzNTQyWhcNMjQwODI4
MDQzNTQyWjAZMRcwFQYDVQQDDA50ZWFtNjIzLWNsaWVudDCCASIwDQYJKoZIhvcN
AQEBBQADggEPADCCAQoCggEBAOHjL0ABlUyJUVnZHC8dIOv82iflXO/bI7KF8sVR
Q0DHHzXQFIBxMZutEMFj2cyWUZ64/uR5MN/cdJZQpwSnLJTtHQz2iQN25r8jOGV5
viz2PhUX1aHQcML8HkkKjacmCMGoKxrveCdK+yshpWPjvA7faHz2uy+AypKtW+EZ
vYHaaiE8/rElquKuzPGdVdg2jC6xfTlPLed4dWZFirL0X6OHeQ7LX4AvQS6yWst5
+MuVgJQ5n3te9aaQl1wiwpVbzjbgO9PE+wsB/WCkyVz1MhLoNr9PtxSLHadr4iKi
0Wyt0A/c6j0+VTRV7VLCUMMhaQtuvAJPsTPuSbxafawJaa0CAwEAAaOBojCBnzAJ
BgNVHRMEAjAAMB0GA1UdDgQWBBSJxGtGGytteZx8v1qnJl+JLgkvPTBRBgNVHSME
SjBIgBQYkEcWp0xMPpbHZX2QOKyjjAZmuaEapBgwFjEUMBIGA1UEAwwLdGVhbTYy
My1uZXSCFAMU8QUn2iokGfIFUDQ8Bb6VOBQRMBMGA1UdJQQMMAoGCCsGAQUFBwMC
MAsGA1UdDwQEAwIHgDANBgkqhkiG9w0BAQsFAAOCAQEAXbFZ3vN32IgD2EeDRsrR
A6ziZQ8Z6DJ0jvXvS9TMpTc2a3+0oX6qK7fFdvjMZU4gX0ZNiD4d2boW1Z9Nf1Hh
UHr1ev54zb2a3icq/N4HhikMIs5bIGOP23+fm3ruhhjTB/fwLVEOWXvH/m/uIpz5
O48jzsvm8A3oRc+V0owelwQWE205orUb6FXtm9pGYKRu1TVcaOXld8S06Zhx7wBF
uavbp9a5GJ3gFEL9Zzshi0bov/ipNNVkGOv1gb6L6rTIj/yHI1aNW82dV9RyQyTS
yi0OnQQ1fH981oQEof6T3B/LGk2mQqzVCWf0ZTr1BETOj06o9tFaIJ62bQmjSZVs
FA==
-----END CERTIFICATE-----
