Certificate:
    Data:
        Version: 3 (0x2)
        Serial Number:
            a2:5f:4e:5a:29:7d:e3:b1:c0:6e:6a:84:e0:ec:35:b0
        Signature Algorithm: sha256WithRSAEncryption
        Issuer: CN=team690-net
        Validity
            Not Before: Sep 13 04:42:35 2021 GMT
            Not After : Aug 28 04:42:35 2024 GMT
        Subject: CN=team690-server
        Subject Public Key Info:
            Public Key Algorithm: rsaEncryption
                RSA Public-Key: (2048 bit)
                Modulus:
                    00:db:41:2a:4a:d8:41:f0:46:83:07:26:c5:e7:e5:
                    ef:2c:40:3c:96:9d:bb:59:c7:dc:67:0e:fb:5e:87:
                    ff:69:9e:c0:02:5b:7b:59:ae:40:df:45:46:69:3a:
                    d6:ba:bc:5c:80:5a:9f:cb:a8:8b:a3:a1:63:79:aa:
                    24:7d:15:58:31:2d:a7:e9:cf:9f:9b:6c:32:38:9d:
                    ad:8c:eb:62:0a:92:a2:13:07:b1:88:ca:a1:9f:dd:
                    76:3e:1a:bd:9c:c9:92:5c:38:d0:f4:57:9b:99:81:
                    93:86:26:d4:fd:69:b1:5d:3a:e2:ea:1b:f4:e5:57:
                    a1:21:9c:9d:b2:4b:13:54:df:b6:9a:94:af:2a:2e:
                    c3:e6:0d:49:bf:83:b0:96:0a:ae:d0:ce:f1:7a:9b:
                    97:7f:91:4a:5d:df:34:83:dd:f6:90:4b:f7:bb:da:
                    8a:b8:9f:ca:67:8b:79:a7:c0:d7:1e:e1:5d:48:4e:
                    c1:50:f9:c0:41:21:f4:23:7b:3a:a1:9b:09:70:08:
                    4f:e0:bf:ba:b3:e3:e6:54:f9:65:46:e5:d1:0d:7f:
                    6d:12:6c:c6:2a:24:29:58:1c:2d:0e:ec:51:d9:b6:
                    4f:33:05:1a:d3:b1:fe:c4:73:00:42:0d:5f:f1:29:
                    5c:91:5c:11:29:d9:3f:ef:b1:19:c2:17:d4:26:18:
                    3d:2f
                Exponent: 65537 (0x10001)
        X509v3 extensions:
            X509v3 Basic Constraints: 
                CA:FALSE
            X509v3 Subject Key Identifier: 
                F9:1C:22:57:00:80:1E:79:41:25:28:E6:AD:57:A6:9E:14:B6:58:91
            X509v3 Authority Key Identifier: 
                keyid:A4:0C:24:EA:37:EA:EF:53:D1:D4:CA:22:C3:8C:44:2E:B1:D2:AA:EC
                DirName:/CN=team690-net
                serial:20:9A:F4:FD:B6:92:4D:1F:12:EE:E5:E8:0B:7F:72:5E:CD:EE:1D:51

            X509v3 Extended Key Usage: 
                TLS Web Server Authentication
            X509v3 Key Usage: 
                Digital Signature, Key Encipherment
            X509v3 Subject Alternative Name: 
                DNS:team690-server
    Signature Algorithm: sha256WithRSAEncryption
         6c:4e:b7:42:34:e8:76:fd:0c:c6:7d:68:ca:2b:78:bc:db:78:
         b2:17:e1:f1:0a:de:67:0e:1a:62:14:12:5d:29:67:a5:5e:24:
         00:d4:d7:22:95:b4:9e:fc:90:b6:6d:66:2a:b6:50:29:bd:d9:
         bc:f2:05:4f:03:f8:3b:11:5a:06:be:8c:70:24:9a:df:d1:ed:
         74:26:ec:a2:cb:8e:b1:eb:a3:0f:bc:98:40:8d:18:9a:f7:11:
         cf:fc:a8:c6:9f:fe:df:c4:10:cc:f2:d3:08:ef:d9:89:86:7d:
         ea:92:95:73:f3:fd:3f:0a:f5:20:68:72:ba:e8:5e:67:2a:17:
         b7:51:77:50:4a:ab:6b:8a:6e:93:31:d5:d0:4b:ab:4a:2c:f3:
         76:30:ea:0d:e3:09:03:94:11:33:ce:84:db:1f:21:e9:8c:90:
         d7:d7:0b:b0:1b:33:ed:46:68:32:ab:25:a9:7e:7a:d6:00:9f:
         a0:63:1c:1c:90:03:05:00:af:b3:93:05:47:8d:d9:04:ad:92:
         90:44:17:1c:a2:eb:7b:e4:3a:c7:6b:68:10:ed:c0:bd:50:fa:
         58:12:1a:43:d7:41:de:65:e2:d3:52:c2:87:bb:c8:45:41:fa:
         d0:a4:78:84:19:a0:57:72:55:44:b0:31:73:73:cd:ac:ca:15:
         f7:2d:d3:8c
-----BEGIN CERTIFICATE-----
MIIDeDCCAmCgAwIBAgIRAKJfTlopfeOxwG5qhODsNbAwDQYJKoZIhvcNAQELBQAw
FjEUMBIGA1UEAwwLdGVhbTY5MC1uZXQwHhcNMjEwOTEzMDQ0MjM1WhcNMjQwODI4
MDQ0MjM1WjAZMRcwFQYDVQQDDA50ZWFtNjkwLXNlcnZlcjCCASIwDQYJKoZIhvcN
AQEBBQADggEPADCCAQoCggEBANtBKkrYQfBGgwcmxefl7yxAPJadu1nH3GcO+16H
/2mewAJbe1muQN9FRmk61rq8XIBan8uoi6OhY3mqJH0VWDEtp+nPn5tsMjidrYzr
YgqSohMHsYjKoZ/ddj4avZzJklw40PRXm5mBk4Ym1P1psV064uob9OVXoSGcnbJL
E1TftpqUryouw+YNSb+DsJYKrtDO8Xqbl3+RSl3fNIPd9pBL97vairifymeLeafA
1x7hXUhOwVD5wEEh9CN7OqGbCXAIT+C/urPj5lT5ZUbl0Q1/bRJsxiokKVgcLQ7s
Udm2TzMFGtOx/sRzAEINX/EpXJFcESnZP++xGcIX1CYYPS8CAwEAAaOBvTCBujAJ
BgNVHRMEAjAAMB0GA1UdDgQWBBT5HCJXAIAeeUElKOatV6aeFLZYkTBRBgNVHSME
SjBIgBSkDCTqN+rvU9HUyiLDjEQusdKq7KEapBgwFjEUMBIGA1UEAwwLdGVhbTY5
MC1uZXSCFCCa9P22kk0fEu7l6At/cl7N7h1RMBMGA1UdJQQMMAoGCCsGAQUFBwMB
MAsGA1UdDwQEAwIFoDAZBgNVHREEEjAQgg50ZWFtNjkwLXNlcnZlcjANBgkqhkiG
9w0BAQsFAAOCAQEAbE63QjTodv0Mxn1oyit4vNt4shfh8QreZw4aYhQSXSlnpV4k
ANTXIpW0nvyQtm1mKrZQKb3ZvPIFTwP4OxFaBr6McCSa39HtdCbsosuOseujD7yY
QI0YmvcRz/yoxp/+38QQzPLTCO/ZiYZ96pKVc/P9Pwr1IGhyuuheZyoXt1F3UEqr
a4pukzHV0EurSizzdjDqDeMJA5QRM86E2x8h6YyQ19cLsBsz7UZoMqslqX561gCf
oGMcHJADBQCvs5MFR43ZBK2SkEQXHKLre+Q6x2toEO3AvVD6WBIaQ9dB3mXi01LC
h7vIRUH60KR4hBmgV3JVRLAxc3PNrMoV9y3TjA==
-----END CERTIFICATE-----
