Certificate:
    Data:
        Version: 3 (0x2)
        Serial Number:
            23:00:a0:ef:4a:9f:7f:f8:7e:cf:dd:79:2c:32:45:b8
        Signature Algorithm: sha256WithRSAEncryption
        Issuer: CN=team296-net
        Validity
            Not Before: Sep 13 01:24:35 2021 GMT
            Not After : Aug 28 01:24:35 2024 GMT
        Subject: CN=team296-client
        Subject Public Key Info:
            Public Key Algorithm: rsaEncryption
                RSA Public-Key: (2048 bit)
                Modulus:
                    00:c3:7e:8e:20:ef:3f:9e:0b:76:da:9d:80:24:e0:
                    3a:21:70:b7:15:32:c6:29:f7:45:96:c7:33:09:cd:
                    e4:f6:89:e8:eb:d9:b3:f3:8f:19:39:32:33:13:75:
                    0b:b1:a4:1c:33:1b:64:38:30:f0:0e:17:59:ac:6e:
                    be:aa:4b:55:77:16:d9:ba:c8:96:8a:f8:2a:bc:51:
                    ed:29:df:b8:3e:90:19:65:8b:b8:48:34:b1:9c:4f:
                    06:8e:f6:26:6a:73:71:69:6e:a2:5a:0d:fe:91:bf:
                    14:99:c0:66:42:3d:e7:e8:f6:16:c6:7f:10:73:af:
                    aa:17:6b:25:48:c8:88:3b:32:04:98:73:89:b6:2b:
                    8d:c2:fc:91:88:36:53:1f:26:d2:09:19:ab:49:d9:
                    94:42:47:28:fe:57:05:51:42:f0:00:b1:0b:72:97:
                    3d:71:5a:ef:1d:bc:6c:b7:05:57:9b:ac:f1:71:bb:
                    ff:12:63:30:a4:73:04:07:3e:e9:c1:ef:52:6b:91:
                    05:71:0c:a3:55:7b:1e:c3:ec:94:98:79:9f:66:3e:
                    7f:ee:d1:f2:af:a0:66:af:1f:48:19:10:00:bc:db:
                    f7:6e:b1:53:4f:b1:a8:7c:3d:43:22:07:07:42:de:
                    2a:fa:45:6d:bf:8c:be:57:83:e2:65:4d:6b:59:6e:
                    e1:c3
                Exponent: 65537 (0x10001)
        X509v3 extensions:
            X509v3 Basic Constraints: 
                CA:FALSE
            X509v3 Subject Key Identifier: 
                46:5C:C2:2F:58:6E:5D:8B:89:1B:80:26:6E:60:EA:9A:78:77:81:CF
            X509v3 Authority Key Identifier: 
                keyid:97:83:49:E1:3F:06:1E:FA:93:46:9D:43:96:34:0A:E7:AF:48:EB:D1
                DirName:/CN=team296-net
                serial:6C:34:31:F9:25:16:80:2B:E7:5A:ED:B5:77:70:F2:07:3B:A3:25:E2

            X509v3 Extended Key Usage: 
                TLS Web Client Authentication
            X509v3 Key Usage: 
                Digital Signature
    Signature Algorithm: sha256WithRSAEncryption
         22:d2:1e:b9:8d:12:47:cb:9d:4a:ba:db:dc:e8:8c:ba:17:d9:
         5a:f5:27:1c:b1:05:47:13:02:e6:a5:be:9e:78:a3:e8:e4:04:
         b1:a3:f0:78:b0:0d:76:72:f8:12:57:89:a0:2f:b9:8f:a0:33:
         ec:c7:a0:27:de:b7:66:b3:7e:46:19:b0:c4:78:30:dd:b4:5a:
         45:f7:75:2d:50:4e:7a:72:b5:a3:d8:db:81:92:24:46:75:ee:
         4a:38:02:e8:f7:4a:c6:c7:bc:ed:71:fd:1e:ce:64:49:f6:ab:
         d8:73:4f:7d:83:b7:14:94:9a:6b:89:db:43:3f:e5:df:36:be:
         b4:f4:2c:fa:53:93:12:53:bf:52:8f:d6:13:db:19:70:ed:d2:
         4e:2d:09:4e:72:7f:9e:df:68:11:6b:48:26:2a:c1:49:f3:52:
         eb:aa:fa:69:d9:f3:ff:8e:ee:65:c8:4c:a8:c4:f5:c6:46:76:
         e2:48:6a:3a:40:1d:a7:02:b1:b7:3f:4a:fb:b8:e1:ba:7c:1c:
         a1:91:2e:6c:fd:e6:04:2e:38:a1:03:4e:80:e3:4f:92:6a:21:
         5c:9d:6b:5e:65:26:8c:23:ee:c9:a1:d4:18:b0:a2:3c:46:82:
         66:ff:9e:75:54:da:51:18:54:c1:9e:99:16:69:8b:f8:61:12:
         e0:86:16:1a
-----BEGIN CERTIFICATE-----
MIIDXDCCAkSgAwIBAgIQIwCg70qff/h+z915LDJFuDANBgkqhkiG9w0BAQsFADAW
MRQwEgYDVQQDDAt0ZWFtMjk2LW5ldDAeFw0yMTA5MTMwMTI0MzVaFw0yNDA4Mjgw
MTI0MzVaMBkxFzAVBgNVBAMMDnRlYW0yOTYtY2xpZW50MIIBIjANBgkqhkiG9w0B
AQEFAAOCAQ8AMIIBCgKCAQEAw36OIO8/ngt22p2AJOA6IXC3FTLGKfdFlsczCc3k
9ono69mz848ZOTIzE3ULsaQcMxtkODDwDhdZrG6+qktVdxbZusiWivgqvFHtKd+4
PpAZZYu4SDSxnE8GjvYmanNxaW6iWg3+kb8UmcBmQj3n6PYWxn8Qc6+qF2slSMiI
OzIEmHOJtiuNwvyRiDZTHybSCRmrSdmUQkco/lcFUULwALELcpc9cVrvHbxstwVX
m6zxcbv/EmMwpHMEBz7pwe9Sa5EFcQyjVXsew+yUmHmfZj5/7tHyr6Bmrx9IGRAA
vNv3brFTT7GofD1DIgcHQt4q+kVtv4y+V4PiZU1rWW7hwwIDAQABo4GiMIGfMAkG
A1UdEwQCMAAwHQYDVR0OBBYEFEZcwi9Ybl2LiRuAJm5g6pp4d4HPMFEGA1UdIwRK
MEiAFJeDSeE/Bh76k0adQ5Y0CuevSOvRoRqkGDAWMRQwEgYDVQQDDAt0ZWFtMjk2
LW5ldIIUbDQx+SUWgCvnWu21d3DyBzujJeIwEwYDVR0lBAwwCgYIKwYBBQUHAwIw
CwYDVR0PBAQDAgeAMA0GCSqGSIb3DQEBCwUAA4IBAQAi0h65jRJHy51Kutvc6Iy6
F9la9SccsQVHEwLmpb6eeKPo5ASxo/B4sA12cvgSV4mgL7mPoDPsx6An3rdms35G
GbDEeDDdtFpF93UtUE56crWj2NuBkiRGde5KOALo90rGx7ztcf0ezmRJ9qvYc099
g7cUlJpridtDP+XfNr609Cz6U5MSU79Sj9YT2xlw7dJOLQlOcn+e32gRa0gmKsFJ
81Lrqvpp2fP/ju5lyEyoxPXGRnbiSGo6QB2nArG3P0r7uOG6fByhkS5s/eYELjih
A06A40+SaiFcnWteZSaMI+7JodQYsKI8RoJm/551VNpRGFTBnpkWaYv4YRLghhYa
-----END CERTIFICATE-----
