Certificate:
    Data:
        Version: 3 (0x2)
        Serial Number:
            2d:91:94:b2:37:29:a1:00:19:f6:ad:5d:12:80:e9:a3
        Signature Algorithm: sha256WithRSAEncryption
        Issuer: CN=team389-net
        Validity
            Not Before: Sep 13 02:17:14 2021 GMT
            Not After : Aug 28 02:17:14 2024 GMT
        Subject: CN=team389-client
        Subject Public Key Info:
            Public Key Algorithm: rsaEncryption
                RSA Public-Key: (2048 bit)
                Modulus:
                    00:c7:53:a2:b3:6c:de:1b:58:9c:38:cf:75:f4:0e:
                    59:10:f5:d3:6e:d2:7a:22:57:ce:79:e2:0d:db:09:
                    75:ef:2e:d2:88:b2:47:e3:aa:34:29:18:13:89:d5:
                    09:d1:65:66:b6:3a:8c:62:ee:9e:5e:5f:69:b2:7a:
                    98:bc:b0:2a:d0:63:c7:3a:7c:e1:02:67:99:bb:ce:
                    2c:9d:14:74:a7:a4:99:f3:64:35:01:22:70:72:a3:
                    73:31:97:49:97:00:50:6e:d4:c4:9b:7b:32:3d:3e:
                    48:74:5d:96:df:46:d3:74:a0:84:3c:ee:01:94:3d:
                    3e:86:f3:21:38:c7:c5:e8:5b:47:f3:d8:95:d3:34:
                    3c:61:71:f4:92:af:00:bf:69:0e:f8:f0:66:e5:1a:
                    c6:6b:46:14:e4:4a:87:a8:ae:fd:13:59:0e:82:b6:
                    e0:af:61:9c:8b:f6:6b:10:f5:45:8e:d2:0b:da:b2:
                    44:4d:62:6f:3c:ca:91:01:64:85:76:55:60:8f:f7:
                    77:5f:1b:89:ef:e0:3a:77:e7:8c:92:a2:82:62:b5:
                    06:80:fc:04:d0:de:34:8c:0b:42:f1:b6:90:8f:21:
                    a0:92:69:6c:91:3c:de:2f:df:d4:0d:20:25:49:ca:
                    a6:5d:99:00:aa:e5:92:fd:a7:bf:fe:8e:4f:2a:b8:
                    b4:35
                Exponent: 65537 (0x10001)
        X509v3 extensions:
            X509v3 Basic Constraints: 
                CA:FALSE
            X509v3 Subject Key Identifier: 
                16:D2:0F:B4:12:71:A4:B4:EF:72:3D:39:3D:49:EA:7F:C7:46:B7:68
            X509v3 Authority Key Identifier: 
                keyid:49:17:AD:50:83:86:E2:CD:5B:A8:A2:34:C8:4E:FF:34:5C:68:C9:26
                DirName:/CN=team389-net
                serial:02:F0:8E:72:F7:15:62:FC:5E:12:70:A5:5C:B3:E0:A1:1B:39:46:62

            X509v3 Extended Key Usage: 
                TLS Web Client Authentication
            X509v3 Key Usage: 
                Digital Signature
    Signature Algorithm: sha256WithRSAEncryption
         31:3b:e1:19:d2:bc:70:6f:81:9c:65:33:bf:e4:64:9d:a9:56:
         77:80:8b:3e:13:fb:7a:be:6d:63:ed:c7:85:0f:b3:f2:65:b8:
         08:23:e7:34:42:67:d9:16:da:a6:7e:d8:b5:a7:59:4b:48:bf:
         5f:ae:f7:13:fc:a5:fd:d2:c6:0a:86:72:27:7c:93:9d:84:b3:
         b0:3e:a3:1e:ea:87:14:15:cc:48:89:1f:9f:c3:65:f6:6b:3b:
         89:69:cc:48:11:ba:93:76:56:06:2f:79:e7:33:7b:0e:4d:cd:
         90:30:15:6b:c4:5d:28:e5:ed:b5:7d:74:96:02:f5:fc:37:7a:
         e9:b9:b8:18:be:52:9e:b0:68:fb:f6:ff:d8:dd:72:24:47:46:
         cc:4a:b5:21:df:8e:c7:49:1b:72:31:10:ac:56:5f:bf:34:7d:
         6b:c1:d6:74:2e:8d:68:6e:73:6a:60:4a:d2:df:7b:f0:75:87:
         32:31:32:fc:5b:dc:b8:94:e3:45:9a:97:fe:d1:03:4e:c8:e9:
         a4:d1:62:34:79:94:0c:bf:f8:81:df:37:9c:c2:a3:58:a5:58:
         58:ed:5b:4d:ba:0e:86:a0:ee:bc:a8:d3:76:e4:b4:f2:d3:b4:
         26:a8:7f:c6:59:23:c2:cc:a6:17:3d:c6:fc:61:f8:6b:22:96:
         3e:e0:9b:24
-----BEGIN CERTIFICATE-----
MIIDXDCCAkSgAwIBAgIQLZGUsjcpoQAZ9q1dEoDpozANBgkqhkiG9w0BAQsFADAW
MRQwEgYDVQQDDAt0ZWFtMzg5LW5ldDAeFw0yMTA5MTMwMjE3MTRaFw0yNDA4Mjgw
MjE3MTRaMBkxFzAVBgNVBAMMDnRlYW0zODktY2xpZW50MIIBIjANBgkqhkiG9w0B
AQEFAAOCAQ8AMIIBCgKCAQEAx1Ois2zeG1icOM919A5ZEPXTbtJ6IlfOeeIN2wl1
7y7SiLJH46o0KRgTidUJ0WVmtjqMYu6eXl9psnqYvLAq0GPHOnzhAmeZu84snRR0
p6SZ82Q1ASJwcqNzMZdJlwBQbtTEm3syPT5IdF2W30bTdKCEPO4BlD0+hvMhOMfF
6FtH89iV0zQ8YXH0kq8Av2kO+PBm5RrGa0YU5EqHqK79E1kOgrbgr2Gci/ZrEPVF
jtIL2rJETWJvPMqRAWSFdlVgj/d3XxuJ7+A6d+eMkqKCYrUGgPwE0N40jAtC8baQ
jyGgkmlskTzeL9/UDSAlScqmXZkAquWS/ae//o5PKri0NQIDAQABo4GiMIGfMAkG
A1UdEwQCMAAwHQYDVR0OBBYEFBbSD7QScaS073I9OT1J6n/HRrdoMFEGA1UdIwRK
MEiAFEkXrVCDhuLNW6iiNMhO/zRcaMkmoRqkGDAWMRQwEgYDVQQDDAt0ZWFtMzg5
LW5ldIIUAvCOcvcVYvxeEnClXLPgoRs5RmIwEwYDVR0lBAwwCgYIKwYBBQUHAwIw
CwYDVR0PBAQDAgeAMA0GCSqGSIb3DQEBCwUAA4IBAQAxO+EZ0rxwb4GcZTO/5GSd
qVZ3gIs+E/t6vm1j7ceFD7PyZbgII+c0QmfZFtqmfti1p1lLSL9frvcT/KX90sYK
hnInfJOdhLOwPqMe6ocUFcxIiR+fw2X2azuJacxIEbqTdlYGL3nnM3sOTc2QMBVr
xF0o5e21fXSWAvX8N3rpubgYvlKesGj79v/Y3XIkR0bMSrUh347HSRtyMRCsVl+/
NH1rwdZ0Lo1obnNqYErS33vwdYcyMTL8W9y4lONFmpf+0QNOyOmk0WI0eZQMv/iB
3zecwqNYpVhY7VtNug6GoO68qNN25LTy07QmqH/GWSPCzKYXPcb8YfhrIpY+4Jsk
-----END CERTIFICATE-----
