Certificate:
    Data:
        Version: 3 (0x2)
        Serial Number:
            65:70:a7:bd:6b:db:28:a6:17:4a:7e:be:04:72:6a:39
        Signature Algorithm: sha256WithRSAEncryption
        Issuer: CN=team389-net
        Validity
            Not Before: Sep 13 02:17:14 2021 GMT
            Not After : Aug 28 02:17:14 2024 GMT
        Subject: CN=team389-server
        Subject Public Key Info:
            Public Key Algorithm: rsaEncryption
                RSA Public-Key: (2048 bit)
                Modulus:
                    00:e5:26:65:0d:49:24:7e:36:2a:29:e9:9b:75:1f:
                    91:d4:71:4d:92:d1:ae:97:6c:7f:51:2c:61:18:e2:
                    c4:0e:ce:91:de:88:58:a2:81:1a:33:dd:b1:5a:ea:
                    6c:d8:1a:7e:13:6e:8a:3a:d5:8e:58:22:6a:14:c4:
                    d9:22:23:b1:42:96:44:54:3c:29:ba:e6:3e:f9:f6:
                    4f:ee:2e:50:05:a7:20:f1:93:02:e0:5c:7e:34:9a:
                    07:ec:7b:cd:11:ee:63:f0:e6:ff:ed:cf:01:63:2f:
                    de:51:7c:d6:33:73:8c:cb:36:93:c6:67:6a:c3:19:
                    60:13:e7:37:de:93:00:ff:71:b5:a3:53:50:b0:85:
                    49:39:5f:a0:b8:81:5b:b7:68:27:70:b1:6c:5f:96:
                    a7:16:ff:5b:12:ba:88:f2:48:69:47:15:1e:5a:7d:
                    f1:46:34:bc:4f:c1:42:07:63:a5:95:ab:39:91:50:
                    1b:db:a0:f8:93:a4:e3:16:55:4c:53:77:ef:05:76:
                    54:2d:f9:e9:dc:11:d5:72:ec:54:33:42:cb:8c:5f:
                    e7:b4:34:9e:42:53:4b:64:1d:9a:91:07:ed:65:c0:
                    14:e5:7e:ed:16:63:a2:da:bf:1c:39:d7:78:5d:7f:
                    7a:04:34:36:50:1d:d6:62:b9:b8:d9:6a:57:47:c9:
                    54:3b
                Exponent: 65537 (0x10001)
        X509v3 extensions:
            X509v3 Basic Constraints: 
                CA:FALSE
            X509v3 Subject Key Identifier: 
                73:C6:3A:A3:F9:48:BB:5F:2E:D8:C5:6D:05:E0:23:E6:84:EF:C6:D3
            X509v3 Authority Key Identifier: 
                keyid:49:17:AD:50:83:86:E2:CD:5B:A8:A2:34:C8:4E:FF:34:5C:68:C9:26
                DirName:/CN=team389-net
                serial:02:F0:8E:72:F7:15:62:FC:5E:12:70:A5:5C:B3:E0:A1:1B:39:46:62

            X509v3 Extended Key Usage: 
                TLS Web Server Authentication
            X509v3 Key Usage: 
                Digital Signature, Key Encipherment
            X509v3 Subject Alternative Name: 
                DNS:team389-server
    Signature Algorithm: sha256WithRSAEncryption
         0c:db:9c:4a:fc:b5:23:9f:12:36:d0:49:02:42:01:ad:99:50:
         5c:ad:6a:5b:32:81:f4:3d:49:ce:95:08:16:2d:a0:bf:4a:c9:
         81:da:da:96:bf:a9:45:cd:18:8a:4c:ab:69:fa:ac:bc:66:60:
         97:50:16:80:4d:32:91:cc:bc:bd:88:f6:44:a6:bb:61:f6:5d:
         e7:6c:bb:a0:cb:a5:e9:30:6e:ac:12:e7:97:c3:56:6b:19:0c:
         60:83:4e:b9:d5:ff:e5:84:71:3d:eb:63:1a:5d:b6:d9:4e:03:
         c5:03:75:4f:b6:98:2c:92:09:f1:6c:bc:07:a4:7c:c1:52:ce:
         e3:9d:a1:c9:13:b5:a9:f3:bd:81:aa:20:23:33:5b:8e:20:b3:
         b9:ad:81:28:db:f8:c5:7c:0e:80:46:a9:57:46:f5:71:64:c3:
         cc:09:59:cb:78:a9:91:b9:3b:dc:f1:de:bd:da:c4:69:a1:53:
         17:03:da:b5:9f:de:4c:a4:fa:b7:ca:c6:05:57:65:76:75:0b:
         e6:9c:35:1d:27:ec:5d:80:73:02:ab:75:8a:7c:e4:86:e7:5b:
         ff:3a:b5:e5:61:74:ef:ca:8b:15:61:c4:9a:3c:4e:36:2e:7d:
         d4:9d:07:a7:3b:fc:79:8d:7e:fc:72:37:46:84:96:f6:d7:eb:
         80:26:5e:77
-----BEGIN CERTIFICATE-----
MIIDdzCCAl+gAwIBAgIQZXCnvWvbKKYXSn6+BHJqOTANBgkqhkiG9w0BAQsFADAW
MRQwEgYDVQQDDAt0ZWFtMzg5LW5ldDAeFw0yMTA5MTMwMjE3MTRaFw0yNDA4Mjgw
MjE3MTRaMBkxFzAVBgNVBAMMDnRlYW0zODktc2VydmVyMIIBIjANBgkqhkiG9w0B
AQEFAAOCAQ8AMIIBCgKCAQEA5SZlDUkkfjYqKembdR+R1HFNktGul2x/USxhGOLE
Ds6R3ohYooEaM92xWups2Bp+E26KOtWOWCJqFMTZIiOxQpZEVDwpuuY++fZP7i5Q
Bacg8ZMC4Fx+NJoH7HvNEe5j8Ob/7c8BYy/eUXzWM3OMyzaTxmdqwxlgE+c33pMA
/3G1o1NQsIVJOV+guIFbt2gncLFsX5anFv9bErqI8khpRxUeWn3xRjS8T8FCB2Ol
las5kVAb26D4k6TjFlVMU3fvBXZULfnp3BHVcuxUM0LLjF/ntDSeQlNLZB2akQft
ZcAU5X7tFmOi2r8cOdd4XX96BDQ2UB3WYrm42WpXR8lUOwIDAQABo4G9MIG6MAkG
A1UdEwQCMAAwHQYDVR0OBBYEFHPGOqP5SLtfLtjFbQXgI+aE78bTMFEGA1UdIwRK
MEiAFEkXrVCDhuLNW6iiNMhO/zRcaMkmoRqkGDAWMRQwEgYDVQQDDAt0ZWFtMzg5
LW5ldIIUAvCOcvcVYvxeEnClXLPgoRs5RmIwEwYDVR0lBAwwCgYIKwYBBQUHAwEw
CwYDVR0PBAQDAgWgMBkGA1UdEQQSMBCCDnRlYW0zODktc2VydmVyMA0GCSqGSIb3
DQEBCwUAA4IBAQAM25xK/LUjnxI20EkCQgGtmVBcrWpbMoH0PUnOlQgWLaC/SsmB
2tqWv6lFzRiKTKtp+qy8ZmCXUBaATTKRzLy9iPZEprth9l3nbLugy6XpMG6sEueX
w1ZrGQxgg0651f/lhHE962MaXbbZTgPFA3VPtpgskgnxbLwHpHzBUs7jnaHJE7Wp
872BqiAjM1uOILO5rYEo2/jFfA6ARqlXRvVxZMPMCVnLeKmRuTvc8d692sRpoVMX
A9q1n95MpPq3ysYFV2V2dQvmnDUdJ+xdgHMCq3WKfOSG51v/OrXlYXTvyosVYcSa
PE42Ln3UnQenO/x5jX78cjdGhJb21+uAJl53
-----END CERTIFICATE-----
