Certificate:
    Data:
        Version: 3 (0x2)
        Serial Number:
            97:1c:89:6d:ba:2d:6d:88:b2:9f:62:ec:51:78:e3:9d
        Signature Algorithm: sha256WithRSAEncryption
        Issuer: CN=team731-net
        Validity
            Not Before: Sep 13 05:02:40 2021 GMT
            Not After : Aug 28 05:02:40 2024 GMT
        Subject: CN=team731-server
        Subject Public Key Info:
            Public Key Algorithm: rsaEncryption
                RSA Public-Key: (2048 bit)
                Modulus:
                    00:c8:f4:c9:95:40:9e:b7:fa:bc:c3:21:f7:43:2c:
                    3c:ff:fb:76:28:41:1e:e6:01:8a:43:3f:8f:ee:43:
                    c7:41:a5:28:c0:fe:bb:7a:74:1c:85:42:00:8d:66:
                    1e:cc:e4:f3:de:c0:c5:b7:13:6a:7b:01:eb:d9:54:
                    4d:c6:e5:b5:cb:fb:ce:69:c1:8a:6b:8d:ac:e0:b6:
                    a9:88:03:83:10:a7:c9:8e:58:65:17:d8:63:63:04:
                    ef:57:7f:79:ee:d8:52:47:07:f7:bb:d8:8f:4d:76:
                    a6:82:3b:4e:ef:1e:41:f0:56:bf:c3:e2:1b:a7:24:
                    a5:80:90:4b:70:e2:3e:df:0a:16:16:cf:e2:13:59:
                    10:f1:88:13:dd:c7:24:ea:83:7d:fe:c0:59:86:5a:
                    16:61:fa:8b:2b:c6:e4:54:a9:f4:96:2b:99:10:2e:
                    7c:85:8f:6a:0f:b0:89:07:a4:fd:7f:58:23:70:c4:
                    8f:4c:ef:b9:90:10:1c:61:5f:b8:85:61:5d:5a:4a:
                    b5:92:77:8a:bf:59:0c:0f:1c:ef:d8:fb:77:71:5b:
                    21:0e:d8:d8:b2:be:ef:52:52:c1:c4:94:f2:2c:2f:
                    ba:dd:f9:5f:7a:a4:c4:70:8f:f8:d9:e6:bd:18:26:
                    7a:06:3e:4b:9a:4f:a1:3a:8f:cd:ba:c6:d0:21:63:
                    e3:0d
                Exponent: 65537 (0x10001)
        X509v3 extensions:
            X509v3 Basic Constraints: 
                CA:FALSE
            X509v3 Subject Key Identifier: 
                40:AE:E5:60:83:1F:CF:21:BD:9F:34:F8:C2:92:A7:B6:AC:C7:E6:EB
            X509v3 Authority Key Identifier: 
                keyid:E2:3D:AA:9B:47:5A:A0:E5:2C:0B:09:4B:74:F5:1C:67:36:95:5F:0B
                DirName:/CN=team731-net
                serial:48:6A:3E:85:20:26:1B:6F:9E:AA:E1:47:D1:18:C9:D8:16:C3:23:AD

            X509v3 Extended Key Usage: 
                TLS Web Server Authentication
            X509v3 Key Usage: 
                Digital Signature, Key Encipherment
            X509v3 Subject Alternative Name: 
                DNS:team731-server
    Signature Algorithm: sha256WithRSAEncryption
         a3:9a:ab:ba:0e:c9:54:31:7f:3e:37:9c:81:0d:cf:6f:57:fd:
         1e:ef:41:17:50:76:22:bc:09:49:33:ad:ff:35:89:fa:65:a7:
         6d:4a:75:2e:2f:ec:d3:cf:cb:16:5f:32:2c:65:9a:33:bb:a4:
         2f:7a:33:b2:27:5b:00:ed:74:ce:c9:00:4d:cf:d4:31:4c:c0:
         84:36:87:d8:79:37:d5:19:05:17:7e:42:a6:53:cd:be:24:53:
         f9:b8:2c:97:28:80:94:d7:b4:1f:20:2a:d3:bf:57:35:e5:45:
         b8:6c:63:f2:01:42:4e:f6:84:c0:84:13:91:a4:48:a0:9f:02:
         fd:0c:ee:e9:fe:6a:9a:68:40:d7:c4:7e:71:e9:f1:ef:21:fd:
         a0:47:fa:0a:67:8a:1b:58:83:37:aa:91:42:c1:0d:61:cf:4c:
         a5:a1:e5:87:3e:56:f3:aa:64:b8:9d:52:8a:00:50:68:48:16:
         7e:76:ff:2c:6c:04:17:5d:6c:fa:cc:6d:d6:97:a0:4e:fb:4a:
         5a:c1:55:0b:64:b8:03:d0:f1:8e:8e:dd:84:6f:c9:2f:51:c2:
         3b:65:60:64:2d:f3:d5:91:7c:3e:51:be:c5:67:8c:88:71:3b:
         5c:dd:da:5d:60:7e:2a:d3:a8:0b:4e:6f:40:35:a2:66:48:d4:
         fb:bf:b8:ef
-----BEGIN CERTIFICATE-----
MIIDeDCCAmCgAwIBAgIRAJcciW26LW2Isp9i7FF4450wDQYJKoZIhvcNAQELBQAw
FjEUMBIGA1UEAwwLdGVhbTczMS1uZXQwHhcNMjEwOTEzMDUwMjQwWhcNMjQwODI4
MDUwMjQwWjAZMRcwFQYDVQQDDA50ZWFtNzMxLXNlcnZlcjCCASIwDQYJKoZIhvcN
AQEBBQADggEPADCCAQoCggEBAMj0yZVAnrf6vMMh90MsPP/7dihBHuYBikM/j+5D
x0GlKMD+u3p0HIVCAI1mHszk897AxbcTansB69lUTcbltcv7zmnBimuNrOC2qYgD
gxCnyY5YZRfYY2ME71d/ee7YUkcH97vYj012poI7Tu8eQfBWv8PiG6ckpYCQS3Di
Pt8KFhbP4hNZEPGIE93HJOqDff7AWYZaFmH6iyvG5FSp9JYrmRAufIWPag+wiQek
/X9YI3DEj0zvuZAQHGFfuIVhXVpKtZJ3ir9ZDA8c79j7d3FbIQ7Y2LK+71JSwcSU
8iwvut35X3qkxHCP+NnmvRgmegY+S5pPoTqPzbrG0CFj4w0CAwEAAaOBvTCBujAJ
BgNVHRMEAjAAMB0GA1UdDgQWBBRAruVggx/PIb2fNPjCkqe2rMfm6zBRBgNVHSME
SjBIgBTiPaqbR1qg5SwLCUt09RxnNpVfC6EapBgwFjEUMBIGA1UEAwwLdGVhbTcz
MS1uZXSCFEhqPoUgJhtvnqrhR9EYydgWwyOtMBMGA1UdJQQMMAoGCCsGAQUFBwMB
MAsGA1UdDwQEAwIFoDAZBgNVHREEEjAQgg50ZWFtNzMxLXNlcnZlcjANBgkqhkiG
9w0BAQsFAAOCAQEAo5qrug7JVDF/PjecgQ3Pb1f9Hu9BF1B2IrwJSTOt/zWJ+mWn
bUp1Li/s08/LFl8yLGWaM7ukL3ozsidbAO10zskATc/UMUzAhDaH2Hk31RkFF35C
plPNviRT+bgslyiAlNe0HyAq079XNeVFuGxj8gFCTvaEwIQTkaRIoJ8C/Qzu6f5q
mmhA18R+cenx7yH9oEf6CmeKG1iDN6qRQsENYc9MpaHlhz5W86pkuJ1SigBQaEgW
fnb/LGwEF11s+sxt1pegTvtKWsFVC2S4A9Dxjo7dhG/JL1HCO2VgZC3z1ZF8PlG+
xWeMiHE7XN3aXWB+KtOoC05vQDWiZkjU+7+47w==
-----END CERTIFICATE-----
