Certificate:
    Data:
        Version: 3 (0x2)
        Serial Number:
            b7:1a:56:73:0b:dc:1c:6f:86:71:a8:1b:ad:1b:8b:93
        Signature Algorithm: sha256WithRSAEncryption
        Issuer: CN=team685-net
        Validity
            Not Before: Sep 13 04:40:19 2021 GMT
            Not After : Aug 28 04:40:19 2024 GMT
        Subject: CN=team685-server
        Subject Public Key Info:
            Public Key Algorithm: rsaEncryption
                RSA Public-Key: (2048 bit)
                Modulus:
                    00:ce:41:29:73:6b:16:2c:0d:51:6a:42:bd:e8:5f:
                    b8:58:73:73:3c:a1:1b:56:26:6d:d9:10:37:45:92:
                    3c:44:30:cc:cf:4d:83:7f:e8:93:67:fd:f5:8a:29:
                    94:db:43:95:61:86:01:4c:ac:19:09:cf:b1:8b:e7:
                    6e:77:3c:30:f8:ec:3b:b7:66:d2:d1:eb:f1:b4:f2:
                    eb:15:25:bb:a0:e4:f7:2a:e4:58:9d:59:9d:36:73:
                    9b:7e:44:86:9f:ba:43:f9:be:57:ce:11:ad:85:97:
                    9c:af:3c:1a:76:68:d5:b6:e5:d4:99:07:f8:fd:f2:
                    bc:7a:77:5b:a6:02:c2:6c:f9:f9:f2:89:a9:0c:db:
                    77:b6:1f:32:10:d9:eb:7c:92:e9:38:4b:a0:c2:ff:
                    f3:28:86:ce:1d:fb:18:5c:8a:7c:a3:c6:dd:d3:98:
                    39:df:b2:dd:8d:a0:63:b1:a3:29:21:fd:c7:b8:40:
                    03:e7:19:01:c1:34:26:b3:62:e2:84:3d:83:5d:f7:
                    e6:19:76:10:61:70:d3:32:65:77:63:aa:2a:9f:1a:
                    e0:05:82:91:a8:32:ea:fd:7c:a1:78:39:30:5f:b3:
                    e7:0a:19:ee:21:ed:b2:af:59:19:21:74:54:04:86:
                    5d:4f:92:6f:20:78:bd:9a:4b:90:6d:90:df:9a:84:
                    34:5b
                Exponent: 65537 (0x10001)
        X509v3 extensions:
            X509v3 Basic Constraints: 
                CA:FALSE
            X509v3 Subject Key Identifier: 
                0F:12:71:98:85:19:C0:99:E9:A6:6B:3D:A8:E1:CC:3C:7A:AD:66:23
            X509v3 Authority Key Identifier: 
                keyid:BB:62:84:B7:32:C7:73:A2:B4:42:EE:19:F3:20:B2:99:66:AB:F1:EA
                DirName:/CN=team685-net
                serial:11:84:FB:2E:AD:5F:AC:F4:27:FE:0B:30:B2:58:DA:29:5F:B3:9C:3C

            X509v3 Extended Key Usage: 
                TLS Web Server Authentication
            X509v3 Key Usage: 
                Digital Signature, Key Encipherment
            X509v3 Subject Alternative Name: 
                DNS:team685-server
    Signature Algorithm: sha256WithRSAEncryption
         10:c3:8a:29:3a:e6:35:36:8a:ff:fb:5d:42:11:8c:24:bf:87:
         6a:be:01:02:17:f1:1e:92:14:25:4b:bf:ff:c2:fe:ac:24:fc:
         b9:6f:f9:23:cc:ab:92:ca:0c:f5:b3:3a:6f:d5:19:c2:98:6f:
         c2:b9:c9:ef:ab:16:10:62:d6:b6:33:db:39:93:1e:b7:e9:85:
         6a:67:b7:e3:de:60:5d:76:46:c7:8d:ee:68:70:40:fd:6d:56:
         74:15:41:a0:eb:99:01:53:ae:21:26:09:28:3d:f6:f9:44:7b:
         5b:f5:80:1a:53:4f:52:e6:00:e7:d6:7c:aa:9d:03:07:3d:02:
         df:cb:2f:3c:dd:32:4d:10:11:83:8d:8b:a0:5c:8e:15:79:53:
         1b:12:5e:25:ef:24:ca:ad:00:32:d8:f6:b3:7c:ba:d0:88:62:
         95:6f:6c:76:ff:17:2b:69:81:d2:0b:af:81:aa:33:85:c9:3d:
         1d:99:9d:c4:c8:c1:bf:9f:d8:87:c3:d4:04:4a:30:4d:38:bf:
         34:7a:6a:b0:99:d7:aa:96:2d:24:f6:5a:c3:6d:0c:4e:91:dd:
         e6:f2:b0:78:47:d7:46:fc:07:a0:63:07:24:4e:b9:b4:44:0c:
         e3:62:d8:c8:9a:59:4a:63:1f:a6:f8:ab:47:85:29:ce:85:4e:
         83:ff:5f:d2
-----BEGIN CERTIFICATE-----
MIIDeDCCAmCgAwIBAgIRALcaVnML3BxvhnGoG60bi5MwDQYJKoZIhvcNAQELBQAw
FjEUMBIGA1UEAwwLdGVhbTY4NS1uZXQwHhcNMjEwOTEzMDQ0MDE5WhcNMjQwODI4
MDQ0MDE5WjAZMRcwFQYDVQQDDA50ZWFtNjg1LXNlcnZlcjCCASIwDQYJKoZIhvcN
AQEBBQADggEPADCCAQoCggEBAM5BKXNrFiwNUWpCvehfuFhzczyhG1YmbdkQN0WS
PEQwzM9Ng3/ok2f99YoplNtDlWGGAUysGQnPsYvnbnc8MPjsO7dm0tHr8bTy6xUl
u6Dk9yrkWJ1ZnTZzm35Ehp+6Q/m+V84RrYWXnK88GnZo1bbl1JkH+P3yvHp3W6YC
wmz5+fKJqQzbd7YfMhDZ63yS6ThLoML/8yiGzh37GFyKfKPG3dOYOd+y3Y2gY7Gj
KSH9x7hAA+cZAcE0JrNi4oQ9g1335hl2EGFw0zJld2OqKp8a4AWCkagy6v18oXg5
MF+z5woZ7iHtsq9ZGSF0VASGXU+SbyB4vZpLkG2Q35qENFsCAwEAAaOBvTCBujAJ
BgNVHRMEAjAAMB0GA1UdDgQWBBQPEnGYhRnAmemmaz2o4cw8eq1mIzBRBgNVHSME
SjBIgBS7YoS3MsdzorRC7hnzILKZZqvx6qEapBgwFjEUMBIGA1UEAwwLdGVhbTY4
NS1uZXSCFBGE+y6tX6z0J/4LMLJY2ilfs5w8MBMGA1UdJQQMMAoGCCsGAQUFBwMB
MAsGA1UdDwQEAwIFoDAZBgNVHREEEjAQgg50ZWFtNjg1LXNlcnZlcjANBgkqhkiG
9w0BAQsFAAOCAQEAEMOKKTrmNTaK//tdQhGMJL+Har4BAhfxHpIUJUu//8L+rCT8
uW/5I8yrksoM9bM6b9UZwphvwrnJ76sWEGLWtjPbOZMet+mFame3495gXXZGx43u
aHBA/W1WdBVBoOuZAVOuISYJKD32+UR7W/WAGlNPUuYA59Z8qp0DBz0C38svPN0y
TRARg42LoFyOFXlTGxJeJe8kyq0AMtj2s3y60IhilW9sdv8XK2mB0guvgaozhck9
HZmdxMjBv5/Yh8PUBEowTTi/NHpqsJnXqpYtJPZaw20MTpHd5vKweEfXRvwHoGMH
JE65tEQM42LYyJpZSmMfpvirR4UpzoVOg/9f0g==
-----END CERTIFICATE-----
