Certificate:
    Data:
        Version: 3 (0x2)
        Serial Number:
            93:b0:02:4a:09:0a:1a:28:f4:33:cb:ff:62:e2:86:cc
        Signature Algorithm: sha256WithRSAEncryption
        Issuer: CN=team83-net
        Validity
            Not Before: Sep 12 23:25:45 2021 GMT
            Not After : Aug 27 23:25:45 2024 GMT
        Subject: CN=team83-client
        Subject Public Key Info:
            Public Key Algorithm: rsaEncryption
                RSA Public-Key: (2048 bit)
                Modulus:
                    00:e5:8d:74:ab:8e:dd:00:bd:55:b1:c6:bd:dc:b8:
                    d7:84:91:ce:2d:61:f2:ed:03:6c:1f:bf:30:2f:0e:
                    c1:ae:d6:b7:68:16:41:b2:36:7d:b3:21:bf:dc:2a:
                    e7:9e:6c:6e:bd:2c:c0:31:b6:9f:ac:4c:ad:8c:3e:
                    aa:83:06:28:4a:89:6b:90:46:d9:06:ac:c8:1a:eb:
                    02:eb:58:3c:bd:d0:f4:aa:98:1a:ae:89:dc:2e:14:
                    cf:00:79:60:8e:3f:1c:6a:de:3e:58:28:7b:8f:d5:
                    53:6a:75:a2:d5:39:32:a9:62:71:e5:bc:85:57:30:
                    60:d9:f9:da:e9:64:4c:d5:76:d5:6b:c9:6f:ff:ae:
                    5a:61:38:1a:e9:64:2b:a9:36:8e:50:11:1d:54:41:
                    f6:68:b0:bd:39:37:ec:3c:80:5f:d7:9b:ec:1b:72:
                    af:bd:8d:53:3b:0c:50:02:74:a3:8a:8b:3b:c7:c4:
                    23:d8:f7:8f:e3:5a:e1:bc:68:57:db:c0:ec:13:e6:
                    f1:eb:e6:f7:a9:ce:27:c2:ea:07:84:a4:90:79:49:
                    44:b6:7f:d6:01:30:d8:c9:16:36:35:e9:6a:70:53:
                    42:ed:8f:75:dd:58:3b:e4:8f:7f:4c:2d:06:b7:e8:
                    14:5d:87:0a:b2:a3:33:2a:25:1e:27:74:cd:eb:4a:
                    80:73
                Exponent: 65537 (0x10001)
        X509v3 extensions:
            X509v3 Basic Constraints: 
                CA:FALSE
            X509v3 Subject Key Identifier: 
                B2:F1:F0:ED:EA:38:46:D7:DB:F4:EE:64:8F:7A:F2:FA:09:62:50:5E
            X509v3 Authority Key Identifier: 
                keyid:BA:B6:2F:71:E0:30:AD:90:B5:63:80:21:36:6E:7D:9C:63:88:07:13
                DirName:/CN=team83-net
                serial:24:42:DB:68:F5:61:1C:37:BA:3B:04:77:E9:7F:6A:C7:8F:5D:1A:2D

            X509v3 Extended Key Usage: 
                TLS Web Client Authentication
            X509v3 Key Usage: 
                Digital Signature
    Signature Algorithm: sha256WithRSAEncryption
         51:8d:7f:1c:6e:f1:da:35:7b:a0:24:9d:8f:01:bc:e4:60:4e:
         f8:05:33:88:09:5a:66:93:87:42:94:e8:c2:33:92:7d:3a:16:
         89:3c:3e:fd:6f:20:a2:d1:b2:d0:18:b3:41:31:d5:b2:81:a7:
         d7:55:7c:6d:07:ca:6f:62:02:d1:18:0e:f6:9e:80:9b:7d:02:
         04:06:29:ae:e7:7f:81:f8:b3:c1:df:41:60:59:d7:11:94:f6:
         21:62:34:b1:b0:9d:c6:f1:1d:f8:d7:c4:15:4d:dc:e1:01:66:
         a3:25:08:5b:aa:ff:a3:53:13:ae:d6:ef:05:f6:9c:24:dd:ba:
         9d:8d:57:f0:84:41:15:e5:fb:e7:a5:2a:c7:7f:49:ad:79:8d:
         96:da:c6:68:96:6f:d4:81:8f:c2:74:a0:dd:6b:e5:55:af:44:
         9b:69:19:f5:6e:2a:83:ec:c0:10:33:8c:ec:e2:af:5c:09:3a:
         61:e0:81:f0:a2:3e:a5:ea:5f:84:04:46:08:70:f8:b8:27:27:
         28:2c:8e:fa:d7:d4:22:eb:9c:84:c6:e7:19:9b:c2:8f:13:5b:
         80:43:2f:a8:f9:a4:bc:26:5f:73:80:57:17:c3:4d:9c:10:10:
         85:98:af:d3:0e:69:82:2d:74:a6:95:1a:21:90:cf:b7:07:1f:
         3f:8b:4d:05
-----BEGIN CERTIFICATE-----
MIIDWjCCAkKgAwIBAgIRAJOwAkoJChoo9DPL/2LihswwDQYJKoZIhvcNAQELBQAw
FTETMBEGA1UEAwwKdGVhbTgzLW5ldDAeFw0yMTA5MTIyMzI1NDVaFw0yNDA4Mjcy
MzI1NDVaMBgxFjAUBgNVBAMMDXRlYW04My1jbGllbnQwggEiMA0GCSqGSIb3DQEB
AQUAA4IBDwAwggEKAoIBAQDljXSrjt0AvVWxxr3cuNeEkc4tYfLtA2wfvzAvDsGu
1rdoFkGyNn2zIb/cKueebG69LMAxtp+sTK2MPqqDBihKiWuQRtkGrMga6wLrWDy9
0PSqmBquidwuFM8AeWCOPxxq3j5YKHuP1VNqdaLVOTKpYnHlvIVXMGDZ+drpZEzV
dtVryW//rlphOBrpZCupNo5QER1UQfZosL05N+w8gF/Xm+wbcq+9jVM7DFACdKOK
izvHxCPY94/jWuG8aFfbwOwT5vHr5vepzifC6geEpJB5SUS2f9YBMNjJFjY16Wpw
U0Ltj3XdWDvkj39MLQa36BRdhwqyozMqJR4ndM3rSoBzAgMBAAGjgaEwgZ4wCQYD
VR0TBAIwADAdBgNVHQ4EFgQUsvHw7eo4Rtfb9O5kj3ry+gliUF4wUAYDVR0jBEkw
R4AUurYvceAwrZC1Y4AhNm59nGOIBxOhGaQXMBUxEzARBgNVBAMMCnRlYW04My1u
ZXSCFCRC22j1YRw3ujsEd+l/asePXRotMBMGA1UdJQQMMAoGCCsGAQUFBwMCMAsG
A1UdDwQEAwIHgDANBgkqhkiG9w0BAQsFAAOCAQEAUY1/HG7x2jV7oCSdjwG85GBO
+AUziAlaZpOHQpTowjOSfToWiTw+/W8gotGy0BizQTHVsoGn11V8bQfKb2IC0RgO
9p6Am30CBAYprud/gfizwd9BYFnXEZT2IWI0sbCdxvEd+NfEFU3c4QFmoyUIW6r/
o1MTrtbvBfacJN26nY1X8IRBFeX756Uqx39JrXmNltrGaJZv1IGPwnSg3WvlVa9E
m2kZ9W4qg+zAEDOM7OKvXAk6YeCB8KI+pepfhARGCHD4uCcnKCyO+tfUIuuchMbn
GZvCjxNbgEMvqPmkvCZfc4BXF8NNnBAQhZiv0w5pgi10ppUaIZDPtwcfP4tNBQ==
-----END CERTIFICATE-----
