Certificate:
    Data:
        Version: 3 (0x2)
        Serial Number:
            43:c7:1b:c3:00:61:a6:fb:9e:6d:4e:5e:f1:c0:49:7e
        Signature Algorithm: sha256WithRSAEncryption
        Issuer: CN=team515-net
        Validity
            Not Before: Sep 13 03:12:57 2021 GMT
            Not After : Aug 28 03:12:57 2024 GMT
        Subject: CN=team515-client
        Subject Public Key Info:
            Public Key Algorithm: rsaEncryption
                RSA Public-Key: (2048 bit)
                Modulus:
                    00:d1:e1:d0:17:d0:4e:e6:69:e6:65:21:a4:f8:4a:
                    4b:d4:c7:2f:35:29:86:64:a9:bf:2a:97:b2:0e:6b:
                    15:bd:2e:7f:34:e7:5e:a2:1e:01:24:44:b4:8d:2c:
                    0b:83:d0:6a:7b:67:db:a2:17:be:78:28:f9:35:83:
                    ed:36:0c:3b:58:4c:d7:ae:e0:7f:f6:c4:3d:26:d9:
                    cb:99:b6:e7:a1:a4:9a:fe:69:b7:f9:9f:1c:a0:e4:
                    a6:7d:63:a0:78:80:3e:92:e2:33:fb:cd:af:b9:98:
                    4c:f0:cc:7c:02:d6:42:16:75:b7:fa:77:e1:1c:6c:
                    5c:ba:88:92:99:d6:c2:3c:97:a0:df:c0:5a:55:1c:
                    7a:25:82:de:ff:66:ea:0e:3e:59:bd:05:af:96:85:
                    2c:97:96:92:d1:6c:79:b2:32:ad:3b:db:75:53:00:
                    c3:c6:4b:11:27:df:6e:e8:49:91:d8:93:e9:98:ef:
                    6a:50:05:05:d4:5d:39:49:98:0d:45:9f:4c:4e:21:
                    0e:60:4e:43:53:68:cf:1b:81:6f:6b:c8:84:39:df:
                    41:b0:9c:4d:f6:b2:07:e4:fa:02:53:2b:3c:1b:bc:
                    dd:d4:19:5e:31:d6:be:3e:e5:f3:ae:d1:de:e7:64:
                    3f:1f:28:38:50:b9:fe:09:6f:52:99:81:9f:d5:eb:
                    d5:05
                Exponent: 65537 (0x10001)
        X509v3 extensions:
            X509v3 Basic Constraints: 
                CA:FALSE
            X509v3 Subject Key Identifier: 
                2D:EA:5D:93:1E:B9:9E:BC:4C:0C:0C:2E:40:14:10:D4:68:EC:FD:B3
            X509v3 Authority Key Identifier: 
                keyid:4B:83:69:69:FA:B3:39:96:77:00:3D:3D:0C:0C:7B:8C:07:CE:DF:5D
                DirName:/CN=team515-net
                serial:59:D4:A9:DF:C6:CD:41:8E:9B:F1:C1:E7:09:3B:0E:76:3D:0D:7F:EB

            X509v3 Extended Key Usage: 
                TLS Web Client Authentication
            X509v3 Key Usage: 
                Digital Signature
    Signature Algorithm: sha256WithRSAEncryption
         18:3a:4d:ca:84:20:2b:4d:a0:32:7b:03:d7:cb:81:fe:88:85:
         c4:fc:bf:53:9e:34:8a:ba:13:e0:e8:9e:33:15:e8:48:ec:d4:
         d7:b9:65:d9:b7:b1:db:bc:e8:8b:df:c5:3d:53:95:ba:3b:ec:
         f7:6f:6b:32:b3:07:8f:04:d5:7a:ae:82:67:88:78:86:96:28:
         29:34:77:d0:b4:07:c7:ef:63:80:04:27:c5:bb:52:39:6d:7e:
         92:dd:b8:55:af:74:0a:1f:50:4f:48:1e:36:85:ac:84:5b:c1:
         f7:b2:75:43:ad:ae:b1:50:f0:f5:bd:06:a2:16:81:1c:52:1f:
         29:15:e4:28:bb:f3:3f:bd:a5:86:75:82:23:93:56:7f:21:85:
         4d:1d:89:e9:39:63:20:27:e4:10:fa:21:4b:94:c5:a2:cb:87:
         1e:06:eb:53:0b:e8:55:f9:8f:44:7b:fa:c5:18:6b:c2:f1:76:
         f2:63:4e:23:d8:df:c5:79:80:54:9a:af:5b:be:f7:9d:65:9e:
         41:66:33:03:bf:6b:1d:c7:98:07:8b:dc:26:12:bc:3f:61:bc:
         c5:02:2c:57:d1:e8:3a:46:d2:86:00:12:8b:9d:a3:6e:2e:83:
         fb:f4:fb:9b:8b:04:68:61:40:df:07:d4:3f:02:bf:8f:1c:7c:
         f9:9e:46:9d
-----BEGIN CERTIFICATE-----
MIIDXDCCAkSgAwIBAgIQQ8cbwwBhpvuebU5e8cBJfjANBgkqhkiG9w0BAQsFADAW
MRQwEgYDVQQDDAt0ZWFtNTE1LW5ldDAeFw0yMTA5MTMwMzEyNTdaFw0yNDA4Mjgw
MzEyNTdaMBkxFzAVBgNVBAMMDnRlYW01MTUtY2xpZW50MIIBIjANBgkqhkiG9w0B
AQEFAAOCAQ8AMIIBCgKCAQEA0eHQF9BO5mnmZSGk+EpL1McvNSmGZKm/KpeyDmsV
vS5/NOdeoh4BJES0jSwLg9Bqe2fbohe+eCj5NYPtNgw7WEzXruB/9sQ9JtnLmbbn
oaSa/mm3+Z8coOSmfWOgeIA+kuIz+82vuZhM8Mx8AtZCFnW3+nfhHGxcuoiSmdbC
PJeg38BaVRx6JYLe/2bqDj5ZvQWvloUsl5aS0Wx5sjKtO9t1UwDDxksRJ99u6EmR
2JPpmO9qUAUF1F05SZgNRZ9MTiEOYE5DU2jPG4Fva8iEOd9BsJxN9rIH5PoCUys8
G7zd1BleMda+PuXzrtHe52Q/Hyg4ULn+CW9SmYGf1evVBQIDAQABo4GiMIGfMAkG
A1UdEwQCMAAwHQYDVR0OBBYEFC3qXZMeuZ68TAwMLkAUENRo7P2zMFEGA1UdIwRK
MEiAFEuDaWn6szmWdwA9PQwMe4wHzt9doRqkGDAWMRQwEgYDVQQDDAt0ZWFtNTE1
LW5ldIIUWdSp38bNQY6b8cHnCTsOdj0Nf+swEwYDVR0lBAwwCgYIKwYBBQUHAwIw
CwYDVR0PBAQDAgeAMA0GCSqGSIb3DQEBCwUAA4IBAQAYOk3KhCArTaAyewPXy4H+
iIXE/L9TnjSKuhPg6J4zFehI7NTXuWXZt7HbvOiL38U9U5W6O+z3b2syswePBNV6
roJniHiGligpNHfQtAfH72OABCfFu1I5bX6S3bhVr3QKH1BPSB42hayEW8H3snVD
ra6xUPD1vQaiFoEcUh8pFeQou/M/vaWGdYIjk1Z/IYVNHYnpOWMgJ+QQ+iFLlMWi
y4ceButTC+hV+Y9Ee/rFGGvC8XbyY04j2N/FeYBUmq9bvvedZZ5BZjMDv2sdx5gH
i9wmErw/YbzFAixX0eg6RtKGABKLnaNuLoP79PubiwRoYUDfB9Q/Ar+PHHz5nkad
-----END CERTIFICATE-----
