Certificate:
    Data:
        Version: 3 (0x2)
        Serial Number:
            54:97:22:61:2f:77:b6:ba:78:43:96:db:29:10:e2:e9
        Signature Algorithm: sha256WithRSAEncryption
        Issuer: CN=team443-net
        Validity
            Not Before: Sep 13 02:48:24 2021 GMT
            Not After : Aug 28 02:48:24 2024 GMT
        Subject: CN=team443-client
        Subject Public Key Info:
            Public Key Algorithm: rsaEncryption
                RSA Public-Key: (2048 bit)
                Modulus:
                    00:a2:d9:a6:c5:b3:8a:c4:0c:ec:60:90:9b:79:e8:
                    c5:c4:ed:e9:e4:55:5b:99:26:e2:e5:c3:2a:76:99:
                    a6:de:6b:4f:bb:da:c7:21:a7:f4:fb:86:44:7d:ba:
                    aa:d5:ce:bc:ca:4e:de:4c:c7:81:77:7d:cc:ba:be:
                    fe:77:0a:6e:0c:1c:92:cb:33:16:3b:47:3f:67:54:
                    4d:4f:c5:fc:2e:6b:3d:6d:47:76:2e:9e:f7:c1:6f:
                    3b:bf:6f:8f:1f:86:32:5b:a1:73:ba:ca:f0:50:bd:
                    a0:e6:49:f5:19:15:82:88:d7:b5:b4:2d:79:ea:32:
                    bb:d4:55:b0:de:aa:a3:ac:60:74:cd:75:2a:8d:2e:
                    0c:ce:b8:57:36:12:8f:5d:e1:20:44:2a:8e:9a:b1:
                    0b:4b:cf:4e:f3:3a:e0:4b:63:c5:7a:68:7e:f0:74:
                    4b:26:cc:0a:08:ac:d3:6c:41:11:cc:c7:e7:5f:52:
                    10:e3:09:0e:2c:33:c7:f9:60:ca:44:f4:40:8d:61:
                    1e:f0:15:04:f3:e2:91:83:d2:b8:06:87:df:3d:11:
                    eb:50:3a:d6:0e:4b:11:0a:9d:d1:33:81:64:c4:c3:
                    62:bc:9e:b5:22:1c:0d:4a:a2:c4:e6:d8:77:1a:04:
                    63:08:7e:74:e7:7d:16:ad:c9:af:0a:e9:a8:21:ab:
                    13:0f
                Exponent: 65537 (0x10001)
        X509v3 extensions:
            X509v3 Basic Constraints: 
                CA:FALSE
            X509v3 Subject Key Identifier: 
                52:41:46:8F:10:A2:B3:E6:F1:66:49:36:51:93:FD:24:51:FB:07:32
            X509v3 Authority Key Identifier: 
                keyid:C7:C1:99:1D:A6:CA:B2:20:66:83:1A:EB:F0:44:FB:6F:5F:B1:6A:7A
                DirName:/CN=team443-net
                serial:0B:34:30:DA:01:FA:A0:54:1D:B7:D6:FA:2C:69:BE:A5:E3:EE:03:F2

            X509v3 Extended Key Usage: 
                TLS Web Client Authentication
            X509v3 Key Usage: 
                Digital Signature
    Signature Algorithm: sha256WithRSAEncryption
         96:d3:34:ae:e8:f9:aa:71:bb:ed:78:05:14:30:f7:0d:57:88:
         4e:61:3a:84:e2:0e:9a:d8:a2:ba:3d:dc:a3:15:ba:bb:56:3f:
         15:ed:ca:db:eb:d7:a4:67:18:9a:d6:17:11:60:38:81:24:66:
         4f:c9:c0:bb:f4:ad:71:28:e1:06:04:ba:01:78:8f:a1:ff:43:
         e1:6f:b8:d7:d3:e6:dd:d1:b8:f2:b4:66:df:b2:ee:1a:93:1f:
         67:09:24:f7:33:1a:e4:43:fe:ba:b9:e5:f0:c1:8c:43:d2:53:
         8d:00:73:1c:29:c8:06:17:9e:09:c5:b5:7e:c2:8b:dc:ac:31:
         78:c8:41:4c:17:e4:7d:e9:95:47:71:68:84:7a:ba:bc:ef:ba:
         fa:86:a0:a7:61:d7:4d:95:4d:0c:16:f7:22:aa:5c:14:24:93:
         65:63:e2:38:0d:1a:cc:f1:a2:f6:48:75:2e:01:3a:8b:05:cb:
         6b:6f:ac:91:0d:87:4f:6e:53:dc:af:78:a8:df:98:17:ee:21:
         d4:a9:f3:bf:aa:5d:70:5f:fd:16:57:e7:ba:e0:25:46:cb:92:
         a4:9b:1f:e2:00:f2:07:e5:e8:1e:b3:23:25:97:2e:06:83:7a:
         56:60:e1:6b:68:50:c9:f8:76:cd:fd:15:62:95:5c:14:17:98:
         2f:e3:46:9f
-----BEGIN CERTIFICATE-----
MIIDXDCCAkSgAwIBAgIQVJciYS93trp4Q5bbKRDi6TANBgkqhkiG9w0BAQsFADAW
MRQwEgYDVQQDDAt0ZWFtNDQzLW5ldDAeFw0yMTA5MTMwMjQ4MjRaFw0yNDA4Mjgw
MjQ4MjRaMBkxFzAVBgNVBAMMDnRlYW00NDMtY2xpZW50MIIBIjANBgkqhkiG9w0B
AQEFAAOCAQ8AMIIBCgKCAQEAotmmxbOKxAzsYJCbeejFxO3p5FVbmSbi5cMqdpmm
3mtPu9rHIaf0+4ZEfbqq1c68yk7eTMeBd33Mur7+dwpuDBySyzMWO0c/Z1RNT8X8
Lms9bUd2Lp73wW87v2+PH4YyW6FzusrwUL2g5kn1GRWCiNe1tC156jK71FWw3qqj
rGB0zXUqjS4MzrhXNhKPXeEgRCqOmrELS89O8zrgS2PFemh+8HRLJswKCKzTbEER
zMfnX1IQ4wkOLDPH+WDKRPRAjWEe8BUE8+KRg9K4BoffPRHrUDrWDksRCp3RM4Fk
xMNivJ61IhwNSqLE5th3GgRjCH50530WrcmvCumoIasTDwIDAQABo4GiMIGfMAkG
A1UdEwQCMAAwHQYDVR0OBBYEFFJBRo8QorPm8WZJNlGT/SRR+wcyMFEGA1UdIwRK
MEiAFMfBmR2myrIgZoMa6/BE+29fsWp6oRqkGDAWMRQwEgYDVQQDDAt0ZWFtNDQz
LW5ldIIUCzQw2gH6oFQdt9b6LGm+pePuA/IwEwYDVR0lBAwwCgYIKwYBBQUHAwIw
CwYDVR0PBAQDAgeAMA0GCSqGSIb3DQEBCwUAA4IBAQCW0zSu6PmqcbvteAUUMPcN
V4hOYTqE4g6a2KK6PdyjFbq7Vj8V7crb69ekZxia1hcRYDiBJGZPycC79K1xKOEG
BLoBeI+h/0Phb7jX0+bd0bjytGbfsu4akx9nCST3MxrkQ/66ueXwwYxD0lONAHMc
KcgGF54JxbV+wovcrDF4yEFMF+R96ZVHcWiEerq877r6hqCnYddNlU0MFvciqlwU
JJNlY+I4DRrM8aL2SHUuATqLBctrb6yRDYdPblPcr3io35gX7iHUqfO/ql1wX/0W
V+e64CVGy5Kkmx/iAPIH5egesyMlly4Gg3pWYOFraFDJ+HbN/RVilVwUF5gv40af
-----END CERTIFICATE-----
