Certificate:
    Data:
        Version: 3 (0x2)
        Serial Number:
            aa:cb:f5:49:81:cd:aa:c8:5f:90:30:8c:4d:6c:ac:df
        Signature Algorithm: sha256WithRSAEncryption
        Issuer: CN=team58-net
        Validity
            Not Before: Sep 12 23:11:46 2021 GMT
            Not After : Aug 27 23:11:46 2024 GMT
        Subject: CN=team58-server
        Subject Public Key Info:
            Public Key Algorithm: rsaEncryption
                RSA Public-Key: (2048 bit)
                Modulus:
                    00:e8:c7:fa:bc:ea:65:a8:8e:93:c0:71:8e:0c:f0:
                    4b:6f:0f:3a:23:58:63:17:bc:0b:02:2c:74:15:9b:
                    0c:3b:e1:2f:6e:4e:0c:70:ae:6d:82:b0:c7:a2:e1:
                    69:9f:34:b1:0e:7c:64:b9:3e:d7:69:17:03:ce:de:
                    7d:73:d7:e5:50:f3:52:5c:59:71:73:6e:c6:1d:66:
                    b1:d1:59:28:c6:14:86:db:6c:bd:a7:37:06:6f:39:
                    12:0b:38:59:c7:5a:28:d1:66:80:f8:f5:41:f1:4d:
                    20:07:e6:f7:40:c4:c3:80:67:13:25:ac:50:41:86:
                    3b:12:05:8d:52:fe:f2:95:99:90:67:6b:c8:f6:65:
                    42:d3:99:48:f3:5e:7e:f9:9e:e5:e4:f5:b4:89:c2:
                    61:9f:22:ad:45:e8:25:20:29:5f:30:ce:d3:0f:e1:
                    7b:23:05:7d:1d:38:ba:34:64:52:b2:7b:f0:e3:91:
                    5d:e1:67:bb:91:66:b5:5d:c5:23:d4:98:2e:3d:d9:
                    3e:52:74:e8:de:30:00:84:dd:44:17:0c:65:0d:f9:
                    b6:aa:f4:79:6b:40:bb:7e:86:f6:d7:22:53:c4:e1:
                    d6:4d:b5:4b:ca:e8:bf:70:26:fd:06:ca:94:f7:1c:
                    bd:9f:f2:6d:72:a6:88:ac:e0:73:6e:69:88:c5:a9:
                    4d:c1
                Exponent: 65537 (0x10001)
        X509v3 extensions:
            X509v3 Basic Constraints: 
                CA:FALSE
            X509v3 Subject Key Identifier: 
                B4:1A:95:4A:1D:66:25:5E:DF:F0:1B:19:E1:EA:AA:76:67:79:30:42
            X509v3 Authority Key Identifier: 
                keyid:83:84:93:C7:8E:D5:9F:C9:96:E1:44:5A:B2:DA:AC:26:AF:87:52:4F
                DirName:/CN=team58-net
                serial:38:9C:69:E5:C1:EA:49:57:40:CC:A6:F9:2A:FE:C2:DE:A6:4F:4A:4E

            X509v3 Extended Key Usage: 
                TLS Web Server Authentication
            X509v3 Key Usage: 
                Digital Signature, Key Encipherment
            X509v3 Subject Alternative Name: 
                DNS:team58-server
    Signature Algorithm: sha256WithRSAEncryption
         2e:ee:0d:7f:73:03:61:5c:e7:1f:57:07:a0:b6:72:e4:a9:cf:
         48:5f:5e:f1:1a:c4:70:4a:10:5d:0a:51:84:a5:fe:ef:d3:c8:
         d0:90:74:aa:ff:2e:53:1a:9a:a2:e6:a1:f4:9b:9d:fe:f2:02:
         f5:8e:ff:54:86:4e:f5:28:7e:13:19:6e:fc:4d:e4:cc:ac:fc:
         84:b3:e1:d5:6b:0f:26:bc:16:de:57:16:f5:6f:73:39:19:03:
         b5:d0:6c:3f:c8:aa:8c:2a:85:f5:cb:c4:f2:21:31:f7:18:48:
         56:ef:8a:a7:cd:79:6c:02:74:a2:e5:25:2a:30:ba:9c:84:23:
         6f:1a:5d:b7:d1:bc:44:94:f3:2c:85:3a:63:76:d9:7c:9e:ef:
         96:7f:60:1a:45:0e:96:a4:b5:16:d3:52:10:46:66:92:28:67:
         22:3a:a9:a2:73:1f:5e:9a:3d:a8:2f:cd:ef:90:ad:b3:41:3f:
         48:37:0d:29:69:36:56:43:9b:9e:ec:6c:f5:84:e1:69:e9:93:
         c4:15:06:ee:3a:65:6e:3c:48:0b:c8:f6:9d:d1:31:0e:03:be:
         de:63:d0:fe:56:4f:d1:ea:26:5d:3c:46:f1:a5:b8:d2:ed:89:
         34:65:36:d0:4b:3c:01:65:25:0d:e1:ab:a4:32:40:30:f0:54:
         ff:ec:90:08
-----BEGIN CERTIFICATE-----
MIIDdDCCAlygAwIBAgIRAKrL9UmBzarIX5AwjE1srN8wDQYJKoZIhvcNAQELBQAw
FTETMBEGA1UEAwwKdGVhbTU4LW5ldDAeFw0yMTA5MTIyMzExNDZaFw0yNDA4Mjcy
MzExNDZaMBgxFjAUBgNVBAMMDXRlYW01OC1zZXJ2ZXIwggEiMA0GCSqGSIb3DQEB
AQUAA4IBDwAwggEKAoIBAQDox/q86mWojpPAcY4M8EtvDzojWGMXvAsCLHQVmww7
4S9uTgxwrm2CsMei4WmfNLEOfGS5PtdpFwPO3n1z1+VQ81JcWXFzbsYdZrHRWSjG
FIbbbL2nNwZvORILOFnHWijRZoD49UHxTSAH5vdAxMOAZxMlrFBBhjsSBY1S/vKV
mZBna8j2ZULTmUjzXn75nuXk9bSJwmGfIq1F6CUgKV8wztMP4XsjBX0dOLo0ZFKy
e/DjkV3hZ7uRZrVdxSPUmC492T5SdOjeMACE3UQXDGUN+baq9HlrQLt+hvbXIlPE
4dZNtUvK6L9wJv0GypT3HL2f8m1ypois4HNuaYjFqU3BAgMBAAGjgbswgbgwCQYD
VR0TBAIwADAdBgNVHQ4EFgQUtBqVSh1mJV7f8BsZ4eqqdmd5MEIwUAYDVR0jBEkw
R4AUg4STx47Vn8mW4URastqsJq+HUk+hGaQXMBUxEzARBgNVBAMMCnRlYW01OC1u
ZXSCFDicaeXB6klXQMym+Sr+wt6mT0pOMBMGA1UdJQQMMAoGCCsGAQUFBwMBMAsG
A1UdDwQEAwIFoDAYBgNVHREEETAPgg10ZWFtNTgtc2VydmVyMA0GCSqGSIb3DQEB
CwUAA4IBAQAu7g1/cwNhXOcfVwegtnLkqc9IX17xGsRwShBdClGEpf7v08jQkHSq
/y5TGpqi5qH0m53+8gL1jv9Uhk71KH4TGW78TeTMrPyEs+HVaw8mvBbeVxb1b3M5
GQO10Gw/yKqMKoX1y8TyITH3GEhW74qnzXlsAnSi5SUqMLqchCNvGl230bxElPMs
hTpjdtl8nu+Wf2AaRQ6WpLUW01IQRmaSKGciOqmicx9emj2oL83vkK2zQT9INw0p
aTZWQ5ue7Gz1hOFp6ZPEFQbuOmVuPEgLyPad0TEOA77eY9D+Vk/R6iZdPEbxpbjS
7Yk0ZTbQSzwBZSUN4aukMkAw8FT/7JAI
-----END CERTIFICATE-----
