Certificate:
    Data:
        Version: 3 (0x2)
        Serial Number:
            8c:ed:83:e2:7c:ce:3f:38:a6:06:ee:c6:51:b3:65:f5
        Signature Algorithm: sha256WithRSAEncryption
        Issuer: CN=team676-net
        Validity
            Not Before: Sep 13 04:35:25 2021 GMT
            Not After : Aug 28 04:35:25 2024 GMT
        Subject: CN=team676-client
        Subject Public Key Info:
            Public Key Algorithm: rsaEncryption
                RSA Public-Key: (2048 bit)
                Modulus:
                    00:a1:81:d7:6a:1a:57:36:60:b8:dd:f5:29:94:37:
                    9b:66:43:53:ad:cd:86:af:30:46:10:17:1f:15:7e:
                    bf:b3:f1:5e:19:6b:47:6e:9b:b4:16:4a:1e:4c:29:
                    1f:66:94:47:b2:55:b7:2c:f9:98:1b:74:72:0b:c9:
                    a9:92:e2:82:13:35:87:19:b8:ec:0f:8f:5f:a9:24:
                    ac:d0:80:18:c0:5e:05:fe:fe:3b:bc:48:a4:40:8b:
                    f0:3b:ec:66:2b:5d:25:46:02:28:4a:6a:9c:a5:f5:
                    1b:85:c8:49:fd:e7:65:0d:31:23:47:52:23:4b:90:
                    36:68:61:62:04:bf:6c:c2:ab:42:39:2e:da:d8:00:
                    63:b6:35:12:a6:51:82:c2:5e:3f:c1:e1:85:41:37:
                    73:fa:78:3a:17:95:e7:08:fd:41:d4:9c:99:b4:3a:
                    a4:7d:cc:0d:43:1c:8a:ef:cd:0b:36:fc:08:00:2c:
                    39:c9:cc:1a:d3:92:69:65:1f:ba:ba:87:df:17:ec:
                    e7:6f:97:9f:63:6c:d9:cf:44:64:b7:f6:c3:72:1c:
                    7f:46:32:77:c8:98:34:2b:f0:2a:cc:63:ab:e0:70:
                    e4:53:cb:c6:3c:b5:1a:f8:b9:56:de:b3:e7:9a:32:
                    7e:90:64:7a:22:c0:c0:31:be:64:5b:9e:a7:0d:37:
                    25:a3
                Exponent: 65537 (0x10001)
        X509v3 extensions:
            X509v3 Basic Constraints: 
                CA:FALSE
            X509v3 Subject Key Identifier: 
                63:8C:2E:94:D0:44:BF:3D:51:78:BA:94:DB:29:21:07:13:17:50:34
            X509v3 Authority Key Identifier: 
                keyid:88:80:6D:4C:76:D7:20:7F:4F:D8:0E:29:90:80:A9:D5:13:6E:26:4B
                DirName:/CN=team676-net
                serial:4E:0D:56:B4:7C:3C:61:B0:22:65:FB:E1:C8:A0:2C:85:71:44:76:DD

            X509v3 Extended Key Usage: 
                TLS Web Client Authentication
            X509v3 Key Usage: 
                Digital Signature
    Signature Algorithm: sha256WithRSAEncryption
         e7:a2:30:b8:36:99:48:4e:e6:a3:ec:3a:e2:24:7e:69:17:53:
         ae:93:85:bc:3a:5e:d8:63:e0:32:ed:b9:86:82:06:45:29:4b:
         92:7c:a9:bb:4d:9f:67:51:d5:82:df:80:6a:25:34:56:f1:5e:
         06:56:19:82:f8:98:d5:00:e7:3a:4d:25:ba:ae:b9:07:58:d5:
         3a:b0:e3:3f:2c:52:70:60:6d:a9:62:69:72:87:fb:7f:60:bd:
         83:99:a7:21:5c:9a:2a:76:e0:a9:51:93:dd:61:78:29:db:d2:
         c8:8c:d8:25:db:eb:d6:97:76:f8:67:1e:8f:bb:20:57:7f:48:
         e8:36:dc:de:82:97:84:06:cc:b9:34:09:f8:88:92:34:1f:9a:
         65:d2:f3:18:77:95:eb:f0:08:5f:75:36:9b:0a:62:26:90:ea:
         3c:4d:e9:5d:f8:b0:59:da:7d:f8:73:ad:6e:fb:09:22:87:fd:
         f9:a9:6f:24:39:e1:ad:7b:95:10:67:56:c8:9b:b4:5a:f1:a5:
         16:1a:1f:e4:84:76:a3:47:43:b3:3f:ef:65:0c:dc:67:eb:33:
         74:ac:98:3e:79:77:25:ff:6c:6c:3b:07:8e:86:1c:84:e8:db:
         d4:59:e9:b1:bb:1f:49:88:21:11:72:8b:70:85:aa:5d:3a:33:
         de:36:c9:b8
-----BEGIN CERTIFICATE-----
MIIDXTCCAkWgAwIBAgIRAIztg+J8zj84pgbuxlGzZfUwDQYJKoZIhvcNAQELBQAw
FjEUMBIGA1UEAwwLdGVhbTY3Ni1uZXQwHhcNMjEwOTEzMDQzNTI1WhcNMjQwODI4
MDQzNTI1WjAZMRcwFQYDVQQDDA50ZWFtNjc2LWNsaWVudDCCASIwDQYJKoZIhvcN
AQEBBQADggEPADCCAQoCggEBAKGB12oaVzZguN31KZQ3m2ZDU63Nhq8wRhAXHxV+
v7PxXhlrR26btBZKHkwpH2aUR7JVtyz5mBt0cgvJqZLighM1hxm47A+PX6kkrNCA
GMBeBf7+O7xIpECL8DvsZitdJUYCKEpqnKX1G4XISf3nZQ0xI0dSI0uQNmhhYgS/
bMKrQjku2tgAY7Y1EqZRgsJeP8HhhUE3c/p4OheV5wj9QdScmbQ6pH3MDUMciu/N
Czb8CAAsOcnMGtOSaWUfurqH3xfs52+Xn2Ns2c9EZLf2w3Icf0Yyd8iYNCvwKsxj
q+Bw5FPLxjy1Gvi5Vt6z55oyfpBkeiLAwDG+ZFuepw03JaMCAwEAAaOBojCBnzAJ
BgNVHRMEAjAAMB0GA1UdDgQWBBRjjC6U0ES/PVF4upTbKSEHExdQNDBRBgNVHSME
SjBIgBSIgG1Mdtcgf0/YDimQgKnVE24mS6EapBgwFjEUMBIGA1UEAwwLdGVhbTY3
Ni1uZXSCFE4NVrR8PGGwImX74cigLIVxRHbdMBMGA1UdJQQMMAoGCCsGAQUFBwMC
MAsGA1UdDwQEAwIHgDANBgkqhkiG9w0BAQsFAAOCAQEA56IwuDaZSE7mo+w64iR+
aRdTrpOFvDpe2GPgMu25hoIGRSlLknypu02fZ1HVgt+AaiU0VvFeBlYZgviY1QDn
Ok0luq65B1jVOrDjPyxScGBtqWJpcof7f2C9g5mnIVyaKnbgqVGT3WF4KdvSyIzY
Jdvr1pd2+Gcej7sgV39I6Dbc3oKXhAbMuTQJ+IiSNB+aZdLzGHeV6/AIX3U2mwpi
JpDqPE3pXfiwWdp9+HOtbvsJIof9+alvJDnhrXuVEGdWyJu0WvGlFhof5IR2o0dD
sz/vZQzcZ+szdKyYPnl3Jf9sbDsHjoYchOjb1FnpsbsfSYghEXKLcIWqXToz3jbJ
uA==
-----END CERTIFICATE-----
