Certificate:
    Data:
        Version: 3 (0x2)
        Serial Number:
            50:e1:df:e9:98:f8:01:04:bc:a1:c8:b5:f0:b5:a8:de
        Signature Algorithm: sha256WithRSAEncryption
        Issuer: CN=team374-net
        Validity
            Not Before: Sep 13 02:05:59 2021 GMT
            Not After : Aug 28 02:05:59 2024 GMT
        Subject: CN=team374-client
        Subject Public Key Info:
            Public Key Algorithm: rsaEncryption
                RSA Public-Key: (2048 bit)
                Modulus:
                    00:b3:17:eb:b6:10:8a:8f:c0:a7:62:c4:97:16:29:
                    4e:3c:37:ba:d5:a2:36:a0:a1:c1:c0:bb:6e:08:87:
                    b6:0d:da:58:94:f3:38:8f:09:fa:4b:b5:1c:9d:0a:
                    00:0d:60:8c:8e:5d:a3:35:6e:af:c0:bd:ef:90:6b:
                    e0:88:59:77:83:34:10:d5:1e:d7:f3:78:9f:79:fa:
                    00:f6:dc:6b:1f:1d:83:2a:63:a2:e2:9a:e3:4d:e7:
                    29:b4:d4:fb:85:d3:04:d8:7f:e5:0e:80:a0:07:09:
                    a8:03:be:02:dc:01:94:bc:a1:f6:dd:70:9e:dc:2b:
                    8c:b9:65:51:6b:9d:1d:35:13:c7:30:e2:fb:30:4f:
                    91:4f:0c:72:b6:ec:09:5c:97:43:39:a7:4c:a0:83:
                    3f:b5:b4:7a:06:24:6b:e5:66:a4:84:92:75:31:b2:
                    a7:89:1e:9c:9b:40:da:0e:17:27:5d:e5:ba:19:73:
                    81:30:85:87:ac:66:45:0c:18:f0:bd:f2:14:14:cd:
                    a9:18:b2:8a:2b:7b:f2:c3:2a:05:69:67:40:ed:f9:
                    d9:11:b8:9a:12:e1:6b:f1:6f:a6:7d:6f:33:e7:c9:
                    bc:ae:23:7b:9c:e7:bd:3b:5a:ba:f0:60:4e:18:cd:
                    22:19:a6:7c:2c:5c:45:ef:4c:10:55:8c:d2:37:72:
                    26:59
                Exponent: 65537 (0x10001)
        X509v3 extensions:
            X509v3 Basic Constraints: 
                CA:FALSE
            X509v3 Subject Key Identifier: 
                54:11:C9:81:BD:8C:3F:B5:B5:68:75:EE:F7:6D:FA:63:F8:20:3B:23
            X509v3 Authority Key Identifier: 
                keyid:70:6C:B0:5E:39:81:19:3F:C4:8D:F6:3D:23:45:9E:4C:BA:61:0A:DB
                DirName:/CN=team374-net
                serial:16:84:D8:43:CF:90:43:31:FA:46:B3:D0:33:84:82:09:61:B0:05:63

            X509v3 Extended Key Usage: 
                TLS Web Client Authentication
            X509v3 Key Usage: 
                Digital Signature
    Signature Algorithm: sha256WithRSAEncryption
         9c:45:93:45:70:bc:70:76:52:7c:d3:3b:ea:ce:61:34:e6:5b:
         a9:ce:cc:b9:9f:a1:91:38:93:e9:4e:8c:0e:3b:4c:33:86:c8:
         46:93:c5:fb:37:52:a8:c8:7b:e2:28:10:8d:14:57:7c:fa:80:
         76:e7:29:b8:47:5c:4c:67:90:37:5b:41:8f:92:70:bb:f1:a1:
         1c:a2:63:82:40:02:68:5a:67:d3:33:36:07:f9:eb:f3:e9:0d:
         8d:16:11:9e:30:0a:5f:2d:25:ab:25:ca:ec:67:8c:88:7b:19:
         be:cd:c5:2d:ca:b6:d6:33:89:e7:5f:71:b2:22:4c:00:f4:df:
         ee:46:60:d2:53:76:6d:b7:3c:79:5c:c1:a1:a2:04:a6:0e:1d:
         6a:01:74:2f:b4:63:2a:8b:72:cc:94:9a:8f:c7:c3:c3:90:0b:
         ba:c7:1e:6c:81:5a:ec:3a:d5:81:32:2a:4b:66:2b:9c:8f:14:
         25:f0:11:8d:37:47:59:c6:03:06:c1:cc:00:fc:18:29:67:79:
         49:3c:0e:19:ee:1b:cd:34:27:6e:95:bd:ea:28:f9:f9:f1:b9:
         af:56:5d:38:56:f7:8c:65:f0:51:85:10:e4:d5:33:ad:31:91:
         ad:5d:a6:4d:44:93:5b:82:13:fa:1b:7a:36:01:94:68:12:e9:
         ef:26:fe:63
-----BEGIN CERTIFICATE-----
MIIDXDCCAkSgAwIBAgIQUOHf6Zj4AQS8oci18LWo3jANBgkqhkiG9w0BAQsFADAW
MRQwEgYDVQQDDAt0ZWFtMzc0LW5ldDAeFw0yMTA5MTMwMjA1NTlaFw0yNDA4Mjgw
MjA1NTlaMBkxFzAVBgNVBAMMDnRlYW0zNzQtY2xpZW50MIIBIjANBgkqhkiG9w0B
AQEFAAOCAQ8AMIIBCgKCAQEAsxfrthCKj8CnYsSXFilOPDe61aI2oKHBwLtuCIe2
DdpYlPM4jwn6S7UcnQoADWCMjl2jNW6vwL3vkGvgiFl3gzQQ1R7X83ifefoA9txr
Hx2DKmOi4prjTecptNT7hdME2H/lDoCgBwmoA74C3AGUvKH23XCe3CuMuWVRa50d
NRPHMOL7ME+RTwxytuwJXJdDOadMoIM/tbR6BiRr5WakhJJ1MbKniR6cm0DaDhcn
XeW6GXOBMIWHrGZFDBjwvfIUFM2pGLKKK3vywyoFaWdA7fnZEbiaEuFr8W+mfW8z
58m8riN7nOe9O1q68GBOGM0iGaZ8LFxF70wQVYzSN3ImWQIDAQABo4GiMIGfMAkG
A1UdEwQCMAAwHQYDVR0OBBYEFFQRyYG9jD+1tWh17vdt+mP4IDsjMFEGA1UdIwRK
MEiAFHBssF45gRk/xI32PSNFnky6YQrboRqkGDAWMRQwEgYDVQQDDAt0ZWFtMzc0
LW5ldIIUFoTYQ8+QQzH6RrPQM4SCCWGwBWMwEwYDVR0lBAwwCgYIKwYBBQUHAwIw
CwYDVR0PBAQDAgeAMA0GCSqGSIb3DQEBCwUAA4IBAQCcRZNFcLxwdlJ80zvqzmE0
5lupzsy5n6GROJPpTowOO0wzhshGk8X7N1KoyHviKBCNFFd8+oB25ym4R1xMZ5A3
W0GPknC78aEcomOCQAJoWmfTMzYH+evz6Q2NFhGeMApfLSWrJcrsZ4yIexm+zcUt
yrbWM4nnX3GyIkwA9N/uRmDSU3Zttzx5XMGhogSmDh1qAXQvtGMqi3LMlJqPx8PD
kAu6xx5sgVrsOtWBMipLZiucjxQl8BGNN0dZxgMGwcwA/BgpZ3lJPA4Z7hvNNCdu
lb3qKPn58bmvVl04VveMZfBRhRDk1TOtMZGtXaZNRJNbghP6G3o2AZRoEunvJv5j
-----END CERTIFICATE-----
