Certificate:
    Data:
        Version: 3 (0x2)
        Serial Number:
            c8:45:87:18:8c:e2:66:89:7f:57:b3:74:ee:d2:fa:31
        Signature Algorithm: sha256WithRSAEncryption
        Issuer: CN=team652-net
        Validity
            Not Before: Sep 13 04:24:46 2021 GMT
            Not After : Aug 28 04:24:46 2024 GMT
        Subject: CN=team652-server
        Subject Public Key Info:
            Public Key Algorithm: rsaEncryption
                RSA Public-Key: (2048 bit)
                Modulus:
                    00:98:08:fc:ad:2c:47:0e:06:68:27:ce:86:70:d6:
                    2a:e4:49:10:7d:26:34:a3:15:c6:1c:c1:0b:44:bc:
                    b8:05:a1:b2:08:3d:87:a7:7e:f1:c2:57:8c:79:75:
                    a7:1d:2b:85:bf:f1:c4:56:50:53:f7:d9:37:51:c0:
                    8d:b2:db:0c:36:96:57:d7:c8:62:0a:9b:34:fa:b2:
                    c3:83:aa:92:28:65:4b:16:d0:54:33:b1:7d:dc:4d:
                    39:f8:85:2f:33:a9:e9:16:d1:ee:52:b0:ec:a9:fb:
                    d0:52:b3:da:a4:e2:ad:22:c1:6f:3b:48:43:18:8e:
                    a8:d1:99:ad:7c:c2:16:ac:76:b9:9a:3a:fe:7d:24:
                    45:87:4d:cb:8f:ea:41:38:ed:6c:6c:c0:00:d3:8d:
                    25:5b:59:37:63:eb:42:20:39:6c:26:ba:fa:d5:d7:
                    36:cb:21:16:e1:7c:a1:35:cb:51:c4:39:58:64:10:
                    b9:74:ee:c8:19:93:2c:24:85:f0:a5:76:75:56:55:
                    c1:22:c8:2f:a3:a2:1e:50:3e:97:3f:3c:39:c6:91:
                    28:65:15:0c:2c:3d:94:27:d7:31:ea:96:5a:ec:60:
                    04:f4:7a:62:d1:d5:ad:ab:9c:96:b4:9b:f3:cb:1b:
                    84:b2:c3:d5:06:5d:c2:60:84:c8:ba:eb:35:83:c8:
                    46:43
                Exponent: 65537 (0x10001)
        X509v3 extensions:
            X509v3 Basic Constraints: 
                CA:FALSE
            X509v3 Subject Key Identifier: 
                47:F8:61:2E:54:86:96:66:0B:AB:8E:79:04:C3:F4:25:43:46:C5:F5
            X509v3 Authority Key Identifier: 
                keyid:DA:6D:84:25:B5:0E:49:DA:D0:59:FD:BF:DA:BA:A0:21:E9:56:32:16
                DirName:/CN=team652-net
                serial:0E:D8:61:6F:54:D7:69:0B:28:3A:D2:E7:95:CD:01:8C:8F:17:07:A8

            X509v3 Extended Key Usage: 
                TLS Web Server Authentication
            X509v3 Key Usage: 
                Digital Signature, Key Encipherment
            X509v3 Subject Alternative Name: 
                DNS:team652-server
    Signature Algorithm: sha256WithRSAEncryption
         05:bb:39:35:78:33:38:7a:2c:54:d0:3e:56:46:fc:ec:93:15:
         60:93:ab:de:a8:5d:b9:8b:da:c4:4e:71:86:89:f7:a4:8e:76:
         95:2e:7e:32:b1:4f:cb:eb:21:08:0d:9c:19:d3:84:2d:41:ff:
         a9:8e:82:76:3a:4c:e6:e7:70:83:c7:ae:8f:c2:97:ce:96:76:
         9b:c0:57:71:f8:f9:7f:66:c9:20:bb:d3:ec:12:5b:56:2e:c8:
         63:91:b2:ff:0b:4d:2c:6b:f3:27:f4:95:00:51:e0:3d:d9:43:
         e0:37:a6:08:3a:0d:aa:48:13:6b:57:02:15:83:0b:0a:7b:e3:
         d0:b2:c5:3f:8b:37:4b:6d:6e:32:8c:d9:22:83:02:d4:67:90:
         bf:4f:24:01:02:58:30:6f:bc:85:2b:4d:c5:e6:74:75:07:ad:
         39:e1:77:5b:7e:9f:fc:a4:63:f8:bd:8f:0b:8a:31:01:7f:02:
         22:4c:3c:70:7e:69:ec:6d:2b:3a:6b:95:b1:ae:99:cd:00:7f:
         40:bd:d4:54:fb:3f:74:a5:e8:6c:7a:3f:b4:96:3b:86:54:53:
         8b:c5:13:ed:ed:50:7c:58:a3:42:cf:15:f2:48:df:b6:79:f0:
         e3:b2:35:1e:7e:b5:25:8d:2f:d5:f7:b2:1f:80:6c:16:8c:7d:
         73:3c:40:35
-----BEGIN CERTIFICATE-----
MIIDeDCCAmCgAwIBAgIRAMhFhxiM4maJf1ezdO7S+jEwDQYJKoZIhvcNAQELBQAw
FjEUMBIGA1UEAwwLdGVhbTY1Mi1uZXQwHhcNMjEwOTEzMDQyNDQ2WhcNMjQwODI4
MDQyNDQ2WjAZMRcwFQYDVQQDDA50ZWFtNjUyLXNlcnZlcjCCASIwDQYJKoZIhvcN
AQEBBQADggEPADCCAQoCggEBAJgI/K0sRw4GaCfOhnDWKuRJEH0mNKMVxhzBC0S8
uAWhsgg9h6d+8cJXjHl1px0rhb/xxFZQU/fZN1HAjbLbDDaWV9fIYgqbNPqyw4Oq
kihlSxbQVDOxfdxNOfiFLzOp6RbR7lKw7Kn70FKz2qTirSLBbztIQxiOqNGZrXzC
Fqx2uZo6/n0kRYdNy4/qQTjtbGzAANONJVtZN2PrQiA5bCa6+tXXNsshFuF8oTXL
UcQ5WGQQuXTuyBmTLCSF8KV2dVZVwSLIL6OiHlA+lz88OcaRKGUVDCw9lCfXMeqW
WuxgBPR6YtHVrauclrSb88sbhLLD1QZdwmCEyLrrNYPIRkMCAwEAAaOBvTCBujAJ
BgNVHRMEAjAAMB0GA1UdDgQWBBRH+GEuVIaWZgurjnkEw/QlQ0bF9TBRBgNVHSME
SjBIgBTabYQltQ5J2tBZ/b/auqAh6VYyFqEapBgwFjEUMBIGA1UEAwwLdGVhbTY1
Mi1uZXSCFA7YYW9U12kLKDrS55XNAYyPFweoMBMGA1UdJQQMMAoGCCsGAQUFBwMB
MAsGA1UdDwQEAwIFoDAZBgNVHREEEjAQgg50ZWFtNjUyLXNlcnZlcjANBgkqhkiG
9w0BAQsFAAOCAQEABbs5NXgzOHosVNA+Vkb87JMVYJOr3qhduYvaxE5xhon3pI52
lS5+MrFPy+shCA2cGdOELUH/qY6CdjpM5udwg8euj8KXzpZ2m8BXcfj5f2bJILvT
7BJbVi7IY5Gy/wtNLGvzJ/SVAFHgPdlD4DemCDoNqkgTa1cCFYMLCnvj0LLFP4s3
S21uMozZIoMC1GeQv08kAQJYMG+8hStNxeZ0dQetOeF3W36f/KRj+L2PC4oxAX8C
Ikw8cH5p7G0rOmuVsa6ZzQB/QL3UVPs/dKXobHo/tJY7hlRTi8UT7e1QfFijQs8V
8kjftnnw47I1Hn61JY0v1feyH4BsFox9czxANQ==
-----END CERTIFICATE-----
