Certificate:
    Data:
        Version: 3 (0x2)
        Serial Number:
            19:2a:52:20:59:8f:33:94:ca:a6:4a:f9:06:8e:49:74
        Signature Algorithm: sha256WithRSAEncryption
        Issuer: CN=team129-net
        Validity
            Not Before: Sep 12 23:53:41 2021 GMT
            Not After : Aug 27 23:53:41 2024 GMT
        Subject: CN=team129-client
        Subject Public Key Info:
            Public Key Algorithm: rsaEncryption
                RSA Public-Key: (2048 bit)
                Modulus:
                    00:d7:73:21:5b:c8:5e:36:f8:2b:30:0b:dd:d9:c2:
                    94:3f:4d:38:5b:9c:9d:4e:8d:dd:95:6a:0a:dc:8d:
                    9d:a1:71:88:fa:2f:fb:b6:ad:76:00:d5:3e:59:75:
                    9c:23:2a:fc:e1:74:01:6e:d8:5e:9e:c5:2f:5c:7a:
                    17:2a:c7:9f:b8:4b:e7:9d:ec:4d:bc:3f:ea:2e:bb:
                    5f:72:47:0d:a7:5f:67:eb:01:6c:d6:84:05:34:cb:
                    ab:70:56:b6:d3:30:4e:6e:d5:1f:cc:82:27:65:4c:
                    f7:14:2a:51:d4:3c:a2:42:cb:18:bc:26:6f:68:6a:
                    0c:91:25:80:49:09:b0:71:39:3f:42:86:fa:d6:65:
                    f4:21:94:96:5f:6f:60:a1:20:5b:30:f9:56:45:7e:
                    d4:75:ed:46:2f:51:7d:85:38:5f:e4:79:1f:a3:13:
                    86:82:c9:00:9e:15:b2:08:4b:21:60:04:5f:a0:19:
                    05:f4:77:06:03:91:2e:00:1d:38:29:92:70:73:07:
                    36:76:be:cc:10:5b:e2:f8:8b:1f:d5:ec:72:2b:b1:
                    50:df:bf:4d:43:39:71:22:23:99:44:02:37:0d:ab:
                    c8:0f:41:9d:83:ed:94:4e:f1:12:10:62:8b:d3:7a:
                    ab:05:d7:e1:9e:d4:85:b6:f6:77:a4:b2:cd:db:9d:
                    25:e9
                Exponent: 65537 (0x10001)
        X509v3 extensions:
            X509v3 Basic Constraints: 
                CA:FALSE
            X509v3 Subject Key Identifier: 
                E4:26:36:83:DD:F1:B9:CD:A5:31:6A:AC:48:CF:1F:95:F2:7F:FB:99
            X509v3 Authority Key Identifier: 
                keyid:B3:E7:71:DE:65:B7:DA:B4:47:52:45:0F:F7:8A:92:A3:77:B4:F2:A1
                DirName:/CN=team129-net
                serial:05:F3:5D:1A:29:E5:55:E1:E1:4E:07:61:CE:E2:F8:57:F3:E4:06:11

            X509v3 Extended Key Usage: 
                TLS Web Client Authentication
            X509v3 Key Usage: 
                Digital Signature
    Signature Algorithm: sha256WithRSAEncryption
         26:d8:26:fb:1a:b6:58:0a:4f:72:f2:cd:24:1d:47:0c:89:73:
         0c:7a:42:70:f1:5b:b5:46:21:c7:42:d4:eb:2c:4c:26:72:3c:
         ff:a1:d4:c9:35:f4:c5:13:ef:3f:1e:20:2d:79:65:29:38:96:
         7b:a8:3c:55:07:b0:18:eb:e4:12:3f:ec:37:4c:c4:c5:3d:37:
         6b:42:f2:c2:df:24:6b:94:a4:d0:5f:08:b5:b8:e3:f8:aa:9f:
         ef:36:64:65:5c:e9:df:4c:87:b6:3b:a1:98:85:73:c3:29:a7:
         21:33:95:88:d9:28:d1:e8:96:47:ad:b0:ac:f0:43:07:a8:59:
         90:6d:7d:d7:ec:ee:61:cc:62:76:5d:72:e0:53:74:86:d3:ec:
         62:d4:4e:db:d6:f8:45:4c:8d:2a:93:64:01:69:37:09:18:10:
         b5:c2:8d:ae:5a:8b:5a:fb:74:da:8e:d2:93:bf:33:d4:dc:b9:
         22:b3:90:e0:b0:9b:c6:b6:72:ad:32:63:98:09:95:8e:c0:f5:
         27:63:48:fc:b1:bb:c6:87:6e:b8:a9:df:7a:41:52:97:f9:3b:
         c0:6d:b7:f7:57:4c:9a:8a:8e:f7:0f:10:17:16:51:3f:2b:82:
         36:be:fa:7c:3e:9c:ff:e5:a6:ef:6e:89:fe:a4:9e:c2:bf:06:
         ee:0b:df:bb
-----BEGIN CERTIFICATE-----
MIIDXDCCAkSgAwIBAgIQGSpSIFmPM5TKpkr5Bo5JdDANBgkqhkiG9w0BAQsFADAW
MRQwEgYDVQQDDAt0ZWFtMTI5LW5ldDAeFw0yMTA5MTIyMzUzNDFaFw0yNDA4Mjcy
MzUzNDFaMBkxFzAVBgNVBAMMDnRlYW0xMjktY2xpZW50MIIBIjANBgkqhkiG9w0B
AQEFAAOCAQ8AMIIBCgKCAQEA13MhW8heNvgrMAvd2cKUP004W5ydTo3dlWoK3I2d
oXGI+i/7tq12ANU+WXWcIyr84XQBbthensUvXHoXKsefuEvnnexNvD/qLrtfckcN
p19n6wFs1oQFNMurcFa20zBObtUfzIInZUz3FCpR1DyiQssYvCZvaGoMkSWASQmw
cTk/Qob61mX0IZSWX29goSBbMPlWRX7Ude1GL1F9hThf5HkfoxOGgskAnhWyCEsh
YARfoBkF9HcGA5EuAB04KZJwcwc2dr7MEFvi+Isf1exyK7FQ379NQzlxIiOZRAI3
DavID0Gdg+2UTvESEGKL03qrBdfhntSFtvZ3pLLN250l6QIDAQABo4GiMIGfMAkG
A1UdEwQCMAAwHQYDVR0OBBYEFOQmNoPd8bnNpTFqrEjPH5Xyf/uZMFEGA1UdIwRK
MEiAFLPncd5lt9q0R1JFD/eKkqN3tPKhoRqkGDAWMRQwEgYDVQQDDAt0ZWFtMTI5
LW5ldIIUBfNdGinlVeHhTgdhzuL4V/PkBhEwEwYDVR0lBAwwCgYIKwYBBQUHAwIw
CwYDVR0PBAQDAgeAMA0GCSqGSIb3DQEBCwUAA4IBAQAm2Cb7GrZYCk9y8s0kHUcM
iXMMekJw8Vu1RiHHQtTrLEwmcjz/odTJNfTFE+8/HiAteWUpOJZ7qDxVB7AY6+QS
P+w3TMTFPTdrQvLC3yRrlKTQXwi1uOP4qp/vNmRlXOnfTIe2O6GYhXPDKachM5WI
2SjR6JZHrbCs8EMHqFmQbX3X7O5hzGJ2XXLgU3SG0+xi1E7b1vhFTI0qk2QBaTcJ
GBC1wo2uWota+3TajtKTvzPU3Lkis5DgsJvGtnKtMmOYCZWOwPUnY0j8sbvGh264
qd96QVKX+TvAbbf3V0yaio73DxAXFlE/K4I2vvp8Ppz/5abvbon+pJ7CvwbuC9+7
-----END CERTIFICATE-----
