Certificate:
    Data:
        Version: 3 (0x2)
        Serial Number:
            1e:eb:72:84:44:96:e1:1e:f2:ff:08:dd:b8:11:1a:0b
        Signature Algorithm: sha256WithRSAEncryption
        Issuer: CN=team534-net
        Validity
            Not Before: Sep 13 03:38:21 2021 GMT
            Not After : Aug 28 03:38:21 2024 GMT
        Subject: CN=team534-server
        Subject Public Key Info:
            Public Key Algorithm: rsaEncryption
                RSA Public-Key: (2048 bit)
                Modulus:
                    00:d0:78:f4:1f:59:c5:97:0e:6e:56:34:ea:b4:1d:
                    12:d2:3b:11:f4:e4:10:8f:0b:e6:0a:93:8b:11:6e:
                    70:cc:58:82:c3:86:59:d1:01:04:a1:1c:99:92:b9:
                    35:1e:24:36:43:ff:0e:d1:22:3c:25:f4:a8:3b:cb:
                    c9:8d:97:56:65:57:13:b6:ef:30:f9:d4:9e:a3:ed:
                    9d:07:f9:f9:ca:a1:b9:30:fe:34:d1:d3:87:7b:ca:
                    27:c0:1c:3c:00:68:d7:9a:68:a6:1b:2f:78:db:b7:
                    65:9c:3e:b3:10:fb:0d:62:52:fe:81:bd:39:b9:08:
                    4e:ae:46:d0:26:dc:5b:b3:84:36:22:95:75:52:cc:
                    b8:5d:67:84:4d:f7:96:7a:05:70:24:e0:95:50:1c:
                    6b:6c:ba:0a:97:9a:41:8e:fb:99:a1:f8:1d:ef:8f:
                    e5:0f:d3:55:c0:95:74:f3:bd:40:b9:c6:d8:50:8d:
                    5d:bc:40:28:92:bd:3f:a8:1b:73:85:7e:96:12:9e:
                    05:86:c3:02:22:8a:8a:10:49:dd:51:17:4e:d5:fc:
                    48:cf:7a:da:8a:75:50:41:f6:77:56:15:34:17:4b:
                    60:c6:c9:41:0d:bc:53:3e:33:ae:42:04:1e:25:36:
                    db:d9:9d:e3:17:18:08:6a:69:c1:d8:9b:79:0c:5d:
                    1a:db
                Exponent: 65537 (0x10001)
        X509v3 extensions:
            X509v3 Basic Constraints: 
                CA:FALSE
            X509v3 Subject Key Identifier: 
                24:97:4C:49:07:63:64:AC:E3:8B:33:62:EB:00:1C:A2:19:C2:68:BC
            X509v3 Authority Key Identifier: 
                keyid:03:A1:86:6D:D9:99:D6:46:1E:9B:AB:66:C4:B9:25:40:0A:44:6F:8F
                DirName:/CN=team534-net
                serial:06:5F:57:8A:AE:3F:D4:10:19:CD:DD:76:80:2A:26:BD:7A:2D:A9:68

            X509v3 Extended Key Usage: 
                TLS Web Server Authentication
            X509v3 Key Usage: 
                Digital Signature, Key Encipherment
            X509v3 Subject Alternative Name: 
                DNS:team534-server
    Signature Algorithm: sha256WithRSAEncryption
         ca:71:df:99:d1:2e:a6:4c:58:05:bd:b8:26:e0:9b:5e:0b:49:
         f1:02:78:23:4b:ce:15:78:72:e1:ac:1f:a3:38:4c:c0:65:bf:
         5f:f5:74:c4:f8:6b:fe:87:df:17:25:5b:b9:06:00:16:e5:5a:
         45:9a:f1:27:92:e0:c3:7e:88:5a:0d:10:8b:cd:26:a9:c0:53:
         ac:70:9c:a9:3c:b5:bc:bd:c2:70:fc:14:d7:a1:b5:1b:b4:a5:
         05:7a:bd:1e:d7:35:cf:27:62:c8:5b:13:53:cb:f9:9c:e1:b1:
         12:f6:1d:35:4b:6b:25:5f:25:9f:aa:5f:32:ee:8d:72:d0:f7:
         bb:6f:5e:ed:ae:fc:65:74:08:63:eb:5f:a6:81:b6:5c:86:ce:
         2b:ac:1c:9f:9a:b2:98:aa:a9:13:b4:88:ad:5b:f7:37:e5:61:
         d3:a4:26:c7:00:6f:e6:89:52:68:2d:6d:88:df:29:38:76:84:
         88:57:6b:68:cf:37:77:f8:57:14:7d:21:41:32:36:c4:9d:b6:
         2b:f1:fc:67:e1:3f:85:7a:5b:80:a8:8d:14:e8:0c:a5:b0:68:
         cb:03:b8:55:86:90:2b:5f:e7:c2:8f:56:25:d6:e9:1e:a0:11:
         a3:b9:f7:5e:88:d7:53:38:01:98:4f:03:7c:60:17:7c:7c:c5:
         7a:c7:42:75
-----BEGIN CERTIFICATE-----
MIIDdzCCAl+gAwIBAgIQHutyhESW4R7y/wjduBEaCzANBgkqhkiG9w0BAQsFADAW
MRQwEgYDVQQDDAt0ZWFtNTM0LW5ldDAeFw0yMTA5MTMwMzM4MjFaFw0yNDA4Mjgw
MzM4MjFaMBkxFzAVBgNVBAMMDnRlYW01MzQtc2VydmVyMIIBIjANBgkqhkiG9w0B
AQEFAAOCAQ8AMIIBCgKCAQEA0Hj0H1nFlw5uVjTqtB0S0jsR9OQQjwvmCpOLEW5w
zFiCw4ZZ0QEEoRyZkrk1HiQ2Q/8O0SI8JfSoO8vJjZdWZVcTtu8w+dSeo+2dB/n5
yqG5MP400dOHe8onwBw8AGjXmmimGy9427dlnD6zEPsNYlL+gb05uQhOrkbQJtxb
s4Q2IpV1Usy4XWeETfeWegVwJOCVUBxrbLoKl5pBjvuZofgd74/lD9NVwJV0871A
ucbYUI1dvEAokr0/qBtzhX6WEp4FhsMCIoqKEEndURdO1fxIz3rainVQQfZ3VhU0
F0tgxslBDbxTPjOuQgQeJTbb2Z3jFxgIamnB2Jt5DF0a2wIDAQABo4G9MIG6MAkG
A1UdEwQCMAAwHQYDVR0OBBYEFCSXTEkHY2Ss44szYusAHKIZwmi8MFEGA1UdIwRK
MEiAFAOhhm3ZmdZGHpurZsS5JUAKRG+PoRqkGDAWMRQwEgYDVQQDDAt0ZWFtNTM0
LW5ldIIUBl9Xiq4/1BAZzd12gComvXotqWgwEwYDVR0lBAwwCgYIKwYBBQUHAwEw
CwYDVR0PBAQDAgWgMBkGA1UdEQQSMBCCDnRlYW01MzQtc2VydmVyMA0GCSqGSIb3
DQEBCwUAA4IBAQDKcd+Z0S6mTFgFvbgm4JteC0nxAngjS84VeHLhrB+jOEzAZb9f
9XTE+Gv+h98XJVu5BgAW5VpFmvEnkuDDfohaDRCLzSapwFOscJypPLW8vcJw/BTX
obUbtKUFer0e1zXPJ2LIWxNTy/mc4bES9h01S2slXyWfql8y7o1y0Pe7b17trvxl
dAhj61+mgbZchs4rrByfmrKYqqkTtIitW/c35WHTpCbHAG/miVJoLW2I3yk4doSI
V2tozzd3+FcUfSFBMjbEnbYr8fxn4T+FeluAqI0U6AylsGjLA7hVhpArX+fCj1Yl
1ukeoBGjufdeiNdTOAGYTwN8YBd8fMV6x0J1
-----END CERTIFICATE-----
