Certificate:
    Data:
        Version: 3 (0x2)
        Serial Number:
            6d:00:64:31:a0:e4:cf:35:8e:19:94:ae:6f:7f:1a:89
        Signature Algorithm: sha256WithRSAEncryption
        Issuer: CN=team534-net
        Validity
            Not Before: Sep 13 03:38:21 2021 GMT
            Not After : Aug 28 03:38:21 2024 GMT
        Subject: CN=team534-client
        Subject Public Key Info:
            Public Key Algorithm: rsaEncryption
                RSA Public-Key: (2048 bit)
                Modulus:
                    00:f0:77:82:35:bb:88:c3:72:f2:30:2f:ef:87:0e:
                    96:18:72:75:a0:23:ba:84:67:35:46:ef:0d:b9:c6:
                    07:28:e7:2f:f1:3c:b7:50:5c:62:46:1e:c9:6d:91:
                    a1:72:29:c7:4f:f0:cc:5c:d5:27:a7:a7:8c:00:9a:
                    73:68:2b:98:32:34:1d:e6:22:2e:c2:ce:89:21:53:
                    82:3d:87:c7:17:f3:2b:95:24:0a:bf:4e:99:7e:2e:
                    f6:9c:25:5e:93:b9:75:66:f0:7d:f5:e3:5f:25:b5:
                    da:4d:52:b1:1a:3d:7d:99:c7:33:fe:31:63:fa:7c:
                    bc:74:08:e6:d9:b2:da:a6:c6:d4:13:67:84:15:6b:
                    a2:96:00:80:91:9c:e8:d1:90:f0:36:56:7a:45:9d:
                    33:52:0a:9d:38:f0:98:7d:68:10:83:6c:d3:47:a1:
                    eb:ae:b3:ee:49:88:7b:dd:a9:9b:83:8c:01:b2:7d:
                    14:d2:a9:d7:db:de:fb:5d:0e:02:e4:41:03:1e:9b:
                    6a:f1:c5:d5:c7:e9:c6:2d:8c:ad:b9:78:c8:7c:3b:
                    ca:b2:14:80:06:aa:35:99:23:59:13:82:86:89:68:
                    35:59:c6:30:93:4d:07:c1:12:9d:6e:1f:98:ea:8b:
                    ff:85:2f:4a:7a:e9:bb:73:ea:08:6e:a4:0c:ea:57:
                    93:41
                Exponent: 65537 (0x10001)
        X509v3 extensions:
            X509v3 Basic Constraints: 
                CA:FALSE
            X509v3 Subject Key Identifier: 
                CD:C0:E2:70:9A:A4:0B:9B:AE:7C:59:CF:67:55:BC:03:74:AF:FD:62
            X509v3 Authority Key Identifier: 
                keyid:03:A1:86:6D:D9:99:D6:46:1E:9B:AB:66:C4:B9:25:40:0A:44:6F:8F
                DirName:/CN=team534-net
                serial:06:5F:57:8A:AE:3F:D4:10:19:CD:DD:76:80:2A:26:BD:7A:2D:A9:68

            X509v3 Extended Key Usage: 
                TLS Web Client Authentication
            X509v3 Key Usage: 
                Digital Signature
    Signature Algorithm: sha256WithRSAEncryption
         90:2c:6b:5b:35:38:90:a2:1e:02:a4:74:98:f1:ec:f9:7b:1e:
         55:b7:b5:ed:ee:f7:06:01:f4:13:64:cf:77:02:30:57:af:1d:
         ae:ea:91:2d:f3:33:cc:b6:c8:30:c7:e7:3e:e2:17:33:29:51:
         67:5c:bd:59:4c:9b:08:1a:82:99:29:1d:35:2f:d3:57:20:f5:
         66:79:e8:00:c1:a9:83:43:37:ef:31:26:1d:9e:be:73:cb:54:
         c0:8e:8a:3b:28:1e:a7:82:02:a5:e3:01:8f:bc:e9:dd:36:9b:
         4e:57:72:86:19:6e:83:c5:00:54:ec:2f:3f:4c:0d:d2:d2:ca:
         1f:25:3d:97:6f:34:28:3e:9a:ea:b8:04:af:b0:c8:19:32:0d:
         1f:15:ce:2a:95:bb:88:00:28:36:8f:96:aa:2b:d9:f4:22:9d:
         b6:40:0d:49:7b:83:ca:09:39:e6:29:b4:e1:2e:26:95:59:24:
         9c:5f:5a:52:74:d6:75:c5:c5:97:28:1b:71:ea:36:26:62:42:
         de:7a:f4:49:8b:e0:41:27:c7:82:79:77:23:96:ac:aa:8d:66:
         c3:d5:2f:86:12:8a:f1:18:d6:4b:a1:73:ba:95:f9:d2:02:be:
         63:fc:9d:ea:b0:8e:d9:e5:c6:2c:61:07:3c:39:94:04:10:9e:
         76:79:dc:b8
-----BEGIN CERTIFICATE-----
MIIDXDCCAkSgAwIBAgIQbQBkMaDkzzWOGZSub38aiTANBgkqhkiG9w0BAQsFADAW
MRQwEgYDVQQDDAt0ZWFtNTM0LW5ldDAeFw0yMTA5MTMwMzM4MjFaFw0yNDA4Mjgw
MzM4MjFaMBkxFzAVBgNVBAMMDnRlYW01MzQtY2xpZW50MIIBIjANBgkqhkiG9w0B
AQEFAAOCAQ8AMIIBCgKCAQEA8HeCNbuIw3LyMC/vhw6WGHJ1oCO6hGc1Ru8NucYH
KOcv8Ty3UFxiRh7JbZGhcinHT/DMXNUnp6eMAJpzaCuYMjQd5iIuws6JIVOCPYfH
F/MrlSQKv06Zfi72nCVek7l1ZvB99eNfJbXaTVKxGj19mccz/jFj+ny8dAjm2bLa
psbUE2eEFWuilgCAkZzo0ZDwNlZ6RZ0zUgqdOPCYfWgQg2zTR6HrrrPuSYh73amb
g4wBsn0U0qnX2977XQ4C5EEDHptq8cXVx+nGLYytuXjIfDvKshSABqo1mSNZE4KG
iWg1WcYwk00HwRKdbh+Y6ov/hS9Keum7c+oIbqQM6leTQQIDAQABo4GiMIGfMAkG
A1UdEwQCMAAwHQYDVR0OBBYEFM3A4nCapAubrnxZz2dVvAN0r/1iMFEGA1UdIwRK
MEiAFAOhhm3ZmdZGHpurZsS5JUAKRG+PoRqkGDAWMRQwEgYDVQQDDAt0ZWFtNTM0
LW5ldIIUBl9Xiq4/1BAZzd12gComvXotqWgwEwYDVR0lBAwwCgYIKwYBBQUHAwIw
CwYDVR0PBAQDAgeAMA0GCSqGSIb3DQEBCwUAA4IBAQCQLGtbNTiQoh4CpHSY8ez5
ex5Vt7Xt7vcGAfQTZM93AjBXrx2u6pEt8zPMtsgwx+c+4hczKVFnXL1ZTJsIGoKZ
KR01L9NXIPVmeegAwamDQzfvMSYdnr5zy1TAjoo7KB6nggKl4wGPvOndNptOV3KG
GW6DxQBU7C8/TA3S0sofJT2XbzQoPprquASvsMgZMg0fFc4qlbuIACg2j5aqK9n0
Ip22QA1Je4PKCTnmKbThLiaVWSScX1pSdNZ1xcWXKBtx6jYmYkLeevRJi+BBJ8eC
eXcjlqyqjWbD1S+GEorxGNZLoXO6lfnSAr5j/J3qsI7Z5cYsYQc8OZQEEJ52edy4
-----END CERTIFICATE-----
