Certificate:
    Data:
        Version: 3 (0x2)
        Serial Number:
            7f:37:50:44:65:61:68:d8:86:4f:20:17:d6:fd:56:32
        Signature Algorithm: sha256WithRSAEncryption
        Issuer: CN=team712-net
        Validity
            Not Before: Sep 13 04:54:14 2021 GMT
            Not After : Aug 28 04:54:14 2024 GMT
        Subject: CN=team712-client
        Subject Public Key Info:
            Public Key Algorithm: rsaEncryption
                RSA Public-Key: (2048 bit)
                Modulus:
                    00:cf:b4:dc:52:57:0d:30:d2:f7:bc:9f:3d:1b:1c:
                    2b:68:68:7b:1b:6b:74:8a:60:c7:1f:a8:b9:50:fc:
                    c0:1c:d0:99:ea:9c:b2:5e:ee:d6:ca:ca:88:a6:8b:
                    23:b6:2a:3a:98:9d:f7:6d:a5:cc:1e:aa:6b:29:e8:
                    b4:b9:f1:73:1b:06:b8:c8:32:4c:b2:a3:12:68:60:
                    0c:0d:d1:f4:b1:a5:f6:4b:56:78:64:45:17:7c:8f:
                    8c:e0:f4:d6:43:48:4a:e8:27:ee:03:91:74:64:7d:
                    c9:f2:a1:4d:ec:a3:17:03:0f:97:40:94:97:8d:1c:
                    1a:ba:dc:31:2b:6c:bf:ae:86:3e:e2:d2:77:52:4e:
                    52:d2:7a:cf:1d:ec:1d:e0:b5:bf:23:a9:d6:80:53:
                    1c:e1:ad:0f:8c:b0:0e:84:c7:bc:48:59:3f:8d:f0:
                    ea:3a:db:34:a0:b2:0d:d0:78:13:ce:89:5b:47:ae:
                    c5:19:71:89:e8:8d:67:d4:b2:36:bf:c6:20:f6:7f:
                    bc:6a:ad:7f:c8:7a:fb:24:f4:6e:68:ad:d2:50:8e:
                    32:5d:14:b2:25:c7:9e:c9:d4:31:b4:03:c5:cb:fd:
                    b1:a8:5c:bf:e9:f2:c8:af:67:d0:f9:87:1d:d5:7e:
                    7c:e5:03:7c:e1:ae:4c:0d:58:46:70:e4:47:e4:22:
                    fa:0b
                Exponent: 65537 (0x10001)
        X509v3 extensions:
            X509v3 Basic Constraints: 
                CA:FALSE
            X509v3 Subject Key Identifier: 
                4B:AC:03:D2:1F:73:96:C2:94:81:C6:F9:54:49:58:B0:59:16:7A:68
            X509v3 Authority Key Identifier: 
                keyid:E2:0F:62:E4:67:8A:AE:90:64:51:EE:4B:95:B0:36:98:06:DA:70:93
                DirName:/CN=team712-net
                serial:69:C3:B6:97:ED:B3:5B:A6:53:A8:4D:12:4B:22:95:19:87:B8:E6:31

            X509v3 Extended Key Usage: 
                TLS Web Client Authentication
            X509v3 Key Usage: 
                Digital Signature
    Signature Algorithm: sha256WithRSAEncryption
         21:dc:b0:02:a1:dd:d9:43:e3:e0:dc:37:05:13:f7:11:a3:38:
         ca:47:3d:39:e3:43:fe:28:84:3b:4d:1a:69:c2:ee:25:c0:0b:
         bb:05:1c:cf:7b:46:1c:bb:23:31:62:72:42:22:e6:c9:8b:23:
         41:d6:dd:3b:b1:a5:07:7e:e6:e1:f1:b9:47:93:cf:3e:02:82:
         5c:17:14:b8:44:3d:a6:b9:33:a3:27:4e:b9:6b:df:66:0a:b0:
         32:4e:9f:99:07:e8:a5:8c:06:25:32:6d:59:20:7f:9c:93:5a:
         56:8e:65:41:4e:00:76:36:e6:41:c1:3c:98:4f:57:8c:78:47:
         81:e2:65:03:4a:7b:e7:bc:7b:75:3e:c8:c4:e9:a8:75:22:73:
         14:c5:8c:eb:3d:88:ce:83:05:40:a1:50:cd:ce:2e:e1:3b:82:
         68:41:54:62:0c:28:b3:8d:4c:84:52:7b:81:0a:3f:55:80:cb:
         9c:5f:7c:ce:95:7e:e0:6e:c5:36:51:2b:ca:bc:d0:cb:e0:b6:
         81:0f:db:f6:41:47:2b:cf:85:2f:23:f7:1d:45:17:98:c6:47:
         7c:39:dd:77:7b:73:be:8d:b6:03:aa:6d:52:c5:8d:78:f3:db:
         c0:1a:76:a2:fb:b1:29:84:1f:de:d7:2e:ad:96:06:28:de:a9:
         dc:ef:d5:1b
-----BEGIN CERTIFICATE-----
MIIDXDCCAkSgAwIBAgIQfzdQRGVhaNiGTyAX1v1WMjANBgkqhkiG9w0BAQsFADAW
MRQwEgYDVQQDDAt0ZWFtNzEyLW5ldDAeFw0yMTA5MTMwNDU0MTRaFw0yNDA4Mjgw
NDU0MTRaMBkxFzAVBgNVBAMMDnRlYW03MTItY2xpZW50MIIBIjANBgkqhkiG9w0B
AQEFAAOCAQ8AMIIBCgKCAQEAz7TcUlcNMNL3vJ89GxwraGh7G2t0imDHH6i5UPzA
HNCZ6pyyXu7WysqIposjtio6mJ33baXMHqprKei0ufFzGwa4yDJMsqMSaGAMDdH0
saX2S1Z4ZEUXfI+M4PTWQ0hK6CfuA5F0ZH3J8qFN7KMXAw+XQJSXjRwautwxK2y/
roY+4tJ3Uk5S0nrPHewd4LW/I6nWgFMc4a0PjLAOhMe8SFk/jfDqOts0oLIN0HgT
zolbR67FGXGJ6I1n1LI2v8Yg9n+8aq1/yHr7JPRuaK3SUI4yXRSyJceeydQxtAPF
y/2xqFy/6fLIr2fQ+Ycd1X585QN84a5MDVhGcORH5CL6CwIDAQABo4GiMIGfMAkG
A1UdEwQCMAAwHQYDVR0OBBYEFEusA9Ifc5bClIHG+VRJWLBZFnpoMFEGA1UdIwRK
MEiAFOIPYuRniq6QZFHuS5WwNpgG2nCToRqkGDAWMRQwEgYDVQQDDAt0ZWFtNzEy
LW5ldIIUacO2l+2zW6ZTqE0SSyKVGYe45jEwEwYDVR0lBAwwCgYIKwYBBQUHAwIw
CwYDVR0PBAQDAgeAMA0GCSqGSIb3DQEBCwUAA4IBAQAh3LACod3ZQ+Pg3DcFE/cR
ozjKRz0540P+KIQ7TRppwu4lwAu7BRzPe0YcuyMxYnJCIubJiyNB1t07saUHfubh
8blHk88+AoJcFxS4RD2muTOjJ065a99mCrAyTp+ZB+iljAYlMm1ZIH+ck1pWjmVB
TgB2NuZBwTyYT1eMeEeB4mUDSnvnvHt1PsjE6ah1InMUxYzrPYjOgwVAoVDNzi7h
O4JoQVRiDCizjUyEUnuBCj9VgMucX3zOlX7gbsU2USvKvNDL4LaBD9v2QUcrz4Uv
I/cdRReYxkd8Od13e3O+jbYDqm1SxY1489vAGnai+7EphB/e1y6tlgYo3qnc79Ub
-----END CERTIFICATE-----
