Certificate:
    Data:
        Version: 3 (0x2)
        Serial Number:
            92:56:8e:e7:50:c0:3c:96:04:a0:d8:fe:2b:a9:88:0d
        Signature Algorithm: sha256WithRSAEncryption
        Issuer: CN=team434-net
        Validity
            Not Before: Sep 13 02:42:46 2021 GMT
            Not After : Aug 28 02:42:46 2024 GMT
        Subject: CN=team434-server
        Subject Public Key Info:
            Public Key Algorithm: rsaEncryption
                RSA Public-Key: (2048 bit)
                Modulus:
                    00:b6:cf:9c:3a:8c:98:4c:f8:8e:62:b0:a4:8c:7b:
                    83:f8:2d:08:b0:8b:e2:cc:38:9e:1d:07:0c:43:f9:
                    a1:d5:0c:c8:c2:61:a4:19:1f:09:67:35:a4:c9:d8:
                    9d:c8:fd:b8:01:26:7e:4b:32:20:cc:53:a0:3f:33:
                    33:7e:34:7e:94:24:39:fd:77:a2:73:bd:f6:fa:ef:
                    25:9c:7d:8b:90:5a:b9:39:12:3a:23:85:0f:37:45:
                    f1:0f:43:39:01:51:a2:35:74:c5:a0:02:9b:af:d5:
                    c8:81:c5:af:06:22:92:cc:77:98:9e:e5:d5:97:58:
                    8e:b1:d0:dc:26:67:7d:76:6c:ba:44:10:3b:ed:1e:
                    40:a0:2e:97:bc:cc:31:6b:f4:0d:93:b9:e4:5b:e1:
                    8b:14:34:3d:6b:34:93:f8:b0:75:22:ad:c9:86:51:
                    a9:d8:d1:62:c9:29:f7:59:22:23:c3:88:77:4b:d1:
                    4a:a5:a8:8b:b2:87:46:76:26:12:fc:98:9f:ea:50:
                    b9:92:86:a4:50:91:30:23:90:30:3b:5c:11:d5:7e:
                    81:e2:f7:f7:dd:31:1b:f3:b5:8f:16:14:70:f9:11:
                    0b:b6:fb:d7:82:d0:dc:a8:0b:a7:ee:41:02:ae:b8:
                    73:41:80:0c:39:04:35:e1:e7:05:44:85:b9:59:d0:
                    09:bd
                Exponent: 65537 (0x10001)
        X509v3 extensions:
            X509v3 Basic Constraints: 
                CA:FALSE
            X509v3 Subject Key Identifier: 
                7B:D3:2F:E2:8D:B0:A0:75:5B:19:42:40:02:76:EA:D7:74:08:A0:23
            X509v3 Authority Key Identifier: 
                keyid:2B:28:88:9A:00:98:14:C9:E5:78:50:2B:4A:7C:8F:3A:69:01:DC:6C
                DirName:/CN=team434-net
                serial:01:83:BD:75:98:63:BC:9A:B6:A5:57:34:6C:B9:0B:2D:90:92:D1:19

            X509v3 Extended Key Usage: 
                TLS Web Server Authentication
            X509v3 Key Usage: 
                Digital Signature, Key Encipherment
            X509v3 Subject Alternative Name: 
                DNS:team434-server
    Signature Algorithm: sha256WithRSAEncryption
         a0:21:10:0f:1a:e8:82:02:02:fb:fe:b5:92:b5:40:47:30:9b:
         d3:7c:6a:cb:71:93:94:2d:d5:32:dd:32:4d:3f:30:46:5e:00:
         10:63:62:c2:af:a1:c9:74:cd:d0:2f:18:13:4c:2b:7b:b0:d6:
         2a:ca:0c:d2:1e:09:00:cd:35:ff:c1:65:75:38:2f:45:13:5c:
         47:a9:e4:a4:32:a6:fb:6f:2c:a3:28:94:3b:d4:08:9b:1d:58:
         d3:56:10:c1:1f:46:84:58:dd:0f:39:9d:2d:82:fc:43:c2:be:
         b3:e6:cb:bf:46:e6:ed:42:71:26:d9:dc:f5:5e:15:6c:51:85:
         42:2e:88:5f:8f:6b:73:22:5a:53:76:95:97:4a:4e:d5:e0:e5:
         0a:42:c7:b5:ff:8d:c4:cb:db:c9:da:e2:03:44:e1:9e:fa:09:
         cf:92:10:05:be:45:d2:d0:ec:be:32:9e:43:bc:2c:e6:73:44:
         83:fd:e9:70:f5:65:fb:48:cb:ba:2b:83:bd:43:aa:c5:2b:7a:
         b1:dd:36:ad:3d:22:ae:ab:38:22:1b:62:b4:4d:27:98:ec:e8:
         d6:d0:7d:41:ca:cf:eb:c5:41:09:bc:cc:ee:2f:54:78:88:57:
         8b:fb:44:1a:d6:6c:a6:19:3d:d5:fe:73:ab:9b:e0:31:53:17:
         22:2d:49:dc
-----BEGIN CERTIFICATE-----
MIIDeDCCAmCgAwIBAgIRAJJWjudQwDyWBKDY/iupiA0wDQYJKoZIhvcNAQELBQAw
FjEUMBIGA1UEAwwLdGVhbTQzNC1uZXQwHhcNMjEwOTEzMDI0MjQ2WhcNMjQwODI4
MDI0MjQ2WjAZMRcwFQYDVQQDDA50ZWFtNDM0LXNlcnZlcjCCASIwDQYJKoZIhvcN
AQEBBQADggEPADCCAQoCggEBALbPnDqMmEz4jmKwpIx7g/gtCLCL4sw4nh0HDEP5
odUMyMJhpBkfCWc1pMnYncj9uAEmfksyIMxToD8zM340fpQkOf13onO99vrvJZx9
i5BauTkSOiOFDzdF8Q9DOQFRojV0xaACm6/VyIHFrwYiksx3mJ7l1ZdYjrHQ3CZn
fXZsukQQO+0eQKAul7zMMWv0DZO55FvhixQ0PWs0k/iwdSKtyYZRqdjRYskp91ki
I8OId0vRSqWoi7KHRnYmEvyYn+pQuZKGpFCRMCOQMDtcEdV+geL3990xG/O1jxYU
cPkRC7b714LQ3KgLp+5BAq64c0GADDkENeHnBUSFuVnQCb0CAwEAAaOBvTCBujAJ
BgNVHRMEAjAAMB0GA1UdDgQWBBR70y/ijbCgdVsZQkACdurXdAigIzBRBgNVHSME
SjBIgBQrKIiaAJgUyeV4UCtKfI86aQHcbKEapBgwFjEUMBIGA1UEAwwLdGVhbTQz
NC1uZXSCFAGDvXWYY7yatqVXNGy5Cy2QktEZMBMGA1UdJQQMMAoGCCsGAQUFBwMB
MAsGA1UdDwQEAwIFoDAZBgNVHREEEjAQgg50ZWFtNDM0LXNlcnZlcjANBgkqhkiG
9w0BAQsFAAOCAQEAoCEQDxroggIC+/61krVARzCb03xqy3GTlC3VMt0yTT8wRl4A
EGNiwq+hyXTN0C8YE0wre7DWKsoM0h4JAM01/8FldTgvRRNcR6nkpDKm+28soyiU
O9QImx1Y01YQwR9GhFjdDzmdLYL8Q8K+s+bLv0bm7UJxJtnc9V4VbFGFQi6IX49r
cyJaU3aVl0pO1eDlCkLHtf+NxMvbydriA0ThnvoJz5IQBb5F0tDsvjKeQ7ws5nNE
g/3pcPVl+0jLuiuDvUOqxSt6sd02rT0irqs4IhtitE0nmOzo1tB9QcrP68VBCbzM
7i9UeIhXi/tEGtZsphk91f5zq5vgMVMXIi1J3A==
-----END CERTIFICATE-----
