Certificate:
    Data:
        Version: 3 (0x2)
        Serial Number:
            93:97:dc:1d:f8:64:24:4e:9f:ec:58:af:e8:cb:b4:01
        Signature Algorithm: sha256WithRSAEncryption
        Issuer: CN=team434-net
        Validity
            Not Before: Sep 13 02:42:46 2021 GMT
            Not After : Aug 28 02:42:46 2024 GMT
        Subject: CN=team434-client
        Subject Public Key Info:
            Public Key Algorithm: rsaEncryption
                RSA Public-Key: (2048 bit)
                Modulus:
                    00:b3:22:70:e9:36:c2:08:5f:9e:a9:c1:9c:37:a8:
                    b1:6a:8b:61:31:ee:f2:ee:0f:84:20:fd:94:8f:20:
                    f0:a6:32:78:45:23:b5:73:a6:a3:f8:0e:52:7b:19:
                    72:61:4b:ed:35:cc:e8:af:db:3c:67:b9:02:b1:e3:
                    fc:b5:4c:02:b8:44:b1:63:8d:f4:d6:1f:83:f9:84:
                    e0:e8:36:b4:83:29:90:55:e9:65:c7:2a:7f:07:09:
                    91:4a:ce:06:67:b9:69:6d:d6:56:64:1c:87:61:d5:
                    5e:4f:ff:a2:88:fc:02:86:bd:31:37:e3:5b:db:8f:
                    a4:8c:f8:4e:fa:f5:32:8b:8a:a4:e2:fe:78:ab:56:
                    b8:c4:88:30:f8:b7:98:65:90:95:08:09:87:8c:32:
                    96:eb:c4:48:3a:32:b8:17:15:45:94:53:db:30:79:
                    fb:e8:d2:57:73:15:96:13:03:98:33:6b:5a:89:40:
                    0f:89:b6:37:cc:bc:e4:b6:00:15:47:fb:4d:34:d0:
                    ba:d0:37:81:0d:51:5d:cd:14:7b:27:16:01:7b:4b:
                    ae:fc:bb:08:93:51:a6:95:22:37:5f:0d:0c:c6:76:
                    f5:7e:55:5f:14:92:d5:d6:32:2b:40:18:13:67:c6:
                    86:93:a9:b2:a3:0b:7f:82:f7:e0:f3:f3:ed:b5:68:
                    27:49
                Exponent: 65537 (0x10001)
        X509v3 extensions:
            X509v3 Basic Constraints: 
                CA:FALSE
            X509v3 Subject Key Identifier: 
                E0:33:BC:19:EF:6D:2D:A3:EC:58:28:5A:70:0B:A1:55:96:98:63:F4
            X509v3 Authority Key Identifier: 
                keyid:2B:28:88:9A:00:98:14:C9:E5:78:50:2B:4A:7C:8F:3A:69:01:DC:6C
                DirName:/CN=team434-net
                serial:01:83:BD:75:98:63:BC:9A:B6:A5:57:34:6C:B9:0B:2D:90:92:D1:19

            X509v3 Extended Key Usage: 
                TLS Web Client Authentication
            X509v3 Key Usage: 
                Digital Signature
    Signature Algorithm: sha256WithRSAEncryption
         74:7f:26:84:8e:a5:fc:da:fc:1f:2f:14:b8:e3:49:f8:41:67:
         27:94:ca:f9:49:b5:8f:60:46:64:9c:f8:f9:20:8f:89:2d:70:
         24:55:c6:38:99:20:5b:65:e2:c1:1e:40:d1:ba:32:0d:16:5e:
         b1:64:53:ce:fd:7c:12:20:70:30:1e:3c:86:2d:37:85:84:32:
         46:78:63:e6:ea:30:0c:8c:78:8b:21:f7:59:75:9d:2f:cd:99:
         10:cf:e9:83:06:40:42:0e:4d:bd:45:df:89:84:4e:bb:0f:bd:
         91:61:6f:38:f7:14:b8:a0:10:e4:de:78:19:15:3c:69:fc:50:
         04:05:82:b8:89:26:57:48:74:da:c8:fc:1d:32:5b:1a:8c:15:
         e9:9c:c5:83:6c:90:fb:77:38:c9:42:4c:04:95:99:0d:10:2f:
         80:93:46:67:f5:78:84:a3:b1:f5:1b:80:a9:41:94:df:de:50:
         3a:9a:2f:21:eb:59:da:a0:37:9e:05:2c:e6:45:f4:29:34:79:
         7f:a2:b2:16:b2:0d:72:e4:c0:5e:6c:3b:9f:10:4f:40:51:ed:
         fe:31:60:e5:92:e2:2a:ca:c2:15:06:a2:cc:d0:e1:1e:0e:76:
         17:86:24:f2:23:f8:a9:10:c3:43:65:86:80:7d:b0:cf:8a:5a:
         d1:ce:77:a9
-----BEGIN CERTIFICATE-----
MIIDXTCCAkWgAwIBAgIRAJOX3B34ZCROn+xYr+jLtAEwDQYJKoZIhvcNAQELBQAw
FjEUMBIGA1UEAwwLdGVhbTQzNC1uZXQwHhcNMjEwOTEzMDI0MjQ2WhcNMjQwODI4
MDI0MjQ2WjAZMRcwFQYDVQQDDA50ZWFtNDM0LWNsaWVudDCCASIwDQYJKoZIhvcN
AQEBBQADggEPADCCAQoCggEBALMicOk2wghfnqnBnDeosWqLYTHu8u4PhCD9lI8g
8KYyeEUjtXOmo/gOUnsZcmFL7TXM6K/bPGe5ArHj/LVMArhEsWON9NYfg/mE4Og2
tIMpkFXpZccqfwcJkUrOBme5aW3WVmQch2HVXk//ooj8Aoa9MTfjW9uPpIz4Tvr1
MouKpOL+eKtWuMSIMPi3mGWQlQgJh4wyluvESDoyuBcVRZRT2zB5++jSV3MVlhMD
mDNrWolAD4m2N8y85LYAFUf7TTTQutA3gQ1RXc0UeycWAXtLrvy7CJNRppUiN18N
DMZ29X5VXxSS1dYyK0AYE2fGhpOpsqMLf4L34PPz7bVoJ0kCAwEAAaOBojCBnzAJ
BgNVHRMEAjAAMB0GA1UdDgQWBBTgM7wZ720to+xYKFpwC6FVlphj9DBRBgNVHSME
SjBIgBQrKIiaAJgUyeV4UCtKfI86aQHcbKEapBgwFjEUMBIGA1UEAwwLdGVhbTQz
NC1uZXSCFAGDvXWYY7yatqVXNGy5Cy2QktEZMBMGA1UdJQQMMAoGCCsGAQUFBwMC
MAsGA1UdDwQEAwIHgDANBgkqhkiG9w0BAQsFAAOCAQEAdH8mhI6l/Nr8Hy8UuONJ
+EFnJ5TK+Um1j2BGZJz4+SCPiS1wJFXGOJkgW2XiwR5A0boyDRZesWRTzv18EiBw
MB48hi03hYQyRnhj5uowDIx4iyH3WXWdL82ZEM/pgwZAQg5NvUXfiYROuw+9kWFv
OPcUuKAQ5N54GRU8afxQBAWCuIkmV0h02sj8HTJbGowV6ZzFg2yQ+3c4yUJMBJWZ
DRAvgJNGZ/V4hKOx9RuAqUGU395QOpovIetZ2qA3ngUs5kX0KTR5f6KyFrINcuTA
Xmw7nxBPQFHt/jFg5ZLiKsrCFQaizNDhHg52F4Yk8iP4qRDDQ2WGgH2wz4pa0c53
qQ==
-----END CERTIFICATE-----
