Certificate:
    Data:
        Version: 3 (0x2)
        Serial Number:
            f3:0c:48:ad:05:9b:86:69:0b:13:8c:45:69:12:f2:26
        Signature Algorithm: sha256WithRSAEncryption
        Issuer: CN=team93-net
        Validity
            Not Before: Sep 12 23:31:46 2021 GMT
            Not After : Aug 27 23:31:46 2024 GMT
        Subject: CN=team93-client
        Subject Public Key Info:
            Public Key Algorithm: rsaEncryption
                RSA Public-Key: (2048 bit)
                Modulus:
                    00:d6:35:38:e0:44:c9:c0:74:3d:15:01:1b:4d:a0:
                    80:ba:cb:a2:2c:0d:49:59:58:bb:25:16:5c:7a:ec:
                    84:13:68:ec:94:c4:0c:7e:8d:60:19:79:30:fa:d7:
                    b3:85:ae:4a:b4:1a:cb:36:9f:6b:15:40:54:d7:bc:
                    41:0b:19:4b:d3:e0:83:3f:46:fd:97:59:95:d2:0b:
                    d2:71:95:39:00:70:16:3f:ce:c9:8e:33:80:f9:33:
                    2e:fb:24:9a:47:61:4b:40:55:21:f4:60:c6:bc:e2:
                    40:03:3b:e6:63:0b:1c:9e:a2:5e:78:ac:99:7f:6c:
                    9f:4c:8d:64:e1:45:6a:0e:3e:f8:24:bb:2e:55:70:
                    67:66:0d:f2:fd:d9:a2:f0:d5:a1:d5:55:b5:80:61:
                    29:6e:b0:92:ce:47:c8:bf:f6:96:ec:99:fd:a4:b1:
                    22:07:5d:8d:d4:08:e1:98:e8:dd:95:a7:f3:ea:f3:
                    c5:92:53:57:3a:68:1a:dd:3e:1f:02:d5:4a:ed:d7:
                    37:f3:00:71:91:5d:d4:64:63:92:75:03:4a:5c:6b:
                    23:de:b3:a8:d8:c9:aa:1f:ff:5a:0b:7c:ae:6a:78:
                    dc:f1:af:75:6a:87:b7:b3:e3:ae:0c:dc:a7:a7:e2:
                    2a:c0:9f:a2:c6:c6:ed:f2:9c:fc:1b:e0:d1:ad:dc:
                    93:d3
                Exponent: 65537 (0x10001)
        X509v3 extensions:
            X509v3 Basic Constraints: 
                CA:FALSE
            X509v3 Subject Key Identifier: 
                9B:23:7C:10:E2:42:E3:0F:2B:9C:1A:1B:F6:D1:DD:23:A7:33:7F:E0
            X509v3 Authority Key Identifier: 
                keyid:C6:D3:BF:F2:A7:16:08:FD:F5:7D:E9:2E:BF:6E:6A:19:E9:10:20:53
                DirName:/CN=team93-net
                serial:4B:5F:16:62:24:60:F8:E8:B5:CA:71:17:53:A0:32:48:F3:CE:8F:6B

            X509v3 Extended Key Usage: 
                TLS Web Client Authentication
            X509v3 Key Usage: 
                Digital Signature
    Signature Algorithm: sha256WithRSAEncryption
         5d:49:e9:d6:ef:fd:c2:59:93:3f:d2:35:69:8e:51:e0:7b:29:
         59:01:a1:7a:4e:8d:cf:18:cc:e4:a2:01:fa:66:99:dc:af:1b:
         81:c1:fb:7d:d6:14:04:03:5f:fb:bb:83:3c:a9:96:1c:ec:0b:
         f2:c1:4c:ba:70:db:45:37:ef:2a:f4:6c:cf:71:10:79:c2:00:
         67:85:03:c0:e2:7c:e3:47:f6:d3:c0:75:8f:85:f0:5c:ff:91:
         d7:6a:f3:de:23:1f:a4:65:fe:de:0b:8b:f9:4d:98:2a:dd:86:
         5d:19:8e:3e:24:57:8b:4d:4c:20:41:ab:59:61:59:17:17:08:
         10:15:5d:fa:de:ef:70:ab:43:14:62:41:77:b5:10:e3:0e:89:
         2a:d1:08:21:40:d6:d7:b3:9e:48:8f:cc:2c:c4:20:df:c8:36:
         89:03:6e:58:b6:ac:2f:ae:83:4e:7c:93:0f:62:14:42:9d:51:
         66:e9:3d:ab:38:6e:08:44:9c:b5:40:47:71:ad:b0:59:3b:38:
         b5:01:0b:10:c9:98:53:b8:77:c9:1a:25:e2:86:d8:b6:dd:d4:
         30:20:c3:29:b0:ba:47:fb:da:6f:14:40:e6:a3:e0:20:aa:5c:
         e7:64:f9:27:60:a8:85:96:24:1c:94:95:2e:3c:02:f5:c6:7b:
         d9:96:53:af
-----BEGIN CERTIFICATE-----
MIIDWjCCAkKgAwIBAgIRAPMMSK0Fm4ZpCxOMRWkS8iYwDQYJKoZIhvcNAQELBQAw
FTETMBEGA1UEAwwKdGVhbTkzLW5ldDAeFw0yMTA5MTIyMzMxNDZaFw0yNDA4Mjcy
MzMxNDZaMBgxFjAUBgNVBAMMDXRlYW05My1jbGllbnQwggEiMA0GCSqGSIb3DQEB
AQUAA4IBDwAwggEKAoIBAQDWNTjgRMnAdD0VARtNoIC6y6IsDUlZWLslFlx67IQT
aOyUxAx+jWAZeTD617OFrkq0Gss2n2sVQFTXvEELGUvT4IM/Rv2XWZXSC9JxlTkA
cBY/zsmOM4D5My77JJpHYUtAVSH0YMa84kADO+ZjCxyeol54rJl/bJ9MjWThRWoO
Pvgkuy5VcGdmDfL92aLw1aHVVbWAYSlusJLOR8i/9pbsmf2ksSIHXY3UCOGY6N2V
p/Pq88WSU1c6aBrdPh8C1Urt1zfzAHGRXdRkY5J1A0pcayPes6jYyaof/1oLfK5q
eNzxr3Vqh7ez464M3Ken4irAn6LGxu3ynPwb4NGt3JPTAgMBAAGjgaEwgZ4wCQYD
VR0TBAIwADAdBgNVHQ4EFgQUmyN8EOJC4w8rnBob9tHdI6czf+AwUAYDVR0jBEkw
R4AUxtO/8qcWCP31fekuv25qGekQIFOhGaQXMBUxEzARBgNVBAMMCnRlYW05My1u
ZXSCFEtfFmIkYPjotcpxF1OgMkjzzo9rMBMGA1UdJQQMMAoGCCsGAQUFBwMCMAsG
A1UdDwQEAwIHgDANBgkqhkiG9w0BAQsFAAOCAQEAXUnp1u/9wlmTP9I1aY5R4Hsp
WQGhek6NzxjM5KIB+maZ3K8bgcH7fdYUBANf+7uDPKmWHOwL8sFMunDbRTfvKvRs
z3EQecIAZ4UDwOJ840f208B1j4XwXP+R12rz3iMfpGX+3guL+U2YKt2GXRmOPiRX
i01MIEGrWWFZFxcIEBVd+t7vcKtDFGJBd7UQ4w6JKtEIIUDW17OeSI/MLMQg38g2
iQNuWLasL66DTnyTD2IUQp1RZuk9qzhuCESctUBHca2wWTs4tQELEMmYU7h3yRol
4obYtt3UMCDDKbC6R/vabxRA5qPgIKpc52T5J2CohZYkHJSVLjwC9cZ72ZZTrw==
-----END CERTIFICATE-----
