Certificate:
    Data:
        Version: 3 (0x2)
        Serial Number:
            15:7e:ea:3b:33:2a:54:d2:26:46:27:41:ef:15:01:fb
        Signature Algorithm: sha256WithRSAEncryption
        Issuer: CN=team488-net
        Validity
            Not Before: Sep 13 03:02:19 2021 GMT
            Not After : Aug 28 03:02:19 2024 GMT
        Subject: CN=team488-client
        Subject Public Key Info:
            Public Key Algorithm: rsaEncryption
                RSA Public-Key: (2048 bit)
                Modulus:
                    00:c2:56:3c:41:e8:a5:3d:23:bf:a0:94:70:a4:4b:
                    33:94:23:f5:4a:ff:40:66:42:fe:43:23:78:5f:ff:
                    0c:e5:ac:e7:76:00:9b:ed:a5:01:06:d4:cd:33:8f:
                    05:4f:cb:02:a7:e5:1d:08:5b:31:25:68:32:f0:3e:
                    cc:ab:03:86:74:a3:11:bd:25:16:5b:cb:9f:06:fd:
                    fe:1f:ff:f1:8f:c9:e6:73:29:e5:25:0e:22:47:a1:
                    05:31:c0:84:3e:22:fb:1e:a3:ca:03:5d:d3:f7:d3:
                    62:ef:0a:eb:38:75:9d:d4:c1:f2:8b:5f:af:c9:d6:
                    72:1f:a1:39:8c:03:31:df:0e:8a:e5:ab:83:99:07:
                    45:c3:6b:1b:5a:08:8f:6e:69:ed:08:ed:46:5a:37:
                    89:ea:7d:c8:6e:90:b2:e3:c4:10:d7:f1:1b:6d:2f:
                    22:04:6c:cd:8d:a0:0f:76:12:0b:ce:65:0f:60:21:
                    69:c5:bc:78:2e:b6:56:ce:19:ba:1d:43:f7:74:e2:
                    20:2d:f3:0c:80:91:fc:86:90:b8:f3:b0:2f:26:79:
                    e8:9d:d5:fd:eb:72:3e:38:69:88:e5:c2:7b:d2:1c:
                    84:74:6c:b7:5b:1b:b5:32:03:a1:a3:36:a2:73:6f:
                    66:ed:3e:57:b5:74:d6:f7:e1:e4:df:fb:0e:ff:63:
                    87:47
                Exponent: 65537 (0x10001)
        X509v3 extensions:
            X509v3 Basic Constraints: 
                CA:FALSE
            X509v3 Subject Key Identifier: 
                55:02:BB:DA:53:D8:4B:10:4B:91:B5:8E:E2:8C:81:54:14:B4:CB:1D
            X509v3 Authority Key Identifier: 
                keyid:00:5D:22:7D:6D:25:62:A5:C4:5E:DA:63:BE:65:0A:2D:22:D3:5A:28
                DirName:/CN=team488-net
                serial:7A:F4:35:35:05:D8:C8:4F:AA:F2:25:A6:80:8E:34:FA:E5:86:CA:F5

            X509v3 Extended Key Usage: 
                TLS Web Client Authentication
            X509v3 Key Usage: 
                Digital Signature
    Signature Algorithm: sha256WithRSAEncryption
         00:33:f0:d9:42:e4:49:fd:81:41:a4:89:95:99:98:6f:b1:77:
         fa:dc:7a:49:44:db:d7:8c:2c:2d:51:44:e9:7c:63:c4:8c:85:
         07:1b:aa:b8:be:0a:75:09:d4:ff:10:d9:3e:97:37:05:ae:ec:
         e2:b7:9f:6c:7a:c9:09:4d:ac:84:83:a4:a1:6c:db:e1:af:f3:
         dc:a8:8c:3e:e8:3d:1e:72:60:38:68:c5:ad:d6:24:0a:e3:e7:
         a0:f3:c0:ab:a9:e3:8c:38:68:6f:c5:79:b5:56:60:9c:ce:d3:
         63:3b:0a:fa:b1:c4:8a:d7:72:73:ad:63:90:32:2c:a3:3b:43:
         50:9a:7c:9d:0b:0c:29:b1:f1:0b:c9:54:38:4e:fd:30:4d:50:
         20:87:69:58:0a:98:f8:c3:2b:fc:a7:ce:1d:31:e7:8b:f6:b8:
         08:1e:6e:9b:78:9f:cd:e4:a9:13:ba:d3:fa:76:d8:50:44:92:
         05:83:7c:23:63:93:7b:32:0e:e7:38:32:79:fb:cd:8e:ab:df:
         95:d9:f6:e6:b9:6e:aa:48:b2:55:a4:41:fe:81:20:88:ac:77:
         cb:c2:47:a2:fc:01:d2:30:9e:ef:51:92:8e:55:09:4b:3c:4d:
         49:7d:19:31:4d:0a:ee:f6:b3:c1:3e:13:c6:42:e8:8a:09:50:
         f5:f7:4e:da
-----BEGIN CERTIFICATE-----
MIIDXDCCAkSgAwIBAgIQFX7qOzMqVNImRidB7xUB+zANBgkqhkiG9w0BAQsFADAW
MRQwEgYDVQQDDAt0ZWFtNDg4LW5ldDAeFw0yMTA5MTMwMzAyMTlaFw0yNDA4Mjgw
MzAyMTlaMBkxFzAVBgNVBAMMDnRlYW00ODgtY2xpZW50MIIBIjANBgkqhkiG9w0B
AQEFAAOCAQ8AMIIBCgKCAQEAwlY8QeilPSO/oJRwpEszlCP1Sv9AZkL+QyN4X/8M
5azndgCb7aUBBtTNM48FT8sCp+UdCFsxJWgy8D7MqwOGdKMRvSUWW8ufBv3+H//x
j8nmcynlJQ4iR6EFMcCEPiL7HqPKA13T99Ni7wrrOHWd1MHyi1+vydZyH6E5jAMx
3w6K5auDmQdFw2sbWgiPbmntCO1GWjeJ6n3IbpCy48QQ1/EbbS8iBGzNjaAPdhIL
zmUPYCFpxbx4LrZWzhm6HUP3dOIgLfMMgJH8hpC487AvJnnondX963I+OGmI5cJ7
0hyEdGy3Wxu1MgOhozaic29m7T5XtXTW9+Hk3/sO/2OHRwIDAQABo4GiMIGfMAkG
A1UdEwQCMAAwHQYDVR0OBBYEFFUCu9pT2EsQS5G1juKMgVQUtMsdMFEGA1UdIwRK
MEiAFABdIn1tJWKlxF7aY75lCi0i01oooRqkGDAWMRQwEgYDVQQDDAt0ZWFtNDg4
LW5ldIIUevQ1NQXYyE+q8iWmgI40+uWGyvUwEwYDVR0lBAwwCgYIKwYBBQUHAwIw
CwYDVR0PBAQDAgeAMA0GCSqGSIb3DQEBCwUAA4IBAQAAM/DZQuRJ/YFBpImVmZhv
sXf63HpJRNvXjCwtUUTpfGPEjIUHG6q4vgp1CdT/ENk+lzcFruzit59seskJTayE
g6ShbNvhr/PcqIw+6D0ecmA4aMWt1iQK4+eg88CrqeOMOGhvxXm1VmCcztNjOwr6
scSK13JzrWOQMiyjO0NQmnydCwwpsfELyVQ4Tv0wTVAgh2lYCpj4wyv8p84dMeeL
9rgIHm6beJ/N5KkTutP6dthQRJIFg3wjY5N7Mg7nODJ5+82Oq9+V2fbmuW6qSLJV
pEH+gSCIrHfLwkei/AHSMJ7vUZKOVQlLPE1JfRkxTQru9rPBPhPGQuiKCVD1907a
-----END CERTIFICATE-----
