Certificate:
    Data:
        Version: 3 (0x2)
        Serial Number:
            91:85:f1:6e:29:5f:71:e3:0f:7a:87:99:80:2d:07:76
        Signature Algorithm: sha256WithRSAEncryption
        Issuer: CN=team467-net
        Validity
            Not Before: Sep 13 02:50:57 2021 GMT
            Not After : Aug 28 02:50:57 2024 GMT
        Subject: CN=team467-client
        Subject Public Key Info:
            Public Key Algorithm: rsaEncryption
                RSA Public-Key: (2048 bit)
                Modulus:
                    00:de:7e:0b:06:b3:ce:ed:fa:62:19:0a:37:b8:10:
                    c7:ac:c1:48:9f:7e:3b:c2:82:c1:31:d8:e8:63:94:
                    1c:69:1d:57:be:7b:fd:40:e3:74:86:8d:52:cb:99:
                    e6:d0:af:b3:c2:17:09:4c:ca:6a:1e:af:a5:6c:e6:
                    48:ba:11:3a:d0:3e:2e:54:7f:39:98:ec:8c:14:4e:
                    b8:ef:9e:d3:69:9b:44:bb:12:32:82:d7:07:be:2f:
                    8e:8c:0d:e2:c9:c9:6e:8c:e5:98:92:88:64:c2:59:
                    30:89:b5:46:2f:b2:70:e4:d2:c6:50:40:d2:cd:1f:
                    63:e9:5c:4e:5b:a0:5a:61:32:2d:08:da:7a:39:71:
                    91:56:8d:1b:6e:bb:72:14:67:6d:a6:be:75:b4:7f:
                    5d:11:9d:44:b3:c0:36:a7:6d:e1:c9:fe:5f:94:d3:
                    65:e0:25:60:c9:f7:5d:32:9b:b7:15:f9:a0:64:d4:
                    2d:e4:bd:f7:22:4c:a7:11:12:79:5d:bf:67:dc:09:
                    a9:55:45:c4:c6:aa:f6:49:12:74:0b:fa:3c:20:f1:
                    53:37:42:bc:e7:ff:b2:2a:7a:15:46:7e:81:c9:95:
                    3e:47:24:ad:8f:c5:ea:99:f5:71:ff:c7:32:cd:2a:
                    fa:ce:98:eb:ff:ba:dd:f7:06:73:39:64:5d:37:a4:
                    aa:47
                Exponent: 65537 (0x10001)
        X509v3 extensions:
            X509v3 Basic Constraints: 
                CA:FALSE
            X509v3 Subject Key Identifier: 
                23:31:A5:6A:E5:15:88:E9:EC:2A:3C:BF:95:2A:82:1B:ED:C2:D4:AA
            X509v3 Authority Key Identifier: 
                keyid:55:0A:2B:EA:70:50:41:B6:FB:02:E3:75:06:DF:2B:9F:D6:24:59:AB
                DirName:/CN=team467-net
                serial:7E:9D:06:64:16:29:2D:77:7F:A4:3A:92:A3:BC:3B:BB:F3:6D:5A:D0

            X509v3 Extended Key Usage: 
                TLS Web Client Authentication
            X509v3 Key Usage: 
                Digital Signature
    Signature Algorithm: sha256WithRSAEncryption
         76:14:d5:50:bf:7d:3d:b2:cc:a9:40:55:dc:65:33:15:12:d2:
         4f:89:2b:59:29:67:8d:f8:56:a9:14:4f:d8:44:4a:aa:3f:8b:
         51:97:77:4e:fd:aa:f6:e6:91:df:2d:bf:8f:04:64:de:a3:77:
         b1:ce:46:d7:8f:83:89:ae:fc:a5:e0:40:a6:94:bf:d5:b5:87:
         d8:21:49:9b:d6:d5:a5:b0:d9:80:32:bf:88:54:3f:81:44:a5:
         45:6c:9a:8e:f9:3a:a1:6d:16:4d:fa:59:40:cf:59:b0:43:04:
         aa:c6:af:7d:02:17:21:17:b1:f2:2f:2d:8a:da:0b:bf:e7:b5:
         d1:e4:98:04:e4:42:1d:b2:92:79:ee:99:f4:00:d9:5b:87:10:
         b8:d9:f5:50:55:09:82:46:00:a1:03:26:be:9e:aa:ba:55:6d:
         2a:e8:93:e7:52:bf:7b:83:c7:bf:34:36:4a:52:2a:eb:ca:b9:
         78:7e:6d:af:5f:ad:ad:fb:53:1d:83:a1:a1:ba:1d:f9:d7:54:
         9b:f1:58:7b:77:67:7b:85:e7:7d:aa:8e:14:d2:9c:a7:a1:a5:
         42:43:4a:e6:17:6d:ff:74:4c:02:b7:80:cb:af:e7:24:96:7b:
         06:37:4e:e9:2a:f6:81:cf:58:07:d0:5f:dc:83:7a:b7:95:fc:
         41:fd:3f:81
-----BEGIN CERTIFICATE-----
MIIDXTCCAkWgAwIBAgIRAJGF8W4pX3HjD3qHmYAtB3YwDQYJKoZIhvcNAQELBQAw
FjEUMBIGA1UEAwwLdGVhbTQ2Ny1uZXQwHhcNMjEwOTEzMDI1MDU3WhcNMjQwODI4
MDI1MDU3WjAZMRcwFQYDVQQDDA50ZWFtNDY3LWNsaWVudDCCASIwDQYJKoZIhvcN
AQEBBQADggEPADCCAQoCggEBAN5+Cwazzu36YhkKN7gQx6zBSJ9+O8KCwTHY6GOU
HGkdV757/UDjdIaNUsuZ5tCvs8IXCUzKah6vpWzmSLoROtA+LlR/OZjsjBROuO+e
02mbRLsSMoLXB74vjowN4snJbozlmJKIZMJZMIm1Ri+ycOTSxlBA0s0fY+lcTlug
WmEyLQjaejlxkVaNG267chRnbaa+dbR/XRGdRLPANqdt4cn+X5TTZeAlYMn3XTKb
txX5oGTULeS99yJMpxESeV2/Z9wJqVVFxMaq9kkSdAv6PCDxUzdCvOf/sip6FUZ+
gcmVPkckrY/F6pn1cf/HMs0q+s6Y6/+63fcGczlkXTekqkcCAwEAAaOBojCBnzAJ
BgNVHRMEAjAAMB0GA1UdDgQWBBQjMaVq5RWI6ewqPL+VKoIb7cLUqjBRBgNVHSME
SjBIgBRVCivqcFBBtvsC43UG3yuf1iRZq6EapBgwFjEUMBIGA1UEAwwLdGVhbTQ2
Ny1uZXSCFH6dBmQWKS13f6Q6kqO8O7vzbVrQMBMGA1UdJQQMMAoGCCsGAQUFBwMC
MAsGA1UdDwQEAwIHgDANBgkqhkiG9w0BAQsFAAOCAQEAdhTVUL99PbLMqUBV3GUz
FRLST4krWSlnjfhWqRRP2ERKqj+LUZd3Tv2q9uaR3y2/jwRk3qN3sc5G14+Dia78
peBAppS/1bWH2CFJm9bVpbDZgDK/iFQ/gUSlRWyajvk6oW0WTfpZQM9ZsEMEqsav
fQIXIRex8i8titoLv+e10eSYBORCHbKSee6Z9ADZW4cQuNn1UFUJgkYAoQMmvp6q
ulVtKuiT51K/e4PHvzQ2SlIq68q5eH5tr1+trftTHYOhobod+ddUm/FYe3dne4Xn
faqOFNKcp6GlQkNK5hdt/3RMAreAy6/nJJZ7BjdO6Sr2gc9YB9Bf3IN6t5X8Qf0/
gQ==
-----END CERTIFICATE-----
