Certificate:
    Data:
        Version: 3 (0x2)
        Serial Number:
            c8:40:a7:14:dc:a0:5a:99:bd:00:3a:e2:29:e2:45:e2
        Signature Algorithm: sha256WithRSAEncryption
        Issuer: CN=team178-net
        Validity
            Not Before: Sep 13 00:27:49 2021 GMT
            Not After : Aug 28 00:27:49 2024 GMT
        Subject: CN=team178-server
        Subject Public Key Info:
            Public Key Algorithm: rsaEncryption
                RSA Public-Key: (2048 bit)
                Modulus:
                    00:c7:7b:bc:bb:bc:b9:e5:69:6d:72:40:fa:76:cb:
                    17:88:53:7b:8d:1f:1c:1e:d6:30:28:59:56:76:96:
                    a3:81:76:6b:df:17:32:97:23:c5:1c:90:a1:d6:a8:
                    7f:f0:0c:24:cb:5a:ed:92:95:20:46:71:88:61:bd:
                    29:14:7b:26:73:50:3c:95:ce:86:f4:ee:2a:6f:ec:
                    b9:1a:2a:b6:d7:88:63:25:39:cf:e5:0e:d9:12:52:
                    a6:0a:e0:97:5f:5e:17:52:b2:99:8c:43:7b:21:ba:
                    b2:61:3a:58:6b:35:e2:f9:d9:1e:aa:a2:73:63:dc:
                    fb:ec:d5:e7:18:52:9e:41:ab:4a:66:9d:20:43:1e:
                    d9:fb:c0:b5:71:e1:46:34:f7:c2:67:dc:0f:5a:de:
                    ee:b7:d9:a9:dd:68:f3:55:40:39:d9:b5:1b:88:2e:
                    1c:60:ce:f6:d6:d9:b1:48:75:d2:7f:95:de:20:94:
                    4f:d2:01:2b:f7:18:52:e8:05:6b:58:75:00:5c:0a:
                    81:64:9d:6c:6e:70:5d:22:64:3b:67:0a:ba:5a:ca:
                    39:cd:a4:3f:4f:30:50:e6:46:f3:ea:54:8c:08:a7:
                    ec:85:b2:e6:1d:4c:9d:f4:25:6b:5f:64:15:84:86:
                    5d:4d:a4:1b:53:27:f5:ca:01:f9:3f:9b:68:d7:09:
                    a9:37
                Exponent: 65537 (0x10001)
        X509v3 extensions:
            X509v3 Basic Constraints: 
                CA:FALSE
            X509v3 Subject Key Identifier: 
                FD:D3:BA:E3:28:A7:70:04:28:C4:F3:6E:F0:04:C8:68:6D:C7:BB:34
            X509v3 Authority Key Identifier: 
                keyid:1E:D2:5D:21:20:35:07:4F:1F:D9:18:85:7B:78:21:63:5D:49:D0:57
                DirName:/CN=team178-net
                serial:6A:68:45:B3:E6:38:57:7D:F8:F3:11:22:74:3F:77:92:65:8A:0D:1B

            X509v3 Extended Key Usage: 
                TLS Web Server Authentication
            X509v3 Key Usage: 
                Digital Signature, Key Encipherment
            X509v3 Subject Alternative Name: 
                DNS:team178-server
    Signature Algorithm: sha256WithRSAEncryption
         46:ae:c5:16:38:7c:bc:25:89:0d:b3:c6:91:91:50:55:89:6c:
         a2:fe:b1:c8:96:d7:4b:b8:4d:ac:78:34:ef:22:20:c8:b3:df:
         7a:d6:ee:21:ae:75:4c:f5:ba:86:fc:c4:6c:c8:c7:6f:3b:2b:
         8e:86:5d:14:43:30:bf:48:12:b2:8a:e9:5e:41:01:c0:bc:65:
         d2:ea:94:75:f5:48:7b:f5:3a:cf:71:39:44:6e:c8:c8:69:04:
         5a:70:63:ee:c3:66:63:9d:7c:5f:3a:12:6d:81:b9:68:93:b0:
         a1:1c:96:07:de:d7:bf:4a:77:44:99:ee:8c:1a:a5:d3:78:fd:
         59:00:44:46:e0:9a:7f:07:7a:55:d4:ff:2e:08:20:3b:a7:57:
         fc:7b:da:7f:c5:eb:61:4d:6c:2b:80:91:31:3f:88:f1:75:94:
         4f:ed:f2:cb:c0:2b:27:b4:67:b2:70:81:4b:c4:15:66:24:e6:
         d1:49:64:69:dd:89:30:72:22:7b:ff:64:eb:5a:1b:3f:3b:93:
         e7:99:8b:26:e5:80:0e:81:65:e2:a8:8c:2a:50:d2:0b:d1:14:
         c7:de:e5:eb:ee:05:97:3d:bf:eb:05:7d:1f:ff:df:a8:9f:38:
         0d:42:70:2b:67:aa:ca:10:73:69:c0:ff:e3:78:66:ae:45:6f:
         00:f9:32:c1
-----BEGIN CERTIFICATE-----
MIIDeDCCAmCgAwIBAgIRAMhApxTcoFqZvQA64iniReIwDQYJKoZIhvcNAQELBQAw
FjEUMBIGA1UEAwwLdGVhbTE3OC1uZXQwHhcNMjEwOTEzMDAyNzQ5WhcNMjQwODI4
MDAyNzQ5WjAZMRcwFQYDVQQDDA50ZWFtMTc4LXNlcnZlcjCCASIwDQYJKoZIhvcN
AQEBBQADggEPADCCAQoCggEBAMd7vLu8ueVpbXJA+nbLF4hTe40fHB7WMChZVnaW
o4F2a98XMpcjxRyQodaof/AMJMta7ZKVIEZxiGG9KRR7JnNQPJXOhvTuKm/suRoq
tteIYyU5z+UO2RJSpgrgl19eF1KymYxDeyG6smE6WGs14vnZHqqic2Pc++zV5xhS
nkGrSmadIEMe2fvAtXHhRjT3wmfcD1re7rfZqd1o81VAOdm1G4guHGDO9tbZsUh1
0n+V3iCUT9IBK/cYUugFa1h1AFwKgWSdbG5wXSJkO2cKulrKOc2kP08wUOZG8+pU
jAin7IWy5h1MnfQla19kFYSGXU2kG1Mn9coB+T+baNcJqTcCAwEAAaOBvTCBujAJ
BgNVHRMEAjAAMB0GA1UdDgQWBBT907rjKKdwBCjE827wBMhobce7NDBRBgNVHSME
SjBIgBQe0l0hIDUHTx/ZGIV7eCFjXUnQV6EapBgwFjEUMBIGA1UEAwwLdGVhbTE3
OC1uZXSCFGpoRbPmOFd9+PMRInQ/d5Jlig0bMBMGA1UdJQQMMAoGCCsGAQUFBwMB
MAsGA1UdDwQEAwIFoDAZBgNVHREEEjAQgg50ZWFtMTc4LXNlcnZlcjANBgkqhkiG
9w0BAQsFAAOCAQEARq7FFjh8vCWJDbPGkZFQVYlsov6xyJbXS7hNrHg07yIgyLPf
etbuIa51TPW6hvzEbMjHbzsrjoZdFEMwv0gSsorpXkEBwLxl0uqUdfVIe/U6z3E5
RG7IyGkEWnBj7sNmY518XzoSbYG5aJOwoRyWB97Xv0p3RJnujBql03j9WQBERuCa
fwd6VdT/LgggO6dX/Hvaf8XrYU1sK4CRMT+I8XWUT+3yy8ArJ7RnsnCBS8QVZiTm
0Ulkad2JMHIie/9k61obPzuT55mLJuWADoFl4qiMKlDSC9EUx97l6+4Flz2/6wV9
H//fqJ84DUJwK2eqyhBzacD/43hmrkVvAPkywQ==
-----END CERTIFICATE-----
