Certificate:
    Data:
        Version: 3 (0x2)
        Serial Number:
            a7:e9:6f:a2:77:ef:de:2f:aa:47:01:40:9e:df:3e:67
        Signature Algorithm: sha256WithRSAEncryption
        Issuer: CN=team605-net
        Validity
            Not Before: Sep 13 04:04:34 2021 GMT
            Not After : Aug 28 04:04:34 2024 GMT
        Subject: CN=team605-client
        Subject Public Key Info:
            Public Key Algorithm: rsaEncryption
                RSA Public-Key: (2048 bit)
                Modulus:
                    00:c4:e5:93:29:29:75:f0:a8:e1:a6:d0:5a:3f:fa:
                    2f:82:27:57:49:86:6f:3f:9f:b4:e7:b4:26:cc:d3:
                    6d:06:49:0a:c7:09:4c:60:e6:f2:83:93:90:b8:ea:
                    f1:32:00:f1:13:38:2b:3a:54:36:6a:d0:bd:cd:cc:
                    e4:62:53:ff:3e:be:7c:a1:8a:95:ca:7b:17:e1:93:
                    3b:ec:9c:9c:31:78:92:13:8d:de:eb:5b:32:09:83:
                    6b:cd:e2:4d:e5:b6:8d:e3:b5:4c:ea:45:9e:92:12:
                    80:55:60:9c:68:fb:1b:52:5e:6f:86:a8:c0:5d:25:
                    d8:e2:1e:72:fa:c0:bd:6b:58:c5:cb:93:cc:9d:78:
                    a9:8f:02:dd:72:8f:f0:64:44:b4:5e:b9:62:80:95:
                    7b:a0:8c:73:a4:c7:cb:2e:d3:9a:c7:6c:a4:b9:38:
                    1e:9b:fc:0f:91:47:5d:05:35:9f:2c:de:f9:07:5e:
                    c0:3a:8c:9e:04:8e:e8:7f:e3:ce:77:71:3b:8f:29:
                    20:b5:94:24:12:9e:97:b0:03:de:80:7a:fa:11:d1:
                    c8:a9:0c:8a:3d:72:72:55:95:89:4d:e8:de:2f:01:
                    56:0c:ad:1b:36:8d:1d:01:25:33:f0:d7:2c:28:ef:
                    6d:3e:b0:19:54:d1:08:00:52:f3:29:6b:8e:c4:5e:
                    75:f7
                Exponent: 65537 (0x10001)
        X509v3 extensions:
            X509v3 Basic Constraints: 
                CA:FALSE
            X509v3 Subject Key Identifier: 
                13:0F:CE:88:4A:5A:B3:99:16:C7:F1:1D:92:EE:B6:34:7D:76:CB:9D
            X509v3 Authority Key Identifier: 
                keyid:16:BB:80:3C:D2:74:8A:C9:73:33:BD:E3:70:C6:11:9B:EA:E4:50:43
                DirName:/CN=team605-net
                serial:5B:B3:A8:05:65:54:CC:77:57:DC:C4:DC:34:D4:B6:E3:A1:B1:8D:B2

            X509v3 Extended Key Usage: 
                TLS Web Client Authentication
            X509v3 Key Usage: 
                Digital Signature
    Signature Algorithm: sha256WithRSAEncryption
         68:54:ed:93:b7:c8:52:09:7a:e9:a6:13:3f:f8:38:79:c9:35:
         b3:3d:53:ab:90:fc:50:63:de:fa:b9:4d:6a:3c:5c:da:96:28:
         97:40:ff:9c:8e:36:2f:a8:02:69:8d:5d:65:66:23:21:de:0e:
         e0:34:cd:d9:cd:3d:2f:15:7d:a5:a1:6e:74:47:6a:09:b6:9c:
         43:7b:b4:da:a2:67:db:d0:84:03:75:aa:49:1e:89:87:40:95:
         b5:b3:08:b6:d8:9d:ea:42:e3:6c:92:61:fb:40:7e:ab:72:de:
         ed:8d:31:0b:c5:77:05:22:96:d5:28:b1:25:70:5e:cd:3c:3c:
         09:37:54:6d:59:fa:7b:56:c4:fd:8d:42:7c:8c:de:64:74:f8:
         1c:34:14:11:c4:54:57:82:50:77:9b:d9:5a:11:7a:f9:a0:5d:
         1f:d3:0f:1e:c7:a3:f9:b8:f9:e6:83:4d:f0:7b:28:6d:93:ed:
         1b:77:a8:8f:1a:68:43:6b:36:5f:29:d7:06:9f:f7:2f:d0:2d:
         ce:5c:78:6f:f7:46:d0:c9:4d:ba:db:48:c7:c7:a0:91:fb:8b:
         f5:8b:ff:9f:2d:d5:30:4e:97:1a:aa:45:92:c1:2e:15:4e:c9:
         c8:21:99:7f:d1:1c:8e:7d:05:8d:62:a6:4a:85:69:5c:dd:b6:
         59:eb:96:8b
-----BEGIN CERTIFICATE-----
MIIDXTCCAkWgAwIBAgIRAKfpb6J3794vqkcBQJ7fPmcwDQYJKoZIhvcNAQELBQAw
FjEUMBIGA1UEAwwLdGVhbTYwNS1uZXQwHhcNMjEwOTEzMDQwNDM0WhcNMjQwODI4
MDQwNDM0WjAZMRcwFQYDVQQDDA50ZWFtNjA1LWNsaWVudDCCASIwDQYJKoZIhvcN
AQEBBQADggEPADCCAQoCggEBAMTlkykpdfCo4abQWj/6L4InV0mGbz+ftOe0JszT
bQZJCscJTGDm8oOTkLjq8TIA8RM4KzpUNmrQvc3M5GJT/z6+fKGKlcp7F+GTO+yc
nDF4khON3utbMgmDa83iTeW2jeO1TOpFnpISgFVgnGj7G1Jeb4aowF0l2OIecvrA
vWtYxcuTzJ14qY8C3XKP8GREtF65YoCVe6CMc6THyy7TmsdspLk4Hpv8D5FHXQU1
nyze+QdewDqMngSO6H/jzndxO48pILWUJBKel7AD3oB6+hHRyKkMij1yclWViU3o
3i8BVgytGzaNHQElM/DXLCjvbT6wGVTRCABS8ylrjsRedfcCAwEAAaOBojCBnzAJ
BgNVHRMEAjAAMB0GA1UdDgQWBBQTD86ISlqzmRbH8R2S7rY0fXbLnTBRBgNVHSME
SjBIgBQWu4A80nSKyXMzveNwxhGb6uRQQ6EapBgwFjEUMBIGA1UEAwwLdGVhbTYw
NS1uZXSCFFuzqAVlVMx3V9zE3DTUtuOhsY2yMBMGA1UdJQQMMAoGCCsGAQUFBwMC
MAsGA1UdDwQEAwIHgDANBgkqhkiG9w0BAQsFAAOCAQEAaFTtk7fIUgl66aYTP/g4
eck1sz1Tq5D8UGPe+rlNajxc2pYol0D/nI42L6gCaY1dZWYjId4O4DTN2c09LxV9
paFudEdqCbacQ3u02qJn29CEA3WqSR6Jh0CVtbMIttid6kLjbJJh+0B+q3Le7Y0x
C8V3BSKW1SixJXBezTw8CTdUbVn6e1bE/Y1CfIzeZHT4HDQUEcRUV4JQd5vZWhF6
+aBdH9MPHsej+bj55oNN8HsobZPtG3eojxpoQ2s2XynXBp/3L9Atzlx4b/dG0MlN
uttIx8egkfuL9Yv/ny3VME6XGqpFksEuFU7JyCGZf9Ecjn0FjWKmSoVpXN22WeuW
iw==
-----END CERTIFICATE-----
