Certificate:
    Data:
        Version: 3 (0x2)
        Serial Number:
            11:24:0a:e8:f9:65:69:a6:ec:5a:35:43:64:16:66:3d
        Signature Algorithm: sha256WithRSAEncryption
        Issuer: CN=team395-net
        Validity
            Not Before: Sep 13 02:19:59 2021 GMT
            Not After : Aug 28 02:19:59 2024 GMT
        Subject: CN=team395-server
        Subject Public Key Info:
            Public Key Algorithm: rsaEncryption
                RSA Public-Key: (2048 bit)
                Modulus:
                    00:b1:c5:ae:8b:fd:f1:28:d8:f0:c7:86:3b:e8:fa:
                    bb:f3:37:0f:5d:6d:0f:c2:36:14:8d:17:09:21:d9:
                    d9:53:f5:38:f7:52:8c:6f:4d:5a:1c:31:21:ee:ba:
                    ac:d0:68:6d:12:5b:84:26:db:a3:80:ef:e0:b2:bb:
                    9c:d4:9a:a5:6c:6d:37:e3:6c:55:13:25:a3:a6:80:
                    d8:4d:04:53:6c:e4:ba:25:da:86:34:b6:4b:bf:b7:
                    6d:1a:5c:d2:de:ba:7f:75:f0:01:03:aa:cc:2b:25:
                    e9:5b:e7:15:d1:21:a0:2e:90:69:8b:97:ba:ba:3a:
                    fd:42:b9:0c:5d:af:54:c2:05:a9:69:c5:bd:78:88:
                    0f:63:3e:21:db:5d:21:a1:24:23:ca:24:c5:39:ec:
                    83:fa:c3:b7:0b:8b:51:f5:5c:26:1f:a1:9a:58:40:
                    bc:6e:4d:0c:18:59:d0:db:07:3b:86:f0:49:e1:66:
                    28:7c:18:2e:26:c0:08:4a:4b:8e:14:1d:aa:f8:38:
                    70:24:17:41:38:2f:19:fd:0b:3e:e5:1c:27:5b:92:
                    f7:2c:9c:f2:8b:3a:e7:7f:1e:d5:53:7d:0d:5a:94:
                    1b:dd:bc:28:29:62:ec:1d:25:7d:04:63:1d:95:da:
                    4a:79:77:c6:30:b1:32:d2:8b:4a:e9:d2:0b:fc:02:
                    9b:71
                Exponent: 65537 (0x10001)
        X509v3 extensions:
            X509v3 Basic Constraints: 
                CA:FALSE
            X509v3 Subject Key Identifier: 
                90:93:4B:41:AB:4B:6F:18:71:14:46:EC:9D:2D:85:BE:7F:98:33:A5
            X509v3 Authority Key Identifier: 
                keyid:D9:35:3B:57:CA:90:1A:54:69:E8:91:A1:DB:FA:41:A2:C7:72:5A:95
                DirName:/CN=team395-net
                serial:11:32:E6:51:59:98:C7:4D:2F:A5:9A:FA:23:B2:89:E8:A9:3D:2D:E0

            X509v3 Extended Key Usage: 
                TLS Web Server Authentication
            X509v3 Key Usage: 
                Digital Signature, Key Encipherment
            X509v3 Subject Alternative Name: 
                DNS:team395-server
    Signature Algorithm: sha256WithRSAEncryption
         58:c5:f3:f8:ba:84:18:48:46:a8:43:02:ef:9a:73:17:4e:69:
         93:f3:30:9a:fd:1e:68:b3:e6:47:dc:df:3c:7e:23:3a:ea:50:
         2d:24:44:e8:6c:e2:97:72:df:91:35:2b:9a:11:a0:51:64:e1:
         ba:c5:8c:27:93:bb:98:81:ef:00:c4:90:82:f1:c2:40:da:8e:
         b6:4b:da:64:bd:80:4d:12:b3:80:72:e5:47:cf:1b:56:4f:fd:
         5c:e3:1b:f9:11:5b:85:68:4e:cd:c1:6d:bc:6b:a8:0f:5d:30:
         e7:a8:50:a2:c0:be:f1:b9:bf:77:88:a7:6c:78:95:55:88:70:
         0f:2a:72:cc:bb:d6:03:f0:47:9e:b8:25:12:d2:82:08:ee:0c:
         d5:b9:fd:bd:1a:a4:18:9e:69:6f:4c:9a:a2:ae:a2:d8:69:a3:
         e2:9c:36:7f:c5:a4:9a:fa:eb:c5:d7:75:b9:1b:8d:19:a7:e4:
         78:a3:59:e4:cc:bf:0b:e0:8d:9f:c0:d1:25:2f:69:8d:db:25:
         11:a1:4e:86:c5:b4:20:eb:f9:ec:63:c4:2b:b6:2b:87:f6:4f:
         7b:00:85:fb:5a:33:5f:71:0d:85:5b:ec:ba:d8:cf:70:88:1b:
         e5:7c:aa:4f:fc:8c:67:ed:d4:67:7a:0a:f9:73:8b:f5:a0:ed:
         86:4d:0a:5f
-----BEGIN CERTIFICATE-----
MIIDdzCCAl+gAwIBAgIQESQK6PllaabsWjVDZBZmPTANBgkqhkiG9w0BAQsFADAW
MRQwEgYDVQQDDAt0ZWFtMzk1LW5ldDAeFw0yMTA5MTMwMjE5NTlaFw0yNDA4Mjgw
MjE5NTlaMBkxFzAVBgNVBAMMDnRlYW0zOTUtc2VydmVyMIIBIjANBgkqhkiG9w0B
AQEFAAOCAQ8AMIIBCgKCAQEAscWui/3xKNjwx4Y76Pq78zcPXW0PwjYUjRcJIdnZ
U/U491KMb01aHDEh7rqs0GhtEluEJtujgO/gsruc1JqlbG0342xVEyWjpoDYTQRT
bOS6JdqGNLZLv7dtGlzS3rp/dfABA6rMKyXpW+cV0SGgLpBpi5e6ujr9QrkMXa9U
wgWpacW9eIgPYz4h210hoSQjyiTFOeyD+sO3C4tR9VwmH6GaWEC8bk0MGFnQ2wc7
hvBJ4WYofBguJsAISkuOFB2q+DhwJBdBOC8Z/Qs+5RwnW5L3LJzyizrnfx7VU30N
WpQb3bwoKWLsHSV9BGMdldpKeXfGMLEy0otK6dIL/AKbcQIDAQABo4G9MIG6MAkG
A1UdEwQCMAAwHQYDVR0OBBYEFJCTS0GrS28YcRRG7J0thb5/mDOlMFEGA1UdIwRK
MEiAFNk1O1fKkBpUaeiRodv6QaLHclqVoRqkGDAWMRQwEgYDVQQDDAt0ZWFtMzk1
LW5ldIIUETLmUVmYx00vpZr6I7KJ6Kk9LeAwEwYDVR0lBAwwCgYIKwYBBQUHAwEw
CwYDVR0PBAQDAgWgMBkGA1UdEQQSMBCCDnRlYW0zOTUtc2VydmVyMA0GCSqGSIb3
DQEBCwUAA4IBAQBYxfP4uoQYSEaoQwLvmnMXTmmT8zCa/R5os+ZH3N88fiM66lAt
JETobOKXct+RNSuaEaBRZOG6xYwnk7uYge8AxJCC8cJA2o62S9pkvYBNErOAcuVH
zxtWT/1c4xv5EVuFaE7NwW28a6gPXTDnqFCiwL7xub93iKdseJVViHAPKnLMu9YD
8EeeuCUS0oII7gzVuf29GqQYnmlvTJqirqLYaaPinDZ/xaSa+uvF13W5G40Zp+R4
o1nkzL8L4I2fwNElL2mN2yURoU6GxbQg6/nsY8QrtiuH9k97AIX7WjNfcQ2FW+y6
2M9wiBvlfKpP/Ixn7dRnegr5c4v1oO2GTQpf
-----END CERTIFICATE-----
