Certificate:
    Data:
        Version: 3 (0x2)
        Serial Number:
            7a:79:4c:d1:0c:c0:1e:e2:b7:e5:a9:d9:a2:87:5a:d9
        Signature Algorithm: sha256WithRSAEncryption
        Issuer: CN=team53-net
        Validity
            Not Before: Sep 12 23:10:33 2021 GMT
            Not After : Aug 27 23:10:33 2024 GMT
        Subject: CN=team53-server
        Subject Public Key Info:
            Public Key Algorithm: rsaEncryption
                RSA Public-Key: (2048 bit)
                Modulus:
                    00:e4:18:dc:86:35:1e:fa:4e:b8:7d:20:18:3d:6b:
                    68:37:df:f7:80:3e:9c:03:3b:c5:ec:be:5d:04:ed:
                    d5:12:a4:11:88:23:c8:cc:7e:6b:09:0b:3a:34:fa:
                    6a:46:93:54:b0:b4:a0:9a:f3:22:8d:b0:31:76:86:
                    b2:2f:28:ad:24:90:34:8d:25:93:79:8b:32:47:ec:
                    46:95:40:0e:e8:ad:0a:33:2c:81:a3:22:0f:a7:cb:
                    64:aa:a6:fa:5b:83:d8:84:5e:e6:50:52:6e:7c:c0:
                    45:ed:3b:15:84:95:d5:21:f1:ed:d8:07:1b:f1:84:
                    6f:eb:cb:6d:1e:2d:20:cd:ff:95:f2:b2:93:42:e1:
                    e3:20:65:27:f9:73:75:f7:36:3e:e5:b2:c7:57:b8:
                    18:aa:f4:b1:13:26:a0:c9:3c:e7:d1:3b:c1:cd:4c:
                    3d:1b:bc:83:f2:80:ba:5f:85:7a:b1:75:31:74:0c:
                    60:ca:3e:7f:f0:f8:d5:bb:ff:6a:09:05:af:ef:04:
                    22:03:b4:6e:3e:7a:6d:bd:3c:a5:59:f9:1c:74:ee:
                    66:48:5b:b5:45:81:30:7b:a8:60:f9:92:5a:17:7d:
                    e1:05:53:8d:b0:8e:82:76:ab:9c:48:b6:88:b1:cf:
                    3c:9e:5b:fd:14:ce:93:3c:43:22:37:57:d0:b8:c3:
                    c1:5f
                Exponent: 65537 (0x10001)
        X509v3 extensions:
            X509v3 Basic Constraints: 
                CA:FALSE
            X509v3 Subject Key Identifier: 
                64:1A:2C:AE:04:03:3B:B0:5F:BF:96:6E:77:A0:B5:A0:E2:65:72:69
            X509v3 Authority Key Identifier: 
                keyid:78:D0:47:83:38:9D:33:7A:3C:FB:22:E4:16:FE:D4:B5:41:EA:97:43
                DirName:/CN=team53-net
                serial:03:D1:2E:AD:AD:EF:FB:E7:D5:50:B3:DD:49:18:BE:EF:83:38:AE:BB

            X509v3 Extended Key Usage: 
                TLS Web Server Authentication
            X509v3 Key Usage: 
                Digital Signature, Key Encipherment
            X509v3 Subject Alternative Name: 
                DNS:team53-server
    Signature Algorithm: sha256WithRSAEncryption
         87:27:ef:c0:9e:4d:8d:9a:37:38:01:cc:c8:91:6f:c0:a4:39:
         8b:2e:8d:34:3a:4a:2c:6d:fc:36:cc:61:a5:a9:4b:a7:da:68:
         76:28:81:58:09:7c:b8:eb:16:df:39:99:28:d0:fb:0c:c4:82:
         d7:24:42:8b:ea:65:95:dd:78:5e:5c:65:3c:0f:18:9a:60:7f:
         42:f7:ff:ac:e7:46:73:a3:bb:66:48:22:5a:cc:68:da:14:f6:
         2b:b1:64:be:f4:56:d7:a9:53:52:e8:68:7b:86:d5:8e:83:cc:
         27:23:b7:23:c8:d0:b9:d9:38:dd:ee:b2:a8:04:68:dc:9b:7c:
         e4:d5:bd:56:3b:72:14:4d:7c:75:5c:61:e6:f8:d6:e7:b3:19:
         bf:75:a0:ea:0c:cc:35:92:8e:60:1e:80:f8:96:31:a0:05:4e:
         a3:8b:3d:75:0e:31:eb:f5:f8:96:80:51:22:61:8f:6e:0a:36:
         30:32:a9:6b:d7:f6:21:d7:cf:ac:c5:aa:46:25:60:23:ab:f7:
         7e:29:4b:f1:4e:04:4c:a7:48:18:b3:4c:32:32:be:8f:9d:98:
         bf:53:e0:47:f2:3a:21:7a:6a:c7:36:3b:b6:54:4b:43:c2:96:
         4b:80:f6:3d:30:93:cb:74:97:70:38:1b:6d:1e:94:cd:06:50:
         03:d5:62:fd
-----BEGIN CERTIFICATE-----
MIIDczCCAlugAwIBAgIQenlM0QzAHuK35anZooda2TANBgkqhkiG9w0BAQsFADAV
MRMwEQYDVQQDDAp0ZWFtNTMtbmV0MB4XDTIxMDkxMjIzMTAzM1oXDTI0MDgyNzIz
MTAzM1owGDEWMBQGA1UEAwwNdGVhbTUzLXNlcnZlcjCCASIwDQYJKoZIhvcNAQEB
BQADggEPADCCAQoCggEBAOQY3IY1HvpOuH0gGD1raDff94A+nAM7xey+XQTt1RKk
EYgjyMx+awkLOjT6akaTVLC0oJrzIo2wMXaGsi8orSSQNI0lk3mLMkfsRpVADuit
CjMsgaMiD6fLZKqm+luD2IRe5lBSbnzARe07FYSV1SHx7dgHG/GEb+vLbR4tIM3/
lfKyk0Lh4yBlJ/lzdfc2PuWyx1e4GKr0sRMmoMk859E7wc1MPRu8g/KAul+FerF1
MXQMYMo+f/D41bv/agkFr+8EIgO0bj56bb08pVn5HHTuZkhbtUWBMHuoYPmSWhd9
4QVTjbCOgnarnEi2iLHPPJ5b/RTOkzxDIjdX0LjDwV8CAwEAAaOBuzCBuDAJBgNV
HRMEAjAAMB0GA1UdDgQWBBRkGiyuBAM7sF+/lm53oLWg4mVyaTBQBgNVHSMESTBH
gBR40EeDOJ0zejz7IuQW/tS1QeqXQ6EZpBcwFTETMBEGA1UEAwwKdGVhbTUzLW5l
dIIUA9Eura3v++fVULPdSRi+74M4rrswEwYDVR0lBAwwCgYIKwYBBQUHAwEwCwYD
VR0PBAQDAgWgMBgGA1UdEQQRMA+CDXRlYW01My1zZXJ2ZXIwDQYJKoZIhvcNAQEL
BQADggEBAIcn78CeTY2aNzgBzMiRb8CkOYsujTQ6Sixt/DbMYaWpS6faaHYogVgJ
fLjrFt85mSjQ+wzEgtckQovqZZXdeF5cZTwPGJpgf0L3/6znRnOju2ZIIlrMaNoU
9iuxZL70VtepU1LoaHuG1Y6DzCcjtyPI0LnZON3usqgEaNybfOTVvVY7chRNfHVc
Yeb41uezGb91oOoMzDWSjmAegPiWMaAFTqOLPXUOMev1+JaAUSJhj24KNjAyqWvX
9iHXz6zFqkYlYCOr934pS/FOBEynSBizTDIyvo+dmL9T4EfyOiF6asc2O7ZUS0PC
lkuA9j0wk8t0l3A4G20elM0GUAPVYv0=
-----END CERTIFICATE-----
