Certificate:
    Data:
        Version: 3 (0x2)
        Serial Number:
            ab:67:1d:0f:79:69:66:5a:f2:4f:43:5d:3e:dd:fe:07
        Signature Algorithm: sha256WithRSAEncryption
        Issuer: CN=team193-net
        Validity
            Not Before: Sep 13 00:26:16 2021 GMT
            Not After : Aug 28 00:26:16 2024 GMT
        Subject: CN=team193-server
        Subject Public Key Info:
            Public Key Algorithm: rsaEncryption
                RSA Public-Key: (2048 bit)
                Modulus:
                    00:af:11:73:ca:e6:41:cd:b7:1f:b8:65:6e:5d:27:
                    d3:60:63:5b:d9:fc:66:fe:e9:2a:7c:02:75:3e:3a:
                    1e:e2:67:d2:9d:34:91:15:25:2e:ae:55:da:19:3e:
                    4b:8f:64:ab:b5:b1:84:aa:fa:2a:cb:ac:d8:bb:e0:
                    fa:9c:f6:b7:a8:a4:e1:8d:2b:1e:31:9c:89:55:b3:
                    d8:da:48:1b:34:22:2c:7a:bb:e8:aa:95:b7:8d:90:
                    92:e8:f6:41:3d:8c:e6:8f:c9:d1:d7:a9:ec:00:01:
                    2a:b3:83:b2:bf:ee:21:26:78:cd:2e:1f:c5:79:ed:
                    9a:3f:85:62:4e:06:41:75:54:33:5d:10:85:3c:f4:
                    7d:b3:d6:ff:c1:3d:e1:b4:56:ea:cd:67:9d:57:d0:
                    04:6a:44:12:96:4f:31:d4:3d:31:13:89:64:86:92:
                    63:0f:ac:03:8e:27:19:43:98:25:56:c6:13:d4:7a:
                    dc:17:22:7e:5d:13:98:ba:ff:a9:24:43:db:a0:d3:
                    14:44:95:c4:85:88:2c:16:dd:2a:9a:03:3a:21:06:
                    25:3c:85:a3:eb:e8:13:ee:3c:d9:98:fd:87:de:2f:
                    59:9d:6d:a4:26:04:ac:6a:4f:0c:9a:4f:e5:0c:26:
                    d6:0a:5b:67:34:15:b6:39:43:b0:01:cd:f6:fb:ae:
                    d2:7f
                Exponent: 65537 (0x10001)
        X509v3 extensions:
            X509v3 Basic Constraints: 
                CA:FALSE
            X509v3 Subject Key Identifier: 
                A9:CF:F8:2D:22:D9:D9:87:72:26:C0:D4:45:2D:4C:78:2B:A3:8B:FE
            X509v3 Authority Key Identifier: 
                keyid:45:F7:FD:78:11:D9:DF:78:35:13:87:1D:51:0D:86:6D:01:6A:AF:F4
                DirName:/CN=team193-net
                serial:5A:3C:48:3A:0E:16:1B:90:84:3B:2D:00:D5:C6:4D:31:01:61:A0:EF

            X509v3 Extended Key Usage: 
                TLS Web Server Authentication
            X509v3 Key Usage: 
                Digital Signature, Key Encipherment
            X509v3 Subject Alternative Name: 
                DNS:team193-server
    Signature Algorithm: sha256WithRSAEncryption
         07:15:f5:0f:2a:ba:9b:d0:af:f3:ec:ed:b4:6a:78:c1:72:ee:
         42:32:46:e8:d1:4e:1c:d8:0d:ef:c7:60:ce:91:a6:26:15:16:
         7d:67:6d:19:0d:19:af:c8:b8:6f:d4:f1:6b:e5:d2:bd:e1:0b:
         d0:c3:25:1c:7d:99:a5:ed:eb:cd:7a:97:d5:50:5c:5e:ed:9e:
         16:33:b6:49:82:a9:0a:94:1b:5b:97:37:07:e7:57:7e:fb:41:
         ec:c9:75:51:2e:86:19:a3:a4:30:4b:66:6d:d8:a6:92:de:8b:
         d0:51:31:15:30:d2:92:e1:58:95:84:4c:76:eb:0d:18:72:9d:
         96:2c:20:ad:48:5c:79:f6:da:95:d3:87:a7:3a:93:6b:8d:25:
         b8:7d:25:a0:60:80:76:80:e3:d8:b2:00:bd:9a:61:01:67:36:
         92:41:5b:3d:de:7f:ea:ba:c0:38:40:c2:31:02:b1:30:4c:fb:
         d2:e1:89:e0:ff:4f:67:4b:a0:51:38:ea:e5:d4:c0:cf:c2:d1:
         cf:8d:2b:80:a5:7e:40:5e:e3:57:43:71:b4:8c:31:30:c7:cd:
         53:3b:32:e8:b0:fc:2c:8f:9e:5a:e8:75:8b:d1:72:0e:bd:3f:
         e6:d4:f6:db:19:a5:99:c4:60:06:cc:82:ce:ac:21:60:11:a9:
         2c:6b:08:de
-----BEGIN CERTIFICATE-----
MIIDeDCCAmCgAwIBAgIRAKtnHQ95aWZa8k9DXT7d/gcwDQYJKoZIhvcNAQELBQAw
FjEUMBIGA1UEAwwLdGVhbTE5My1uZXQwHhcNMjEwOTEzMDAyNjE2WhcNMjQwODI4
MDAyNjE2WjAZMRcwFQYDVQQDDA50ZWFtMTkzLXNlcnZlcjCCASIwDQYJKoZIhvcN
AQEBBQADggEPADCCAQoCggEBAK8Rc8rmQc23H7hlbl0n02BjW9n8Zv7pKnwCdT46
HuJn0p00kRUlLq5V2hk+S49kq7WxhKr6Ksus2Lvg+pz2t6ik4Y0rHjGciVWz2NpI
GzQiLHq76KqVt42Qkuj2QT2M5o/J0dep7AABKrODsr/uISZ4zS4fxXntmj+FYk4G
QXVUM10QhTz0fbPW/8E94bRW6s1nnVfQBGpEEpZPMdQ9MROJZIaSYw+sA44nGUOY
JVbGE9R63Bcifl0TmLr/qSRD26DTFESVxIWILBbdKpoDOiEGJTyFo+voE+482Zj9
h94vWZ1tpCYErGpPDJpP5Qwm1gpbZzQVtjlDsAHN9vuu0n8CAwEAAaOBvTCBujAJ
BgNVHRMEAjAAMB0GA1UdDgQWBBSpz/gtItnZh3ImwNRFLUx4K6OL/jBRBgNVHSME
SjBIgBRF9/14EdnfeDUThx1RDYZtAWqv9KEapBgwFjEUMBIGA1UEAwwLdGVhbTE5
My1uZXSCFFo8SDoOFhuQhDstANXGTTEBYaDvMBMGA1UdJQQMMAoGCCsGAQUFBwMB
MAsGA1UdDwQEAwIFoDAZBgNVHREEEjAQgg50ZWFtMTkzLXNlcnZlcjANBgkqhkiG
9w0BAQsFAAOCAQEABxX1Dyq6m9Cv8+zttGp4wXLuQjJG6NFOHNgN78dgzpGmJhUW
fWdtGQ0Zr8i4b9Txa+XSveEL0MMlHH2Zpe3rzXqX1VBcXu2eFjO2SYKpCpQbW5c3
B+dXfvtB7Ml1US6GGaOkMEtmbdimkt6L0FExFTDSkuFYlYRMdusNGHKdliwgrUhc
efbaldOHpzqTa40luH0loGCAdoDj2LIAvZphAWc2kkFbPd5/6rrAOEDCMQKxMEz7
0uGJ4P9PZ0ugUTjq5dTAz8LRz40rgKV+QF7jV0NxtIwxMMfNUzsy6LD8LI+eWuh1
i9FyDr0/5tT22xmlmcRgBsyCzqwhYBGpLGsI3g==
-----END CERTIFICATE-----
