Certificate:
    Data:
        Version: 3 (0x2)
        Serial Number:
            43:36:40:4b:e8:ee:bc:c9:79:2c:8b:0d:60:f2:28:49
        Signature Algorithm: sha256WithRSAEncryption
        Issuer: CN=team568-net
        Validity
            Not Before: Sep 13 03:39:12 2021 GMT
            Not After : Aug 28 03:39:12 2024 GMT
        Subject: CN=team568-server
        Subject Public Key Info:
            Public Key Algorithm: rsaEncryption
                RSA Public-Key: (2048 bit)
                Modulus:
                    00:e6:8b:4f:a4:3f:1b:d1:4b:14:cb:6c:01:82:77:
                    0b:3a:98:7c:40:a9:1d:37:9b:6d:a2:2c:84:8a:fe:
                    08:33:ad:14:8b:24:3d:d9:35:dc:6a:34:4d:57:e2:
                    10:71:df:5f:67:33:2d:a5:18:e9:86:56:4d:4a:e3:
                    da:99:cc:52:0f:56:e2:71:f8:73:e0:0c:ce:fe:20:
                    0f:09:a3:c9:a4:4b:cd:8a:74:9c:89:38:11:fb:af:
                    79:e1:68:c1:d6:f1:37:16:3a:a5:6f:5d:3e:4b:1d:
                    94:70:1f:3b:58:de:cf:fd:0e:4c:b0:f6:04:f4:d3:
                    1a:e2:24:b5:aa:32:e6:b1:dc:75:39:43:96:a3:fa:
                    98:7c:cd:50:5e:98:f3:14:c3:78:0a:25:f0:fa:e0:
                    b8:15:bd:3b:93:03:9c:9d:b8:d1:4f:08:be:2f:51:
                    c8:00:51:81:1c:d7:02:67:93:d3:ae:e9:06:47:e9:
                    0f:31:12:9c:79:f3:1f:16:aa:d7:1c:46:c9:8b:ad:
                    ba:bc:69:ba:d1:29:e9:29:7c:19:c1:1d:1f:f8:59:
                    2e:97:d1:c9:6d:a9:35:bb:6d:62:7f:4c:2e:56:88:
                    71:08:d9:b1:54:bd:84:ca:6b:f0:e2:a6:74:a4:3d:
                    41:72:d8:86:fd:d4:de:32:b0:64:70:58:91:19:a5:
                    7c:6d
                Exponent: 65537 (0x10001)
        X509v3 extensions:
            X509v3 Basic Constraints: 
                CA:FALSE
            X509v3 Subject Key Identifier: 
                0F:FD:C7:09:C1:BA:10:0E:AA:D3:14:47:95:6C:AB:9D:47:FE:6E:BD
            X509v3 Authority Key Identifier: 
                keyid:E6:8B:4A:78:88:D8:B9:D2:F8:F2:4B:E8:35:9E:89:6E:44:5C:7A:0A
                DirName:/CN=team568-net
                serial:7B:0D:AF:FB:FB:28:5D:93:2F:04:A0:46:B1:11:1E:99:70:5D:DF:64

            X509v3 Extended Key Usage: 
                TLS Web Server Authentication
            X509v3 Key Usage: 
                Digital Signature, Key Encipherment
            X509v3 Subject Alternative Name: 
                DNS:team568-server
    Signature Algorithm: sha256WithRSAEncryption
         07:37:97:ea:4d:a7:bd:f5:74:07:56:84:65:e1:67:ec:5a:e3:
         8a:34:69:14:7d:d0:f5:bc:5b:48:76:a7:f0:1b:3b:dd:d5:bf:
         bb:3c:7c:ca:14:66:e9:48:9d:02:b3:ec:7b:5d:3d:c2:2c:ca:
         30:4d:33:7f:5f:bd:37:23:6f:54:30:92:d7:c4:7b:29:29:26:
         66:ca:e1:8e:a9:3a:25:ef:5d:6f:1d:78:b6:d5:2d:70:18:cf:
         46:41:4e:80:8d:15:6c:fe:49:e5:1e:6d:61:88:67:5e:4d:42:
         06:41:c1:4a:74:f0:f2:46:cc:4f:26:99:f2:f7:c7:21:86:51:
         4c:0f:6b:c5:c7:04:4b:af:fe:49:ec:bc:d8:5f:b4:a3:08:f9:
         e3:20:0d:fe:c6:dc:59:7e:5c:dd:6c:22:7e:ef:df:ca:1c:bc:
         10:ec:4f:14:cd:75:bf:7a:32:04:d2:7b:96:cb:74:b6:5a:d6:
         6f:65:f5:63:af:d7:78:5e:c8:da:5a:0d:f9:3d:36:fa:a4:c4:
         a0:e9:8a:05:cc:9d:ee:8d:09:49:b4:46:24:69:a5:a3:1f:8a:
         ed:85:48:0f:7d:d8:fa:e2:5e:56:51:47:4d:6f:f8:8f:30:43:
         63:04:84:b5:21:29:d7:2c:c8:51:6a:94:23:a5:89:e0:09:8f:
         3d:b1:6a:5e
-----BEGIN CERTIFICATE-----
MIIDdzCCAl+gAwIBAgIQQzZAS+juvMl5LIsNYPIoSTANBgkqhkiG9w0BAQsFADAW
MRQwEgYDVQQDDAt0ZWFtNTY4LW5ldDAeFw0yMTA5MTMwMzM5MTJaFw0yNDA4Mjgw
MzM5MTJaMBkxFzAVBgNVBAMMDnRlYW01Njgtc2VydmVyMIIBIjANBgkqhkiG9w0B
AQEFAAOCAQ8AMIIBCgKCAQEA5otPpD8b0UsUy2wBgncLOph8QKkdN5ttoiyEiv4I
M60UiyQ92TXcajRNV+IQcd9fZzMtpRjphlZNSuPamcxSD1bicfhz4AzO/iAPCaPJ
pEvNinSciTgR+6954WjB1vE3Fjqlb10+Sx2UcB87WN7P/Q5MsPYE9NMa4iS1qjLm
sdx1OUOWo/qYfM1QXpjzFMN4CiXw+uC4Fb07kwOcnbjRTwi+L1HIAFGBHNcCZ5PT
rukGR+kPMRKcefMfFqrXHEbJi626vGm60SnpKXwZwR0f+Fkul9HJbak1u21if0wu
VohxCNmxVL2Eymvw4qZ0pD1BctiG/dTeMrBkcFiRGaV8bQIDAQABo4G9MIG6MAkG
A1UdEwQCMAAwHQYDVR0OBBYEFA/9xwnBuhAOqtMUR5Vsq51H/m69MFEGA1UdIwRK
MEiAFOaLSniI2LnS+PJL6DWeiW5EXHoKoRqkGDAWMRQwEgYDVQQDDAt0ZWFtNTY4
LW5ldIIUew2v+/soXZMvBKBGsREemXBd32QwEwYDVR0lBAwwCgYIKwYBBQUHAwEw
CwYDVR0PBAQDAgWgMBkGA1UdEQQSMBCCDnRlYW01Njgtc2VydmVyMA0GCSqGSIb3
DQEBCwUAA4IBAQAHN5fqTae99XQHVoRl4WfsWuOKNGkUfdD1vFtIdqfwGzvd1b+7
PHzKFGbpSJ0Cs+x7XT3CLMowTTN/X703I29UMJLXxHspKSZmyuGOqTol711vHXi2
1S1wGM9GQU6AjRVs/knlHm1hiGdeTUIGQcFKdPDyRsxPJpny98chhlFMD2vFxwRL
r/5J7LzYX7SjCPnjIA3+xtxZflzdbCJ+79/KHLwQ7E8UzXW/ejIE0nuWy3S2WtZv
ZfVjr9d4XsjaWg35PTb6pMSg6YoFzJ3ujQlJtEYkaaWjH4rthUgPfdj64l5WUUdN
b/iPMENjBIS1ISnXLMhRapQjpYngCY89sWpe
-----END CERTIFICATE-----
