Certificate:
    Data:
        Version: 3 (0x2)
        Serial Number:
            7d:50:06:2e:9c:dc:45:ed:d3:a1:39:59:fc:7c:e1:17
        Signature Algorithm: sha256WithRSAEncryption
        Issuer: CN=team17-net
        Validity
            Not Before: Sep 12 22:52:22 2021 GMT
            Not After : Aug 27 22:52:22 2024 GMT
        Subject: CN=team17-client
        Subject Public Key Info:
            Public Key Algorithm: rsaEncryption
                RSA Public-Key: (2048 bit)
                Modulus:
                    00:cc:b0:08:68:f4:69:bf:95:98:e8:d0:c1:77:ae:
                    69:fe:0a:db:71:d3:3e:4b:6b:90:26:88:9a:fd:84:
                    12:99:32:00:9f:a0:e8:a9:4c:6a:62:ff:ae:ff:a9:
                    0b:da:d9:f5:fe:e0:d4:fa:1e:88:f4:eb:c1:f0:b9:
                    42:e6:8e:16:0b:c5:6a:62:bb:f0:6b:11:07:2c:4d:
                    61:7a:cc:4e:bd:9a:fb:ae:b4:f6:53:a9:cd:7f:e1:
                    6c:da:cb:87:f7:55:a9:78:e1:ce:1a:71:1e:d8:d6:
                    5c:c6:01:23:c4:96:43:a1:94:b1:1a:81:02:3f:28:
                    ac:92:03:4d:39:a4:d1:8f:59:27:fa:eb:b8:35:82:
                    2f:58:01:45:8a:3d:95:71:82:bb:44:b7:ca:25:c6:
                    ed:9b:71:7e:39:d1:d5:8d:9e:ad:b3:a2:cd:b4:d9:
                    ef:6d:a1:b8:67:10:70:f0:5b:ed:a7:c8:8d:67:99:
                    d9:c4:1e:d9:a5:ea:45:40:99:7f:13:56:69:a2:d9:
                    b2:90:b7:af:c5:46:ea:2d:9f:9d:7a:77:4c:1e:6d:
                    5a:eb:b6:65:02:4a:b8:01:93:4b:f9:4a:13:26:4c:
                    7c:a7:96:3f:53:87:14:4d:20:95:87:23:70:aa:09:
                    f8:6d:18:8b:bc:29:d6:01:ce:a9:7c:b3:cc:f5:18:
                    bb:f9
                Exponent: 65537 (0x10001)
        X509v3 extensions:
            X509v3 Basic Constraints: 
                CA:FALSE
            X509v3 Subject Key Identifier: 
                D4:26:01:E8:B8:C4:2D:AF:30:4C:10:0B:9C:C5:0B:C4:A4:1F:94:2B
            X509v3 Authority Key Identifier: 
                keyid:E0:83:6B:25:84:11:0E:8B:72:06:D3:8C:DC:7D:60:4B:47:C4:17:93
                DirName:/CN=team17-net
                serial:0F:BE:A2:DF:AE:11:58:47:24:FD:CF:D8:C9:0A:68:2F:D3:BD:C9:1C

            X509v3 Extended Key Usage: 
                TLS Web Client Authentication
            X509v3 Key Usage: 
                Digital Signature
    Signature Algorithm: sha256WithRSAEncryption
         81:0b:61:a8:0e:e5:eb:2f:7a:e2:41:2a:35:61:67:be:11:69:
         86:43:9b:58:cf:d7:9e:0c:b0:1c:01:76:14:e3:95:18:94:e8:
         2d:33:92:85:a3:87:c3:f4:a1:2a:51:8c:75:ec:c2:ac:43:eb:
         62:ac:8a:2e:b1:3f:90:99:d1:78:45:06:f9:8e:33:c8:54:96:
         43:80:fd:95:a3:af:50:01:64:17:08:6c:ae:d9:77:a1:f9:14:
         38:aa:f3:4e:b7:51:ad:5b:03:30:31:2d:ce:24:a2:7a:25:90:
         63:6d:cb:92:d9:53:21:5b:1d:00:42:a3:06:7e:f8:e7:5f:57:
         21:49:68:ad:77:37:7d:3d:d5:3e:68:90:1a:f4:28:f7:ce:34:
         8a:fa:a9:ba:0d:77:e1:1d:4b:6c:7c:41:46:55:a2:db:a9:f6:
         2f:8a:5e:eb:04:56:c8:05:b1:f9:8a:4d:ca:80:51:c2:a6:c1:
         b1:75:ae:53:c6:22:e5:a3:de:4d:89:b4:f7:b1:84:91:57:94:
         32:53:51:44:36:ab:a2:12:0e:2e:3e:84:d3:73:7b:81:3d:29:
         ef:39:64:c7:44:f6:49:73:d4:6d:76:40:9d:d3:b2:23:d7:87:
         13:fa:d2:f2:09:24:97:11:b3:8a:e5:c0:37:7e:5a:9c:61:50:
         d2:05:30:dd
-----BEGIN CERTIFICATE-----
MIIDWTCCAkGgAwIBAgIQfVAGLpzcRe3ToTlZ/HzhFzANBgkqhkiG9w0BAQsFADAV
MRMwEQYDVQQDDAp0ZWFtMTctbmV0MB4XDTIxMDkxMjIyNTIyMloXDTI0MDgyNzIy
NTIyMlowGDEWMBQGA1UEAwwNdGVhbTE3LWNsaWVudDCCASIwDQYJKoZIhvcNAQEB
BQADggEPADCCAQoCggEBAMywCGj0ab+VmOjQwXeuaf4K23HTPktrkCaImv2EEpky
AJ+g6KlMamL/rv+pC9rZ9f7g1PoeiPTrwfC5QuaOFgvFamK78GsRByxNYXrMTr2a
+6609lOpzX/hbNrLh/dVqXjhzhpxHtjWXMYBI8SWQ6GUsRqBAj8orJIDTTmk0Y9Z
J/rruDWCL1gBRYo9lXGCu0S3yiXG7ZtxfjnR1Y2erbOizbTZ722huGcQcPBb7afI
jWeZ2cQe2aXqRUCZfxNWaaLZspC3r8VG6i2fnXp3TB5tWuu2ZQJKuAGTS/lKEyZM
fKeWP1OHFE0glYcjcKoJ+G0Yi7wp1gHOqXyzzPUYu/kCAwEAAaOBoTCBnjAJBgNV
HRMEAjAAMB0GA1UdDgQWBBTUJgHouMQtrzBMEAucxQvEpB+UKzBQBgNVHSMESTBH
gBTgg2slhBEOi3IG04zcfWBLR8QXk6EZpBcwFTETMBEGA1UEAwwKdGVhbTE3LW5l
dIIUD76i364RWEck/c/YyQpoL9O9yRwwEwYDVR0lBAwwCgYIKwYBBQUHAwIwCwYD
VR0PBAQDAgeAMA0GCSqGSIb3DQEBCwUAA4IBAQCBC2GoDuXrL3riQSo1YWe+EWmG
Q5tYz9eeDLAcAXYU45UYlOgtM5KFo4fD9KEqUYx17MKsQ+tirIousT+QmdF4RQb5
jjPIVJZDgP2Vo69QAWQXCGyu2Xeh+RQ4qvNOt1GtWwMwMS3OJKJ6JZBjbcuS2VMh
Wx0AQqMGfvjnX1chSWitdzd9PdU+aJAa9Cj3zjSK+qm6DXfhHUtsfEFGVaLbqfYv
il7rBFbIBbH5ik3KgFHCpsGxda5TxiLlo95NibT3sYSRV5QyU1FENquiEg4uPoTT
c3uBPSnvOWTHRPZJc9RtdkCd07Ij14cT+tLyCSSXEbOK5cA3flqcYVDSBTDd
-----END CERTIFICATE-----
