Certificate:
    Data:
        Version: 3 (0x2)
        Serial Number:
            72:20:24:d8:43:c1:36:94:90:82:7b:e8:1a:13:37:5b
        Signature Algorithm: sha256WithRSAEncryption
        Issuer: CN=team162-net
        Validity
            Not Before: Sep 13 00:21:08 2021 GMT
            Not After : Aug 28 00:21:08 2024 GMT
        Subject: CN=team162-server
        Subject Public Key Info:
            Public Key Algorithm: rsaEncryption
                RSA Public-Key: (2048 bit)
                Modulus:
                    00:f0:cf:14:58:d1:09:dc:a5:b4:3d:80:52:ec:39:
                    11:4f:9e:c7:33:18:38:ff:eb:c2:f7:48:3a:98:b3:
                    cd:21:ed:37:b8:55:4c:c6:51:49:e6:bc:be:3d:cb:
                    53:e2:7b:c3:41:2a:6a:2f:e0:2a:8a:4a:4c:73:f9:
                    a5:1d:5c:a4:a7:ae:c4:11:10:67:ee:5f:19:3d:8d:
                    4e:64:3b:3b:56:e4:33:1a:f3:7b:7f:9a:7a:06:09:
                    d1:2d:8c:bb:cb:2c:ec:3c:29:77:6e:c1:8c:f2:0b:
                    5e:75:b0:21:da:78:4b:3e:19:c8:fa:0e:7c:dc:55:
                    02:93:dc:5b:9a:f6:5f:8b:88:ac:0e:19:c7:00:17:
                    b3:36:ef:9e:2e:46:1d:1c:cc:aa:c7:7e:71:20:22:
                    90:72:90:55:7a:4e:bd:f8:cc:3f:c2:46:d2:26:6c:
                    39:69:91:f9:29:8e:c8:53:36:e8:ed:8b:8c:dc:23:
                    70:5b:85:2b:6d:c5:3f:97:39:85:3f:b9:64:b0:f7:
                    06:f9:a8:7a:ad:46:ba:31:07:de:68:9f:eb:5f:1c:
                    81:5a:21:01:fe:e3:e7:3f:7f:cd:e4:04:76:e9:c8:
                    a5:10:f9:73:a8:7e:a1:1a:9b:8d:9f:dd:85:6d:2f:
                    b2:70:b7:9d:a2:25:9c:e6:bf:e0:0d:42:bc:1b:b7:
                    44:77
                Exponent: 65537 (0x10001)
        X509v3 extensions:
            X509v3 Basic Constraints: 
                CA:FALSE
            X509v3 Subject Key Identifier: 
                92:31:A1:BA:3C:68:C8:05:4F:53:7B:21:0B:60:2E:34:6D:17:9B:D4
            X509v3 Authority Key Identifier: 
                keyid:72:62:BC:D8:AD:C2:C9:B3:DB:C7:8A:8A:0A:A3:2C:A9:68:F3:A9:BA
                DirName:/CN=team162-net
                serial:7B:1C:81:13:31:72:FA:EA:86:A7:25:89:2A:08:7A:14:DB:F1:93:90

            X509v3 Extended Key Usage: 
                TLS Web Server Authentication
            X509v3 Key Usage: 
                Digital Signature, Key Encipherment
            X509v3 Subject Alternative Name: 
                DNS:team162-server
    Signature Algorithm: sha256WithRSAEncryption
         5e:80:88:9f:75:ab:23:6e:70:72:b1:59:c9:be:bd:9c:a3:3b:
         28:d4:06:a8:5a:e6:4a:a3:61:ea:68:67:e8:bd:4c:ee:6d:11:
         c2:ab:fe:03:ad:c7:95:ef:3d:77:13:94:ae:22:7a:c2:a2:c0:
         45:57:fa:1b:63:18:3c:33:7a:0c:c6:e2:7f:62:8a:71:16:8e:
         08:40:fa:8b:25:1f:d9:e6:90:ed:70:59:b2:bb:a1:67:8b:90:
         76:86:53:c6:2a:a0:50:e1:08:b2:ba:95:27:ba:48:65:ec:49:
         22:5c:a9:53:c8:80:aa:1f:46:27:e3:0d:a6:22:d3:bb:06:3a:
         5b:be:51:fa:b3:97:cd:ad:41:cc:99:0b:33:f8:a5:32:96:44:
         b9:ab:33:27:e5:55:0a:7f:0e:61:e5:37:a5:96:5b:ae:e8:09:
         ca:57:13:95:00:1d:5e:c0:0b:d8:86:f4:09:1b:11:e6:e3:8e:
         4b:6d:8d:91:36:f1:93:9e:58:6e:28:94:1a:8d:34:3e:a6:e8:
         15:a1:4f:82:9b:8e:9c:d3:fc:b2:a9:bd:d1:1e:c2:43:33:1d:
         19:05:b2:8b:05:30:d2:2a:62:50:b1:93:6a:4d:c9:28:a6:73:
         38:12:04:14:d1:5b:31:34:d5:1a:81:53:f4:5d:71:ff:1d:84:
         fb:93:ea:3b
-----BEGIN CERTIFICATE-----
MIIDdzCCAl+gAwIBAgIQciAk2EPBNpSQgnvoGhM3WzANBgkqhkiG9w0BAQsFADAW
MRQwEgYDVQQDDAt0ZWFtMTYyLW5ldDAeFw0yMTA5MTMwMDIxMDhaFw0yNDA4Mjgw
MDIxMDhaMBkxFzAVBgNVBAMMDnRlYW0xNjItc2VydmVyMIIBIjANBgkqhkiG9w0B
AQEFAAOCAQ8AMIIBCgKCAQEA8M8UWNEJ3KW0PYBS7DkRT57HMxg4/+vC90g6mLPN
Ie03uFVMxlFJ5ry+PctT4nvDQSpqL+AqikpMc/mlHVykp67EERBn7l8ZPY1OZDs7
VuQzGvN7f5p6BgnRLYy7yyzsPCl3bsGM8gtedbAh2nhLPhnI+g583FUCk9xbmvZf
i4isDhnHABezNu+eLkYdHMyqx35xICKQcpBVek69+Mw/wkbSJmw5aZH5KY7IUzbo
7YuM3CNwW4UrbcU/lzmFP7lksPcG+ah6rUa6MQfeaJ/rXxyBWiEB/uPnP3/N5AR2
6cilEPlzqH6hGpuNn92FbS+ycLedoiWc5r/gDUK8G7dEdwIDAQABo4G9MIG6MAkG
A1UdEwQCMAAwHQYDVR0OBBYEFJIxobo8aMgFT1N7IQtgLjRtF5vUMFEGA1UdIwRK
MEiAFHJivNitwsmz28eKigqjLKlo86m6oRqkGDAWMRQwEgYDVQQDDAt0ZWFtMTYy
LW5ldIIUexyBEzFy+uqGpyWJKgh6FNvxk5AwEwYDVR0lBAwwCgYIKwYBBQUHAwEw
CwYDVR0PBAQDAgWgMBkGA1UdEQQSMBCCDnRlYW0xNjItc2VydmVyMA0GCSqGSIb3
DQEBCwUAA4IBAQBegIifdasjbnBysVnJvr2cozso1AaoWuZKo2HqaGfovUzubRHC
q/4DrceV7z13E5SuInrCosBFV/obYxg8M3oMxuJ/YopxFo4IQPqLJR/Z5pDtcFmy
u6Fni5B2hlPGKqBQ4QiyupUnukhl7EkiXKlTyICqH0Yn4w2mItO7BjpbvlH6s5fN
rUHMmQsz+KUylkS5qzMn5VUKfw5h5Tellluu6AnKVxOVAB1ewAvYhvQJGxHm445L
bY2RNvGTnlhuKJQajTQ+pugVoU+Cm46c0/yyqb3RHsJDMx0ZBbKLBTDSKmJQsZNq
TckopnM4EgQU0VsxNNUagVP0XXH/HYT7k+o7
-----END CERTIFICATE-----
