Certificate:
    Data:
        Version: 3 (0x2)
        Serial Number:
            ce:5c:a2:05:93:23:5d:03:57:3f:60:a1:f5:e7:fe:ff
        Signature Algorithm: sha256WithRSAEncryption
        Issuer: CN=team698-net
        Validity
            Not Before: Sep 13 04:46:47 2021 GMT
            Not After : Aug 28 04:46:47 2024 GMT
        Subject: CN=team698-server
        Subject Public Key Info:
            Public Key Algorithm: rsaEncryption
                RSA Public-Key: (2048 bit)
                Modulus:
                    00:d7:aa:1c:04:98:4c:64:51:61:99:69:f8:9c:4c:
                    57:89:db:fd:49:2f:34:21:6a:46:83:de:93:0b:0f:
                    b8:67:98:be:23:5e:74:b7:c2:98:e4:93:39:98:8c:
                    44:05:2b:0c:5b:5c:0e:60:f4:ff:3c:83:f6:b7:19:
                    c8:be:7b:32:b4:a6:8b:30:dd:06:a8:10:ab:a1:30:
                    77:dc:dd:60:86:73:44:98:42:86:e0:fa:ba:02:d5:
                    04:bd:72:21:ed:d5:79:9f:6b:65:ce:20:84:a7:59:
                    f7:37:0e:43:89:36:02:81:84:11:77:ac:36:6d:68:
                    d8:19:03:f5:a6:35:89:25:70:0f:47:6d:ad:83:a8:
                    28:42:14:63:5d:9b:d8:3d:95:e6:ae:09:f2:f8:77:
                    f7:f4:96:25:19:00:95:7c:dc:ab:d6:5d:f8:74:da:
                    98:3b:51:dc:0a:5f:ae:50:9e:ed:0d:3b:d8:5d:55:
                    24:ba:d7:56:5a:20:02:05:a5:a1:02:87:50:a7:35:
                    36:3f:a6:60:76:51:e4:9f:7e:ce:7b:51:93:38:29:
                    9e:2e:d0:da:aa:82:70:d3:8a:78:44:13:c0:1c:2e:
                    0d:f1:8f:bd:90:ea:03:40:f2:d8:85:ae:19:e1:23:
                    3c:e0:98:79:ae:b3:92:50:2d:e6:eb:e7:d7:a8:09:
                    a4:47
                Exponent: 65537 (0x10001)
        X509v3 extensions:
            X509v3 Basic Constraints: 
                CA:FALSE
            X509v3 Subject Key Identifier: 
                BB:2D:6E:96:25:E6:EA:FB:58:5C:A8:5C:0F:C7:C0:16:3C:9D:EE:6C
            X509v3 Authority Key Identifier: 
                keyid:F1:71:5F:F6:CF:0B:BF:A8:24:03:12:BA:EB:5D:7A:92:A7:76:DB:60
                DirName:/CN=team698-net
                serial:3D:E3:A2:87:98:60:A9:03:EE:A6:C0:5C:2A:BD:B7:97:35:84:CF:E2

            X509v3 Extended Key Usage: 
                TLS Web Server Authentication
            X509v3 Key Usage: 
                Digital Signature, Key Encipherment
            X509v3 Subject Alternative Name: 
                DNS:team698-server
    Signature Algorithm: sha256WithRSAEncryption
         35:85:16:e7:5a:b5:9b:96:6a:a7:5c:bf:cc:66:a6:04:28:5b:
         1d:5c:23:71:c1:c8:cb:3a:c6:fd:3a:3f:0b:bc:02:a7:36:ed:
         32:78:40:ec:ae:80:d4:cd:82:df:b2:48:2f:75:3b:d1:ed:79:
         e3:a8:7d:88:80:1c:c6:83:29:5d:02:43:d0:3f:bd:35:2e:e7:
         40:64:b7:2f:44:c0:c4:91:54:b0:29:bd:8f:d9:a0:1b:75:c3:
         f2:ea:78:45:4c:60:7c:e7:bd:7b:06:ed:69:c0:7a:84:9a:1e:
         b7:f5:9d:0e:77:50:bc:d0:0d:f9:9a:08:1b:09:d7:f5:fe:b8:
         4d:aa:84:58:91:f7:b4:68:3a:e2:aa:cd:cf:dc:ef:c8:af:49:
         0e:7b:a1:ef:97:aa:44:0d:eb:ca:83:1f:01:fa:4d:cf:b6:ba:
         3b:23:44:26:12:7c:86:d6:7d:8d:3b:91:a5:7c:a7:76:d0:80:
         3e:9e:9a:6e:49:6b:88:5d:0b:91:25:e0:52:35:c6:2d:e9:9e:
         0f:d3:9f:a7:24:ff:f4:ef:dd:20:86:db:5a:f7:ab:96:48:40:
         ec:aa:1a:2f:5f:a5:8c:a0:2f:21:12:f2:09:86:e4:3b:84:c3:
         d8:0c:96:02:1b:62:9e:f3:8e:52:e4:06:76:5b:e5:c2:fb:f0:
         9d:d1:11:61
-----BEGIN CERTIFICATE-----
MIIDeDCCAmCgAwIBAgIRAM5cogWTI10DVz9gofXn/v8wDQYJKoZIhvcNAQELBQAw
FjEUMBIGA1UEAwwLdGVhbTY5OC1uZXQwHhcNMjEwOTEzMDQ0NjQ3WhcNMjQwODI4
MDQ0NjQ3WjAZMRcwFQYDVQQDDA50ZWFtNjk4LXNlcnZlcjCCASIwDQYJKoZIhvcN
AQEBBQADggEPADCCAQoCggEBANeqHASYTGRRYZlp+JxMV4nb/UkvNCFqRoPekwsP
uGeYviNedLfCmOSTOZiMRAUrDFtcDmD0/zyD9rcZyL57MrSmizDdBqgQq6Ewd9zd
YIZzRJhChuD6ugLVBL1yIe3VeZ9rZc4ghKdZ9zcOQ4k2AoGEEXesNm1o2BkD9aY1
iSVwD0dtrYOoKEIUY12b2D2V5q4J8vh39/SWJRkAlXzcq9Zd+HTamDtR3ApfrlCe
7Q072F1VJLrXVlogAgWloQKHUKc1Nj+mYHZR5J9+zntRkzgpni7Q2qqCcNOKeEQT
wBwuDfGPvZDqA0Dy2IWuGeEjPOCYea6zklAt5uvn16gJpEcCAwEAAaOBvTCBujAJ
BgNVHRMEAjAAMB0GA1UdDgQWBBS7LW6WJebq+1hcqFwPx8AWPJ3ubDBRBgNVHSME
SjBIgBTxcV/2zwu/qCQDErrrXXqSp3bbYKEapBgwFjEUMBIGA1UEAwwLdGVhbTY5
OC1uZXSCFD3jooeYYKkD7qbAXCq9t5c1hM/iMBMGA1UdJQQMMAoGCCsGAQUFBwMB
MAsGA1UdDwQEAwIFoDAZBgNVHREEEjAQgg50ZWFtNjk4LXNlcnZlcjANBgkqhkiG
9w0BAQsFAAOCAQEANYUW51q1m5Zqp1y/zGamBChbHVwjccHIyzrG/To/C7wCpzbt
MnhA7K6A1M2C37JIL3U70e1546h9iIAcxoMpXQJD0D+9NS7nQGS3L0TAxJFUsCm9
j9mgG3XD8up4RUxgfOe9ewbtacB6hJoet/WdDndQvNAN+ZoIGwnX9f64TaqEWJH3
tGg64qrNz9zvyK9JDnuh75eqRA3ryoMfAfpNz7a6OyNEJhJ8htZ9jTuRpXyndtCA
Pp6abklriF0LkSXgUjXGLemeD9OfpyT/9O/dIIbbWverlkhA7KoaL1+ljKAvIRLy
CYbkO4TD2AyWAhtinvOOUuQGdlvlwvvwndERYQ==
-----END CERTIFICATE-----
