Certificate:
    Data:
        Version: 3 (0x2)
        Serial Number:
            c6:e1:d5:33:59:2e:69:d7:a4:6a:16:ed:32:a7:c4:cb
        Signature Algorithm: sha256WithRSAEncryption
        Issuer: CN=team563-net
        Validity
            Not Before: Sep 13 03:54:12 2021 GMT
            Not After : Aug 28 03:54:12 2024 GMT
        Subject: CN=team563-client
        Subject Public Key Info:
            Public Key Algorithm: rsaEncryption
                RSA Public-Key: (2048 bit)
                Modulus:
                    00:d3:06:e2:dd:22:80:0a:c8:7b:9e:d9:f3:44:c1:
                    2c:e1:61:6d:5c:f6:d5:35:a6:d5:97:01:4e:9f:93:
                    f6:cd:3f:09:da:8d:44:59:5e:4f:6d:b6:27:13:a7:
                    07:b6:9d:00:d6:01:5c:ca:68:1d:66:38:6d:1d:60:
                    34:9a:ae:c7:b7:a9:b9:9b:b5:81:3e:63:16:57:9b:
                    85:e9:a5:e3:20:35:55:01:08:c4:13:42:42:7e:4e:
                    0d:87:ea:25:a1:8d:62:6a:0c:72:85:61:c3:41:36:
                    5b:82:51:e6:e9:16:20:4f:3d:75:0a:4b:00:7e:0c:
                    85:1b:19:be:98:89:81:c9:70:3b:6e:19:a5:a7:e7:
                    f7:12:07:7c:fa:5a:52:35:f0:ab:f9:d8:52:ea:2e:
                    f7:c5:8d:a3:c4:13:e8:2c:11:86:d8:4f:f9:68:ff:
                    f3:d0:fd:db:70:03:c7:1a:81:e3:b2:54:bf:e7:3e:
                    52:7a:07:ca:15:ff:f5:39:03:5c:b9:dc:31:17:1d:
                    09:fd:00:35:fb:a8:12:af:97:e6:1a:38:e7:01:13:
                    1f:05:7a:2b:9d:ec:95:5d:77:40:5e:07:ea:f4:8c:
                    3a:ce:19:eb:94:fb:c4:98:fc:20:cd:08:e5:c0:1f:
                    fa:48:a2:2a:82:91:0e:0a:23:1a:40:e2:7e:0d:27:
                    10:89
                Exponent: 65537 (0x10001)
        X509v3 extensions:
            X509v3 Basic Constraints: 
                CA:FALSE
            X509v3 Subject Key Identifier: 
                72:24:47:CC:0E:13:2F:A8:AE:D9:62:EA:5D:A6:29:9E:C7:C0:37:DD
            X509v3 Authority Key Identifier: 
                keyid:93:56:BE:D1:DA:1A:6B:2D:39:12:9E:05:C1:5D:54:79:AF:00:A2:3E
                DirName:/CN=team563-net
                serial:79:2A:A3:0A:FF:32:EE:F1:85:74:EA:45:42:06:63:F4:63:7A:A8:4A

            X509v3 Extended Key Usage: 
                TLS Web Client Authentication
            X509v3 Key Usage: 
                Digital Signature
    Signature Algorithm: sha256WithRSAEncryption
         31:79:ac:5f:6e:96:89:7a:15:71:48:1b:c1:e5:8e:72:62:50:
         23:69:78:58:42:a5:62:29:88:b6:eb:95:cc:13:dc:bf:fa:48:
         d6:36:a2:99:bc:21:9e:28:ae:b1:5b:f0:da:8e:94:89:20:c3:
         82:7b:d1:34:94:6f:61:49:e0:4b:fe:e8:53:0d:26:5c:8c:e6:
         2c:1c:c9:c2:82:17:e4:10:2e:4e:97:4c:ca:5d:4d:9f:03:43:
         77:d5:4e:d4:e9:84:99:91:c8:91:f7:c9:fc:17:78:73:4b:7f:
         5d:64:57:f2:29:bc:92:65:5c:5e:be:67:1a:d0:dc:d6:3d:78:
         97:1e:b7:72:e9:61:c7:da:b5:f7:3f:17:6d:91:02:1b:d5:c0:
         f8:2e:ce:ca:ea:20:ba:10:ca:e0:d8:4b:a8:e9:f9:b6:83:f7:
         1d:15:b4:c1:ea:17:17:01:e5:31:2a:00:af:e2:c7:b8:7d:f2:
         de:e2:55:dc:e8:49:c6:22:fa:5a:53:3f:2a:09:e2:af:52:df:
         a8:7c:94:93:b7:92:33:ef:b3:91:d1:7e:14:fe:ae:d7:99:eb:
         c4:a9:8d:9a:be:8e:fa:e0:00:34:4d:61:31:30:52:d9:1a:47:
         09:cd:62:ae:76:1b:53:0b:be:76:cd:a8:a5:22:ae:c1:db:5d:
         b9:60:1d:90
-----BEGIN CERTIFICATE-----
MIIDXTCCAkWgAwIBAgIRAMbh1TNZLmnXpGoW7TKnxMswDQYJKoZIhvcNAQELBQAw
FjEUMBIGA1UEAwwLdGVhbTU2My1uZXQwHhcNMjEwOTEzMDM1NDEyWhcNMjQwODI4
MDM1NDEyWjAZMRcwFQYDVQQDDA50ZWFtNTYzLWNsaWVudDCCASIwDQYJKoZIhvcN
AQEBBQADggEPADCCAQoCggEBANMG4t0igArIe57Z80TBLOFhbVz21TWm1ZcBTp+T
9s0/CdqNRFleT222JxOnB7adANYBXMpoHWY4bR1gNJqux7epuZu1gT5jFlebheml
4yA1VQEIxBNCQn5ODYfqJaGNYmoMcoVhw0E2W4JR5ukWIE89dQpLAH4MhRsZvpiJ
gclwO24Zpafn9xIHfPpaUjXwq/nYUuou98WNo8QT6CwRhthP+Wj/89D923ADxxqB
47JUv+c+UnoHyhX/9TkDXLncMRcdCf0ANfuoEq+X5ho45wETHwV6K53slV13QF4H
6vSMOs4Z65T7xJj8IM0I5cAf+kiiKoKRDgojGkDifg0nEIkCAwEAAaOBojCBnzAJ
BgNVHRMEAjAAMB0GA1UdDgQWBBRyJEfMDhMvqK7ZYupdpimex8A33TBRBgNVHSME
SjBIgBSTVr7R2hprLTkSngXBXVR5rwCiPqEapBgwFjEUMBIGA1UEAwwLdGVhbTU2
My1uZXSCFHkqowr/Mu7xhXTqRUIGY/RjeqhKMBMGA1UdJQQMMAoGCCsGAQUFBwMC
MAsGA1UdDwQEAwIHgDANBgkqhkiG9w0BAQsFAAOCAQEAMXmsX26WiXoVcUgbweWO
cmJQI2l4WEKlYimItuuVzBPcv/pI1jaimbwhniiusVvw2o6UiSDDgnvRNJRvYUng
S/7oUw0mXIzmLBzJwoIX5BAuTpdMyl1NnwNDd9VO1OmEmZHIkffJ/Bd4c0t/XWRX
8im8kmVcXr5nGtDc1j14lx63culhx9q19z8XbZECG9XA+C7OyuoguhDK4NhLqOn5
toP3HRW0weoXFwHlMSoAr+LHuH3y3uJV3OhJxiL6WlM/Kgnir1LfqHyUk7eSM++z
kdF+FP6u15nrxKmNmr6O+uAANE1hMTBS2RpHCc1irnYbUwu+ds2opSKuwdtduWAd
kA==
-----END CERTIFICATE-----
