Certificate:
    Data:
        Version: 3 (0x2)
        Serial Number:
            69:a3:28:a7:47:f4:b3:e8:79:60:b4:4e:49:a4:c6:c7
        Signature Algorithm: sha256WithRSAEncryption
        Issuer: CN=team35-net
        Validity
            Not Before: Sep 12 23:02:11 2021 GMT
            Not After : Aug 27 23:02:11 2024 GMT
        Subject: CN=team35-client
        Subject Public Key Info:
            Public Key Algorithm: rsaEncryption
                RSA Public-Key: (2048 bit)
                Modulus:
                    00:ba:35:5e:eb:3f:d9:63:ba:6d:e1:18:34:8b:6f:
                    8b:6c:80:27:b7:fc:23:1a:d4:36:55:d1:08:43:76:
                    79:63:b7:17:eb:a1:46:e8:65:64:29:85:b1:41:fa:
                    f1:49:3e:65:92:47:69:4b:44:3f:60:9b:c7:41:65:
                    70:5a:31:2f:89:5f:71:af:f2:59:a4:c6:9b:09:db:
                    92:8a:88:23:b7:fe:2f:22:a6:ba:59:82:1f:78:c3:
                    f4:bd:38:2f:5c:94:e0:4a:73:05:96:fb:28:54:06:
                    ce:e1:c4:62:fd:61:d2:c3:f3:2f:42:52:18:47:4b:
                    be:f3:e2:02:57:1d:a0:9a:de:b9:4f:8b:99:02:c4:
                    62:49:6f:55:08:52:b5:0d:20:c3:68:ae:ef:36:57:
                    c4:ef:e5:76:ad:6d:3a:26:d7:8b:ca:0e:57:bb:5a:
                    58:26:24:6e:29:02:93:f2:0b:50:e9:ba:3c:d7:f5:
                    9a:ae:4e:33:48:3e:bd:f8:bc:36:46:f1:4d:b1:15:
                    5a:37:e4:62:0d:b8:d5:01:ba:f5:01:50:15:c0:78:
                    6f:3f:c0:74:06:f2:76:9f:5a:b6:41:4c:af:f6:1f:
                    d7:19:96:c7:e3:f9:c3:46:46:30:bc:1e:b3:e7:4d:
                    41:cd:74:c8:69:44:7e:42:66:4c:83:21:d7:6d:66:
                    a9:f5
                Exponent: 65537 (0x10001)
        X509v3 extensions:
            X509v3 Basic Constraints: 
                CA:FALSE
            X509v3 Subject Key Identifier: 
                26:1E:0C:09:4B:24:48:B6:DD:2E:15:97:89:31:FA:C2:19:BF:5B:E7
            X509v3 Authority Key Identifier: 
                keyid:E6:8E:29:53:B3:56:FA:66:CA:59:12:FB:31:AB:4A:94:01:E1:52:AD
                DirName:/CN=team35-net
                serial:63:55:27:C3:76:C8:FD:31:9B:20:FD:CB:6F:B4:24:FF:AB:8E:F1:E5

            X509v3 Extended Key Usage: 
                TLS Web Client Authentication
            X509v3 Key Usage: 
                Digital Signature
    Signature Algorithm: sha256WithRSAEncryption
         8c:71:08:b4:5a:23:30:e0:75:c8:f5:1c:9f:70:7b:e4:a5:36:
         b8:35:1f:a2:8f:31:10:14:b3:b9:44:3f:94:88:7e:68:8d:10:
         59:b0:0a:1c:10:2c:14:94:6c:28:da:a2:6a:80:6a:f8:3f:b2:
         13:69:94:78:d7:e7:42:e0:21:87:5d:06:02:8a:56:88:56:16:
         fd:45:fa:b8:9e:10:c3:3d:81:77:18:c8:d2:4c:aa:19:57:50:
         bc:c5:f7:1d:ca:d4:94:2f:cf:48:93:5a:30:e8:56:09:b2:51:
         0d:6d:2f:61:de:42:f5:ee:f7:e4:43:1a:f8:cf:b7:18:b9:56:
         e9:37:c8:bc:37:83:85:c5:33:72:9e:f6:63:57:73:d0:e1:56:
         22:4b:a0:14:72:5d:b9:ce:b7:34:19:26:73:fb:98:eb:8b:cd:
         42:8c:80:db:86:df:2d:ef:3c:c4:20:d8:1a:a3:fd:3d:e1:a1:
         ac:f7:8a:c8:7f:39:9a:86:16:1f:b5:03:95:fd:d6:68:1a:4f:
         8b:84:cd:95:a1:8c:93:64:ea:8e:83:8d:5e:1d:73:9b:07:56:
         eb:c2:8a:4f:a6:75:c6:c2:b7:af:3e:1e:1f:71:42:39:51:8e:
         e9:65:d2:f8:09:ab:49:29:b9:ea:35:33:94:f1:7f:d6:78:3e:
         d2:a5:09:c6
-----BEGIN CERTIFICATE-----
MIIDWTCCAkGgAwIBAgIQaaMop0f0s+h5YLROSaTGxzANBgkqhkiG9w0BAQsFADAV
MRMwEQYDVQQDDAp0ZWFtMzUtbmV0MB4XDTIxMDkxMjIzMDIxMVoXDTI0MDgyNzIz
MDIxMVowGDEWMBQGA1UEAwwNdGVhbTM1LWNsaWVudDCCASIwDQYJKoZIhvcNAQEB
BQADggEPADCCAQoCggEBALo1Xus/2WO6beEYNItvi2yAJ7f8IxrUNlXRCEN2eWO3
F+uhRuhlZCmFsUH68Uk+ZZJHaUtEP2Cbx0FlcFoxL4lfca/yWaTGmwnbkoqII7f+
LyKmulmCH3jD9L04L1yU4EpzBZb7KFQGzuHEYv1h0sPzL0JSGEdLvvPiAlcdoJre
uU+LmQLEYklvVQhStQ0gw2iu7zZXxO/ldq1tOibXi8oOV7taWCYkbikCk/ILUOm6
PNf1mq5OM0g+vfi8NkbxTbEVWjfkYg241QG69QFQFcB4bz/AdAbydp9atkFMr/Yf
1xmWx+P5w0ZGMLwes+dNQc10yGlEfkJmTIMh121mqfUCAwEAAaOBoTCBnjAJBgNV
HRMEAjAAMB0GA1UdDgQWBBQmHgwJSyRItt0uFZeJMfrCGb9b5zBQBgNVHSMESTBH
gBTmjilTs1b6ZspZEvsxq0qUAeFSraEZpBcwFTETMBEGA1UEAwwKdGVhbTM1LW5l
dIIUY1Unw3bI/TGbIP3Lb7Qk/6uO8eUwEwYDVR0lBAwwCgYIKwYBBQUHAwIwCwYD
VR0PBAQDAgeAMA0GCSqGSIb3DQEBCwUAA4IBAQCMcQi0WiMw4HXI9RyfcHvkpTa4
NR+ijzEQFLO5RD+UiH5ojRBZsAocECwUlGwo2qJqgGr4P7ITaZR41+dC4CGHXQYC
ilaIVhb9Rfq4nhDDPYF3GMjSTKoZV1C8xfcdytSUL89Ik1ow6FYJslENbS9h3kL1
7vfkQxr4z7cYuVbpN8i8N4OFxTNynvZjV3PQ4VYiS6AUcl25zrc0GSZz+5jri81C
jIDbht8t7zzEINgao/094aGs94rIfzmahhYftQOV/dZoGk+LhM2VoYyTZOqOg41e
HXObB1brwopPpnXGwrevPh4fcUI5UY7pZdL4CatJKbnqNTOU8X/WeD7SpQnG
-----END CERTIFICATE-----
