Certificate:
    Data:
        Version: 3 (0x2)
        Serial Number:
            af:ff:35:ef:39:0c:81:cb:3e:03:ce:07:7f:8c:e2:8a
        Signature Algorithm: sha256WithRSAEncryption
        Issuer: CN=team333-net
        Validity
            Not Before: Sep 13 01:49:17 2021 GMT
            Not After : Aug 28 01:49:17 2024 GMT
        Subject: CN=team333-client
        Subject Public Key Info:
            Public Key Algorithm: rsaEncryption
                RSA Public-Key: (2048 bit)
                Modulus:
                    00:a4:af:e2:b9:5a:fc:e4:7b:c8:27:5c:8e:51:9b:
                    e1:94:6b:72:b1:68:ba:f2:7a:fa:04:ff:af:a9:b0:
                    89:96:c9:a8:17:54:8f:46:94:3e:84:87:1c:07:f4:
                    f2:44:16:5a:75:ac:71:bc:32:fc:cd:ff:43:2b:25:
                    a1:f9:ff:6f:11:dd:14:98:15:bf:88:fb:22:fa:90:
                    4c:a5:06:29:0b:98:88:35:7e:45:bb:b4:77:b9:4e:
                    aa:a3:02:0e:31:f2:02:7c:e8:e2:2c:bd:61:cf:2a:
                    fe:26:53:65:37:5c:02:d5:22:41:f5:85:ae:64:f2:
                    32:69:7b:1b:8a:04:8b:b3:3c:a9:da:54:f9:aa:c1:
                    9f:56:7f:76:cd:96:7a:12:b6:75:6e:2f:dd:ef:a9:
                    2d:f2:48:b8:6a:57:44:11:de:93:70:5c:17:4d:f3:
                    6d:d6:0d:1f:94:49:21:d1:39:6d:74:e0:ce:a5:2a:
                    e3:a4:8c:dd:2b:c4:8e:dd:19:18:d9:a6:7b:fa:7d:
                    af:1f:3c:35:1c:8c:76:4b:59:3b:43:15:c2:9d:45:
                    81:12:75:61:07:d6:2e:38:5a:6e:db:29:9f:a6:9f:
                    ca:47:a5:5c:94:6c:07:74:b5:4e:b3:0b:44:7e:ef:
                    a7:f3:67:87:6e:e0:bf:95:d0:a0:99:0e:d6:4a:53:
                    67:31
                Exponent: 65537 (0x10001)
        X509v3 extensions:
            X509v3 Basic Constraints: 
                CA:FALSE
            X509v3 Subject Key Identifier: 
                D8:80:12:FD:00:F4:AA:BE:ED:EC:B3:F7:90:C0:B8:B9:D8:9A:18:1C
            X509v3 Authority Key Identifier: 
                keyid:EA:0B:19:64:D1:5A:FF:0A:EA:F0:6B:87:46:4D:2F:4C:E9:49:87:11
                DirName:/CN=team333-net
                serial:10:E1:30:8F:0E:31:EB:0B:FE:69:65:D6:5F:66:31:D0:12:75:CF:FF

            X509v3 Extended Key Usage: 
                TLS Web Client Authentication
            X509v3 Key Usage: 
                Digital Signature
    Signature Algorithm: sha256WithRSAEncryption
         3c:b0:70:20:2f:c2:c6:aa:79:78:7f:34:b6:df:9d:ab:69:78:
         05:b9:4e:19:93:28:1c:b1:23:25:a5:ec:8b:ae:32:74:51:24:
         e0:e8:cb:51:6b:35:cb:63:48:8a:20:ea:16:c5:bb:69:15:31:
         6e:31:6f:bf:3e:8b:99:a0:48:3f:b0:1f:3b:de:97:e7:8d:ec:
         b6:ed:bb:8d:b5:4c:25:c7:39:21:ad:20:25:8b:57:95:93:83:
         53:20:16:31:d3:79:bc:71:4c:5e:28:28:a2:bc:d2:a5:29:bb:
         23:35:04:32:80:a3:b0:05:07:e3:93:dd:ca:7d:7b:7d:da:af:
         c5:0b:b7:07:d0:1e:04:44:a4:f0:b8:f5:c8:d8:c2:85:09:ec:
         f8:5f:29:21:ed:a0:b8:16:97:18:79:75:d0:47:58:e0:32:ca:
         a7:72:f6:26:2d:cf:97:04:74:45:76:59:2f:98:ad:bd:9a:d6:
         6b:bf:af:a4:54:9b:ee:aa:a1:24:e6:94:0e:8a:df:41:e4:e0:
         c6:e2:8e:54:6d:e4:d9:7e:93:28:e3:f1:b8:7d:71:a9:03:63:
         d0:16:5b:25:6c:66:21:d3:fd:0b:59:27:ab:03:5a:ed:d6:ef:
         31:b1:4a:d8:b4:01:ca:03:b4:5c:24:bc:09:a8:a8:8c:a7:3b:
         74:d3:69:4a
-----BEGIN CERTIFICATE-----
MIIDXTCCAkWgAwIBAgIRAK//Ne85DIHLPgPOB3+M4oowDQYJKoZIhvcNAQELBQAw
FjEUMBIGA1UEAwwLdGVhbTMzMy1uZXQwHhcNMjEwOTEzMDE0OTE3WhcNMjQwODI4
MDE0OTE3WjAZMRcwFQYDVQQDDA50ZWFtMzMzLWNsaWVudDCCASIwDQYJKoZIhvcN
AQEBBQADggEPADCCAQoCggEBAKSv4rla/OR7yCdcjlGb4ZRrcrFouvJ6+gT/r6mw
iZbJqBdUj0aUPoSHHAf08kQWWnWscbwy/M3/Qyslofn/bxHdFJgVv4j7IvqQTKUG
KQuYiDV+Rbu0d7lOqqMCDjHyAnzo4iy9Yc8q/iZTZTdcAtUiQfWFrmTyMml7G4oE
i7M8qdpU+arBn1Z/ds2WehK2dW4v3e+pLfJIuGpXRBHek3BcF03zbdYNH5RJIdE5
bXTgzqUq46SM3SvEjt0ZGNmme/p9rx88NRyMdktZO0MVwp1FgRJ1YQfWLjhabtsp
n6afykelXJRsB3S1TrMLRH7vp/Nnh27gv5XQoJkO1kpTZzECAwEAAaOBojCBnzAJ
BgNVHRMEAjAAMB0GA1UdDgQWBBTYgBL9APSqvu3ss/eQwLi52JoYHDBRBgNVHSME
SjBIgBTqCxlk0Vr/Curwa4dGTS9M6UmHEaEapBgwFjEUMBIGA1UEAwwLdGVhbTMz
My1uZXSCFBDhMI8OMesL/mll1l9mMdASdc//MBMGA1UdJQQMMAoGCCsGAQUFBwMC
MAsGA1UdDwQEAwIHgDANBgkqhkiG9w0BAQsFAAOCAQEAPLBwIC/Cxqp5eH80tt+d
q2l4BblOGZMoHLEjJaXsi64ydFEk4OjLUWs1y2NIiiDqFsW7aRUxbjFvvz6LmaBI
P7AfO96X543stu27jbVMJcc5Ia0gJYtXlZODUyAWMdN5vHFMXigoorzSpSm7IzUE
MoCjsAUH45Pdyn17fdqvxQu3B9AeBESk8Lj1yNjChQns+F8pIe2guBaXGHl10EdY
4DLKp3L2Ji3PlwR0RXZZL5itvZrWa7+vpFSb7qqhJOaUDorfQeTgxuKOVG3k2X6T
KOPxuH1xqQNj0BZbJWxmIdP9C1knqwNa7dbvMbFK2LQBygO0XCS8CaiojKc7dNNp
Sg==
-----END CERTIFICATE-----
