Certificate:
    Data:
        Version: 3 (0x2)
        Serial Number:
            24:86:43:33:9f:e8:00:53:ce:20:47:54:b9:42:ec:19
        Signature Algorithm: sha256WithRSAEncryption
        Issuer: CN=team314-net
        Validity
            Not Before: Sep 13 01:34:29 2021 GMT
            Not After : Aug 28 01:34:29 2024 GMT
        Subject: CN=team314-server
        Subject Public Key Info:
            Public Key Algorithm: rsaEncryption
                RSA Public-Key: (2048 bit)
                Modulus:
                    00:99:f1:f9:53:85:b7:65:19:cf:d9:d4:50:85:ef:
                    5d:39:37:21:3f:ac:c6:89:04:5f:3f:20:da:ff:0a:
                    de:5c:ba:86:1b:0a:8f:81:89:cd:86:1d:ac:21:97:
                    b0:bc:a4:25:07:11:78:b5:87:5a:f2:9d:11:38:f4:
                    7d:3c:38:48:cb:70:47:77:d3:ac:c8:66:13:7d:ae:
                    c0:89:db:c8:61:08:11:90:a3:95:07:ae:c5:2c:be:
                    a9:ab:24:69:06:2f:10:83:8c:85:65:7a:c7:b1:24:
                    f3:b6:3a:7b:d2:14:7f:de:f1:51:f7:71:fb:f2:bf:
                    f5:2c:b1:54:6b:19:72:64:d6:55:99:51:b8:f6:6e:
                    f5:a0:1e:4c:c7:0b:f6:40:61:b7:59:69:d6:f8:0f:
                    67:73:1e:d3:17:b1:c8:55:d5:5b:e9:37:2d:31:3f:
                    d0:3e:92:2c:03:06:9b:22:d0:6b:e1:90:eb:4a:2d:
                    f3:77:58:fd:7e:9c:c0:4a:28:bd:f8:e3:cb:06:68:
                    74:4b:10:19:f5:08:15:11:45:d5:42:f5:16:6c:98:
                    fc:7a:64:34:7c:e1:f0:cd:5c:0c:26:79:d7:d2:cc:
                    26:19:d1:19:fb:93:b9:37:d2:fd:0e:d7:62:8e:65:
                    49:c1:1a:32:d3:98:41:ff:5a:19:6e:75:43:2b:c5:
                    4f:73
                Exponent: 65537 (0x10001)
        X509v3 extensions:
            X509v3 Basic Constraints: 
                CA:FALSE
            X509v3 Subject Key Identifier: 
                F8:C3:ED:24:A2:BC:BF:67:B9:04:5E:9A:87:9A:CC:3D:2B:B5:FE:27
            X509v3 Authority Key Identifier: 
                keyid:26:A5:59:6D:C1:FA:5D:B9:18:4E:E2:F2:2B:DF:EB:F0:2B:B6:B4:CC
                DirName:/CN=team314-net
                serial:05:43:B5:06:78:1B:85:AD:80:FF:C0:88:3A:27:7A:CC:6F:E4:ED:54

            X509v3 Extended Key Usage: 
                TLS Web Server Authentication
            X509v3 Key Usage: 
                Digital Signature, Key Encipherment
            X509v3 Subject Alternative Name: 
                DNS:team314-server
    Signature Algorithm: sha256WithRSAEncryption
         91:f2:62:a6:f0:87:fc:0e:db:e3:26:cb:38:b6:2a:68:f6:1a:
         75:f7:65:9e:ed:c9:73:12:1d:cf:ee:b9:f2:38:77:d3:d7:47:
         bc:3f:28:3c:97:1d:71:c7:3b:7d:e7:c7:52:a1:30:2a:57:e1:
         3e:3d:fe:b7:45:01:41:e2:ce:11:d4:e1:29:64:ba:b5:ba:d0:
         e4:49:70:1f:47:55:74:26:67:ce:22:4a:c8:cd:59:6d:8b:d3:
         26:b5:46:cf:b3:0b:b1:09:33:28:bd:d2:a5:75:74:83:1d:07:
         78:f6:87:30:ee:17:f5:57:5d:eb:db:77:0f:e7:c7:f1:1d:ff:
         ac:33:8c:e3:93:53:f5:96:dc:d7:bf:a5:0d:d3:f8:0b:9d:5a:
         97:66:a2:0a:43:b5:46:7c:2a:45:45:8c:05:17:6d:5c:50:75:
         d8:59:55:fd:b0:6e:20:cf:bd:7d:17:37:ec:0a:44:e9:86:fa:
         99:f5:bc:a2:80:20:ca:74:82:39:57:61:49:d3:77:9d:3e:65:
         83:bc:dc:4a:f6:fc:d5:ae:5d:6f:62:e3:fa:f0:67:eb:e8:d7:
         35:d3:0d:a2:05:bd:07:72:c9:e9:5d:0b:98:a8:ec:3f:d3:33:
         70:e7:c9:ba:04:90:c9:8d:6a:34:38:f0:b3:e3:8c:a8:8d:92:
         f0:86:8e:07
-----BEGIN CERTIFICATE-----
MIIDdzCCAl+gAwIBAgIQJIZDM5/oAFPOIEdUuULsGTANBgkqhkiG9w0BAQsFADAW
MRQwEgYDVQQDDAt0ZWFtMzE0LW5ldDAeFw0yMTA5MTMwMTM0MjlaFw0yNDA4Mjgw
MTM0MjlaMBkxFzAVBgNVBAMMDnRlYW0zMTQtc2VydmVyMIIBIjANBgkqhkiG9w0B
AQEFAAOCAQ8AMIIBCgKCAQEAmfH5U4W3ZRnP2dRQhe9dOTchP6zGiQRfPyDa/wre
XLqGGwqPgYnNhh2sIZewvKQlBxF4tYda8p0ROPR9PDhIy3BHd9OsyGYTfa7AidvI
YQgRkKOVB67FLL6pqyRpBi8Qg4yFZXrHsSTztjp70hR/3vFR93H78r/1LLFUaxly
ZNZVmVG49m71oB5Mxwv2QGG3WWnW+A9ncx7TF7HIVdVb6TctMT/QPpIsAwabItBr
4ZDrSi3zd1j9fpzASii9+OPLBmh0SxAZ9QgVEUXVQvUWbJj8emQ0fOHwzVwMJnnX
0swmGdEZ+5O5N9L9DtdijmVJwRoy05hB/1oZbnVDK8VPcwIDAQABo4G9MIG6MAkG
A1UdEwQCMAAwHQYDVR0OBBYEFPjD7SSivL9nuQRemoeazD0rtf4nMFEGA1UdIwRK
MEiAFCalWW3B+l25GE7i8ivf6/ArtrTMoRqkGDAWMRQwEgYDVQQDDAt0ZWFtMzE0
LW5ldIIUBUO1Bngbha2A/8CIOid6zG/k7VQwEwYDVR0lBAwwCgYIKwYBBQUHAwEw
CwYDVR0PBAQDAgWgMBkGA1UdEQQSMBCCDnRlYW0zMTQtc2VydmVyMA0GCSqGSIb3
DQEBCwUAA4IBAQCR8mKm8If8DtvjJss4tipo9hp192We7clzEh3P7rnyOHfT10e8
Pyg8lx1xxzt958dSoTAqV+E+Pf63RQFB4s4R1OEpZLq1utDkSXAfR1V0JmfOIkrI
zVlti9MmtUbPswuxCTMovdKldXSDHQd49ocw7hf1V13r23cP58fxHf+sM4zjk1P1
ltzXv6UN0/gLnVqXZqIKQ7VGfCpFRYwFF21cUHXYWVX9sG4gz719FzfsCkTphvqZ
9byigCDKdII5V2FJ03edPmWDvNxK9vzVrl1vYuP68Gfr6Nc10w2iBb0HcsnpXQuY
qOw/0zNw58m6BJDJjWo0OPCz44yojZLwho4H
-----END CERTIFICATE-----
