Certificate:
    Data:
        Version: 3 (0x2)
        Serial Number:
            28:de:41:0e:8d:31:ca:f5:7b:81:77:af:f3:d2:da:3f
        Signature Algorithm: sha256WithRSAEncryption
        Issuer: CN=team53-net
        Validity
            Not Before: Sep 12 23:09:46 2021 GMT
            Not After : Aug 27 23:09:46 2024 GMT
        Subject: CN=team53-client
        Subject Public Key Info:
            Public Key Algorithm: rsaEncryption
                RSA Public-Key: (2048 bit)
                Modulus:
                    00:bb:d6:ae:47:9d:77:85:dd:e3:5d:e9:44:96:36:
                    92:f4:06:da:02:9e:3e:dd:8a:b3:d6:48:8b:14:4d:
                    86:4d:6e:f1:cb:70:02:45:0c:68:7c:b4:28:32:6a:
                    22:b3:18:0b:80:a2:e4:43:c4:c4:48:08:4d:1a:d6:
                    4a:21:7a:16:37:a8:ef:bb:63:9d:ba:f4:af:68:48:
                    d7:ae:cb:39:12:06:9c:a1:2d:63:b2:3a:65:ed:3b:
                    75:d7:a0:18:59:39:0b:79:3b:7b:7b:c9:84:b1:31:
                    e2:f6:2d:83:2c:1e:c0:ea:67:9b:f8:c8:37:98:c7:
                    a3:e9:01:1f:8d:5e:e1:46:78:ba:fc:ce:4e:17:f9:
                    33:b9:f0:de:f9:3f:f3:16:c4:53:07:ab:64:73:ba:
                    83:0a:02:46:16:69:4b:91:fe:43:af:1d:8c:3d:d5:
                    68:f3:32:82:5b:0b:ca:13:b4:11:36:3a:a2:b5:1a:
                    93:93:61:c8:2c:f1:67:b9:18:ce:38:73:3f:98:e9:
                    d8:e4:26:d4:da:ed:8c:71:db:58:d0:9d:8e:f9:7a:
                    c6:ab:cb:75:7a:27:6f:ec:b3:e8:ba:33:db:8d:4e:
                    93:e8:53:63:d5:50:22:81:f9:01:7c:cc:a0:fe:87:
                    97:ff:7f:38:e8:75:1c:18:4d:5f:f6:ec:07:89:ec:
                    3f:25
                Exponent: 65537 (0x10001)
        X509v3 extensions:
            X509v3 Basic Constraints: 
                CA:FALSE
            X509v3 Subject Key Identifier: 
                97:99:88:8B:08:DD:2F:C1:CC:EA:04:FD:73:80:D4:9F:7A:7D:7D:FB
            X509v3 Authority Key Identifier: 
                keyid:4C:07:1A:EB:23:5D:4B:20:24:AA:6F:40:7A:88:75:BB:8A:30:06:03
                DirName:/CN=team53-net
                serial:21:02:98:67:7D:96:40:9D:D2:89:12:8F:C9:CE:33:01:C3:F2:4B:62

            X509v3 Extended Key Usage: 
                TLS Web Client Authentication
            X509v3 Key Usage: 
                Digital Signature
    Signature Algorithm: sha256WithRSAEncryption
         36:85:18:a1:6f:40:2c:93:ce:56:79:69:3d:d1:bc:4a:2e:75:
         17:e5:16:c3:ed:09:f6:3a:ea:b0:35:48:d7:f5:01:43:31:77:
         06:c3:26:e5:0f:75:21:b4:41:f3:4b:21:a8:7a:d1:dc:34:27:
         32:f7:e5:86:fd:ab:f4:cd:9c:cd:0d:5b:e7:8e:d9:5d:48:39:
         6c:b8:46:56:42:7b:a0:1b:57:7a:b5:f4:37:64:54:40:c0:5d:
         62:69:58:8c:63:e3:b0:98:3b:15:21:6b:6a:5b:6a:c0:06:a3:
         60:14:7b:c2:39:c0:b7:c3:8f:ca:b6:b4:63:61:f0:c3:16:5a:
         77:41:7f:fa:1d:e3:83:5f:56:c2:67:52:87:af:64:80:ff:fe:
         f1:9c:dc:c6:c9:b8:18:4e:43:95:c5:f6:94:5b:c5:0e:d5:2d:
         b2:dc:63:11:83:f7:9c:a0:a0:91:ea:b4:4d:6b:a2:db:e2:d4:
         8a:ef:bd:14:15:ad:40:cb:59:8d:77:13:61:68:eb:ef:f4:a4:
         df:cf:04:8f:8d:16:c7:c2:a0:27:c6:b8:58:66:30:de:18:c6:
         cb:8d:09:4a:5b:d2:91:6a:67:18:45:ec:ba:7e:02:bc:cb:77:
         c1:35:46:d3:0b:af:e0:b5:f0:c2:74:8d:30:0b:7d:a5:a5:7f:
         1d:ea:39:6d
-----BEGIN CERTIFICATE-----
MIIDWTCCAkGgAwIBAgIQKN5BDo0xyvV7gXev89LaPzANBgkqhkiG9w0BAQsFADAV
MRMwEQYDVQQDDAp0ZWFtNTMtbmV0MB4XDTIxMDkxMjIzMDk0NloXDTI0MDgyNzIz
MDk0NlowGDEWMBQGA1UEAwwNdGVhbTUzLWNsaWVudDCCASIwDQYJKoZIhvcNAQEB
BQADggEPADCCAQoCggEBALvWrkedd4Xd413pRJY2kvQG2gKePt2Ks9ZIixRNhk1u
8ctwAkUMaHy0KDJqIrMYC4Ci5EPExEgITRrWSiF6Fjeo77tjnbr0r2hI167LORIG
nKEtY7I6Ze07ddegGFk5C3k7e3vJhLEx4vYtgywewOpnm/jIN5jHo+kBH41e4UZ4
uvzOThf5M7nw3vk/8xbEUwerZHO6gwoCRhZpS5H+Q68djD3VaPMyglsLyhO0ETY6
orUak5NhyCzxZ7kYzjhzP5jp2OQm1NrtjHHbWNCdjvl6xqvLdXonb+yz6Loz241O
k+hTY9VQIoH5AXzMoP6Hl/9/OOh1HBhNX/bsB4nsPyUCAwEAAaOBoTCBnjAJBgNV
HRMEAjAAMB0GA1UdDgQWBBSXmYiLCN0vwczqBP1zgNSfen19+zBQBgNVHSMESTBH
gBRMBxrrI11LICSqb0B6iHW7ijAGA6EZpBcwFTETMBEGA1UEAwwKdGVhbTUzLW5l
dIIUIQKYZ32WQJ3SiRKPyc4zAcPyS2IwEwYDVR0lBAwwCgYIKwYBBQUHAwIwCwYD
VR0PBAQDAgeAMA0GCSqGSIb3DQEBCwUAA4IBAQA2hRihb0Ask85WeWk90bxKLnUX
5RbD7Qn2OuqwNUjX9QFDMXcGwyblD3UhtEHzSyGoetHcNCcy9+WG/av0zZzNDVvn
jtldSDlsuEZWQnugG1d6tfQ3ZFRAwF1iaViMY+OwmDsVIWtqW2rABqNgFHvCOcC3
w4/KtrRjYfDDFlp3QX/6HeODX1bCZ1KHr2SA//7xnNzGybgYTkOVxfaUW8UO1S2y
3GMRg/ecoKCR6rRNa6Lb4tSK770UFa1Ay1mNdxNhaOvv9KTfzwSPjRbHwqAnxrhY
ZjDeGMbLjQlKW9KRamcYRey6fgK8y3fBNUbTC6/gtfDCdI0wC32lpX8d6jlt
-----END CERTIFICATE-----
