Certificate:
    Data:
        Version: 3 (0x2)
        Serial Number:
            f8:30:e4:b3:50:ce:20:3d:2c:e7:89:f6:f5:e2:fa:49
        Signature Algorithm: sha256WithRSAEncryption
        Issuer: CN=team763-net
        Validity
            Not Before: Sep 13 05:19:37 2021 GMT
            Not After : Aug 28 05:19:37 2024 GMT
        Subject: CN=team763-client
        Subject Public Key Info:
            Public Key Algorithm: rsaEncryption
                RSA Public-Key: (2048 bit)
                Modulus:
                    00:c3:b9:f0:cf:a2:0a:c1:95:96:e3:7c:52:87:0f:
                    01:f3:31:60:2c:5d:a0:1c:de:14:ff:93:e5:79:e7:
                    fd:4c:5d:73:4e:8b:5e:a8:91:92:57:3d:75:6d:05:
                    e0:ce:e7:4c:b1:59:25:1b:6f:60:87:70:1a:f6:d9:
                    8b:d8:97:b2:c0:97:86:95:b6:23:7c:81:ab:74:e8:
                    b8:0e:0f:00:a5:37:81:84:7f:b1:a9:73:d8:13:19:
                    2b:a1:95:63:7b:a6:42:6e:b8:0e:17:52:ad:f7:35:
                    41:88:7f:e3:8a:97:80:cf:53:30:d0:55:30:a0:cd:
                    74:e7:2f:57:dc:71:8b:b6:1b:bc:a7:1b:00:64:18:
                    6c:dc:ad:9a:e7:91:de:4a:3a:f2:49:84:9c:92:90:
                    c4:d7:5d:88:3a:ac:80:2d:78:71:d8:a7:42:d5:fc:
                    84:d3:cc:2b:f8:14:0c:48:40:55:2b:60:1b:bb:fb:
                    2f:51:5f:18:29:f6:fc:be:96:2e:09:e2:4b:bd:3f:
                    12:b3:5e:a4:af:c8:07:4b:80:76:9c:bf:5b:28:65:
                    bb:36:0f:83:70:36:f4:25:71:27:79:35:0f:99:18:
                    38:34:5a:07:0c:37:f7:3a:7a:29:60:71:12:04:a8:
                    e2:a0:46:0e:ff:8a:e8:eb:e8:b0:c8:73:9e:ac:ac:
                    0e:79
                Exponent: 65537 (0x10001)
        X509v3 extensions:
            X509v3 Basic Constraints: 
                CA:FALSE
            X509v3 Subject Key Identifier: 
                76:EE:49:70:EE:F6:DF:57:72:2A:D7:86:28:7C:1C:C0:34:B7:B1:05
            X509v3 Authority Key Identifier: 
                keyid:75:6D:AF:F0:8C:27:94:AD:B0:62:40:1B:47:2D:7B:89:EF:24:7E:E7
                DirName:/CN=team763-net
                serial:15:61:59:05:AA:8C:6F:DC:BF:D8:1E:25:5A:E3:78:A0:85:F6:E5:6A

            X509v3 Extended Key Usage: 
                TLS Web Client Authentication
            X509v3 Key Usage: 
                Digital Signature
    Signature Algorithm: sha256WithRSAEncryption
         24:e2:e9:51:42:e4:b5:48:94:df:2f:34:4f:fa:2c:d7:ca:2f:
         8b:8c:c4:34:39:47:1c:d0:1a:4e:5c:b0:06:40:c9:30:ac:1d:
         4c:f2:8e:af:00:fc:2b:b9:a4:df:45:4d:69:79:74:7a:06:be:
         d5:3b:d2:92:88:1a:0b:45:4e:03:4e:e0:54:c7:1b:a2:66:5f:
         5f:11:56:77:7f:a1:d2:1b:af:78:ce:e1:95:40:aa:cb:0b:1c:
         4b:d0:37:cf:b2:9a:88:c6:ef:12:82:47:62:69:46:0d:52:bc:
         cc:1b:c0:20:e5:37:ec:4d:fe:b4:54:ec:de:25:9e:1b:31:5d:
         9c:ac:a7:38:a0:9c:27:1a:c6:8b:c3:2a:6c:83:8a:ea:57:7b:
         77:8e:71:03:96:18:3d:5c:e5:bf:8e:6e:f3:e3:6b:6d:16:b6:
         d0:29:11:39:32:87:3a:98:f1:1b:76:f3:ca:58:1d:f9:b1:f4:
         dd:e5:d8:3a:90:16:f2:3d:c9:6d:63:f2:8d:59:a1:7e:55:e3:
         f4:d4:08:4c:e9:e2:33:8f:b0:35:3f:6e:a1:5f:c1:34:c4:71:
         b9:28:06:44:5b:3c:1e:f2:fe:7e:ee:9d:31:88:e9:12:55:96:
         79:9c:96:94:6d:04:76:ad:be:6e:66:b1:d6:e6:bb:7a:4f:09:
         c2:c7:02:42
-----BEGIN CERTIFICATE-----
MIIDXTCCAkWgAwIBAgIRAPgw5LNQziA9LOeJ9vXi+kkwDQYJKoZIhvcNAQELBQAw
FjEUMBIGA1UEAwwLdGVhbTc2My1uZXQwHhcNMjEwOTEzMDUxOTM3WhcNMjQwODI4
MDUxOTM3WjAZMRcwFQYDVQQDDA50ZWFtNzYzLWNsaWVudDCCASIwDQYJKoZIhvcN
AQEBBQADggEPADCCAQoCggEBAMO58M+iCsGVluN8UocPAfMxYCxdoBzeFP+T5Xnn
/Uxdc06LXqiRklc9dW0F4M7nTLFZJRtvYIdwGvbZi9iXssCXhpW2I3yBq3TouA4P
AKU3gYR/salz2BMZK6GVY3umQm64DhdSrfc1QYh/44qXgM9TMNBVMKDNdOcvV9xx
i7YbvKcbAGQYbNytmueR3ko68kmEnJKQxNddiDqsgC14cdinQtX8hNPMK/gUDEhA
VStgG7v7L1FfGCn2/L6WLgniS70/ErNepK/IB0uAdpy/WyhluzYPg3A29CVxJ3k1
D5kYODRaBww39zp6KWBxEgSo4qBGDv+K6OvosMhznqysDnkCAwEAAaOBojCBnzAJ
BgNVHRMEAjAAMB0GA1UdDgQWBBR27klw7vbfV3Iq14YofBzANLexBTBRBgNVHSME
SjBIgBR1ba/wjCeUrbBiQBtHLXuJ7yR+56EapBgwFjEUMBIGA1UEAwwLdGVhbTc2
My1uZXSCFBVhWQWqjG/cv9geJVrjeKCF9uVqMBMGA1UdJQQMMAoGCCsGAQUFBwMC
MAsGA1UdDwQEAwIHgDANBgkqhkiG9w0BAQsFAAOCAQEAJOLpUULktUiU3y80T/os
18ovi4zENDlHHNAaTlywBkDJMKwdTPKOrwD8K7mk30VNaXl0ega+1TvSkogaC0VO
A07gVMcbomZfXxFWd3+h0huveM7hlUCqywscS9A3z7KaiMbvEoJHYmlGDVK8zBvA
IOU37E3+tFTs3iWeGzFdnKynOKCcJxrGi8MqbIOK6ld7d45xA5YYPVzlv45u8+Nr
bRa20CkROTKHOpjxG3bzylgd+bH03eXYOpAW8j3JbWPyjVmhflXj9NQITOniM4+w
NT9uoV/BNMRxuSgGRFs8HvL+fu6dMYjpElWWeZyWlG0Edq2+bmax1ua7ek8JwscC
Qg==
-----END CERTIFICATE-----
