Certificate:
    Data:
        Version: 3 (0x2)
        Serial Number:
            18:38:c5:2f:b9:c2:df:6f:58:87:99:4e:13:f2:42:f9
        Signature Algorithm: sha256WithRSAEncryption
        Issuer: CN=team566-net
        Validity
            Not Before: Sep 13 03:55:55 2021 GMT
            Not After : Aug 28 03:55:55 2024 GMT
        Subject: CN=team566-client
        Subject Public Key Info:
            Public Key Algorithm: rsaEncryption
                RSA Public-Key: (2048 bit)
                Modulus:
                    00:af:86:90:a2:1b:69:de:a2:66:3b:4e:b0:ac:15:
                    94:3b:c7:e8:37:97:ed:36:3f:5c:2d:71:27:6e:a3:
                    f0:72:b1:77:5f:3a:80:e4:87:3b:30:72:51:51:79:
                    0b:0a:48:5e:a9:48:25:9b:bc:a0:34:8f:6f:4c:33:
                    44:fb:85:65:16:5c:ff:27:f8:b4:ca:32:64:95:65:
                    64:5b:dc:2d:e9:43:07:55:7e:eb:55:dc:a9:72:ab:
                    37:9e:04:41:bf:f1:46:0d:4a:32:03:ef:94:6a:8c:
                    6b:5d:5f:b6:f4:cf:ac:4d:1b:7b:2c:3b:81:a8:2f:
                    be:6c:93:96:bd:2c:46:26:35:46:59:dd:9a:4e:a4:
                    6a:f2:b9:4a:05:12:69:14:d0:3f:17:3c:3c:6b:c8:
                    99:e9:8b:2e:ba:8d:2c:3e:b1:24:20:a1:d7:3d:64:
                    fb:31:5f:8f:99:fe:20:cd:2d:47:6f:e2:5d:94:e0:
                    5b:95:b5:71:d5:18:41:36:71:0c:c8:04:d9:b3:fb:
                    2e:eb:a4:40:d5:1c:34:48:48:50:fc:51:43:72:0f:
                    1f:91:ce:1b:36:07:fb:2b:8d:5c:ec:8b:12:08:56:
                    7f:18:d5:d6:c5:1b:40:e9:ef:a7:c1:73:1c:0c:f8:
                    31:ff:5b:aa:68:2d:95:ac:a0:e5:2b:86:25:61:9c:
                    24:7d
                Exponent: 65537 (0x10001)
        X509v3 extensions:
            X509v3 Basic Constraints: 
                CA:FALSE
            X509v3 Subject Key Identifier: 
                1A:BD:29:B5:91:1E:3D:A0:9A:93:FE:9D:40:51:62:4B:88:8B:46:35
            X509v3 Authority Key Identifier: 
                keyid:C7:52:79:71:E7:3F:BF:58:1B:C4:13:50:B7:CD:74:29:2B:1B:CD:B7
                DirName:/CN=team566-net
                serial:4F:CF:43:19:02:BB:83:67:AC:4D:EE:CA:41:C9:D7:12:11:EC:0A:CB

            X509v3 Extended Key Usage: 
                TLS Web Client Authentication
            X509v3 Key Usage: 
                Digital Signature
    Signature Algorithm: sha256WithRSAEncryption
         2a:0d:8d:95:14:bb:7b:74:14:2f:62:a4:a1:6e:02:f8:b5:44:
         7f:ba:85:3e:19:04:8b:a3:6b:cd:ba:b1:d9:3e:73:d7:44:a6:
         fc:27:2a:77:7b:42:97:fb:4e:62:8f:25:f0:a0:44:18:31:86:
         ea:46:b2:f2:d9:6f:66:52:8b:37:28:4c:e2:69:ff:be:a1:c6:
         ef:0d:26:40:29:a1:13:46:d9:1a:a1:f3:20:93:74:ad:80:45:
         57:21:43:b0:c8:fe:52:96:e3:25:25:ee:44:07:70:e1:db:d0:
         66:1a:85:cb:14:63:3c:90:1f:90:61:8c:a4:9b:d1:86:3e:12:
         84:d9:1a:cb:d7:b0:d5:e3:46:05:9c:1e:39:db:eb:b0:1f:51:
         d0:06:61:17:b4:86:5a:fd:b7:6c:6b:fb:5a:a5:8f:f4:aa:6a:
         7f:5b:c1:b9:46:31:63:bc:53:1b:6e:15:58:21:16:3a:f6:98:
         e9:ef:37:0c:0e:e7:7c:34:72:44:0a:1e:53:3b:c9:d7:46:db:
         f4:02:7f:5b:bb:e1:1a:bb:10:f7:6b:d4:24:cb:28:45:46:86:
         fe:01:3c:8c:74:06:37:e4:38:bf:2c:6a:84:f9:ed:4c:8c:6a:
         37:46:82:af:f0:1c:3a:47:d6:e4:cf:c5:90:a9:10:ac:04:04:
         d3:94:6e:7b
-----BEGIN CERTIFICATE-----
MIIDXDCCAkSgAwIBAgIQGDjFL7nC329Yh5lOE/JC+TANBgkqhkiG9w0BAQsFADAW
MRQwEgYDVQQDDAt0ZWFtNTY2LW5ldDAeFw0yMTA5MTMwMzU1NTVaFw0yNDA4Mjgw
MzU1NTVaMBkxFzAVBgNVBAMMDnRlYW01NjYtY2xpZW50MIIBIjANBgkqhkiG9w0B
AQEFAAOCAQ8AMIIBCgKCAQEAr4aQohtp3qJmO06wrBWUO8foN5ftNj9cLXEnbqPw
crF3XzqA5Ic7MHJRUXkLCkheqUglm7ygNI9vTDNE+4VlFlz/J/i0yjJklWVkW9wt
6UMHVX7rVdypcqs3ngRBv/FGDUoyA++UaoxrXV+29M+sTRt7LDuBqC++bJOWvSxG
JjVGWd2aTqRq8rlKBRJpFNA/Fzw8a8iZ6Ysuuo0sPrEkIKHXPWT7MV+Pmf4gzS1H
b+JdlOBblbVx1RhBNnEMyATZs/su66RA1Rw0SEhQ/FFDcg8fkc4bNgf7K41c7IsS
CFZ/GNXWxRtA6e+nwXMcDPgx/1uqaC2VrKDlK4YlYZwkfQIDAQABo4GiMIGfMAkG
A1UdEwQCMAAwHQYDVR0OBBYEFBq9KbWRHj2gmpP+nUBRYkuIi0Y1MFEGA1UdIwRK
MEiAFMdSeXHnP79YG8QTULfNdCkrG823oRqkGDAWMRQwEgYDVQQDDAt0ZWFtNTY2
LW5ldIIUT89DGQK7g2esTe7KQcnXEhHsCsswEwYDVR0lBAwwCgYIKwYBBQUHAwIw
CwYDVR0PBAQDAgeAMA0GCSqGSIb3DQEBCwUAA4IBAQAqDY2VFLt7dBQvYqShbgL4
tUR/uoU+GQSLo2vNurHZPnPXRKb8Jyp3e0KX+05ijyXwoEQYMYbqRrLy2W9mUos3
KEziaf++ocbvDSZAKaETRtkaofMgk3StgEVXIUOwyP5SluMlJe5EB3Dh29BmGoXL
FGM8kB+QYYykm9GGPhKE2RrL17DV40YFnB452+uwH1HQBmEXtIZa/bdsa/tapY/0
qmp/W8G5RjFjvFMbbhVYIRY69pjp7zcMDud8NHJECh5TO8nXRtv0An9bu+EauxD3
a9QkyyhFRob+ATyMdAY35Di/LGqE+e1MjGo3RoKv8Bw6R9bkz8WQqRCsBATTlG57
-----END CERTIFICATE-----
