Certificate:
    Data:
        Version: 3 (0x2)
        Serial Number:
            4f:62:01:d0:82:f1:58:4f:15:54:67:e3:59:48:63:e4
        Signature Algorithm: sha256WithRSAEncryption
        Issuer: CN=team7-net
        Validity
            Not Before: Sep 12 22:43:48 2021 GMT
            Not After : Aug 27 22:43:48 2024 GMT
        Subject: CN=team7-server
        Subject Public Key Info:
            Public Key Algorithm: rsaEncryption
                RSA Public-Key: (2048 bit)
                Modulus:
                    00:c0:8f:d4:a1:21:41:3e:07:79:ad:bc:ab:4e:ac:
                    39:f3:a0:fc:ec:13:0e:24:69:cf:aa:85:95:04:b0:
                    6d:13:eb:a2:27:93:d6:06:ae:3e:29:d4:42:c4:fb:
                    4b:c0:66:ea:f0:6f:41:4e:f4:16:6e:17:f4:c4:cc:
                    be:72:e9:52:07:77:31:26:8c:db:6e:90:1c:2e:14:
                    c1:23:94:fb:82:ba:62:7c:70:71:fe:01:69:69:06:
                    bf:62:18:05:f6:38:dc:ee:81:5b:39:8e:4c:e8:d5:
                    5f:d4:66:02:dd:f8:e8:80:7b:87:72:45:6b:fa:81:
                    de:7c:da:14:e4:d1:b1:7d:44:27:8e:b9:c5:d8:0f:
                    68:1f:46:1f:08:49:ec:33:1d:7f:3a:45:c9:66:ba:
                    bd:fb:9f:98:6f:0a:10:08:7a:be:16:66:8e:3e:1b:
                    9a:b4:cb:7c:96:a3:0e:79:70:eb:05:7b:46:34:95:
                    8b:1f:ef:68:fd:c7:e6:41:bf:b9:72:c0:d1:ff:73:
                    06:3a:e4:03:e6:e6:bb:8a:ee:84:2f:1a:26:a4:16:
                    61:c1:87:59:a9:1b:c2:bc:b8:70:e2:ef:29:94:21:
                    cd:aa:b1:e1:a2:5f:5d:95:02:0f:ee:40:88:aa:a9:
                    6f:38:4f:89:a9:40:d3:87:2d:14:5b:e9:ca:eb:23:
                    72:8d
                Exponent: 65537 (0x10001)
        X509v3 extensions:
            X509v3 Basic Constraints: 
                CA:FALSE
            X509v3 Subject Key Identifier: 
                43:89:73:AB:8E:10:66:DE:AF:2C:5A:ED:42:B7:5B:66:E3:E3:A2:AE
            X509v3 Authority Key Identifier: 
                keyid:E7:16:9E:8B:FC:00:47:DD:B9:D4:B8:74:C6:F2:EE:68:DA:F8:C8:BF
                DirName:/CN=team7-net
                serial:18:C8:29:59:E7:7E:D5:DC:42:78:7D:46:91:52:EC:FD:45:92:DD:3C

            X509v3 Extended Key Usage: 
                TLS Web Server Authentication
            X509v3 Key Usage: 
                Digital Signature, Key Encipherment
            X509v3 Subject Alternative Name: 
                DNS:team7-server
    Signature Algorithm: sha256WithRSAEncryption
         80:08:19:58:38:a4:f6:a8:94:6b:df:a2:8b:72:2b:8e:dd:be:
         bf:42:85:10:f7:69:d1:f6:d3:eb:c1:04:c8:43:c3:dc:5e:59:
         4f:04:a9:0a:e4:41:50:39:d7:d6:40:5e:ca:e9:fd:67:3f:8d:
         3b:52:13:5a:b7:e1:6d:97:1f:4b:4d:6f:a5:78:86:46:cc:82:
         80:71:45:5a:21:50:c3:6c:89:e7:27:17:f1:34:51:e1:c8:6a:
         fd:0d:64:76:d4:c4:4b:cc:02:9a:3e:ca:91:a1:7b:14:a6:86:
         0d:4f:01:1b:08:59:eb:fe:3e:d7:3c:72:0b:1c:b3:b7:0b:4d:
         7c:3e:1a:b1:64:95:d7:b0:58:c8:c5:e4:25:d0:67:bc:3a:fa:
         79:b0:84:57:76:f3:89:1d:78:5f:46:4d:9e:e3:da:43:71:d0:
         77:ce:59:cc:8d:26:37:bf:89:b0:98:bf:da:7d:4b:63:0e:ea:
         95:55:10:5a:21:dd:5e:e0:86:b8:cb:93:bb:ba:ea:55:92:2e:
         55:e2:22:81:f1:4e:13:a1:66:e6:ce:f8:d1:e9:c2:e6:c7:74:
         e3:a3:d3:ee:e4:7b:8b:76:b2:da:3b:86:48:61:8d:64:7c:0a:
         31:c5:ca:ae:74:22:79:f8:bb:69:e3:56:2a:f5:ea:ca:48:70:
         16:9c:1f:73
-----BEGIN CERTIFICATE-----
MIIDbzCCAlegAwIBAgIQT2IB0ILxWE8VVGfjWUhj5DANBgkqhkiG9w0BAQsFADAU
MRIwEAYDVQQDDAl0ZWFtNy1uZXQwHhcNMjEwOTEyMjI0MzQ4WhcNMjQwODI3MjI0
MzQ4WjAXMRUwEwYDVQQDDAx0ZWFtNy1zZXJ2ZXIwggEiMA0GCSqGSIb3DQEBAQUA
A4IBDwAwggEKAoIBAQDAj9ShIUE+B3mtvKtOrDnzoPzsEw4kac+qhZUEsG0T66In
k9YGrj4p1ELE+0vAZurwb0FO9BZuF/TEzL5y6VIHdzEmjNtukBwuFMEjlPuCumJ8
cHH+AWlpBr9iGAX2ONzugVs5jkzo1V/UZgLd+OiAe4dyRWv6gd582hTk0bF9RCeO
ucXYD2gfRh8ISewzHX86Rclmur37n5hvChAIer4WZo4+G5q0y3yWow55cOsFe0Y0
lYsf72j9x+ZBv7lywNH/cwY65APm5ruK7oQvGiakFmHBh1mpG8K8uHDi7ymUIc2q
seGiX12VAg/uQIiqqW84T4mpQNOHLRRb6crrI3KNAgMBAAGjgbkwgbYwCQYDVR0T
BAIwADAdBgNVHQ4EFgQUQ4lzq44QZt6vLFrtQrdbZuPjoq4wTwYDVR0jBEgwRoAU
5xaei/wAR9251Lh0xvLuaNr4yL+hGKQWMBQxEjAQBgNVBAMMCXRlYW03LW5ldIIU
GMgpWed+1dxCeH1GkVLs/UWS3TwwEwYDVR0lBAwwCgYIKwYBBQUHAwEwCwYDVR0P
BAQDAgWgMBcGA1UdEQQQMA6CDHRlYW03LXNlcnZlcjANBgkqhkiG9w0BAQsFAAOC
AQEAgAgZWDik9qiUa9+ii3Irjt2+v0KFEPdp0fbT68EEyEPD3F5ZTwSpCuRBUDnX
1kBeyun9Zz+NO1ITWrfhbZcfS01vpXiGRsyCgHFFWiFQw2yJ5ycX8TRR4chq/Q1k
dtTES8wCmj7KkaF7FKaGDU8BGwhZ6/4+1zxyCxyztwtNfD4asWSV17BYyMXkJdBn
vDr6ebCEV3bziR14X0ZNnuPaQ3HQd85ZzI0mN7+JsJi/2n1LYw7qlVUQWiHdXuCG
uMuTu7rqVZIuVeIigfFOE6Fm5s740enC5sd046PT7uR7i3ay2juGSGGNZHwKMcXK
rnQiefi7aeNWKvXqykhwFpwfcw==
-----END CERTIFICATE-----
