Certificate:
    Data:
        Version: 3 (0x2)
        Serial Number:
            e8:57:20:13:fd:e4:77:c0:d1:ec:e2:b9:d5:3b:9e:d0
        Signature Algorithm: sha256WithRSAEncryption
        Issuer: CN=team263-net
        Validity
            Not Before: Sep 13 00:58:36 2021 GMT
            Not After : Aug 28 00:58:36 2024 GMT
        Subject: CN=team263-server
        Subject Public Key Info:
            Public Key Algorithm: rsaEncryption
                RSA Public-Key: (2048 bit)
                Modulus:
                    00:bb:fa:78:72:5e:d5:a3:6f:c0:b6:56:4f:a2:f5:
                    81:2a:83:84:13:3e:b6:7d:f4:e2:e1:0b:d3:aa:65:
                    b8:36:e6:dd:30:c1:0f:e3:06:f0:59:9e:f8:02:0e:
                    de:08:af:4b:0a:49:99:d1:90:e7:1e:82:3b:2d:6a:
                    52:a2:43:13:84:f5:dc:23:88:a8:f8:42:e9:bc:6b:
                    73:7b:eb:e0:12:c2:81:77:a0:5a:1c:3c:85:f6:99:
                    53:81:f6:20:74:3f:a2:4b:8b:7d:c5:af:12:08:8d:
                    80:4c:69:7a:18:06:9b:00:70:6a:0d:01:e9:d1:66:
                    d1:cc:fa:5c:72:d9:94:20:1c:34:07:e7:8e:80:c4:
                    bb:ad:4c:78:73:f2:e1:9e:38:d3:c7:69:2c:12:ac:
                    18:39:a5:b6:bc:f5:d2:a5:51:ff:a0:cf:f0:48:10:
                    07:38:65:65:37:5a:a4:4d:97:92:ac:8d:d7:fb:d5:
                    58:22:31:ea:6f:82:7f:08:1f:a7:ca:3c:d0:83:f9:
                    c9:41:be:c3:1e:d9:41:8c:97:54:21:c1:5b:41:a2:
                    2c:97:01:fd:03:99:e0:da:9a:6f:d5:c0:98:e5:15:
                    ab:2c:8f:ff:31:da:6a:36:42:64:64:02:d3:4e:f5:
                    f6:18:e4:31:08:95:89:3c:a4:c4:be:11:a1:91:90:
                    c9:89
                Exponent: 65537 (0x10001)
        X509v3 extensions:
            X509v3 Basic Constraints: 
                CA:FALSE
            X509v3 Subject Key Identifier: 
                48:66:73:C6:72:DA:05:F1:85:58:3F:EC:82:96:62:AC:03:4C:00:89
            X509v3 Authority Key Identifier: 
                keyid:F0:40:98:3C:34:0A:C2:50:88:30:5F:EB:CF:87:F8:FE:50:0F:EA:0B
                DirName:/CN=team263-net
                serial:38:92:32:37:B5:85:FA:E5:44:BA:1C:15:96:53:3B:3C:31:43:E8:B6

            X509v3 Extended Key Usage: 
                TLS Web Server Authentication
            X509v3 Key Usage: 
                Digital Signature, Key Encipherment
            X509v3 Subject Alternative Name: 
                DNS:team263-server
    Signature Algorithm: sha256WithRSAEncryption
         12:e1:df:42:1c:f7:8b:50:9d:ed:15:0e:69:56:ad:7d:b1:62:
         af:16:f8:56:2c:14:ce:52:31:a9:47:9e:79:25:c1:98:e8:92:
         3b:8b:04:64:94:a3:30:17:7c:19:e0:9a:0c:31:b0:49:36:94:
         42:99:d9:a7:d9:c3:db:8f:89:95:28:5e:53:88:cc:a3:8b:22:
         3c:78:28:10:b5:b9:ea:eb:e7:d5:bb:33:c5:89:56:d4:75:47:
         0b:77:72:b5:b0:d4:11:33:86:08:98:4d:4f:e9:52:a3:50:c4:
         0f:b0:f0:e5:5b:1e:d0:69:eb:d7:6a:b6:4f:4d:f7:14:11:2d:
         60:73:a0:5a:33:6c:50:0b:93:c0:a3:7b:ea:51:81:62:b6:ff:
         d4:3f:ac:f6:42:64:6f:6f:7f:d7:ee:96:aa:54:ed:58:12:e1:
         5f:41:19:1a:4f:56:fc:2d:25:ec:d6:0a:89:95:bf:a1:85:8e:
         d1:69:c9:d7:38:92:40:fe:e6:ef:d4:63:ad:ef:80:6f:1c:07:
         71:4a:3b:bc:16:48:76:70:e0:fe:b1:6c:5f:24:d2:3c:00:39:
         02:7c:f4:28:de:87:70:c0:0b:66:a4:b3:4e:28:d2:91:1f:1d:
         ee:1a:eb:4d:54:21:61:a9:c6:d3:71:77:0d:7b:cc:0c:72:53:
         2a:75:52:e6
-----BEGIN CERTIFICATE-----
MIIDeDCCAmCgAwIBAgIRAOhXIBP95HfA0eziudU7ntAwDQYJKoZIhvcNAQELBQAw
FjEUMBIGA1UEAwwLdGVhbTI2My1uZXQwHhcNMjEwOTEzMDA1ODM2WhcNMjQwODI4
MDA1ODM2WjAZMRcwFQYDVQQDDA50ZWFtMjYzLXNlcnZlcjCCASIwDQYJKoZIhvcN
AQEBBQADggEPADCCAQoCggEBALv6eHJe1aNvwLZWT6L1gSqDhBM+tn304uEL06pl
uDbm3TDBD+MG8Fme+AIO3givSwpJmdGQ5x6COy1qUqJDE4T13COIqPhC6bxrc3vr
4BLCgXegWhw8hfaZU4H2IHQ/okuLfcWvEgiNgExpehgGmwBwag0B6dFm0cz6XHLZ
lCAcNAfnjoDEu61MeHPy4Z4408dpLBKsGDmltrz10qVR/6DP8EgQBzhlZTdapE2X
kqyN1/vVWCIx6m+Cfwgfp8o80IP5yUG+wx7ZQYyXVCHBW0GiLJcB/QOZ4Nqab9XA
mOUVqyyP/zHaajZCZGQC00719hjkMQiViTykxL4RoZGQyYkCAwEAAaOBvTCBujAJ
BgNVHRMEAjAAMB0GA1UdDgQWBBRIZnPGctoF8YVYP+yClmKsA0wAiTBRBgNVHSME
SjBIgBTwQJg8NArCUIgwX+vPh/j+UA/qC6EapBgwFjEUMBIGA1UEAwwLdGVhbTI2
My1uZXSCFDiSMje1hfrlRLocFZZTOzwxQ+i2MBMGA1UdJQQMMAoGCCsGAQUFBwMB
MAsGA1UdDwQEAwIFoDAZBgNVHREEEjAQgg50ZWFtMjYzLXNlcnZlcjANBgkqhkiG
9w0BAQsFAAOCAQEAEuHfQhz3i1Cd7RUOaVatfbFirxb4ViwUzlIxqUeeeSXBmOiS
O4sEZJSjMBd8GeCaDDGwSTaUQpnZp9nD24+JlSheU4jMo4siPHgoELW56uvn1bsz
xYlW1HVHC3dytbDUETOGCJhNT+lSo1DED7Dw5Vse0Gnr12q2T033FBEtYHOgWjNs
UAuTwKN76lGBYrb/1D+s9kJkb29/1+6WqlTtWBLhX0EZGk9W/C0l7NYKiZW/oYWO
0WnJ1ziSQP7m79Rjre+AbxwHcUo7vBZIdnDg/rFsXyTSPAA5Anz0KN6HcMALZqSz
TijSkR8d7hrrTVQhYanG03F3DXvMDHJTKnVS5g==
-----END CERTIFICATE-----
